ARM GAS  C:\Users\Mattia\AppData\Local\Temp\ccWAkbzb.s 			page 1


   1              		.syntax unified
   2              		.cpu cortex-m3
   3              		.fpu softvfp
   4              		.eabi_attribute 20, 1
   5              		.eabi_attribute 21, 1
   6              		.eabi_attribute 23, 3
   7              		.eabi_attribute 24, 1
   8              		.eabi_attribute 25, 1
   9              		.eabi_attribute 26, 1
  10              		.eabi_attribute 30, 6
  11              		.eabi_attribute 34, 1
  12              		.eabi_attribute 18, 4
  13              		.thumb
  14              		.syntax unified
  15              		.file	"Encoder_functions.c"
  16              		.text
  17              	.Ltext0:
  18              		.cfi_sections	.debug_frame
  19              		.section	.text.Change_CS_EncoderLine,"ax",%progbits
  20              		.align	2
  21              		.global	Change_CS_EncoderLine
  22              		.thumb
  23              		.thumb_func
  24              		.type	Change_CS_EncoderLine, %function
  25              	Change_CS_EncoderLine:
  26              	.LFB64:
  27              		.file 1 "..\\src\\Encoder_functions.c"
   1:..\src/Encoder_functions.c **** // ----------------------------------------------------------------------------
   2:..\src/Encoder_functions.c **** // BSD 3-Clause License
   3:..\src/Encoder_functions.c **** 
   4:..\src/Encoder_functions.c **** // Copyright (c) 2016, qbrobotics
   5:..\src/Encoder_functions.c **** // Copyright (c) 2017-2020, Centro "E.Piaggio"
   6:..\src/Encoder_functions.c **** // All rights reserved.
   7:..\src/Encoder_functions.c **** 
   8:..\src/Encoder_functions.c **** // Redistribution and use in source and binary forms, with or without
   9:..\src/Encoder_functions.c **** // modification, are permitted provided that the following conditions are met:
  10:..\src/Encoder_functions.c **** 
  11:..\src/Encoder_functions.c **** // * Redistributions of source code must retain the above copyright notice, this
  12:..\src/Encoder_functions.c **** //   list of conditions and the following disclaimer.
  13:..\src/Encoder_functions.c **** 
  14:..\src/Encoder_functions.c **** // * Redistributions in binary form must reproduce the above copyright notice,
  15:..\src/Encoder_functions.c **** //   this list of conditions and the following disclaimer in the documentation
  16:..\src/Encoder_functions.c **** //   and/or other materials provided with the distribution.
  17:..\src/Encoder_functions.c **** 
  18:..\src/Encoder_functions.c **** // * Neither the name of the copyright holder nor the names of its
  19:..\src/Encoder_functions.c **** //   contributors may be used to endorse or promote products derived from
  20:..\src/Encoder_functions.c **** //   this software without specific prior written permission.
  21:..\src/Encoder_functions.c **** 
  22:..\src/Encoder_functions.c **** // THIS SOFTWARE IS PROVIDED BY THE COPYRIGHT HOLDERS AND CONTRIBUTORS "AS IS"
  23:..\src/Encoder_functions.c **** // AND ANY EXPRESS OR IMPLIED WARRANTIES, INCLUDING, BUT NOT LIMITED TO, THE
  24:..\src/Encoder_functions.c **** // IMPLIED WARRANTIES OF MERCHANTABILITY AND FITNESS FOR A PARTICULAR PURPOSE ARE
  25:..\src/Encoder_functions.c **** // DISCLAIMED. IN NO EVENT SHALL THE COPYRIGHT HOLDER OR CONTRIBUTORS BE LIABLE
  26:..\src/Encoder_functions.c **** // FOR ANY DIRECT, INDIRECT, INCIDENTAL, SPECIAL, EXEMPLARY, OR CONSEQUENTIAL
  27:..\src/Encoder_functions.c **** // DAMAGES (INCLUDING, BUT NOT LIMITED TO, PROCUREMENT OF SUBSTITUTE GOODS OR
  28:..\src/Encoder_functions.c **** // SERVICES; LOSS OF USE, DATA, OR PROFITS; OR BUSINESS INTERRUPTION) HOWEVER
  29:..\src/Encoder_functions.c **** // CAUSED AND ON ANY THEORY OF LIABILITY, WHETHER IN CONTRACT, STRICT LIABILITY,
  30:..\src/Encoder_functions.c **** // OR TORT (INCLUDING NEGLIGENCE OR OTHERWISE) ARISING IN ANY WAY OUT OF THE USE
ARM GAS  C:\Users\Mattia\AppData\Local\Temp\ccWAkbzb.s 			page 2


  31:..\src/Encoder_functions.c **** // OF THIS SOFTWARE, EVEN IF ADVISED OF THE POSSIBILITY OF SUCH DAMAGE.
  32:..\src/Encoder_functions.c **** // POSSIBILITY OF SUCH DAMAGE.
  33:..\src/Encoder_functions.c **** // ----------------------------------------------------------------------------
  34:..\src/Encoder_functions.c **** 
  35:..\src/Encoder_functions.c **** /**
  36:..\src/Encoder_functions.c **** * \file         Encoder_functions.c
  37:..\src/Encoder_functions.c **** *
  38:..\src/Encoder_functions.c **** * \brief        Implementation of SPI module functions.
  39:..\src/Encoder_functions.c **** * \date         March 20th, 2020
  40:..\src/Encoder_functions.c **** * \author       _Centro "E.Piaggio"_
  41:..\src/Encoder_functions.c **** * \copyright    (C) 2012-2016 qbrobotics. All rights reserved.
  42:..\src/Encoder_functions.c **** * \copyright    (C) 2017-2020 Centro "E.Piaggio". All rights reserved.
  43:..\src/Encoder_functions.c **** */
  44:..\src/Encoder_functions.c **** 
  45:..\src/Encoder_functions.c **** #include "Encoder_functions.h"
  46:..\src/Encoder_functions.c **** 
  47:..\src/Encoder_functions.c **** /********************************************************************************
  48:..\src/Encoder_functions.c **** * Function Name: Change_CS_EncoderLine                                                   *
  49:..\src/Encoder_functions.c **** *********************************************************************************/
  50:..\src/Encoder_functions.c **** void Change_CS_EncoderLine(int n)
  51:..\src/Encoder_functions.c **** {        
  28              		.loc 1 51 0
  29              		.cfi_startproc
  30              		@ args = 0, pretend = 0, frame = 8
  31              		@ frame_needed = 1, uses_anonymous_args = 0
  32 0000 80B5     		push	{r7, lr}
  33              		.cfi_def_cfa_offset 8
  34              		.cfi_offset 7, -8
  35              		.cfi_offset 14, -4
  36 0002 82B0     		sub	sp, sp, #8
  37              		.cfi_def_cfa_offset 16
  38 0004 00AF     		add	r7, sp, #0
  39              		.cfi_def_cfa_register 7
  40 0006 7860     		str	r0, [r7, #4]
  52:..\src/Encoder_functions.c ****     // Change CS (only if necessary)
  53:..\src/Encoder_functions.c ****     if (Chip_Select_ENCODER_LINE_Read() != n) {        
  41              		.loc 1 53 0
  42 0008 FFF7FEFF 		bl	Chip_Select_ENCODER_LINE_Read
  43 000c 0346     		mov	r3, r0
  44 000e 1A46     		mov	r2, r3
  45 0010 7B68     		ldr	r3, [r7, #4]
  46 0012 9A42     		cmp	r2, r3
  47 0014 10D0     		beq	.L3
  54:..\src/Encoder_functions.c ****         RESET_COUNTERS_Write(0x01);     // Stop COUNTER_ENC
  48              		.loc 1 54 0
  49 0016 0120     		movs	r0, #1
  50 0018 FFF7FEFF 		bl	RESET_COUNTERS_Write
  55:..\src/Encoder_functions.c ****         CyDelayUs(10);
  51              		.loc 1 55 0
  52 001c 0A20     		movs	r0, #10
  53 001e FFF7FEFF 		bl	CyDelayUs
  56:..\src/Encoder_functions.c ****         Chip_Select_ENCODER_LINE_Write(n);
  54              		.loc 1 56 0
  55 0022 7B68     		ldr	r3, [r7, #4]
  56 0024 DBB2     		uxtb	r3, r3
  57 0026 1846     		mov	r0, r3
  58 0028 FFF7FEFF 		bl	Chip_Select_ENCODER_LINE_Write
ARM GAS  C:\Users\Mattia\AppData\Local\Temp\ccWAkbzb.s 			page 3


  57:..\src/Encoder_functions.c ****         RESET_COUNTERS_Write(0x00);    // Activate encoder counters. Must be made before initializi
  59              		.loc 1 57 0
  60 002c 0020     		movs	r0, #0
  61 002e FFF7FEFF 		bl	RESET_COUNTERS_Write
  58:..\src/Encoder_functions.c ****         CyDelayUs(200);                // Wait for encoders to have a valid value.
  62              		.loc 1 58 0
  63 0032 C820     		movs	r0, #200
  64 0034 FFF7FEFF 		bl	CyDelayUs
  65              	.L3:
  59:..\src/Encoder_functions.c ****     }
  60:..\src/Encoder_functions.c **** }
  66              		.loc 1 60 0
  67 0038 00BF     		nop
  68 003a 0837     		adds	r7, r7, #8
  69              		.cfi_def_cfa_offset 8
  70 003c BD46     		mov	sp, r7
  71              		.cfi_def_cfa_register 13
  72              		@ sp needed
  73 003e 80BD     		pop	{r7, pc}
  74              		.cfi_endproc
  75              	.LFE64:
  76              		.size	Change_CS_EncoderLine, .-Change_CS_EncoderLine
  77              		.section	.text.EncoderReset,"ax",%progbits
  78              		.align	2
  79              		.global	EncoderReset
  80              		.thumb
  81              		.thumb_func
  82              		.type	EncoderReset, %function
  83              	EncoderReset:
  84              	.LFB65:
  61:..\src/Encoder_functions.c **** 
  62:..\src/Encoder_functions.c **** /*******************************************************************************
  63:..\src/Encoder_functions.c **** * Function Name: Encoder Reset
  64:..\src/Encoder_functions.c **** *********************************************************************************/
  65:..\src/Encoder_functions.c **** void EncoderReset() {
  85              		.loc 1 65 0
  86              		.cfi_startproc
  87              		@ args = 0, pretend = 0, frame = 0
  88              		@ frame_needed = 1, uses_anonymous_args = 0
  89 0000 80B5     		push	{r7, lr}
  90              		.cfi_def_cfa_offset 8
  91              		.cfi_offset 7, -8
  92              		.cfi_offset 14, -4
  93 0002 00AF     		add	r7, sp, #0
  94              		.cfi_def_cfa_register 7
  66:..\src/Encoder_functions.c **** 	    
  67:..\src/Encoder_functions.c ****     CyDelay(10);
  95              		.loc 1 67 0
  96 0004 0A20     		movs	r0, #10
  97 0006 FFF7FEFF 		bl	CyDelay
  68:..\src/Encoder_functions.c ****     InitEncoderGeneral();
  98              		.loc 1 68 0
  99 000a FFF7FEFF 		bl	InitEncoderGeneral
  69:..\src/Encoder_functions.c ****     CyDelay(10);
 100              		.loc 1 69 0
 101 000e 0A20     		movs	r0, #10
 102 0010 FFF7FEFF 		bl	CyDelay
ARM GAS  C:\Users\Mattia\AppData\Local\Temp\ccWAkbzb.s 			page 4


  70:..\src/Encoder_functions.c **** }
 103              		.loc 1 70 0
 104 0014 00BF     		nop
 105 0016 80BD     		pop	{r7, pc}
 106              		.cfi_endproc
 107              	.LFE65:
 108              		.size	EncoderReset, .-EncoderReset
 109              		.section	.text.InitEncoderGeneral,"ax",%progbits
 110              		.align	2
 111              		.global	InitEncoderGeneral
 112              		.thumb
 113              		.thumb_func
 114              		.type	InitEncoderGeneral, %function
 115              	InitEncoderGeneral:
 116              	.LFB66:
  71:..\src/Encoder_functions.c **** 
  72:..\src/Encoder_functions.c **** /********************************************************************************
  73:..\src/Encoder_functions.c **** * Function Name: InitEncoderGeneral                                                 *
  74:..\src/Encoder_functions.c **** *********************************************************************************/
  75:..\src/Encoder_functions.c **** void InitEncoderGeneral()
  76:..\src/Encoder_functions.c **** {
 117              		.loc 1 76 0
 118              		.cfi_startproc
 119              		@ args = 0, pretend = 0, frame = 8
 120              		@ frame_needed = 1, uses_anonymous_args = 0
 121 0000 80B5     		push	{r7, lr}
 122              		.cfi_def_cfa_offset 8
 123              		.cfi_offset 7, -8
 124              		.cfi_offset 14, -4
 125 0002 82B0     		sub	sp, sp, #8
 126              		.cfi_def_cfa_offset 16
 127 0004 00AF     		add	r7, sp, #0
 128              		.cfi_def_cfa_register 7
  77:..\src/Encoder_functions.c ****     uint8 k_encoder_line=0;
 129              		.loc 1 77 0
 130 0006 0023     		movs	r3, #0
 131 0008 FB71     		strb	r3, [r7, #7]
  78:..\src/Encoder_functions.c **** 
  79:..\src/Encoder_functions.c ****     for (k_encoder_line=0; k_encoder_line<N_ENCODER_LINE_MAX; k_encoder_line++) {
 132              		.loc 1 79 0
 133 000a 0023     		movs	r3, #0
 134 000c FB71     		strb	r3, [r7, #7]
 135 000e 16E0     		b	.L6
 136              	.L7:
  80:..\src/Encoder_functions.c ****     
  81:..\src/Encoder_functions.c ****         // SSI ENCODERS
  82:..\src/Encoder_functions.c ****         RESET_COUNTERS_Write(0x01);     // Stop COUNTER_ENC
 137              		.loc 1 82 0 discriminator 3
 138 0010 0120     		movs	r0, #1
 139 0012 FFF7FEFF 		bl	RESET_COUNTERS_Write
  83:..\src/Encoder_functions.c ****         Chip_Select_ENCODER_LINE_Write(k_encoder_line);
 140              		.loc 1 83 0 discriminator 3
 141 0016 FB79     		ldrb	r3, [r7, #7]	@ zero_extendqisi2
 142 0018 1846     		mov	r0, r3
 143 001a FFF7FEFF 		bl	Chip_Select_ENCODER_LINE_Write
  84:..\src/Encoder_functions.c ****         RESET_COUNTERS_Write(0x00);     // Activate encoder counters. Must be made before initializ
 144              		.loc 1 84 0 discriminator 3
ARM GAS  C:\Users\Mattia\AppData\Local\Temp\ccWAkbzb.s 			page 5


 145 001e 0020     		movs	r0, #0
 146 0020 FFF7FEFF 		bl	RESET_COUNTERS_Write
  85:..\src/Encoder_functions.c ****         CyDelay(5);                // Wait for encoders to have a valid value.
 147              		.loc 1 85 0 discriminator 3
 148 0024 0520     		movs	r0, #5
 149 0026 FFF7FEFF 		bl	CyDelay
  86:..\src/Encoder_functions.c ****         
  87:..\src/Encoder_functions.c ****     	InitEncoderLine(k_encoder_line);
 150              		.loc 1 87 0 discriminator 3
 151 002a FB79     		ldrb	r3, [r7, #7]	@ zero_extendqisi2
 152 002c 1846     		mov	r0, r3
 153 002e FFF7FEFF 		bl	InitEncoderLine
  88:..\src/Encoder_functions.c ****     	CyDelay(5);
 154              		.loc 1 88 0 discriminator 3
 155 0032 0520     		movs	r0, #5
 156 0034 FFF7FEFF 		bl	CyDelay
  79:..\src/Encoder_functions.c ****     
 157              		.loc 1 79 0 discriminator 3
 158 0038 FB79     		ldrb	r3, [r7, #7]	@ zero_extendqisi2
 159 003a 0133     		adds	r3, r3, #1
 160 003c FB71     		strb	r3, [r7, #7]
 161              	.L6:
  79:..\src/Encoder_functions.c ****     
 162              		.loc 1 79 0 is_stmt 0 discriminator 1
 163 003e FB79     		ldrb	r3, [r7, #7]	@ zero_extendqisi2
 164 0040 012B     		cmp	r3, #1
 165 0042 E5D9     		bls	.L7
  89:..\src/Encoder_functions.c ****     }
  90:..\src/Encoder_functions.c ****     CyDelay(100);
 166              		.loc 1 90 0 is_stmt 1
 167 0044 6420     		movs	r0, #100
 168 0046 FFF7FEFF 		bl	CyDelay
  91:..\src/Encoder_functions.c **** }
 169              		.loc 1 91 0
 170 004a 00BF     		nop
 171 004c 0837     		adds	r7, r7, #8
 172              		.cfi_def_cfa_offset 8
 173 004e BD46     		mov	sp, r7
 174              		.cfi_def_cfa_register 13
 175              		@ sp needed
 176 0050 80BD     		pop	{r7, pc}
 177              		.cfi_endproc
 178              	.LFE66:
 179              		.size	InitEncoderGeneral, .-InitEncoderGeneral
 180 0052 00BF     		.section	.text.InitEncoderLine,"ax",%progbits
 181              		.align	2
 182              		.global	InitEncoderLine
 183              		.thumb
 184              		.thumb_func
 185              		.type	InitEncoderLine, %function
 186              	InitEncoderLine:
 187              	.LFB67:
  92:..\src/Encoder_functions.c **** 
  93:..\src/Encoder_functions.c **** /*******************************************************************************
  94:..\src/Encoder_functions.c **** * Function Name: Encoder Initialization
  95:..\src/Encoder_functions.c **** *********************************************************************************/
  96:..\src/Encoder_functions.c **** void InitEncoderLine(uint8 n){
ARM GAS  C:\Users\Mattia\AppData\Local\Temp\ccWAkbzb.s 			page 6


 188              		.loc 1 96 0
 189              		.cfi_startproc
 190              		@ args = 0, pretend = 0, frame = 16
 191              		@ frame_needed = 1, uses_anonymous_args = 0
 192 0000 80B5     		push	{r7, lr}
 193              		.cfi_def_cfa_offset 8
 194              		.cfi_offset 7, -8
 195              		.cfi_offset 14, -4
 196 0002 84B0     		sub	sp, sp, #16
 197              		.cfi_def_cfa_offset 24
 198 0004 00AF     		add	r7, sp, #0
 199              		.cfi_def_cfa_register 7
 200 0006 0346     		mov	r3, r0
 201 0008 FB71     		strb	r3, [r7, #7]
  97:..\src/Encoder_functions.c ****     
  98:..\src/Encoder_functions.c ****     uint8 i = 0;
 202              		.loc 1 98 0
 203 000a 0023     		movs	r3, #0
 204 000c FB73     		strb	r3, [r7, #15]
  99:..\src/Encoder_functions.c ****     
 100:..\src/Encoder_functions.c ****     ReadEncoderLine(N_ENCODERS_PER_LINE_MAX, n);
 205              		.loc 1 100 0
 206 000e FB79     		ldrb	r3, [r7, #7]	@ zero_extendqisi2
 207 0010 1946     		mov	r1, r3
 208 0012 0520     		movs	r0, #5
 209 0014 FFF7FEFF 		bl	ReadEncoderLine
 101:..\src/Encoder_functions.c ****     for (i = 0; i < N_ENCODERS_PER_LINE_MAX; i++) {
 210              		.loc 1 101 0
 211 0018 0023     		movs	r3, #0
 212 001a FB73     		strb	r3, [r7, #15]
 213 001c 21E0     		b	.L9
 214              	.L11:
 102:..\src/Encoder_functions.c **** 
 103:..\src/Encoder_functions.c ****         if (Encoder_Value[n][i] != 0xFFF && Encoder_Check[n][i] > 15){ // Encoder is present and re
 215              		.loc 1 103 0
 216 001e FA79     		ldrb	r2, [r7, #7]	@ zero_extendqisi2
 217 0020 F97B     		ldrb	r1, [r7, #15]	@ zero_extendqisi2
 218 0022 1348     		ldr	r0, .L13
 219 0024 1346     		mov	r3, r2
 220 0026 9B00     		lsls	r3, r3, #2
 221 0028 1344     		add	r3, r3, r2
 222 002a 0B44     		add	r3, r3, r1
 223 002c 30F81330 		ldrh	r3, [r0, r3, lsl #1]
 224 0030 40F6FF72 		movw	r2, #4095
 225 0034 9342     		cmp	r3, r2
 226 0036 17D0     		beq	.L12
 227              		.loc 1 103 0 is_stmt 0 discriminator 1
 228 0038 FA79     		ldrb	r2, [r7, #7]	@ zero_extendqisi2
 229 003a F97B     		ldrb	r1, [r7, #15]	@ zero_extendqisi2
 230 003c 0D48     		ldr	r0, .L13+4
 231 003e 1346     		mov	r3, r2
 232 0040 9B00     		lsls	r3, r3, #2
 233 0042 1344     		add	r3, r3, r2
 234 0044 0344     		add	r3, r3, r0
 235 0046 0B44     		add	r3, r3, r1
 236 0048 1B78     		ldrb	r3, [r3]	@ zero_extendqisi2
 237 004a 0F2B     		cmp	r3, #15
ARM GAS  C:\Users\Mattia\AppData\Local\Temp\ccWAkbzb.s 			page 7


 238 004c 0CD9     		bls	.L12
 104:..\src/Encoder_functions.c ****             N_Encoder_Line_Connected[n]++;
 239              		.loc 1 104 0 is_stmt 1 discriminator 2
 240 004e FB79     		ldrb	r3, [r7, #7]	@ zero_extendqisi2
 241 0050 094A     		ldr	r2, .L13+8
 242 0052 D25C     		ldrb	r2, [r2, r3]	@ zero_extendqisi2
 243 0054 0132     		adds	r2, r2, #1
 244 0056 D1B2     		uxtb	r1, r2
 245 0058 074A     		ldr	r2, .L13+8
 246 005a D154     		strb	r1, [r2, r3]
 101:..\src/Encoder_functions.c ****     for (i = 0; i < N_ENCODERS_PER_LINE_MAX; i++) {
 247              		.loc 1 101 0 discriminator 2
 248 005c FB7B     		ldrb	r3, [r7, #15]	@ zero_extendqisi2
 249 005e 0133     		adds	r3, r3, #1
 250 0060 FB73     		strb	r3, [r7, #15]
 251              	.L9:
 101:..\src/Encoder_functions.c ****     for (i = 0; i < N_ENCODERS_PER_LINE_MAX; i++) {
 252              		.loc 1 101 0 is_stmt 0 discriminator 1
 253 0062 FB7B     		ldrb	r3, [r7, #15]	@ zero_extendqisi2
 254 0064 042B     		cmp	r3, #4
 255 0066 DAD9     		bls	.L11
 256              	.L12:
 105:..\src/Encoder_functions.c ****         }
 106:..\src/Encoder_functions.c ****         else {
 107:..\src/Encoder_functions.c ****             break;
 108:..\src/Encoder_functions.c ****         }
 109:..\src/Encoder_functions.c ****     }
 110:..\src/Encoder_functions.c **** }
 257              		.loc 1 110 0 is_stmt 1
 258 0068 00BF     		nop
 259 006a 1037     		adds	r7, r7, #16
 260              		.cfi_def_cfa_offset 8
 261 006c BD46     		mov	sp, r7
 262              		.cfi_def_cfa_register 13
 263              		@ sp needed
 264 006e 80BD     		pop	{r7, pc}
 265              	.L14:
 266              		.align	2
 267              	.L13:
 268 0070 00000000 		.word	Encoder_Value
 269 0074 00000000 		.word	Encoder_Check
 270 0078 00000000 		.word	N_Encoder_Line_Connected
 271              		.cfi_endproc
 272              	.LFE67:
 273              		.size	InitEncoderLine, .-InitEncoderLine
 274              		.section	.text.ReadEncoderLine,"ax",%progbits
 275              		.align	2
 276              		.global	ReadEncoderLine
 277              		.thumb
 278              		.thumb_func
 279              		.type	ReadEncoderLine, %function
 280              	ReadEncoderLine:
 281              	.LFB68:
 111:..\src/Encoder_functions.c **** 
 112:..\src/Encoder_functions.c **** /*******************************************************************************
 113:..\src/Encoder_functions.c **** * Function Name: Read Encoder
 114:..\src/Encoder_functions.c **** *********************************************************************************/
ARM GAS  C:\Users\Mattia\AppData\Local\Temp\ccWAkbzb.s 			page 8


 115:..\src/Encoder_functions.c **** void ReadEncoderLine(int n_encoders, int n_line)
 116:..\src/Encoder_functions.c **** {   
 282              		.loc 1 116 0
 283              		.cfi_startproc
 284              		@ args = 0, pretend = 0, frame = 24
 285              		@ frame_needed = 1, uses_anonymous_args = 0
 286 0000 80B5     		push	{r7, lr}
 287              		.cfi_def_cfa_offset 8
 288              		.cfi_offset 7, -8
 289              		.cfi_offset 14, -4
 290 0002 86B0     		sub	sp, sp, #24
 291              		.cfi_def_cfa_offset 32
 292 0004 00AF     		add	r7, sp, #0
 293              		.cfi_def_cfa_register 7
 294 0006 7860     		str	r0, [r7, #4]
 295 0008 3960     		str	r1, [r7]
 117:..\src/Encoder_functions.c **** 	uint32 enc_rx_buffer[3] = {0,0,0};    // One for each Shift register
 296              		.loc 1 117 0
 297 000a 0023     		movs	r3, #0
 298 000c BB60     		str	r3, [r7, #8]
 299 000e 0023     		movs	r3, #0
 300 0010 FB60     		str	r3, [r7, #12]
 301 0012 0023     		movs	r3, #0
 302 0014 3B61     		str	r3, [r7, #16]
 118:..\src/Encoder_functions.c ****     uint8 i = 0;
 303              		.loc 1 118 0
 304 0016 0023     		movs	r3, #0
 305 0018 FB75     		strb	r3, [r7, #23]
 119:..\src/Encoder_functions.c ****         
 120:..\src/Encoder_functions.c ****     enc_rx_buffer[0] = SHIFTREG_ENC_1_ReadData();
 306              		.loc 1 120 0
 307 001a FFF7FEFF 		bl	SHIFTREG_ENC_1_ReadData
 308 001e 0346     		mov	r3, r0
 309 0020 BB60     		str	r3, [r7, #8]
 121:..\src/Encoder_functions.c ****     enc_rx_buffer[1] = SHIFTREG_ENC_2_ReadData();
 310              		.loc 1 121 0
 311 0022 FFF7FEFF 		bl	SHIFTREG_ENC_2_ReadData
 312 0026 0346     		mov	r3, r0
 313 0028 FB60     		str	r3, [r7, #12]
 122:..\src/Encoder_functions.c ****     enc_rx_buffer[2] = SHIFTREG_ENC_3_ReadData();
 314              		.loc 1 122 0
 315 002a FFF7FEFF 		bl	SHIFTREG_ENC_3_ReadData
 316 002e 0346     		mov	r3, r0
 317 0030 3B61     		str	r3, [r7, #16]
 123:..\src/Encoder_functions.c **** 
 124:..\src/Encoder_functions.c ****     // Parse data into Encoder_Check and Encoder_Value vectors
 125:..\src/Encoder_functions.c ****     // Discard first bit of whole packet, parity bits and dummy bits between encoders data
 126:..\src/Encoder_functions.c ****     for (i = 0; i < n_encoders; i++) {
 318              		.loc 1 126 0
 319 0032 0023     		movs	r3, #0
 320 0034 FB75     		strb	r3, [r7, #23]
 321 0036 C9E0     		b	.L16
 322              	.L25:
 127:..\src/Encoder_functions.c ****         switch(i){
 323              		.loc 1 127 0
 324 0038 FB7D     		ldrb	r3, [r7, #23]	@ zero_extendqisi2
 325 003a 042B     		cmp	r3, #4
ARM GAS  C:\Users\Mattia\AppData\Local\Temp\ccWAkbzb.s 			page 9


 326 003c 00F2C280 		bhi	.L26
 327 0040 01A2     		adr	r2, .L19
 328 0042 52F823F0 		ldr	pc, [r2, r3, lsl #2]
 329 0046 00BF     		.p2align 2
 330              	.L19:
 331 0048 5D000000 		.word	.L18+1
 332 004c 99000000 		.word	.L20+1
 333 0050 D1000000 		.word	.L21+1
 334 0054 11010000 		.word	.L22+1
 335 0058 85010000 		.word	.L23+1
 336              		.p2align 1
 337              	.L18:
 128:..\src/Encoder_functions.c ****             case 0:     // First encoder in the line
 129:..\src/Encoder_functions.c ****                 Encoder_Value[n_line][0] = (uint16)((enc_rx_buffer[0] & 0x7FFFF000) >> 19);
 338              		.loc 1 129 0
 339 005c BB68     		ldr	r3, [r7, #8]
 340 005e DB0C     		lsrs	r3, r3, #19
 341 0060 9BB2     		uxth	r3, r3
 342 0062 C3F30B03 		ubfx	r3, r3, #0, #12
 343 0066 98B2     		uxth	r0, r3
 344 0068 5D49     		ldr	r1, .L27
 345 006a 3A68     		ldr	r2, [r7]
 346 006c 1346     		mov	r3, r2
 347 006e 9B00     		lsls	r3, r3, #2
 348 0070 1344     		add	r3, r3, r2
 349 0072 5B00     		lsls	r3, r3, #1
 350 0074 0B44     		add	r3, r3, r1
 351 0076 0246     		mov	r2, r0	@ movhi
 352 0078 1A80     		strh	r2, [r3]	@ movhi
 130:..\src/Encoder_functions.c ****                 Encoder_Check[n_line][0] = (uint8)((enc_rx_buffer[0] & 0x0007C000) >> 14);
 353              		.loc 1 130 0
 354 007a BB68     		ldr	r3, [r7, #8]
 355 007c 9B0B     		lsrs	r3, r3, #14
 356 007e DBB2     		uxtb	r3, r3
 357 0080 03F01F03 		and	r3, r3, #31
 358 0084 D8B2     		uxtb	r0, r3
 359 0086 5749     		ldr	r1, .L27+4
 360 0088 3A68     		ldr	r2, [r7]
 361 008a 1346     		mov	r3, r2
 362 008c 9B00     		lsls	r3, r3, #2
 363 008e 1344     		add	r3, r3, r2
 364 0090 0B44     		add	r3, r3, r1
 365 0092 0246     		mov	r2, r0
 366 0094 1A70     		strb	r2, [r3]
 131:..\src/Encoder_functions.c ****             break;
 367              		.loc 1 131 0
 368 0096 96E0     		b	.L24
 369              	.L20:
 132:..\src/Encoder_functions.c ****             case 1:     // Second encoder in the line
 133:..\src/Encoder_functions.c ****                 Encoder_Value[n_line][1] = (uint16)((enc_rx_buffer[0] & 0x00000FFF));
 370              		.loc 1 133 0
 371 0098 BB68     		ldr	r3, [r7, #8]
 372 009a 9BB2     		uxth	r3, r3
 373 009c C3F30B03 		ubfx	r3, r3, #0, #12
 374 00a0 98B2     		uxth	r0, r3
 375 00a2 4F49     		ldr	r1, .L27
 376 00a4 3A68     		ldr	r2, [r7]
ARM GAS  C:\Users\Mattia\AppData\Local\Temp\ccWAkbzb.s 			page 10


 377 00a6 1346     		mov	r3, r2
 378 00a8 9B00     		lsls	r3, r3, #2
 379 00aa 1344     		add	r3, r3, r2
 380 00ac 5B00     		lsls	r3, r3, #1
 381 00ae 0B44     		add	r3, r3, r1
 382 00b0 0233     		adds	r3, r3, #2
 383 00b2 0246     		mov	r2, r0	@ movhi
 384 00b4 1A80     		strh	r2, [r3]	@ movhi
 134:..\src/Encoder_functions.c ****                 Encoder_Check[n_line][1] = (uint8)((enc_rx_buffer[1] & 0xF8000000) >> 27);
 385              		.loc 1 134 0
 386 00b6 FB68     		ldr	r3, [r7, #12]
 387 00b8 DB0E     		lsrs	r3, r3, #27
 388 00ba D8B2     		uxtb	r0, r3
 389 00bc 4949     		ldr	r1, .L27+4
 390 00be 3A68     		ldr	r2, [r7]
 391 00c0 1346     		mov	r3, r2
 392 00c2 9B00     		lsls	r3, r3, #2
 393 00c4 1344     		add	r3, r3, r2
 394 00c6 0B44     		add	r3, r3, r1
 395 00c8 0133     		adds	r3, r3, #1
 396 00ca 0246     		mov	r2, r0
 397 00cc 1A70     		strb	r2, [r3]
 135:..\src/Encoder_functions.c ****             break;
 398              		.loc 1 135 0
 399 00ce 7AE0     		b	.L24
 400              	.L21:
 136:..\src/Encoder_functions.c ****             case 2:     // Third encoder in the line
 137:..\src/Encoder_functions.c ****                 Encoder_Value[n_line][2] = (uint16)((enc_rx_buffer[1] & 0x01FFE000) >> 13);
 401              		.loc 1 137 0
 402 00d0 FB68     		ldr	r3, [r7, #12]
 403 00d2 5B0B     		lsrs	r3, r3, #13
 404 00d4 9BB2     		uxth	r3, r3
 405 00d6 C3F30B03 		ubfx	r3, r3, #0, #12
 406 00da 98B2     		uxth	r0, r3
 407 00dc 4049     		ldr	r1, .L27
 408 00de 3A68     		ldr	r2, [r7]
 409 00e0 1346     		mov	r3, r2
 410 00e2 9B00     		lsls	r3, r3, #2
 411 00e4 1344     		add	r3, r3, r2
 412 00e6 5B00     		lsls	r3, r3, #1
 413 00e8 0B44     		add	r3, r3, r1
 414 00ea 0433     		adds	r3, r3, #4
 415 00ec 0246     		mov	r2, r0	@ movhi
 416 00ee 1A80     		strh	r2, [r3]	@ movhi
 138:..\src/Encoder_functions.c ****                 Encoder_Check[n_line][2] = (uint8)((enc_rx_buffer[1] & 0x00001F00) >> 8);
 417              		.loc 1 138 0
 418 00f0 FB68     		ldr	r3, [r7, #12]
 419 00f2 1B0A     		lsrs	r3, r3, #8
 420 00f4 DBB2     		uxtb	r3, r3
 421 00f6 03F01F03 		and	r3, r3, #31
 422 00fa D8B2     		uxtb	r0, r3
 423 00fc 3949     		ldr	r1, .L27+4
 424 00fe 3A68     		ldr	r2, [r7]
 425 0100 1346     		mov	r3, r2
 426 0102 9B00     		lsls	r3, r3, #2
 427 0104 1344     		add	r3, r3, r2
 428 0106 0B44     		add	r3, r3, r1
ARM GAS  C:\Users\Mattia\AppData\Local\Temp\ccWAkbzb.s 			page 11


 429 0108 0233     		adds	r3, r3, #2
 430 010a 0246     		mov	r2, r0
 431 010c 1A70     		strb	r2, [r3]
 139:..\src/Encoder_functions.c ****             break;
 432              		.loc 1 139 0
 433 010e 5AE0     		b	.L24
 434              	.L22:
 140:..\src/Encoder_functions.c ****             case 3:     // Fourth encoder in the line
 141:..\src/Encoder_functions.c ****                 Encoder_Value[n_line][3] = (uint16)((enc_rx_buffer[1] & 0x0000003F));
 435              		.loc 1 141 0
 436 0110 FB68     		ldr	r3, [r7, #12]
 437 0112 9BB2     		uxth	r3, r3
 438 0114 03F03F03 		and	r3, r3, #63
 439 0118 98B2     		uxth	r0, r3
 440 011a 3149     		ldr	r1, .L27
 441 011c 3A68     		ldr	r2, [r7]
 442 011e 1346     		mov	r3, r2
 443 0120 9B00     		lsls	r3, r3, #2
 444 0122 1344     		add	r3, r3, r2
 445 0124 5B00     		lsls	r3, r3, #1
 446 0126 0B44     		add	r3, r3, r1
 447 0128 0633     		adds	r3, r3, #6
 448 012a 0246     		mov	r2, r0	@ movhi
 449 012c 1A80     		strh	r2, [r3]	@ movhi
 142:..\src/Encoder_functions.c ****                 Encoder_Value[n_line][3] = (Encoder_Value[n_line][3] << 6) | (uint16)((enc_rx_buffe
 450              		.loc 1 142 0
 451 012e 2C49     		ldr	r1, .L27
 452 0130 3A68     		ldr	r2, [r7]
 453 0132 1346     		mov	r3, r2
 454 0134 9B00     		lsls	r3, r3, #2
 455 0136 1344     		add	r3, r3, r2
 456 0138 5B00     		lsls	r3, r3, #1
 457 013a 0B44     		add	r3, r3, r1
 458 013c 0633     		adds	r3, r3, #6
 459 013e 1B88     		ldrh	r3, [r3]
 460 0140 9B01     		lsls	r3, r3, #6
 461 0142 1AB2     		sxth	r2, r3
 462 0144 3B69     		ldr	r3, [r7, #16]
 463 0146 9B0E     		lsrs	r3, r3, #26
 464 0148 1BB2     		sxth	r3, r3
 465 014a 1343     		orrs	r3, r3, r2
 466 014c 1BB2     		sxth	r3, r3
 467 014e 98B2     		uxth	r0, r3
 468 0150 2349     		ldr	r1, .L27
 469 0152 3A68     		ldr	r2, [r7]
 470 0154 1346     		mov	r3, r2
 471 0156 9B00     		lsls	r3, r3, #2
 472 0158 1344     		add	r3, r3, r2
 473 015a 5B00     		lsls	r3, r3, #1
 474 015c 0B44     		add	r3, r3, r1
 475 015e 0633     		adds	r3, r3, #6
 476 0160 0246     		mov	r2, r0	@ movhi
 477 0162 1A80     		strh	r2, [r3]	@ movhi
 143:..\src/Encoder_functions.c ****                 Encoder_Check[n_line][3] = (uint8)((enc_rx_buffer[2] & 0x03E00000) >> 21);
 478              		.loc 1 143 0
 479 0164 3B69     		ldr	r3, [r7, #16]
 480 0166 5B0D     		lsrs	r3, r3, #21
ARM GAS  C:\Users\Mattia\AppData\Local\Temp\ccWAkbzb.s 			page 12


 481 0168 DBB2     		uxtb	r3, r3
 482 016a 03F01F03 		and	r3, r3, #31
 483 016e D8B2     		uxtb	r0, r3
 484 0170 1C49     		ldr	r1, .L27+4
 485 0172 3A68     		ldr	r2, [r7]
 486 0174 1346     		mov	r3, r2
 487 0176 9B00     		lsls	r3, r3, #2
 488 0178 1344     		add	r3, r3, r2
 489 017a 0B44     		add	r3, r3, r1
 490 017c 0333     		adds	r3, r3, #3
 491 017e 0246     		mov	r2, r0
 492 0180 1A70     		strb	r2, [r3]
 144:..\src/Encoder_functions.c ****             break;
 493              		.loc 1 144 0
 494 0182 20E0     		b	.L24
 495              	.L23:
 145:..\src/Encoder_functions.c ****             case 4:     // Fifth encoder in the line
 146:..\src/Encoder_functions.c ****                 Encoder_Value[n_line][4] = (uint16)((enc_rx_buffer[2] & 0x0007FF80) >> 7);
 496              		.loc 1 146 0
 497 0184 3B69     		ldr	r3, [r7, #16]
 498 0186 DB09     		lsrs	r3, r3, #7
 499 0188 9BB2     		uxth	r3, r3
 500 018a C3F30B03 		ubfx	r3, r3, #0, #12
 501 018e 98B2     		uxth	r0, r3
 502 0190 1349     		ldr	r1, .L27
 503 0192 3A68     		ldr	r2, [r7]
 504 0194 1346     		mov	r3, r2
 505 0196 9B00     		lsls	r3, r3, #2
 506 0198 1344     		add	r3, r3, r2
 507 019a 5B00     		lsls	r3, r3, #1
 508 019c 0B44     		add	r3, r3, r1
 509 019e 0833     		adds	r3, r3, #8
 510 01a0 0246     		mov	r2, r0	@ movhi
 511 01a2 1A80     		strh	r2, [r3]	@ movhi
 147:..\src/Encoder_functions.c ****                 Encoder_Check[n_line][4] = (uint8)((enc_rx_buffer[2] & 0x0000007C) >> 2);
 512              		.loc 1 147 0
 513 01a4 3B69     		ldr	r3, [r7, #16]
 514 01a6 9B08     		lsrs	r3, r3, #2
 515 01a8 DBB2     		uxtb	r3, r3
 516 01aa 03F01F03 		and	r3, r3, #31
 517 01ae D8B2     		uxtb	r0, r3
 518 01b0 0C49     		ldr	r1, .L27+4
 519 01b2 3A68     		ldr	r2, [r7]
 520 01b4 1346     		mov	r3, r2
 521 01b6 9B00     		lsls	r3, r3, #2
 522 01b8 1344     		add	r3, r3, r2
 523 01ba 0B44     		add	r3, r3, r1
 524 01bc 0433     		adds	r3, r3, #4
 525 01be 0246     		mov	r2, r0
 526 01c0 1A70     		strb	r2, [r3]
 148:..\src/Encoder_functions.c ****             break;
 527              		.loc 1 148 0
 528 01c2 00E0     		b	.L24
 529              	.L26:
 149:..\src/Encoder_functions.c ****             default:
 150:..\src/Encoder_functions.c ****             break;
 530              		.loc 1 150 0
ARM GAS  C:\Users\Mattia\AppData\Local\Temp\ccWAkbzb.s 			page 13


 531 01c4 00BF     		nop
 532              	.L24:
 126:..\src/Encoder_functions.c ****         switch(i){
 533              		.loc 1 126 0 discriminator 2
 534 01c6 FB7D     		ldrb	r3, [r7, #23]	@ zero_extendqisi2
 535 01c8 0133     		adds	r3, r3, #1
 536 01ca FB75     		strb	r3, [r7, #23]
 537              	.L16:
 126:..\src/Encoder_functions.c ****         switch(i){
 538              		.loc 1 126 0 is_stmt 0 discriminator 1
 539 01cc FA7D     		ldrb	r2, [r7, #23]	@ zero_extendqisi2
 540 01ce 7B68     		ldr	r3, [r7, #4]
 541 01d0 9A42     		cmp	r2, r3
 542 01d2 FFF631AF 		blt	.L25
 151:..\src/Encoder_functions.c ****         }
 152:..\src/Encoder_functions.c ****     }
 153:..\src/Encoder_functions.c **** }...
 543              		.loc 1 153 0 is_stmt 1
 544 01d6 00BF     		nop
 545 01d8 1837     		adds	r7, r7, #24
 546              		.cfi_def_cfa_offset 8
 547 01da BD46     		mov	sp, r7
 548              		.cfi_def_cfa_register 13
 549              		@ sp needed
 550 01dc 80BD     		pop	{r7, pc}
 551              	.L28:
 552 01de 00BF     		.align	2
 553              	.L27:
 554 01e0 00000000 		.word	Encoder_Value
 555 01e4 00000000 		.word	Encoder_Check
 556              		.cfi_endproc
 557              	.LFE68:
 558              		.size	ReadEncoderLine, .-ReadEncoderLine
 559              		.text
 560              	.Letext0:
 561              		.file 2 "c:\\program files (x86)\\cypress\\psoc creator\\4.2\\psoc creator\\import\\gnu\\arm\\5.4.
 562              		.file 3 "c:\\program files (x86)\\cypress\\psoc creator\\4.2\\psoc creator\\import\\gnu\\arm\\5.4.
 563              		.file 4 "Generated_Source\\PSoC5/cytypes.h"
 564              		.file 5 "Generated_Source\\PSoC5/core_cm3.h"
 565              		.file 6 "..\\src\\globals.h"