ARM GAS  C:\Users\Mattia\AppData\Local\Temp\ccYnk7Oc.s 			page 1


   1              		.syntax unified
   2              		.cpu cortex-m3
   3              		.fpu softvfp
   4              		.eabi_attribute 20, 1
   5              		.eabi_attribute 21, 1
   6              		.eabi_attribute 23, 3
   7              		.eabi_attribute 24, 1
   8              		.eabi_attribute 25, 1
   9              		.eabi_attribute 26, 1
  10              		.eabi_attribute 30, 6
  11              		.eabi_attribute 34, 1
  12              		.eabi_attribute 18, 4
  13              		.thumb
  14              		.syntax unified
  15              		.file	"IMU_functions.c"
  16              		.text
  17              	.Ltext0:
  18              		.cfi_sections	.debug_frame
  19              		.section	.text.ImusReset,"ax",%progbits
  20              		.align	2
  21              		.global	ImusReset
  22              		.thumb
  23              		.thumb_func
  24              		.type	ImusReset, %function
  25              	ImusReset:
  26              	.LFB64:
  27              		.file 1 "..\\src\\IMU_functions.c"
   1:..\src/IMU_functions.c **** // ----------------------------------------------------------------------------
   2:..\src/IMU_functions.c **** // BSD 3-Clause License
   3:..\src/IMU_functions.c **** 
   4:..\src/IMU_functions.c **** // Copyright (c) 2016, qbrobotics
   5:..\src/IMU_functions.c **** // Copyright (c) 2017-2019, Centro "E.Piaggio"
   6:..\src/IMU_functions.c **** // All rights reserved.
   7:..\src/IMU_functions.c **** 
   8:..\src/IMU_functions.c **** // Redistribution and use in source and binary forms, with or without
   9:..\src/IMU_functions.c **** // modification, are permitted provided that the following conditions are met:
  10:..\src/IMU_functions.c **** 
  11:..\src/IMU_functions.c **** // * Redistributions of source code must retain the above copyright notice, this
  12:..\src/IMU_functions.c **** //   list of conditions and the following disclaimer.
  13:..\src/IMU_functions.c **** 
  14:..\src/IMU_functions.c **** // * Redistributions in binary form must reproduce the above copyright notice,
  15:..\src/IMU_functions.c **** //   this list of conditions and the following disclaimer in the documentation
  16:..\src/IMU_functions.c **** //   and/or other materials provided with the distribution.
  17:..\src/IMU_functions.c **** 
  18:..\src/IMU_functions.c **** // * Neither the name of the copyright holder nor the names of its
  19:..\src/IMU_functions.c **** //   contributors may be used to endorse or promote products derived from
  20:..\src/IMU_functions.c **** //   this software without specific prior written permission.
  21:..\src/IMU_functions.c **** 
  22:..\src/IMU_functions.c **** // THIS SOFTWARE IS PROVIDED BY THE COPYRIGHT HOLDERS AND CONTRIBUTORS "AS IS"
  23:..\src/IMU_functions.c **** // AND ANY EXPRESS OR IMPLIED WARRANTIES, INCLUDING, BUT NOT LIMITED TO, THE
  24:..\src/IMU_functions.c **** // IMPLIED WARRANTIES OF MERCHANTABILITY AND FITNESS FOR A PARTICULAR PURPOSE ARE
  25:..\src/IMU_functions.c **** // DISCLAIMED. IN NO EVENT SHALL THE COPYRIGHT HOLDER OR CONTRIBUTORS BE LIABLE
  26:..\src/IMU_functions.c **** // FOR ANY DIRECT, INDIRECT, INCIDENTAL, SPECIAL, EXEMPLARY, OR CONSEQUENTIAL
  27:..\src/IMU_functions.c **** // DAMAGES (INCLUDING, BUT NOT LIMITED TO, PROCUREMENT OF SUBSTITUTE GOODS OR
  28:..\src/IMU_functions.c **** // SERVICES; LOSS OF USE, DATA, OR PROFITS; OR BUSINESS INTERRUPTION) HOWEVER
  29:..\src/IMU_functions.c **** // CAUSED AND ON ANY THEORY OF LIABILITY, WHETHER IN CONTRACT, STRICT LIABILITY,
  30:..\src/IMU_functions.c **** // OR TORT (INCLUDING NEGLIGENCE OR OTHERWISE) ARISING IN ANY WAY OUT OF THE USE
ARM GAS  C:\Users\Mattia\AppData\Local\Temp\ccYnk7Oc.s 			page 2


  31:..\src/IMU_functions.c **** // OF THIS SOFTWARE, EVEN IF ADVISED OF THE POSSIBILITY OF SUCH DAMAGE.
  32:..\src/IMU_functions.c **** // POSSIBILITY OF SUCH DAMAGE.
  33:..\src/IMU_functions.c **** // ----------------------------------------------------------------------------
  34:..\src/IMU_functions.c **** 
  35:..\src/IMU_functions.c **** /**
  36:..\src/IMU_functions.c **** * \file         IMU_functions.c
  37:..\src/IMU_functions.c **** *
  38:..\src/IMU_functions.c **** * \brief        Implementation of IMU module functions.
  39:..\src/IMU_functions.c **** * \date         February 01, 2018
  40:..\src/IMU_functions.c **** * \author       _Centro "E.Piaggio"_
  41:..\src/IMU_functions.c **** * \copyright    (C) 2012-2016 qbrobotics. All rights reserved.
  42:..\src/IMU_functions.c **** * \copyright    (C) 2017-2019 Centro "E.Piaggio". All rights reserved.
  43:..\src/IMU_functions.c **** */
  44:..\src/IMU_functions.c **** 
  45:..\src/IMU_functions.c **** #include "IMU_functions.h"
  46:..\src/IMU_functions.c **** 
  47:..\src/IMU_functions.c **** extern uint8 Accel[N_IMU_MAX][6];
  48:..\src/IMU_functions.c **** extern uint8 Gyro[N_IMU_MAX][6];
  49:..\src/IMU_functions.c **** extern uint8 Mag[N_IMU_MAX][6];
  50:..\src/IMU_functions.c **** extern uint8 MagCal[N_IMU_MAX][3];
  51:..\src/IMU_functions.c **** 
  52:..\src/IMU_functions.c **** /*******************************************************************************
  53:..\src/IMU_functions.c **** * Function Name: Imus Reset
  54:..\src/IMU_functions.c **** *********************************************************************************/	
  55:..\src/IMU_functions.c **** void ImusReset() {
  28              		.loc 1 55 0
  29              		.cfi_startproc
  30              		@ args = 0, pretend = 0, frame = 8
  31              		@ frame_needed = 1, uses_anonymous_args = 0
  32 0000 80B5     		push	{r7, lr}
  33              		.cfi_def_cfa_offset 8
  34              		.cfi_offset 7, -8
  35              		.cfi_offset 14, -4
  36 0002 82B0     		sub	sp, sp, #8
  37              		.cfi_def_cfa_offset 16
  38 0004 00AF     		add	r7, sp, #0
  39              		.cfi_def_cfa_register 7
  56:..\src/IMU_functions.c ****     uint8 i;
  57:..\src/IMU_functions.c ****     
  58:..\src/IMU_functions.c ****     CyDelay(10);
  40              		.loc 1 58 0
  41 0006 0A20     		movs	r0, #10
  42 0008 FFF7FEFF 		bl	CyDelay
  59:..\src/IMU_functions.c ****     InitIMUgeneral();
  43              		.loc 1 59 0
  44 000c FFF7FEFF 		bl	InitIMUgeneral
  60:..\src/IMU_functions.c **** 
  61:..\src/IMU_functions.c ****     CyDelay(10);
  45              		.loc 1 61 0
  46 0010 0A20     		movs	r0, #10
  47 0012 FFF7FEFF 		bl	CyDelay
  62:..\src/IMU_functions.c ****     
  63:..\src/IMU_functions.c ****     // Initialize quaternion
  64:..\src/IMU_functions.c ****     for (i = 0; i<N_IMU_MAX; i++) {
  48              		.loc 1 64 0
  49 0016 0023     		movs	r3, #0
  50 0018 FB71     		strb	r3, [r7, #7]
ARM GAS  C:\Users\Mattia\AppData\Local\Temp\ccYnk7Oc.s 			page 3


  51 001a 1DE0     		b	.L2
  52              	.L3:
  65:..\src/IMU_functions.c ****         Quat[i][0] = 0.999;
  53              		.loc 1 65 0 discriminator 3
  54 001c FB79     		ldrb	r3, [r7, #7]	@ zero_extendqisi2
  55 001e 124A     		ldr	r2, .L4
  56 0020 1B01     		lsls	r3, r3, #4
  57 0022 1344     		add	r3, r3, r2
  58 0024 114A     		ldr	r2, .L4+4
  59 0026 1A60     		str	r2, [r3]	@ float
  66:..\src/IMU_functions.c ****         Quat[i][1] = 0.01;
  60              		.loc 1 66 0 discriminator 3
  61 0028 FB79     		ldrb	r3, [r7, #7]	@ zero_extendqisi2
  62 002a 0F4A     		ldr	r2, .L4
  63 002c 1B01     		lsls	r3, r3, #4
  64 002e 1344     		add	r3, r3, r2
  65 0030 0433     		adds	r3, r3, #4
  66 0032 0F4A     		ldr	r2, .L4+8
  67 0034 1A60     		str	r2, [r3]	@ float
  67:..\src/IMU_functions.c ****         Quat[i][2] = 0.01;
  68              		.loc 1 67 0 discriminator 3
  69 0036 FB79     		ldrb	r3, [r7, #7]	@ zero_extendqisi2
  70 0038 0B4A     		ldr	r2, .L4
  71 003a 1B01     		lsls	r3, r3, #4
  72 003c 1344     		add	r3, r3, r2
  73 003e 0833     		adds	r3, r3, #8
  74 0040 0B4A     		ldr	r2, .L4+8
  75 0042 1A60     		str	r2, [r3]	@ float
  68:..\src/IMU_functions.c ****         Quat[i][3] = 0.01;
  76              		.loc 1 68 0 discriminator 3
  77 0044 FB79     		ldrb	r3, [r7, #7]	@ zero_extendqisi2
  78 0046 084A     		ldr	r2, .L4
  79 0048 1B01     		lsls	r3, r3, #4
  80 004a 1344     		add	r3, r3, r2
  81 004c 0C33     		adds	r3, r3, #12
  82 004e 084A     		ldr	r2, .L4+8
  83 0050 1A60     		str	r2, [r3]	@ float
  64:..\src/IMU_functions.c ****         Quat[i][0] = 0.999;
  84              		.loc 1 64 0 discriminator 3
  85 0052 FB79     		ldrb	r3, [r7, #7]	@ zero_extendqisi2
  86 0054 0133     		adds	r3, r3, #1
  87 0056 FB71     		strb	r3, [r7, #7]
  88              	.L2:
  64:..\src/IMU_functions.c ****         Quat[i][0] = 0.999;
  89              		.loc 1 64 0 is_stmt 0 discriminator 1
  90 0058 FB79     		ldrb	r3, [r7, #7]	@ zero_extendqisi2
  91 005a 042B     		cmp	r3, #4
  92 005c DED9     		bls	.L3
  69:..\src/IMU_functions.c ****     }
  70:..\src/IMU_functions.c **** }
  93              		.loc 1 70 0 is_stmt 1
  94 005e 00BF     		nop
  95 0060 0837     		adds	r7, r7, #8
  96              		.cfi_def_cfa_offset 8
  97 0062 BD46     		mov	sp, r7
  98              		.cfi_def_cfa_register 13
  99              		@ sp needed
ARM GAS  C:\Users\Mattia\AppData\Local\Temp\ccYnk7Oc.s 			page 4


 100 0064 80BD     		pop	{r7, pc}
 101              	.L5:
 102 0066 00BF     		.align	2
 103              	.L4:
 104 0068 00000000 		.word	Quat
 105 006c 77BE7F3F 		.word	1065336439
 106 0070 0AD7233C 		.word	1008981770
 107              		.cfi_endproc
 108              	.LFE64:
 109              		.size	ImusReset, .-ImusReset
 110              		.section	.text.InitIMU,"ax",%progbits
 111              		.align	2
 112              		.global	InitIMU
 113              		.thumb
 114              		.thumb_func
 115              		.type	InitIMU, %function
 116              	InitIMU:
 117              	.LFB65:
  71:..\src/IMU_functions.c **** 
  72:..\src/IMU_functions.c **** /*******************************************************************************
  73:..\src/IMU_functions.c **** * Function Name: IMU Initialization
  74:..\src/IMU_functions.c **** *********************************************************************************/
  75:..\src/IMU_functions.c **** void InitIMU(){	
 118              		.loc 1 75 0
 119              		.cfi_startproc
 120              		@ args = 0, pretend = 0, frame = 0
 121              		@ frame_needed = 1, uses_anonymous_args = 0
 122 0000 80B5     		push	{r7, lr}
 123              		.cfi_def_cfa_offset 8
 124              		.cfi_offset 7, -8
 125              		.cfi_offset 14, -4
 126 0002 00AF     		add	r7, sp, #0
 127              		.cfi_def_cfa_register 7
  76:..\src/IMU_functions.c ****     
  77:..\src/IMU_functions.c **** 	WriteControlRegisterIMU(MPU9250_PWR_MGMT_1, 0x10); 
 128              		.loc 1 77 0
 129 0004 1021     		movs	r1, #16
 130 0006 6B20     		movs	r0, #107
 131 0008 FFF7FEFF 		bl	WriteControlRegisterIMU
  78:..\src/IMU_functions.c **** 	CyDelay(10);	
 132              		.loc 1 78 0
 133 000c 0A20     		movs	r0, #10
 134 000e FFF7FEFF 		bl	CyDelay
  79:..\src/IMU_functions.c **** 	WriteControlRegisterIMU(MPU9250_USER_CTRL, 0x20);  //I2C master enable - disable I2C (prima 0x30)
 135              		.loc 1 79 0
 136 0012 2021     		movs	r1, #32
 137 0014 6A20     		movs	r0, #106
 138 0016 FFF7FEFF 		bl	WriteControlRegisterIMU
  80:..\src/IMU_functions.c **** 	CyDelay(10);
 139              		.loc 1 80 0
 140 001a 0A20     		movs	r0, #10
 141 001c FFF7FEFF 		bl	CyDelay
  81:..\src/IMU_functions.c ****     WriteControlRegisterIMU(MPU9250_CONFIG, 0x06); //Gyro & Temp Low Pass Filter 0x01 = 184Hz, 0x02
 142              		.loc 1 81 0
 143 0020 0621     		movs	r1, #6
 144 0022 1A20     		movs	r0, #26
 145 0024 FFF7FEFF 		bl	WriteControlRegisterIMU
ARM GAS  C:\Users\Mattia\AppData\Local\Temp\ccYnk7Oc.s 			page 5


  82:..\src/IMU_functions.c ****     CyDelay(10);	
 146              		.loc 1 82 0
 147 0028 0A20     		movs	r0, #10
 148 002a FFF7FEFF 		bl	CyDelay
  83:..\src/IMU_functions.c **** 	WriteControlRegisterIMU(MPU9250_GYRO_CONFIG , GYRO_SF_2000); //Gyro full scale select 0x00=250°/s
 149              		.loc 1 83 0
 150 002e 1821     		movs	r1, #24
 151 0030 1B20     		movs	r0, #27
 152 0032 FFF7FEFF 		bl	WriteControlRegisterIMU
  84:..\src/IMU_functions.c **** 	CyDelay(10);
 153              		.loc 1 84 0
 154 0036 0A20     		movs	r0, #10
 155 0038 FFF7FEFF 		bl	CyDelay
  85:..\src/IMU_functions.c ****     WriteControlRegisterIMU(MPU9250_ACCEL_CONFIG, ACC_SF_2G); // Acc full scale select 0x00 = 2g 0x
 156              		.loc 1 85 0
 157 003c 0021     		movs	r1, #0
 158 003e 1C20     		movs	r0, #28
 159 0040 FFF7FEFF 		bl	WriteControlRegisterIMU
  86:..\src/IMU_functions.c ****     CyDelay(10);
 160              		.loc 1 86 0
 161 0044 0A20     		movs	r0, #10
 162 0046 FFF7FEFF 		bl	CyDelay
  87:..\src/IMU_functions.c ****     WriteControlRegisterIMU(MPU9250_ACCEL_CONFIG2, LP_ACC_FREQ_10);   
 163              		.loc 1 87 0
 164 004a 0521     		movs	r1, #5
 165 004c 1D20     		movs	r0, #29
 166 004e FFF7FEFF 		bl	WriteControlRegisterIMU
  88:..\src/IMU_functions.c ****     CyDelay(10);
 167              		.loc 1 88 0
 168 0052 0A20     		movs	r0, #10
 169 0054 FFF7FEFF 		bl	CyDelay
  89:..\src/IMU_functions.c **** 	//mag register
  90:..\src/IMU_functions.c **** 	WriteControlRegisterIMU(MPU9250_I2C_MST_CTRL, 0x0D); //set slave I2C speed
 170              		.loc 1 90 0
 171 0058 0D21     		movs	r1, #13
 172 005a 2420     		movs	r0, #36
 173 005c FFF7FEFF 		bl	WriteControlRegisterIMU
  91:..\src/IMU_functions.c **** 	CyDelay(10);
 174              		.loc 1 91 0
 175 0060 0A20     		movs	r0, #10
 176 0062 FFF7FEFF 		bl	CyDelay
  92:..\src/IMU_functions.c **** 	//SLV0 (use to write)
  93:..\src/IMU_functions.c **** 	WriteControlRegisterIMU(MPU9250_I2C_SLV0_ADDR, 0x0C); //set compass address
 177              		.loc 1 93 0
 178 0066 0C21     		movs	r1, #12
 179 0068 2520     		movs	r0, #37
 180 006a FFF7FEFF 		bl	WriteControlRegisterIMU
  94:..\src/IMU_functions.c **** 	CyDelay(10);			
 181              		.loc 1 94 0
 182 006e 0A20     		movs	r0, #10
 183 0070 FFF7FEFF 		bl	CyDelay
  95:..\src/IMU_functions.c **** 	WriteControlRegisterIMU(MPU9250_I2C_SLV0_REG, AK8936_CNTL); //compass mode register
 184              		.loc 1 95 0
 185 0074 0A21     		movs	r1, #10
 186 0076 2620     		movs	r0, #38
 187 0078 FFF7FEFF 		bl	WriteControlRegisterIMU
  96:..\src/IMU_functions.c **** 	CyDelay(10);	
ARM GAS  C:\Users\Mattia\AppData\Local\Temp\ccYnk7Oc.s 			page 6


 188              		.loc 1 96 0
 189 007c 0A20     		movs	r0, #10
 190 007e FFF7FEFF 		bl	CyDelay
  97:..\src/IMU_functions.c **** 	// Istruction used to read Compass
  98:..\src/IMU_functions.c **** 	WriteControlRegisterIMU(MPU9250_I2C_SLV0_D0, 0x16); //0x12 continuous mode1  0x16 continuous mode2
 191              		.loc 1 98 0
 192 0082 1621     		movs	r1, #22
 193 0084 6320     		movs	r0, #99
 194 0086 FFF7FEFF 		bl	WriteControlRegisterIMU
  99:..\src/IMU_functions.c **** 	CyDelay(10);
 195              		.loc 1 99 0
 196 008a 0A20     		movs	r0, #10
 197 008c FFF7FEFF 		bl	CyDelay
 100:..\src/IMU_functions.c **** 	WriteControlRegisterIMU(MPU9250_I2C_SLV0_CTRL, 0x81); //enable data from register + 1 bit to write
 198              		.loc 1 100 0
 199 0090 8121     		movs	r1, #129
 200 0092 2720     		movs	r0, #39
 201 0094 FFF7FEFF 		bl	WriteControlRegisterIMU
 101:..\src/IMU_functions.c **** 	CyDelay(10);
 202              		.loc 1 101 0
 203 0098 0A20     		movs	r0, #10
 204 009a FFF7FEFF 		bl	CyDelay
 102:..\src/IMU_functions.c **** 	//SLV0 (use to read)
 103:..\src/IMU_functions.c **** 	WriteControlRegisterIMU(MPU9250_I2C_SLV0_ADDR, 0x8C); // RCR  | AK8963_address (0x0C) 
 205              		.loc 1 103 0
 206 009e 8C21     		movs	r1, #140
 207 00a0 2520     		movs	r0, #37
 208 00a2 FFF7FEFF 		bl	WriteControlRegisterIMU
 104:..\src/IMU_functions.c **** 	CyDelay(10);
 209              		.loc 1 104 0
 210 00a6 0A20     		movs	r0, #10
 211 00a8 FFF7FEFF 		bl	CyDelay
 105:..\src/IMU_functions.c **** 	// Istruction used to read Compass
 106:..\src/IMU_functions.c **** 	WriteControlRegisterIMU(MPU9250_I2C_SLV0_REG, 0x03); // 0x03:start from Xout Low in case of calibr
 212              		.loc 1 106 0
 213 00ac 0321     		movs	r1, #3
 214 00ae 2620     		movs	r0, #38
 215 00b0 FFF7FEFF 		bl	WriteControlRegisterIMU
 107:..\src/IMU_functions.c **** 	CyDelay(10);
 216              		.loc 1 107 0
 217 00b4 0A20     		movs	r0, #10
 218 00b6 FFF7FEFF 		bl	CyDelay
 108:..\src/IMU_functions.c **** 	// Istruction used to read Compass
 109:..\src/IMU_functions.c **** 	WriteControlRegisterIMU(MPU9250_I2C_SLV0_CTRL, 0x8D); //How many bits read  SEMPRE DISPARI 0x8D er
 219              		.loc 1 109 0
 220 00ba 8D21     		movs	r1, #141
 221 00bc 2720     		movs	r0, #39
 222 00be FFF7FEFF 		bl	WriteControlRegisterIMU
 110:..\src/IMU_functions.c **** 	CyDelay(10);
 223              		.loc 1 110 0
 224 00c2 0A20     		movs	r0, #10
 225 00c4 FFF7FEFF 		bl	CyDelay
 111:..\src/IMU_functions.c **** 	WriteControlRegisterIMU(MPU9250_PWR_MGMT_1, 0x00); 
 226              		.loc 1 111 0
 227 00c8 0021     		movs	r1, #0
 228 00ca 6B20     		movs	r0, #107
 229 00cc FFF7FEFF 		bl	WriteControlRegisterIMU
ARM GAS  C:\Users\Mattia\AppData\Local\Temp\ccYnk7Oc.s 			page 7


 112:..\src/IMU_functions.c **** 	CyDelay(20);
 230              		.loc 1 112 0
 231 00d0 1420     		movs	r0, #20
 232 00d2 FFF7FEFF 		bl	CyDelay
 113:..\src/IMU_functions.c **** }	
 233              		.loc 1 113 0
 234 00d6 00BF     		nop
 235 00d8 80BD     		pop	{r7, pc}
 236              		.cfi_endproc
 237              	.LFE65:
 238              		.size	InitIMU, .-InitIMU
 239 00da 00BF     		.section	.text.InitIMUMagCal,"ax",%progbits
 240              		.align	2
 241              		.global	InitIMUMagCal
 242              		.thumb
 243              		.thumb_func
 244              		.type	InitIMUMagCal, %function
 245              	InitIMUMagCal:
 246              	.LFB66:
 114:..\src/IMU_functions.c **** 
 115:..\src/IMU_functions.c **** /*******************************************************************************
 116:..\src/IMU_functions.c **** * Function Name: IMU Mag Cal Initialization
 117:..\src/IMU_functions.c **** *********************************************************************************/
 118:..\src/IMU_functions.c **** void InitIMUMagCal(){	
 247              		.loc 1 118 0
 248              		.cfi_startproc
 249              		@ args = 0, pretend = 0, frame = 0
 250              		@ frame_needed = 1, uses_anonymous_args = 0
 251 0000 80B5     		push	{r7, lr}
 252              		.cfi_def_cfa_offset 8
 253              		.cfi_offset 7, -8
 254              		.cfi_offset 14, -4
 255 0002 00AF     		add	r7, sp, #0
 256              		.cfi_def_cfa_register 7
 119:..\src/IMU_functions.c ****     
 120:..\src/IMU_functions.c **** 	WriteControlRegisterIMU(MPU9250_PWR_MGMT_1, 0x10); 
 257              		.loc 1 120 0
 258 0004 1021     		movs	r1, #16
 259 0006 6B20     		movs	r0, #107
 260 0008 FFF7FEFF 		bl	WriteControlRegisterIMU
 121:..\src/IMU_functions.c **** 	CyDelay(10);	
 261              		.loc 1 121 0
 262 000c 0A20     		movs	r0, #10
 263 000e FFF7FEFF 		bl	CyDelay
 122:..\src/IMU_functions.c **** 	WriteControlRegisterIMU(MPU9250_USER_CTRL, 0x20);  //I2C master enable - disable I2C (prima 0x30)
 264              		.loc 1 122 0
 265 0012 2021     		movs	r1, #32
 266 0014 6A20     		movs	r0, #106
 267 0016 FFF7FEFF 		bl	WriteControlRegisterIMU
 123:..\src/IMU_functions.c **** 	CyDelay(10);
 268              		.loc 1 123 0
 269 001a 0A20     		movs	r0, #10
 270 001c FFF7FEFF 		bl	CyDelay
 124:..\src/IMU_functions.c ****     WriteControlRegisterIMU(MPU9250_CONFIG, 0x06); //Gyro & Temp Low Pass Filter 0x01 = 184Hz, 0x02
 271              		.loc 1 124 0
 272 0020 0621     		movs	r1, #6
 273 0022 1A20     		movs	r0, #26
ARM GAS  C:\Users\Mattia\AppData\Local\Temp\ccYnk7Oc.s 			page 8


 274 0024 FFF7FEFF 		bl	WriteControlRegisterIMU
 125:..\src/IMU_functions.c ****     CyDelay(10);	
 275              		.loc 1 125 0
 276 0028 0A20     		movs	r0, #10
 277 002a FFF7FEFF 		bl	CyDelay
 126:..\src/IMU_functions.c **** 	WriteControlRegisterIMU(MPU9250_GYRO_CONFIG , GYRO_SF_2000); //Gyro full scale select 0x00=250°/s
 278              		.loc 1 126 0
 279 002e 1821     		movs	r1, #24
 280 0030 1B20     		movs	r0, #27
 281 0032 FFF7FEFF 		bl	WriteControlRegisterIMU
 127:..\src/IMU_functions.c **** 	CyDelay(10);
 282              		.loc 1 127 0
 283 0036 0A20     		movs	r0, #10
 284 0038 FFF7FEFF 		bl	CyDelay
 128:..\src/IMU_functions.c ****     WriteControlRegisterIMU(MPU9250_ACCEL_CONFIG, ACC_SF_2G); // Acc full scale select 0x00 = 2g 0x
 285              		.loc 1 128 0
 286 003c 0021     		movs	r1, #0
 287 003e 1C20     		movs	r0, #28
 288 0040 FFF7FEFF 		bl	WriteControlRegisterIMU
 129:..\src/IMU_functions.c ****     CyDelay(10);
 289              		.loc 1 129 0
 290 0044 0A20     		movs	r0, #10
 291 0046 FFF7FEFF 		bl	CyDelay
 130:..\src/IMU_functions.c ****     WriteControlRegisterIMU(MPU9250_ACCEL_CONFIG2, 0x05);
 292              		.loc 1 130 0
 293 004a 0521     		movs	r1, #5
 294 004c 1D20     		movs	r0, #29
 295 004e FFF7FEFF 		bl	WriteControlRegisterIMU
 131:..\src/IMU_functions.c ****     CyDelay(10);
 296              		.loc 1 131 0
 297 0052 0A20     		movs	r0, #10
 298 0054 FFF7FEFF 		bl	CyDelay
 132:..\src/IMU_functions.c **** 	//mag register
 133:..\src/IMU_functions.c **** 	WriteControlRegisterIMU(MPU9250_I2C_MST_CTRL, 0x0D); //set slave I2C speed
 299              		.loc 1 133 0
 300 0058 0D21     		movs	r1, #13
 301 005a 2420     		movs	r0, #36
 302 005c FFF7FEFF 		bl	WriteControlRegisterIMU
 134:..\src/IMU_functions.c **** 	CyDelay(10);
 303              		.loc 1 134 0
 304 0060 0A20     		movs	r0, #10
 305 0062 FFF7FEFF 		bl	CyDelay
 135:..\src/IMU_functions.c **** 	//SLV0 (use to write)
 136:..\src/IMU_functions.c **** 	WriteControlRegisterIMU(MPU9250_I2C_SLV0_ADDR, 0x0C); //set compass address
 306              		.loc 1 136 0
 307 0066 0C21     		movs	r1, #12
 308 0068 2520     		movs	r0, #37
 309 006a FFF7FEFF 		bl	WriteControlRegisterIMU
 137:..\src/IMU_functions.c **** 	CyDelay(10);			
 310              		.loc 1 137 0
 311 006e 0A20     		movs	r0, #10
 312 0070 FFF7FEFF 		bl	CyDelay
 138:..\src/IMU_functions.c **** 	WriteControlRegisterIMU(MPU9250_I2C_SLV0_REG, AK8936_CNTL); //compass mode register
 313              		.loc 1 138 0
 314 0074 0A21     		movs	r1, #10
 315 0076 2620     		movs	r0, #38
 316 0078 FFF7FEFF 		bl	WriteControlRegisterIMU
ARM GAS  C:\Users\Mattia\AppData\Local\Temp\ccYnk7Oc.s 			page 9


 139:..\src/IMU_functions.c **** 	CyDelay(10);	
 317              		.loc 1 139 0
 318 007c 0A20     		movs	r0, #10
 319 007e FFF7FEFF 		bl	CyDelay
 140:..\src/IMU_functions.c **** 	WriteControlRegisterIMU(MPU9250_I2C_SLV0_D0, 0x1F); //0x1F ROM access
 320              		.loc 1 140 0
 321 0082 1F21     		movs	r1, #31
 322 0084 6320     		movs	r0, #99
 323 0086 FFF7FEFF 		bl	WriteControlRegisterIMU
 141:..\src/IMU_functions.c **** 	CyDelay(10);
 324              		.loc 1 141 0
 325 008a 0A20     		movs	r0, #10
 326 008c FFF7FEFF 		bl	CyDelay
 142:..\src/IMU_functions.c **** 	WriteControlRegisterIMU(MPU9250_I2C_SLV0_CTRL, 0x81); //enable data from register + 1 bit to write
 327              		.loc 1 142 0
 328 0090 8121     		movs	r1, #129
 329 0092 2720     		movs	r0, #39
 330 0094 FFF7FEFF 		bl	WriteControlRegisterIMU
 143:..\src/IMU_functions.c **** 	CyDelay(10);
 331              		.loc 1 143 0
 332 0098 0A20     		movs	r0, #10
 333 009a FFF7FEFF 		bl	CyDelay
 144:..\src/IMU_functions.c **** 	//SLV0 (use to read)
 145:..\src/IMU_functions.c **** 	WriteControlRegisterIMU(MPU9250_I2C_SLV0_ADDR, 0x8C); // RCR  | AK8963_address (0x0C) 
 334              		.loc 1 145 0
 335 009e 8C21     		movs	r1, #140
 336 00a0 2520     		movs	r0, #37
 337 00a2 FFF7FEFF 		bl	WriteControlRegisterIMU
 146:..\src/IMU_functions.c **** 	CyDelay(10);
 338              		.loc 1 146 0
 339 00a6 0A20     		movs	r0, #10
 340 00a8 FFF7FEFF 		bl	CyDelay
 147:..\src/IMU_functions.c **** 	WriteControlRegisterIMU(MPU9250_I2C_SLV0_REG, 0x10); // 0x10:start from ASAX
 341              		.loc 1 147 0
 342 00ac 1021     		movs	r1, #16
 343 00ae 2620     		movs	r0, #38
 344 00b0 FFF7FEFF 		bl	WriteControlRegisterIMU
 148:..\src/IMU_functions.c **** 	CyDelay(10);
 345              		.loc 1 148 0
 346 00b4 0A20     		movs	r0, #10
 347 00b6 FFF7FEFF 		bl	CyDelay
 149:..\src/IMU_functions.c **** 	WriteControlRegisterIMU(MPU9250_I2C_SLV0_CTRL, 0x83);
 348              		.loc 1 149 0
 349 00ba 8321     		movs	r1, #131
 350 00bc 2720     		movs	r0, #39
 351 00be FFF7FEFF 		bl	WriteControlRegisterIMU
 150:..\src/IMU_functions.c **** 	CyDelay(10);
 352              		.loc 1 150 0
 353 00c2 0A20     		movs	r0, #10
 354 00c4 FFF7FEFF 		bl	CyDelay
 151:..\src/IMU_functions.c **** 	WriteControlRegisterIMU(MPU9250_PWR_MGMT_1, 0x00); 
 355              		.loc 1 151 0
 356 00c8 0021     		movs	r1, #0
 357 00ca 6B20     		movs	r0, #107
 358 00cc FFF7FEFF 		bl	WriteControlRegisterIMU
 152:..\src/IMU_functions.c **** 	CyDelay(20);
 359              		.loc 1 152 0
ARM GAS  C:\Users\Mattia\AppData\Local\Temp\ccYnk7Oc.s 			page 10


 360 00d0 1420     		movs	r0, #20
 361 00d2 FFF7FEFF 		bl	CyDelay
 153:..\src/IMU_functions.c **** }
 362              		.loc 1 153 0
 363 00d6 00BF     		nop
 364 00d8 80BD     		pop	{r7, pc}
 365              		.cfi_endproc
 366              	.LFE66:
 367              		.size	InitIMUMagCal, .-InitIMUMagCal
 368 00da 00BF     		.section	.text.ChipSelectorIMU,"ax",%progbits
 369              		.align	2
 370              		.global	ChipSelectorIMU
 371              		.thumb
 372              		.thumb_func
 373              		.type	ChipSelectorIMU, %function
 374              	ChipSelectorIMU:
 375              	.LFB67:
 154:..\src/IMU_functions.c **** 
 155:..\src/IMU_functions.c **** /********************************************************************************
 156:..\src/IMU_functions.c **** * Function Name: ChipSelectorIMU                                                   *
 157:..\src/IMU_functions.c **** *********************************************************************************/
 158:..\src/IMU_functions.c **** void ChipSelectorIMU(int n)
 159:..\src/IMU_functions.c **** {
 376              		.loc 1 159 0
 377              		.cfi_startproc
 378              		@ args = 0, pretend = 0, frame = 8
 379              		@ frame_needed = 1, uses_anonymous_args = 0
 380 0000 80B5     		push	{r7, lr}
 381              		.cfi_def_cfa_offset 8
 382              		.cfi_offset 7, -8
 383              		.cfi_offset 14, -4
 384 0002 82B0     		sub	sp, sp, #8
 385              		.cfi_def_cfa_offset 16
 386 0004 00AF     		add	r7, sp, #0
 387              		.cfi_def_cfa_register 7
 388 0006 7860     		str	r0, [r7, #4]
 160:..\src/IMU_functions.c ****     Chip_Select_IMU_Write(7);
 389              		.loc 1 160 0
 390 0008 0720     		movs	r0, #7
 391 000a FFF7FEFF 		bl	Chip_Select_IMU_Write
 161:..\src/IMU_functions.c ****     
 162:..\src/IMU_functions.c ****     Chip_Select_IMU_Write(n);
 392              		.loc 1 162 0
 393 000e 7B68     		ldr	r3, [r7, #4]
 394 0010 DBB2     		uxtb	r3, r3
 395 0012 1846     		mov	r0, r3
 396 0014 FFF7FEFF 		bl	Chip_Select_IMU_Write
 163:..\src/IMU_functions.c **** }
 397              		.loc 1 163 0
 398 0018 00BF     		nop
 399 001a 0837     		adds	r7, r7, #8
 400              		.cfi_def_cfa_offset 8
 401 001c BD46     		mov	sp, r7
 402              		.cfi_def_cfa_register 13
 403              		@ sp needed
 404 001e 80BD     		pop	{r7, pc}
 405              		.cfi_endproc
ARM GAS  C:\Users\Mattia\AppData\Local\Temp\ccYnk7Oc.s 			page 11


 406              	.LFE67:
 407              		.size	ChipSelectorIMU, .-ChipSelectorIMU
 408              		.section	.text.InitIMUgeneral,"ax",%progbits
 409              		.align	2
 410              		.global	InitIMUgeneral
 411              		.thumb
 412              		.thumb_func
 413              		.type	InitIMUgeneral, %function
 414              	InitIMUgeneral:
 415              	.LFB68:
 164:..\src/IMU_functions.c **** 
 165:..\src/IMU_functions.c **** /********************************************************************************
 166:..\src/IMU_functions.c **** * Function Name: InitIMUGeneral                                                 *
 167:..\src/IMU_functions.c **** *********************************************************************************/
 168:..\src/IMU_functions.c **** void InitIMUgeneral()
 169:..\src/IMU_functions.c **** {
 416              		.loc 1 169 0
 417              		.cfi_startproc
 418              		@ args = 0, pretend = 0, frame = 32
 419              		@ frame_needed = 1, uses_anonymous_args = 0
 420 0000 90B5     		push	{r4, r7, lr}
 421              		.cfi_def_cfa_offset 12
 422              		.cfi_offset 4, -12
 423              		.cfi_offset 7, -8
 424              		.cfi_offset 14, -4
 425 0002 89B0     		sub	sp, sp, #36
 426              		.cfi_def_cfa_offset 48
 427 0004 00AF     		add	r7, sp, #0
 428              		.cfi_def_cfa_register 7
 170:..\src/IMU_functions.c ****     uint8 k_imu;
 171:..\src/IMU_functions.c ****     uint8 count = 0;
 429              		.loc 1 171 0
 430 0006 0023     		movs	r3, #0
 431 0008 BB77     		strb	r3, [r7, #30]
 172:..\src/IMU_functions.c ****     int IMU_ack;
 173:..\src/IMU_functions.c ****     int tmp[N_IMU_MAX];
 174:..\src/IMU_functions.c ****     
 175:..\src/IMU_functions.c ****     // Initialize Memory Structure 
 176:..\src/IMU_functions.c ****     memset(&g_imu, 0, sizeof(struct st_imu));
 432              		.loc 1 176 0
 433 000a 2022     		movs	r2, #32
 434 000c 0021     		movs	r1, #0
 435 000e A648     		ldr	r0, .L27
 436 0010 FFF7FEFF 		bl	memset
 177:..\src/IMU_functions.c ****     memset(&IMU_connected, 0, sizeof(IMU_connected));
 437              		.loc 1 177 0
 438 0014 0522     		movs	r2, #5
 439 0016 0021     		movs	r1, #0
 440 0018 A448     		ldr	r0, .L27+4
 441 001a FFF7FEFF 		bl	memset
 178:..\src/IMU_functions.c **** 
 179:..\src/IMU_functions.c ****     // Initialize IMU to Read MagCal Parameters
 180:..\src/IMU_functions.c ****     for (k_imu=0; k_imu < N_IMU_MAX; k_imu++) 
 442              		.loc 1 180 0
 443 001e 0023     		movs	r3, #0
 444 0020 FB77     		strb	r3, [r7, #31]
 445 0022 0EE0     		b	.L10
ARM GAS  C:\Users\Mattia\AppData\Local\Temp\ccYnk7Oc.s 			page 12


 446              	.L11:
 181:..\src/IMU_functions.c ****     {	
 182:..\src/IMU_functions.c **** 	    ChipSelectorIMU(k_imu);
 447              		.loc 1 182 0 discriminator 3
 448 0024 FB7F     		ldrb	r3, [r7, #31]	@ zero_extendqisi2
 449 0026 1846     		mov	r0, r3
 450 0028 FFF7FEFF 		bl	ChipSelectorIMU
 183:..\src/IMU_functions.c **** 	    CyDelay(10);
 451              		.loc 1 183 0 discriminator 3
 452 002c 0A20     		movs	r0, #10
 453 002e FFF7FEFF 		bl	CyDelay
 184:..\src/IMU_functions.c **** 	    InitIMUMagCal();
 454              		.loc 1 184 0 discriminator 3
 455 0032 FFF7FEFF 		bl	InitIMUMagCal
 185:..\src/IMU_functions.c **** 	    CyDelay(10); 
 456              		.loc 1 185 0 discriminator 3
 457 0036 0A20     		movs	r0, #10
 458 0038 FFF7FEFF 		bl	CyDelay
 180:..\src/IMU_functions.c ****     {	
 459              		.loc 1 180 0 discriminator 3
 460 003c FB7F     		ldrb	r3, [r7, #31]	@ zero_extendqisi2
 461 003e 0133     		adds	r3, r3, #1
 462 0040 FB77     		strb	r3, [r7, #31]
 463              	.L10:
 180:..\src/IMU_functions.c ****     {	
 464              		.loc 1 180 0 is_stmt 0 discriminator 1
 465 0042 FB7F     		ldrb	r3, [r7, #31]	@ zero_extendqisi2
 466 0044 042B     		cmp	r3, #4
 467 0046 EDD9     		bls	.L11
 186:..\src/IMU_functions.c ****     }
 187:..\src/IMU_functions.c ****     
 188:..\src/IMU_functions.c ****     // Reading of MagCal Parameters
 189:..\src/IMU_functions.c ****     CyDelay(50);
 468              		.loc 1 189 0 is_stmt 1
 469 0048 3220     		movs	r0, #50
 470 004a FFF7FEFF 		bl	CyDelay
 190:..\src/IMU_functions.c ****     for (k_imu = 0; k_imu < N_IMU_MAX; k_imu++){
 471              		.loc 1 190 0
 472 004e 0023     		movs	r3, #0
 473 0050 FB77     		strb	r3, [r7, #31]
 474 0052 10E0     		b	.L12
 475              	.L13:
 191:..\src/IMU_functions.c ****         ChipSelectorIMU(k_imu);
 476              		.loc 1 191 0 discriminator 3
 477 0054 FB7F     		ldrb	r3, [r7, #31]	@ zero_extendqisi2
 478 0056 1846     		mov	r0, r3
 479 0058 FFF7FEFF 		bl	ChipSelectorIMU
 192:..\src/IMU_functions.c ****         CyDelay(10);
 480              		.loc 1 192 0 discriminator 3
 481 005c 0A20     		movs	r0, #10
 482 005e FFF7FEFF 		bl	CyDelay
 193:..\src/IMU_functions.c ****         ReadMagCal(k_imu);  
 483              		.loc 1 193 0 discriminator 3
 484 0062 FB7F     		ldrb	r3, [r7, #31]	@ zero_extendqisi2
 485 0064 1846     		mov	r0, r3
 486 0066 FFF7FEFF 		bl	ReadMagCal
 194:..\src/IMU_functions.c ****         CyDelay(10);
ARM GAS  C:\Users\Mattia\AppData\Local\Temp\ccYnk7Oc.s 			page 13


 487              		.loc 1 194 0 discriminator 3
 488 006a 0A20     		movs	r0, #10
 489 006c FFF7FEFF 		bl	CyDelay
 190:..\src/IMU_functions.c ****         ChipSelectorIMU(k_imu);
 490              		.loc 1 190 0 discriminator 3
 491 0070 FB7F     		ldrb	r3, [r7, #31]	@ zero_extendqisi2
 492 0072 0133     		adds	r3, r3, #1
 493 0074 FB77     		strb	r3, [r7, #31]
 494              	.L12:
 190:..\src/IMU_functions.c ****         ChipSelectorIMU(k_imu);
 495              		.loc 1 190 0 is_stmt 0 discriminator 1
 496 0076 FB7F     		ldrb	r3, [r7, #31]	@ zero_extendqisi2
 497 0078 042B     		cmp	r3, #4
 498 007a EBD9     		bls	.L13
 195:..\src/IMU_functions.c ****     }
 196:..\src/IMU_functions.c **** 
 197:..\src/IMU_functions.c ****     ChipSelectorIMU(0); // Read again first IMU MagCal Parameters
 499              		.loc 1 197 0 is_stmt 1
 500 007c 0020     		movs	r0, #0
 501 007e FFF7FEFF 		bl	ChipSelectorIMU
 198:..\src/IMU_functions.c ****     CyDelay(10);
 502              		.loc 1 198 0
 503 0082 0A20     		movs	r0, #10
 504 0084 FFF7FEFF 		bl	CyDelay
 199:..\src/IMU_functions.c ****     ReadMagCal(0);  
 505              		.loc 1 199 0
 506 0088 0020     		movs	r0, #0
 507 008a FFF7FEFF 		bl	ReadMagCal
 200:..\src/IMU_functions.c ****     CyDelay(10);
 508              		.loc 1 200 0
 509 008e 0A20     		movs	r0, #10
 510 0090 FFF7FEFF 		bl	CyDelay
 201:..\src/IMU_functions.c ****         
 202:..\src/IMU_functions.c ****     // First ping to be sure to wakeup IMUs
 203:..\src/IMU_functions.c ****     for (k_imu=0; k_imu < N_IMU_MAX; k_imu++) 
 511              		.loc 1 203 0
 512 0094 0023     		movs	r3, #0
 513 0096 FB77     		strb	r3, [r7, #31]
 514 0098 0CE0     		b	.L14
 515              	.L15:
 204:..\src/IMU_functions.c ****     {	
 205:..\src/IMU_functions.c **** 	    ChipSelectorIMU(k_imu);
 516              		.loc 1 205 0 discriminator 3
 517 009a FB7F     		ldrb	r3, [r7, #31]	@ zero_extendqisi2
 518 009c 1846     		mov	r0, r3
 519 009e FFF7FEFF 		bl	ChipSelectorIMU
 206:..\src/IMU_functions.c **** 	    CyDelay(10);
 520              		.loc 1 206 0 discriminator 3
 521 00a2 0A20     		movs	r0, #10
 522 00a4 FFF7FEFF 		bl	CyDelay
 207:..\src/IMU_functions.c **** 	    ReadControlRegisterIMU(MPU9250_WHO_AM_I);
 523              		.loc 1 207 0 discriminator 3
 524 00a8 7520     		movs	r0, #117
 525 00aa FFF7FEFF 		bl	ReadControlRegisterIMU
 203:..\src/IMU_functions.c ****     {	
 526              		.loc 1 203 0 discriminator 3
 527 00ae FB7F     		ldrb	r3, [r7, #31]	@ zero_extendqisi2
ARM GAS  C:\Users\Mattia\AppData\Local\Temp\ccYnk7Oc.s 			page 14


 528 00b0 0133     		adds	r3, r3, #1
 529 00b2 FB77     		strb	r3, [r7, #31]
 530              	.L14:
 203:..\src/IMU_functions.c ****     {	
 531              		.loc 1 203 0 is_stmt 0 discriminator 1
 532 00b4 FB7F     		ldrb	r3, [r7, #31]	@ zero_extendqisi2
 533 00b6 042B     		cmp	r3, #4
 534 00b8 EFD9     		bls	.L15
 208:..\src/IMU_functions.c ****     }
 209:..\src/IMU_functions.c ****     
 210:..\src/IMU_functions.c ****     // Identify IMU connected
 211:..\src/IMU_functions.c ****     ChipSelectorIMU(0);
 535              		.loc 1 211 0 is_stmt 1
 536 00ba 0020     		movs	r0, #0
 537 00bc FFF7FEFF 		bl	ChipSelectorIMU
 212:..\src/IMU_functions.c ****     CyDelay(10);
 538              		.loc 1 212 0
 539 00c0 0A20     		movs	r0, #10
 540 00c2 FFF7FEFF 		bl	CyDelay
 213:..\src/IMU_functions.c ****     IMU_ack = ReadControlRegisterIMU(MPU9250_WHO_AM_I);
 541              		.loc 1 213 0
 542 00c6 7520     		movs	r0, #117
 543 00c8 FFF7FEFF 		bl	ReadControlRegisterIMU
 544 00cc 0346     		mov	r3, r0
 545 00ce BB61     		str	r3, [r7, #24]
 214:..\src/IMU_functions.c ****     IMU_ack = 0;
 546              		.loc 1 214 0
 547 00d0 0023     		movs	r3, #0
 548 00d2 BB61     		str	r3, [r7, #24]
 215:..\src/IMU_functions.c ****     N_IMU_Connected = 0;    
 549              		.loc 1 215 0
 550 00d4 764B     		ldr	r3, .L27+8
 551 00d6 0022     		movs	r2, #0
 552 00d8 1A70     		strb	r2, [r3]
 216:..\src/IMU_functions.c ****     for (k_imu = 0; k_imu < NUM_DEV_IMU; k_imu++) 
 553              		.loc 1 216 0
 554 00da 0023     		movs	r3, #0
 555 00dc FB77     		strb	r3, [r7, #31]
 556 00de 2AE0     		b	.L16
 557              	.L19:
 217:..\src/IMU_functions.c ****     {      
 218:..\src/IMU_functions.c ****     	ChipSelectorIMU(k_imu);
 558              		.loc 1 218 0
 559 00e0 FB7F     		ldrb	r3, [r7, #31]	@ zero_extendqisi2
 560 00e2 1846     		mov	r0, r3
 561 00e4 FFF7FEFF 		bl	ChipSelectorIMU
 219:..\src/IMU_functions.c ****         CyDelay(10);
 562              		.loc 1 219 0
 563 00e8 0A20     		movs	r0, #10
 564 00ea FFF7FEFF 		bl	CyDelay
 220:..\src/IMU_functions.c ****         IMU_ack = ReadControlRegisterIMU(MPU9250_WHO_AM_I);
 565              		.loc 1 220 0
 566 00ee 7520     		movs	r0, #117
 567 00f0 FFF7FEFF 		bl	ReadControlRegisterIMU
 568 00f4 0346     		mov	r3, r0
 569 00f6 BB61     		str	r3, [r7, #24]
 221:..\src/IMU_functions.c ****         if (IMU_ack == 0x71) 
ARM GAS  C:\Users\Mattia\AppData\Local\Temp\ccYnk7Oc.s 			page 15


 570              		.loc 1 221 0
 571 00f8 BB69     		ldr	r3, [r7, #24]
 572 00fa 712B     		cmp	r3, #113
 573 00fc 10D1     		bne	.L17
 222:..\src/IMU_functions.c ****         {
 223:..\src/IMU_functions.c ****             N_IMU_Connected++;
 574              		.loc 1 223 0
 575 00fe 6C4B     		ldr	r3, .L27+8
 576 0100 1B78     		ldrb	r3, [r3]	@ zero_extendqisi2
 577 0102 0133     		adds	r3, r3, #1
 578 0104 DAB2     		uxtb	r2, r3
 579 0106 6A4B     		ldr	r3, .L27+8
 580 0108 1A70     		strb	r2, [r3]
 224:..\src/IMU_functions.c ****             IMU_ack = 0;
 581              		.loc 1 224 0
 582 010a 0023     		movs	r3, #0
 583 010c BB61     		str	r3, [r7, #24]
 225:..\src/IMU_functions.c ****             tmp[k_imu] = 1;
 584              		.loc 1 225 0
 585 010e FB7F     		ldrb	r3, [r7, #31]	@ zero_extendqisi2
 586 0110 9B00     		lsls	r3, r3, #2
 587 0112 07F12002 		add	r2, r7, #32
 588 0116 1344     		add	r3, r3, r2
 589 0118 0122     		movs	r2, #1
 590 011a 43F81C2C 		str	r2, [r3, #-28]
 591 011e 07E0     		b	.L18
 592              	.L17:
 226:..\src/IMU_functions.c ****         }
 227:..\src/IMU_functions.c ****         else
 228:..\src/IMU_functions.c ****             tmp[k_imu] = 0;
 593              		.loc 1 228 0
 594 0120 FB7F     		ldrb	r3, [r7, #31]	@ zero_extendqisi2
 595 0122 9B00     		lsls	r3, r3, #2
 596 0124 07F12002 		add	r2, r7, #32
 597 0128 1344     		add	r3, r3, r2
 598 012a 0022     		movs	r2, #0
 599 012c 43F81C2C 		str	r2, [r3, #-28]
 600              	.L18:
 216:..\src/IMU_functions.c ****     {      
 601              		.loc 1 216 0 discriminator 2
 602 0130 FB7F     		ldrb	r3, [r7, #31]	@ zero_extendqisi2
 603 0132 0133     		adds	r3, r3, #1
 604 0134 FB77     		strb	r3, [r7, #31]
 605              	.L16:
 216:..\src/IMU_functions.c ****     {      
 606              		.loc 1 216 0 is_stmt 0 discriminator 1
 607 0136 FB7F     		ldrb	r3, [r7, #31]	@ zero_extendqisi2
 608 0138 002B     		cmp	r3, #0
 609 013a D1D0     		beq	.L19
 229:..\src/IMU_functions.c ****     }
 230:..\src/IMU_functions.c **** 
 231:..\src/IMU_functions.c ****     for(k_imu = 0; k_imu < N_IMU_MAX; k_imu++)
 610              		.loc 1 231 0 is_stmt 1
 611 013c 0023     		movs	r3, #0
 612 013e FB77     		strb	r3, [r7, #31]
 613 0140 12E0     		b	.L20
 614              	.L22:
ARM GAS  C:\Users\Mattia\AppData\Local\Temp\ccYnk7Oc.s 			page 16


 232:..\src/IMU_functions.c ****     {
 233:..\src/IMU_functions.c ****         if(tmp[k_imu] == 1)
 615              		.loc 1 233 0
 616 0142 FB7F     		ldrb	r3, [r7, #31]	@ zero_extendqisi2
 617 0144 9B00     		lsls	r3, r3, #2
 618 0146 07F12002 		add	r2, r7, #32
 619 014a 1344     		add	r3, r3, r2
 620 014c 53F81C3C 		ldr	r3, [r3, #-28]
 621 0150 012B     		cmp	r3, #1
 622 0152 06D1     		bne	.L21
 234:..\src/IMU_functions.c ****         {
 235:..\src/IMU_functions.c ****             IMU_connected[count] = k_imu;
 623              		.loc 1 235 0
 624 0154 BB7F     		ldrb	r3, [r7, #30]	@ zero_extendqisi2
 625 0156 5549     		ldr	r1, .L27+4
 626 0158 FA7F     		ldrb	r2, [r7, #31]
 627 015a CA54     		strb	r2, [r1, r3]
 236:..\src/IMU_functions.c ****             count++;
 628              		.loc 1 236 0
 629 015c BB7F     		ldrb	r3, [r7, #30]	@ zero_extendqisi2
 630 015e 0133     		adds	r3, r3, #1
 631 0160 BB77     		strb	r3, [r7, #30]
 632              	.L21:
 231:..\src/IMU_functions.c ****     {
 633              		.loc 1 231 0 discriminator 2
 634 0162 FB7F     		ldrb	r3, [r7, #31]	@ zero_extendqisi2
 635 0164 0133     		adds	r3, r3, #1
 636 0166 FB77     		strb	r3, [r7, #31]
 637              	.L20:
 231:..\src/IMU_functions.c ****     {
 638              		.loc 1 231 0 is_stmt 0 discriminator 1
 639 0168 FB7F     		ldrb	r3, [r7, #31]	@ zero_extendqisi2
 640 016a 042B     		cmp	r3, #4
 641 016c E9D9     		bls	.L22
 237:..\src/IMU_functions.c ****         }
 238:..\src/IMU_functions.c ****     }
 239:..\src/IMU_functions.c ****             
 240:..\src/IMU_functions.c ****     // Standard Initialization of the IMU
 241:..\src/IMU_functions.c ****     CyDelay(10);
 642              		.loc 1 241 0 is_stmt 1
 643 016e 0A20     		movs	r0, #10
 644 0170 FFF7FEFF 		bl	CyDelay
 242:..\src/IMU_functions.c ****     for (k_imu=0; k_imu < N_IMU_MAX; k_imu++) 
 645              		.loc 1 242 0
 646 0174 0023     		movs	r3, #0
 647 0176 FB77     		strb	r3, [r7, #31]
 648 0178 0EE0     		b	.L23
 649              	.L24:
 243:..\src/IMU_functions.c ****     {	
 244:..\src/IMU_functions.c **** 	    ChipSelectorIMU(k_imu);
 650              		.loc 1 244 0 discriminator 3
 651 017a FB7F     		ldrb	r3, [r7, #31]	@ zero_extendqisi2
 652 017c 1846     		mov	r0, r3
 653 017e FFF7FEFF 		bl	ChipSelectorIMU
 245:..\src/IMU_functions.c **** 	    CyDelay(10);
 654              		.loc 1 245 0 discriminator 3
 655 0182 0A20     		movs	r0, #10
ARM GAS  C:\Users\Mattia\AppData\Local\Temp\ccYnk7Oc.s 			page 17


 656 0184 FFF7FEFF 		bl	CyDelay
 246:..\src/IMU_functions.c **** 	    InitIMU();
 657              		.loc 1 246 0 discriminator 3
 658 0188 FFF7FEFF 		bl	InitIMU
 247:..\src/IMU_functions.c **** 	    CyDelay(10); 
 659              		.loc 1 247 0 discriminator 3
 660 018c 0A20     		movs	r0, #10
 661 018e FFF7FEFF 		bl	CyDelay
 242:..\src/IMU_functions.c ****     {	
 662              		.loc 1 242 0 discriminator 3
 663 0192 FB7F     		ldrb	r3, [r7, #31]	@ zero_extendqisi2
 664 0194 0133     		adds	r3, r3, #1
 665 0196 FB77     		strb	r3, [r7, #31]
 666              	.L23:
 242:..\src/IMU_functions.c ****     {	
 667              		.loc 1 242 0 is_stmt 0 discriminator 1
 668 0198 FB7F     		ldrb	r3, [r7, #31]	@ zero_extendqisi2
 669 019a 042B     		cmp	r3, #4
 670 019c EDD9     		bls	.L24
 248:..\src/IMU_functions.c ****     }
 249:..\src/IMU_functions.c ****     CyDelay(50);
 671              		.loc 1 249 0 is_stmt 1
 672 019e 3220     		movs	r0, #50
 673 01a0 FFF7FEFF 		bl	CyDelay
 250:..\src/IMU_functions.c ****     
 251:..\src/IMU_functions.c ****     // Set Standard Read for the IMU
 252:..\src/IMU_functions.c ****     memset(&single_imu_size, 0, sizeof(single_imu_size));
 674              		.loc 1 252 0
 675 01a4 1422     		movs	r2, #20
 676 01a6 0021     		movs	r1, #0
 677 01a8 4248     		ldr	r0, .L27+12
 678 01aa FFF7FEFF 		bl	memset
 253:..\src/IMU_functions.c ****     imus_data_size = 1; //header    
 679              		.loc 1 253 0
 680 01ae 424B     		ldr	r3, .L27+16
 681 01b0 0122     		movs	r2, #1
 682 01b2 1A60     		str	r2, [r3]
 254:..\src/IMU_functions.c ****     for (k_imu = 0; k_imu < N_IMU_Connected; k_imu++)
 683              		.loc 1 254 0
 684 01b4 0023     		movs	r3, #0
 685 01b6 FB77     		strb	r3, [r7, #31]
 686 01b8 68E0     		b	.L25
 687              	.L26:
 255:..\src/IMU_functions.c ****     {
 256:..\src/IMU_functions.c ****         single_imu_size[IMU_connected[k_imu]] = 1 + 6*c_mem.imu.IMU_conf[IMU_connected[k_imu]][0] +
 688              		.loc 1 256 0 discriminator 3
 689 01ba FB7F     		ldrb	r3, [r7, #31]	@ zero_extendqisi2
 690 01bc 3B4A     		ldr	r2, .L27+4
 691 01be D35C     		ldrb	r3, [r2, r3]	@ zero_extendqisi2
 692 01c0 1C46     		mov	r4, r3
 693 01c2 FB7F     		ldrb	r3, [r7, #31]	@ zero_extendqisi2
 694 01c4 394A     		ldr	r2, .L27+4
 695 01c6 D35C     		ldrb	r3, [r2, r3]	@ zero_extendqisi2
 696 01c8 1946     		mov	r1, r3
 697 01ca 3C4A     		ldr	r2, .L27+20
 698 01cc 0B46     		mov	r3, r1
 699 01ce 9B00     		lsls	r3, r3, #2
ARM GAS  C:\Users\Mattia\AppData\Local\Temp\ccYnk7Oc.s 			page 18


 700 01d0 0B44     		add	r3, r3, r1
 701 01d2 1344     		add	r3, r3, r2
 702 01d4 03F20223 		addw	r3, r3, #514
 703 01d8 1B78     		ldrb	r3, [r3]	@ zero_extendqisi2
 704 01da 1A46     		mov	r2, r3
 705 01dc 1346     		mov	r3, r2
 706 01de 5B00     		lsls	r3, r3, #1
 707 01e0 1344     		add	r3, r3, r2
 708 01e2 5B00     		lsls	r3, r3, #1
 709 01e4 5A1C     		adds	r2, r3, #1
 710 01e6 FB7F     		ldrb	r3, [r7, #31]	@ zero_extendqisi2
 711 01e8 3049     		ldr	r1, .L27+4
 712 01ea CB5C     		ldrb	r3, [r1, r3]	@ zero_extendqisi2
 713 01ec 1846     		mov	r0, r3
 714 01ee 3349     		ldr	r1, .L27+20
 715 01f0 0346     		mov	r3, r0
 716 01f2 9B00     		lsls	r3, r3, #2
 717 01f4 0344     		add	r3, r3, r0
 718 01f6 0B44     		add	r3, r3, r1
 719 01f8 03F20323 		addw	r3, r3, #515
 720 01fc 1B78     		ldrb	r3, [r3]	@ zero_extendqisi2
 721 01fe 1946     		mov	r1, r3
 722 0200 0B46     		mov	r3, r1
 723 0202 5B00     		lsls	r3, r3, #1
 724 0204 0B44     		add	r3, r3, r1
 725 0206 5B00     		lsls	r3, r3, #1
 726 0208 1A44     		add	r2, r2, r3
 727 020a FB7F     		ldrb	r3, [r7, #31]	@ zero_extendqisi2
 728 020c 2749     		ldr	r1, .L27+4
 729 020e CB5C     		ldrb	r3, [r1, r3]	@ zero_extendqisi2
 730 0210 1846     		mov	r0, r3
 731 0212 2A49     		ldr	r1, .L27+20
 732 0214 0346     		mov	r3, r0
 733 0216 9B00     		lsls	r3, r3, #2
 734 0218 0344     		add	r3, r3, r0
 735 021a 0B44     		add	r3, r3, r1
 736 021c 03F50173 		add	r3, r3, #516
 737 0220 1B78     		ldrb	r3, [r3]	@ zero_extendqisi2
 738 0222 1946     		mov	r1, r3
 739 0224 0B46     		mov	r3, r1
 740 0226 5B00     		lsls	r3, r3, #1
 741 0228 0B44     		add	r3, r3, r1
 742 022a 5B00     		lsls	r3, r3, #1
 743 022c 1A44     		add	r2, r2, r3
 744 022e FB7F     		ldrb	r3, [r7, #31]	@ zero_extendqisi2
 745 0230 1E49     		ldr	r1, .L27+4
 746 0232 CB5C     		ldrb	r3, [r1, r3]	@ zero_extendqisi2
 747 0234 1846     		mov	r0, r3
 748 0236 2149     		ldr	r1, .L27+20
 749 0238 0346     		mov	r3, r0
 750 023a 9B00     		lsls	r3, r3, #2
 751 023c 0344     		add	r3, r3, r0
 752 023e 0B44     		add	r3, r3, r1
 753 0240 03F20523 		addw	r3, r3, #517
 754 0244 1B78     		ldrb	r3, [r3]	@ zero_extendqisi2
 755 0246 1B01     		lsls	r3, r3, #4
 756 0248 1A44     		add	r2, r2, r3
ARM GAS  C:\Users\Mattia\AppData\Local\Temp\ccYnk7Oc.s 			page 19


 757 024a FB7F     		ldrb	r3, [r7, #31]	@ zero_extendqisi2
 758 024c 1749     		ldr	r1, .L27+4
 759 024e CB5C     		ldrb	r3, [r1, r3]	@ zero_extendqisi2
 760 0250 1846     		mov	r0, r3
 761 0252 1A49     		ldr	r1, .L27+20
 762 0254 0346     		mov	r3, r0
 763 0256 9B00     		lsls	r3, r3, #2
 764 0258 0344     		add	r3, r3, r0
 765 025a 0B44     		add	r3, r3, r1
 766 025c 03F20623 		addw	r3, r3, #518
 767 0260 1B78     		ldrb	r3, [r3]	@ zero_extendqisi2
 768 0262 5B00     		lsls	r3, r3, #1
 769 0264 1344     		add	r3, r3, r2
 770 0266 0133     		adds	r3, r3, #1
 771 0268 124A     		ldr	r2, .L27+12
 772 026a 42F82430 		str	r3, [r2, r4, lsl #2]
 257:..\src/IMU_functions.c ****         imus_data_size = imus_data_size + single_imu_size[IMU_connected[k_imu]];
 773              		.loc 1 257 0 discriminator 3
 774 026e FB7F     		ldrb	r3, [r7, #31]	@ zero_extendqisi2
 775 0270 0E4A     		ldr	r2, .L27+4
 776 0272 D35C     		ldrb	r3, [r2, r3]	@ zero_extendqisi2
 777 0274 1A46     		mov	r2, r3
 778 0276 0F4B     		ldr	r3, .L27+12
 779 0278 53F82220 		ldr	r2, [r3, r2, lsl #2]
 780 027c 0E4B     		ldr	r3, .L27+16
 781 027e 1B68     		ldr	r3, [r3]
 782 0280 1344     		add	r3, r3, r2
 783 0282 0D4A     		ldr	r2, .L27+16
 784 0284 1360     		str	r3, [r2]
 254:..\src/IMU_functions.c ****     for (k_imu = 0; k_imu < N_IMU_Connected; k_imu++)
 785              		.loc 1 254 0 discriminator 3
 786 0286 FB7F     		ldrb	r3, [r7, #31]	@ zero_extendqisi2
 787 0288 0133     		adds	r3, r3, #1
 788 028a FB77     		strb	r3, [r7, #31]
 789              	.L25:
 254:..\src/IMU_functions.c ****     for (k_imu = 0; k_imu < N_IMU_Connected; k_imu++)
 790              		.loc 1 254 0 is_stmt 0 discriminator 1
 791 028c 084B     		ldr	r3, .L27+8
 792 028e 1B78     		ldrb	r3, [r3]	@ zero_extendqisi2
 793 0290 FA7F     		ldrb	r2, [r7, #31]	@ zero_extendqisi2
 794 0292 9A42     		cmp	r2, r3
 795 0294 91D3     		bcc	.L26
 258:..\src/IMU_functions.c ****     }
 259:..\src/IMU_functions.c ****     imus_data_size = imus_data_size + 1;    //checksum*/
 796              		.loc 1 259 0 is_stmt 1
 797 0296 084B     		ldr	r3, .L27+16
 798 0298 1B68     		ldr	r3, [r3]
 799 029a 0133     		adds	r3, r3, #1
 800 029c 064A     		ldr	r2, .L27+16
 801 029e 1360     		str	r3, [r2]
 260:..\src/IMU_functions.c **** }
 802              		.loc 1 260 0
 803 02a0 00BF     		nop
 804 02a2 2437     		adds	r7, r7, #36
 805              		.cfi_def_cfa_offset 12
 806 02a4 BD46     		mov	sp, r7
 807              		.cfi_def_cfa_register 13
ARM GAS  C:\Users\Mattia\AppData\Local\Temp\ccYnk7Oc.s 			page 20


 808              		@ sp needed
 809 02a6 90BD     		pop	{r4, r7, pc}
 810              	.L28:
 811              		.align	2
 812              	.L27:
 813 02a8 00000000 		.word	g_imu
 814 02ac 00000000 		.word	IMU_connected
 815 02b0 00000000 		.word	N_IMU_Connected
 816 02b4 00000000 		.word	single_imu_size
 817 02b8 00000000 		.word	imus_data_size
 818 02bc 00000000 		.word	c_mem
 819              		.cfi_endproc
 820              	.LFE68:
 821              		.size	InitIMUgeneral, .-InitIMUgeneral
 822              		.section	.text.ReadIMU,"ax",%progbits
 823              		.align	2
 824              		.global	ReadIMU
 825              		.thumb
 826              		.thumb_func
 827              		.type	ReadIMU, %function
 828              	ReadIMU:
 829              	.LFB69:
 261:..\src/IMU_functions.c **** 
 262:..\src/IMU_functions.c **** /*******************************************************************************
 263:..\src/IMU_functions.c **** * Function Name: IMU Read
 264:..\src/IMU_functions.c **** *********************************************************************************/	
 265:..\src/IMU_functions.c **** void ReadIMU(int n)
 266:..\src/IMU_functions.c **** {
 830              		.loc 1 266 0
 831              		.cfi_startproc
 832              		@ args = 0, pretend = 0, frame = 8
 833              		@ frame_needed = 1, uses_anonymous_args = 0
 834 0000 80B5     		push	{r7, lr}
 835              		.cfi_def_cfa_offset 8
 836              		.cfi_offset 7, -8
 837              		.cfi_offset 14, -4
 838 0002 82B0     		sub	sp, sp, #8
 839              		.cfi_def_cfa_offset 16
 840 0004 00AF     		add	r7, sp, #0
 841              		.cfi_def_cfa_register 7
 842 0006 7860     		str	r0, [r7, #4]
 267:..\src/IMU_functions.c ****     if (c_mem.imu.IMU_conf[n][0]) ReadAcc(n);
 843              		.loc 1 267 0
 844 0008 2449     		ldr	r1, .L36
 845 000a 7A68     		ldr	r2, [r7, #4]
 846 000c 1346     		mov	r3, r2
 847 000e 9B00     		lsls	r3, r3, #2
 848 0010 1344     		add	r3, r3, r2
 849 0012 0B44     		add	r3, r3, r1
 850 0014 03F20223 		addw	r3, r3, #514
 851 0018 1B78     		ldrb	r3, [r3]	@ zero_extendqisi2
 852 001a 002B     		cmp	r3, #0
 853 001c 02D0     		beq	.L30
 854              		.loc 1 267 0 is_stmt 0 discriminator 1
 855 001e 7868     		ldr	r0, [r7, #4]
 856 0020 FFF7FEFF 		bl	ReadAcc
 857              	.L30:
ARM GAS  C:\Users\Mattia\AppData\Local\Temp\ccYnk7Oc.s 			page 21


 268:..\src/IMU_functions.c ****     if (c_mem.imu.IMU_conf[n][1]) ReadGyro(n);
 858              		.loc 1 268 0 is_stmt 1
 859 0024 1D49     		ldr	r1, .L36
 860 0026 7A68     		ldr	r2, [r7, #4]
 861 0028 1346     		mov	r3, r2
 862 002a 9B00     		lsls	r3, r3, #2
 863 002c 1344     		add	r3, r3, r2
 864 002e 0B44     		add	r3, r3, r1
 865 0030 03F20323 		addw	r3, r3, #515
 866 0034 1B78     		ldrb	r3, [r3]	@ zero_extendqisi2
 867 0036 002B     		cmp	r3, #0
 868 0038 02D0     		beq	.L31
 869              		.loc 1 268 0 is_stmt 0 discriminator 1
 870 003a 7868     		ldr	r0, [r7, #4]
 871 003c FFF7FEFF 		bl	ReadGyro
 872              	.L31:
 269:..\src/IMU_functions.c ****     if (c_mem.imu.IMU_conf[n][2]) ReadMag(n);
 873              		.loc 1 269 0 is_stmt 1
 874 0040 1649     		ldr	r1, .L36
 875 0042 7A68     		ldr	r2, [r7, #4]
 876 0044 1346     		mov	r3, r2
 877 0046 9B00     		lsls	r3, r3, #2
 878 0048 1344     		add	r3, r3, r2
 879 004a 0B44     		add	r3, r3, r1
 880 004c 03F50173 		add	r3, r3, #516
 881 0050 1B78     		ldrb	r3, [r3]	@ zero_extendqisi2
 882 0052 002B     		cmp	r3, #0
 883 0054 02D0     		beq	.L32
 884              		.loc 1 269 0 is_stmt 0 discriminator 1
 885 0056 7868     		ldr	r0, [r7, #4]
 886 0058 FFF7FEFF 		bl	ReadMag
 887              	.L32:
 270:..\src/IMU_functions.c ****     if (c_mem.imu.IMU_conf[n][3]) ReadQuat(n);
 888              		.loc 1 270 0 is_stmt 1
 889 005c 0F49     		ldr	r1, .L36
 890 005e 7A68     		ldr	r2, [r7, #4]
 891 0060 1346     		mov	r3, r2
 892 0062 9B00     		lsls	r3, r3, #2
 893 0064 1344     		add	r3, r3, r2
 894 0066 0B44     		add	r3, r3, r1
 895 0068 03F20523 		addw	r3, r3, #517
 896 006c 1B78     		ldrb	r3, [r3]	@ zero_extendqisi2
 897 006e 002B     		cmp	r3, #0
 898 0070 02D0     		beq	.L33
 899              		.loc 1 270 0 is_stmt 0 discriminator 1
 900 0072 7868     		ldr	r0, [r7, #4]
 901 0074 FFF7FEFF 		bl	ReadQuat
 902              	.L33:
 271:..\src/IMU_functions.c ****     if (c_mem.imu.IMU_conf[n][4]) ReadTemp(n);
 903              		.loc 1 271 0 is_stmt 1
 904 0078 0849     		ldr	r1, .L36
 905 007a 7A68     		ldr	r2, [r7, #4]
 906 007c 1346     		mov	r3, r2
 907 007e 9B00     		lsls	r3, r3, #2
 908 0080 1344     		add	r3, r3, r2
 909 0082 0B44     		add	r3, r3, r1
 910 0084 03F20623 		addw	r3, r3, #518
ARM GAS  C:\Users\Mattia\AppData\Local\Temp\ccYnk7Oc.s 			page 22


 911 0088 1B78     		ldrb	r3, [r3]	@ zero_extendqisi2
 912 008a 002B     		cmp	r3, #0
 913 008c 02D0     		beq	.L35
 914              		.loc 1 271 0 is_stmt 0 discriminator 1
 915 008e 7868     		ldr	r0, [r7, #4]
 916 0090 FFF7FEFF 		bl	ReadTemp
 917              	.L35:
 272:..\src/IMU_functions.c **** }
 918              		.loc 1 272 0 is_stmt 1
 919 0094 00BF     		nop
 920 0096 0837     		adds	r7, r7, #8
 921              		.cfi_def_cfa_offset 8
 922 0098 BD46     		mov	sp, r7
 923              		.cfi_def_cfa_register 13
 924              		@ sp needed
 925 009a 80BD     		pop	{r7, pc}
 926              	.L37:
 927              		.align	2
 928              	.L36:
 929 009c 00000000 		.word	c_mem
 930              		.cfi_endproc
 931              	.LFE69:
 932              		.size	ReadIMU, .-ReadIMU
 933              		.section	.text.ReadAcc,"ax",%progbits
 934              		.align	2
 935              		.global	ReadAcc
 936              		.thumb
 937              		.thumb_func
 938              		.type	ReadAcc, %function
 939              	ReadAcc:
 940              	.LFB70:
 273:..\src/IMU_functions.c **** 
 274:..\src/IMU_functions.c **** /*******************************************************************************
 275:..\src/IMU_functions.c **** * Function Name: Read Acc's Data of IMU n
 276:..\src/IMU_functions.c **** *********************************************************************************/
 277:..\src/IMU_functions.c **** void ReadAcc(int n)
 278:..\src/IMU_functions.c **** {
 941              		.loc 1 278 0
 942              		.cfi_startproc
 943              		@ args = 0, pretend = 0, frame = 16
 944              		@ frame_needed = 1, uses_anonymous_args = 0
 945 0000 80B5     		push	{r7, lr}
 946              		.cfi_def_cfa_offset 8
 947              		.cfi_offset 7, -8
 948              		.cfi_offset 14, -4
 949 0002 84B0     		sub	sp, sp, #16
 950              		.cfi_def_cfa_offset 24
 951 0004 00AF     		add	r7, sp, #0
 952              		.cfi_def_cfa_register 7
 953 0006 7860     		str	r0, [r7, #4]
 279:..\src/IMU_functions.c **** 	uint8 low=0, high=0;
 954              		.loc 1 279 0
 955 0008 0023     		movs	r3, #0
 956 000a FB73     		strb	r3, [r7, #15]
 957 000c 0023     		movs	r3, #0
 958 000e BB73     		strb	r3, [r7, #14]
 280:..\src/IMU_functions.c **** 	
ARM GAS  C:\Users\Mattia\AppData\Local\Temp\ccYnk7Oc.s 			page 23


 281:..\src/IMU_functions.c **** 	int row = n;
 959              		.loc 1 281 0
 960 0010 7B68     		ldr	r3, [r7, #4]
 961 0012 BB60     		str	r3, [r7, #8]
 282:..\src/IMU_functions.c **** 	
 283:..\src/IMU_functions.c **** 	//read X
 284:..\src/IMU_functions.c ****     low=ReadControlRegisterIMU(MPU9250_ACCEL_XOUT_L);
 962              		.loc 1 284 0
 963 0014 3C20     		movs	r0, #60
 964 0016 FFF7FEFF 		bl	ReadControlRegisterIMU
 965 001a 0346     		mov	r3, r0
 966 001c FB73     		strb	r3, [r7, #15]
 285:..\src/IMU_functions.c ****     SPI_delay();
 967              		.loc 1 285 0
 968 001e FFF7FEFF 		bl	SPI_delay
 286:..\src/IMU_functions.c ****     high=ReadControlRegisterIMU(MPU9250_ACCEL_XOUT_H);
 969              		.loc 1 286 0
 970 0022 3B20     		movs	r0, #59
 971 0024 FFF7FEFF 		bl	ReadControlRegisterIMU
 972 0028 0346     		mov	r3, r0
 973 002a BB73     		strb	r3, [r7, #14]
 287:..\src/IMU_functions.c ****     SPI_delay();
 974              		.loc 1 287 0
 975 002c FFF7FEFF 		bl	SPI_delay
 288:..\src/IMU_functions.c ****     
 289:..\src/IMU_functions.c **** 	Accel[row][0] = high; 
 976              		.loc 1 289 0
 977 0030 3349     		ldr	r1, .L39
 978 0032 BA68     		ldr	r2, [r7, #8]
 979 0034 1346     		mov	r3, r2
 980 0036 5B00     		lsls	r3, r3, #1
 981 0038 1344     		add	r3, r3, r2
 982 003a 5B00     		lsls	r3, r3, #1
 983 003c 0B44     		add	r3, r3, r1
 984 003e BA7B     		ldrb	r2, [r7, #14]
 985 0040 1A70     		strb	r2, [r3]
 290:..\src/IMU_functions.c **** 	Accel[row][1] = low; 
 986              		.loc 1 290 0
 987 0042 2F49     		ldr	r1, .L39
 988 0044 BA68     		ldr	r2, [r7, #8]
 989 0046 1346     		mov	r3, r2
 990 0048 5B00     		lsls	r3, r3, #1
 991 004a 1344     		add	r3, r3, r2
 992 004c 5B00     		lsls	r3, r3, #1
 993 004e 0B44     		add	r3, r3, r1
 994 0050 0133     		adds	r3, r3, #1
 995 0052 FA7B     		ldrb	r2, [r7, #15]
 996 0054 1A70     		strb	r2, [r3]
 291:..\src/IMU_functions.c **** 	low=0, high=0;
 997              		.loc 1 291 0
 998 0056 0023     		movs	r3, #0
 999 0058 FB73     		strb	r3, [r7, #15]
 1000 005a 0023     		movs	r3, #0
 1001 005c BB73     		strb	r3, [r7, #14]
 292:..\src/IMU_functions.c **** 			
 293:..\src/IMU_functions.c **** 	//read Y
 294:..\src/IMU_functions.c ****     low=ReadControlRegisterIMU(MPU9250_ACCEL_YOUT_L);
ARM GAS  C:\Users\Mattia\AppData\Local\Temp\ccYnk7Oc.s 			page 24


 1002              		.loc 1 294 0
 1003 005e 3E20     		movs	r0, #62
 1004 0060 FFF7FEFF 		bl	ReadControlRegisterIMU
 1005 0064 0346     		mov	r3, r0
 1006 0066 FB73     		strb	r3, [r7, #15]
 295:..\src/IMU_functions.c ****     SPI_delay();
 1007              		.loc 1 295 0
 1008 0068 FFF7FEFF 		bl	SPI_delay
 296:..\src/IMU_functions.c **** 	high=ReadControlRegisterIMU(MPU9250_ACCEL_YOUT_H);
 1009              		.loc 1 296 0
 1010 006c 3D20     		movs	r0, #61
 1011 006e FFF7FEFF 		bl	ReadControlRegisterIMU
 1012 0072 0346     		mov	r3, r0
 1013 0074 BB73     		strb	r3, [r7, #14]
 297:..\src/IMU_functions.c ****     SPI_delay();
 1014              		.loc 1 297 0
 1015 0076 FFF7FEFF 		bl	SPI_delay
 298:..\src/IMU_functions.c **** 
 299:..\src/IMU_functions.c **** 	Accel[row][2] = high; 
 1016              		.loc 1 299 0
 1017 007a 2149     		ldr	r1, .L39
 1018 007c BA68     		ldr	r2, [r7, #8]
 1019 007e 1346     		mov	r3, r2
 1020 0080 5B00     		lsls	r3, r3, #1
 1021 0082 1344     		add	r3, r3, r2
 1022 0084 5B00     		lsls	r3, r3, #1
 1023 0086 0B44     		add	r3, r3, r1
 1024 0088 0233     		adds	r3, r3, #2
 1025 008a BA7B     		ldrb	r2, [r7, #14]
 1026 008c 1A70     		strb	r2, [r3]
 300:..\src/IMU_functions.c **** 	Accel[row][3] = low; 
 1027              		.loc 1 300 0
 1028 008e 1C49     		ldr	r1, .L39
 1029 0090 BA68     		ldr	r2, [r7, #8]
 1030 0092 1346     		mov	r3, r2
 1031 0094 5B00     		lsls	r3, r3, #1
 1032 0096 1344     		add	r3, r3, r2
 1033 0098 5B00     		lsls	r3, r3, #1
 1034 009a 0B44     		add	r3, r3, r1
 1035 009c 0333     		adds	r3, r3, #3
 1036 009e FA7B     		ldrb	r2, [r7, #15]
 1037 00a0 1A70     		strb	r2, [r3]
 301:..\src/IMU_functions.c **** 	low=0, high=0;
 1038              		.loc 1 301 0
 1039 00a2 0023     		movs	r3, #0
 1040 00a4 FB73     		strb	r3, [r7, #15]
 1041 00a6 0023     		movs	r3, #0
 1042 00a8 BB73     		strb	r3, [r7, #14]
 302:..\src/IMU_functions.c **** 		
 303:..\src/IMU_functions.c **** 	//read Z
 304:..\src/IMU_functions.c ****     low=ReadControlRegisterIMU(MPU9250_ACCEL_ZOUT_L);
 1043              		.loc 1 304 0
 1044 00aa 4020     		movs	r0, #64
 1045 00ac FFF7FEFF 		bl	ReadControlRegisterIMU
 1046 00b0 0346     		mov	r3, r0
 1047 00b2 FB73     		strb	r3, [r7, #15]
 305:..\src/IMU_functions.c ****     SPI_delay();
ARM GAS  C:\Users\Mattia\AppData\Local\Temp\ccYnk7Oc.s 			page 25


 1048              		.loc 1 305 0
 1049 00b4 FFF7FEFF 		bl	SPI_delay
 306:..\src/IMU_functions.c ****     high=ReadControlRegisterIMU(MPU9250_ACCEL_ZOUT_H);
 1050              		.loc 1 306 0
 1051 00b8 3F20     		movs	r0, #63
 1052 00ba FFF7FEFF 		bl	ReadControlRegisterIMU
 1053 00be 0346     		mov	r3, r0
 1054 00c0 BB73     		strb	r3, [r7, #14]
 307:..\src/IMU_functions.c ****     SPI_delay();
 1055              		.loc 1 307 0
 1056 00c2 FFF7FEFF 		bl	SPI_delay
 308:..\src/IMU_functions.c ****     
 309:..\src/IMU_functions.c **** 	Accel[row][4] = high; 
 1057              		.loc 1 309 0
 1058 00c6 0E49     		ldr	r1, .L39
 1059 00c8 BA68     		ldr	r2, [r7, #8]
 1060 00ca 1346     		mov	r3, r2
 1061 00cc 5B00     		lsls	r3, r3, #1
 1062 00ce 1344     		add	r3, r3, r2
 1063 00d0 5B00     		lsls	r3, r3, #1
 1064 00d2 0B44     		add	r3, r3, r1
 1065 00d4 0433     		adds	r3, r3, #4
 1066 00d6 BA7B     		ldrb	r2, [r7, #14]
 1067 00d8 1A70     		strb	r2, [r3]
 310:..\src/IMU_functions.c **** 	Accel[row][5] = low;
 1068              		.loc 1 310 0
 1069 00da 0949     		ldr	r1, .L39
 1070 00dc BA68     		ldr	r2, [r7, #8]
 1071 00de 1346     		mov	r3, r2
 1072 00e0 5B00     		lsls	r3, r3, #1
 1073 00e2 1344     		add	r3, r3, r2
 1074 00e4 5B00     		lsls	r3, r3, #1
 1075 00e6 0B44     		add	r3, r3, r1
 1076 00e8 0533     		adds	r3, r3, #5
 1077 00ea FA7B     		ldrb	r2, [r7, #15]
 1078 00ec 1A70     		strb	r2, [r3]
 311:..\src/IMU_functions.c **** 	low=0, high=0;
 1079              		.loc 1 311 0
 1080 00ee 0023     		movs	r3, #0
 1081 00f0 FB73     		strb	r3, [r7, #15]
 1082 00f2 0023     		movs	r3, #0
 1083 00f4 BB73     		strb	r3, [r7, #14]
 312:..\src/IMU_functions.c **** }
 1084              		.loc 1 312 0
 1085 00f6 00BF     		nop
 1086 00f8 1037     		adds	r7, r7, #16
 1087              		.cfi_def_cfa_offset 8
 1088 00fa BD46     		mov	sp, r7
 1089              		.cfi_def_cfa_register 13
 1090              		@ sp needed
 1091 00fc 80BD     		pop	{r7, pc}
 1092              	.L40:
 1093 00fe 00BF     		.align	2
 1094              	.L39:
 1095 0100 00000000 		.word	Accel
 1096              		.cfi_endproc
 1097              	.LFE70:
ARM GAS  C:\Users\Mattia\AppData\Local\Temp\ccYnk7Oc.s 			page 26


 1098              		.size	ReadAcc, .-ReadAcc
 1099              		.section	.text.ReadGyro,"ax",%progbits
 1100              		.align	2
 1101              		.global	ReadGyro
 1102              		.thumb
 1103              		.thumb_func
 1104              		.type	ReadGyro, %function
 1105              	ReadGyro:
 1106              	.LFB71:
 313:..\src/IMU_functions.c **** 
 314:..\src/IMU_functions.c **** /*******************************************************************************
 315:..\src/IMU_functions.c **** * Function Name: Read Gyro's Data of IMU n
 316:..\src/IMU_functions.c **** *********************************************************************************/
 317:..\src/IMU_functions.c **** void ReadGyro(int n){
 1107              		.loc 1 317 0
 1108              		.cfi_startproc
 1109              		@ args = 0, pretend = 0, frame = 16
 1110              		@ frame_needed = 1, uses_anonymous_args = 0
 1111 0000 80B5     		push	{r7, lr}
 1112              		.cfi_def_cfa_offset 8
 1113              		.cfi_offset 7, -8
 1114              		.cfi_offset 14, -4
 1115 0002 84B0     		sub	sp, sp, #16
 1116              		.cfi_def_cfa_offset 24
 1117 0004 00AF     		add	r7, sp, #0
 1118              		.cfi_def_cfa_register 7
 1119 0006 7860     		str	r0, [r7, #4]
 318:..\src/IMU_functions.c **** 	uint8 low=0, high=0;
 1120              		.loc 1 318 0
 1121 0008 0023     		movs	r3, #0
 1122 000a FB73     		strb	r3, [r7, #15]
 1123 000c 0023     		movs	r3, #0
 1124 000e BB73     		strb	r3, [r7, #14]
 319:..\src/IMU_functions.c ****  
 320:..\src/IMU_functions.c **** 	int row = n;
 1125              		.loc 1 320 0
 1126 0010 7B68     		ldr	r3, [r7, #4]
 1127 0012 BB60     		str	r3, [r7, #8]
 321:..\src/IMU_functions.c **** 	
 322:..\src/IMU_functions.c **** 	//read X
 323:..\src/IMU_functions.c **** 	low=ReadControlRegisterIMU(MPU9250_GYRO_XOUT_L);
 1128              		.loc 1 323 0
 1129 0014 4420     		movs	r0, #68
 1130 0016 FFF7FEFF 		bl	ReadControlRegisterIMU
 1131 001a 0346     		mov	r3, r0
 1132 001c FB73     		strb	r3, [r7, #15]
 324:..\src/IMU_functions.c ****     SPI_delay();
 1133              		.loc 1 324 0
 1134 001e FFF7FEFF 		bl	SPI_delay
 325:..\src/IMU_functions.c **** 	high=ReadControlRegisterIMU(MPU9250_GYRO_XOUT_H);
 1135              		.loc 1 325 0
 1136 0022 4320     		movs	r0, #67
 1137 0024 FFF7FEFF 		bl	ReadControlRegisterIMU
 1138 0028 0346     		mov	r3, r0
 1139 002a BB73     		strb	r3, [r7, #14]
 326:..\src/IMU_functions.c ****     SPI_delay();
 1140              		.loc 1 326 0
ARM GAS  C:\Users\Mattia\AppData\Local\Temp\ccYnk7Oc.s 			page 27


 1141 002c FFF7FEFF 		bl	SPI_delay
 327:..\src/IMU_functions.c ****     
 328:..\src/IMU_functions.c **** 	Gyro[row][0] = high; 
 1142              		.loc 1 328 0
 1143 0030 3349     		ldr	r1, .L42
 1144 0032 BA68     		ldr	r2, [r7, #8]
 1145 0034 1346     		mov	r3, r2
 1146 0036 5B00     		lsls	r3, r3, #1
 1147 0038 1344     		add	r3, r3, r2
 1148 003a 5B00     		lsls	r3, r3, #1
 1149 003c 0B44     		add	r3, r3, r1
 1150 003e BA7B     		ldrb	r2, [r7, #14]
 1151 0040 1A70     		strb	r2, [r3]
 329:..\src/IMU_functions.c **** 	Gyro[row][1] = low;
 1152              		.loc 1 329 0
 1153 0042 2F49     		ldr	r1, .L42
 1154 0044 BA68     		ldr	r2, [r7, #8]
 1155 0046 1346     		mov	r3, r2
 1156 0048 5B00     		lsls	r3, r3, #1
 1157 004a 1344     		add	r3, r3, r2
 1158 004c 5B00     		lsls	r3, r3, #1
 1159 004e 0B44     		add	r3, r3, r1
 1160 0050 0133     		adds	r3, r3, #1
 1161 0052 FA7B     		ldrb	r2, [r7, #15]
 1162 0054 1A70     		strb	r2, [r3]
 330:..\src/IMU_functions.c **** 	low=0, high=0;
 1163              		.loc 1 330 0
 1164 0056 0023     		movs	r3, #0
 1165 0058 FB73     		strb	r3, [r7, #15]
 1166 005a 0023     		movs	r3, #0
 1167 005c BB73     		strb	r3, [r7, #14]
 331:..\src/IMU_functions.c ****     
 332:..\src/IMU_functions.c **** 	//read Y
 333:..\src/IMU_functions.c **** 	low=ReadControlRegisterIMU(MPU9250_GYRO_YOUT_L);
 1168              		.loc 1 333 0
 1169 005e 4620     		movs	r0, #70
 1170 0060 FFF7FEFF 		bl	ReadControlRegisterIMU
 1171 0064 0346     		mov	r3, r0
 1172 0066 FB73     		strb	r3, [r7, #15]
 334:..\src/IMU_functions.c ****     SPI_delay();
 1173              		.loc 1 334 0
 1174 0068 FFF7FEFF 		bl	SPI_delay
 335:..\src/IMU_functions.c **** 	high=ReadControlRegisterIMU(MPU9250_GYRO_YOUT_H);
 1175              		.loc 1 335 0
 1176 006c 4520     		movs	r0, #69
 1177 006e FFF7FEFF 		bl	ReadControlRegisterIMU
 1178 0072 0346     		mov	r3, r0
 1179 0074 BB73     		strb	r3, [r7, #14]
 336:..\src/IMU_functions.c ****     SPI_delay();
 1180              		.loc 1 336 0
 1181 0076 FFF7FEFF 		bl	SPI_delay
 337:..\src/IMU_functions.c ****     
 338:..\src/IMU_functions.c **** 	Gyro[row][2] = high; 
 1182              		.loc 1 338 0
 1183 007a 2149     		ldr	r1, .L42
 1184 007c BA68     		ldr	r2, [r7, #8]
 1185 007e 1346     		mov	r3, r2
ARM GAS  C:\Users\Mattia\AppData\Local\Temp\ccYnk7Oc.s 			page 28


 1186 0080 5B00     		lsls	r3, r3, #1
 1187 0082 1344     		add	r3, r3, r2
 1188 0084 5B00     		lsls	r3, r3, #1
 1189 0086 0B44     		add	r3, r3, r1
 1190 0088 0233     		adds	r3, r3, #2
 1191 008a BA7B     		ldrb	r2, [r7, #14]
 1192 008c 1A70     		strb	r2, [r3]
 339:..\src/IMU_functions.c **** 	Gyro[row][3] = low;
 1193              		.loc 1 339 0
 1194 008e 1C49     		ldr	r1, .L42
 1195 0090 BA68     		ldr	r2, [r7, #8]
 1196 0092 1346     		mov	r3, r2
 1197 0094 5B00     		lsls	r3, r3, #1
 1198 0096 1344     		add	r3, r3, r2
 1199 0098 5B00     		lsls	r3, r3, #1
 1200 009a 0B44     		add	r3, r3, r1
 1201 009c 0333     		adds	r3, r3, #3
 1202 009e FA7B     		ldrb	r2, [r7, #15]
 1203 00a0 1A70     		strb	r2, [r3]
 340:..\src/IMU_functions.c **** 	low=0, high=0;
 1204              		.loc 1 340 0
 1205 00a2 0023     		movs	r3, #0
 1206 00a4 FB73     		strb	r3, [r7, #15]
 1207 00a6 0023     		movs	r3, #0
 1208 00a8 BB73     		strb	r3, [r7, #14]
 341:..\src/IMU_functions.c **** 
 342:..\src/IMU_functions.c **** 	//read Z
 343:..\src/IMU_functions.c ****     low=ReadControlRegisterIMU(MPU9250_GYRO_ZOUT_L);
 1209              		.loc 1 343 0
 1210 00aa 4820     		movs	r0, #72
 1211 00ac FFF7FEFF 		bl	ReadControlRegisterIMU
 1212 00b0 0346     		mov	r3, r0
 1213 00b2 FB73     		strb	r3, [r7, #15]
 344:..\src/IMU_functions.c ****     SPI_delay();
 1214              		.loc 1 344 0
 1215 00b4 FFF7FEFF 		bl	SPI_delay
 345:..\src/IMU_functions.c **** 	high=ReadControlRegisterIMU(MPU9250_GYRO_ZOUT_H);
 1216              		.loc 1 345 0
 1217 00b8 4720     		movs	r0, #71
 1218 00ba FFF7FEFF 		bl	ReadControlRegisterIMU
 1219 00be 0346     		mov	r3, r0
 1220 00c0 BB73     		strb	r3, [r7, #14]
 346:..\src/IMU_functions.c ****     SPI_delay();
 1221              		.loc 1 346 0
 1222 00c2 FFF7FEFF 		bl	SPI_delay
 347:..\src/IMU_functions.c ****     
 348:..\src/IMU_functions.c **** 	Gyro[row][4] = high; 
 1223              		.loc 1 348 0
 1224 00c6 0E49     		ldr	r1, .L42
 1225 00c8 BA68     		ldr	r2, [r7, #8]
 1226 00ca 1346     		mov	r3, r2
 1227 00cc 5B00     		lsls	r3, r3, #1
 1228 00ce 1344     		add	r3, r3, r2
 1229 00d0 5B00     		lsls	r3, r3, #1
 1230 00d2 0B44     		add	r3, r3, r1
 1231 00d4 0433     		adds	r3, r3, #4
 1232 00d6 BA7B     		ldrb	r2, [r7, #14]
ARM GAS  C:\Users\Mattia\AppData\Local\Temp\ccYnk7Oc.s 			page 29


 1233 00d8 1A70     		strb	r2, [r3]
 349:..\src/IMU_functions.c **** 	Gyro[row][5] = low;        
 1234              		.loc 1 349 0
 1235 00da 0949     		ldr	r1, .L42
 1236 00dc BA68     		ldr	r2, [r7, #8]
 1237 00de 1346     		mov	r3, r2
 1238 00e0 5B00     		lsls	r3, r3, #1
 1239 00e2 1344     		add	r3, r3, r2
 1240 00e4 5B00     		lsls	r3, r3, #1
 1241 00e6 0B44     		add	r3, r3, r1
 1242 00e8 0533     		adds	r3, r3, #5
 1243 00ea FA7B     		ldrb	r2, [r7, #15]
 1244 00ec 1A70     		strb	r2, [r3]
 350:..\src/IMU_functions.c **** 
 351:..\src/IMU_functions.c **** 	low=0, high=0;
 1245              		.loc 1 351 0
 1246 00ee 0023     		movs	r3, #0
 1247 00f0 FB73     		strb	r3, [r7, #15]
 1248 00f2 0023     		movs	r3, #0
 1249 00f4 BB73     		strb	r3, [r7, #14]
 352:..\src/IMU_functions.c **** }
 1250              		.loc 1 352 0
 1251 00f6 00BF     		nop
 1252 00f8 1037     		adds	r7, r7, #16
 1253              		.cfi_def_cfa_offset 8
 1254 00fa BD46     		mov	sp, r7
 1255              		.cfi_def_cfa_register 13
 1256              		@ sp needed
 1257 00fc 80BD     		pop	{r7, pc}
 1258              	.L43:
 1259 00fe 00BF     		.align	2
 1260              	.L42:
 1261 0100 00000000 		.word	Gyro
 1262              		.cfi_endproc
 1263              	.LFE71:
 1264              		.size	ReadGyro, .-ReadGyro
 1265              		.section	.text.ReadMag,"ax",%progbits
 1266              		.align	2
 1267              		.global	ReadMag
 1268              		.thumb
 1269              		.thumb_func
 1270              		.type	ReadMag, %function
 1271              	ReadMag:
 1272              	.LFB72:
 353:..\src/IMU_functions.c **** 
 354:..\src/IMU_functions.c **** /*******************************************************************************
 355:..\src/IMU_functions.c **** * Function Name: Read Compas' Data of IMU n
 356:..\src/IMU_functions.c **** *********************************************************************************/
 357:..\src/IMU_functions.c **** void ReadMag(int n){
 1273              		.loc 1 357 0
 1274              		.cfi_startproc
 1275              		@ args = 0, pretend = 0, frame = 16
 1276              		@ frame_needed = 1, uses_anonymous_args = 0
 1277 0000 80B5     		push	{r7, lr}
 1278              		.cfi_def_cfa_offset 8
 1279              		.cfi_offset 7, -8
 1280              		.cfi_offset 14, -4
ARM GAS  C:\Users\Mattia\AppData\Local\Temp\ccYnk7Oc.s 			page 30


 1281 0002 84B0     		sub	sp, sp, #16
 1282              		.cfi_def_cfa_offset 24
 1283 0004 00AF     		add	r7, sp, #0
 1284              		.cfi_def_cfa_register 7
 1285 0006 7860     		str	r0, [r7, #4]
 358:..\src/IMU_functions.c **** 	
 359:..\src/IMU_functions.c **** 	uint8 low, high;
 360:..\src/IMU_functions.c **** 	int row = n;	
 1286              		.loc 1 360 0
 1287 0008 7B68     		ldr	r3, [r7, #4]
 1288 000a FB60     		str	r3, [r7, #12]
 361:..\src/IMU_functions.c **** 	//read X
 362:..\src/IMU_functions.c **** 	low = ReadControlRegisterIMU(MPU9250_EXT_SENS_DATA_00);
 1289              		.loc 1 362 0
 1290 000c 4920     		movs	r0, #73
 1291 000e FFF7FEFF 		bl	ReadControlRegisterIMU
 1292 0012 0346     		mov	r3, r0
 1293 0014 FB72     		strb	r3, [r7, #11]
 363:..\src/IMU_functions.c ****     SPI_delay();
 1294              		.loc 1 363 0
 1295 0016 FFF7FEFF 		bl	SPI_delay
 364:..\src/IMU_functions.c **** 	high = ReadControlRegisterIMU(MPU9250_EXT_SENS_DATA_01);		
 1296              		.loc 1 364 0
 1297 001a 4A20     		movs	r0, #74
 1298 001c FFF7FEFF 		bl	ReadControlRegisterIMU
 1299 0020 0346     		mov	r3, r0
 1300 0022 BB72     		strb	r3, [r7, #10]
 365:..\src/IMU_functions.c ****     SPI_delay();
 1301              		.loc 1 365 0
 1302 0024 FFF7FEFF 		bl	SPI_delay
 366:..\src/IMU_functions.c ****     
 367:..\src/IMU_functions.c **** 	Mag[row][0] = high; 
 1303              		.loc 1 367 0
 1304 0028 3349     		ldr	r1, .L45
 1305 002a FA68     		ldr	r2, [r7, #12]
 1306 002c 1346     		mov	r3, r2
 1307 002e 5B00     		lsls	r3, r3, #1
 1308 0030 1344     		add	r3, r3, r2
 1309 0032 5B00     		lsls	r3, r3, #1
 1310 0034 0B44     		add	r3, r3, r1
 1311 0036 BA7A     		ldrb	r2, [r7, #10]
 1312 0038 1A70     		strb	r2, [r3]
 368:..\src/IMU_functions.c **** 	Mag[row][1] = low;
 1313              		.loc 1 368 0
 1314 003a 2F49     		ldr	r1, .L45
 1315 003c FA68     		ldr	r2, [r7, #12]
 1316 003e 1346     		mov	r3, r2
 1317 0040 5B00     		lsls	r3, r3, #1
 1318 0042 1344     		add	r3, r3, r2
 1319 0044 5B00     		lsls	r3, r3, #1
 1320 0046 0B44     		add	r3, r3, r1
 1321 0048 0133     		adds	r3, r3, #1
 1322 004a FA7A     		ldrb	r2, [r7, #11]
 1323 004c 1A70     		strb	r2, [r3]
 369:..\src/IMU_functions.c **** 	low=0, high=0;
 1324              		.loc 1 369 0
 1325 004e 0023     		movs	r3, #0
ARM GAS  C:\Users\Mattia\AppData\Local\Temp\ccYnk7Oc.s 			page 31


 1326 0050 FB72     		strb	r3, [r7, #11]
 1327 0052 0023     		movs	r3, #0
 1328 0054 BB72     		strb	r3, [r7, #10]
 370:..\src/IMU_functions.c ****     
 371:..\src/IMU_functions.c **** 	//read Y
 372:..\src/IMU_functions.c **** 	low = ReadControlRegisterIMU(MPU9250_EXT_SENS_DATA_02);
 1329              		.loc 1 372 0
 1330 0056 4B20     		movs	r0, #75
 1331 0058 FFF7FEFF 		bl	ReadControlRegisterIMU
 1332 005c 0346     		mov	r3, r0
 1333 005e FB72     		strb	r3, [r7, #11]
 373:..\src/IMU_functions.c ****     SPI_delay();
 1334              		.loc 1 373 0
 1335 0060 FFF7FEFF 		bl	SPI_delay
 374:..\src/IMU_functions.c **** 	high = ReadControlRegisterIMU(MPU9250_EXT_SENS_DATA_03);		
 1336              		.loc 1 374 0
 1337 0064 4C20     		movs	r0, #76
 1338 0066 FFF7FEFF 		bl	ReadControlRegisterIMU
 1339 006a 0346     		mov	r3, r0
 1340 006c BB72     		strb	r3, [r7, #10]
 375:..\src/IMU_functions.c ****     SPI_delay();
 1341              		.loc 1 375 0
 1342 006e FFF7FEFF 		bl	SPI_delay
 376:..\src/IMU_functions.c ****     
 377:..\src/IMU_functions.c **** 	Mag[row][2] = high; 
 1343              		.loc 1 377 0
 1344 0072 2149     		ldr	r1, .L45
 1345 0074 FA68     		ldr	r2, [r7, #12]
 1346 0076 1346     		mov	r3, r2
 1347 0078 5B00     		lsls	r3, r3, #1
 1348 007a 1344     		add	r3, r3, r2
 1349 007c 5B00     		lsls	r3, r3, #1
 1350 007e 0B44     		add	r3, r3, r1
 1351 0080 0233     		adds	r3, r3, #2
 1352 0082 BA7A     		ldrb	r2, [r7, #10]
 1353 0084 1A70     		strb	r2, [r3]
 378:..\src/IMU_functions.c **** 	Mag[row][3] = low;
 1354              		.loc 1 378 0
 1355 0086 1C49     		ldr	r1, .L45
 1356 0088 FA68     		ldr	r2, [r7, #12]
 1357 008a 1346     		mov	r3, r2
 1358 008c 5B00     		lsls	r3, r3, #1
 1359 008e 1344     		add	r3, r3, r2
 1360 0090 5B00     		lsls	r3, r3, #1
 1361 0092 0B44     		add	r3, r3, r1
 1362 0094 0333     		adds	r3, r3, #3
 1363 0096 FA7A     		ldrb	r2, [r7, #11]
 1364 0098 1A70     		strb	r2, [r3]
 379:..\src/IMU_functions.c **** 	low=0, high=0;
 1365              		.loc 1 379 0
 1366 009a 0023     		movs	r3, #0
 1367 009c FB72     		strb	r3, [r7, #11]
 1368 009e 0023     		movs	r3, #0
 1369 00a0 BB72     		strb	r3, [r7, #10]
 380:..\src/IMU_functions.c ****     
 381:..\src/IMU_functions.c **** 	//read Z
 382:..\src/IMU_functions.c **** 	low = ReadControlRegisterIMU(MPU9250_EXT_SENS_DATA_04);
ARM GAS  C:\Users\Mattia\AppData\Local\Temp\ccYnk7Oc.s 			page 32


 1370              		.loc 1 382 0
 1371 00a2 4D20     		movs	r0, #77
 1372 00a4 FFF7FEFF 		bl	ReadControlRegisterIMU
 1373 00a8 0346     		mov	r3, r0
 1374 00aa FB72     		strb	r3, [r7, #11]
 383:..\src/IMU_functions.c ****     SPI_delay();
 1375              		.loc 1 383 0
 1376 00ac FFF7FEFF 		bl	SPI_delay
 384:..\src/IMU_functions.c **** 	high = ReadControlRegisterIMU(MPU9250_EXT_SENS_DATA_05);
 1377              		.loc 1 384 0
 1378 00b0 4E20     		movs	r0, #78
 1379 00b2 FFF7FEFF 		bl	ReadControlRegisterIMU
 1380 00b6 0346     		mov	r3, r0
 1381 00b8 BB72     		strb	r3, [r7, #10]
 385:..\src/IMU_functions.c ****     SPI_delay();
 1382              		.loc 1 385 0
 1383 00ba FFF7FEFF 		bl	SPI_delay
 386:..\src/IMU_functions.c **** 		
 387:..\src/IMU_functions.c **** 	Mag[row][4] = high; 
 1384              		.loc 1 387 0
 1385 00be 0E49     		ldr	r1, .L45
 1386 00c0 FA68     		ldr	r2, [r7, #12]
 1387 00c2 1346     		mov	r3, r2
 1388 00c4 5B00     		lsls	r3, r3, #1
 1389 00c6 1344     		add	r3, r3, r2
 1390 00c8 5B00     		lsls	r3, r3, #1
 1391 00ca 0B44     		add	r3, r3, r1
 1392 00cc 0433     		adds	r3, r3, #4
 1393 00ce BA7A     		ldrb	r2, [r7, #10]
 1394 00d0 1A70     		strb	r2, [r3]
 388:..\src/IMU_functions.c **** 	Mag[row][5] = low;
 1395              		.loc 1 388 0
 1396 00d2 0949     		ldr	r1, .L45
 1397 00d4 FA68     		ldr	r2, [r7, #12]
 1398 00d6 1346     		mov	r3, r2
 1399 00d8 5B00     		lsls	r3, r3, #1
 1400 00da 1344     		add	r3, r3, r2
 1401 00dc 5B00     		lsls	r3, r3, #1
 1402 00de 0B44     		add	r3, r3, r1
 1403 00e0 0533     		adds	r3, r3, #5
 1404 00e2 FA7A     		ldrb	r2, [r7, #11]
 1405 00e4 1A70     		strb	r2, [r3]
 389:..\src/IMU_functions.c **** 	low=0, high=0;
 1406              		.loc 1 389 0
 1407 00e6 0023     		movs	r3, #0
 1408 00e8 FB72     		strb	r3, [r7, #11]
 1409 00ea 0023     		movs	r3, #0
 1410 00ec BB72     		strb	r3, [r7, #10]
 390:..\src/IMU_functions.c **** }
 1411              		.loc 1 390 0
 1412 00ee 00BF     		nop
 1413 00f0 1037     		adds	r7, r7, #16
 1414              		.cfi_def_cfa_offset 8
 1415 00f2 BD46     		mov	sp, r7
 1416              		.cfi_def_cfa_register 13
 1417              		@ sp needed
 1418 00f4 80BD     		pop	{r7, pc}
ARM GAS  C:\Users\Mattia\AppData\Local\Temp\ccYnk7Oc.s 			page 33


 1419              	.L46:
 1420 00f6 00BF     		.align	2
 1421              	.L45:
 1422 00f8 00000000 		.word	Mag
 1423              		.cfi_endproc
 1424              	.LFE72:
 1425              		.size	ReadMag, .-ReadMag
 1426              		.section	.text.ReadMagCal,"ax",%progbits
 1427              		.align	2
 1428              		.global	ReadMagCal
 1429              		.thumb
 1430              		.thumb_func
 1431              		.type	ReadMagCal, %function
 1432              	ReadMagCal:
 1433              	.LFB73:
 391:..\src/IMU_functions.c **** 
 392:..\src/IMU_functions.c **** /********************************************************************************
 393:..\src/IMU_functions.c **** * Function Name: ReadMagCal
 394:..\src/IMU_functions.c **** *********************************************************************************/
 395:..\src/IMU_functions.c **** void ReadMagCal(int n){
 1434              		.loc 1 395 0
 1435              		.cfi_startproc
 1436              		@ args = 0, pretend = 0, frame = 16
 1437              		@ frame_needed = 1, uses_anonymous_args = 0
 1438 0000 80B5     		push	{r7, lr}
 1439              		.cfi_def_cfa_offset 8
 1440              		.cfi_offset 7, -8
 1441              		.cfi_offset 14, -4
 1442 0002 84B0     		sub	sp, sp, #16
 1443              		.cfi_def_cfa_offset 24
 1444 0004 00AF     		add	r7, sp, #0
 1445              		.cfi_def_cfa_register 7
 1446 0006 7860     		str	r0, [r7, #4]
 396:..\src/IMU_functions.c **** 	
 397:..\src/IMU_functions.c ****     uint8 read = 0; 
 1447              		.loc 1 397 0
 1448 0008 0023     		movs	r3, #0
 1449 000a FB73     		strb	r3, [r7, #15]
 398:..\src/IMU_functions.c **** 	int row = n;	
 1450              		.loc 1 398 0
 1451 000c 7B68     		ldr	r3, [r7, #4]
 1452 000e BB60     		str	r3, [r7, #8]
 399:..\src/IMU_functions.c **** 	//read X
 400:..\src/IMU_functions.c **** 	read = ReadControlRegisterIMU(MPU9250_EXT_SENS_DATA_00);
 1453              		.loc 1 400 0
 1454 0010 4920     		movs	r0, #73
 1455 0012 FFF7FEFF 		bl	ReadControlRegisterIMU
 1456 0016 0346     		mov	r3, r0
 1457 0018 FB73     		strb	r3, [r7, #15]
 401:..\src/IMU_functions.c ****     MagCal[row][0] = read; 
 1458              		.loc 1 401 0
 1459 001a 1749     		ldr	r1, .L48
 1460 001c BA68     		ldr	r2, [r7, #8]
 1461 001e 1346     		mov	r3, r2
 1462 0020 5B00     		lsls	r3, r3, #1
 1463 0022 1344     		add	r3, r3, r2
 1464 0024 0B44     		add	r3, r3, r1
ARM GAS  C:\Users\Mattia\AppData\Local\Temp\ccYnk7Oc.s 			page 34


 1465 0026 FA7B     		ldrb	r2, [r7, #15]
 1466 0028 1A70     		strb	r2, [r3]
 402:..\src/IMU_functions.c ****     read = 0;
 1467              		.loc 1 402 0
 1468 002a 0023     		movs	r3, #0
 1469 002c FB73     		strb	r3, [r7, #15]
 403:..\src/IMU_functions.c ****     
 404:..\src/IMU_functions.c **** 	//read Y
 405:..\src/IMU_functions.c **** 	read = ReadControlRegisterIMU(MPU9250_EXT_SENS_DATA_01);			
 1470              		.loc 1 405 0
 1471 002e 4A20     		movs	r0, #74
 1472 0030 FFF7FEFF 		bl	ReadControlRegisterIMU
 1473 0034 0346     		mov	r3, r0
 1474 0036 FB73     		strb	r3, [r7, #15]
 406:..\src/IMU_functions.c **** 	MagCal[row][1] = read; 
 1475              		.loc 1 406 0
 1476 0038 0F49     		ldr	r1, .L48
 1477 003a BA68     		ldr	r2, [r7, #8]
 1478 003c 1346     		mov	r3, r2
 1479 003e 5B00     		lsls	r3, r3, #1
 1480 0040 1344     		add	r3, r3, r2
 1481 0042 0B44     		add	r3, r3, r1
 1482 0044 0133     		adds	r3, r3, #1
 1483 0046 FA7B     		ldrb	r2, [r7, #15]
 1484 0048 1A70     		strb	r2, [r3]
 407:..\src/IMU_functions.c **** 	read = 0;
 1485              		.loc 1 407 0
 1486 004a 0023     		movs	r3, #0
 1487 004c FB73     		strb	r3, [r7, #15]
 408:..\src/IMU_functions.c ****     
 409:..\src/IMU_functions.c **** 	//read Z
 410:..\src/IMU_functions.c **** 	read = ReadControlRegisterIMU(MPU9250_EXT_SENS_DATA_02);			
 1488              		.loc 1 410 0
 1489 004e 4B20     		movs	r0, #75
 1490 0050 FFF7FEFF 		bl	ReadControlRegisterIMU
 1491 0054 0346     		mov	r3, r0
 1492 0056 FB73     		strb	r3, [r7, #15]
 411:..\src/IMU_functions.c **** 	MagCal[row][2] = read; 
 1493              		.loc 1 411 0
 1494 0058 0749     		ldr	r1, .L48
 1495 005a BA68     		ldr	r2, [r7, #8]
 1496 005c 1346     		mov	r3, r2
 1497 005e 5B00     		lsls	r3, r3, #1
 1498 0060 1344     		add	r3, r3, r2
 1499 0062 0B44     		add	r3, r3, r1
 1500 0064 0233     		adds	r3, r3, #2
 1501 0066 FA7B     		ldrb	r2, [r7, #15]
 1502 0068 1A70     		strb	r2, [r3]
 412:..\src/IMU_functions.c **** 	read = 0;
 1503              		.loc 1 412 0
 1504 006a 0023     		movs	r3, #0
 1505 006c FB73     		strb	r3, [r7, #15]
 413:..\src/IMU_functions.c ****     
 414:..\src/IMU_functions.c **** }
 1506              		.loc 1 414 0
 1507 006e 00BF     		nop
 1508 0070 1037     		adds	r7, r7, #16
ARM GAS  C:\Users\Mattia\AppData\Local\Temp\ccYnk7Oc.s 			page 35


 1509              		.cfi_def_cfa_offset 8
 1510 0072 BD46     		mov	sp, r7
 1511              		.cfi_def_cfa_register 13
 1512              		@ sp needed
 1513 0074 80BD     		pop	{r7, pc}
 1514              	.L49:
 1515 0076 00BF     		.align	2
 1516              	.L48:
 1517 0078 00000000 		.word	MagCal
 1518              		.cfi_endproc
 1519              	.LFE73:
 1520              		.size	ReadMagCal, .-ReadMagCal
 1521              		.global	__aeabi_i2d
 1522              		.global	__aeabi_dmul
 1523              		.global	__aeabi_d2f
 1524              		.global	__aeabi_f2d
 1525              		.global	__aeabi_dcmplt
 1526              		.global	__aeabi_fmul
 1527              		.global	__aeabi_fsub
 1528              		.global	__aeabi_fadd
 1529              		.global	__aeabi_dsub
 1530              		.global	__aeabi_dadd
 1531              		.global	__aeabi_dcmpeq
 1532              		.section	.text.ReadQuat,"ax",%progbits
 1533              		.align	2
 1534              		.global	ReadQuat
 1535              		.thumb
 1536              		.thumb_func
 1537              		.type	ReadQuat, %function
 1538              	ReadQuat:
 1539              	.LFB74:
 415:..\src/IMU_functions.c ****     
 416:..\src/IMU_functions.c **** /*******************************************************************************
 417:..\src/IMU_functions.c **** * Function Name: Read Quaternion of IMU n
 418:..\src/IMU_functions.c **** *********************************************************************************/
 419:..\src/IMU_functions.c **** void ReadQuat(int n)
 420:..\src/IMU_functions.c **** {
 1540              		.loc 1 420 0
 1541              		.cfi_startproc
 1542              		@ args = 0, pretend = 0, frame = 88
 1543              		@ frame_needed = 1, uses_anonymous_args = 0
 1544 0000 2DE9F04F 		push	{r4, r5, r6, r7, r8, r9, r10, fp, lr}
 1545              		.cfi_def_cfa_offset 36
 1546              		.cfi_offset 4, -36
 1547              		.cfi_offset 5, -32
 1548              		.cfi_offset 6, -28
 1549              		.cfi_offset 7, -24
 1550              		.cfi_offset 8, -20
 1551              		.cfi_offset 9, -16
 1552              		.cfi_offset 10, -12
 1553              		.cfi_offset 11, -8
 1554              		.cfi_offset 14, -4
 1555 0004 97B0     		sub	sp, sp, #92
 1556              		.cfi_def_cfa_offset 128
 1557 0006 00AF     		add	r7, sp, #0
 1558              		.cfi_def_cfa_register 7
 1559 0008 7860     		str	r0, [r7, #4]
ARM GAS  C:\Users\Mattia\AppData\Local\Temp\ccYnk7Oc.s 			page 36


 421:..\src/IMU_functions.c ****     int16 var_h;
 422:..\src/IMU_functions.c ****     float qd0,qd1,qd2,qd3;        
 423:..\src/IMU_functions.c ****     float aP[3]; //, fa[3];
 424:..\src/IMU_functions.c ****     float Napla[4],g[4],qL[4];
 425:..\src/IMU_functions.c **** 
 426:..\src/IMU_functions.c ****     if (!c_mem.imu.IMU_conf[n][0]) ReadAcc(n);
 1560              		.loc 1 426 0
 1561 000a C349     		ldr	r1, .L65+24
 1562 000c 7A68     		ldr	r2, [r7, #4]
 1563 000e 1346     		mov	r3, r2
 1564 0010 9B00     		lsls	r3, r3, #2
 1565 0012 1344     		add	r3, r3, r2
 1566 0014 0B44     		add	r3, r3, r1
 1567 0016 03F20223 		addw	r3, r3, #514
 1568 001a 1B78     		ldrb	r3, [r3]	@ zero_extendqisi2
 1569 001c 002B     		cmp	r3, #0
 1570 001e 02D1     		bne	.L51
 1571              		.loc 1 426 0 is_stmt 0 discriminator 1
 1572 0020 7868     		ldr	r0, [r7, #4]
 1573 0022 FFF7FEFF 		bl	ReadAcc
 1574              	.L51:
 427:..\src/IMU_functions.c ****     if (!c_mem.imu.IMU_conf[n][1]) ReadGyro(n);
 1575              		.loc 1 427 0 is_stmt 1
 1576 0026 BC49     		ldr	r1, .L65+24
 1577 0028 7A68     		ldr	r2, [r7, #4]
 1578 002a 1346     		mov	r3, r2
 1579 002c 9B00     		lsls	r3, r3, #2
 1580 002e 1344     		add	r3, r3, r2
 1581 0030 0B44     		add	r3, r3, r1
 1582 0032 03F20323 		addw	r3, r3, #515
 1583 0036 1B78     		ldrb	r3, [r3]	@ zero_extendqisi2
 1584 0038 002B     		cmp	r3, #0
 1585 003a 02D1     		bne	.L52
 1586              		.loc 1 427 0 is_stmt 0 discriminator 1
 1587 003c 7868     		ldr	r0, [r7, #4]
 1588 003e FFF7FEFF 		bl	ReadGyro
 1589              	.L52:
 428:..\src/IMU_functions.c ****     
 429:..\src/IMU_functions.c ****     // assume cycle time is the same of last function_scheduler execution,
 430:..\src/IMU_functions.c ****     // without adding another counter
 431:..\src/IMU_functions.c ****     
 432:..\src/IMU_functions.c ****     // how N sees P; N is 'Earth' equivalent, P is for sensor
 433:..\src/IMU_functions.c ****     // e.g. N = imu1, P = imu0, how imu1 sees imu0
 434:..\src/IMU_functions.c **** 
 435:..\src/IMU_functions.c ****     var_h = Accel[n][0];
 1590              		.loc 1 435 0 is_stmt 1
 1591 0042 B649     		ldr	r1, .L65+28
 1592 0044 7A68     		ldr	r2, [r7, #4]
 1593 0046 1346     		mov	r3, r2
 1594 0048 5B00     		lsls	r3, r3, #1
 1595 004a 1344     		add	r3, r3, r2
 1596 004c 5B00     		lsls	r3, r3, #1
 1597 004e 0B44     		add	r3, r3, r1
 1598 0050 1B78     		ldrb	r3, [r3]	@ zero_extendqisi2
 1599 0052 A7F85630 		strh	r3, [r7, #86]	@ movhi
 436:..\src/IMU_functions.c ****     aP[0] = (int16_t)(var_h << 8 | Accel[n][1])*TICK2ACC; 
 1600              		.loc 1 436 0
ARM GAS  C:\Users\Mattia\AppData\Local\Temp\ccYnk7Oc.s 			page 37


 1601 0056 B7F95630 		ldrsh	r3, [r7, #86]
 1602 005a 1B02     		lsls	r3, r3, #8
 1603 005c 19B2     		sxth	r1, r3
 1604 005e AF48     		ldr	r0, .L65+28
 1605 0060 7A68     		ldr	r2, [r7, #4]
 1606 0062 1346     		mov	r3, r2
 1607 0064 5B00     		lsls	r3, r3, #1
 1608 0066 1344     		add	r3, r3, r2
 1609 0068 5B00     		lsls	r3, r3, #1
 1610 006a 0344     		add	r3, r3, r0
 1611 006c 0133     		adds	r3, r3, #1
 1612 006e 1B78     		ldrb	r3, [r3]	@ zero_extendqisi2
 1613 0070 1BB2     		sxth	r3, r3
 1614 0072 0B43     		orrs	r3, r3, r1
 1615 0074 1BB2     		sxth	r3, r3
 1616 0076 1846     		mov	r0, r3
 1617 0078 FFF7FEFF 		bl	__aeabi_i2d
 1618 007c A0A3     		adr	r3, .L65
 1619 007e D3E90023 		ldrd	r2, [r3]
 1620 0082 FFF7FEFF 		bl	__aeabi_dmul
 1621 0086 0346     		mov	r3, r0
 1622 0088 0C46     		mov	r4, r1
 1623 008a 1846     		mov	r0, r3
 1624 008c 2146     		mov	r1, r4
 1625 008e FFF7FEFF 		bl	__aeabi_d2f
 1626 0092 0346     		mov	r3, r0
 1627 0094 BB63     		str	r3, [r7, #56]	@ float
 437:..\src/IMU_functions.c ****     var_h = Accel[n][2];
 1628              		.loc 1 437 0
 1629 0096 A149     		ldr	r1, .L65+28
 1630 0098 7A68     		ldr	r2, [r7, #4]
 1631 009a 1346     		mov	r3, r2
 1632 009c 5B00     		lsls	r3, r3, #1
 1633 009e 1344     		add	r3, r3, r2
 1634 00a0 5B00     		lsls	r3, r3, #1
 1635 00a2 0B44     		add	r3, r3, r1
 1636 00a4 0233     		adds	r3, r3, #2
 1637 00a6 1B78     		ldrb	r3, [r3]	@ zero_extendqisi2
 1638 00a8 A7F85630 		strh	r3, [r7, #86]	@ movhi
 438:..\src/IMU_functions.c ****     aP[1] = (int16_t)(var_h << 8 | Accel[n][3])*TICK2ACC; 
 1639              		.loc 1 438 0
 1640 00ac B7F95630 		ldrsh	r3, [r7, #86]
 1641 00b0 1B02     		lsls	r3, r3, #8
 1642 00b2 19B2     		sxth	r1, r3
 1643 00b4 9948     		ldr	r0, .L65+28
 1644 00b6 7A68     		ldr	r2, [r7, #4]
 1645 00b8 1346     		mov	r3, r2
 1646 00ba 5B00     		lsls	r3, r3, #1
 1647 00bc 1344     		add	r3, r3, r2
 1648 00be 5B00     		lsls	r3, r3, #1
 1649 00c0 0344     		add	r3, r3, r0
 1650 00c2 0333     		adds	r3, r3, #3
 1651 00c4 1B78     		ldrb	r3, [r3]	@ zero_extendqisi2
 1652 00c6 1BB2     		sxth	r3, r3
 1653 00c8 0B43     		orrs	r3, r3, r1
 1654 00ca 1BB2     		sxth	r3, r3
 1655 00cc 1846     		mov	r0, r3
ARM GAS  C:\Users\Mattia\AppData\Local\Temp\ccYnk7Oc.s 			page 38


 1656 00ce FFF7FEFF 		bl	__aeabi_i2d
 1657 00d2 8BA3     		adr	r3, .L65
 1658 00d4 D3E90023 		ldrd	r2, [r3]
 1659 00d8 FFF7FEFF 		bl	__aeabi_dmul
 1660 00dc 0346     		mov	r3, r0
 1661 00de 0C46     		mov	r4, r1
 1662 00e0 1846     		mov	r0, r3
 1663 00e2 2146     		mov	r1, r4
 1664 00e4 FFF7FEFF 		bl	__aeabi_d2f
 1665 00e8 0346     		mov	r3, r0
 1666 00ea FB63     		str	r3, [r7, #60]	@ float
 439:..\src/IMU_functions.c ****     var_h = Accel[n][4];
 1667              		.loc 1 439 0
 1668 00ec 8B49     		ldr	r1, .L65+28
 1669 00ee 7A68     		ldr	r2, [r7, #4]
 1670 00f0 1346     		mov	r3, r2
 1671 00f2 5B00     		lsls	r3, r3, #1
 1672 00f4 1344     		add	r3, r3, r2
 1673 00f6 5B00     		lsls	r3, r3, #1
 1674 00f8 0B44     		add	r3, r3, r1
 1675 00fa 0433     		adds	r3, r3, #4
 1676 00fc 1B78     		ldrb	r3, [r3]	@ zero_extendqisi2
 1677 00fe A7F85630 		strh	r3, [r7, #86]	@ movhi
 440:..\src/IMU_functions.c ****     aP[2] = (int16_t)(var_h << 8 | Accel[n][5])*TICK2ACC;
 1678              		.loc 1 440 0
 1679 0102 B7F95630 		ldrsh	r3, [r7, #86]
 1680 0106 1B02     		lsls	r3, r3, #8
 1681 0108 19B2     		sxth	r1, r3
 1682 010a 8448     		ldr	r0, .L65+28
 1683 010c 7A68     		ldr	r2, [r7, #4]
 1684 010e 1346     		mov	r3, r2
 1685 0110 5B00     		lsls	r3, r3, #1
 1686 0112 1344     		add	r3, r3, r2
 1687 0114 5B00     		lsls	r3, r3, #1
 1688 0116 0344     		add	r3, r3, r0
 1689 0118 0533     		adds	r3, r3, #5
 1690 011a 1B78     		ldrb	r3, [r3]	@ zero_extendqisi2
 1691 011c 1BB2     		sxth	r3, r3
 1692 011e 0B43     		orrs	r3, r3, r1
 1693 0120 1BB2     		sxth	r3, r3
 1694 0122 1846     		mov	r0, r3
 1695 0124 FFF7FEFF 		bl	__aeabi_i2d
 1696 0128 75A3     		adr	r3, .L65
 1697 012a D3E90023 		ldrd	r2, [r3]
 1698 012e FFF7FEFF 		bl	__aeabi_dmul
 1699 0132 0346     		mov	r3, r0
 1700 0134 0C46     		mov	r4, r1
 1701 0136 1846     		mov	r0, r3
 1702 0138 2146     		mov	r1, r4
 1703 013a FFF7FEFF 		bl	__aeabi_d2f
 1704 013e 0346     		mov	r3, r0
 1705 0140 3B64     		str	r3, [r7, #64]	@ float
 441:..\src/IMU_functions.c ****     
 442:..\src/IMU_functions.c ****     g[0] = 0;
 1706              		.loc 1 442 0
 1707 0142 4FF00003 		mov	r3, #0
 1708 0146 BB61     		str	r3, [r7, #24]	@ float
ARM GAS  C:\Users\Mattia\AppData\Local\Temp\ccYnk7Oc.s 			page 39


 443:..\src/IMU_functions.c ****     var_h = Gyro[n][0];
 1709              		.loc 1 443 0
 1710 0148 7549     		ldr	r1, .L65+32
 1711 014a 7A68     		ldr	r2, [r7, #4]
 1712 014c 1346     		mov	r3, r2
 1713 014e 5B00     		lsls	r3, r3, #1
 1714 0150 1344     		add	r3, r3, r2
 1715 0152 5B00     		lsls	r3, r3, #1
 1716 0154 0B44     		add	r3, r3, r1
 1717 0156 1B78     		ldrb	r3, [r3]	@ zero_extendqisi2
 1718 0158 A7F85630 		strh	r3, [r7, #86]	@ movhi
 444:..\src/IMU_functions.c ****     g[1] = ((int16)(var_h << 8 | Gyro[n][1]))*TICK2GYRO;
 1719              		.loc 1 444 0
 1720 015c B7F95630 		ldrsh	r3, [r7, #86]
 1721 0160 1B02     		lsls	r3, r3, #8
 1722 0162 19B2     		sxth	r1, r3
 1723 0164 6E48     		ldr	r0, .L65+32
 1724 0166 7A68     		ldr	r2, [r7, #4]
 1725 0168 1346     		mov	r3, r2
 1726 016a 5B00     		lsls	r3, r3, #1
 1727 016c 1344     		add	r3, r3, r2
 1728 016e 5B00     		lsls	r3, r3, #1
 1729 0170 0344     		add	r3, r3, r0
 1730 0172 0133     		adds	r3, r3, #1
 1731 0174 1B78     		ldrb	r3, [r3]	@ zero_extendqisi2
 1732 0176 1BB2     		sxth	r3, r3
 1733 0178 0B43     		orrs	r3, r3, r1
 1734 017a 1BB2     		sxth	r3, r3
 1735 017c 1846     		mov	r0, r3
 1736 017e FFF7FEFF 		bl	__aeabi_i2d
 1737 0182 61A3     		adr	r3, .L65+8
 1738 0184 D3E90023 		ldrd	r2, [r3]
 1739 0188 FFF7FEFF 		bl	__aeabi_dmul
 1740 018c 0346     		mov	r3, r0
 1741 018e 0C46     		mov	r4, r1
 1742 0190 1846     		mov	r0, r3
 1743 0192 2146     		mov	r1, r4
 1744 0194 FFF7FEFF 		bl	__aeabi_d2f
 1745 0198 0346     		mov	r3, r0
 1746 019a FB61     		str	r3, [r7, #28]	@ float
 445:..\src/IMU_functions.c ****     if ( fabs(g[1]) < GYRO_THR ) g[1] = 0;
 1747              		.loc 1 445 0
 1748 019c FB69     		ldr	r3, [r7, #28]	@ float
 1749 019e 23F00043 		bic	r3, r3, #-2147483648
 1750 01a2 1846     		mov	r0, r3
 1751 01a4 FFF7FEFF 		bl	__aeabi_f2d
 1752 01a8 59A3     		adr	r3, .L65+16
 1753 01aa D3E90023 		ldrd	r2, [r3]
 1754 01ae FFF7FEFF 		bl	__aeabi_dcmplt
 1755 01b2 0346     		mov	r3, r0
 1756 01b4 002B     		cmp	r3, #0
 1757 01b6 02D0     		beq	.L53
 1758              		.loc 1 445 0 is_stmt 0 discriminator 1
 1759 01b8 4FF00003 		mov	r3, #0
 1760 01bc FB61     		str	r3, [r7, #28]	@ float
 1761              	.L53:
 446:..\src/IMU_functions.c ****     var_h = Gyro[n][2];
ARM GAS  C:\Users\Mattia\AppData\Local\Temp\ccYnk7Oc.s 			page 40


 1762              		.loc 1 446 0 is_stmt 1
 1763 01be 5849     		ldr	r1, .L65+32
 1764 01c0 7A68     		ldr	r2, [r7, #4]
 1765 01c2 1346     		mov	r3, r2
 1766 01c4 5B00     		lsls	r3, r3, #1
 1767 01c6 1344     		add	r3, r3, r2
 1768 01c8 5B00     		lsls	r3, r3, #1
 1769 01ca 0B44     		add	r3, r3, r1
 1770 01cc 0233     		adds	r3, r3, #2
 1771 01ce 1B78     		ldrb	r3, [r3]	@ zero_extendqisi2
 1772 01d0 A7F85630 		strh	r3, [r7, #86]	@ movhi
 447:..\src/IMU_functions.c ****     g[2] = ((int16)(var_h << 8 | Gyro[n][3]))*TICK2GYRO; 
 1773              		.loc 1 447 0
 1774 01d4 B7F95630 		ldrsh	r3, [r7, #86]
 1775 01d8 1B02     		lsls	r3, r3, #8
 1776 01da 19B2     		sxth	r1, r3
 1777 01dc 5048     		ldr	r0, .L65+32
 1778 01de 7A68     		ldr	r2, [r7, #4]
 1779 01e0 1346     		mov	r3, r2
 1780 01e2 5B00     		lsls	r3, r3, #1
 1781 01e4 1344     		add	r3, r3, r2
 1782 01e6 5B00     		lsls	r3, r3, #1
 1783 01e8 0344     		add	r3, r3, r0
 1784 01ea 0333     		adds	r3, r3, #3
 1785 01ec 1B78     		ldrb	r3, [r3]	@ zero_extendqisi2
 1786 01ee 1BB2     		sxth	r3, r3
 1787 01f0 0B43     		orrs	r3, r3, r1
 1788 01f2 1BB2     		sxth	r3, r3
 1789 01f4 1846     		mov	r0, r3
 1790 01f6 FFF7FEFF 		bl	__aeabi_i2d
 1791 01fa 43A3     		adr	r3, .L65+8
 1792 01fc D3E90023 		ldrd	r2, [r3]
 1793 0200 FFF7FEFF 		bl	__aeabi_dmul
 1794 0204 0346     		mov	r3, r0
 1795 0206 0C46     		mov	r4, r1
 1796 0208 1846     		mov	r0, r3
 1797 020a 2146     		mov	r1, r4
 1798 020c FFF7FEFF 		bl	__aeabi_d2f
 1799 0210 0346     		mov	r3, r0
 1800 0212 3B62     		str	r3, [r7, #32]	@ float
 448:..\src/IMU_functions.c ****     if ( fabs(g[2]) < GYRO_THR ) g[2] = 0;
 1801              		.loc 1 448 0
 1802 0214 3B6A     		ldr	r3, [r7, #32]	@ float
 1803 0216 23F00043 		bic	r3, r3, #-2147483648
 1804 021a 1846     		mov	r0, r3
 1805 021c FFF7FEFF 		bl	__aeabi_f2d
 1806 0220 3BA3     		adr	r3, .L65+16
 1807 0222 D3E90023 		ldrd	r2, [r3]
 1808 0226 FFF7FEFF 		bl	__aeabi_dcmplt
 1809 022a 0346     		mov	r3, r0
 1810 022c 002B     		cmp	r3, #0
 1811 022e 02D0     		beq	.L55
 1812              		.loc 1 448 0 is_stmt 0 discriminator 1
 1813 0230 4FF00003 		mov	r3, #0
 1814 0234 3B62     		str	r3, [r7, #32]	@ float
 1815              	.L55:
 449:..\src/IMU_functions.c ****     var_h = Gyro[n][4];
ARM GAS  C:\Users\Mattia\AppData\Local\Temp\ccYnk7Oc.s 			page 41


 1816              		.loc 1 449 0 is_stmt 1
 1817 0236 3A49     		ldr	r1, .L65+32
 1818 0238 7A68     		ldr	r2, [r7, #4]
 1819 023a 1346     		mov	r3, r2
 1820 023c 5B00     		lsls	r3, r3, #1
 1821 023e 1344     		add	r3, r3, r2
 1822 0240 5B00     		lsls	r3, r3, #1
 1823 0242 0B44     		add	r3, r3, r1
 1824 0244 0433     		adds	r3, r3, #4
 1825 0246 1B78     		ldrb	r3, [r3]	@ zero_extendqisi2
 1826 0248 A7F85630 		strh	r3, [r7, #86]	@ movhi
 450:..\src/IMU_functions.c ****     g[3] = ((int16)(var_h << 8 | Gyro[n][5]))*TICK2GYRO;
 1827              		.loc 1 450 0
 1828 024c B7F95630 		ldrsh	r3, [r7, #86]
 1829 0250 1B02     		lsls	r3, r3, #8
 1830 0252 19B2     		sxth	r1, r3
 1831 0254 3248     		ldr	r0, .L65+32
 1832 0256 7A68     		ldr	r2, [r7, #4]
 1833 0258 1346     		mov	r3, r2
 1834 025a 5B00     		lsls	r3, r3, #1
 1835 025c 1344     		add	r3, r3, r2
 1836 025e 5B00     		lsls	r3, r3, #1
 1837 0260 0344     		add	r3, r3, r0
 1838 0262 0533     		adds	r3, r3, #5
 1839 0264 1B78     		ldrb	r3, [r3]	@ zero_extendqisi2
 1840 0266 1BB2     		sxth	r3, r3
 1841 0268 0B43     		orrs	r3, r3, r1
 1842 026a 1BB2     		sxth	r3, r3
 1843 026c 1846     		mov	r0, r3
 1844 026e FFF7FEFF 		bl	__aeabi_i2d
 1845 0272 25A3     		adr	r3, .L65+8
 1846 0274 D3E90023 		ldrd	r2, [r3]
 1847 0278 FFF7FEFF 		bl	__aeabi_dmul
 1848 027c 0346     		mov	r3, r0
 1849 027e 0C46     		mov	r4, r1
 1850 0280 1846     		mov	r0, r3
 1851 0282 2146     		mov	r1, r4
 1852 0284 FFF7FEFF 		bl	__aeabi_d2f
 1853 0288 0346     		mov	r3, r0
 1854 028a 7B62     		str	r3, [r7, #36]	@ float
 451:..\src/IMU_functions.c ****     if ( fabs(g[3]) < GYRO_THR ) g[3] = 0;
 1855              		.loc 1 451 0
 1856 028c 7B6A     		ldr	r3, [r7, #36]	@ float
 1857 028e 23F00043 		bic	r3, r3, #-2147483648
 1858 0292 1846     		mov	r0, r3
 1859 0294 FFF7FEFF 		bl	__aeabi_f2d
 1860 0298 1DA3     		adr	r3, .L65+16
 1861 029a D3E90023 		ldrd	r2, [r3]
 1862 029e FFF7FEFF 		bl	__aeabi_dcmplt
 1863 02a2 0346     		mov	r3, r0
 1864 02a4 002B     		cmp	r3, #0
 1865 02a6 02D0     		beq	.L57
 1866              		.loc 1 451 0 is_stmt 0 discriminator 1
 1867 02a8 4FF00003 		mov	r3, #0
 1868 02ac 7B62     		str	r3, [r7, #36]	@ float
 1869              	.L57:
 452:..\src/IMU_functions.c ****     
ARM GAS  C:\Users\Mattia\AppData\Local\Temp\ccYnk7Oc.s 			page 42


 453:..\src/IMU_functions.c ****     // Normalize to 1
 454:..\src/IMU_functions.c ****     v3_normalize(aP);
 1870              		.loc 1 454 0 is_stmt 1
 1871 02ae 07F13803 		add	r3, r7, #56
 1872 02b2 1846     		mov	r0, r3
 1873 02b4 FFF7FEFF 		bl	v3_normalize
 455:..\src/IMU_functions.c ****     
 456:..\src/IMU_functions.c ****     // Current quaternion assignment
 457:..\src/IMU_functions.c ****     qL[0] = Quat[n][0];
 1874              		.loc 1 457 0
 1875 02b8 1A4A     		ldr	r2, .L65+36
 1876 02ba 7B68     		ldr	r3, [r7, #4]
 1877 02bc 1B01     		lsls	r3, r3, #4
 1878 02be 1344     		add	r3, r3, r2
 1879 02c0 1B68     		ldr	r3, [r3]	@ float
 1880 02c2 BB60     		str	r3, [r7, #8]	@ float
 458:..\src/IMU_functions.c ****     qL[1] = Quat[n][1];
 1881              		.loc 1 458 0
 1882 02c4 174A     		ldr	r2, .L65+36
 1883 02c6 7B68     		ldr	r3, [r7, #4]
 1884 02c8 1B01     		lsls	r3, r3, #4
 1885 02ca 1344     		add	r3, r3, r2
 1886 02cc 0433     		adds	r3, r3, #4
 1887 02ce 1B68     		ldr	r3, [r3]	@ float
 1888 02d0 FB60     		str	r3, [r7, #12]	@ float
 459:..\src/IMU_functions.c ****     qL[2] = Quat[n][2];
 1889              		.loc 1 459 0
 1890 02d2 144A     		ldr	r2, .L65+36
 1891 02d4 7B68     		ldr	r3, [r7, #4]
 1892 02d6 1B01     		lsls	r3, r3, #4
 1893 02d8 1344     		add	r3, r3, r2
 1894 02da 0833     		adds	r3, r3, #8
 1895 02dc 1B68     		ldr	r3, [r3]	@ float
 1896 02de 3B61     		str	r3, [r7, #16]	@ float
 460:..\src/IMU_functions.c ****     qL[3] = Quat[n][3];   
 1897              		.loc 1 460 0
 1898 02e0 104A     		ldr	r2, .L65+36
 1899 02e2 7B68     		ldr	r3, [r7, #4]
 1900 02e4 1B01     		lsls	r3, r3, #4
 1901 02e6 1344     		add	r3, r3, r2
 1902 02e8 0C33     		adds	r3, r3, #12
 1903 02ea 1B68     		ldr	r3, [r3]	@ float
 1904 02ec 7B61     		str	r3, [r7, #20]	@ float
 461:..\src/IMU_functions.c ****     
 462:..\src/IMU_functions.c ****     // Napla computation
 463:..\src/IMU_functions.c ****     Napla[0] = (-qL[2]*((2*(qL[1]*qL[3]-qL[0]*qL[2]) - aP[0])) + qL[1]*((2*(qL[0]*qL[1] + qL[2]*qL[
 1905              		.loc 1 463 0
 1906 02ee 3B69     		ldr	r3, [r7, #16]	@ float
 1907 02f0 83F00044 		eor	r4, r3, #-2147483648
 1908 02f4 FB68     		ldr	r3, [r7, #12]	@ float
 1909 02f6 7A69     		ldr	r2, [r7, #20]	@ float
 1910 02f8 1146     		mov	r1, r2
 1911 02fa 15E0     		b	.L66
 1912              	.L67:
 1913 02fc AFF30080 		.align	3
 1914              	.L65:
 1915 0300 08F4E5AC 		.word	-1394215928
ARM GAS  C:\Users\Mattia\AppData\Local\Temp\ccYnk7Oc.s 			page 43


 1916 0304 1F00103F 		.word	1058013215
 1917 0308 D1ACA982 		.word	-2102809391
 1918 030c 0A74213F 		.word	1059157002
 1919 0310 6FF085C9 		.word	-913969041
 1920 0314 54C1D03F 		.word	1070645588
 1921 0318 00000000 		.word	c_mem
 1922 031c 00000000 		.word	Accel
 1923 0320 00000000 		.word	Gyro
 1924 0324 00000000 		.word	Quat
 1925              	.L66:
 1926 0328 1846     		mov	r0, r3
 1927 032a FFF7FEFF 		bl	__aeabi_fmul
 1928 032e 0346     		mov	r3, r0
 1929 0330 1D46     		mov	r5, r3
 1930 0332 BB68     		ldr	r3, [r7, #8]	@ float
 1931 0334 3A69     		ldr	r2, [r7, #16]	@ float
 1932 0336 1146     		mov	r1, r2
 1933 0338 1846     		mov	r0, r3
 1934 033a FFF7FEFF 		bl	__aeabi_fmul
 1935 033e 0346     		mov	r3, r0
 1936 0340 1946     		mov	r1, r3
 1937 0342 2846     		mov	r0, r5
 1938 0344 FFF7FEFF 		bl	__aeabi_fsub
 1939 0348 0346     		mov	r3, r0
 1940 034a 1946     		mov	r1, r3
 1941 034c 1846     		mov	r0, r3
 1942 034e FFF7FEFF 		bl	__aeabi_fadd
 1943 0352 0346     		mov	r3, r0
 1944 0354 1A46     		mov	r2, r3
 1945 0356 BB6B     		ldr	r3, [r7, #56]	@ float
 1946 0358 1946     		mov	r1, r3
 1947 035a 1046     		mov	r0, r2
 1948 035c FFF7FEFF 		bl	__aeabi_fsub
 1949 0360 0346     		mov	r3, r0
 1950 0362 1946     		mov	r1, r3
 1951 0364 2046     		mov	r0, r4
 1952 0366 FFF7FEFF 		bl	__aeabi_fmul
 1953 036a 0346     		mov	r3, r0
 1954 036c 1D46     		mov	r5, r3
 1955 036e FC68     		ldr	r4, [r7, #12]	@ float
 1956 0370 BB68     		ldr	r3, [r7, #8]	@ float
 1957 0372 FA68     		ldr	r2, [r7, #12]	@ float
 1958 0374 1146     		mov	r1, r2
 1959 0376 1846     		mov	r0, r3
 1960 0378 FFF7FEFF 		bl	__aeabi_fmul
 1961 037c 0346     		mov	r3, r0
 1962 037e 1E46     		mov	r6, r3
 1963 0380 3B69     		ldr	r3, [r7, #16]	@ float
 1964 0382 7A69     		ldr	r2, [r7, #20]	@ float
 1965 0384 1146     		mov	r1, r2
 1966 0386 1846     		mov	r0, r3
 1967 0388 FFF7FEFF 		bl	__aeabi_fmul
 1968 038c 0346     		mov	r3, r0
 1969 038e 1946     		mov	r1, r3
 1970 0390 3046     		mov	r0, r6
 1971 0392 FFF7FEFF 		bl	__aeabi_fadd
 1972 0396 0346     		mov	r3, r0
ARM GAS  C:\Users\Mattia\AppData\Local\Temp\ccYnk7Oc.s 			page 44


 1973 0398 1946     		mov	r1, r3
 1974 039a 1846     		mov	r0, r3
 1975 039c FFF7FEFF 		bl	__aeabi_fadd
 1976 03a0 0346     		mov	r3, r0
 1977 03a2 1A46     		mov	r2, r3
 1978 03a4 FB6B     		ldr	r3, [r7, #60]	@ float
 1979 03a6 1946     		mov	r1, r3
 1980 03a8 1046     		mov	r0, r2
 1981 03aa FFF7FEFF 		bl	__aeabi_fsub
 1982 03ae 0346     		mov	r3, r0
 1983 03b0 1946     		mov	r1, r3
 1984 03b2 2046     		mov	r0, r4
 1985 03b4 FFF7FEFF 		bl	__aeabi_fmul
 1986 03b8 0346     		mov	r3, r0
 1987 03ba 1946     		mov	r1, r3
 1988 03bc 2846     		mov	r0, r5
 1989 03be FFF7FEFF 		bl	__aeabi_fadd
 1990 03c2 0346     		mov	r3, r0
 1991 03c4 AE49     		ldr	r1, .L68+8
 1992 03c6 1846     		mov	r0, r3
 1993 03c8 FFF7FEFF 		bl	__aeabi_fmul
 1994 03cc 0346     		mov	r3, r0
 1995 03ce BB62     		str	r3, [r7, #40]	@ float
 464:..\src/IMU_functions.c ****     Napla[1] = (qL[3]*((2*(qL[1]*qL[3]-qL[0]*qL[2]) - aP[0])) + qL[0]*((2*(qL[0]*qL[1] + qL[2]*qL[3
 1996              		.loc 1 464 0
 1997 03d0 7C69     		ldr	r4, [r7, #20]	@ float
 1998 03d2 FB68     		ldr	r3, [r7, #12]	@ float
 1999 03d4 7A69     		ldr	r2, [r7, #20]	@ float
 2000 03d6 1146     		mov	r1, r2
 2001 03d8 1846     		mov	r0, r3
 2002 03da FFF7FEFF 		bl	__aeabi_fmul
 2003 03de 0346     		mov	r3, r0
 2004 03e0 1D46     		mov	r5, r3
 2005 03e2 BB68     		ldr	r3, [r7, #8]	@ float
 2006 03e4 3A69     		ldr	r2, [r7, #16]	@ float
 2007 03e6 1146     		mov	r1, r2
 2008 03e8 1846     		mov	r0, r3
 2009 03ea FFF7FEFF 		bl	__aeabi_fmul
 2010 03ee 0346     		mov	r3, r0
 2011 03f0 1946     		mov	r1, r3
 2012 03f2 2846     		mov	r0, r5
 2013 03f4 FFF7FEFF 		bl	__aeabi_fsub
 2014 03f8 0346     		mov	r3, r0
 2015 03fa 1946     		mov	r1, r3
 2016 03fc 1846     		mov	r0, r3
 2017 03fe FFF7FEFF 		bl	__aeabi_fadd
 2018 0402 0346     		mov	r3, r0
 2019 0404 1A46     		mov	r2, r3
 2020 0406 BB6B     		ldr	r3, [r7, #56]	@ float
 2021 0408 1946     		mov	r1, r3
 2022 040a 1046     		mov	r0, r2
 2023 040c FFF7FEFF 		bl	__aeabi_fsub
 2024 0410 0346     		mov	r3, r0
 2025 0412 1946     		mov	r1, r3
 2026 0414 2046     		mov	r0, r4
 2027 0416 FFF7FEFF 		bl	__aeabi_fmul
 2028 041a 0346     		mov	r3, r0
ARM GAS  C:\Users\Mattia\AppData\Local\Temp\ccYnk7Oc.s 			page 45


 2029 041c 1D46     		mov	r5, r3
 2030 041e BC68     		ldr	r4, [r7, #8]	@ float
 2031 0420 BB68     		ldr	r3, [r7, #8]	@ float
 2032 0422 FA68     		ldr	r2, [r7, #12]	@ float
 2033 0424 1146     		mov	r1, r2
 2034 0426 1846     		mov	r0, r3
 2035 0428 FFF7FEFF 		bl	__aeabi_fmul
 2036 042c 0346     		mov	r3, r0
 2037 042e 1E46     		mov	r6, r3
 2038 0430 3B69     		ldr	r3, [r7, #16]	@ float
 2039 0432 7A69     		ldr	r2, [r7, #20]	@ float
 2040 0434 1146     		mov	r1, r2
 2041 0436 1846     		mov	r0, r3
 2042 0438 FFF7FEFF 		bl	__aeabi_fmul
 2043 043c 0346     		mov	r3, r0
 2044 043e 1946     		mov	r1, r3
 2045 0440 3046     		mov	r0, r6
 2046 0442 FFF7FEFF 		bl	__aeabi_fadd
 2047 0446 0346     		mov	r3, r0
 2048 0448 1946     		mov	r1, r3
 2049 044a 1846     		mov	r0, r3
 2050 044c FFF7FEFF 		bl	__aeabi_fadd
 2051 0450 0346     		mov	r3, r0
 2052 0452 1A46     		mov	r2, r3
 2053 0454 FB6B     		ldr	r3, [r7, #60]	@ float
 2054 0456 1946     		mov	r1, r3
 2055 0458 1046     		mov	r0, r2
 2056 045a FFF7FEFF 		bl	__aeabi_fsub
 2057 045e 0346     		mov	r3, r0
 2058 0460 1946     		mov	r1, r3
 2059 0462 2046     		mov	r0, r4
 2060 0464 FFF7FEFF 		bl	__aeabi_fmul
 2061 0468 0346     		mov	r3, r0
 2062 046a 1946     		mov	r1, r3
 2063 046c 2846     		mov	r0, r5
 2064 046e FFF7FEFF 		bl	__aeabi_fadd
 2065 0472 0346     		mov	r3, r0
 2066 0474 1846     		mov	r0, r3
 2067 0476 FFF7FEFF 		bl	__aeabi_f2d
 2068 047a 0446     		mov	r4, r0
 2069 047c 0D46     		mov	r5, r1
 2070 047e FB68     		ldr	r3, [r7, #12]	@ float
 2071 0480 1946     		mov	r1, r3
 2072 0482 1846     		mov	r0, r3
 2073 0484 FFF7FEFF 		bl	__aeabi_fadd
 2074 0488 0346     		mov	r3, r0
 2075 048a 1846     		mov	r0, r3
 2076 048c FFF7FEFF 		bl	__aeabi_f2d
 2077 0490 8046     		mov	r8, r0
 2078 0492 8946     		mov	r9, r1
 2079 0494 FB68     		ldr	r3, [r7, #12]	@ float
 2080 0496 FA68     		ldr	r2, [r7, #12]	@ float
 2081 0498 1146     		mov	r1, r2
 2082 049a 1846     		mov	r0, r3
 2083 049c FFF7FEFF 		bl	__aeabi_fmul
 2084 04a0 0346     		mov	r3, r0
 2085 04a2 1846     		mov	r0, r3
ARM GAS  C:\Users\Mattia\AppData\Local\Temp\ccYnk7Oc.s 			page 46


 2086 04a4 FFF7FEFF 		bl	__aeabi_f2d
 2087 04a8 0246     		mov	r2, r0
 2088 04aa 0B46     		mov	r3, r1
 2089 04ac 4FF00000 		mov	r0, #0
 2090 04b0 7449     		ldr	r1, .L68+12
 2091 04b2 FFF7FEFF 		bl	__aeabi_dsub
 2092 04b6 0246     		mov	r2, r0
 2093 04b8 0B46     		mov	r3, r1
 2094 04ba 9246     		mov	r10, r2
 2095 04bc 9B46     		mov	fp, r3
 2096 04be 3B69     		ldr	r3, [r7, #16]	@ float
 2097 04c0 3A69     		ldr	r2, [r7, #16]	@ float
 2098 04c2 1146     		mov	r1, r2
 2099 04c4 1846     		mov	r0, r3
 2100 04c6 FFF7FEFF 		bl	__aeabi_fmul
 2101 04ca 0346     		mov	r3, r0
 2102 04cc 1846     		mov	r0, r3
 2103 04ce FFF7FEFF 		bl	__aeabi_f2d
 2104 04d2 0246     		mov	r2, r0
 2105 04d4 0B46     		mov	r3, r1
 2106 04d6 5046     		mov	r0, r10
 2107 04d8 5946     		mov	r1, fp
 2108 04da FFF7FEFF 		bl	__aeabi_dsub
 2109 04de 0246     		mov	r2, r0
 2110 04e0 0B46     		mov	r3, r1
 2111 04e2 1046     		mov	r0, r2
 2112 04e4 1946     		mov	r1, r3
 2113 04e6 0246     		mov	r2, r0
 2114 04e8 0B46     		mov	r3, r1
 2115 04ea FFF7FEFF 		bl	__aeabi_dadd
 2116 04ee 0246     		mov	r2, r0
 2117 04f0 0B46     		mov	r3, r1
 2118 04f2 9246     		mov	r10, r2
 2119 04f4 9B46     		mov	fp, r3
 2120 04f6 3B6C     		ldr	r3, [r7, #64]	@ float
 2121 04f8 1846     		mov	r0, r3
 2122 04fa FFF7FEFF 		bl	__aeabi_f2d
 2123 04fe 0246     		mov	r2, r0
 2124 0500 0B46     		mov	r3, r1
 2125 0502 5046     		mov	r0, r10
 2126 0504 5946     		mov	r1, fp
 2127 0506 FFF7FEFF 		bl	__aeabi_dsub
 2128 050a 0246     		mov	r2, r0
 2129 050c 0B46     		mov	r3, r1
 2130 050e 4046     		mov	r0, r8
 2131 0510 4946     		mov	r1, r9
 2132 0512 FFF7FEFF 		bl	__aeabi_dmul
 2133 0516 0246     		mov	r2, r0
 2134 0518 0B46     		mov	r3, r1
 2135 051a 2046     		mov	r0, r4
 2136 051c 2946     		mov	r1, r5
 2137 051e FFF7FEFF 		bl	__aeabi_dsub
 2138 0522 0346     		mov	r3, r0
 2139 0524 0C46     		mov	r4, r1
 2140 0526 1846     		mov	r0, r3
 2141 0528 2146     		mov	r1, r4
 2142 052a 53A3     		adr	r3, .L68
ARM GAS  C:\Users\Mattia\AppData\Local\Temp\ccYnk7Oc.s 			page 47


 2143 052c D3E90023 		ldrd	r2, [r3]
 2144 0530 FFF7FEFF 		bl	__aeabi_dmul
 2145 0534 0346     		mov	r3, r0
 2146 0536 0C46     		mov	r4, r1
 2147 0538 1846     		mov	r0, r3
 2148 053a 2146     		mov	r1, r4
 2149 053c FFF7FEFF 		bl	__aeabi_d2f
 2150 0540 0346     		mov	r3, r0
 2151 0542 FB62     		str	r3, [r7, #44]	@ float
 465:..\src/IMU_functions.c ****     Napla[2] = (-qL[0]*((2*(qL[1]*qL[3]-qL[0]*qL[2]) - aP[0])) +qL[3]*((2*(qL[0]*qL[1] + qL[2]*qL[3
 2152              		.loc 1 465 0
 2153 0544 BB68     		ldr	r3, [r7, #8]	@ float
 2154 0546 83F00044 		eor	r4, r3, #-2147483648
 2155 054a FB68     		ldr	r3, [r7, #12]	@ float
 2156 054c 7A69     		ldr	r2, [r7, #20]	@ float
 2157 054e 1146     		mov	r1, r2
 2158 0550 1846     		mov	r0, r3
 2159 0552 FFF7FEFF 		bl	__aeabi_fmul
 2160 0556 0346     		mov	r3, r0
 2161 0558 1D46     		mov	r5, r3
 2162 055a BB68     		ldr	r3, [r7, #8]	@ float
 2163 055c 3A69     		ldr	r2, [r7, #16]	@ float
 2164 055e 1146     		mov	r1, r2
 2165 0560 1846     		mov	r0, r3
 2166 0562 FFF7FEFF 		bl	__aeabi_fmul
 2167 0566 0346     		mov	r3, r0
 2168 0568 1946     		mov	r1, r3
 2169 056a 2846     		mov	r0, r5
 2170 056c FFF7FEFF 		bl	__aeabi_fsub
 2171 0570 0346     		mov	r3, r0
 2172 0572 1946     		mov	r1, r3
 2173 0574 1846     		mov	r0, r3
 2174 0576 FFF7FEFF 		bl	__aeabi_fadd
 2175 057a 0346     		mov	r3, r0
 2176 057c 1A46     		mov	r2, r3
 2177 057e BB6B     		ldr	r3, [r7, #56]	@ float
 2178 0580 1946     		mov	r1, r3
 2179 0582 1046     		mov	r0, r2
 2180 0584 FFF7FEFF 		bl	__aeabi_fsub
 2181 0588 0346     		mov	r3, r0
 2182 058a 1946     		mov	r1, r3
 2183 058c 2046     		mov	r0, r4
 2184 058e FFF7FEFF 		bl	__aeabi_fmul
 2185 0592 0346     		mov	r3, r0
 2186 0594 1D46     		mov	r5, r3
 2187 0596 7C69     		ldr	r4, [r7, #20]	@ float
 2188 0598 BB68     		ldr	r3, [r7, #8]	@ float
 2189 059a FA68     		ldr	r2, [r7, #12]	@ float
 2190 059c 1146     		mov	r1, r2
 2191 059e 1846     		mov	r0, r3
 2192 05a0 FFF7FEFF 		bl	__aeabi_fmul
 2193 05a4 0346     		mov	r3, r0
 2194 05a6 1E46     		mov	r6, r3
 2195 05a8 3B69     		ldr	r3, [r7, #16]	@ float
 2196 05aa 7A69     		ldr	r2, [r7, #20]	@ float
 2197 05ac 1146     		mov	r1, r2
 2198 05ae 1846     		mov	r0, r3
ARM GAS  C:\Users\Mattia\AppData\Local\Temp\ccYnk7Oc.s 			page 48


 2199 05b0 FFF7FEFF 		bl	__aeabi_fmul
 2200 05b4 0346     		mov	r3, r0
 2201 05b6 1946     		mov	r1, r3
 2202 05b8 3046     		mov	r0, r6
 2203 05ba FFF7FEFF 		bl	__aeabi_fadd
 2204 05be 0346     		mov	r3, r0
 2205 05c0 1946     		mov	r1, r3
 2206 05c2 1846     		mov	r0, r3
 2207 05c4 FFF7FEFF 		bl	__aeabi_fadd
 2208 05c8 0346     		mov	r3, r0
 2209 05ca 1A46     		mov	r2, r3
 2210 05cc FB6B     		ldr	r3, [r7, #60]	@ float
 2211 05ce 1946     		mov	r1, r3
 2212 05d0 1046     		mov	r0, r2
 2213 05d2 FFF7FEFF 		bl	__aeabi_fsub
 2214 05d6 0346     		mov	r3, r0
 2215 05d8 1946     		mov	r1, r3
 2216 05da 2046     		mov	r0, r4
 2217 05dc FFF7FEFF 		bl	__aeabi_fmul
 2218 05e0 0346     		mov	r3, r0
 2219 05e2 1946     		mov	r1, r3
 2220 05e4 2846     		mov	r0, r5
 2221 05e6 FFF7FEFF 		bl	__aeabi_fadd
 2222 05ea 0346     		mov	r3, r0
 2223 05ec 1846     		mov	r0, r3
 2224 05ee FFF7FEFF 		bl	__aeabi_f2d
 2225 05f2 0446     		mov	r4, r0
 2226 05f4 0D46     		mov	r5, r1
 2227 05f6 3B69     		ldr	r3, [r7, #16]	@ float
 2228 05f8 1946     		mov	r1, r3
 2229 05fa 1846     		mov	r0, r3
 2230 05fc FFF7FEFF 		bl	__aeabi_fadd
 2231 0600 0346     		mov	r3, r0
 2232 0602 1846     		mov	r0, r3
 2233 0604 FFF7FEFF 		bl	__aeabi_f2d
 2234 0608 8046     		mov	r8, r0
 2235 060a 8946     		mov	r9, r1
 2236 060c FB68     		ldr	r3, [r7, #12]	@ float
 2237 060e FA68     		ldr	r2, [r7, #12]	@ float
 2238 0610 1146     		mov	r1, r2
 2239 0612 1846     		mov	r0, r3
 2240 0614 FFF7FEFF 		bl	__aeabi_fmul
 2241 0618 0346     		mov	r3, r0
 2242 061a 1846     		mov	r0, r3
 2243 061c FFF7FEFF 		bl	__aeabi_f2d
 2244 0620 0246     		mov	r2, r0
 2245 0622 0B46     		mov	r3, r1
 2246 0624 4FF00000 		mov	r0, #0
 2247 0628 1649     		ldr	r1, .L68+12
 2248 062a FFF7FEFF 		bl	__aeabi_dsub
 2249 062e 0246     		mov	r2, r0
 2250 0630 0B46     		mov	r3, r1
 2251 0632 9246     		mov	r10, r2
 2252 0634 9B46     		mov	fp, r3
 2253 0636 3B69     		ldr	r3, [r7, #16]	@ float
 2254 0638 3A69     		ldr	r2, [r7, #16]	@ float
 2255 063a 1146     		mov	r1, r2
ARM GAS  C:\Users\Mattia\AppData\Local\Temp\ccYnk7Oc.s 			page 49


 2256 063c 1846     		mov	r0, r3
 2257 063e FFF7FEFF 		bl	__aeabi_fmul
 2258 0642 0346     		mov	r3, r0
 2259 0644 1846     		mov	r0, r3
 2260 0646 FFF7FEFF 		bl	__aeabi_f2d
 2261 064a 0246     		mov	r2, r0
 2262 064c 0B46     		mov	r3, r1
 2263 064e 5046     		mov	r0, r10
 2264 0650 5946     		mov	r1, fp
 2265 0652 FFF7FEFF 		bl	__aeabi_dsub
 2266 0656 0246     		mov	r2, r0
 2267 0658 0B46     		mov	r3, r1
 2268 065a 1046     		mov	r0, r2
 2269 065c 1946     		mov	r1, r3
 2270 065e 0246     		mov	r2, r0
 2271 0660 0B46     		mov	r3, r1
 2272 0662 FFF7FEFF 		bl	__aeabi_dadd
 2273 0666 0246     		mov	r2, r0
 2274 0668 0B46     		mov	r3, r1
 2275 066a 9246     		mov	r10, r2
 2276 066c 9B46     		mov	fp, r3
 2277 066e 3B6C     		ldr	r3, [r7, #64]	@ float
 2278 0670 0AE0     		b	.L69
 2279              	.L70:
 2280 0672 00BFAFF3 		.align	3
 2280      0080
 2281              	.L68:
 2282 0678 00000000 		.word	0
 2283 067c 006AF840 		.word	1090021888
 2284 0680 0050C347 		.word	1203982336
 2285 0684 0000E03F 		.word	1071644672
 2286              	.L69:
 2287 0688 1846     		mov	r0, r3
 2288 068a FFF7FEFF 		bl	__aeabi_f2d
 2289 068e 0246     		mov	r2, r0
 2290 0690 0B46     		mov	r3, r1
 2291 0692 5046     		mov	r0, r10
 2292 0694 5946     		mov	r1, fp
 2293 0696 FFF7FEFF 		bl	__aeabi_dsub
 2294 069a 0246     		mov	r2, r0
 2295 069c 0B46     		mov	r3, r1
 2296 069e 4046     		mov	r0, r8
 2297 06a0 4946     		mov	r1, r9
 2298 06a2 FFF7FEFF 		bl	__aeabi_dmul
 2299 06a6 0246     		mov	r2, r0
 2300 06a8 0B46     		mov	r3, r1
 2301 06aa 2046     		mov	r0, r4
 2302 06ac 2946     		mov	r1, r5
 2303 06ae FFF7FEFF 		bl	__aeabi_dsub
 2304 06b2 0346     		mov	r3, r0
 2305 06b4 0C46     		mov	r4, r1
 2306 06b6 1846     		mov	r0, r3
 2307 06b8 2146     		mov	r1, r4
 2308 06ba A5A3     		adr	r3, .L71
 2309 06bc D3E90023 		ldrd	r2, [r3]
 2310 06c0 FFF7FEFF 		bl	__aeabi_dmul
 2311 06c4 0346     		mov	r3, r0
ARM GAS  C:\Users\Mattia\AppData\Local\Temp\ccYnk7Oc.s 			page 50


 2312 06c6 0C46     		mov	r4, r1
 2313 06c8 1846     		mov	r0, r3
 2314 06ca 2146     		mov	r1, r4
 2315 06cc FFF7FEFF 		bl	__aeabi_d2f
 2316 06d0 0346     		mov	r3, r0
 2317 06d2 3B63     		str	r3, [r7, #48]	@ float
 466:..\src/IMU_functions.c ****     Napla[3] = (qL[1]*((2*(qL[1]*qL[3]-qL[0]*qL[2]) - aP[0])) + qL[2]*((2*(qL[0]*qL[1] + qL[2]*qL[3
 2318              		.loc 1 466 0
 2319 06d4 FC68     		ldr	r4, [r7, #12]	@ float
 2320 06d6 FB68     		ldr	r3, [r7, #12]	@ float
 2321 06d8 7A69     		ldr	r2, [r7, #20]	@ float
 2322 06da 1146     		mov	r1, r2
 2323 06dc 1846     		mov	r0, r3
 2324 06de FFF7FEFF 		bl	__aeabi_fmul
 2325 06e2 0346     		mov	r3, r0
 2326 06e4 1D46     		mov	r5, r3
 2327 06e6 BB68     		ldr	r3, [r7, #8]	@ float
 2328 06e8 3A69     		ldr	r2, [r7, #16]	@ float
 2329 06ea 1146     		mov	r1, r2
 2330 06ec 1846     		mov	r0, r3
 2331 06ee FFF7FEFF 		bl	__aeabi_fmul
 2332 06f2 0346     		mov	r3, r0
 2333 06f4 1946     		mov	r1, r3
 2334 06f6 2846     		mov	r0, r5
 2335 06f8 FFF7FEFF 		bl	__aeabi_fsub
 2336 06fc 0346     		mov	r3, r0
 2337 06fe 1946     		mov	r1, r3
 2338 0700 1846     		mov	r0, r3
 2339 0702 FFF7FEFF 		bl	__aeabi_fadd
 2340 0706 0346     		mov	r3, r0
 2341 0708 1A46     		mov	r2, r3
 2342 070a BB6B     		ldr	r3, [r7, #56]	@ float
 2343 070c 1946     		mov	r1, r3
 2344 070e 1046     		mov	r0, r2
 2345 0710 FFF7FEFF 		bl	__aeabi_fsub
 2346 0714 0346     		mov	r3, r0
 2347 0716 1946     		mov	r1, r3
 2348 0718 2046     		mov	r0, r4
 2349 071a FFF7FEFF 		bl	__aeabi_fmul
 2350 071e 0346     		mov	r3, r0
 2351 0720 1D46     		mov	r5, r3
 2352 0722 3C69     		ldr	r4, [r7, #16]	@ float
 2353 0724 BB68     		ldr	r3, [r7, #8]	@ float
 2354 0726 FA68     		ldr	r2, [r7, #12]	@ float
 2355 0728 1146     		mov	r1, r2
 2356 072a 1846     		mov	r0, r3
 2357 072c FFF7FEFF 		bl	__aeabi_fmul
 2358 0730 0346     		mov	r3, r0
 2359 0732 1E46     		mov	r6, r3
 2360 0734 3B69     		ldr	r3, [r7, #16]	@ float
 2361 0736 7A69     		ldr	r2, [r7, #20]	@ float
 2362 0738 1146     		mov	r1, r2
 2363 073a 1846     		mov	r0, r3
 2364 073c FFF7FEFF 		bl	__aeabi_fmul
 2365 0740 0346     		mov	r3, r0
 2366 0742 1946     		mov	r1, r3
 2367 0744 3046     		mov	r0, r6
ARM GAS  C:\Users\Mattia\AppData\Local\Temp\ccYnk7Oc.s 			page 51


 2368 0746 FFF7FEFF 		bl	__aeabi_fadd
 2369 074a 0346     		mov	r3, r0
 2370 074c 1946     		mov	r1, r3
 2371 074e 1846     		mov	r0, r3
 2372 0750 FFF7FEFF 		bl	__aeabi_fadd
 2373 0754 0346     		mov	r3, r0
 2374 0756 1A46     		mov	r2, r3
 2375 0758 FB6B     		ldr	r3, [r7, #60]	@ float
 2376 075a 1946     		mov	r1, r3
 2377 075c 1046     		mov	r0, r2
 2378 075e FFF7FEFF 		bl	__aeabi_fsub
 2379 0762 0346     		mov	r3, r0
 2380 0764 1946     		mov	r1, r3
 2381 0766 2046     		mov	r0, r4
 2382 0768 FFF7FEFF 		bl	__aeabi_fmul
 2383 076c 0346     		mov	r3, r0
 2384 076e 1946     		mov	r1, r3
 2385 0770 2846     		mov	r0, r5
 2386 0772 FFF7FEFF 		bl	__aeabi_fadd
 2387 0776 0346     		mov	r3, r0
 2388 0778 7749     		ldr	r1, .L71+8
 2389 077a 1846     		mov	r0, r3
 2390 077c FFF7FEFF 		bl	__aeabi_fmul
 2391 0780 0346     		mov	r3, r0
 2392 0782 7B63     		str	r3, [r7, #52]	@ float
 467:..\src/IMU_functions.c ****     
 468:..\src/IMU_functions.c ****     qd0 = 0.5*(-(qL[1]*g[1] + qL[2]*g[2] + qL[3]*g[3])) - Napla[0];
 2393              		.loc 1 468 0
 2394 0784 FB68     		ldr	r3, [r7, #12]	@ float
 2395 0786 FA69     		ldr	r2, [r7, #28]	@ float
 2396 0788 1146     		mov	r1, r2
 2397 078a 1846     		mov	r0, r3
 2398 078c FFF7FEFF 		bl	__aeabi_fmul
 2399 0790 0346     		mov	r3, r0
 2400 0792 1C46     		mov	r4, r3
 2401 0794 3B69     		ldr	r3, [r7, #16]	@ float
 2402 0796 3A6A     		ldr	r2, [r7, #32]	@ float
 2403 0798 1146     		mov	r1, r2
 2404 079a 1846     		mov	r0, r3
 2405 079c FFF7FEFF 		bl	__aeabi_fmul
 2406 07a0 0346     		mov	r3, r0
 2407 07a2 1946     		mov	r1, r3
 2408 07a4 2046     		mov	r0, r4
 2409 07a6 FFF7FEFF 		bl	__aeabi_fadd
 2410 07aa 0346     		mov	r3, r0
 2411 07ac 1C46     		mov	r4, r3
 2412 07ae 7B69     		ldr	r3, [r7, #20]	@ float
 2413 07b0 7A6A     		ldr	r2, [r7, #36]	@ float
 2414 07b2 1146     		mov	r1, r2
 2415 07b4 1846     		mov	r0, r3
 2416 07b6 FFF7FEFF 		bl	__aeabi_fmul
 2417 07ba 0346     		mov	r3, r0
 2418 07bc 1946     		mov	r1, r3
 2419 07be 2046     		mov	r0, r4
 2420 07c0 FFF7FEFF 		bl	__aeabi_fadd
 2421 07c4 0346     		mov	r3, r0
 2422 07c6 83F00043 		eor	r3, r3, #-2147483648
ARM GAS  C:\Users\Mattia\AppData\Local\Temp\ccYnk7Oc.s 			page 52


 2423 07ca 1846     		mov	r0, r3
 2424 07cc FFF7FEFF 		bl	__aeabi_f2d
 2425 07d0 4FF00002 		mov	r2, #0
 2426 07d4 614B     		ldr	r3, .L71+12
 2427 07d6 FFF7FEFF 		bl	__aeabi_dmul
 2428 07da 0346     		mov	r3, r0
 2429 07dc 0C46     		mov	r4, r1
 2430 07de 2546     		mov	r5, r4
 2431 07e0 1C46     		mov	r4, r3
 2432 07e2 BB6A     		ldr	r3, [r7, #40]	@ float
 2433 07e4 1846     		mov	r0, r3
 2434 07e6 FFF7FEFF 		bl	__aeabi_f2d
 2435 07ea 0246     		mov	r2, r0
 2436 07ec 0B46     		mov	r3, r1
 2437 07ee 2046     		mov	r0, r4
 2438 07f0 2946     		mov	r1, r5
 2439 07f2 FFF7FEFF 		bl	__aeabi_dsub
 2440 07f6 0346     		mov	r3, r0
 2441 07f8 0C46     		mov	r4, r1
 2442 07fa 1846     		mov	r0, r3
 2443 07fc 2146     		mov	r1, r4
 2444 07fe FFF7FEFF 		bl	__aeabi_d2f
 2445 0802 0346     		mov	r3, r0
 2446 0804 3B65     		str	r3, [r7, #80]	@ float
 469:..\src/IMU_functions.c ****     qd1 = 0.5*(qL[0]*g[1] + (qL[2]*g[3] - qL[3]*g[2])) - Napla[1];
 2447              		.loc 1 469 0
 2448 0806 BB68     		ldr	r3, [r7, #8]	@ float
 2449 0808 FA69     		ldr	r2, [r7, #28]	@ float
 2450 080a 1146     		mov	r1, r2
 2451 080c 1846     		mov	r0, r3
 2452 080e FFF7FEFF 		bl	__aeabi_fmul
 2453 0812 0346     		mov	r3, r0
 2454 0814 1C46     		mov	r4, r3
 2455 0816 3B69     		ldr	r3, [r7, #16]	@ float
 2456 0818 7A6A     		ldr	r2, [r7, #36]	@ float
 2457 081a 1146     		mov	r1, r2
 2458 081c 1846     		mov	r0, r3
 2459 081e FFF7FEFF 		bl	__aeabi_fmul
 2460 0822 0346     		mov	r3, r0
 2461 0824 1D46     		mov	r5, r3
 2462 0826 7B69     		ldr	r3, [r7, #20]	@ float
 2463 0828 3A6A     		ldr	r2, [r7, #32]	@ float
 2464 082a 1146     		mov	r1, r2
 2465 082c 1846     		mov	r0, r3
 2466 082e FFF7FEFF 		bl	__aeabi_fmul
 2467 0832 0346     		mov	r3, r0
 2468 0834 1946     		mov	r1, r3
 2469 0836 2846     		mov	r0, r5
 2470 0838 FFF7FEFF 		bl	__aeabi_fsub
 2471 083c 0346     		mov	r3, r0
 2472 083e 1946     		mov	r1, r3
 2473 0840 2046     		mov	r0, r4
 2474 0842 FFF7FEFF 		bl	__aeabi_fadd
 2475 0846 0346     		mov	r3, r0
 2476 0848 1846     		mov	r0, r3
 2477 084a FFF7FEFF 		bl	__aeabi_f2d
 2478 084e 4FF00002 		mov	r2, #0
ARM GAS  C:\Users\Mattia\AppData\Local\Temp\ccYnk7Oc.s 			page 53


 2479 0852 424B     		ldr	r3, .L71+12
 2480 0854 FFF7FEFF 		bl	__aeabi_dmul
 2481 0858 0346     		mov	r3, r0
 2482 085a 0C46     		mov	r4, r1
 2483 085c 2546     		mov	r5, r4
 2484 085e 1C46     		mov	r4, r3
 2485 0860 FB6A     		ldr	r3, [r7, #44]	@ float
 2486 0862 1846     		mov	r0, r3
 2487 0864 FFF7FEFF 		bl	__aeabi_f2d
 2488 0868 0246     		mov	r2, r0
 2489 086a 0B46     		mov	r3, r1
 2490 086c 2046     		mov	r0, r4
 2491 086e 2946     		mov	r1, r5
 2492 0870 FFF7FEFF 		bl	__aeabi_dsub
 2493 0874 0346     		mov	r3, r0
 2494 0876 0C46     		mov	r4, r1
 2495 0878 1846     		mov	r0, r3
 2496 087a 2146     		mov	r1, r4
 2497 087c FFF7FEFF 		bl	__aeabi_d2f
 2498 0880 0346     		mov	r3, r0
 2499 0882 FB64     		str	r3, [r7, #76]	@ float
 470:..\src/IMU_functions.c ****     qd2 = 0.5*(qL[0]*g[2] + (qL[3]*g[1] - qL[1]*g[3])) - Napla[2];
 2500              		.loc 1 470 0
 2501 0884 BB68     		ldr	r3, [r7, #8]	@ float
 2502 0886 3A6A     		ldr	r2, [r7, #32]	@ float
 2503 0888 1146     		mov	r1, r2
 2504 088a 1846     		mov	r0, r3
 2505 088c FFF7FEFF 		bl	__aeabi_fmul
 2506 0890 0346     		mov	r3, r0
 2507 0892 1C46     		mov	r4, r3
 2508 0894 7B69     		ldr	r3, [r7, #20]	@ float
 2509 0896 FA69     		ldr	r2, [r7, #28]	@ float
 2510 0898 1146     		mov	r1, r2
 2511 089a 1846     		mov	r0, r3
 2512 089c FFF7FEFF 		bl	__aeabi_fmul
 2513 08a0 0346     		mov	r3, r0
 2514 08a2 1D46     		mov	r5, r3
 2515 08a4 FB68     		ldr	r3, [r7, #12]	@ float
 2516 08a6 7A6A     		ldr	r2, [r7, #36]	@ float
 2517 08a8 1146     		mov	r1, r2
 2518 08aa 1846     		mov	r0, r3
 2519 08ac FFF7FEFF 		bl	__aeabi_fmul
 2520 08b0 0346     		mov	r3, r0
 2521 08b2 1946     		mov	r1, r3
 2522 08b4 2846     		mov	r0, r5
 2523 08b6 FFF7FEFF 		bl	__aeabi_fsub
 2524 08ba 0346     		mov	r3, r0
 2525 08bc 1946     		mov	r1, r3
 2526 08be 2046     		mov	r0, r4
 2527 08c0 FFF7FEFF 		bl	__aeabi_fadd
 2528 08c4 0346     		mov	r3, r0
 2529 08c6 1846     		mov	r0, r3
 2530 08c8 FFF7FEFF 		bl	__aeabi_f2d
 2531 08cc 4FF00002 		mov	r2, #0
 2532 08d0 224B     		ldr	r3, .L71+12
 2533 08d2 FFF7FEFF 		bl	__aeabi_dmul
 2534 08d6 0346     		mov	r3, r0
ARM GAS  C:\Users\Mattia\AppData\Local\Temp\ccYnk7Oc.s 			page 54


 2535 08d8 0C46     		mov	r4, r1
 2536 08da 2546     		mov	r5, r4
 2537 08dc 1C46     		mov	r4, r3
 2538 08de 3B6B     		ldr	r3, [r7, #48]	@ float
 2539 08e0 1846     		mov	r0, r3
 2540 08e2 FFF7FEFF 		bl	__aeabi_f2d
 2541 08e6 0246     		mov	r2, r0
 2542 08e8 0B46     		mov	r3, r1
 2543 08ea 2046     		mov	r0, r4
 2544 08ec 2946     		mov	r1, r5
 2545 08ee FFF7FEFF 		bl	__aeabi_dsub
 2546 08f2 0346     		mov	r3, r0
 2547 08f4 0C46     		mov	r4, r1
 2548 08f6 1846     		mov	r0, r3
 2549 08f8 2146     		mov	r1, r4
 2550 08fa FFF7FEFF 		bl	__aeabi_d2f
 2551 08fe 0346     		mov	r3, r0
 2552 0900 BB64     		str	r3, [r7, #72]	@ float
 471:..\src/IMU_functions.c ****     qd3 = 0.5*(qL[0]*g[3] + (qL[1]*g[2] - qL[2]*g[1])) - Napla[3];
 2553              		.loc 1 471 0
 2554 0902 BB68     		ldr	r3, [r7, #8]	@ float
 2555 0904 7A6A     		ldr	r2, [r7, #36]	@ float
 2556 0906 1146     		mov	r1, r2
 2557 0908 1846     		mov	r0, r3
 2558 090a FFF7FEFF 		bl	__aeabi_fmul
 2559 090e 0346     		mov	r3, r0
 2560 0910 1C46     		mov	r4, r3
 2561 0912 FB68     		ldr	r3, [r7, #12]	@ float
 2562 0914 3A6A     		ldr	r2, [r7, #32]	@ float
 2563 0916 1146     		mov	r1, r2
 2564 0918 1846     		mov	r0, r3
 2565 091a FFF7FEFF 		bl	__aeabi_fmul
 2566 091e 0346     		mov	r3, r0
 2567 0920 1D46     		mov	r5, r3
 2568 0922 3B69     		ldr	r3, [r7, #16]	@ float
 2569 0924 FA69     		ldr	r2, [r7, #28]	@ float
 2570 0926 1146     		mov	r1, r2
 2571 0928 1846     		mov	r0, r3
 2572 092a FFF7FEFF 		bl	__aeabi_fmul
 2573 092e 0346     		mov	r3, r0
 2574 0930 1946     		mov	r1, r3
 2575 0932 2846     		mov	r0, r5
 2576 0934 FFF7FEFF 		bl	__aeabi_fsub
 2577 0938 0346     		mov	r3, r0
 2578 093a 1946     		mov	r1, r3
 2579 093c 2046     		mov	r0, r4
 2580 093e FFF7FEFF 		bl	__aeabi_fadd
 2581 0942 0346     		mov	r3, r0
 2582 0944 1846     		mov	r0, r3
 2583 0946 FFF7FEFF 		bl	__aeabi_f2d
 2584 094a 4FF00002 		mov	r2, #0
 2585 094e 07E0     		b	.L72
 2586              	.L73:
 2587              		.align	3
 2588              	.L71:
 2589 0950 00000000 		.word	0
 2590 0954 006AF840 		.word	1090021888
ARM GAS  C:\Users\Mattia\AppData\Local\Temp\ccYnk7Oc.s 			page 55


 2591 0958 0050C347 		.word	1203982336
 2592 095c 0000E03F 		.word	1071644672
 2593              	.L72:
 2594 0960 684B     		ldr	r3, .L74
 2595 0962 FFF7FEFF 		bl	__aeabi_dmul
 2596 0966 0346     		mov	r3, r0
 2597 0968 0C46     		mov	r4, r1
 2598 096a 2546     		mov	r5, r4
 2599 096c 1C46     		mov	r4, r3
 2600 096e 7B6B     		ldr	r3, [r7, #52]	@ float
 2601 0970 1846     		mov	r0, r3
 2602 0972 FFF7FEFF 		bl	__aeabi_f2d
 2603 0976 0246     		mov	r2, r0
 2604 0978 0B46     		mov	r3, r1
 2605 097a 2046     		mov	r0, r4
 2606 097c 2946     		mov	r1, r5
 2607 097e FFF7FEFF 		bl	__aeabi_dsub
 2608 0982 0346     		mov	r3, r0
 2609 0984 0C46     		mov	r4, r1
 2610 0986 1846     		mov	r0, r3
 2611 0988 2146     		mov	r1, r4
 2612 098a FFF7FEFF 		bl	__aeabi_d2f
 2613 098e 0346     		mov	r3, r0
 2614 0990 7B64     		str	r3, [r7, #68]	@ float
 472:..\src/IMU_functions.c ****             
 473:..\src/IMU_functions.c ****     qL[0] = qL[0] + qd0*cycle_time;
 2615              		.loc 1 473 0
 2616 0992 BC68     		ldr	r4, [r7, #8]	@ float
 2617 0994 5C4B     		ldr	r3, .L74+4
 2618 0996 1B68     		ldr	r3, [r3]	@ float
 2619 0998 396D     		ldr	r1, [r7, #80]	@ float
 2620 099a 1846     		mov	r0, r3
 2621 099c FFF7FEFF 		bl	__aeabi_fmul
 2622 09a0 0346     		mov	r3, r0
 2623 09a2 1946     		mov	r1, r3
 2624 09a4 2046     		mov	r0, r4
 2625 09a6 FFF7FEFF 		bl	__aeabi_fadd
 2626 09aa 0346     		mov	r3, r0
 2627 09ac BB60     		str	r3, [r7, #8]	@ float
 474:..\src/IMU_functions.c ****     qL[1] = qL[1] + qd1*cycle_time;
 2628              		.loc 1 474 0
 2629 09ae FC68     		ldr	r4, [r7, #12]	@ float
 2630 09b0 554B     		ldr	r3, .L74+4
 2631 09b2 1B68     		ldr	r3, [r3]	@ float
 2632 09b4 F96C     		ldr	r1, [r7, #76]	@ float
 2633 09b6 1846     		mov	r0, r3
 2634 09b8 FFF7FEFF 		bl	__aeabi_fmul
 2635 09bc 0346     		mov	r3, r0
 2636 09be 1946     		mov	r1, r3
 2637 09c0 2046     		mov	r0, r4
 2638 09c2 FFF7FEFF 		bl	__aeabi_fadd
 2639 09c6 0346     		mov	r3, r0
 2640 09c8 FB60     		str	r3, [r7, #12]	@ float
 475:..\src/IMU_functions.c ****     qL[2] = qL[2] + qd2*cycle_time;
 2641              		.loc 1 475 0
 2642 09ca 3C69     		ldr	r4, [r7, #16]	@ float
 2643 09cc 4E4B     		ldr	r3, .L74+4
ARM GAS  C:\Users\Mattia\AppData\Local\Temp\ccYnk7Oc.s 			page 56


 2644 09ce 1B68     		ldr	r3, [r3]	@ float
 2645 09d0 B96C     		ldr	r1, [r7, #72]	@ float
 2646 09d2 1846     		mov	r0, r3
 2647 09d4 FFF7FEFF 		bl	__aeabi_fmul
 2648 09d8 0346     		mov	r3, r0
 2649 09da 1946     		mov	r1, r3
 2650 09dc 2046     		mov	r0, r4
 2651 09de FFF7FEFF 		bl	__aeabi_fadd
 2652 09e2 0346     		mov	r3, r0
 2653 09e4 3B61     		str	r3, [r7, #16]	@ float
 476:..\src/IMU_functions.c ****     qL[3] = qL[3] + qd3*cycle_time;
 2654              		.loc 1 476 0
 2655 09e6 7C69     		ldr	r4, [r7, #20]	@ float
 2656 09e8 474B     		ldr	r3, .L74+4
 2657 09ea 1B68     		ldr	r3, [r3]	@ float
 2658 09ec 796C     		ldr	r1, [r7, #68]	@ float
 2659 09ee 1846     		mov	r0, r3
 2660 09f0 FFF7FEFF 		bl	__aeabi_fmul
 2661 09f4 0346     		mov	r3, r0
 2662 09f6 1946     		mov	r1, r3
 2663 09f8 2046     		mov	r0, r4
 2664 09fa FFF7FEFF 		bl	__aeabi_fadd
 2665 09fe 0346     		mov	r3, r0
 2666 0a00 7B61     		str	r3, [r7, #20]	@ float
 477:..\src/IMU_functions.c ****     
 478:..\src/IMU_functions.c ****     if (sqrt(qL[0]*qL[0] + qL[1]*qL[1] + qL[2]*qL[2] + qL[3]*qL[3]) == 0) {
 2667              		.loc 1 478 0
 2668 0a02 BB68     		ldr	r3, [r7, #8]	@ float
 2669 0a04 BA68     		ldr	r2, [r7, #8]	@ float
 2670 0a06 1146     		mov	r1, r2
 2671 0a08 1846     		mov	r0, r3
 2672 0a0a FFF7FEFF 		bl	__aeabi_fmul
 2673 0a0e 0346     		mov	r3, r0
 2674 0a10 1C46     		mov	r4, r3
 2675 0a12 FB68     		ldr	r3, [r7, #12]	@ float
 2676 0a14 FA68     		ldr	r2, [r7, #12]	@ float
 2677 0a16 1146     		mov	r1, r2
 2678 0a18 1846     		mov	r0, r3
 2679 0a1a FFF7FEFF 		bl	__aeabi_fmul
 2680 0a1e 0346     		mov	r3, r0
 2681 0a20 1946     		mov	r1, r3
 2682 0a22 2046     		mov	r0, r4
 2683 0a24 FFF7FEFF 		bl	__aeabi_fadd
 2684 0a28 0346     		mov	r3, r0
 2685 0a2a 1C46     		mov	r4, r3
 2686 0a2c 3B69     		ldr	r3, [r7, #16]	@ float
 2687 0a2e 3A69     		ldr	r2, [r7, #16]	@ float
 2688 0a30 1146     		mov	r1, r2
 2689 0a32 1846     		mov	r0, r3
 2690 0a34 FFF7FEFF 		bl	__aeabi_fmul
 2691 0a38 0346     		mov	r3, r0
 2692 0a3a 1946     		mov	r1, r3
 2693 0a3c 2046     		mov	r0, r4
 2694 0a3e FFF7FEFF 		bl	__aeabi_fadd
 2695 0a42 0346     		mov	r3, r0
 2696 0a44 1C46     		mov	r4, r3
 2697 0a46 7B69     		ldr	r3, [r7, #20]	@ float
ARM GAS  C:\Users\Mattia\AppData\Local\Temp\ccYnk7Oc.s 			page 57


 2698 0a48 7A69     		ldr	r2, [r7, #20]	@ float
 2699 0a4a 1146     		mov	r1, r2
 2700 0a4c 1846     		mov	r0, r3
 2701 0a4e FFF7FEFF 		bl	__aeabi_fmul
 2702 0a52 0346     		mov	r3, r0
 2703 0a54 1946     		mov	r1, r3
 2704 0a56 2046     		mov	r0, r4
 2705 0a58 FFF7FEFF 		bl	__aeabi_fadd
 2706 0a5c 0346     		mov	r3, r0
 2707 0a5e 1846     		mov	r0, r3
 2708 0a60 FFF7FEFF 		bl	__aeabi_f2d
 2709 0a64 0346     		mov	r3, r0
 2710 0a66 0C46     		mov	r4, r1
 2711 0a68 1846     		mov	r0, r3
 2712 0a6a 2146     		mov	r1, r4
 2713 0a6c FFF7FEFF 		bl	sqrt
 2714 0a70 4FF00002 		mov	r2, #0
 2715 0a74 4FF00003 		mov	r3, #0
 2716 0a78 FFF7FEFF 		bl	__aeabi_dcmpeq
 2717 0a7c 0346     		mov	r3, r0
 2718 0a7e 002B     		cmp	r3, #0
 2719 0a80 1AD0     		beq	.L59
 479:..\src/IMU_functions.c **** 	    qL[0] = Quat[n][0];
 2720              		.loc 1 479 0
 2721 0a82 224A     		ldr	r2, .L74+8
 2722 0a84 7B68     		ldr	r3, [r7, #4]
 2723 0a86 1B01     		lsls	r3, r3, #4
 2724 0a88 1344     		add	r3, r3, r2
 2725 0a8a 1B68     		ldr	r3, [r3]	@ float
 2726 0a8c BB60     		str	r3, [r7, #8]	@ float
 480:..\src/IMU_functions.c **** 	    qL[1] = Quat[n][1];
 2727              		.loc 1 480 0
 2728 0a8e 1F4A     		ldr	r2, .L74+8
 2729 0a90 7B68     		ldr	r3, [r7, #4]
 2730 0a92 1B01     		lsls	r3, r3, #4
 2731 0a94 1344     		add	r3, r3, r2
 2732 0a96 0433     		adds	r3, r3, #4
 2733 0a98 1B68     		ldr	r3, [r3]	@ float
 2734 0a9a FB60     		str	r3, [r7, #12]	@ float
 481:..\src/IMU_functions.c **** 	    qL[2] = Quat[n][2];
 2735              		.loc 1 481 0
 2736 0a9c 1B4A     		ldr	r2, .L74+8
 2737 0a9e 7B68     		ldr	r3, [r7, #4]
 2738 0aa0 1B01     		lsls	r3, r3, #4
 2739 0aa2 1344     		add	r3, r3, r2
 2740 0aa4 0833     		adds	r3, r3, #8
 2741 0aa6 1B68     		ldr	r3, [r3]	@ float
 2742 0aa8 3B61     		str	r3, [r7, #16]	@ float
 482:..\src/IMU_functions.c **** 	    qL[3] = Quat[n][3];
 2743              		.loc 1 482 0
 2744 0aaa 184A     		ldr	r2, .L74+8
 2745 0aac 7B68     		ldr	r3, [r7, #4]
 2746 0aae 1B01     		lsls	r3, r3, #4
 2747 0ab0 1344     		add	r3, r3, r2
 2748 0ab2 0C33     		adds	r3, r3, #12
 2749 0ab4 1B68     		ldr	r3, [r3]	@ float
 2750 0ab6 7B61     		str	r3, [r7, #20]	@ float
ARM GAS  C:\Users\Mattia\AppData\Local\Temp\ccYnk7Oc.s 			page 58


 2751              	.L59:
 483:..\src/IMU_functions.c ****     }
 484:..\src/IMU_functions.c ****         
 485:..\src/IMU_functions.c ****     v4_normalize(qL);
 2752              		.loc 1 485 0
 2753 0ab8 07F10803 		add	r3, r7, #8
 2754 0abc 1846     		mov	r0, r3
 2755 0abe FFF7FEFF 		bl	v4_normalize
 486:..\src/IMU_functions.c ****     
 487:..\src/IMU_functions.c ****     // Quaternion update      
 488:..\src/IMU_functions.c ****     Quat[n][0] = qL[0];
 2756              		.loc 1 488 0
 2757 0ac2 BA68     		ldr	r2, [r7, #8]	@ float
 2758 0ac4 1149     		ldr	r1, .L74+8
 2759 0ac6 7B68     		ldr	r3, [r7, #4]
 2760 0ac8 1B01     		lsls	r3, r3, #4
 2761 0aca 0B44     		add	r3, r3, r1
 2762 0acc 1A60     		str	r2, [r3]	@ float
 489:..\src/IMU_functions.c ****     Quat[n][1] = qL[1];
 2763              		.loc 1 489 0
 2764 0ace FA68     		ldr	r2, [r7, #12]	@ float
 2765 0ad0 0E49     		ldr	r1, .L74+8
 2766 0ad2 7B68     		ldr	r3, [r7, #4]
 2767 0ad4 1B01     		lsls	r3, r3, #4
 2768 0ad6 0B44     		add	r3, r3, r1
 2769 0ad8 0433     		adds	r3, r3, #4
 2770 0ada 1A60     		str	r2, [r3]	@ float
 490:..\src/IMU_functions.c ****     Quat[n][2] = qL[2];
 2771              		.loc 1 490 0
 2772 0adc 3A69     		ldr	r2, [r7, #16]	@ float
 2773 0ade 0B49     		ldr	r1, .L74+8
 2774 0ae0 7B68     		ldr	r3, [r7, #4]
 2775 0ae2 1B01     		lsls	r3, r3, #4
 2776 0ae4 0B44     		add	r3, r3, r1
 2777 0ae6 0833     		adds	r3, r3, #8
 2778 0ae8 1A60     		str	r2, [r3]	@ float
 491:..\src/IMU_functions.c ****     Quat[n][3] = qL[3];
 2779              		.loc 1 491 0
 2780 0aea 7A69     		ldr	r2, [r7, #20]	@ float
 2781 0aec 0749     		ldr	r1, .L74+8
 2782 0aee 7B68     		ldr	r3, [r7, #4]
 2783 0af0 1B01     		lsls	r3, r3, #4
 2784 0af2 0B44     		add	r3, r3, r1
 2785 0af4 0C33     		adds	r3, r3, #12
 2786 0af6 1A60     		str	r2, [r3]	@ float
 492:..\src/IMU_functions.c **** }
 2787              		.loc 1 492 0
 2788 0af8 00BF     		nop
 2789 0afa 5C37     		adds	r7, r7, #92
 2790              		.cfi_def_cfa_offset 36
 2791 0afc BD46     		mov	sp, r7
 2792              		.cfi_def_cfa_register 13
 2793              		@ sp needed
 2794 0afe BDE8F08F 		pop	{r4, r5, r6, r7, r8, r9, r10, fp, pc}
 2795              	.L75:
 2796 0b02 00BF     		.align	2
 2797              	.L74:
ARM GAS  C:\Users\Mattia\AppData\Local\Temp\ccYnk7Oc.s 			page 59


 2798 0b04 0000E03F 		.word	1071644672
 2799 0b08 00000000 		.word	cycle_time
 2800 0b0c 00000000 		.word	Quat
 2801              		.cfi_endproc
 2802              	.LFE74:
 2803              		.size	ReadQuat, .-ReadQuat
 2804              		.section	.text.ReadAllIMUs,"ax",%progbits
 2805              		.align	2
 2806              		.global	ReadAllIMUs
 2807              		.thumb
 2808              		.thumb_func
 2809              		.type	ReadAllIMUs, %function
 2810              	ReadAllIMUs:
 2811              	.LFB75:
 493:..\src/IMU_functions.c **** 
 494:..\src/IMU_functions.c **** /********************************************************************************
 495:..\src/IMU_functions.c **** * Function Name: ReadAllIMUs
 496:..\src/IMU_functions.c **** *********************************************************************************/
 497:..\src/IMU_functions.c **** void ReadAllIMUs(){
 2812              		.loc 1 497 0
 2813              		.cfi_startproc
 2814              		@ args = 0, pretend = 0, frame = 8
 2815              		@ frame_needed = 1, uses_anonymous_args = 0
 2816 0000 F0B5     		push	{r4, r5, r6, r7, lr}
 2817              		.cfi_def_cfa_offset 20
 2818              		.cfi_offset 4, -20
 2819              		.cfi_offset 5, -16
 2820              		.cfi_offset 6, -12
 2821              		.cfi_offset 7, -8
 2822              		.cfi_offset 14, -4
 2823 0002 83B0     		sub	sp, sp, #12
 2824              		.cfi_def_cfa_offset 32
 2825 0004 00AF     		add	r7, sp, #0
 2826              		.cfi_def_cfa_register 7
 498:..\src/IMU_functions.c ****     static uint8 k_imu = 0;
 499:..\src/IMU_functions.c ****     uint16 tmp = 0, j = 0;
 2827              		.loc 1 499 0
 2828 0006 0023     		movs	r3, #0
 2829 0008 BB80     		strh	r3, [r7, #4]	@ movhi
 2830 000a 0023     		movs	r3, #0
 2831 000c FB80     		strh	r3, [r7, #6]	@ movhi
 500:..\src/IMU_functions.c **** 
 501:..\src/IMU_functions.c ****     for (k_imu = 0; k_imu < N_IMU_Connected; k_imu++){ 
 2832              		.loc 1 501 0
 2833 000e 954B     		ldr	r3, .L87
 2834 0010 0022     		movs	r2, #0
 2835 0012 1A70     		strb	r2, [r3]
 2836 0014 1BE1     		b	.L77
 2837              	.L86:
 502:..\src/IMU_functions.c ****         // Read k_imu IMU
 503:..\src/IMU_functions.c ****         ChipSelectorIMU(IMU_connected[k_imu]);
 2838              		.loc 1 503 0
 2839 0016 934B     		ldr	r3, .L87
 2840 0018 1B78     		ldrb	r3, [r3]	@ zero_extendqisi2
 2841 001a 1A46     		mov	r2, r3
 2842 001c 924B     		ldr	r3, .L87+4
 2843 001e 9B5C     		ldrb	r3, [r3, r2]	@ zero_extendqisi2
ARM GAS  C:\Users\Mattia\AppData\Local\Temp\ccYnk7Oc.s 			page 60


 2844 0020 1846     		mov	r0, r3
 2845 0022 FFF7FEFF 		bl	ChipSelectorIMU
 504:..\src/IMU_functions.c ****         ReadIMU(IMU_connected[k_imu]);
 2846              		.loc 1 504 0
 2847 0026 8F4B     		ldr	r3, .L87
 2848 0028 1B78     		ldrb	r3, [r3]	@ zero_extendqisi2
 2849 002a 1A46     		mov	r2, r3
 2850 002c 8E4B     		ldr	r3, .L87+4
 2851 002e 9B5C     		ldrb	r3, [r3, r2]	@ zero_extendqisi2
 2852 0030 1846     		mov	r0, r3
 2853 0032 FFF7FEFF 		bl	ReadIMU
 505:..\src/IMU_functions.c ****         
 506:..\src/IMU_functions.c ****         for (j = 0; j < 3; j++) {
 2854              		.loc 1 506 0
 2855 0036 0023     		movs	r3, #0
 2856 0038 FB80     		strh	r3, [r7, #6]	@ movhi
 2857 003a 38E0     		b	.L78
 2858              	.L79:
 507:..\src/IMU_functions.c ****             tmp = Accel[IMU_connected[k_imu]][2*j];
 2859              		.loc 1 507 0 discriminator 3
 2860 003c 894B     		ldr	r3, .L87
 2861 003e 1B78     		ldrb	r3, [r3]	@ zero_extendqisi2
 2862 0040 1A46     		mov	r2, r3
 2863 0042 894B     		ldr	r3, .L87+4
 2864 0044 9B5C     		ldrb	r3, [r3, r2]	@ zero_extendqisi2
 2865 0046 1846     		mov	r0, r3
 2866 0048 FB88     		ldrh	r3, [r7, #6]
 2867 004a 5A00     		lsls	r2, r3, #1
 2868 004c 8749     		ldr	r1, .L87+8
 2869 004e 0346     		mov	r3, r0
 2870 0050 5B00     		lsls	r3, r3, #1
 2871 0052 0344     		add	r3, r3, r0
 2872 0054 5B00     		lsls	r3, r3, #1
 2873 0056 0B44     		add	r3, r3, r1
 2874 0058 1344     		add	r3, r3, r2
 2875 005a 1B78     		ldrb	r3, [r3]	@ zero_extendqisi2
 2876 005c BB80     		strh	r3, [r7, #4]	@ movhi
 508:..\src/IMU_functions.c ****             g_imuNew[k_imu].accel_value[j] = (int16)(tmp<<8 | Accel[IMU_connected[k_imu]][2*j + 1])
 2877              		.loc 1 508 0 discriminator 3
 2878 005e 814B     		ldr	r3, .L87
 2879 0060 1B78     		ldrb	r3, [r3]	@ zero_extendqisi2
 2880 0062 1D46     		mov	r5, r3
 2881 0064 FA88     		ldrh	r2, [r7, #6]
 2882 0066 BB88     		ldrh	r3, [r7, #4]
 2883 0068 1B02     		lsls	r3, r3, #8
 2884 006a 19B2     		sxth	r1, r3
 2885 006c 7D4B     		ldr	r3, .L87
 2886 006e 1B78     		ldrb	r3, [r3]	@ zero_extendqisi2
 2887 0070 1846     		mov	r0, r3
 2888 0072 7D4B     		ldr	r3, .L87+4
 2889 0074 1B5C     		ldrb	r3, [r3, r0]	@ zero_extendqisi2
 2890 0076 1E46     		mov	r6, r3
 2891 0078 FB88     		ldrh	r3, [r7, #6]
 2892 007a 5B00     		lsls	r3, r3, #1
 2893 007c 581C     		adds	r0, r3, #1
 2894 007e 7B4C     		ldr	r4, .L87+8
 2895 0080 3346     		mov	r3, r6
ARM GAS  C:\Users\Mattia\AppData\Local\Temp\ccYnk7Oc.s 			page 61


 2896 0082 5B00     		lsls	r3, r3, #1
 2897 0084 3344     		add	r3, r3, r6
 2898 0086 5B00     		lsls	r3, r3, #1
 2899 0088 2344     		add	r3, r3, r4
 2900 008a 0344     		add	r3, r3, r0
 2901 008c 1B78     		ldrb	r3, [r3]	@ zero_extendqisi2
 2902 008e 1BB2     		sxth	r3, r3
 2903 0090 0B43     		orrs	r3, r3, r1
 2904 0092 18B2     		sxth	r0, r3
 2905 0094 7649     		ldr	r1, .L87+12
 2906 0096 2B46     		mov	r3, r5
 2907 0098 9B00     		lsls	r3, r3, #2
 2908 009a 2B44     		add	r3, r3, r5
 2909 009c 9B00     		lsls	r3, r3, #2
 2910 009e 1344     		add	r3, r3, r2
 2911 00a0 5B00     		lsls	r3, r3, #1
 2912 00a2 0B44     		add	r3, r3, r1
 2913 00a4 0246     		mov	r2, r0	@ movhi
 2914 00a6 5A80     		strh	r2, [r3, #2]	@ movhi
 506:..\src/IMU_functions.c ****             tmp = Accel[IMU_connected[k_imu]][2*j];
 2915              		.loc 1 506 0 discriminator 3
 2916 00a8 FB88     		ldrh	r3, [r7, #6]
 2917 00aa 0133     		adds	r3, r3, #1
 2918 00ac FB80     		strh	r3, [r7, #6]	@ movhi
 2919              	.L78:
 506:..\src/IMU_functions.c ****             tmp = Accel[IMU_connected[k_imu]][2*j];
 2920              		.loc 1 506 0 is_stmt 0 discriminator 1
 2921 00ae FB88     		ldrh	r3, [r7, #6]
 2922 00b0 022B     		cmp	r3, #2
 2923 00b2 C3D9     		bls	.L79
 509:..\src/IMU_functions.c ****         }
 510:..\src/IMU_functions.c ****         
 511:..\src/IMU_functions.c ****         for (j = 0; j < 3; j++) {
 2924              		.loc 1 511 0 is_stmt 1
 2925 00b4 0023     		movs	r3, #0
 2926 00b6 FB80     		strh	r3, [r7, #6]	@ movhi
 2927 00b8 38E0     		b	.L80
 2928              	.L81:
 512:..\src/IMU_functions.c ****             tmp = Gyro[IMU_connected[k_imu]][2*j];
 2929              		.loc 1 512 0 discriminator 3
 2930 00ba 6A4B     		ldr	r3, .L87
 2931 00bc 1B78     		ldrb	r3, [r3]	@ zero_extendqisi2
 2932 00be 1A46     		mov	r2, r3
 2933 00c0 694B     		ldr	r3, .L87+4
 2934 00c2 9B5C     		ldrb	r3, [r3, r2]	@ zero_extendqisi2
 2935 00c4 1846     		mov	r0, r3
 2936 00c6 FB88     		ldrh	r3, [r7, #6]
 2937 00c8 5A00     		lsls	r2, r3, #1
 2938 00ca 6A49     		ldr	r1, .L87+16
 2939 00cc 0346     		mov	r3, r0
 2940 00ce 5B00     		lsls	r3, r3, #1
 2941 00d0 0344     		add	r3, r3, r0
 2942 00d2 5B00     		lsls	r3, r3, #1
 2943 00d4 0B44     		add	r3, r3, r1
 2944 00d6 1344     		add	r3, r3, r2
 2945 00d8 1B78     		ldrb	r3, [r3]	@ zero_extendqisi2
 2946 00da BB80     		strh	r3, [r7, #4]	@ movhi
ARM GAS  C:\Users\Mattia\AppData\Local\Temp\ccYnk7Oc.s 			page 62


 513:..\src/IMU_functions.c ****             g_imuNew[k_imu].gyro_value[j] = (int16)(tmp<<8 | Gyro[IMU_connected[k_imu]][2*j + 1]);
 2947              		.loc 1 513 0 discriminator 3
 2948 00dc 614B     		ldr	r3, .L87
 2949 00de 1B78     		ldrb	r3, [r3]	@ zero_extendqisi2
 2950 00e0 1D46     		mov	r5, r3
 2951 00e2 FA88     		ldrh	r2, [r7, #6]
 2952 00e4 BB88     		ldrh	r3, [r7, #4]
 2953 00e6 1B02     		lsls	r3, r3, #8
 2954 00e8 19B2     		sxth	r1, r3
 2955 00ea 5E4B     		ldr	r3, .L87
 2956 00ec 1B78     		ldrb	r3, [r3]	@ zero_extendqisi2
 2957 00ee 1846     		mov	r0, r3
 2958 00f0 5D4B     		ldr	r3, .L87+4
 2959 00f2 1B5C     		ldrb	r3, [r3, r0]	@ zero_extendqisi2
 2960 00f4 1E46     		mov	r6, r3
 2961 00f6 FB88     		ldrh	r3, [r7, #6]
 2962 00f8 5B00     		lsls	r3, r3, #1
 2963 00fa 581C     		adds	r0, r3, #1
 2964 00fc 5D4C     		ldr	r4, .L87+16
 2965 00fe 3346     		mov	r3, r6
 2966 0100 5B00     		lsls	r3, r3, #1
 2967 0102 3344     		add	r3, r3, r6
 2968 0104 5B00     		lsls	r3, r3, #1
 2969 0106 2344     		add	r3, r3, r4
 2970 0108 0344     		add	r3, r3, r0
 2971 010a 1B78     		ldrb	r3, [r3]	@ zero_extendqisi2
 2972 010c 1BB2     		sxth	r3, r3
 2973 010e 0B43     		orrs	r3, r3, r1
 2974 0110 18B2     		sxth	r0, r3
 2975 0112 5749     		ldr	r1, .L87+12
 2976 0114 2B46     		mov	r3, r5
 2977 0116 9B00     		lsls	r3, r3, #2
 2978 0118 2B44     		add	r3, r3, r5
 2979 011a 9B00     		lsls	r3, r3, #2
 2980 011c 1344     		add	r3, r3, r2
 2981 011e 0433     		adds	r3, r3, #4
 2982 0120 0246     		mov	r2, r0	@ movhi
 2983 0122 21F81320 		strh	r2, [r1, r3, lsl #1]	@ movhi
 511:..\src/IMU_functions.c ****             tmp = Gyro[IMU_connected[k_imu]][2*j];
 2984              		.loc 1 511 0 discriminator 3
 2985 0126 FB88     		ldrh	r3, [r7, #6]
 2986 0128 0133     		adds	r3, r3, #1
 2987 012a FB80     		strh	r3, [r7, #6]	@ movhi
 2988              	.L80:
 511:..\src/IMU_functions.c ****             tmp = Gyro[IMU_connected[k_imu]][2*j];
 2989              		.loc 1 511 0 is_stmt 0 discriminator 1
 2990 012c FB88     		ldrh	r3, [r7, #6]
 2991 012e 022B     		cmp	r3, #2
 2992 0130 C3D9     		bls	.L81
 514:..\src/IMU_functions.c ****         }
 515:..\src/IMU_functions.c ****                 
 516:..\src/IMU_functions.c ****         for (j = 0; j < 3; j++) {
 2993              		.loc 1 516 0 is_stmt 1
 2994 0132 0023     		movs	r3, #0
 2995 0134 FB80     		strh	r3, [r7, #6]	@ movhi
 2996 0136 39E0     		b	.L82
 2997              	.L83:
ARM GAS  C:\Users\Mattia\AppData\Local\Temp\ccYnk7Oc.s 			page 63


 517:..\src/IMU_functions.c ****             tmp = Mag[IMU_connected[k_imu]][2*j];
 2998              		.loc 1 517 0 discriminator 3
 2999 0138 4A4B     		ldr	r3, .L87
 3000 013a 1B78     		ldrb	r3, [r3]	@ zero_extendqisi2
 3001 013c 1A46     		mov	r2, r3
 3002 013e 4A4B     		ldr	r3, .L87+4
 3003 0140 9B5C     		ldrb	r3, [r3, r2]	@ zero_extendqisi2
 3004 0142 1846     		mov	r0, r3
 3005 0144 FB88     		ldrh	r3, [r7, #6]
 3006 0146 5A00     		lsls	r2, r3, #1
 3007 0148 4B49     		ldr	r1, .L87+20
 3008 014a 0346     		mov	r3, r0
 3009 014c 5B00     		lsls	r3, r3, #1
 3010 014e 0344     		add	r3, r3, r0
 3011 0150 5B00     		lsls	r3, r3, #1
 3012 0152 0B44     		add	r3, r3, r1
 3013 0154 1344     		add	r3, r3, r2
 3014 0156 1B78     		ldrb	r3, [r3]	@ zero_extendqisi2
 3015 0158 BB80     		strh	r3, [r7, #4]	@ movhi
 518:..\src/IMU_functions.c ****             g_imuNew[k_imu].mag_value[j] = (int16)(tmp<<8 | Mag[IMU_connected[k_imu]][2*j + 1]);
 3016              		.loc 1 518 0 discriminator 3
 3017 015a 424B     		ldr	r3, .L87
 3018 015c 1B78     		ldrb	r3, [r3]	@ zero_extendqisi2
 3019 015e 1D46     		mov	r5, r3
 3020 0160 FA88     		ldrh	r2, [r7, #6]
 3021 0162 BB88     		ldrh	r3, [r7, #4]
 3022 0164 1B02     		lsls	r3, r3, #8
 3023 0166 19B2     		sxth	r1, r3
 3024 0168 3E4B     		ldr	r3, .L87
 3025 016a 1B78     		ldrb	r3, [r3]	@ zero_extendqisi2
 3026 016c 1846     		mov	r0, r3
 3027 016e 3E4B     		ldr	r3, .L87+4
 3028 0170 1B5C     		ldrb	r3, [r3, r0]	@ zero_extendqisi2
 3029 0172 1E46     		mov	r6, r3
 3030 0174 FB88     		ldrh	r3, [r7, #6]
 3031 0176 5B00     		lsls	r3, r3, #1
 3032 0178 581C     		adds	r0, r3, #1
 3033 017a 3F4C     		ldr	r4, .L87+20
 3034 017c 3346     		mov	r3, r6
 3035 017e 5B00     		lsls	r3, r3, #1
 3036 0180 3344     		add	r3, r3, r6
 3037 0182 5B00     		lsls	r3, r3, #1
 3038 0184 2344     		add	r3, r3, r4
 3039 0186 0344     		add	r3, r3, r0
 3040 0188 1B78     		ldrb	r3, [r3]	@ zero_extendqisi2
 3041 018a 1BB2     		sxth	r3, r3
 3042 018c 0B43     		orrs	r3, r3, r1
 3043 018e 18B2     		sxth	r0, r3
 3044 0190 3749     		ldr	r1, .L87+12
 3045 0192 2B46     		mov	r3, r5
 3046 0194 9B00     		lsls	r3, r3, #2
 3047 0196 2B44     		add	r3, r3, r5
 3048 0198 9B00     		lsls	r3, r3, #2
 3049 019a 1344     		add	r3, r3, r2
 3050 019c 0433     		adds	r3, r3, #4
 3051 019e 5B00     		lsls	r3, r3, #1
 3052 01a0 0B44     		add	r3, r3, r1
ARM GAS  C:\Users\Mattia\AppData\Local\Temp\ccYnk7Oc.s 			page 64


 3053 01a2 0246     		mov	r2, r0	@ movhi
 3054 01a4 DA80     		strh	r2, [r3, #6]	@ movhi
 516:..\src/IMU_functions.c ****             tmp = Mag[IMU_connected[k_imu]][2*j];
 3055              		.loc 1 516 0 discriminator 3
 3056 01a6 FB88     		ldrh	r3, [r7, #6]
 3057 01a8 0133     		adds	r3, r3, #1
 3058 01aa FB80     		strh	r3, [r7, #6]	@ movhi
 3059              	.L82:
 516:..\src/IMU_functions.c ****             tmp = Mag[IMU_connected[k_imu]][2*j];
 3060              		.loc 1 516 0 is_stmt 0 discriminator 1
 3061 01ac FB88     		ldrh	r3, [r7, #6]
 3062 01ae 022B     		cmp	r3, #2
 3063 01b0 C2D9     		bls	.L83
 519:..\src/IMU_functions.c ****         }  
 520:..\src/IMU_functions.c **** 
 521:..\src/IMU_functions.c ****         for (j = 0; j < 4; j++) {
 3064              		.loc 1 521 0 is_stmt 1
 3065 01b2 0023     		movs	r3, #0
 3066 01b4 FB80     		strh	r3, [r7, #6]	@ movhi
 3067 01b6 1CE0     		b	.L84
 3068              	.L85:
 522:..\src/IMU_functions.c ****             g_imuNew[k_imu].quat_value[j] = (float)(Quat[IMU_connected[k_imu]][j]);
 3069              		.loc 1 522 0 discriminator 3
 3070 01b8 2A4B     		ldr	r3, .L87
 3071 01ba 1B78     		ldrb	r3, [r3]	@ zero_extendqisi2
 3072 01bc 1C46     		mov	r4, r3
 3073 01be F988     		ldrh	r1, [r7, #6]
 3074 01c0 284B     		ldr	r3, .L87
 3075 01c2 1B78     		ldrb	r3, [r3]	@ zero_extendqisi2
 3076 01c4 1A46     		mov	r2, r3
 3077 01c6 284B     		ldr	r3, .L87+4
 3078 01c8 9B5C     		ldrb	r3, [r3, r2]	@ zero_extendqisi2
 3079 01ca 1A46     		mov	r2, r3
 3080 01cc FB88     		ldrh	r3, [r7, #6]
 3081 01ce 2B48     		ldr	r0, .L87+24
 3082 01d0 9200     		lsls	r2, r2, #2
 3083 01d2 1344     		add	r3, r3, r2
 3084 01d4 50F82320 		ldr	r2, [r0, r3, lsl #2]	@ float
 3085 01d8 2548     		ldr	r0, .L87+12
 3086 01da 2346     		mov	r3, r4
 3087 01dc 9B00     		lsls	r3, r3, #2
 3088 01de 2344     		add	r3, r3, r4
 3089 01e0 5B00     		lsls	r3, r3, #1
 3090 01e2 0B44     		add	r3, r3, r1
 3091 01e4 0433     		adds	r3, r3, #4
 3092 01e6 9B00     		lsls	r3, r3, #2
 3093 01e8 0344     		add	r3, r3, r0
 3094 01ea 5A60     		str	r2, [r3, #4]	@ float
 521:..\src/IMU_functions.c ****             g_imuNew[k_imu].quat_value[j] = (float)(Quat[IMU_connected[k_imu]][j]);
 3095              		.loc 1 521 0 discriminator 3
 3096 01ec FB88     		ldrh	r3, [r7, #6]
 3097 01ee 0133     		adds	r3, r3, #1
 3098 01f0 FB80     		strh	r3, [r7, #6]	@ movhi
 3099              	.L84:
 521:..\src/IMU_functions.c ****             g_imuNew[k_imu].quat_value[j] = (float)(Quat[IMU_connected[k_imu]][j]);
 3100              		.loc 1 521 0 is_stmt 0 discriminator 1
 3101 01f2 FB88     		ldrh	r3, [r7, #6]
ARM GAS  C:\Users\Mattia\AppData\Local\Temp\ccYnk7Oc.s 			page 65


 3102 01f4 032B     		cmp	r3, #3
 3103 01f6 DFD9     		bls	.L85
 523:..\src/IMU_functions.c ****         }
 524:..\src/IMU_functions.c ****         
 525:..\src/IMU_functions.c ****         tmp = Temp[IMU_connected[k_imu]][0];
 3104              		.loc 1 525 0 is_stmt 1 discriminator 2
 3105 01f8 1A4B     		ldr	r3, .L87
 3106 01fa 1B78     		ldrb	r3, [r3]	@ zero_extendqisi2
 3107 01fc 1A46     		mov	r2, r3
 3108 01fe 1A4B     		ldr	r3, .L87+4
 3109 0200 9B5C     		ldrb	r3, [r3, r2]	@ zero_extendqisi2
 3110 0202 1A46     		mov	r2, r3
 3111 0204 1E4B     		ldr	r3, .L87+28
 3112 0206 13F81230 		ldrb	r3, [r3, r2, lsl #1]	@ zero_extendqisi2
 3113 020a BB80     		strh	r3, [r7, #4]	@ movhi
 526:..\src/IMU_functions.c ****         g_imuNew[k_imu].temp_value = (int16)(tmp<<8 | Temp[IMU_connected[k_imu]][1]);
 3114              		.loc 1 526 0 discriminator 2
 3115 020c 154B     		ldr	r3, .L87
 3116 020e 1B78     		ldrb	r3, [r3]	@ zero_extendqisi2
 3117 0210 1846     		mov	r0, r3
 3118 0212 BB88     		ldrh	r3, [r7, #4]
 3119 0214 1B02     		lsls	r3, r3, #8
 3120 0216 1AB2     		sxth	r2, r3
 3121 0218 124B     		ldr	r3, .L87
 3122 021a 1B78     		ldrb	r3, [r3]	@ zero_extendqisi2
 3123 021c 1946     		mov	r1, r3
 3124 021e 124B     		ldr	r3, .L87+4
 3125 0220 5B5C     		ldrb	r3, [r3, r1]	@ zero_extendqisi2
 3126 0222 1749     		ldr	r1, .L87+28
 3127 0224 5B00     		lsls	r3, r3, #1
 3128 0226 0B44     		add	r3, r3, r1
 3129 0228 5B78     		ldrb	r3, [r3, #1]	@ zero_extendqisi2
 3130 022a 1BB2     		sxth	r3, r3
 3131 022c 1343     		orrs	r3, r3, r2
 3132 022e 19B2     		sxth	r1, r3
 3133 0230 0F4A     		ldr	r2, .L87+12
 3134 0232 0346     		mov	r3, r0
 3135 0234 9B00     		lsls	r3, r3, #2
 3136 0236 0344     		add	r3, r3, r0
 3137 0238 DB00     		lsls	r3, r3, #3
 3138 023a 1344     		add	r3, r3, r2
 3139 023c 2433     		adds	r3, r3, #36
 3140 023e 0A46     		mov	r2, r1	@ movhi
 3141 0240 1A80     		strh	r2, [r3]	@ movhi
 501:..\src/IMU_functions.c ****         // Read k_imu IMU
 3142              		.loc 1 501 0 discriminator 2
 3143 0242 084B     		ldr	r3, .L87
 3144 0244 1B78     		ldrb	r3, [r3]	@ zero_extendqisi2
 3145 0246 0133     		adds	r3, r3, #1
 3146 0248 DAB2     		uxtb	r2, r3
 3147 024a 064B     		ldr	r3, .L87
 3148 024c 1A70     		strb	r2, [r3]
 3149              	.L77:
 501:..\src/IMU_functions.c ****         // Read k_imu IMU
 3150              		.loc 1 501 0 is_stmt 0 discriminator 1
 3151 024e 054B     		ldr	r3, .L87
 3152 0250 1A78     		ldrb	r2, [r3]	@ zero_extendqisi2
ARM GAS  C:\Users\Mattia\AppData\Local\Temp\ccYnk7Oc.s 			page 66


 3153 0252 0C4B     		ldr	r3, .L87+32
 3154 0254 1B78     		ldrb	r3, [r3]	@ zero_extendqisi2
 3155 0256 9A42     		cmp	r2, r3
 3156 0258 FFF4DDAE 		bcc	.L86
 527:..\src/IMU_functions.c ****     }
 528:..\src/IMU_functions.c **** }
 3157              		.loc 1 528 0 is_stmt 1
 3158 025c 00BF     		nop
 3159 025e 0C37     		adds	r7, r7, #12
 3160              		.cfi_def_cfa_offset 20
 3161 0260 BD46     		mov	sp, r7
 3162              		.cfi_def_cfa_register 13
 3163              		@ sp needed
 3164 0262 F0BD     		pop	{r4, r5, r6, r7, pc}
 3165              	.L88:
 3166              		.align	2
 3167              	.L87:
 3168 0264 00000000 		.word	k_imu.10252
 3169 0268 00000000 		.word	IMU_connected
 3170 026c 00000000 		.word	Accel
 3171 0270 00000000 		.word	g_imuNew
 3172 0274 00000000 		.word	Gyro
 3173 0278 00000000 		.word	Mag
 3174 027c 00000000 		.word	Quat
 3175 0280 00000000 		.word	Temp
 3176 0284 00000000 		.word	N_IMU_Connected
 3177              		.cfi_endproc
 3178              	.LFE75:
 3179              		.size	ReadAllIMUs, .-ReadAllIMUs
 3180              		.section	.text.ReadTemp,"ax",%progbits
 3181              		.align	2
 3182              		.global	ReadTemp
 3183              		.thumb
 3184              		.thumb_func
 3185              		.type	ReadTemp, %function
 3186              	ReadTemp:
 3187              	.LFB76:
 529:..\src/IMU_functions.c **** 
 530:..\src/IMU_functions.c **** /*******************************************************************************
 531:..\src/IMU_functions.c **** * Function Name: Read Temperature Data of IMU n
 532:..\src/IMU_functions.c **** *********************************************************************************/
 533:..\src/IMU_functions.c **** void ReadTemp(int n)
 534:..\src/IMU_functions.c **** {
 3188              		.loc 1 534 0
 3189              		.cfi_startproc
 3190              		@ args = 0, pretend = 0, frame = 16
 3191              		@ frame_needed = 1, uses_anonymous_args = 0
 3192 0000 80B5     		push	{r7, lr}
 3193              		.cfi_def_cfa_offset 8
 3194              		.cfi_offset 7, -8
 3195              		.cfi_offset 14, -4
 3196 0002 84B0     		sub	sp, sp, #16
 3197              		.cfi_def_cfa_offset 24
 3198 0004 00AF     		add	r7, sp, #0
 3199              		.cfi_def_cfa_register 7
 3200 0006 7860     		str	r0, [r7, #4]
 535:..\src/IMU_functions.c **** 	uint8 low=0, high=0;	
ARM GAS  C:\Users\Mattia\AppData\Local\Temp\ccYnk7Oc.s 			page 67


 3201              		.loc 1 535 0
 3202 0008 0023     		movs	r3, #0
 3203 000a FB73     		strb	r3, [r7, #15]
 3204 000c 0023     		movs	r3, #0
 3205 000e BB73     		strb	r3, [r7, #14]
 536:..\src/IMU_functions.c **** 	int row = n;
 3206              		.loc 1 536 0
 3207 0010 7B68     		ldr	r3, [r7, #4]
 3208 0012 BB60     		str	r3, [r7, #8]
 537:..\src/IMU_functions.c **** 	
 538:..\src/IMU_functions.c **** 	//read X
 539:..\src/IMU_functions.c ****     low=ReadControlRegisterIMU(MPU9250_TEMP_OUT_L);
 3209              		.loc 1 539 0
 3210 0014 4220     		movs	r0, #66
 3211 0016 FFF7FEFF 		bl	ReadControlRegisterIMU
 3212 001a 0346     		mov	r3, r0
 3213 001c FB73     		strb	r3, [r7, #15]
 540:..\src/IMU_functions.c ****     SPI_delay();
 3214              		.loc 1 540 0
 3215 001e FFF7FEFF 		bl	SPI_delay
 541:..\src/IMU_functions.c **** 	high=ReadControlRegisterIMU(MPU9250_TEMP_OUT_H);
 3216              		.loc 1 541 0
 3217 0022 4120     		movs	r0, #65
 3218 0024 FFF7FEFF 		bl	ReadControlRegisterIMU
 3219 0028 0346     		mov	r3, r0
 3220 002a BB73     		strb	r3, [r7, #14]
 542:..\src/IMU_functions.c ****     SPI_delay();
 3221              		.loc 1 542 0
 3222 002c FFF7FEFF 		bl	SPI_delay
 543:..\src/IMU_functions.c **** 
 544:..\src/IMU_functions.c **** 	Temp[row][0] = high; 
 3223              		.loc 1 544 0
 3224 0030 0949     		ldr	r1, .L90
 3225 0032 BB68     		ldr	r3, [r7, #8]
 3226 0034 BA7B     		ldrb	r2, [r7, #14]
 3227 0036 01F81320 		strb	r2, [r1, r3, lsl #1]
 545:..\src/IMU_functions.c **** 	Temp[row][1] = low; 
 3228              		.loc 1 545 0
 3229 003a 074A     		ldr	r2, .L90
 3230 003c BB68     		ldr	r3, [r7, #8]
 3231 003e 5B00     		lsls	r3, r3, #1
 3232 0040 1344     		add	r3, r3, r2
 3233 0042 FA7B     		ldrb	r2, [r7, #15]
 3234 0044 5A70     		strb	r2, [r3, #1]
 546:..\src/IMU_functions.c **** 	low=0, high=0;
 3235              		.loc 1 546 0
 3236 0046 0023     		movs	r3, #0
 3237 0048 FB73     		strb	r3, [r7, #15]
 3238 004a 0023     		movs	r3, #0
 3239 004c BB73     		strb	r3, [r7, #14]
 547:..\src/IMU_functions.c **** }
 3240              		.loc 1 547 0
 3241 004e 00BF     		nop
 3242 0050 1037     		adds	r7, r7, #16
 3243              		.cfi_def_cfa_offset 8
 3244 0052 BD46     		mov	sp, r7
 3245              		.cfi_def_cfa_register 13
ARM GAS  C:\Users\Mattia\AppData\Local\Temp\ccYnk7Oc.s 			page 68


 3246              		@ sp needed
 3247 0054 80BD     		pop	{r7, pc}
 3248              	.L91:
 3249 0056 00BF     		.align	2
 3250              	.L90:
 3251 0058 00000000 		.word	Temp
 3252              		.cfi_endproc
 3253              	.LFE76:
 3254              		.size	ReadTemp, .-ReadTemp
 3255              		.section	.text.WriteControlRegisterIMU,"ax",%progbits
 3256              		.align	2
 3257              		.global	WriteControlRegisterIMU
 3258              		.thumb
 3259              		.thumb_func
 3260              		.type	WriteControlRegisterIMU, %function
 3261              	WriteControlRegisterIMU:
 3262              	.LFB77:
 548:..\src/IMU_functions.c **** 
 549:..\src/IMU_functions.c **** /********************************** *********************************************
 550:..\src/IMU_functions.c **** * Function Name: Write Control Register
 551:..\src/IMU_functions.c **** *********************************************************************************/
 552:..\src/IMU_functions.c **** void WriteControlRegisterIMU(uint8 address, uint8 dta){
 3263              		.loc 1 552 0
 3264              		.cfi_startproc
 3265              		@ args = 0, pretend = 0, frame = 8
 3266              		@ frame_needed = 1, uses_anonymous_args = 0
 3267 0000 80B5     		push	{r7, lr}
 3268              		.cfi_def_cfa_offset 8
 3269              		.cfi_offset 7, -8
 3270              		.cfi_offset 14, -4
 3271 0002 82B0     		sub	sp, sp, #8
 3272              		.cfi_def_cfa_offset 16
 3273 0004 00AF     		add	r7, sp, #0
 3274              		.cfi_def_cfa_register 7
 3275 0006 0346     		mov	r3, r0
 3276 0008 0A46     		mov	r2, r1
 3277 000a FB71     		strb	r3, [r7, #7]
 3278 000c 1346     		mov	r3, r2
 3279 000e BB71     		strb	r3, [r7, #6]
 553:..\src/IMU_functions.c **** 	
 554:..\src/IMU_functions.c **** 	SPI_IMU_ClearRxBuffer();
 3280              		.loc 1 554 0
 3281 0010 FFF7FEFF 		bl	SPI_IMU_ClearRxBuffer
 555:..\src/IMU_functions.c **** 	SPI_IMU_ClearTxBuffer();
 3282              		.loc 1 555 0
 3283 0014 FFF7FEFF 		bl	SPI_IMU_ClearTxBuffer
 556:..\src/IMU_functions.c **** 	SPI_IMU_ClearFIFO();
 3284              		.loc 1 556 0
 3285 0018 FFF7FEFF 		bl	SPI_IMU_ClearFIFO
 557:..\src/IMU_functions.c **** 	SPI_IMU_WriteByte(MPU9250_WCR | address);
 3286              		.loc 1 557 0
 3287 001c FB79     		ldrb	r3, [r7, #7]	@ zero_extendqisi2
 3288 001e 1846     		mov	r0, r3
 3289 0020 FFF7FEFF 		bl	SPI_IMU_WriteTxData
 558:..\src/IMU_functions.c **** 	while(!( SPI_IMU_ReadStatus() & SPI_IMU_STS_TX_FIFO_EMPTY));		
 3290              		.loc 1 558 0
 3291 0024 00BF     		nop
ARM GAS  C:\Users\Mattia\AppData\Local\Temp\ccYnk7Oc.s 			page 69


 3292              	.L93:
 3293              		.loc 1 558 0 is_stmt 0 discriminator 1
 3294 0026 FFF7FEFF 		bl	SPI_IMU_ReadStatus
 3295 002a 0346     		mov	r3, r0
 3296 002c 03F00203 		and	r3, r3, #2
 3297 0030 002B     		cmp	r3, #0
 3298 0032 F8D0     		beq	.L93
 559:..\src/IMU_functions.c **** 	SPI_IMU_WriteByte(dta);
 3299              		.loc 1 559 0 is_stmt 1
 3300 0034 BB79     		ldrb	r3, [r7, #6]	@ zero_extendqisi2
 3301 0036 1846     		mov	r0, r3
 3302 0038 FFF7FEFF 		bl	SPI_IMU_WriteTxData
 560:..\src/IMU_functions.c **** 	while(!( SPI_IMU_ReadStatus() & SPI_IMU_STS_TX_FIFO_EMPTY));
 3303              		.loc 1 560 0
 3304 003c 00BF     		nop
 3305              	.L94:
 3306              		.loc 1 560 0 is_stmt 0 discriminator 1
 3307 003e FFF7FEFF 		bl	SPI_IMU_ReadStatus
 3308 0042 0346     		mov	r3, r0
 3309 0044 03F00203 		and	r3, r3, #2
 3310 0048 002B     		cmp	r3, #0
 3311 004a F8D0     		beq	.L94
 561:..\src/IMU_functions.c **** }
 3312              		.loc 1 561 0 is_stmt 1
 3313 004c 00BF     		nop
 3314 004e 0837     		adds	r7, r7, #8
 3315              		.cfi_def_cfa_offset 8
 3316 0050 BD46     		mov	sp, r7
 3317              		.cfi_def_cfa_register 13
 3318              		@ sp needed
 3319 0052 80BD     		pop	{r7, pc}
 3320              		.cfi_endproc
 3321              	.LFE77:
 3322              		.size	WriteControlRegisterIMU, .-WriteControlRegisterIMU
 3323              		.section	.text.ReadControlRegisterIMU,"ax",%progbits
 3324              		.align	2
 3325              		.global	ReadControlRegisterIMU
 3326              		.thumb
 3327              		.thumb_func
 3328              		.type	ReadControlRegisterIMU, %function
 3329              	ReadControlRegisterIMU:
 3330              	.LFB78:
 562:..\src/IMU_functions.c **** 
 563:..\src/IMU_functions.c **** /*******************************************************************************
 564:..\src/IMU_functions.c **** * Function Name: Read Control Register
 565:..\src/IMU_functions.c **** *********************************************************************************/
 566:..\src/IMU_functions.c **** uint8 ReadControlRegisterIMU(uint8 address){
 3331              		.loc 1 566 0
 3332              		.cfi_startproc
 3333              		@ args = 0, pretend = 0, frame = 16
 3334              		@ frame_needed = 1, uses_anonymous_args = 0
 3335 0000 80B5     		push	{r7, lr}
 3336              		.cfi_def_cfa_offset 8
 3337              		.cfi_offset 7, -8
 3338              		.cfi_offset 14, -4
 3339 0002 84B0     		sub	sp, sp, #16
 3340              		.cfi_def_cfa_offset 24
ARM GAS  C:\Users\Mattia\AppData\Local\Temp\ccYnk7Oc.s 			page 70


 3341 0004 00AF     		add	r7, sp, #0
 3342              		.cfi_def_cfa_register 7
 3343 0006 0346     		mov	r3, r0
 3344 0008 FB71     		strb	r3, [r7, #7]
 567:..\src/IMU_functions.c **** 	uint8 controlreg = 0;
 3345              		.loc 1 567 0
 3346 000a 0023     		movs	r3, #0
 3347 000c FB73     		strb	r3, [r7, #15]
 568:..\src/IMU_functions.c **** 	
 569:..\src/IMU_functions.c **** 	SPI_IMU_WriteByte(MPU9250_RCR | address);
 3348              		.loc 1 569 0
 3349 000e FB79     		ldrb	r3, [r7, #7]
 3350 0010 63F07F03 		orn	r3, r3, #127
 3351 0014 DBB2     		uxtb	r3, r3
 3352 0016 1846     		mov	r0, r3
 3353 0018 FFF7FEFF 		bl	SPI_IMU_WriteTxData
 570:..\src/IMU_functions.c ****     while(!( SPI_IMU_ReadStatus() & SPI_IMU_STS_TX_FIFO_EMPTY));
 3354              		.loc 1 570 0
 3355 001c 00BF     		nop
 3356              	.L96:
 3357              		.loc 1 570 0 is_stmt 0 discriminator 1
 3358 001e FFF7FEFF 		bl	SPI_IMU_ReadStatus
 3359 0022 0346     		mov	r3, r0
 3360 0024 03F00203 		and	r3, r3, #2
 3361 0028 002B     		cmp	r3, #0
 3362 002a F8D0     		beq	.L96
 571:..\src/IMU_functions.c ****     SPI_IMU_WriteByte(0x00);
 3363              		.loc 1 571 0 is_stmt 1
 3364 002c 0020     		movs	r0, #0
 3365 002e FFF7FEFF 		bl	SPI_IMU_WriteTxData
 572:..\src/IMU_functions.c **** 	while(!( SPI_IMU_ReadStatus() & SPI_IMU_STS_SPI_DONE));
 3366              		.loc 1 572 0
 3367 0032 00BF     		nop
 3368              	.L97:
 3369              		.loc 1 572 0 is_stmt 0 discriminator 1
 3370 0034 FFF7FEFF 		bl	SPI_IMU_ReadStatus
 3371 0038 0346     		mov	r3, r0
 3372 003a 03F00103 		and	r3, r3, #1
 3373 003e 002B     		cmp	r3, #0
 3374 0040 F8D0     		beq	.L97
 573:..\src/IMU_functions.c **** 	controlreg = SPI_IMU_ReadByte();        //real data
 3375              		.loc 1 573 0 is_stmt 1
 3376 0042 FFF7FEFF 		bl	SPI_IMU_ReadRxData
 3377 0046 0346     		mov	r3, r0
 3378 0048 FB73     		strb	r3, [r7, #15]
 574:..\src/IMU_functions.c **** 	return controlreg;
 3379              		.loc 1 574 0
 3380 004a FB7B     		ldrb	r3, [r7, #15]	@ zero_extendqisi2
 575:..\src/IMU_functions.c **** }
 3381              		.loc 1 575 0
 3382 004c 1846     		mov	r0, r3
 3383 004e 1037     		adds	r7, r7, #16
 3384              		.cfi_def_cfa_offset 8
 3385 0050 BD46     		mov	sp, r7
 3386              		.cfi_def_cfa_register 13
 3387              		@ sp needed
 3388 0052 80BD     		pop	{r7, pc}
ARM GAS  C:\Users\Mattia\AppData\Local\Temp\ccYnk7Oc.s 			page 71


 3389              		.cfi_endproc
 3390              	.LFE78:
 3391              		.size	ReadControlRegisterIMU, .-ReadControlRegisterIMU
 3392              		.section	.text.SPI_delay,"ax",%progbits
 3393              		.align	2
 3394              		.global	SPI_delay
 3395              		.thumb
 3396              		.thumb_func
 3397              		.type	SPI_delay, %function
 3398              	SPI_delay:
 3399              	.LFB79:
 576:..\src/IMU_functions.c **** 
 577:..\src/IMU_functions.c **** /*******************************************************************************
 578:..\src/IMU_functions.c **** * Function Name: SPI delay
 579:..\src/IMU_functions.c **** *********************************************************************************/
 580:..\src/IMU_functions.c **** void SPI_delay(){
 3400              		.loc 1 580 0
 3401              		.cfi_startproc
 3402              		@ args = 0, pretend = 0, frame = 0
 3403              		@ frame_needed = 1, uses_anonymous_args = 0
 3404 0000 80B5     		push	{r7, lr}
 3405              		.cfi_def_cfa_offset 8
 3406              		.cfi_offset 7, -8
 3407              		.cfi_offset 14, -4
 3408 0002 00AF     		add	r7, sp, #0
 3409              		.cfi_def_cfa_register 7
 581:..\src/IMU_functions.c ****     switch( c_mem.imu.SPI_read_delay ) {
 3410              		.loc 1 581 0
 3411 0004 084B     		ldr	r3, .L104
 3412 0006 93F80132 		ldrb	r3, [r3, #513]	@ zero_extendqisi2
 3413 000a 012B     		cmp	r3, #1
 3414 000c 02D0     		beq	.L101
 3415 000e 022B     		cmp	r3, #2
 3416 0010 04D0     		beq	.L102
 582:..\src/IMU_functions.c ****         case 1:     // Low
 583:..\src/IMU_functions.c ****             CyDelayUs((uint16)SPI_DELAY_LOW);
 584:..\src/IMU_functions.c ****             break;
 585:..\src/IMU_functions.c ****         case 2:     // High
 586:..\src/IMU_functions.c ****             CyDelayUs((uint16)SPI_DELAY_HIGH);
 587:..\src/IMU_functions.c ****             break;
 588:..\src/IMU_functions.c ****         default:    // None
 589:..\src/IMU_functions.c ****             break;
 3417              		.loc 1 589 0
 3418 0012 07E0     		b	.L103
 3419              	.L101:
 583:..\src/IMU_functions.c ****             break;
 3420              		.loc 1 583 0
 3421 0014 0A20     		movs	r0, #10
 3422 0016 FFF7FEFF 		bl	CyDelayUs
 584:..\src/IMU_functions.c ****         case 2:     // High
 3423              		.loc 1 584 0
 3424 001a 03E0     		b	.L103
 3425              	.L102:
 586:..\src/IMU_functions.c ****             break;
 3426              		.loc 1 586 0
 3427 001c 6420     		movs	r0, #100
 3428 001e FFF7FEFF 		bl	CyDelayUs
ARM GAS  C:\Users\Mattia\AppData\Local\Temp\ccYnk7Oc.s 			page 72


 587:..\src/IMU_functions.c ****         default:    // None
 3429              		.loc 1 587 0
 3430 0022 00BF     		nop
 3431              	.L103:
 590:..\src/IMU_functions.c ****     }
 591:..\src/IMU_functions.c **** }...
 3432              		.loc 1 591 0
 3433 0024 00BF     		nop
 3434 0026 80BD     		pop	{r7, pc}
 3435              	.L105:
 3436              		.align	2
 3437              	.L104:
 3438 0028 00000000 		.word	c_mem
 3439              		.cfi_endproc
 3440              	.LFE79:
 3441              		.size	SPI_delay, .-SPI_delay
 3442              		.bss
 3443              	k_imu.10252:
 3444 0000 00       		.space	1
 3445              		.text
 3446              	.Letext0:
 3447              		.file 2 "c:\\program files (x86)\\cypress\\psoc creator\\4.2\\psoc creator\\import\\gnu\\arm\\5.4.
 3448              		.file 3 "c:\\program files (x86)\\cypress\\psoc creator\\4.2\\psoc creator\\import\\gnu\\arm\\5.4.
 3449              		.file 4 "Generated_Source\\PSoC5/cytypes.h"
 3450              		.file 5 "..\\src\\globals.h"
 3451              		.file 6 "Generated_Source\\PSoC5/core_cm3.h"
 3452              		.section	.debug_info,"",%progbits
 3453              	.Ldebug_info0:
 3454 0000 070D0000 		.4byte	0xd07
 3455 0004 0400     		.2byte	0x4
 3456 0006 00000000 		.4byte	.Ldebug_abbrev0
 3457 000a 04       		.byte	0x4
 3458 000b 01       		.uleb128 0x1
 3459 000c 65000000 		.4byte	.LASF149
 3460 0010 0C       		.byte	0xc
 3461 0011 87040000 		.4byte	.LASF150
 3462 0015 85020000 		.4byte	.LASF151
 3463 0019 00000000 		.4byte	.Ldebug_ranges0+0
 3464 001d 00000000 		.4byte	0
 3465 0021 00000000 		.4byte	.Ldebug_line0
 3466 0025 02       		.uleb128 0x2
 3467 0026 01       		.byte	0x1
 3468 0027 06       		.byte	0x6
 3469 0028 62010000 		.4byte	.LASF0
 3470 002c 02       		.uleb128 0x2
 3471 002d 01       		.byte	0x1
 3472 002e 08       		.byte	0x8
 3473 002f 24050000 		.4byte	.LASF1
 3474 0033 03       		.uleb128 0x3
 3475 0034 0C070000 		.4byte	.LASF4
 3476 0038 02       		.byte	0x2
 3477 0039 29       		.byte	0x29
 3478 003a 3E000000 		.4byte	0x3e
 3479 003e 02       		.uleb128 0x2
 3480 003f 02       		.byte	0x2
 3481 0040 05       		.byte	0x5
 3482 0041 67050000 		.4byte	.LASF2
ARM GAS  C:\Users\Mattia\AppData\Local\Temp\ccYnk7Oc.s 			page 73


 3483 0045 02       		.uleb128 0x2
 3484 0046 02       		.byte	0x2
 3485 0047 07       		.byte	0x7
 3486 0048 6D030000 		.4byte	.LASF3
 3487 004c 03       		.uleb128 0x3
 3488 004d FD030000 		.4byte	.LASF5
 3489 0051 02       		.byte	0x2
 3490 0052 3F       		.byte	0x3f
 3491 0053 57000000 		.4byte	0x57
 3492 0057 02       		.uleb128 0x2
 3493 0058 04       		.byte	0x4
 3494 0059 05       		.byte	0x5
 3495 005a 81010000 		.4byte	.LASF6
 3496 005e 02       		.uleb128 0x2
 3497 005f 04       		.byte	0x4
 3498 0060 07       		.byte	0x7
 3499 0061 1E030000 		.4byte	.LASF7
 3500 0065 02       		.uleb128 0x2
 3501 0066 08       		.byte	0x8
 3502 0067 05       		.byte	0x5
 3503 0068 54010000 		.4byte	.LASF8
 3504 006c 02       		.uleb128 0x2
 3505 006d 08       		.byte	0x8
 3506 006e 07       		.byte	0x7
 3507 006f FC000000 		.4byte	.LASF9
 3508 0073 04       		.uleb128 0x4
 3509 0074 04       		.byte	0x4
 3510 0075 05       		.byte	0x5
 3511 0076 696E7400 		.ascii	"int\000"
 3512 007a 02       		.uleb128 0x2
 3513 007b 04       		.byte	0x4
 3514 007c 07       		.byte	0x7
 3515 007d D2020000 		.4byte	.LASF10
 3516 0081 03       		.uleb128 0x3
 3517 0082 3E010000 		.4byte	.LASF11
 3518 0086 03       		.byte	0x3
 3519 0087 20       		.byte	0x20
 3520 0088 33000000 		.4byte	0x33
 3521 008c 03       		.uleb128 0x3
 3522 008d 1C050000 		.4byte	.LASF12
 3523 0091 03       		.byte	0x3
 3524 0092 2C       		.byte	0x2c
 3525 0093 4C000000 		.4byte	0x4c
 3526 0097 05       		.uleb128 0x5
 3527 0098 A3040000 		.4byte	.LASF13
 3528 009c 04       		.byte	0x4
 3529 009d E401     		.2byte	0x1e4
 3530 009f 2C000000 		.4byte	0x2c
 3531 00a3 05       		.uleb128 0x5
 3532 00a4 32050000 		.4byte	.LASF14
 3533 00a8 04       		.byte	0x4
 3534 00a9 E501     		.2byte	0x1e5
 3535 00ab 45000000 		.4byte	0x45
 3536 00af 05       		.uleb128 0x5
 3537 00b0 29020000 		.4byte	.LASF15
 3538 00b4 04       		.byte	0x4
 3539 00b5 E601     		.2byte	0x1e6
ARM GAS  C:\Users\Mattia\AppData\Local\Temp\ccYnk7Oc.s 			page 74


 3540 00b7 5E000000 		.4byte	0x5e
 3541 00bb 05       		.uleb128 0x5
 3542 00bc 90030000 		.4byte	.LASF16
 3543 00c0 04       		.byte	0x4
 3544 00c1 E701     		.2byte	0x1e7
 3545 00c3 25000000 		.4byte	0x25
 3546 00c7 05       		.uleb128 0x5
 3547 00c8 AD050000 		.4byte	.LASF17
 3548 00cc 04       		.byte	0x4
 3549 00cd E801     		.2byte	0x1e8
 3550 00cf 3E000000 		.4byte	0x3e
 3551 00d3 05       		.uleb128 0x5
 3552 00d4 7B010000 		.4byte	.LASF18
 3553 00d8 04       		.byte	0x4
 3554 00d9 E901     		.2byte	0x1e9
 3555 00db 57000000 		.4byte	0x57
 3556 00df 05       		.uleb128 0x5
 3557 00e0 4A040000 		.4byte	.LASF19
 3558 00e4 04       		.byte	0x4
 3559 00e5 EA01     		.2byte	0x1ea
 3560 00e7 EB000000 		.4byte	0xeb
 3561 00eb 02       		.uleb128 0x2
 3562 00ec 04       		.byte	0x4
 3563 00ed 04       		.byte	0x4
 3564 00ee 04060000 		.4byte	.LASF20
 3565 00f2 02       		.uleb128 0x2
 3566 00f3 08       		.byte	0x8
 3567 00f4 04       		.byte	0x4
 3568 00f5 5D070000 		.4byte	.LASF21
 3569 00f9 02       		.uleb128 0x2
 3570 00fa 01       		.byte	0x1
 3571 00fb 08       		.byte	0x8
 3572 00fc 0A060000 		.4byte	.LASF22
 3573 0100 02       		.uleb128 0x2
 3574 0101 08       		.byte	0x8
 3575 0102 04       		.byte	0x4
 3576 0103 69040000 		.4byte	.LASF23
 3577 0107 02       		.uleb128 0x2
 3578 0108 04       		.byte	0x4
 3579 0109 07       		.byte	0x7
 3580 010a 52040000 		.4byte	.LASF24
 3581 010e 06       		.uleb128 0x6
 3582 010f F9000000 		.4byte	0xf9
 3583 0113 1E010000 		.4byte	0x11e
 3584 0117 07       		.uleb128 0x7
 3585 0118 07010000 		.4byte	0x107
 3586 011c 07       		.byte	0x7
 3587 011d 00       		.byte	0
 3588 011e 06       		.uleb128 0x6
 3589 011f D3000000 		.4byte	0xd3
 3590 0123 2E010000 		.4byte	0x12e
 3591 0127 07       		.uleb128 0x7
 3592 0128 07010000 		.4byte	0x107
 3593 012c 02       		.byte	0x2
 3594 012d 00       		.byte	0
 3595 012e 06       		.uleb128 0x6
 3596 012f BB000000 		.4byte	0xbb
ARM GAS  C:\Users\Mattia\AppData\Local\Temp\ccYnk7Oc.s 			page 75


 3597 0133 3E010000 		.4byte	0x13e
 3598 0137 07       		.uleb128 0x7
 3599 0138 07010000 		.4byte	0x107
 3600 013c 02       		.byte	0x2
 3601 013d 00       		.byte	0
 3602 013e 08       		.uleb128 0x8
 3603 013f 95050000 		.4byte	.LASF32
 3604 0143 50       		.byte	0x50
 3605 0144 05       		.byte	0x5
 3606 0145 F7       		.byte	0xf7
 3607 0146 9F010000 		.4byte	0x19f
 3608 014a 09       		.uleb128 0x9
 3609 014b A1050000 		.4byte	.LASF25
 3610 014f 05       		.byte	0x5
 3611 0150 F8       		.byte	0xf8
 3612 0151 9F010000 		.4byte	0x19f
 3613 0155 00       		.byte	0
 3614 0156 09       		.uleb128 0x9
 3615 0157 EF030000 		.4byte	.LASF26
 3616 015b 05       		.byte	0x5
 3617 015c F9       		.byte	0xf9
 3618 015d AF010000 		.4byte	0x1af
 3619 0161 08       		.byte	0x8
 3620 0162 09       		.uleb128 0x9
 3621 0163 D6040000 		.4byte	.LASF27
 3622 0167 05       		.byte	0x5
 3623 0168 FA       		.byte	0xfa
 3624 0169 BF010000 		.4byte	0x1bf
 3625 016d 30       		.byte	0x30
 3626 016e 09       		.uleb128 0x9
 3627 016f E4050000 		.4byte	.LASF28
 3628 0173 05       		.byte	0x5
 3629 0174 FB       		.byte	0xfb
 3630 0175 AF000000 		.4byte	0xaf
 3631 0179 40       		.byte	0x40
 3632 017a 09       		.uleb128 0x9
 3633 017b D2010000 		.4byte	.LASF29
 3634 017f 05       		.byte	0x5
 3635 0180 FC       		.byte	0xfc
 3636 0181 AF000000 		.4byte	0xaf
 3637 0185 44       		.byte	0x44
 3638 0186 09       		.uleb128 0x9
 3639 0187 44000000 		.4byte	.LASF30
 3640 018b 05       		.byte	0x5
 3641 018c FD       		.byte	0xfd
 3642 018d AF000000 		.4byte	0xaf
 3643 0191 48       		.byte	0x48
 3644 0192 09       		.uleb128 0x9
 3645 0193 D4050000 		.4byte	.LASF31
 3646 0197 05       		.byte	0x5
 3647 0198 FE       		.byte	0xfe
 3648 0199 AF000000 		.4byte	0xaf
 3649 019d 4C       		.byte	0x4c
 3650 019e 00       		.byte	0
 3651 019f 06       		.uleb128 0x6
 3652 01a0 AF000000 		.4byte	0xaf
 3653 01a4 AF010000 		.4byte	0x1af
ARM GAS  C:\Users\Mattia\AppData\Local\Temp\ccYnk7Oc.s 			page 76


 3654 01a8 07       		.uleb128 0x7
 3655 01a9 07010000 		.4byte	0x107
 3656 01ad 01       		.byte	0x1
 3657 01ae 00       		.byte	0
 3658 01af 06       		.uleb128 0x6
 3659 01b0 AF000000 		.4byte	0xaf
 3660 01b4 BF010000 		.4byte	0x1bf
 3661 01b8 07       		.uleb128 0x7
 3662 01b9 07010000 		.4byte	0x107
 3663 01bd 09       		.byte	0x9
 3664 01be 00       		.byte	0
 3665 01bf 06       		.uleb128 0x6
 3666 01c0 AF000000 		.4byte	0xaf
 3667 01c4 CF010000 		.4byte	0x1cf
 3668 01c8 07       		.uleb128 0x7
 3669 01c9 07010000 		.4byte	0x107
 3670 01cd 03       		.byte	0x3
 3671 01ce 00       		.byte	0
 3672 01cf 0A       		.uleb128 0xa
 3673 01d0 75040000 		.4byte	.LASF33
 3674 01d4 10       		.byte	0x10
 3675 01d5 05       		.byte	0x5
 3676 01d6 0101     		.2byte	0x101
 3677 01d8 5E020000 		.4byte	0x25e
 3678 01dc 0B       		.uleb128 0xb
 3679 01dd 696400   		.ascii	"id\000"
 3680 01e0 05       		.byte	0x5
 3681 01e1 0201     		.2byte	0x102
 3682 01e3 97000000 		.4byte	0x97
 3683 01e7 00       		.byte	0
 3684 01e8 0C       		.uleb128 0xc
 3685 01e9 18040000 		.4byte	.LASF34
 3686 01ed 05       		.byte	0x5
 3687 01ee 0301     		.2byte	0x103
 3688 01f0 5E020000 		.4byte	0x25e
 3689 01f4 01       		.byte	0x1
 3690 01f5 0C       		.uleb128 0xc
 3691 01f6 45070000 		.4byte	.LASF35
 3692 01fa 05       		.byte	0x5
 3693 01fb 0401     		.2byte	0x104
 3694 01fd 5E020000 		.4byte	0x25e
 3695 0201 04       		.byte	0x4
 3696 0202 0C       		.uleb128 0xc
 3697 0203 C7010000 		.4byte	.LASF36
 3698 0207 05       		.byte	0x5
 3699 0208 0501     		.2byte	0x105
 3700 020a 97000000 		.4byte	0x97
 3701 020e 07       		.byte	0x7
 3702 020f 0C       		.uleb128 0xc
 3703 0210 76020000 		.4byte	.LASF37
 3704 0214 05       		.byte	0x5
 3705 0215 0601     		.2byte	0x106
 3706 0217 97000000 		.4byte	0x97
 3707 021b 08       		.byte	0x8
 3708 021c 0C       		.uleb128 0xc
 3709 021d 11000000 		.4byte	.LASF38
 3710 0221 05       		.byte	0x5
ARM GAS  C:\Users\Mattia\AppData\Local\Temp\ccYnk7Oc.s 			page 77


 3711 0222 0701     		.2byte	0x107
 3712 0224 97000000 		.4byte	0x97
 3713 0228 09       		.byte	0x9
 3714 0229 0C       		.uleb128 0xc
 3715 022a 13010000 		.4byte	.LASF39
 3716 022e 05       		.byte	0x5
 3717 022f 0801     		.2byte	0x108
 3718 0231 97000000 		.4byte	0x97
 3719 0235 0A       		.byte	0xa
 3720 0236 0C       		.uleb128 0xc
 3721 0237 60060000 		.4byte	.LASF40
 3722 023b 05       		.byte	0x5
 3723 023c 0901     		.2byte	0x109
 3724 023e 97000000 		.4byte	0x97
 3725 0242 0B       		.byte	0xb
 3726 0243 0C       		.uleb128 0xc
 3727 0244 4E060000 		.4byte	.LASF41
 3728 0248 05       		.byte	0x5
 3729 0249 0A01     		.2byte	0x10a
 3730 024b 97000000 		.4byte	0x97
 3731 024f 0C       		.byte	0xc
 3732 0250 0C       		.uleb128 0xc
 3733 0251 B3030000 		.4byte	.LASF42
 3734 0255 05       		.byte	0x5
 3735 0256 0B01     		.2byte	0x10b
 3736 0258 5E020000 		.4byte	0x25e
 3737 025c 0D       		.byte	0xd
 3738 025d 00       		.byte	0
 3739 025e 06       		.uleb128 0x6
 3740 025f 97000000 		.4byte	0x97
 3741 0263 6E020000 		.4byte	0x26e
 3742 0267 07       		.uleb128 0x7
 3743 0268 07010000 		.4byte	0x107
 3744 026c 02       		.byte	0x2
 3745 026d 00       		.byte	0
 3746 026e 0A       		.uleb128 0xa
 3747 026f 7A060000 		.4byte	.LASF43
 3748 0273 70       		.byte	0x70
 3749 0274 05       		.byte	0x5
 3750 0275 0E01     		.2byte	0x10e
 3751 0277 E8030000 		.4byte	0x3e8
 3752 027b 0B       		.uleb128 0xb
 3753 027c 6B5F7000 		.ascii	"k_p\000"
 3754 0280 05       		.byte	0x5
 3755 0281 0F01     		.2byte	0x10f
 3756 0283 D3000000 		.4byte	0xd3
 3757 0287 00       		.byte	0
 3758 0288 0B       		.uleb128 0xb
 3759 0289 6B5F6900 		.ascii	"k_i\000"
 3760 028d 05       		.byte	0x5
 3761 028e 1001     		.2byte	0x110
 3762 0290 D3000000 		.4byte	0xd3
 3763 0294 04       		.byte	0x4
 3764 0295 0B       		.uleb128 0xb
 3765 0296 6B5F6400 		.ascii	"k_d\000"
 3766 029a 05       		.byte	0x5
 3767 029b 1101     		.2byte	0x111
ARM GAS  C:\Users\Mattia\AppData\Local\Temp\ccYnk7Oc.s 			page 78


 3768 029d D3000000 		.4byte	0xd3
 3769 02a1 08       		.byte	0x8
 3770 02a2 0C       		.uleb128 0xc
 3771 02a3 81050000 		.4byte	.LASF44
 3772 02a7 05       		.byte	0x5
 3773 02a8 1201     		.2byte	0x112
 3774 02aa D3000000 		.4byte	0xd3
 3775 02ae 0C       		.byte	0xc
 3776 02af 0C       		.uleb128 0xc
 3777 02b0 3F070000 		.4byte	.LASF45
 3778 02b4 05       		.byte	0x5
 3779 02b5 1301     		.2byte	0x113
 3780 02b7 D3000000 		.4byte	0xd3
 3781 02bb 10       		.byte	0x10
 3782 02bc 0C       		.uleb128 0xc
 3783 02bd 07040000 		.4byte	.LASF46
 3784 02c1 05       		.byte	0x5
 3785 02c2 1401     		.2byte	0x114
 3786 02c4 D3000000 		.4byte	0xd3
 3787 02c8 14       		.byte	0x14
 3788 02c9 0C       		.uleb128 0xc
 3789 02ca 64070000 		.4byte	.LASF47
 3790 02ce 05       		.byte	0x5
 3791 02cf 1501     		.2byte	0x115
 3792 02d1 D3000000 		.4byte	0xd3
 3793 02d5 18       		.byte	0x18
 3794 02d6 0C       		.uleb128 0xc
 3795 02d7 0F030000 		.4byte	.LASF48
 3796 02db 05       		.byte	0x5
 3797 02dc 1601     		.2byte	0x116
 3798 02de D3000000 		.4byte	0xd3
 3799 02e2 1C       		.byte	0x1c
 3800 02e3 0C       		.uleb128 0xc
 3801 02e4 6F020000 		.4byte	.LASF49
 3802 02e8 05       		.byte	0x5
 3803 02e9 1701     		.2byte	0x117
 3804 02eb D3000000 		.4byte	0xd3
 3805 02ef 20       		.byte	0x20
 3806 02f0 0C       		.uleb128 0xc
 3807 02f1 49020000 		.4byte	.LASF50
 3808 02f5 05       		.byte	0x5
 3809 02f6 1801     		.2byte	0x118
 3810 02f8 D3000000 		.4byte	0xd3
 3811 02fc 24       		.byte	0x24
 3812 02fd 0C       		.uleb128 0xc
 3813 02fe 57060000 		.4byte	.LASF51
 3814 0302 05       		.byte	0x5
 3815 0303 1901     		.2byte	0x119
 3816 0305 D3000000 		.4byte	0xd3
 3817 0309 28       		.byte	0x28
 3818 030a 0C       		.uleb128 0xc
 3819 030b DF060000 		.4byte	.LASF52
 3820 030f 05       		.byte	0x5
 3821 0310 1A01     		.2byte	0x11a
 3822 0312 D3000000 		.4byte	0xd3
 3823 0316 2C       		.byte	0x2c
 3824 0317 0C       		.uleb128 0xc
ARM GAS  C:\Users\Mattia\AppData\Local\Temp\ccYnk7Oc.s 			page 79


 3825 0318 F3040000 		.4byte	.LASF53
 3826 031c 05       		.byte	0x5
 3827 031d 1B01     		.2byte	0x11b
 3828 031f 97000000 		.4byte	0x97
 3829 0323 30       		.byte	0x30
 3830 0324 0C       		.uleb128 0xc
 3831 0325 03020000 		.4byte	.LASF54
 3832 0329 05       		.byte	0x5
 3833 032a 1C01     		.2byte	0x11c
 3834 032c 97000000 		.4byte	0x97
 3835 0330 31       		.byte	0x31
 3836 0331 0C       		.uleb128 0xc
 3837 0332 95030000 		.4byte	.LASF55
 3838 0336 05       		.byte	0x5
 3839 0337 1D01     		.2byte	0x11d
 3840 0339 97000000 		.4byte	0x97
 3841 033d 32       		.byte	0x32
 3842 033e 0C       		.uleb128 0xc
 3843 033f B3050000 		.4byte	.LASF56
 3844 0343 05       		.byte	0x5
 3845 0344 1E01     		.2byte	0x11e
 3846 0346 97000000 		.4byte	0x97
 3847 034a 33       		.byte	0x33
 3848 034b 0C       		.uleb128 0xc
 3849 034c A7030000 		.4byte	.LASF57
 3850 0350 05       		.byte	0x5
 3851 0351 1F01     		.2byte	0x11f
 3852 0353 D3000000 		.4byte	0xd3
 3853 0357 34       		.byte	0x34
 3854 0358 0C       		.uleb128 0xc
 3855 0359 B2040000 		.4byte	.LASF58
 3856 035d 05       		.byte	0x5
 3857 035e 2001     		.2byte	0x120
 3858 0360 D3000000 		.4byte	0xd3
 3859 0364 38       		.byte	0x38
 3860 0365 0C       		.uleb128 0xc
 3861 0366 6E010000 		.4byte	.LASF59
 3862 036a 05       		.byte	0x5
 3863 036b 2101     		.2byte	0x121
 3864 036d D3000000 		.4byte	0xd3
 3865 0371 3C       		.byte	0x3c
 3866 0372 0C       		.uleb128 0xc
 3867 0373 C7050000 		.4byte	.LASF60
 3868 0377 05       		.byte	0x5
 3869 0378 2201     		.2byte	0x122
 3870 037a D3000000 		.4byte	0xd3
 3871 037e 40       		.byte	0x40
 3872 037f 0C       		.uleb128 0xc
 3873 0380 A4060000 		.4byte	.LASF61
 3874 0384 05       		.byte	0x5
 3875 0385 2301     		.2byte	0x123
 3876 0387 E8030000 		.4byte	0x3e8
 3877 038b 44       		.byte	0x44
 3878 038c 0C       		.uleb128 0xc
 3879 038d 87050000 		.4byte	.LASF62
 3880 0391 05       		.byte	0x5
 3881 0392 2401     		.2byte	0x124
ARM GAS  C:\Users\Mattia\AppData\Local\Temp\ccYnk7Oc.s 			page 80


 3882 0394 C7000000 		.4byte	0xc7
 3883 0398 5C       		.byte	0x5c
 3884 0399 0C       		.uleb128 0xc
 3885 039a 64020000 		.4byte	.LASF63
 3886 039e 05       		.byte	0x5
 3887 039f 2501     		.2byte	0x125
 3888 03a1 97000000 		.4byte	0x97
 3889 03a5 5E       		.byte	0x5e
 3890 03a6 0C       		.uleb128 0xc
 3891 03a7 E8010000 		.4byte	.LASF64
 3892 03ab 05       		.byte	0x5
 3893 03ac 2601     		.2byte	0x126
 3894 03ae 97000000 		.4byte	0x97
 3895 03b2 5F       		.byte	0x5f
 3896 03b3 0C       		.uleb128 0xc
 3897 03b4 58000000 		.4byte	.LASF65
 3898 03b8 05       		.byte	0x5
 3899 03b9 2701     		.2byte	0x127
 3900 03bb 97000000 		.4byte	0x97
 3901 03bf 60       		.byte	0x60
 3902 03c0 0C       		.uleb128 0xc
 3903 03c1 6B070000 		.4byte	.LASF66
 3904 03c5 05       		.byte	0x5
 3905 03c6 2801     		.2byte	0x128
 3906 03c8 97000000 		.4byte	0x97
 3907 03cc 61       		.byte	0x61
 3908 03cd 0C       		.uleb128 0xc
 3909 03ce AA010000 		.4byte	.LASF67
 3910 03d2 05       		.byte	0x5
 3911 03d3 2901     		.2byte	0x129
 3912 03d5 97000000 		.4byte	0x97
 3913 03d9 62       		.byte	0x62
 3914 03da 0C       		.uleb128 0xc
 3915 03db B3030000 		.4byte	.LASF42
 3916 03df 05       		.byte	0x5
 3917 03e0 2A01     		.2byte	0x12a
 3918 03e2 F8030000 		.4byte	0x3f8
 3919 03e6 63       		.byte	0x63
 3920 03e7 00       		.byte	0
 3921 03e8 06       		.uleb128 0x6
 3922 03e9 EB000000 		.4byte	0xeb
 3923 03ed F8030000 		.4byte	0x3f8
 3924 03f1 07       		.uleb128 0x7
 3925 03f2 07010000 		.4byte	0x107
 3926 03f6 05       		.byte	0x5
 3927 03f7 00       		.byte	0
 3928 03f8 06       		.uleb128 0x6
 3929 03f9 97000000 		.4byte	0x97
 3930 03fd 08040000 		.4byte	0x408
 3931 0401 07       		.uleb128 0x7
 3932 0402 07010000 		.4byte	0x107
 3933 0406 0C       		.byte	0xc
 3934 0407 00       		.byte	0
 3935 0408 0A       		.uleb128 0xa
 3936 0409 7C070000 		.4byte	.LASF68
 3937 040d 30       		.byte	0x30
 3938 040e 05       		.byte	0x5
ARM GAS  C:\Users\Mattia\AppData\Local\Temp\ccYnk7Oc.s 			page 81


 3939 040f 2D01     		.2byte	0x12d
 3940 0411 8B040000 		.4byte	0x48b
 3941 0415 0C       		.uleb128 0xc
 3942 0416 68060000 		.4byte	.LASF69
 3943 041a 05       		.byte	0x5
 3944 041b 2E01     		.2byte	0x12e
 3945 041d 8B040000 		.4byte	0x48b
 3946 0421 00       		.byte	0
 3947 0422 0B       		.uleb128 0xb
 3948 0423 72657300 		.ascii	"res\000"
 3949 0427 05       		.byte	0x5
 3950 0428 2F01     		.2byte	0x12f
 3951 042a 5E020000 		.4byte	0x25e
 3952 042e 05       		.byte	0x5
 3953 042f 0C       		.uleb128 0xc
 3954 0430 52000000 		.4byte	.LASF70
 3955 0434 05       		.byte	0x5
 3956 0435 3001     		.2byte	0x130
 3957 0437 1E010000 		.4byte	0x11e
 3958 043b 08       		.byte	0x8
 3959 043c 0C       		.uleb128 0xc
 3960 043d 52020000 		.4byte	.LASF71
 3961 0441 05       		.byte	0x5
 3962 0442 3101     		.2byte	0x131
 3963 0444 9B040000 		.4byte	0x49b
 3964 0448 14       		.byte	0x14
 3965 0449 0C       		.uleb128 0xc
 3966 044a 29070000 		.4byte	.LASF72
 3967 044e 05       		.byte	0x5
 3968 044f 3201     		.2byte	0x132
 3969 0451 97000000 		.4byte	0x97
 3970 0455 20       		.byte	0x20
 3971 0456 0C       		.uleb128 0xc
 3972 0457 FF040000 		.4byte	.LASF73
 3973 045b 05       		.byte	0x5
 3974 045c 3301     		.2byte	0x133
 3975 045e 5E020000 		.4byte	0x25e
 3976 0462 21       		.byte	0x21
 3977 0463 0C       		.uleb128 0xc
 3978 0464 DF020000 		.4byte	.LASF74
 3979 0468 05       		.byte	0x5
 3980 0469 3401     		.2byte	0x134
 3981 046b BB000000 		.4byte	0xbb
 3982 046f 24       		.byte	0x24
 3983 0470 0C       		.uleb128 0xc
 3984 0471 51050000 		.4byte	.LASF75
 3985 0475 05       		.byte	0x5
 3986 0476 3501     		.2byte	0x135
 3987 0478 2E010000 		.4byte	0x12e
 3988 047c 25       		.byte	0x25
 3989 047d 0C       		.uleb128 0xc
 3990 047e B3030000 		.4byte	.LASF42
 3991 0482 05       		.byte	0x5
 3992 0483 3601     		.2byte	0x136
 3993 0485 AB040000 		.4byte	0x4ab
 3994 0489 28       		.byte	0x28
 3995 048a 00       		.byte	0
ARM GAS  C:\Users\Mattia\AppData\Local\Temp\ccYnk7Oc.s 			page 82


 3996 048b 06       		.uleb128 0x6
 3997 048c 97000000 		.4byte	0x97
 3998 0490 9B040000 		.4byte	0x49b
 3999 0494 07       		.uleb128 0x7
 4000 0495 07010000 		.4byte	0x107
 4001 0499 04       		.byte	0x4
 4002 049a 00       		.byte	0
 4003 049b 06       		.uleb128 0x6
 4004 049c DF000000 		.4byte	0xdf
 4005 04a0 AB040000 		.4byte	0x4ab
 4006 04a4 07       		.uleb128 0x7
 4007 04a5 07010000 		.4byte	0x107
 4008 04a9 02       		.byte	0x2
 4009 04aa 00       		.byte	0
 4010 04ab 06       		.uleb128 0x6
 4011 04ac 97000000 		.4byte	0x97
 4012 04b0 BB040000 		.4byte	0x4bb
 4013 04b4 07       		.uleb128 0x7
 4014 04b5 07010000 		.4byte	0x107
 4015 04b9 07       		.byte	0x7
 4016 04ba 00       		.byte	0
 4017 04bb 0A       		.uleb128 0xa
 4018 04bc C0050000 		.4byte	.LASF76
 4019 04c0 10       		.byte	0x10
 4020 04c1 05       		.byte	0x5
 4021 04c2 3901     		.2byte	0x139
 4022 04c4 17050000 		.4byte	0x517
 4023 04c8 0C       		.uleb128 0xc
 4024 04c9 46010000 		.4byte	.LASF77
 4025 04cd 05       		.byte	0x5
 4026 04ce 3A01     		.2byte	0x13a
 4027 04d0 17050000 		.4byte	0x517
 4028 04d4 00       		.byte	0
 4029 04d5 0C       		.uleb128 0xc
 4030 04d6 D1060000 		.4byte	.LASF78
 4031 04da 05       		.byte	0x5
 4032 04db 3B01     		.2byte	0x13b
 4033 04dd 9F010000 		.4byte	0x19f
 4034 04e1 04       		.byte	0x4
 4035 04e2 0C       		.uleb128 0xc
 4036 04e3 C7060000 		.4byte	.LASF79
 4037 04e7 05       		.byte	0x5
 4038 04e8 3C01     		.2byte	0x13c
 4039 04ea 97000000 		.4byte	0x97
 4040 04ee 0C       		.byte	0xc
 4041 04ef 0C       		.uleb128 0xc
 4042 04f0 8F060000 		.4byte	.LASF80
 4043 04f4 05       		.byte	0x5
 4044 04f5 3D01     		.2byte	0x13d
 4045 04f7 97000000 		.4byte	0x97
 4046 04fb 0D       		.byte	0xd
 4047 04fc 0C       		.uleb128 0xc
 4048 04fd 59020000 		.4byte	.LASF81
 4049 0501 05       		.byte	0x5
 4050 0502 3E01     		.2byte	0x13e
 4051 0504 97000000 		.4byte	0x97
 4052 0508 0E       		.byte	0xe
ARM GAS  C:\Users\Mattia\AppData\Local\Temp\ccYnk7Oc.s 			page 83


 4053 0509 0C       		.uleb128 0xc
 4054 050a B3030000 		.4byte	.LASF42
 4055 050e 05       		.byte	0x5
 4056 050f 3F01     		.2byte	0x13f
 4057 0511 27050000 		.4byte	0x527
 4058 0515 0F       		.byte	0xf
 4059 0516 00       		.byte	0
 4060 0517 06       		.uleb128 0x6
 4061 0518 A3000000 		.4byte	0xa3
 4062 051c 27050000 		.4byte	0x527
 4063 0520 07       		.uleb128 0x7
 4064 0521 07010000 		.4byte	0x107
 4065 0525 01       		.byte	0x1
 4066 0526 00       		.byte	0
 4067 0527 06       		.uleb128 0x6
 4068 0528 97000000 		.4byte	0x97
 4069 052c 37050000 		.4byte	0x537
 4070 0530 07       		.uleb128 0x7
 4071 0531 07010000 		.4byte	0x107
 4072 0535 00       		.byte	0
 4073 0536 00       		.byte	0
 4074 0537 0A       		.uleb128 0xa
 4075 0538 35000000 		.4byte	.LASF82
 4076 053c 20       		.byte	0x20
 4077 053d 05       		.byte	0x5
 4078 053e 4201     		.2byte	0x142
 4079 0540 79050000 		.4byte	0x579
 4080 0544 0C       		.uleb128 0xc
 4081 0545 B0060000 		.4byte	.LASF83
 4082 0549 05       		.byte	0x5
 4083 054a 4301     		.2byte	0x143
 4084 054c 97000000 		.4byte	0x97
 4085 0550 00       		.byte	0
 4086 0551 0C       		.uleb128 0xc
 4087 0552 1A020000 		.4byte	.LASF84
 4088 0556 05       		.byte	0x5
 4089 0557 4401     		.2byte	0x144
 4090 0559 97000000 		.4byte	0x97
 4091 055d 01       		.byte	0x1
 4092 055e 0C       		.uleb128 0xc
 4093 055f 26040000 		.4byte	.LASF85
 4094 0563 05       		.byte	0x5
 4095 0564 4501     		.2byte	0x145
 4096 0566 79050000 		.4byte	0x579
 4097 056a 02       		.byte	0x2
 4098 056b 0C       		.uleb128 0xc
 4099 056c B3030000 		.4byte	.LASF42
 4100 0570 05       		.byte	0x5
 4101 0571 4601     		.2byte	0x146
 4102 0573 8B040000 		.4byte	0x48b
 4103 0577 1B       		.byte	0x1b
 4104 0578 00       		.byte	0
 4105 0579 06       		.uleb128 0x6
 4106 057a 97000000 		.4byte	0x97
 4107 057e 8F050000 		.4byte	0x58f
 4108 0582 07       		.uleb128 0x7
 4109 0583 07010000 		.4byte	0x107
ARM GAS  C:\Users\Mattia\AppData\Local\Temp\ccYnk7Oc.s 			page 84


 4110 0587 04       		.byte	0x4
 4111 0588 07       		.uleb128 0x7
 4112 0589 07010000 		.4byte	0x107
 4113 058d 04       		.byte	0x4
 4114 058e 00       		.byte	0
 4115 058f 0A       		.uleb128 0xa
 4116 0590 31060000 		.4byte	.LASF86
 4117 0594 20       		.byte	0x20
 4118 0595 05       		.byte	0x5
 4119 0596 4901     		.2byte	0x149
 4120 0598 DE050000 		.4byte	0x5de
 4121 059c 0C       		.uleb128 0xc
 4122 059d E3040000 		.4byte	.LASF87
 4123 05a1 05       		.byte	0x5
 4124 05a2 4A01     		.2byte	0x14a
 4125 05a4 DE050000 		.4byte	0x5de
 4126 05a8 00       		.byte	0
 4127 05a9 0C       		.uleb128 0xc
 4128 05aa F9060000 		.4byte	.LASF88
 4129 05ae 05       		.byte	0x5
 4130 05af 4B01     		.2byte	0x14b
 4131 05b1 97000000 		.4byte	0x97
 4132 05b5 06       		.byte	0x6
 4133 05b6 0C       		.uleb128 0xc
 4134 05b7 39030000 		.4byte	.LASF89
 4135 05bb 05       		.byte	0x5
 4136 05bc 4C01     		.2byte	0x14c
 4137 05be 97000000 		.4byte	0x97
 4138 05c2 07       		.byte	0x7
 4139 05c3 0C       		.uleb128 0xc
 4140 05c4 5E050000 		.4byte	.LASF90
 4141 05c8 05       		.byte	0x5
 4142 05c9 4D01     		.2byte	0x14d
 4143 05cb EE050000 		.4byte	0x5ee
 4144 05cf 08       		.byte	0x8
 4145 05d0 0C       		.uleb128 0xc
 4146 05d1 B3030000 		.4byte	.LASF42
 4147 05d5 05       		.byte	0x5
 4148 05d6 4E01     		.2byte	0x14e
 4149 05d8 EE050000 		.4byte	0x5ee
 4150 05dc 14       		.byte	0x14
 4151 05dd 00       		.byte	0
 4152 05de 06       		.uleb128 0x6
 4153 05df 97000000 		.4byte	0x97
 4154 05e3 EE050000 		.4byte	0x5ee
 4155 05e7 07       		.uleb128 0x7
 4156 05e8 07010000 		.4byte	0x107
 4157 05ec 05       		.byte	0x5
 4158 05ed 00       		.byte	0
 4159 05ee 06       		.uleb128 0x6
 4160 05ef 97000000 		.4byte	0x97
 4161 05f3 FE050000 		.4byte	0x5fe
 4162 05f7 07       		.uleb128 0x7
 4163 05f8 07010000 		.4byte	0x107
 4164 05fc 0B       		.byte	0xb
 4165 05fd 00       		.byte	0
 4166 05fe 0A       		.uleb128 0xa
ARM GAS  C:\Users\Mattia\AppData\Local\Temp\ccYnk7Oc.s 			page 85


 4167 05ff 3C000000 		.4byte	.LASF91
 4168 0603 20       		.byte	0x20
 4169 0604 05       		.byte	0x5
 4170 0605 5101     		.2byte	0x151
 4171 0607 33060000 		.4byte	0x633
 4172 060b 0C       		.uleb128 0xc
 4173 060c 39040000 		.4byte	.LASF92
 4174 0610 05       		.byte	0x5
 4175 0611 5201     		.2byte	0x152
 4176 0613 0E010000 		.4byte	0x10e
 4177 0617 00       		.byte	0
 4178 0618 0C       		.uleb128 0xc
 4179 0619 64030000 		.4byte	.LASF93
 4180 061d 05       		.byte	0x5
 4181 061e 5301     		.2byte	0x153
 4182 0620 BB040000 		.4byte	0x4bb
 4183 0624 08       		.byte	0x8
 4184 0625 0C       		.uleb128 0xc
 4185 0626 B3030000 		.4byte	.LASF42
 4186 062a 05       		.byte	0x5
 4187 062b 5401     		.2byte	0x154
 4188 062d AB040000 		.4byte	0x4ab
 4189 0631 18       		.byte	0x18
 4190 0632 00       		.byte	0
 4191 0633 0A       		.uleb128 0xa
 4192 0634 43060000 		.4byte	.LASF94
 4193 0638 10       		.byte	0x10
 4194 0639 05       		.byte	0x5
 4195 063a 5701     		.2byte	0x157
 4196 063c 82060000 		.4byte	0x682
 4197 0640 0C       		.uleb128 0xc
 4198 0641 A9040000 		.4byte	.LASF95
 4199 0645 05       		.byte	0x5
 4200 0646 5801     		.2byte	0x158
 4201 0648 D3000000 		.4byte	0xd3
 4202 064c 00       		.byte	0
 4203 064d 0C       		.uleb128 0xc
 4204 064e 1D010000 		.4byte	.LASF96
 4205 0652 05       		.byte	0x5
 4206 0653 5901     		.2byte	0x159
 4207 0655 D3000000 		.4byte	0xd3
 4208 0659 04       		.byte	0x4
 4209 065a 0C       		.uleb128 0xc
 4210 065b 35010000 		.4byte	.LASF97
 4211 065f 05       		.byte	0x5
 4212 0660 5A01     		.2byte	0x15a
 4213 0662 D3000000 		.4byte	0xd3
 4214 0666 08       		.byte	0x8
 4215 0667 0C       		.uleb128 0xc
 4216 0668 0F060000 		.4byte	.LASF98
 4217 066c 05       		.byte	0x5
 4218 066d 5B01     		.2byte	0x15b
 4219 066f 97000000 		.4byte	0x97
 4220 0673 0C       		.byte	0xc
 4221 0674 0C       		.uleb128 0xc
 4222 0675 B3030000 		.4byte	.LASF42
 4223 0679 05       		.byte	0x5
ARM GAS  C:\Users\Mattia\AppData\Local\Temp\ccYnk7Oc.s 			page 86


 4224 067a 5C01     		.2byte	0x15c
 4225 067c 5E020000 		.4byte	0x25e
 4226 0680 0D       		.byte	0xd
 4227 0681 00       		.byte	0
 4228 0682 0D       		.uleb128 0xd
 4229 0683 30020000 		.4byte	.LASF99
 4230 0687 B002     		.2byte	0x2b0
 4231 0689 05       		.byte	0x5
 4232 068a 6101     		.2byte	0x161
 4233 068c 32070000 		.4byte	0x732
 4234 0690 0C       		.uleb128 0xc
 4235 0691 7C050000 		.4byte	.LASF100
 4236 0695 05       		.byte	0x5
 4237 0696 6301     		.2byte	0x163
 4238 0698 97000000 		.4byte	0x97
 4239 069c 00       		.byte	0
 4240 069d 0C       		.uleb128 0xc
 4241 069e B3030000 		.4byte	.LASF42
 4242 06a2 05       		.byte	0x5
 4243 06a3 6401     		.2byte	0x164
 4244 06a5 32070000 		.4byte	0x732
 4245 06a9 01       		.byte	0x1
 4246 06aa 0B       		.uleb128 0xb
 4247 06ab 636E7400 		.ascii	"cnt\000"
 4248 06af 05       		.byte	0x5
 4249 06b0 6501     		.2byte	0x165
 4250 06b2 3E010000 		.4byte	0x13e
 4251 06b6 10       		.byte	0x10
 4252 06b7 0C       		.uleb128 0xc
 4253 06b8 F5010000 		.4byte	.LASF101
 4254 06bc 05       		.byte	0x5
 4255 06bd 6601     		.2byte	0x166
 4256 06bf 42070000 		.4byte	0x742
 4257 06c3 60       		.byte	0x60
 4258 06c4 0B       		.uleb128 0xb
 4259 06c5 64657600 		.ascii	"dev\000"
 4260 06c9 05       		.byte	0x5
 4261 06ca 6701     		.2byte	0x167
 4262 06cc CF010000 		.4byte	0x1cf
 4263 06d0 A0       		.byte	0xa0
 4264 06d1 0C       		.uleb128 0xc
 4265 06d2 F9040000 		.4byte	.LASF102
 4266 06d6 05       		.byte	0x5
 4267 06d7 6801     		.2byte	0x168
 4268 06d9 52070000 		.4byte	0x752
 4269 06dd B0       		.byte	0xb0
 4270 06de 0E       		.uleb128 0xe
 4271 06df 656E6300 		.ascii	"enc\000"
 4272 06e3 05       		.byte	0x5
 4273 06e4 6901     		.2byte	0x169
 4274 06e6 62070000 		.4byte	0x762
 4275 06ea 9001     		.2byte	0x190
 4276 06ec 0E       		.uleb128 0xe
 4277 06ed 656D6700 		.ascii	"emg\000"
 4278 06f1 05       		.byte	0x5
 4279 06f2 6A01     		.2byte	0x16a
 4280 06f4 BB040000 		.4byte	0x4bb
ARM GAS  C:\Users\Mattia\AppData\Local\Temp\ccYnk7Oc.s 			page 87


 4281 06f8 F001     		.2byte	0x1f0
 4282 06fa 0E       		.uleb128 0xe
 4283 06fb 696D7500 		.ascii	"imu\000"
 4284 06ff 05       		.byte	0x5
 4285 0700 6B01     		.2byte	0x16b
 4286 0702 37050000 		.4byte	0x537
 4287 0706 0002     		.2byte	0x200
 4288 0708 0E       		.uleb128 0xe
 4289 0709 65787000 		.ascii	"exp\000"
 4290 070d 05       		.byte	0x5
 4291 070e 6C01     		.2byte	0x16c
 4292 0710 8F050000 		.4byte	0x58f
 4293 0714 2002     		.2byte	0x220
 4294 0716 0F       		.uleb128 0xf
 4295 0717 17050000 		.4byte	.LASF103
 4296 071b 05       		.byte	0x5
 4297 071c 6D01     		.2byte	0x16d
 4298 071e 72070000 		.4byte	0x772
 4299 0722 4002     		.2byte	0x240
 4300 0724 0E       		.uleb128 0xe
 4301 0725 534800   		.ascii	"SH\000"
 4302 0728 05       		.byte	0x5
 4303 0729 6F01     		.2byte	0x16f
 4304 072b 33060000 		.4byte	0x633
 4305 072f A002     		.2byte	0x2a0
 4306 0731 00       		.byte	0
 4307 0732 06       		.uleb128 0x6
 4308 0733 97000000 		.4byte	0x97
 4309 0737 42070000 		.4byte	0x742
 4310 073b 07       		.uleb128 0x7
 4311 073c 07010000 		.4byte	0x107
 4312 0740 0E       		.byte	0xe
 4313 0741 00       		.byte	0
 4314 0742 06       		.uleb128 0x6
 4315 0743 97000000 		.4byte	0x97
 4316 0747 52070000 		.4byte	0x752
 4317 074b 07       		.uleb128 0x7
 4318 074c 07010000 		.4byte	0x107
 4319 0750 3F       		.byte	0x3f
 4320 0751 00       		.byte	0
 4321 0752 06       		.uleb128 0x6
 4322 0753 6E020000 		.4byte	0x26e
 4323 0757 62070000 		.4byte	0x762
 4324 075b 07       		.uleb128 0x7
 4325 075c 07010000 		.4byte	0x107
 4326 0760 01       		.byte	0x1
 4327 0761 00       		.byte	0
 4328 0762 06       		.uleb128 0x6
 4329 0763 08040000 		.4byte	0x408
 4330 0767 72070000 		.4byte	0x772
 4331 076b 07       		.uleb128 0x7
 4332 076c 07010000 		.4byte	0x107
 4333 0770 01       		.byte	0x1
 4334 0771 00       		.byte	0
 4335 0772 06       		.uleb128 0x6
 4336 0773 FE050000 		.4byte	0x5fe
 4337 0777 82070000 		.4byte	0x782
ARM GAS  C:\Users\Mattia\AppData\Local\Temp\ccYnk7Oc.s 			page 88


 4338 077b 07       		.uleb128 0x7
 4339 077c 07010000 		.4byte	0x107
 4340 0780 02       		.byte	0x2
 4341 0781 00       		.byte	0
 4342 0782 0A       		.uleb128 0xa
 4343 0783 E3030000 		.4byte	.LASF104
 4344 0787 28       		.byte	0x28
 4345 0788 05       		.byte	0x5
 4346 0789 7A01     		.2byte	0x17a
 4347 078b DE070000 		.4byte	0x7de
 4348 078f 0C       		.uleb128 0xc
 4349 0790 E8060000 		.4byte	.LASF105
 4350 0794 05       		.byte	0x5
 4351 0795 7B01     		.2byte	0x17b
 4352 0797 97000000 		.4byte	0x97
 4353 079b 00       		.byte	0
 4354 079c 0C       		.uleb128 0xc
 4355 079d DC010000 		.4byte	.LASF106
 4356 07a1 05       		.byte	0x5
 4357 07a2 7C01     		.2byte	0x17c
 4358 07a4 DE070000 		.4byte	0x7de
 4359 07a8 02       		.byte	0x2
 4360 07a9 0C       		.uleb128 0xc
 4361 07aa CE030000 		.4byte	.LASF107
 4362 07ae 05       		.byte	0x5
 4363 07af 7D01     		.2byte	0x17d
 4364 07b1 DE070000 		.4byte	0x7de
 4365 07b5 08       		.byte	0x8
 4366 07b6 0C       		.uleb128 0xc
 4367 07b7 2F040000 		.4byte	.LASF108
 4368 07bb 05       		.byte	0x5
 4369 07bc 7E01     		.2byte	0x17e
 4370 07be DE070000 		.4byte	0x7de
 4371 07c2 0E       		.byte	0xe
 4372 07c3 0C       		.uleb128 0xc
 4373 07c4 71050000 		.4byte	.LASF109
 4374 07c8 05       		.byte	0x5
 4375 07c9 7F01     		.2byte	0x17f
 4376 07cb EE070000 		.4byte	0x7ee
 4377 07cf 14       		.byte	0x14
 4378 07d0 0C       		.uleb128 0xc
 4379 07d1 EE060000 		.4byte	.LASF110
 4380 07d5 05       		.byte	0x5
 4381 07d6 8001     		.2byte	0x180
 4382 07d8 C7000000 		.4byte	0xc7
 4383 07dc 24       		.byte	0x24
 4384 07dd 00       		.byte	0
 4385 07de 06       		.uleb128 0x6
 4386 07df C7000000 		.4byte	0xc7
 4387 07e3 EE070000 		.4byte	0x7ee
 4388 07e7 07       		.uleb128 0x7
 4389 07e8 07010000 		.4byte	0x107
 4390 07ec 02       		.byte	0x2
 4391 07ed 00       		.byte	0
 4392 07ee 06       		.uleb128 0x6
 4393 07ef EB000000 		.4byte	0xeb
 4394 07f3 FE070000 		.4byte	0x7fe
ARM GAS  C:\Users\Mattia\AppData\Local\Temp\ccYnk7Oc.s 			page 89


 4395 07f7 07       		.uleb128 0x7
 4396 07f8 07010000 		.4byte	0x107
 4397 07fc 03       		.byte	0x3
 4398 07fd 00       		.byte	0
 4399 07fe 10       		.uleb128 0x10
 4400 07ff D9030000 		.4byte	.LASF113
 4401 0803 01       		.byte	0x1
 4402 0804 37       		.byte	0x37
 4403 0805 00000000 		.4byte	.LFB64
 4404 0809 74000000 		.4byte	.LFE64-.LFB64
 4405 080d 01       		.uleb128 0x1
 4406 080e 9C       		.byte	0x9c
 4407 080f 20080000 		.4byte	0x820
 4408 0813 11       		.uleb128 0x11
 4409 0814 6900     		.ascii	"i\000"
 4410 0816 01       		.byte	0x1
 4411 0817 38       		.byte	0x38
 4412 0818 97000000 		.4byte	0x97
 4413 081c 02       		.uleb128 0x2
 4414 081d 91       		.byte	0x91
 4415 081e 77       		.sleb128 -9
 4416 081f 00       		.byte	0
 4417 0820 12       		.uleb128 0x12
 4418 0821 16030000 		.4byte	.LASF111
 4419 0825 01       		.byte	0x1
 4420 0826 4B       		.byte	0x4b
 4421 0827 00000000 		.4byte	.LFB65
 4422 082b DA000000 		.4byte	.LFE65-.LFB65
 4423 082f 01       		.uleb128 0x1
 4424 0830 9C       		.byte	0x9c
 4425 0831 12       		.uleb128 0x12
 4426 0832 5B040000 		.4byte	.LASF112
 4427 0836 01       		.byte	0x1
 4428 0837 76       		.byte	0x76
 4429 0838 00000000 		.4byte	.LFB66
 4430 083c DA000000 		.4byte	.LFE66-.LFB66
 4431 0840 01       		.uleb128 0x1
 4432 0841 9C       		.byte	0x9c
 4433 0842 13       		.uleb128 0x13
 4434 0843 BE040000 		.4byte	.LASF118
 4435 0847 01       		.byte	0x1
 4436 0848 9E       		.byte	0x9e
 4437 0849 00000000 		.4byte	.LFB67
 4438 084d 20000000 		.4byte	.LFE67-.LFB67
 4439 0851 01       		.uleb128 0x1
 4440 0852 9C       		.byte	0x9c
 4441 0853 64080000 		.4byte	0x864
 4442 0857 14       		.uleb128 0x14
 4443 0858 6E00     		.ascii	"n\000"
 4444 085a 01       		.byte	0x1
 4445 085b 9E       		.byte	0x9e
 4446 085c 73000000 		.4byte	0x73
 4447 0860 02       		.uleb128 0x2
 4448 0861 91       		.byte	0x91
 4449 0862 74       		.sleb128 -12
 4450 0863 00       		.byte	0
 4451 0864 10       		.uleb128 0x10
ARM GAS  C:\Users\Mattia\AppData\Local\Temp\ccYnk7Oc.s 			page 90


 4452 0865 22060000 		.4byte	.LASF114
 4453 0869 01       		.byte	0x1
 4454 086a A8       		.byte	0xa8
 4455 086b 00000000 		.4byte	.LFB68
 4456 086f C0020000 		.4byte	.LFE68-.LFB68
 4457 0873 01       		.uleb128 0x1
 4458 0874 9C       		.byte	0x9c
 4459 0875 B2080000 		.4byte	0x8b2
 4460 0879 15       		.uleb128 0x15
 4461 087a ED040000 		.4byte	.LASF115
 4462 087e 01       		.byte	0x1
 4463 087f AA       		.byte	0xaa
 4464 0880 97000000 		.4byte	0x97
 4465 0884 02       		.uleb128 0x2
 4466 0885 91       		.byte	0x91
 4467 0886 6F       		.sleb128 -17
 4468 0887 15       		.uleb128 0x15
 4469 0888 0B000000 		.4byte	.LASF116
 4470 088c 01       		.byte	0x1
 4471 088d AB       		.byte	0xab
 4472 088e 97000000 		.4byte	0x97
 4473 0892 02       		.uleb128 0x2
 4474 0893 91       		.byte	0x91
 4475 0894 6E       		.sleb128 -18
 4476 0895 15       		.uleb128 0x15
 4477 0896 9A010000 		.4byte	.LASF117
 4478 089a 01       		.byte	0x1
 4479 089b AC       		.byte	0xac
 4480 089c 73000000 		.4byte	0x73
 4481 08a0 02       		.uleb128 0x2
 4482 08a1 91       		.byte	0x91
 4483 08a2 68       		.sleb128 -24
 4484 08a3 11       		.uleb128 0x11
 4485 08a4 746D7000 		.ascii	"tmp\000"
 4486 08a8 01       		.byte	0x1
 4487 08a9 AD       		.byte	0xad
 4488 08aa B2080000 		.4byte	0x8b2
 4489 08ae 02       		.uleb128 0x2
 4490 08af 91       		.byte	0x91
 4491 08b0 54       		.sleb128 -44
 4492 08b1 00       		.byte	0
 4493 08b2 06       		.uleb128 0x6
 4494 08b3 73000000 		.4byte	0x73
 4495 08b7 C2080000 		.4byte	0x8c2
 4496 08bb 07       		.uleb128 0x7
 4497 08bc 07010000 		.4byte	0x107
 4498 08c0 04       		.byte	0x4
 4499 08c1 00       		.byte	0
 4500 08c2 16       		.uleb128 0x16
 4501 08c3 CE040000 		.4byte	.LASF119
 4502 08c7 01       		.byte	0x1
 4503 08c8 0901     		.2byte	0x109
 4504 08ca 00000000 		.4byte	.LFB69
 4505 08ce A0000000 		.4byte	.LFE69-.LFB69
 4506 08d2 01       		.uleb128 0x1
 4507 08d3 9C       		.byte	0x9c
 4508 08d4 E6080000 		.4byte	0x8e6
ARM GAS  C:\Users\Mattia\AppData\Local\Temp\ccYnk7Oc.s 			page 91


 4509 08d8 17       		.uleb128 0x17
 4510 08d9 6E00     		.ascii	"n\000"
 4511 08db 01       		.byte	0x1
 4512 08dc 0901     		.2byte	0x109
 4513 08de 73000000 		.4byte	0x73
 4514 08e2 02       		.uleb128 0x2
 4515 08e3 91       		.byte	0x91
 4516 08e4 74       		.sleb128 -12
 4517 08e5 00       		.byte	0
 4518 08e6 16       		.uleb128 0x16
 4519 08e7 1B070000 		.4byte	.LASF120
 4520 08eb 01       		.byte	0x1
 4521 08ec 1501     		.2byte	0x115
 4522 08ee 00000000 		.4byte	.LFB70
 4523 08f2 04010000 		.4byte	.LFE70-.LFB70
 4524 08f6 01       		.uleb128 0x1
 4525 08f7 9C       		.byte	0x9c
 4526 08f8 37090000 		.4byte	0x937
 4527 08fc 17       		.uleb128 0x17
 4528 08fd 6E00     		.ascii	"n\000"
 4529 08ff 01       		.byte	0x1
 4530 0900 1501     		.2byte	0x115
 4531 0902 73000000 		.4byte	0x73
 4532 0906 02       		.uleb128 0x2
 4533 0907 91       		.byte	0x91
 4534 0908 6C       		.sleb128 -20
 4535 0909 18       		.uleb128 0x18
 4536 090a 6C6F7700 		.ascii	"low\000"
 4537 090e 01       		.byte	0x1
 4538 090f 1701     		.2byte	0x117
 4539 0911 97000000 		.4byte	0x97
 4540 0915 02       		.uleb128 0x2
 4541 0916 91       		.byte	0x91
 4542 0917 77       		.sleb128 -9
 4543 0918 19       		.uleb128 0x19
 4544 0919 3E060000 		.4byte	.LASF121
 4545 091d 01       		.byte	0x1
 4546 091e 1701     		.2byte	0x117
 4547 0920 97000000 		.4byte	0x97
 4548 0924 02       		.uleb128 0x2
 4549 0925 91       		.byte	0x91
 4550 0926 76       		.sleb128 -10
 4551 0927 18       		.uleb128 0x18
 4552 0928 726F7700 		.ascii	"row\000"
 4553 092c 01       		.byte	0x1
 4554 092d 1901     		.2byte	0x119
 4555 092f 73000000 		.4byte	0x73
 4556 0933 02       		.uleb128 0x2
 4557 0934 91       		.byte	0x91
 4558 0935 70       		.sleb128 -16
 4559 0936 00       		.byte	0
 4560 0937 16       		.uleb128 0x16
 4561 0938 30030000 		.4byte	.LASF122
 4562 093c 01       		.byte	0x1
 4563 093d 3D01     		.2byte	0x13d
 4564 093f 00000000 		.4byte	.LFB71
 4565 0943 04010000 		.4byte	.LFE71-.LFB71
ARM GAS  C:\Users\Mattia\AppData\Local\Temp\ccYnk7Oc.s 			page 92


 4566 0947 01       		.uleb128 0x1
 4567 0948 9C       		.byte	0x9c
 4568 0949 88090000 		.4byte	0x988
 4569 094d 17       		.uleb128 0x17
 4570 094e 6E00     		.ascii	"n\000"
 4571 0950 01       		.byte	0x1
 4572 0951 3D01     		.2byte	0x13d
 4573 0953 73000000 		.4byte	0x73
 4574 0957 02       		.uleb128 0x2
 4575 0958 91       		.byte	0x91
 4576 0959 6C       		.sleb128 -20
 4577 095a 18       		.uleb128 0x18
 4578 095b 6C6F7700 		.ascii	"low\000"
 4579 095f 01       		.byte	0x1
 4580 0960 3E01     		.2byte	0x13e
 4581 0962 97000000 		.4byte	0x97
 4582 0966 02       		.uleb128 0x2
 4583 0967 91       		.byte	0x91
 4584 0968 77       		.sleb128 -9
 4585 0969 19       		.uleb128 0x19
 4586 096a 3E060000 		.4byte	.LASF121
 4587 096e 01       		.byte	0x1
 4588 096f 3E01     		.2byte	0x13e
 4589 0971 97000000 		.4byte	0x97
 4590 0975 02       		.uleb128 0x2
 4591 0976 91       		.byte	0x91
 4592 0977 76       		.sleb128 -10
 4593 0978 18       		.uleb128 0x18
 4594 0979 726F7700 		.ascii	"row\000"
 4595 097d 01       		.byte	0x1
 4596 097e 4001     		.2byte	0x140
 4597 0980 73000000 		.4byte	0x73
 4598 0984 02       		.uleb128 0x2
 4599 0985 91       		.byte	0x91
 4600 0986 70       		.sleb128 -16
 4601 0987 00       		.byte	0
 4602 0988 16       		.uleb128 0x16
 4603 0989 7F040000 		.4byte	.LASF123
 4604 098d 01       		.byte	0x1
 4605 098e 6501     		.2byte	0x165
 4606 0990 00000000 		.4byte	.LFB72
 4607 0994 FC000000 		.4byte	.LFE72-.LFB72
 4608 0998 01       		.uleb128 0x1
 4609 0999 9C       		.byte	0x9c
 4610 099a D9090000 		.4byte	0x9d9
 4611 099e 17       		.uleb128 0x17
 4612 099f 6E00     		.ascii	"n\000"
 4613 09a1 01       		.byte	0x1
 4614 09a2 6501     		.2byte	0x165
 4615 09a4 73000000 		.4byte	0x73
 4616 09a8 02       		.uleb128 0x2
 4617 09a9 91       		.byte	0x91
 4618 09aa 6C       		.sleb128 -20
 4619 09ab 18       		.uleb128 0x18
 4620 09ac 6C6F7700 		.ascii	"low\000"
 4621 09b0 01       		.byte	0x1
 4622 09b1 6701     		.2byte	0x167
ARM GAS  C:\Users\Mattia\AppData\Local\Temp\ccYnk7Oc.s 			page 93


 4623 09b3 97000000 		.4byte	0x97
 4624 09b7 02       		.uleb128 0x2
 4625 09b8 91       		.byte	0x91
 4626 09b9 73       		.sleb128 -13
 4627 09ba 19       		.uleb128 0x19
 4628 09bb 3E060000 		.4byte	.LASF121
 4629 09bf 01       		.byte	0x1
 4630 09c0 6701     		.2byte	0x167
 4631 09c2 97000000 		.4byte	0x97
 4632 09c6 02       		.uleb128 0x2
 4633 09c7 91       		.byte	0x91
 4634 09c8 72       		.sleb128 -14
 4635 09c9 18       		.uleb128 0x18
 4636 09ca 726F7700 		.ascii	"row\000"
 4637 09ce 01       		.byte	0x1
 4638 09cf 6801     		.2byte	0x168
 4639 09d1 73000000 		.4byte	0x73
 4640 09d5 02       		.uleb128 0x2
 4641 09d6 91       		.byte	0x91
 4642 09d7 74       		.sleb128 -12
 4643 09d8 00       		.byte	0
 4644 09d9 16       		.uleb128 0x16
 4645 09da 0D040000 		.4byte	.LASF124
 4646 09de 01       		.byte	0x1
 4647 09df 8B01     		.2byte	0x18b
 4648 09e1 00000000 		.4byte	.LFB73
 4649 09e5 7C000000 		.4byte	.LFE73-.LFB73
 4650 09e9 01       		.uleb128 0x1
 4651 09ea 9C       		.byte	0x9c
 4652 09eb 1B0A0000 		.4byte	0xa1b
 4653 09ef 17       		.uleb128 0x17
 4654 09f0 6E00     		.ascii	"n\000"
 4655 09f2 01       		.byte	0x1
 4656 09f3 8B01     		.2byte	0x18b
 4657 09f5 73000000 		.4byte	0x73
 4658 09f9 02       		.uleb128 0x2
 4659 09fa 91       		.byte	0x91
 4660 09fb 6C       		.sleb128 -20
 4661 09fc 19       		.uleb128 0x19
 4662 09fd 16070000 		.4byte	.LASF125
 4663 0a01 01       		.byte	0x1
 4664 0a02 8D01     		.2byte	0x18d
 4665 0a04 97000000 		.4byte	0x97
 4666 0a08 02       		.uleb128 0x2
 4667 0a09 91       		.byte	0x91
 4668 0a0a 77       		.sleb128 -9
 4669 0a0b 18       		.uleb128 0x18
 4670 0a0c 726F7700 		.ascii	"row\000"
 4671 0a10 01       		.byte	0x1
 4672 0a11 8E01     		.2byte	0x18e
 4673 0a13 73000000 		.4byte	0x73
 4674 0a17 02       		.uleb128 0x2
 4675 0a18 91       		.byte	0x91
 4676 0a19 70       		.sleb128 -16
 4677 0a1a 00       		.byte	0
 4678 0a1b 16       		.uleb128 0x16
 4679 0a1c FB050000 		.4byte	.LASF126
ARM GAS  C:\Users\Mattia\AppData\Local\Temp\ccYnk7Oc.s 			page 94


 4680 0a20 01       		.byte	0x1
 4681 0a21 A301     		.2byte	0x1a3
 4682 0a23 00000000 		.4byte	.LFB74
 4683 0a27 100B0000 		.4byte	.LFE74-.LFB74
 4684 0a2b 01       		.uleb128 0x1
 4685 0a2c 9C       		.byte	0x9c
 4686 0a2d C70A0000 		.4byte	0xac7
 4687 0a31 17       		.uleb128 0x17
 4688 0a32 6E00     		.ascii	"n\000"
 4689 0a34 01       		.byte	0x1
 4690 0a35 A301     		.2byte	0x1a3
 4691 0a37 73000000 		.4byte	0x73
 4692 0a3b 03       		.uleb128 0x3
 4693 0a3c 91       		.byte	0x91
 4694 0a3d 847F     		.sleb128 -124
 4695 0a3f 19       		.uleb128 0x19
 4696 0a40 F2020000 		.4byte	.LASF127
 4697 0a44 01       		.byte	0x1
 4698 0a45 A501     		.2byte	0x1a5
 4699 0a47 C7000000 		.4byte	0xc7
 4700 0a4b 02       		.uleb128 0x2
 4701 0a4c 91       		.byte	0x91
 4702 0a4d 56       		.sleb128 -42
 4703 0a4e 18       		.uleb128 0x18
 4704 0a4f 71643000 		.ascii	"qd0\000"
 4705 0a53 01       		.byte	0x1
 4706 0a54 A601     		.2byte	0x1a6
 4707 0a56 EB000000 		.4byte	0xeb
 4708 0a5a 02       		.uleb128 0x2
 4709 0a5b 91       		.byte	0x91
 4710 0a5c 50       		.sleb128 -48
 4711 0a5d 18       		.uleb128 0x18
 4712 0a5e 71643100 		.ascii	"qd1\000"
 4713 0a62 01       		.byte	0x1
 4714 0a63 A601     		.2byte	0x1a6
 4715 0a65 EB000000 		.4byte	0xeb
 4716 0a69 02       		.uleb128 0x2
 4717 0a6a 91       		.byte	0x91
 4718 0a6b 4C       		.sleb128 -52
 4719 0a6c 18       		.uleb128 0x18
 4720 0a6d 71643200 		.ascii	"qd2\000"
 4721 0a71 01       		.byte	0x1
 4722 0a72 A601     		.2byte	0x1a6
 4723 0a74 EB000000 		.4byte	0xeb
 4724 0a78 02       		.uleb128 0x2
 4725 0a79 91       		.byte	0x91
 4726 0a7a 48       		.sleb128 -56
 4727 0a7b 18       		.uleb128 0x18
 4728 0a7c 71643300 		.ascii	"qd3\000"
 4729 0a80 01       		.byte	0x1
 4730 0a81 A601     		.2byte	0x1a6
 4731 0a83 EB000000 		.4byte	0xeb
 4732 0a87 02       		.uleb128 0x2
 4733 0a88 91       		.byte	0x91
 4734 0a89 44       		.sleb128 -60
 4735 0a8a 18       		.uleb128 0x18
 4736 0a8b 615000   		.ascii	"aP\000"
ARM GAS  C:\Users\Mattia\AppData\Local\Temp\ccYnk7Oc.s 			page 95


 4737 0a8e 01       		.byte	0x1
 4738 0a8f A701     		.2byte	0x1a7
 4739 0a91 C70A0000 		.4byte	0xac7
 4740 0a95 03       		.uleb128 0x3
 4741 0a96 91       		.byte	0x91
 4742 0a97 B87F     		.sleb128 -72
 4743 0a99 19       		.uleb128 0x19
 4744 0a9a 23070000 		.4byte	.LASF128
 4745 0a9e 01       		.byte	0x1
 4746 0a9f A801     		.2byte	0x1a8
 4747 0aa1 EE070000 		.4byte	0x7ee
 4748 0aa5 03       		.uleb128 0x3
 4749 0aa6 91       		.byte	0x91
 4750 0aa7 A87F     		.sleb128 -88
 4751 0aa9 18       		.uleb128 0x18
 4752 0aaa 6700     		.ascii	"g\000"
 4753 0aac 01       		.byte	0x1
 4754 0aad A801     		.2byte	0x1a8
 4755 0aaf EE070000 		.4byte	0x7ee
 4756 0ab3 03       		.uleb128 0x3
 4757 0ab4 91       		.byte	0x91
 4758 0ab5 987F     		.sleb128 -104
 4759 0ab7 18       		.uleb128 0x18
 4760 0ab8 714C00   		.ascii	"qL\000"
 4761 0abb 01       		.byte	0x1
 4762 0abc A801     		.2byte	0x1a8
 4763 0abe EE070000 		.4byte	0x7ee
 4764 0ac2 03       		.uleb128 0x3
 4765 0ac3 91       		.byte	0x91
 4766 0ac4 887F     		.sleb128 -120
 4767 0ac6 00       		.byte	0
 4768 0ac7 06       		.uleb128 0x6
 4769 0ac8 EB000000 		.4byte	0xeb
 4770 0acc D70A0000 		.4byte	0xad7
 4771 0ad0 07       		.uleb128 0x7
 4772 0ad1 07010000 		.4byte	0x107
 4773 0ad5 02       		.byte	0x2
 4774 0ad6 00       		.byte	0
 4775 0ad7 1A       		.uleb128 0x1a
 4776 0ad8 83060000 		.4byte	.LASF129
 4777 0adc 01       		.byte	0x1
 4778 0add F101     		.2byte	0x1f1
 4779 0adf 00000000 		.4byte	.LFB75
 4780 0ae3 88020000 		.4byte	.LFE75-.LFB75
 4781 0ae7 01       		.uleb128 0x1
 4782 0ae8 9C       		.byte	0x9c
 4783 0ae9 1C0B0000 		.4byte	0xb1c
 4784 0aed 19       		.uleb128 0x19
 4785 0aee ED040000 		.4byte	.LASF115
 4786 0af2 01       		.byte	0x1
 4787 0af3 F201     		.2byte	0x1f2
 4788 0af5 97000000 		.4byte	0x97
 4789 0af9 05       		.uleb128 0x5
 4790 0afa 03       		.byte	0x3
 4791 0afb 00000000 		.4byte	k_imu.10252
 4792 0aff 18       		.uleb128 0x18
 4793 0b00 746D7000 		.ascii	"tmp\000"
ARM GAS  C:\Users\Mattia\AppData\Local\Temp\ccYnk7Oc.s 			page 96


 4794 0b04 01       		.byte	0x1
 4795 0b05 F301     		.2byte	0x1f3
 4796 0b07 A3000000 		.4byte	0xa3
 4797 0b0b 02       		.uleb128 0x2
 4798 0b0c 91       		.byte	0x91
 4799 0b0d 64       		.sleb128 -28
 4800 0b0e 18       		.uleb128 0x18
 4801 0b0f 6A00     		.ascii	"j\000"
 4802 0b11 01       		.byte	0x1
 4803 0b12 F301     		.2byte	0x1f3
 4804 0b14 A3000000 		.4byte	0xa3
 4805 0b18 02       		.uleb128 0x2
 4806 0b19 91       		.byte	0x91
 4807 0b1a 66       		.sleb128 -26
 4808 0b1b 00       		.byte	0
 4809 0b1c 16       		.uleb128 0x16
 4810 0b1d BE060000 		.4byte	.LASF130
 4811 0b21 01       		.byte	0x1
 4812 0b22 1502     		.2byte	0x215
 4813 0b24 00000000 		.4byte	.LFB76
 4814 0b28 5C000000 		.4byte	.LFE76-.LFB76
 4815 0b2c 01       		.uleb128 0x1
 4816 0b2d 9C       		.byte	0x9c
 4817 0b2e 6D0B0000 		.4byte	0xb6d
 4818 0b32 17       		.uleb128 0x17
 4819 0b33 6E00     		.ascii	"n\000"
 4820 0b35 01       		.byte	0x1
 4821 0b36 1502     		.2byte	0x215
 4822 0b38 73000000 		.4byte	0x73
 4823 0b3c 02       		.uleb128 0x2
 4824 0b3d 91       		.byte	0x91
 4825 0b3e 6C       		.sleb128 -20
 4826 0b3f 18       		.uleb128 0x18
 4827 0b40 6C6F7700 		.ascii	"low\000"
 4828 0b44 01       		.byte	0x1
 4829 0b45 1702     		.2byte	0x217
 4830 0b47 97000000 		.4byte	0x97
 4831 0b4b 02       		.uleb128 0x2
 4832 0b4c 91       		.byte	0x91
 4833 0b4d 77       		.sleb128 -9
 4834 0b4e 19       		.uleb128 0x19
 4835 0b4f 3E060000 		.4byte	.LASF121
 4836 0b53 01       		.byte	0x1
 4837 0b54 1702     		.2byte	0x217
 4838 0b56 97000000 		.4byte	0x97
 4839 0b5a 02       		.uleb128 0x2
 4840 0b5b 91       		.byte	0x91
 4841 0b5c 76       		.sleb128 -10
 4842 0b5d 18       		.uleb128 0x18
 4843 0b5e 726F7700 		.ascii	"row\000"
 4844 0b62 01       		.byte	0x1
 4845 0b63 1802     		.2byte	0x218
 4846 0b65 73000000 		.4byte	0x73
 4847 0b69 02       		.uleb128 0x2
 4848 0b6a 91       		.byte	0x91
 4849 0b6b 70       		.sleb128 -16
 4850 0b6c 00       		.byte	0
ARM GAS  C:\Users\Mattia\AppData\Local\Temp\ccYnk7Oc.s 			page 97


 4851 0b6d 16       		.uleb128 0x16
 4852 0b6e 39050000 		.4byte	.LASF131
 4853 0b72 01       		.byte	0x1
 4854 0b73 2802     		.2byte	0x228
 4855 0b75 00000000 		.4byte	.LFB77
 4856 0b79 54000000 		.4byte	.LFE77-.LFB77
 4857 0b7d 01       		.uleb128 0x1
 4858 0b7e 9C       		.byte	0x9c
 4859 0b7f A20B0000 		.4byte	0xba2
 4860 0b83 1B       		.uleb128 0x1b
 4861 0b84 A2010000 		.4byte	.LASF132
 4862 0b88 01       		.byte	0x1
 4863 0b89 2802     		.2byte	0x228
 4864 0b8b 97000000 		.4byte	0x97
 4865 0b8f 02       		.uleb128 0x2
 4866 0b90 91       		.byte	0x91
 4867 0b91 77       		.sleb128 -9
 4868 0b92 17       		.uleb128 0x17
 4869 0b93 64746100 		.ascii	"dta\000"
 4870 0b97 01       		.byte	0x1
 4871 0b98 2802     		.2byte	0x228
 4872 0b9a 97000000 		.4byte	0x97
 4873 0b9e 02       		.uleb128 0x2
 4874 0b9f 91       		.byte	0x91
 4875 0ba0 76       		.sleb128 -10
 4876 0ba1 00       		.byte	0
 4877 0ba2 1C       		.uleb128 0x1c
 4878 0ba3 F8020000 		.4byte	.LASF152
 4879 0ba7 01       		.byte	0x1
 4880 0ba8 3602     		.2byte	0x236
 4881 0baa 97000000 		.4byte	0x97
 4882 0bae 00000000 		.4byte	.LFB78
 4883 0bb2 54000000 		.4byte	.LFE78-.LFB78
 4884 0bb6 01       		.uleb128 0x1
 4885 0bb7 9C       		.byte	0x9c
 4886 0bb8 DB0B0000 		.4byte	0xbdb
 4887 0bbc 1B       		.uleb128 0x1b
 4888 0bbd A2010000 		.4byte	.LASF132
 4889 0bc1 01       		.byte	0x1
 4890 0bc2 3602     		.2byte	0x236
 4891 0bc4 97000000 		.4byte	0x97
 4892 0bc8 02       		.uleb128 0x2
 4893 0bc9 91       		.byte	0x91
 4894 0bca 6F       		.sleb128 -17
 4895 0bcb 19       		.uleb128 0x19
 4896 0bcc 2A000000 		.4byte	.LASF133
 4897 0bd0 01       		.byte	0x1
 4898 0bd1 3702     		.2byte	0x237
 4899 0bd3 97000000 		.4byte	0x97
 4900 0bd7 02       		.uleb128 0x2
 4901 0bd8 91       		.byte	0x91
 4902 0bd9 77       		.sleb128 -9
 4903 0bda 00       		.byte	0
 4904 0bdb 1D       		.uleb128 0x1d
 4905 0bdc F1050000 		.4byte	.LASF134
 4906 0be0 01       		.byte	0x1
 4907 0be1 4402     		.2byte	0x244
ARM GAS  C:\Users\Mattia\AppData\Local\Temp\ccYnk7Oc.s 			page 98


 4908 0be3 00000000 		.4byte	.LFB79
 4909 0be7 2C000000 		.4byte	.LFE79-.LFB79
 4910 0beb 01       		.uleb128 0x1
 4911 0bec 9C       		.byte	0x9c
 4912 0bed 1E       		.uleb128 0x1e
 4913 0bee 28010000 		.4byte	.LASF135
 4914 0bf2 06       		.byte	0x6
 4915 0bf3 1207     		.2byte	0x712
 4916 0bf5 F90B0000 		.4byte	0xbf9
 4917 0bf9 1F       		.uleb128 0x1f
 4918 0bfa 8C000000 		.4byte	0x8c
 4919 0bfe 1E       		.uleb128 0x1e
 4920 0bff 24000000 		.4byte	.LASF136
 4921 0c03 05       		.byte	0x5
 4922 0c04 B101     		.2byte	0x1b1
 4923 0c06 82060000 		.4byte	0x682
 4924 0c0a 1E       		.uleb128 0x1e
 4925 0c0b 85030000 		.4byte	.LASF137
 4926 0c0f 05       		.byte	0x5
 4927 0c10 B901     		.2byte	0x1b9
 4928 0c12 EB000000 		.4byte	0xeb
 4929 0c16 1E       		.uleb128 0x1e
 4930 0c17 8A010000 		.4byte	.LASF138
 4931 0c1b 05       		.byte	0x5
 4932 0c1c E801     		.2byte	0x1e8
 4933 0c1e 97000000 		.4byte	0x97
 4934 0c22 1E       		.uleb128 0x1e
 4935 0c23 C0030000 		.4byte	.LASF139
 4936 0c27 05       		.byte	0x5
 4937 0c28 E901     		.2byte	0x1e9
 4938 0c2a 8B040000 		.4byte	0x48b
 4939 0c2e 1E       		.uleb128 0x1e
 4940 0c2f 3A020000 		.4byte	.LASF140
 4941 0c33 05       		.byte	0x5
 4942 0c34 EA01     		.2byte	0x1ea
 4943 0c36 73000000 		.4byte	0x73
 4944 0c3a 1E       		.uleb128 0x1e
 4945 0c3b 54030000 		.4byte	.LASF141
 4946 0c3f 05       		.byte	0x5
 4947 0c40 EB01     		.2byte	0x1eb
 4948 0c42 B2080000 		.4byte	0x8b2
 4949 0c46 06       		.uleb128 0x6
 4950 0c47 82070000 		.4byte	0x782
 4951 0c4b 560C0000 		.4byte	0xc56
 4952 0c4f 07       		.uleb128 0x7
 4953 0c50 07010000 		.4byte	0x107
 4954 0c54 04       		.byte	0x4
 4955 0c55 00       		.byte	0
 4956 0c56 1E       		.uleb128 0x1e
 4957 0c57 CC020000 		.4byte	.LASF142
 4958 0c5b 05       		.byte	0x5
 4959 0c5c EC01     		.2byte	0x1ec
 4960 0c5e 460C0000 		.4byte	0xc46
 4961 0c62 1E       		.uleb128 0x1e
 4962 0c63 F3000000 		.4byte	.LASF143
 4963 0c67 05       		.byte	0x5
 4964 0c68 EC01     		.2byte	0x1ec
ARM GAS  C:\Users\Mattia\AppData\Local\Temp\ccYnk7Oc.s 			page 99


 4965 0c6a 460C0000 		.4byte	0xc46
 4966 0c6e 06       		.uleb128 0x6
 4967 0c6f 97000000 		.4byte	0x97
 4968 0c73 840C0000 		.4byte	0xc84
 4969 0c77 07       		.uleb128 0x7
 4970 0c78 07010000 		.4byte	0x107
 4971 0c7c 04       		.byte	0x4
 4972 0c7d 07       		.uleb128 0x7
 4973 0c7e 07010000 		.4byte	0x107
 4974 0c82 05       		.byte	0x5
 4975 0c83 00       		.byte	0
 4976 0c84 20       		.uleb128 0x20
 4977 0c85 05000000 		.4byte	.LASF144
 4978 0c89 01       		.byte	0x1
 4979 0c8a 2F       		.byte	0x2f
 4980 0c8b 6E0C0000 		.4byte	0xc6e
 4981 0c8f 20       		.uleb128 0x20
 4982 0c90 00000000 		.4byte	.LASF145
 4983 0c94 01       		.byte	0x1
 4984 0c95 30       		.byte	0x30
 4985 0c96 6E0C0000 		.4byte	0xc6e
 4986 0c9a 21       		.uleb128 0x21
 4987 0c9b 4D616700 		.ascii	"Mag\000"
 4988 0c9f 01       		.byte	0x1
 4989 0ca0 31       		.byte	0x31
 4990 0ca1 6E0C0000 		.4byte	0xc6e
 4991 0ca5 06       		.uleb128 0x6
 4992 0ca6 97000000 		.4byte	0x97
 4993 0caa BB0C0000 		.4byte	0xcbb
 4994 0cae 07       		.uleb128 0x7
 4995 0caf 07010000 		.4byte	0x107
 4996 0cb3 04       		.byte	0x4
 4997 0cb4 07       		.uleb128 0x7
 4998 0cb5 07010000 		.4byte	0x107
 4999 0cb9 02       		.byte	0x2
 5000 0cba 00       		.byte	0
 5001 0cbb 20       		.uleb128 0x20
 5002 0cbc C0010000 		.4byte	.LASF146
 5003 0cc0 01       		.byte	0x1
 5004 0cc1 32       		.byte	0x32
 5005 0cc2 A50C0000 		.4byte	0xca5
 5006 0cc6 06       		.uleb128 0x6
 5007 0cc7 97000000 		.4byte	0x97
 5008 0ccb DC0C0000 		.4byte	0xcdc
 5009 0ccf 07       		.uleb128 0x7
 5010 0cd0 07010000 		.4byte	0x107
 5011 0cd4 04       		.byte	0x4
 5012 0cd5 07       		.uleb128 0x7
 5013 0cd6 07010000 		.4byte	0x107
 5014 0cda 01       		.byte	0x1
 5015 0cdb 00       		.byte	0
 5016 0cdc 1E       		.uleb128 0x1e
 5017 0cdd 9E040000 		.4byte	.LASF147
 5018 0ce1 05       		.byte	0x5
 5019 0ce2 F101     		.2byte	0x1f1
 5020 0ce4 C60C0000 		.4byte	0xcc6
 5021 0ce8 06       		.uleb128 0x6
ARM GAS  C:\Users\Mattia\AppData\Local\Temp\ccYnk7Oc.s 			page 100


 5022 0ce9 EB000000 		.4byte	0xeb
 5023 0ced FE0C0000 		.4byte	0xcfe
 5024 0cf1 07       		.uleb128 0x7
 5025 0cf2 07010000 		.4byte	0x107
 5026 0cf6 04       		.byte	0x4
 5027 0cf7 07       		.uleb128 0x7
 5028 0cf8 07010000 		.4byte	0x107
 5029 0cfc 03       		.byte	0x3
 5030 0cfd 00       		.byte	0
 5031 0cfe 1E       		.uleb128 0x1e
 5032 0cff 80030000 		.4byte	.LASF148
 5033 0d03 05       		.byte	0x5
 5034 0d04 F201     		.2byte	0x1f2
 5035 0d06 E80C0000 		.4byte	0xce8
 5036 0d0a 00       		.byte	0
 5037              		.section	.debug_abbrev,"",%progbits
 5038              	.Ldebug_abbrev0:
 5039 0000 01       		.uleb128 0x1
 5040 0001 11       		.uleb128 0x11
 5041 0002 01       		.byte	0x1
 5042 0003 25       		.uleb128 0x25
 5043 0004 0E       		.uleb128 0xe
 5044 0005 13       		.uleb128 0x13
 5045 0006 0B       		.uleb128 0xb
 5046 0007 03       		.uleb128 0x3
 5047 0008 0E       		.uleb128 0xe
 5048 0009 1B       		.uleb128 0x1b
 5049 000a 0E       		.uleb128 0xe
 5050 000b 55       		.uleb128 0x55
 5051 000c 17       		.uleb128 0x17
 5052 000d 11       		.uleb128 0x11
 5053 000e 01       		.uleb128 0x1
 5054 000f 10       		.uleb128 0x10
 5055 0010 17       		.uleb128 0x17
 5056 0011 00       		.byte	0
 5057 0012 00       		.byte	0
 5058 0013 02       		.uleb128 0x2
 5059 0014 24       		.uleb128 0x24
 5060 0015 00       		.byte	0
 5061 0016 0B       		.uleb128 0xb
 5062 0017 0B       		.uleb128 0xb
 5063 0018 3E       		.uleb128 0x3e
 5064 0019 0B       		.uleb128 0xb
 5065 001a 03       		.uleb128 0x3
 5066 001b 0E       		.uleb128 0xe
 5067 001c 00       		.byte	0
 5068 001d 00       		.byte	0
 5069 001e 03       		.uleb128 0x3
 5070 001f 16       		.uleb128 0x16
 5071 0020 00       		.byte	0
 5072 0021 03       		.uleb128 0x3
 5073 0022 0E       		.uleb128 0xe
 5074 0023 3A       		.uleb128 0x3a
 5075 0024 0B       		.uleb128 0xb
 5076 0025 3B       		.uleb128 0x3b
 5077 0026 0B       		.uleb128 0xb
 5078 0027 49       		.uleb128 0x49
ARM GAS  C:\Users\Mattia\AppData\Local\Temp\ccYnk7Oc.s 			page 101


 5079 0028 13       		.uleb128 0x13
 5080 0029 00       		.byte	0
 5081 002a 00       		.byte	0
 5082 002b 04       		.uleb128 0x4
 5083 002c 24       		.uleb128 0x24
 5084 002d 00       		.byte	0
 5085 002e 0B       		.uleb128 0xb
 5086 002f 0B       		.uleb128 0xb
 5087 0030 3E       		.uleb128 0x3e
 5088 0031 0B       		.uleb128 0xb
 5089 0032 03       		.uleb128 0x3
 5090 0033 08       		.uleb128 0x8
 5091 0034 00       		.byte	0
 5092 0035 00       		.byte	0
 5093 0036 05       		.uleb128 0x5
 5094 0037 16       		.uleb128 0x16
 5095 0038 00       		.byte	0
 5096 0039 03       		.uleb128 0x3
 5097 003a 0E       		.uleb128 0xe
 5098 003b 3A       		.uleb128 0x3a
 5099 003c 0B       		.uleb128 0xb
 5100 003d 3B       		.uleb128 0x3b
 5101 003e 05       		.uleb128 0x5
 5102 003f 49       		.uleb128 0x49
 5103 0040 13       		.uleb128 0x13
 5104 0041 00       		.byte	0
 5105 0042 00       		.byte	0
 5106 0043 06       		.uleb128 0x6
 5107 0044 01       		.uleb128 0x1
 5108 0045 01       		.byte	0x1
 5109 0046 49       		.uleb128 0x49
 5110 0047 13       		.uleb128 0x13
 5111 0048 01       		.uleb128 0x1
 5112 0049 13       		.uleb128 0x13
 5113 004a 00       		.byte	0
 5114 004b 00       		.byte	0
 5115 004c 07       		.uleb128 0x7
 5116 004d 21       		.uleb128 0x21
 5117 004e 00       		.byte	0
 5118 004f 49       		.uleb128 0x49
 5119 0050 13       		.uleb128 0x13
 5120 0051 2F       		.uleb128 0x2f
 5121 0052 0B       		.uleb128 0xb
 5122 0053 00       		.byte	0
 5123 0054 00       		.byte	0
 5124 0055 08       		.uleb128 0x8
 5125 0056 13       		.uleb128 0x13
 5126 0057 01       		.byte	0x1
 5127 0058 03       		.uleb128 0x3
 5128 0059 0E       		.uleb128 0xe
 5129 005a 0B       		.uleb128 0xb
 5130 005b 0B       		.uleb128 0xb
 5131 005c 3A       		.uleb128 0x3a
 5132 005d 0B       		.uleb128 0xb
 5133 005e 3B       		.uleb128 0x3b
 5134 005f 0B       		.uleb128 0xb
 5135 0060 01       		.uleb128 0x1
ARM GAS  C:\Users\Mattia\AppData\Local\Temp\ccYnk7Oc.s 			page 102


 5136 0061 13       		.uleb128 0x13
 5137 0062 00       		.byte	0
 5138 0063 00       		.byte	0
 5139 0064 09       		.uleb128 0x9
 5140 0065 0D       		.uleb128 0xd
 5141 0066 00       		.byte	0
 5142 0067 03       		.uleb128 0x3
 5143 0068 0E       		.uleb128 0xe
 5144 0069 3A       		.uleb128 0x3a
 5145 006a 0B       		.uleb128 0xb
 5146 006b 3B       		.uleb128 0x3b
 5147 006c 0B       		.uleb128 0xb
 5148 006d 49       		.uleb128 0x49
 5149 006e 13       		.uleb128 0x13
 5150 006f 38       		.uleb128 0x38
 5151 0070 0B       		.uleb128 0xb
 5152 0071 00       		.byte	0
 5153 0072 00       		.byte	0
 5154 0073 0A       		.uleb128 0xa
 5155 0074 13       		.uleb128 0x13
 5156 0075 01       		.byte	0x1
 5157 0076 03       		.uleb128 0x3
 5158 0077 0E       		.uleb128 0xe
 5159 0078 0B       		.uleb128 0xb
 5160 0079 0B       		.uleb128 0xb
 5161 007a 3A       		.uleb128 0x3a
 5162 007b 0B       		.uleb128 0xb
 5163 007c 3B       		.uleb128 0x3b
 5164 007d 05       		.uleb128 0x5
 5165 007e 01       		.uleb128 0x1
 5166 007f 13       		.uleb128 0x13
 5167 0080 00       		.byte	0
 5168 0081 00       		.byte	0
 5169 0082 0B       		.uleb128 0xb
 5170 0083 0D       		.uleb128 0xd
 5171 0084 00       		.byte	0
 5172 0085 03       		.uleb128 0x3
 5173 0086 08       		.uleb128 0x8
 5174 0087 3A       		.uleb128 0x3a
 5175 0088 0B       		.uleb128 0xb
 5176 0089 3B       		.uleb128 0x3b
 5177 008a 05       		.uleb128 0x5
 5178 008b 49       		.uleb128 0x49
 5179 008c 13       		.uleb128 0x13
 5180 008d 38       		.uleb128 0x38
 5181 008e 0B       		.uleb128 0xb
 5182 008f 00       		.byte	0
 5183 0090 00       		.byte	0
 5184 0091 0C       		.uleb128 0xc
 5185 0092 0D       		.uleb128 0xd
 5186 0093 00       		.byte	0
 5187 0094 03       		.uleb128 0x3
 5188 0095 0E       		.uleb128 0xe
 5189 0096 3A       		.uleb128 0x3a
 5190 0097 0B       		.uleb128 0xb
 5191 0098 3B       		.uleb128 0x3b
 5192 0099 05       		.uleb128 0x5
ARM GAS  C:\Users\Mattia\AppData\Local\Temp\ccYnk7Oc.s 			page 103


 5193 009a 49       		.uleb128 0x49
 5194 009b 13       		.uleb128 0x13
 5195 009c 38       		.uleb128 0x38
 5196 009d 0B       		.uleb128 0xb
 5197 009e 00       		.byte	0
 5198 009f 00       		.byte	0
 5199 00a0 0D       		.uleb128 0xd
 5200 00a1 13       		.uleb128 0x13
 5201 00a2 01       		.byte	0x1
 5202 00a3 03       		.uleb128 0x3
 5203 00a4 0E       		.uleb128 0xe
 5204 00a5 0B       		.uleb128 0xb
 5205 00a6 05       		.uleb128 0x5
 5206 00a7 3A       		.uleb128 0x3a
 5207 00a8 0B       		.uleb128 0xb
 5208 00a9 3B       		.uleb128 0x3b
 5209 00aa 05       		.uleb128 0x5
 5210 00ab 01       		.uleb128 0x1
 5211 00ac 13       		.uleb128 0x13
 5212 00ad 00       		.byte	0
 5213 00ae 00       		.byte	0
 5214 00af 0E       		.uleb128 0xe
 5215 00b0 0D       		.uleb128 0xd
 5216 00b1 00       		.byte	0
 5217 00b2 03       		.uleb128 0x3
 5218 00b3 08       		.uleb128 0x8
 5219 00b4 3A       		.uleb128 0x3a
 5220 00b5 0B       		.uleb128 0xb
 5221 00b6 3B       		.uleb128 0x3b
 5222 00b7 05       		.uleb128 0x5
 5223 00b8 49       		.uleb128 0x49
 5224 00b9 13       		.uleb128 0x13
 5225 00ba 38       		.uleb128 0x38
 5226 00bb 05       		.uleb128 0x5
 5227 00bc 00       		.byte	0
 5228 00bd 00       		.byte	0
 5229 00be 0F       		.uleb128 0xf
 5230 00bf 0D       		.uleb128 0xd
 5231 00c0 00       		.byte	0
 5232 00c1 03       		.uleb128 0x3
 5233 00c2 0E       		.uleb128 0xe
 5234 00c3 3A       		.uleb128 0x3a
 5235 00c4 0B       		.uleb128 0xb
 5236 00c5 3B       		.uleb128 0x3b
 5237 00c6 05       		.uleb128 0x5
 5238 00c7 49       		.uleb128 0x49
 5239 00c8 13       		.uleb128 0x13
 5240 00c9 38       		.uleb128 0x38
 5241 00ca 05       		.uleb128 0x5
 5242 00cb 00       		.byte	0
 5243 00cc 00       		.byte	0
 5244 00cd 10       		.uleb128 0x10
 5245 00ce 2E       		.uleb128 0x2e
 5246 00cf 01       		.byte	0x1
 5247 00d0 3F       		.uleb128 0x3f
 5248 00d1 19       		.uleb128 0x19
 5249 00d2 03       		.uleb128 0x3
ARM GAS  C:\Users\Mattia\AppData\Local\Temp\ccYnk7Oc.s 			page 104


 5250 00d3 0E       		.uleb128 0xe
 5251 00d4 3A       		.uleb128 0x3a
 5252 00d5 0B       		.uleb128 0xb
 5253 00d6 3B       		.uleb128 0x3b
 5254 00d7 0B       		.uleb128 0xb
 5255 00d8 11       		.uleb128 0x11
 5256 00d9 01       		.uleb128 0x1
 5257 00da 12       		.uleb128 0x12
 5258 00db 06       		.uleb128 0x6
 5259 00dc 40       		.uleb128 0x40
 5260 00dd 18       		.uleb128 0x18
 5261 00de 9642     		.uleb128 0x2116
 5262 00e0 19       		.uleb128 0x19
 5263 00e1 01       		.uleb128 0x1
 5264 00e2 13       		.uleb128 0x13
 5265 00e3 00       		.byte	0
 5266 00e4 00       		.byte	0
 5267 00e5 11       		.uleb128 0x11
 5268 00e6 34       		.uleb128 0x34
 5269 00e7 00       		.byte	0
 5270 00e8 03       		.uleb128 0x3
 5271 00e9 08       		.uleb128 0x8
 5272 00ea 3A       		.uleb128 0x3a
 5273 00eb 0B       		.uleb128 0xb
 5274 00ec 3B       		.uleb128 0x3b
 5275 00ed 0B       		.uleb128 0xb
 5276 00ee 49       		.uleb128 0x49
 5277 00ef 13       		.uleb128 0x13
 5278 00f0 02       		.uleb128 0x2
 5279 00f1 18       		.uleb128 0x18
 5280 00f2 00       		.byte	0
 5281 00f3 00       		.byte	0
 5282 00f4 12       		.uleb128 0x12
 5283 00f5 2E       		.uleb128 0x2e
 5284 00f6 00       		.byte	0
 5285 00f7 3F       		.uleb128 0x3f
 5286 00f8 19       		.uleb128 0x19
 5287 00f9 03       		.uleb128 0x3
 5288 00fa 0E       		.uleb128 0xe
 5289 00fb 3A       		.uleb128 0x3a
 5290 00fc 0B       		.uleb128 0xb
 5291 00fd 3B       		.uleb128 0x3b
 5292 00fe 0B       		.uleb128 0xb
 5293 00ff 11       		.uleb128 0x11
 5294 0100 01       		.uleb128 0x1
 5295 0101 12       		.uleb128 0x12
 5296 0102 06       		.uleb128 0x6
 5297 0103 40       		.uleb128 0x40
 5298 0104 18       		.uleb128 0x18
 5299 0105 9642     		.uleb128 0x2116
 5300 0107 19       		.uleb128 0x19
 5301 0108 00       		.byte	0
 5302 0109 00       		.byte	0
 5303 010a 13       		.uleb128 0x13
 5304 010b 2E       		.uleb128 0x2e
 5305 010c 01       		.byte	0x1
 5306 010d 3F       		.uleb128 0x3f
ARM GAS  C:\Users\Mattia\AppData\Local\Temp\ccYnk7Oc.s 			page 105


 5307 010e 19       		.uleb128 0x19
 5308 010f 03       		.uleb128 0x3
 5309 0110 0E       		.uleb128 0xe
 5310 0111 3A       		.uleb128 0x3a
 5311 0112 0B       		.uleb128 0xb
 5312 0113 3B       		.uleb128 0x3b
 5313 0114 0B       		.uleb128 0xb
 5314 0115 27       		.uleb128 0x27
 5315 0116 19       		.uleb128 0x19
 5316 0117 11       		.uleb128 0x11
 5317 0118 01       		.uleb128 0x1
 5318 0119 12       		.uleb128 0x12
 5319 011a 06       		.uleb128 0x6
 5320 011b 40       		.uleb128 0x40
 5321 011c 18       		.uleb128 0x18
 5322 011d 9642     		.uleb128 0x2116
 5323 011f 19       		.uleb128 0x19
 5324 0120 01       		.uleb128 0x1
 5325 0121 13       		.uleb128 0x13
 5326 0122 00       		.byte	0
 5327 0123 00       		.byte	0
 5328 0124 14       		.uleb128 0x14
 5329 0125 05       		.uleb128 0x5
 5330 0126 00       		.byte	0
 5331 0127 03       		.uleb128 0x3
 5332 0128 08       		.uleb128 0x8
 5333 0129 3A       		.uleb128 0x3a
 5334 012a 0B       		.uleb128 0xb
 5335 012b 3B       		.uleb128 0x3b
 5336 012c 0B       		.uleb128 0xb
 5337 012d 49       		.uleb128 0x49
 5338 012e 13       		.uleb128 0x13
 5339 012f 02       		.uleb128 0x2
 5340 0130 18       		.uleb128 0x18
 5341 0131 00       		.byte	0
 5342 0132 00       		.byte	0
 5343 0133 15       		.uleb128 0x15
 5344 0134 34       		.uleb128 0x34
 5345 0135 00       		.byte	0
 5346 0136 03       		.uleb128 0x3
 5347 0137 0E       		.uleb128 0xe
 5348 0138 3A       		.uleb128 0x3a
 5349 0139 0B       		.uleb128 0xb
 5350 013a 3B       		.uleb128 0x3b
 5351 013b 0B       		.uleb128 0xb
 5352 013c 49       		.uleb128 0x49
 5353 013d 13       		.uleb128 0x13
 5354 013e 02       		.uleb128 0x2
 5355 013f 18       		.uleb128 0x18
 5356 0140 00       		.byte	0
 5357 0141 00       		.byte	0
 5358 0142 16       		.uleb128 0x16
 5359 0143 2E       		.uleb128 0x2e
 5360 0144 01       		.byte	0x1
 5361 0145 3F       		.uleb128 0x3f
 5362 0146 19       		.uleb128 0x19
 5363 0147 03       		.uleb128 0x3
ARM GAS  C:\Users\Mattia\AppData\Local\Temp\ccYnk7Oc.s 			page 106


 5364 0148 0E       		.uleb128 0xe
 5365 0149 3A       		.uleb128 0x3a
 5366 014a 0B       		.uleb128 0xb
 5367 014b 3B       		.uleb128 0x3b
 5368 014c 05       		.uleb128 0x5
 5369 014d 27       		.uleb128 0x27
 5370 014e 19       		.uleb128 0x19
 5371 014f 11       		.uleb128 0x11
 5372 0150 01       		.uleb128 0x1
 5373 0151 12       		.uleb128 0x12
 5374 0152 06       		.uleb128 0x6
 5375 0153 40       		.uleb128 0x40
 5376 0154 18       		.uleb128 0x18
 5377 0155 9642     		.uleb128 0x2116
 5378 0157 19       		.uleb128 0x19
 5379 0158 01       		.uleb128 0x1
 5380 0159 13       		.uleb128 0x13
 5381 015a 00       		.byte	0
 5382 015b 00       		.byte	0
 5383 015c 17       		.uleb128 0x17
 5384 015d 05       		.uleb128 0x5
 5385 015e 00       		.byte	0
 5386 015f 03       		.uleb128 0x3
 5387 0160 08       		.uleb128 0x8
 5388 0161 3A       		.uleb128 0x3a
 5389 0162 0B       		.uleb128 0xb
 5390 0163 3B       		.uleb128 0x3b
 5391 0164 05       		.uleb128 0x5
 5392 0165 49       		.uleb128 0x49
 5393 0166 13       		.uleb128 0x13
 5394 0167 02       		.uleb128 0x2
 5395 0168 18       		.uleb128 0x18
 5396 0169 00       		.byte	0
 5397 016a 00       		.byte	0
 5398 016b 18       		.uleb128 0x18
 5399 016c 34       		.uleb128 0x34
 5400 016d 00       		.byte	0
 5401 016e 03       		.uleb128 0x3
 5402 016f 08       		.uleb128 0x8
 5403 0170 3A       		.uleb128 0x3a
 5404 0171 0B       		.uleb128 0xb
 5405 0172 3B       		.uleb128 0x3b
 5406 0173 05       		.uleb128 0x5
 5407 0174 49       		.uleb128 0x49
 5408 0175 13       		.uleb128 0x13
 5409 0176 02       		.uleb128 0x2
 5410 0177 18       		.uleb128 0x18
 5411 0178 00       		.byte	0
 5412 0179 00       		.byte	0
 5413 017a 19       		.uleb128 0x19
 5414 017b 34       		.uleb128 0x34
 5415 017c 00       		.byte	0
 5416 017d 03       		.uleb128 0x3
 5417 017e 0E       		.uleb128 0xe
 5418 017f 3A       		.uleb128 0x3a
 5419 0180 0B       		.uleb128 0xb
 5420 0181 3B       		.uleb128 0x3b
ARM GAS  C:\Users\Mattia\AppData\Local\Temp\ccYnk7Oc.s 			page 107


 5421 0182 05       		.uleb128 0x5
 5422 0183 49       		.uleb128 0x49
 5423 0184 13       		.uleb128 0x13
 5424 0185 02       		.uleb128 0x2
 5425 0186 18       		.uleb128 0x18
 5426 0187 00       		.byte	0
 5427 0188 00       		.byte	0
 5428 0189 1A       		.uleb128 0x1a
 5429 018a 2E       		.uleb128 0x2e
 5430 018b 01       		.byte	0x1
 5431 018c 3F       		.uleb128 0x3f
 5432 018d 19       		.uleb128 0x19
 5433 018e 03       		.uleb128 0x3
 5434 018f 0E       		.uleb128 0xe
 5435 0190 3A       		.uleb128 0x3a
 5436 0191 0B       		.uleb128 0xb
 5437 0192 3B       		.uleb128 0x3b
 5438 0193 05       		.uleb128 0x5
 5439 0194 11       		.uleb128 0x11
 5440 0195 01       		.uleb128 0x1
 5441 0196 12       		.uleb128 0x12
 5442 0197 06       		.uleb128 0x6
 5443 0198 40       		.uleb128 0x40
 5444 0199 18       		.uleb128 0x18
 5445 019a 9642     		.uleb128 0x2116
 5446 019c 19       		.uleb128 0x19
 5447 019d 01       		.uleb128 0x1
 5448 019e 13       		.uleb128 0x13
 5449 019f 00       		.byte	0
 5450 01a0 00       		.byte	0
 5451 01a1 1B       		.uleb128 0x1b
 5452 01a2 05       		.uleb128 0x5
 5453 01a3 00       		.byte	0
 5454 01a4 03       		.uleb128 0x3
 5455 01a5 0E       		.uleb128 0xe
 5456 01a6 3A       		.uleb128 0x3a
 5457 01a7 0B       		.uleb128 0xb
 5458 01a8 3B       		.uleb128 0x3b
 5459 01a9 05       		.uleb128 0x5
 5460 01aa 49       		.uleb128 0x49
 5461 01ab 13       		.uleb128 0x13
 5462 01ac 02       		.uleb128 0x2
 5463 01ad 18       		.uleb128 0x18
 5464 01ae 00       		.byte	0
 5465 01af 00       		.byte	0
 5466 01b0 1C       		.uleb128 0x1c
 5467 01b1 2E       		.uleb128 0x2e
 5468 01b2 01       		.byte	0x1
 5469 01b3 3F       		.uleb128 0x3f
 5470 01b4 19       		.uleb128 0x19
 5471 01b5 03       		.uleb128 0x3
 5472 01b6 0E       		.uleb128 0xe
 5473 01b7 3A       		.uleb128 0x3a
 5474 01b8 0B       		.uleb128 0xb
 5475 01b9 3B       		.uleb128 0x3b
 5476 01ba 05       		.uleb128 0x5
 5477 01bb 27       		.uleb128 0x27
ARM GAS  C:\Users\Mattia\AppData\Local\Temp\ccYnk7Oc.s 			page 108


 5478 01bc 19       		.uleb128 0x19
 5479 01bd 49       		.uleb128 0x49
 5480 01be 13       		.uleb128 0x13
 5481 01bf 11       		.uleb128 0x11
 5482 01c0 01       		.uleb128 0x1
 5483 01c1 12       		.uleb128 0x12
 5484 01c2 06       		.uleb128 0x6
 5485 01c3 40       		.uleb128 0x40
 5486 01c4 18       		.uleb128 0x18
 5487 01c5 9642     		.uleb128 0x2116
 5488 01c7 19       		.uleb128 0x19
 5489 01c8 01       		.uleb128 0x1
 5490 01c9 13       		.uleb128 0x13
 5491 01ca 00       		.byte	0
 5492 01cb 00       		.byte	0
 5493 01cc 1D       		.uleb128 0x1d
 5494 01cd 2E       		.uleb128 0x2e
 5495 01ce 00       		.byte	0
 5496 01cf 3F       		.uleb128 0x3f
 5497 01d0 19       		.uleb128 0x19
 5498 01d1 03       		.uleb128 0x3
 5499 01d2 0E       		.uleb128 0xe
 5500 01d3 3A       		.uleb128 0x3a
 5501 01d4 0B       		.uleb128 0xb
 5502 01d5 3B       		.uleb128 0x3b
 5503 01d6 05       		.uleb128 0x5
 5504 01d7 11       		.uleb128 0x11
 5505 01d8 01       		.uleb128 0x1
 5506 01d9 12       		.uleb128 0x12
 5507 01da 06       		.uleb128 0x6
 5508 01db 40       		.uleb128 0x40
 5509 01dc 18       		.uleb128 0x18
 5510 01dd 9642     		.uleb128 0x2116
 5511 01df 19       		.uleb128 0x19
 5512 01e0 00       		.byte	0
 5513 01e1 00       		.byte	0
 5514 01e2 1E       		.uleb128 0x1e
 5515 01e3 34       		.uleb128 0x34
 5516 01e4 00       		.byte	0
 5517 01e5 03       		.uleb128 0x3
 5518 01e6 0E       		.uleb128 0xe
 5519 01e7 3A       		.uleb128 0x3a
 5520 01e8 0B       		.uleb128 0xb
 5521 01e9 3B       		.uleb128 0x3b
 5522 01ea 05       		.uleb128 0x5
 5523 01eb 49       		.uleb128 0x49
 5524 01ec 13       		.uleb128 0x13
 5525 01ed 3F       		.uleb128 0x3f
 5526 01ee 19       		.uleb128 0x19
 5527 01ef 3C       		.uleb128 0x3c
 5528 01f0 19       		.uleb128 0x19
 5529 01f1 00       		.byte	0
 5530 01f2 00       		.byte	0
 5531 01f3 1F       		.uleb128 0x1f
 5532 01f4 35       		.uleb128 0x35
 5533 01f5 00       		.byte	0
 5534 01f6 49       		.uleb128 0x49
ARM GAS  C:\Users\Mattia\AppData\Local\Temp\ccYnk7Oc.s 			page 109


 5535 01f7 13       		.uleb128 0x13
 5536 01f8 00       		.byte	0
 5537 01f9 00       		.byte	0
 5538 01fa 20       		.uleb128 0x20
 5539 01fb 34       		.uleb128 0x34
 5540 01fc 00       		.byte	0
 5541 01fd 03       		.uleb128 0x3
 5542 01fe 0E       		.uleb128 0xe
 5543 01ff 3A       		.uleb128 0x3a
 5544 0200 0B       		.uleb128 0xb
 5545 0201 3B       		.uleb128 0x3b
 5546 0202 0B       		.uleb128 0xb
 5547 0203 49       		.uleb128 0x49
 5548 0204 13       		.uleb128 0x13
 5549 0205 3F       		.uleb128 0x3f
 5550 0206 19       		.uleb128 0x19
 5551 0207 3C       		.uleb128 0x3c
 5552 0208 19       		.uleb128 0x19
 5553 0209 00       		.byte	0
 5554 020a 00       		.byte	0
 5555 020b 21       		.uleb128 0x21
 5556 020c 34       		.uleb128 0x34
 5557 020d 00       		.byte	0
 5558 020e 03       		.uleb128 0x3
 5559 020f 08       		.uleb128 0x8
 5560 0210 3A       		.uleb128 0x3a
 5561 0211 0B       		.uleb128 0xb
 5562 0212 3B       		.uleb128 0x3b
 5563 0213 0B       		.uleb128 0xb
 5564 0214 49       		.uleb128 0x49
 5565 0215 13       		.uleb128 0x13
 5566 0216 3F       		.uleb128 0x3f
 5567 0217 19       		.uleb128 0x19
 5568 0218 3C       		.uleb128 0x3c
 5569 0219 19       		.uleb128 0x19
 5570 021a 00       		.byte	0
 5571 021b 00       		.byte	0
 5572 021c 00       		.byte	0
 5573              		.section	.debug_aranges,"",%progbits
 5574 0000 94000000 		.4byte	0x94
 5575 0004 0200     		.2byte	0x2
 5576 0006 00000000 		.4byte	.Ldebug_info0
 5577 000a 04       		.byte	0x4
 5578 000b 00       		.byte	0
 5579 000c 0000     		.2byte	0
 5580 000e 0000     		.2byte	0
 5581 0010 00000000 		.4byte	.LFB64
 5582 0014 74000000 		.4byte	.LFE64-.LFB64
 5583 0018 00000000 		.4byte	.LFB65
 5584 001c DA000000 		.4byte	.LFE65-.LFB65
 5585 0020 00000000 		.4byte	.LFB66
 5586 0024 DA000000 		.4byte	.LFE66-.LFB66
 5587 0028 00000000 		.4byte	.LFB67
 5588 002c 20000000 		.4byte	.LFE67-.LFB67
 5589 0030 00000000 		.4byte	.LFB68
 5590 0034 C0020000 		.4byte	.LFE68-.LFB68
 5591 0038 00000000 		.4byte	.LFB69
ARM GAS  C:\Users\Mattia\AppData\Local\Temp\ccYnk7Oc.s 			page 110


 5592 003c A0000000 		.4byte	.LFE69-.LFB69
 5593 0040 00000000 		.4byte	.LFB70
 5594 0044 04010000 		.4byte	.LFE70-.LFB70
 5595 0048 00000000 		.4byte	.LFB71
 5596 004c 04010000 		.4byte	.LFE71-.LFB71
 5597 0050 00000000 		.4byte	.LFB72
 5598 0054 FC000000 		.4byte	.LFE72-.LFB72
 5599 0058 00000000 		.4byte	.LFB73
 5600 005c 7C000000 		.4byte	.LFE73-.LFB73
 5601 0060 00000000 		.4byte	.LFB74
 5602 0064 100B0000 		.4byte	.LFE74-.LFB74
 5603 0068 00000000 		.4byte	.LFB75
 5604 006c 88020000 		.4byte	.LFE75-.LFB75
 5605 0070 00000000 		.4byte	.LFB76
 5606 0074 5C000000 		.4byte	.LFE76-.LFB76
 5607 0078 00000000 		.4byte	.LFB77
 5608 007c 54000000 		.4byte	.LFE77-.LFB77
 5609 0080 00000000 		.4byte	.LFB78
 5610 0084 54000000 		.4byte	.LFE78-.LFB78
 5611 0088 00000000 		.4byte	.LFB79
 5612 008c 2C000000 		.4byte	.LFE79-.LFB79
 5613 0090 00000000 		.4byte	0
 5614 0094 00000000 		.4byte	0
 5615              		.section	.debug_ranges,"",%progbits
 5616              	.Ldebug_ranges0:
 5617 0000 00000000 		.4byte	.LFB64
 5618 0004 74000000 		.4byte	.LFE64
 5619 0008 00000000 		.4byte	.LFB65
 5620 000c DA000000 		.4byte	.LFE65
 5621 0010 00000000 		.4byte	.LFB66
 5622 0014 DA000000 		.4byte	.LFE66
 5623 0018 00000000 		.4byte	.LFB67
 5624 001c 20000000 		.4byte	.LFE67
 5625 0020 00000000 		.4byte	.LFB68
 5626 0024 C0020000 		.4byte	.LFE68
 5627 0028 00000000 		.4byte	.LFB69
 5628 002c A0000000 		.4byte	.LFE69
 5629 0030 00000000 		.4byte	.LFB70
 5630 0034 04010000 		.4byte	.LFE70
 5631 0038 00000000 		.4byte	.LFB71
 5632 003c 04010000 		.4byte	.LFE71
 5633 0040 00000000 		.4byte	.LFB72
 5634 0044 FC000000 		.4byte	.LFE72
 5635 0048 00000000 		.4byte	.LFB73
 5636 004c 7C000000 		.4byte	.LFE73
 5637 0050 00000000 		.4byte	.LFB74
 5638 0054 100B0000 		.4byte	.LFE74
 5639 0058 00000000 		.4byte	.LFB75
 5640 005c 88020000 		.4byte	.LFE75
 5641 0060 00000000 		.4byte	.LFB76
 5642 0064 5C000000 		.4byte	.LFE76
 5643 0068 00000000 		.4byte	.LFB77
 5644 006c 54000000 		.4byte	.LFE77
 5645 0070 00000000 		.4byte	.LFB78
 5646 0074 54000000 		.4byte	.LFE78
 5647 0078 00000000 		.4byte	.LFB79
 5648 007c 2C000000 		.4byte	.LFE79
ARM GAS  C:\Users\Mattia\AppData\Local\Temp\ccYnk7Oc.s 			page 111


 5649 0080 00000000 		.4byte	0
 5650 0084 00000000 		.4byte	0
 5651              		.section	.debug_line,"",%progbits
 5652              	.Ldebug_line0:
 5653 0000 53050000 		.section	.debug_str,"MS",%progbits,1
 5653      02006901 
 5653      00000201 
 5653      FB0E0D00 
 5653      01010101 
 5654              	.LASF145:
 5655 0000 4779726F 		.ascii	"Gyro\000"
 5655      00
 5656              	.LASF144:
 5657 0005 41636365 		.ascii	"Accel\000"
 5657      6C00
 5658              	.LASF116:
 5659 000b 636F756E 		.ascii	"count\000"
 5659      7400
 5660              	.LASF38:
 5661 0011 7573655F 		.ascii	"use_2nd_motor_flag\000"
 5661      326E645F 
 5661      6D6F746F 
 5661      725F666C 
 5661      616700
 5662              	.LASF136:
 5663 0024 635F6D65 		.ascii	"c_mem\000"
 5663      6D00
 5664              	.LASF133:
 5665 002a 636F6E74 		.ascii	"controlreg\000"
 5665      726F6C72 
 5665      656700
 5666              	.LASF82:
 5667 0035 73745F69 		.ascii	"st_imu\000"
 5667      6D7500
 5668              	.LASF91:
 5669 003c 73745F75 		.ascii	"st_user\000"
 5669      73657200 
 5670              	.LASF30:
 5671 0044 746F7461 		.ascii	"total_time_on\000"
 5671      6C5F7469 
 5671      6D655F6F 
 5671      6E00
 5672              	.LASF70:
 5673 0052 6D5F6F66 		.ascii	"m_off\000"
 5673      6600
 5674              	.LASF65:
 5675 0058 656E636F 		.ascii	"encoder_line\000"
 5675      6465725F 
 5675      6C696E65 
 5675      00
 5676              	.LASF149:
 5677 0065 474E5520 		.ascii	"GNU C11 5.4.1 20160609 (release) [ARM/embedded-5-br"
 5677      43313120 
 5677      352E342E 
 5677      31203230 
 5677      31363036 
 5678 0098 616E6368 		.ascii	"anch revision 237715] -mcpu=cortex-m3 -mthumb -g -O"
ARM GAS  C:\Users\Mattia\AppData\Local\Temp\ccYnk7Oc.s 			page 112


 5678      20726576 
 5678      6973696F 
 5678      6E203233 
 5678      37373135 
 5679 00cb 30202D66 		.ascii	"0 -ffunction-sections -ffat-lto-objects\000"
 5679      66756E63 
 5679      74696F6E 
 5679      2D736563 
 5679      74696F6E 
 5680              	.LASF143:
 5681 00f3 675F696D 		.ascii	"g_imuNew\000"
 5681      754E6577 
 5681      00
 5682              	.LASF9:
 5683 00fc 6C6F6E67 		.ascii	"long long unsigned int\000"
 5683      206C6F6E 
 5683      6720756E 
 5683      7369676E 
 5683      65642069 
 5684              	.LASF39:
 5685 0113 62617564 		.ascii	"baud_rate\000"
 5685      5F726174 
 5685      6500
 5686              	.LASF96:
 5687 011d 72657374 		.ascii	"rest_delay\000"
 5687      5F64656C 
 5687      617900
 5688              	.LASF135:
 5689 0128 49544D5F 		.ascii	"ITM_RxBuffer\000"
 5689      52784275 
 5689      66666572 
 5689      00
 5690              	.LASF97:
 5691 0135 72657374 		.ascii	"rest_vel\000"
 5691      5F76656C 
 5691      00
 5692              	.LASF11:
 5693 013e 696E7431 		.ascii	"int16_t\000"
 5693      365F7400 
 5694              	.LASF77:
 5695 0146 656D675F 		.ascii	"emg_threshold\000"
 5695      74687265 
 5695      73686F6C 
 5695      6400
 5696              	.LASF8:
 5697 0154 6C6F6E67 		.ascii	"long long int\000"
 5697      206C6F6E 
 5697      6720696E 
 5697      7400
 5698              	.LASF0:
 5699 0162 7369676E 		.ascii	"signed char\000"
 5699      65642063 
 5699      68617200 
 5700              	.LASF59:
 5701 016e 6D61785F 		.ascii	"max_step_neg\000"
 5701      73746570 
 5701      5F6E6567 
ARM GAS  C:\Users\Mattia\AppData\Local\Temp\ccYnk7Oc.s 			page 113


 5701      00
 5702              	.LASF18:
 5703 017b 696E7433 		.ascii	"int32\000"
 5703      3200
 5704              	.LASF6:
 5705 0181 6C6F6E67 		.ascii	"long int\000"
 5705      20696E74 
 5705      00
 5706              	.LASF138:
 5707 018a 4E5F494D 		.ascii	"N_IMU_Connected\000"
 5707      555F436F 
 5707      6E6E6563 
 5707      74656400 
 5708              	.LASF117:
 5709 019a 494D555F 		.ascii	"IMU_ack\000"
 5709      61636B00 
 5710              	.LASF132:
 5711 01a2 61646472 		.ascii	"address\000"
 5711      65737300 
 5712              	.LASF67:
 5713 01aa 6E6F745F 		.ascii	"not_revers_motor_flag\000"
 5713      72657665 
 5713      72735F6D 
 5713      6F746F72 
 5713      5F666C61 
 5714              	.LASF146:
 5715 01c0 4D616743 		.ascii	"MagCal\000"
 5715      616C00
 5716              	.LASF36:
 5717 01c7 72696768 		.ascii	"right_left\000"
 5717      745F6C65 
 5717      667400
 5718              	.LASF29:
 5719 01d2 77697265 		.ascii	"wire_disp\000"
 5719      5F646973 
 5719      7000
 5720              	.LASF106:
 5721 01dc 61636365 		.ascii	"accel_value\000"
 5721      6C5F7661 
 5721      6C756500 
 5722              	.LASF64:
 5723 01e8 636F6E74 		.ascii	"control_mode\000"
 5723      726F6C5F 
 5723      6D6F6465 
 5723      00
 5724              	.LASF101:
 5725 01f5 756E7573 		.ascii	"unused_bytes1\000"
 5725      65645F62 
 5725      79746573 
 5725      3100
 5726              	.LASF54:
 5727 0203 61637469 		.ascii	"activate_pwm_rescaling\000"
 5727      76617465 
 5727      5F70776D 
 5727      5F726573 
 5727      63616C69 
 5728              	.LASF84:
ARM GAS  C:\Users\Mattia\AppData\Local\Temp\ccYnk7Oc.s 			page 114


 5729 021a 5350495F 		.ascii	"SPI_read_delay\000"
 5729      72656164 
 5729      5F64656C 
 5729      617900
 5730              	.LASF15:
 5731 0229 75696E74 		.ascii	"uint32\000"
 5731      333200
 5732              	.LASF99:
 5733 0230 73745F65 		.ascii	"st_eeprom\000"
 5733      6570726F 
 5733      6D00
 5734              	.LASF140:
 5735 023a 696D7573 		.ascii	"imus_data_size\000"
 5735      5F646174 
 5735      615F7369 
 5735      7A6500
 5736              	.LASF50:
 5737 0249 6B5F705F 		.ascii	"k_p_c_dl\000"
 5737      635F646C 
 5737      00
 5738              	.LASF71:
 5739 0252 6D5F6D75 		.ascii	"m_mult\000"
 5739      6C7400
 5740              	.LASF81:
 5741 0259 73776974 		.ascii	"switch_emg\000"
 5741      63685F65 
 5741      6D6700
 5742              	.LASF63:
 5743 0264 696E7075 		.ascii	"input_mode\000"
 5743      745F6D6F 
 5743      646500
 5744              	.LASF49:
 5745 026f 6B5F645F 		.ascii	"k_d_dl\000"
 5745      646C00
 5746              	.LASF37:
 5747 0276 72657365 		.ascii	"reset_counters\000"
 5747      745F636F 
 5747      756E7465 
 5747      727300
 5748              	.LASF151:
 5749 0285 433A5C55 		.ascii	"C:\\Users\\Mattia\\Documents\\GITHUB\\SoftHand-PRO-"
 5749      73657273 
 5749      5C4D6174 
 5749      7469615C 
 5749      446F6375 
 5750 02b3 50536F43 		.ascii	"PSoC5\\SoftHand_Pro.cydsn\000"
 5750      355C536F 
 5750      66744861 
 5750      6E645F50 
 5750      726F2E63 
 5751              	.LASF142:
 5752 02cc 675F696D 		.ascii	"g_imu\000"
 5752      7500
 5753              	.LASF10:
 5754 02d2 756E7369 		.ascii	"unsigned int\000"
 5754      676E6564 
 5754      20696E74 
ARM GAS  C:\Users\Mattia\AppData\Local\Temp\ccYnk7Oc.s 			page 115


 5754      00
 5755              	.LASF74:
 5756 02df 6D6F746F 		.ascii	"motor_handle_ratio\000"
 5756      725F6861 
 5756      6E646C65 
 5756      5F726174 
 5756      696F00
 5757              	.LASF127:
 5758 02f2 7661725F 		.ascii	"var_h\000"
 5758      6800
 5759              	.LASF152:
 5760 02f8 52656164 		.ascii	"ReadControlRegisterIMU\000"
 5760      436F6E74 
 5760      726F6C52 
 5760      65676973 
 5760      74657249 
 5761              	.LASF48:
 5762 030f 6B5F695F 		.ascii	"k_i_dl\000"
 5762      646C00
 5763              	.LASF111:
 5764 0316 496E6974 		.ascii	"InitIMU\000"
 5764      494D5500 
 5765              	.LASF7:
 5766 031e 6C6F6E67 		.ascii	"long unsigned int\000"
 5766      20756E73 
 5766      69676E65 
 5766      6420696E 
 5766      7400
 5767              	.LASF122:
 5768 0330 52656164 		.ascii	"ReadGyro\000"
 5768      4779726F 
 5768      00
 5769              	.LASF89:
 5770 0339 72656164 		.ascii	"read_ADC_sensors_port_flag\000"
 5770      5F414443 
 5770      5F73656E 
 5770      736F7273 
 5770      5F706F72 
 5771              	.LASF141:
 5772 0354 73696E67 		.ascii	"single_imu_size\000"
 5772      6C655F69 
 5772      6D755F73 
 5772      697A6500 
 5773              	.LASF93:
 5774 0364 75736572 		.ascii	"user_emg\000"
 5774      5F656D67 
 5774      00
 5775              	.LASF3:
 5776 036d 73686F72 		.ascii	"short unsigned int\000"
 5776      7420756E 
 5776      7369676E 
 5776      65642069 
 5776      6E7400
 5777              	.LASF148:
 5778 0380 51756174 		.ascii	"Quat\000"
 5778      00
 5779              	.LASF137:
ARM GAS  C:\Users\Mattia\AppData\Local\Temp\ccYnk7Oc.s 			page 116


 5780 0385 6379636C 		.ascii	"cycle_time\000"
 5780      655F7469 
 5780      6D6500
 5781              	.LASF16:
 5782 0390 696E7438 		.ascii	"int8\000"
 5782      00
 5783              	.LASF55:
 5784 0395 6D6F746F 		.ascii	"motor_driver_type\000"
 5784      725F6472 
 5784      69766572 
 5784      5F747970 
 5784      6500
 5785              	.LASF57:
 5786 03a7 706F735F 		.ascii	"pos_lim_inf\000"
 5786      6C696D5F 
 5786      696E6600 
 5787              	.LASF42:
 5788 03b3 756E7573 		.ascii	"unused_bytes\000"
 5788      65645F62 
 5788      79746573 
 5788      00
 5789              	.LASF139:
 5790 03c0 494D555F 		.ascii	"IMU_connected\000"
 5790      636F6E6E 
 5790      65637465 
 5790      6400
 5791              	.LASF107:
 5792 03ce 6779726F 		.ascii	"gyro_value\000"
 5792      5F76616C 
 5792      756500
 5793              	.LASF113:
 5794 03d9 496D7573 		.ascii	"ImusReset\000"
 5794      52657365 
 5794      7400
 5795              	.LASF104:
 5796 03e3 73745F69 		.ascii	"st_imu_data\000"
 5796      6D755F64 
 5796      61746100 
 5797              	.LASF26:
 5798 03ef 706F7369 		.ascii	"position_hist\000"
 5798      74696F6E 
 5798      5F686973 
 5798      7400
 5799              	.LASF5:
 5800 03fd 5F5F696E 		.ascii	"__int32_t\000"
 5800      7433325F 
 5800      7400
 5801              	.LASF46:
 5802 0407 6B5F645F 		.ascii	"k_d_c\000"
 5802      6300
 5803              	.LASF124:
 5804 040d 52656164 		.ascii	"ReadMagCal\000"
 5804      4D616743 
 5804      616C00
 5805              	.LASF34:
 5806 0418 68775F6D 		.ascii	"hw_maint_date\000"
 5806      61696E74 
ARM GAS  C:\Users\Mattia\AppData\Local\Temp\ccYnk7Oc.s 			page 117


 5806      5F646174 
 5806      6500
 5807              	.LASF85:
 5808 0426 494D555F 		.ascii	"IMU_conf\000"
 5808      636F6E66 
 5808      00
 5809              	.LASF108:
 5810 042f 6D61675F 		.ascii	"mag_value\000"
 5810      76616C75 
 5810      6500
 5811              	.LASF92:
 5812 0439 75736572 		.ascii	"user_code_string\000"
 5812      5F636F64 
 5812      655F7374 
 5812      72696E67 
 5812      00
 5813              	.LASF19:
 5814 044a 666C6F61 		.ascii	"float32\000"
 5814      74333200 
 5815              	.LASF24:
 5816 0452 73697A65 		.ascii	"sizetype\000"
 5816      74797065 
 5816      00
 5817              	.LASF112:
 5818 045b 496E6974 		.ascii	"InitIMUMagCal\000"
 5818      494D554D 
 5818      61674361 
 5818      6C00
 5819              	.LASF23:
 5820 0469 6C6F6E67 		.ascii	"long double\000"
 5820      20646F75 
 5820      626C6500 
 5821              	.LASF33:
 5822 0475 73745F64 		.ascii	"st_device\000"
 5822      65766963 
 5822      6500
 5823              	.LASF123:
 5824 047f 52656164 		.ascii	"ReadMag\000"
 5824      4D616700 
 5825              	.LASF150:
 5826 0487 2E2E5C73 		.ascii	"..\\src\\IMU_functions.c\000"
 5826      72635C49 
 5826      4D555F66 
 5826      756E6374 
 5826      696F6E73 
 5827              	.LASF147:
 5828 049e 54656D70 		.ascii	"Temp\000"
 5828      00
 5829              	.LASF13:
 5830 04a3 75696E74 		.ascii	"uint8\000"
 5830      3800
 5831              	.LASF95:
 5832 04a9 72657374 		.ascii	"rest_pos\000"
 5832      5F706F73 
 5832      00
 5833              	.LASF58:
 5834 04b2 706F735F 		.ascii	"pos_lim_sup\000"
ARM GAS  C:\Users\Mattia\AppData\Local\Temp\ccYnk7Oc.s 			page 118


 5834      6C696D5F 
 5834      73757000 
 5835              	.LASF118:
 5836 04be 43686970 		.ascii	"ChipSelectorIMU\000"
 5836      53656C65 
 5836      63746F72 
 5836      494D5500 
 5837              	.LASF119:
 5838 04ce 52656164 		.ascii	"ReadIMU\000"
 5838      494D5500 
 5839              	.LASF27:
 5840 04d6 63757272 		.ascii	"current_hist\000"
 5840      656E745F 
 5840      68697374 
 5840      00
 5841              	.LASF87:
 5842 04e3 63757272 		.ascii	"curr_time\000"
 5842      5F74696D 
 5842      6500
 5843              	.LASF115:
 5844 04ed 6B5F696D 		.ascii	"k_imu\000"
 5844      7500
 5845              	.LASF53:
 5846 04f3 61637469 		.ascii	"activ\000"
 5846      7600
 5847              	.LASF102:
 5848 04f9 6D6F746F 		.ascii	"motor\000"
 5848      7200
 5849              	.LASF73:
 5850 04ff 456E635F 		.ascii	"Enc_idx_use_for_control\000"
 5850      6964785F 
 5850      7573655F 
 5850      666F725F 
 5850      636F6E74 
 5851              	.LASF103:
 5852 0517 75736572 		.ascii	"user\000"
 5852      00
 5853              	.LASF12:
 5854 051c 696E7433 		.ascii	"int32_t\000"
 5854      325F7400 
 5855              	.LASF1:
 5856 0524 756E7369 		.ascii	"unsigned char\000"
 5856      676E6564 
 5856      20636861 
 5856      7200
 5857              	.LASF14:
 5858 0532 75696E74 		.ascii	"uint16\000"
 5858      313600
 5859              	.LASF131:
 5860 0539 57726974 		.ascii	"WriteControlRegisterIMU\000"
 5860      65436F6E 
 5860      74726F6C 
 5860      52656769 
 5860      73746572 
 5861              	.LASF75:
 5862 0551 67656172 		.ascii	"gears_params\000"
 5862      735F7061 
ARM GAS  C:\Users\Mattia\AppData\Local\Temp\ccYnk7Oc.s 			page 119


 5862      72616D73 
 5862      00
 5863              	.LASF90:
 5864 055e 4144435F 		.ascii	"ADC_conf\000"
 5864      636F6E66 
 5864      00
 5865              	.LASF2:
 5866 0567 73686F72 		.ascii	"short int\000"
 5866      7420696E 
 5866      7400
 5867              	.LASF109:
 5868 0571 71756174 		.ascii	"quat_value\000"
 5868      5F76616C 
 5868      756500
 5869              	.LASF100:
 5870 057c 666C6167 		.ascii	"flag\000"
 5870      00
 5871              	.LASF44:
 5872 0581 6B5F705F 		.ascii	"k_p_c\000"
 5872      6300
 5873              	.LASF62:
 5874 0587 63757272 		.ascii	"current_limit\000"
 5874      656E745F 
 5874      6C696D69 
 5874      7400
 5875              	.LASF32:
 5876 0595 73745F63 		.ascii	"st_counters\000"
 5876      6F756E74 
 5876      65727300 
 5877              	.LASF25:
 5878 05a1 656D675F 		.ascii	"emg_counter\000"
 5878      636F756E 
 5878      74657200 
 5879              	.LASF17:
 5880 05ad 696E7431 		.ascii	"int16\000"
 5880      3600
 5881              	.LASF56:
 5882 05b3 706F735F 		.ascii	"pos_lim_flag\000"
 5882      6C696D5F 
 5882      666C6167 
 5882      00
 5883              	.LASF76:
 5884 05c0 73745F65 		.ascii	"st_emg\000"
 5884      6D6700
 5885              	.LASF60:
 5886 05c7 6D61785F 		.ascii	"max_step_pos\000"
 5886      73746570 
 5886      5F706F73 
 5886      00
 5887              	.LASF31:
 5888 05d4 746F7461 		.ascii	"total_time_rest\000"
 5888      6C5F7469 
 5888      6D655F72 
 5888      65737400 
 5889              	.LASF28:
 5890 05e4 72657374 		.ascii	"rest_counter\000"
 5890      5F636F75 
ARM GAS  C:\Users\Mattia\AppData\Local\Temp\ccYnk7Oc.s 			page 120


 5890      6E746572 
 5890      00
 5891              	.LASF134:
 5892 05f1 5350495F 		.ascii	"SPI_delay\000"
 5892      64656C61 
 5892      7900
 5893              	.LASF126:
 5894 05fb 52656164 		.ascii	"ReadQuat\000"
 5894      51756174 
 5894      00
 5895              	.LASF20:
 5896 0604 666C6F61 		.ascii	"float\000"
 5896      7400
 5897              	.LASF22:
 5898 060a 63686172 		.ascii	"char\000"
 5898      00
 5899              	.LASF98:
 5900 060f 72657374 		.ascii	"rest_position_flag\000"
 5900      5F706F73 
 5900      6974696F 
 5900      6E5F666C 
 5900      616700
 5901              	.LASF114:
 5902 0622 496E6974 		.ascii	"InitIMUgeneral\000"
 5902      494D5567 
 5902      656E6572 
 5902      616C00
 5903              	.LASF86:
 5904 0631 73745F65 		.ascii	"st_expansion\000"
 5904      7870616E 
 5904      73696F6E 
 5904      00
 5905              	.LASF121:
 5906 063e 68696768 		.ascii	"high\000"
 5906      00
 5907              	.LASF94:
 5908 0643 73745F53 		.ascii	"st_SH_spec\000"
 5908      485F7370 
 5908      656300
 5909              	.LASF41:
 5910 064e 6465765F 		.ascii	"dev_type\000"
 5910      74797065 
 5910      00
 5911              	.LASF51:
 5912 0657 6B5F695F 		.ascii	"k_i_c_dl\000"
 5912      635F646C 
 5912      00
 5913              	.LASF40:
 5914 0660 75736572 		.ascii	"user_id\000"
 5914      5F696400 
 5915              	.LASF69:
 5916 0668 456E635F 		.ascii	"Enc_raw_read_conf\000"
 5916      7261775F 
 5916      72656164 
 5916      5F636F6E 
 5916      6600
 5917              	.LASF43:
ARM GAS  C:\Users\Mattia\AppData\Local\Temp\ccYnk7Oc.s 			page 121


 5918 067a 73745F6D 		.ascii	"st_motor\000"
 5918      6F746F72 
 5918      00
 5919              	.LASF129:
 5920 0683 52656164 		.ascii	"ReadAllIMUs\000"
 5920      416C6C49 
 5920      4D557300 
 5921              	.LASF80:
 5922 068f 656D675F 		.ascii	"emg_calibration_flag\000"
 5922      63616C69 
 5922      62726174 
 5922      696F6E5F 
 5922      666C6167 
 5923              	.LASF61:
 5924 06a4 63757272 		.ascii	"curr_lookup\000"
 5924      5F6C6F6F 
 5924      6B757000 
 5925              	.LASF83:
 5926 06b0 72656164 		.ascii	"read_imu_flag\000"
 5926      5F696D75 
 5926      5F666C61 
 5926      6700
 5927              	.LASF130:
 5928 06be 52656164 		.ascii	"ReadTemp\000"
 5928      54656D70 
 5928      00
 5929              	.LASF79:
 5930 06c7 656D675F 		.ascii	"emg_speed\000"
 5930      73706565 
 5930      6400
 5931              	.LASF78:
 5932 06d1 656D675F 		.ascii	"emg_max_value\000"
 5932      6D61785F 
 5932      76616C75 
 5932      6500
 5933              	.LASF52:
 5934 06df 6B5F645F 		.ascii	"k_d_c_dl\000"
 5934      635F646C 
 5934      00
 5935              	.LASF105:
 5936 06e8 666C6167 		.ascii	"flags\000"
 5936      7300
 5937              	.LASF110:
 5938 06ee 74656D70 		.ascii	"temp_value\000"
 5938      5F76616C 
 5938      756500
 5939              	.LASF88:
 5940 06f9 72656164 		.ascii	"read_exp_port_flag\000"
 5940      5F657870 
 5940      5F706F72 
 5940      745F666C 
 5940      616700
 5941              	.LASF4:
 5942 070c 5F5F696E 		.ascii	"__int16_t\000"
 5942      7431365F 
 5942      7400
 5943              	.LASF125:
ARM GAS  C:\Users\Mattia\AppData\Local\Temp\ccYnk7Oc.s 			page 122


 5944 0716 72656164 		.ascii	"read\000"
 5944      00
 5945              	.LASF120:
 5946 071b 52656164 		.ascii	"ReadAcc\000"
 5946      41636300 
 5947              	.LASF128:
 5948 0723 4E61706C 		.ascii	"Napla\000"
 5948      6100
 5949              	.LASF72:
 5950 0729 646F7562 		.ascii	"double_encoder_on_off\000"
 5950      6C655F65 
 5950      6E636F64 
 5950      65725F6F 
 5950      6E5F6F66 
 5951              	.LASF45:
 5952 073f 6B5F695F 		.ascii	"k_i_c\000"
 5952      6300
 5953              	.LASF35:
 5954 0745 73746174 		.ascii	"stats_period_begin_date\000"
 5954      735F7065 
 5954      72696F64 
 5954      5F626567 
 5954      696E5F64 
 5955              	.LASF21:
 5956 075d 646F7562 		.ascii	"double\000"
 5956      6C6500
 5957              	.LASF47:
 5958 0764 6B5F705F 		.ascii	"k_p_dl\000"
 5958      646C00
 5959              	.LASF66:
 5960 076b 70776D5F 		.ascii	"pwm_rate_limiter\000"
 5960      72617465 
 5960      5F6C696D 
 5960      69746572 
 5960      00
 5961              	.LASF68:
 5962 077c 73745F65 		.ascii	"st_encoder\000"
 5962      6E636F64 
 5962      657200
 5963              		.ident	"GCC: (GNU Tools for ARM Embedded Processors) 5.4.1 20160609 (release) [ARM/embedded-5-bran
