ARM GAS  C:\Users\Mattia\AppData\Local\Temp\ccYnk7Oc.s 			page 1


   1              		.syntax unified
   2              		.cpu cortex-m3
   3              		.fpu softvfp
   4              		.eabi_attribute 20, 1
   5              		.eabi_attribute 21, 1
   6              		.eabi_attribute 23, 3
   7              		.eabi_attribute 24, 1
   8              		.eabi_attribute 25, 1
   9              		.eabi_attribute 26, 1
  10              		.eabi_attribute 30, 6
  11              		.eabi_attribute 34, 1
  12              		.eabi_attribute 18, 4
  13              		.thumb
  14              		.syntax unified
  15              		.file	"IMU_functions.c"
  16              		.text
  17              	.Ltext0:
  18              		.cfi_sections	.debug_frame
  19              		.section	.text.ImusReset,"ax",%progbits
  20              		.align	2
  21              		.global	ImusReset
  22              		.thumb
  23              		.thumb_func
  24              		.type	ImusReset, %function
  25              	ImusReset:
  26              	.LFB64:
  27              		.file 1 "..\\src\\IMU_functions.c"
   1:..\src/IMU_functions.c **** // ----------------------------------------------------------------------------
   2:..\src/IMU_functions.c **** // BSD 3-Clause License
   3:..\src/IMU_functions.c **** 
   4:..\src/IMU_functions.c **** // Copyright (c) 2016, qbrobotics
   5:..\src/IMU_functions.c **** // Copyright (c) 2017-2019, Centro "E.Piaggio"
   6:..\src/IMU_functions.c **** // All rights reserved.
   7:..\src/IMU_functions.c **** 
   8:..\src/IMU_functions.c **** // Redistribution and use in source and binary forms, with or without
   9:..\src/IMU_functions.c **** // modification, are permitted provided that the following conditions are met:
  10:..\src/IMU_functions.c **** 
  11:..\src/IMU_functions.c **** // * Redistributions of source code must retain the above copyright notice, this
  12:..\src/IMU_functions.c **** //   list of conditions and the following disclaimer.
  13:..\src/IMU_functions.c **** 
  14:..\src/IMU_functions.c **** // * Redistributions in binary form must reproduce the above copyright notice,
  15:..\src/IMU_functions.c **** //   this list of conditions and the following disclaimer in the documentation
  16:..\src/IMU_functions.c **** //   and/or other materials provided with the distribution.
  17:..\src/IMU_functions.c **** 
  18:..\src/IMU_functions.c **** // * Neither the name of the copyright holder nor the names of its
  19:..\src/IMU_functions.c **** //   contributors may be used to endorse or promote products derived from
  20:..\src/IMU_functions.c **** //   this software without specific prior written permission.
  21:..\src/IMU_functions.c **** 
  22:..\src/IMU_functions.c **** // THIS SOFTWARE IS PROVIDED BY THE COPYRIGHT HOLDERS AND CONTRIBUTORS "AS IS"
  23:..\src/IMU_functions.c **** // AND ANY EXPRESS OR IMPLIED WARRANTIES, INCLUDING, BUT NOT LIMITED TO, THE
  24:..\src/IMU_functions.c **** // IMPLIED WARRANTIES OF MERCHANTABILITY AND FITNESS FOR A PARTICULAR PURPOSE ARE
  25:..\src/IMU_functions.c **** // DISCLAIMED. IN NO EVENT SHALL THE COPYRIGHT HOLDER OR CONTRIBUTORS BE LIABLE
  26:..\src/IMU_functions.c **** // FOR ANY DIRECT, INDIRECT, INCIDENTAL, SPECIAL, EXEMPLARY, OR CONSEQUENTIAL
  27:..\src/IMU_functions.c **** // DAMAGES (INCLUDING, BUT NOT LIMITED TO, PROCUREMENT OF SUBSTITUTE GOODS OR
  28:..\src/IMU_functions.c **** // SERVICES; LOSS OF USE, DATA, OR PROFITS; OR BUSINESS INTERRUPTION) HOWEVER
  29:..\src/IMU_functions.c **** // CAUSED AND ON ANY THEORY OF LIABILITY, WHETHER IN CONTRACT, STRICT LIABILITY,
  30:..\src/IMU_functions.c **** // OR TORT (INCLUDING NEGLIGENCE OR OTHERWISE) ARISING IN ANY WAY OUT OF THE USE
ARM GAS  C:\Users\Mattia\AppData\Local\Temp\ccYnk7Oc.s 			page 2


  31:..\src/IMU_functions.c **** // OF THIS SOFTWARE, EVEN IF ADVISED OF THE POSSIBILITY OF SUCH DAMAGE.
  32:..\src/IMU_functions.c **** // POSSIBILITY OF SUCH DAMAGE.
  33:..\src/IMU_functions.c **** // ----------------------------------------------------------------------------
  34:..\src/IMU_functions.c **** 
  35:..\src/IMU_functions.c **** /**
  36:..\src/IMU_functions.c **** * \file         IMU_functions.c
  37:..\src/IMU_functions.c **** *
  38:..\src/IMU_functions.c **** * \brief        Implementation of IMU module functions.
  39:..\src/IMU_functions.c **** * \date         February 01, 2018
  40:..\src/IMU_functions.c **** * \author       _Centro "E.Piaggio"_
  41:..\src/IMU_functions.c **** * \copyright    (C) 2012-2016 qbrobotics. All rights reserved.
  42:..\src/IMU_functions.c **** * \copyright    (C) 2017-2019 Centro "E.Piaggio". All rights reserved.
  43:..\src/IMU_functions.c **** */
  44:..\src/IMU_functions.c **** 
  45:..\src/IMU_functions.c **** #include "IMU_functions.h"
  46:..\src/IMU_functions.c **** 
  47:..\src/IMU_functions.c **** extern uint8 Accel[N_IMU_MAX][6];
  48:..\src/IMU_functions.c **** extern uint8 Gyro[N_IMU_MAX][6];
  49:..\src/IMU_functions.c **** extern uint8 Mag[N_IMU_MAX][6];
  50:..\src/IMU_functions.c **** extern uint8 MagCal[N_IMU_MAX][3];
  51:..\src/IMU_functions.c **** 
  52:..\src/IMU_functions.c **** /*******************************************************************************
  53:..\src/IMU_functions.c **** * Function Name: Imus Reset
  54:..\src/IMU_functions.c **** *********************************************************************************/	
  55:..\src/IMU_functions.c **** void ImusReset() {
  28              		.loc 1 55 0
  29              		.cfi_startproc
  30              		@ args = 0, pretend = 0, frame = 8
  31              		@ frame_needed = 1, uses_anonymous_args = 0
  32 0000 80B5     		push	{r7, lr}
  33              		.cfi_def_cfa_offset 8
  34              		.cfi_offset 7, -8
  35              		.cfi_offset 14, -4
  36 0002 82B0     		sub	sp, sp, #8
  37              		.cfi_def_cfa_offset 16
  38 0004 00AF     		add	r7, sp, #0
  39              		.cfi_def_cfa_register 7
  56:..\src/IMU_functions.c ****     uint8 i;
  57:..\src/IMU_functions.c ****     
  58:..\src/IMU_functions.c ****     CyDelay(10);
  40              		.loc 1 58 0
  41 0006 0A20     		movs	r0, #10
  42 0008 FFF7FEFF 		bl	CyDelay
  59:..\src/IMU_functions.c ****     InitIMUgeneral();
  43              		.loc 1 59 0
  44 000c FFF7FEFF 		bl	InitIMUgeneral
  60:..\src/IMU_functions.c **** 
  61:..\src/IMU_functions.c ****     CyDelay(10);
  45              		.loc 1 61 0
  46 0010 0A20     		movs	r0, #10
  47 0012 FFF7FEFF 		bl	CyDelay
  62:..\src/IMU_functions.c ****     
  63:..\src/IMU_functions.c ****     // Initialize quaternion
  64:..\src/IMU_functions.c ****     for (i = 0; i<N_IMU_MAX; i++) {
  48              		.loc 1 64 0
  49 0016 0023     		movs	r3, #0
  50 0018 FB71     		strb	r3, [r7, #7]
ARM GAS  C:\Users\Mattia\AppData\Local\Temp\ccYnk7Oc.s 			page 3


  51 001a 1DE0     		b	.L2
  52              	.L3:
  65:..\src/IMU_functions.c ****         Quat[i][0] = 0.999;
  53              		.loc 1 65 0 discriminator 3
  54 001c FB79     		ldrb	r3, [r7, #7]	@ zero_extendqisi2
  55 001e 124A     		ldr	r2, .L4
  56 0020 1B01     		lsls	r3, r3, #4
  57 0022 1344     		add	r3, r3, r2
  58 0024 114A     		ldr	r2, .L4+4
  59 0026 1A60     		str	r2, [r3]	@ float
  66:..\src/IMU_functions.c ****         Quat[i][1] = 0.01;
  60              		.loc 1 66 0 discriminator 3
  61 0028 FB79     		ldrb	r3, [r7, #7]	@ zero_extendqisi2
  62 002a 0F4A     		ldr	r2, .L4
  63 002c 1B01     		lsls	r3, r3, #4
  64 002e 1344     		add	r3, r3, r2
  65 0030 0433     		adds	r3, r3, #4
  66 0032 0F4A     		ldr	r2, .L4+8
  67 0034 1A60     		str	r2, [r3]	@ float
  67:..\src/IMU_functions.c ****         Quat[i][2] = 0.01;
  68              		.loc 1 67 0 discriminator 3
  69 0036 FB79     		ldrb	r3, [r7, #7]	@ zero_extendqisi2
  70 0038 0B4A     		ldr	r2, .L4
  71 003a 1B01     		lsls	r3, r3, #4
  72 003c 1344     		add	r3, r3, r2
  73 003e 0833     		adds	r3, r3, #8
  74 0040 0B4A     		ldr	r2, .L4+8
  75 0042 1A60     		str	r2, [r3]	@ float
  68:..\src/IMU_functions.c ****         Quat[i][3] = 0.01;
  76              		.loc 1 68 0 discriminator 3
  77 0044 FB79     		ldrb	r3, [r7, #7]	@ zero_extendqisi2
  78 0046 084A     		ldr	r2, .L4
  79 0048 1B01     		lsls	r3, r3, #4
  80 004a 1344     		add	r3, r3, r2
  81 004c 0C33     		adds	r3, r3, #12
  82 004e 084A     		ldr	r2, .L4+8
  83 0050 1A60     		str	r2, [r3]	@ float
  64:..\src/IMU_functions.c ****         Quat[i][0] = 0.999;
  84              		.loc 1 64 0 discriminator 3
  85 0052 FB79     		ldrb	r3, [r7, #7]	@ zero_extendqisi2
  86 0054 0133     		adds	r3, r3, #1
  87 0056 FB71     		strb	r3, [r7, #7]
  88              	.L2:
  64:..\src/IMU_functions.c ****         Quat[i][0] = 0.999;
  89              		.loc 1 64 0 is_stmt 0 discriminator 1
  90 0058 FB79     		ldrb	r3, [r7, #7]	@ zero_extendqisi2
  91 005a 042B     		cmp	r3, #4
  92 005c DED9     		bls	.L3
  69:..\src/IMU_functions.c ****     }
  70:..\src/IMU_functions.c **** }
  93              		.loc 1 70 0 is_stmt 1
  94 005e 00BF     		nop
  95 0060 0837     		adds	r7, r7, #8
  96              		.cfi_def_cfa_offset 8
  97 0062 BD46     		mov	sp, r7
  98              		.cfi_def_cfa_register 13
  99              		@ sp needed
ARM GAS  C:\Users\Mattia\AppData\Local\Temp\ccYnk7Oc.s 			page 4


 100 0064 80BD     		pop	{r7, pc}
 101              	.L5:
 102 0066 00BF     		.align	2
 103              	.L4:
 104 0068 00000000 		.word	Quat
 105 006c 77BE7F3F 		.word	1065336439
 106 0070 0AD7233C 		.word	1008981770
 107              		.cfi_endproc
 108              	.LFE64:
 109              		.size	ImusReset, .-ImusReset
 110              		.section	.text.InitIMU,"ax",%progbits
 111              		.align	2
 112              		.global	InitIMU
 113              		.thumb
 114              		.thumb_func
 115              		.type	InitIMU, %function
 116              	InitIMU:
 117              	.LFB65:
  71:..\src/IMU_functions.c **** 
  72:..\src/IMU_functions.c **** /*******************************************************************************
  73:..\src/IMU_functions.c **** * Function Name: IMU Initialization
  74:..\src/IMU_functions.c **** *********************************************************************************/
  75:..\src/IMU_functions.c **** void InitIMU(){	
 118              		.loc 1 75 0
 119              		.cfi_startproc
 120              		@ args = 0, pretend = 0, frame = 0
 121              		@ frame_needed = 1, uses_anonymous_args = 0
 122 0000 80B5     		push	{r7, lr}
 123              		.cfi_def_cfa_offset 8
 124              		.cfi_offset 7, -8
 125              		.cfi_offset 14, -4
 126 0002 00AF     		add	r7, sp, #0
 127              		.cfi_def_cfa_register 7
  76:..\src/IMU_functions.c ****     
  77:..\src/IMU_functions.c **** 	WriteControlRegisterIMU(MPU9250_PWR_MGMT_1, 0x10); 
 128              		.loc 1 77 0
 129 0004 1021     		movs	r1, #16
 130 0006 6B20     		movs	r0, #107
 131 0008 FFF7FEFF 		bl	WriteControlRegisterIMU
  78:..\src/IMU_functions.c **** 	CyDelay(10);	
 132              		.loc 1 78 0
 133 000c 0A20     		movs	r0, #10
 134 000e FFF7FEFF 		bl	CyDelay
  79:..\src/IMU_functions.c **** 	WriteControlRegisterIMU(MPU9250_USER_CTRL, 0x20);  //I2C master enable - disable I2C (prima 0x30)
 135              		.loc 1 79 0
 136 0012 2021     		movs	r1, #32
 137 0014 6A20     		movs	r0, #106
 138 0016 FFF7FEFF 		bl	WriteControlRegisterIMU
  80:..\src/IMU_functions.c **** 	CyDelay(10);
 139              		.loc 1 80 0
 140 001a 0A20     		movs	r0, #10
 141 001c FFF7FEFF 		bl	CyDelay
  81:..\src/IMU_functions.c ****     WriteControlRegisterIMU(MPU9250_CONFIG, 0x06); //Gyro & Temp Low Pass Filter 0x01 = 184Hz, 0x02
 142              		.loc 1 81 0
 143 0020 0621     		movs	r1, #6
 144 0022 1A20     		movs	r0, #26
 145 0024 FFF7FEFF 		bl	WriteControlRegisterIMU
ARM GAS  C:\Users\Mattia\AppData\Local\Temp\ccYnk7Oc.s 			page 5


  82:..\src/IMU_functions.c ****     CyDelay(10);	
 146              		.loc 1 82 0
 147 0028 0A20     		movs	r0, #10
 148 002a FFF7FEFF 		bl	CyDelay
  83:..\src/IMU_functions.c **** 	WriteControlRegisterIMU(MPU9250_GYRO_CONFIG , GYRO_SF_2000); //Gyro full scale select 0x00=250°/s
 149              		.loc 1 83 0
 150 002e 1821     		movs	r1, #24
 151 0030 1B20     		movs	r0, #27
 152 0032 FFF7FEFF 		bl	WriteControlRegisterIMU
  84:..\src/IMU_functions.c **** 	CyDelay(10);
 153              		.loc 1 84 0
 154 0036 0A20     		movs	r0, #10
 155 0038 FFF7FEFF 		bl	CyDelay
  85:..\src/IMU_functions.c ****     WriteControlRegisterIMU(MPU9250_ACCEL_CONFIG, ACC_SF_2G); // Acc full scale select 0x00 = 2g 0x
 156              		.loc 1 85 0
 157 003c 0021     		movs	r1, #0
 158 003e 1C20     		movs	r0, #28
 159 0040 FFF7FEFF 		bl	WriteControlRegisterIMU
  86:..\src/IMU_functions.c ****     CyDelay(10);
 160              		.loc 1 86 0
 161 0044 0A20     		movs	r0, #10
 162 0046 FFF7FEFF 		bl	CyDelay
  87:..\src/IMU_functions.c ****     WriteControlRegisterIMU(MPU9250_ACCEL_CONFIG2, LP_ACC_FREQ_10);   
 163              		.loc 1 87 0
 164 004a 0521     		movs	r1, #5
 165 004c 1D20     		movs	r0, #29
 166 004e FFF7FEFF 		bl	WriteControlRegisterIMU
  88:..\src/IMU_functions.c ****     CyDelay(10);
 167              		.loc 1 88 0
 168 0052 0A20     		movs	r0, #10
 169 0054 FFF7FEFF 		bl	CyDelay
  89:..\src/IMU_functions.c **** 	//mag register
  90:..\src/IMU_functions.c **** 	WriteControlRegisterIMU(MPU9250_I2C_MST_CTRL, 0x0D); //set slave I2C speed
 170              		.loc 1 90 0
 171 0058 0D21     		movs	r1, #13
 172 005a 2420     		movs	r0, #36
 173 005c FFF7FEFF 		bl	WriteControlRegisterIMU
  91:..\src/IMU_functions.c **** 	CyDelay(10);
 174              		.loc 1 91 0
 175 0060 0A20     		movs	r0, #10
 176 0062 FFF7FEFF 		bl	CyDelay
  92:..\src/IMU_functions.c **** 	//SLV0 (use to write)
  93:..\src/IMU_functions.c **** 	WriteControlRegisterIMU(MPU9250_I2C_SLV0_ADDR, 0x0C); //set compass address
 177              		.loc 1 93 0
 178 0066 0C21     		movs	r1, #12
 179 0068 2520     		movs	r0, #37
 180 006a FFF7FEFF 		bl	WriteControlRegisterIMU
  94:..\src/IMU_functions.c **** 	CyDelay(10);			
 181              		.loc 1 94 0
 182 006e 0A20     		movs	r0, #10
 183 0070 FFF7FEFF 		bl	CyDelay
  95:..\src/IMU_functions.c **** 	WriteControlRegisterIMU(MPU9250_I2C_SLV0_REG, AK8936_CNTL); //compass mode register
 184              		.loc 1 95 0
 185 0074 0A21     		movs	r1, #10
 186 0076 2620     		movs	r0, #38
 187 0078 FFF7FEFF 		bl	WriteControlRegisterIMU
  96:..\src/IMU_functions.c **** 	CyDelay(10);	
ARM GAS  C:\Users\Mattia\AppData\Local\Temp\ccYnk7Oc.s 			page 6


 188              		.loc 1 96 0
 189 007c 0A20     		movs	r0, #10
 190 007e FFF7FEFF 		bl	CyDelay
  97:..\src/IMU_functions.c **** 	// Istruction used to read Compass
  98:..\src/IMU_functions.c **** 	WriteControlRegisterIMU(MPU9250_I2C_SLV0_D0, 0x16); //0x12 continuous mode1  0x16 continuous mode2
 191              		.loc 1 98 0
 192 0082 1621     		movs	r1, #22
 193 0084 6320     		movs	r0, #99
 194 0086 FFF7FEFF 		bl	WriteControlRegisterIMU
  99:..\src/IMU_functions.c **** 	CyDelay(10);
 195              		.loc 1 99 0
 196 008a 0A20     		movs	r0, #10
 197 008c FFF7FEFF 		bl	CyDelay
 100:..\src/IMU_functions.c **** 	WriteControlRegisterIMU(MPU9250_I2C_SLV0_CTRL, 0x81); //enable data from register + 1 bit to write
 198              		.loc 1 100 0
 199 0090 8121     		movs	r1, #129
 200 0092 2720     		movs	r0, #39
 201 0094 FFF7FEFF 		bl	WriteControlRegisterIMU
 101:..\src/IMU_functions.c **** 	CyDelay(10);
 202              		.loc 1 101 0
 203 0098 0A20     		movs	r0, #10
 204 009a FFF7FEFF 		bl	CyDelay
 102:..\src/IMU_functions.c **** 	//SLV0 (use to read)
 103:..\src/IMU_functions.c **** 	WriteControlRegisterIMU(MPU9250_I2C_SLV0_ADDR, 0x8C); // RCR  | AK8963_address (0x0C) 
 205              		.loc 1 103 0
 206 009e 8C21     		movs	r1, #140
 207 00a0 2520     		movs	r0, #37
 208 00a2 FFF7FEFF 		bl	WriteControlRegisterIMU
 104:..\src/IMU_functions.c **** 	CyDelay(10);
 209              		.loc 1 104 0
 210 00a6 0A20     		movs	r0, #10
 211 00a8 FFF7FEFF 		bl	CyDelay
 105:..\src/IMU_functions.c **** 	// Istruction used to read Compass
 106:..\src/IMU_functions.c **** 	WriteControlRegisterIMU(MPU9250_I2C_SLV0_REG, 0x03); // 0x03:start from Xout Low in case of calibr
 212              		.loc 1 106 0
 213 00ac 0321     		movs	r1, #3
 214 00ae 2620     		movs	r0, #38
 215 00b0 FFF7FEFF 		bl	WriteControlRegisterIMU
 107:..\src/IMU_functions.c **** 	CyDelay(10);
 216              		.loc 1 107 0
 217 00b4 0A20     		movs	r0, #10
 218 00b6 FFF7FEFF 		bl	CyDelay
 108:..\src/IMU_functions.c **** 	// Istruction used to read Compass
 109:..\src/IMU_functions.c **** 	WriteControlRegisterIMU(MPU9250_I2C_SLV0_CTRL, 0x8D); //How many bits read  SEMPRE DISPARI 0x8D er
 219              		.loc 1 109 0
 220 00ba 8D21     		movs	r1, #141
 221 00bc 2720     		movs	r0, #39
 222 00be FFF7FEFF 		bl	WriteControlRegisterIMU
 110:..\src/IMU_functions.c **** 	CyDelay(10);
 223              		.loc 1 110 0
 224 00c2 0A20     		movs	r0, #10
 225 00c4 FFF7FEFF 		bl	CyDelay
 111:..\src/IMU_functions.c **** 	WriteControlRegisterIMU(MPU9250_PWR_MGMT_1, 0x00); 
 226              		.loc 1 111 0
 227 00c8 0021     		movs	r1, #0
 228 00ca 6B20     		movs	r0, #107
 229 00cc FFF7FEFF 		bl	WriteControlRegisterIMU
ARM GAS  C:\Users\Mattia\AppData\Local\Temp\ccYnk7Oc.s 			page 7


 112:..\src/IMU_functions.c **** 	CyDelay(20);
 230              		.loc 1 112 0
 231 00d0 1420     		movs	r0, #20
 232 00d2 FFF7FEFF 		bl	CyDelay
 113:..\src/IMU_functions.c **** }	
 233              		.loc 1 113 0
 234 00d6 00BF     		nop
 235 00d8 80BD     		pop	{r7, pc}
 236              		.cfi_endproc
 237              	.LFE65:
 238              		.size	InitIMU, .-InitIMU
 239 00da 00BF     		.section	.text.InitIMUMagCal,"ax",%progbits
 240              		.align	2
 241              		.global	InitIMUMagCal
 242              		.thumb
 243              		.thumb_func
 244              		.type	InitIMUMagCal, %function
 245              	InitIMUMagCal:
 246              	.LFB66:
 114:..\src/IMU_functions.c **** 
 115:..\src/IMU_functions.c **** /*******************************************************************************
 116:..\src/IMU_functions.c **** * Function Name: IMU Mag Cal Initialization
 117:..\src/IMU_functions.c **** *********************************************************************************/
 118:..\src/IMU_functions.c **** void InitIMUMagCal(){	
 247              		.loc 1 118 0
 248              		.cfi_startproc
 249              		@ args = 0, pretend = 0, frame = 0
 250              		@ frame_needed = 1, uses_anonymous_args = 0
 251 0000 80B5     		push	{r7, lr}
 252              		.cfi_def_cfa_offset 8
 253              		.cfi_offset 7, -8
 254              		.cfi_offset 14, -4
 255 0002 00AF     		add	r7, sp, #0
 256              		.cfi_def_cfa_register 7
 119:..\src/IMU_functions.c ****     
 120:..\src/IMU_functions.c **** 	WriteControlRegisterIMU(MPU9250_PWR_MGMT_1, 0x10); 
 257              		.loc 1 120 0
 258 0004 1021     		movs	r1, #16
 259 0006 6B20     		movs	r0, #107
 260 0008 FFF7FEFF 		bl	WriteControlRegisterIMU
 121:..\src/IMU_functions.c **** 	CyDelay(10);	
 261              		.loc 1 121 0
 262 000c 0A20     		movs	r0, #10
 263 000e FFF7FEFF 		bl	CyDelay
 122:..\src/IMU_functions.c **** 	WriteControlRegisterIMU(MPU9250_USER_CTRL, 0x20);  //I2C master enable - disable I2C (prima 0x30)
 264              		.loc 1 122 0
 265 0012 2021     		movs	r1, #32
 266 0014 6A20     		movs	r0, #106
 267 0016 FFF7FEFF 		bl	WriteControlRegisterIMU
 123:..\src/IMU_functions.c **** 	CyDelay(10);
 268              		.loc 1 123 0
 269 001a 0A20     		movs	r0, #10
 270 001c FFF7FEFF 		bl	CyDelay
 124:..\src/IMU_functions.c ****     WriteControlRegisterIMU(MPU9250_CONFIG, 0x06); //Gyro & Temp Low Pass Filter 0x01 = 184Hz, 0x02
 271              		.loc 1 124 0
 272 0020 0621     		movs	r1, #6
 273 0022 1A20     		movs	r0, #26
ARM GAS  C:\Users\Mattia\AppData\Local\Temp\ccYnk7Oc.s 			page 8


 274 0024 FFF7FEFF 		bl	WriteControlRegisterIMU
 125:..\src/IMU_functions.c ****     CyDelay(10);	
 275              		.loc 1 125 0
 276 0028 0A20     		movs	r0, #10
 277 002a FFF7FEFF 		bl	CyDelay
 126:..\src/IMU_functions.c **** 	WriteControlRegisterIMU(MPU9250_GYRO_CONFIG , GYRO_SF_2000); //Gyro full scale select 0x00=250°/s
 278              		.loc 1 126 0
 279 002e 1821     		movs	r1, #24
 280 0030 1B20     		movs	r0, #27
 281 0032 FFF7FEFF 		bl	WriteControlRegisterIMU
 127:..\src/IMU_functions.c **** 	CyDelay(10);
 282              		.loc 1 127 0
 283 0036 0A20     		movs	r0, #10
 284 0038 FFF7FEFF 		bl	CyDelay
 128:..\src/IMU_functions.c ****     WriteControlRegisterIMU(MPU9250_ACCEL_CONFIG, ACC_SF_2G); // Acc full scale select 0x00 = 2g 0x
 285              		.loc 1 128 0
 286 003c 0021     		movs	r1, #0
 287 003e 1C20     		movs	r0, #28
 288 0040 FFF7FEFF 		bl	WriteControlRegisterIMU
 129:..\src/IMU_functions.c ****     CyDelay(10);
 289              		.loc 1 129 0
 290 0044 0A20     		movs	r0, #10
 291 0046 FFF7FEFF 		bl	CyDelay
 130:..\src/IMU_functions.c ****     WriteControlRegisterIMU(MPU9250_ACCEL_CONFIG2, 0x05);
 292              		.loc 1 130 0
 293 004a 0521     		movs	r1, #5
 294 004c 1D20     		movs	r0, #29
 295 004e FFF7FEFF 		bl	WriteControlRegisterIMU
 131:..\src/IMU_functions.c ****     CyDelay(10);
 296              		.loc 1 131 0
 297 0052 0A20     		movs	r0, #10
 298 0054 FFF7FEFF 		bl	CyDelay
 132:..\src/IMU_functions.c **** 	//mag register
 133:..\src/IMU_functions.c **** 	WriteControlRegisterIMU(MPU9250_I2C_MST_CTRL, 0x0D); //set slave I2C speed
 299              		.loc 1 133 0
 300 0058 0D21     		movs	r1, #13
 301 005a 2420     		movs	r0, #36
 302 005c FFF7FEFF 		bl	WriteControlRegisterIMU
 134:..\src/IMU_functions.c **** 	CyDelay(10);
 303              		.loc 1 134 0
 304 0060 0A20     		movs	r0, #10
 305 0062 FFF7FEFF 		bl	CyDelay
 135:..\src/IMU_functions.c **** 	//SLV0 (use to write)
 136:..\src/IMU_functions.c **** 	WriteControlRegisterIMU(MPU9250_I2C_SLV0_ADDR, 0x0C); //set compass address
 306              		.loc 1 136 0
 307 0066 0C21     		movs	r1, #12
 308 0068 2520     		movs	r0, #37
 309 006a FFF7FEFF 		bl	WriteControlRegisterIMU
 137:..\src/IMU_functions.c **** 	CyDelay(10);			
 310              		.loc 1 137 0
 311 006e 0A20     		movs	r0, #10
 312 0070 FFF7FEFF 		bl	CyDelay
 138:..\src/IMU_functions.c **** 	WriteControlRegisterIMU(MPU9250_I2C_SLV0_REG, AK8936_CNTL); //compass mode register
 313              		.loc 1 138 0
 314 0074 0A21     		movs	r1, #10
 315 0076 2620     		movs	r0, #38
 316 0078 FFF7FEFF 		bl	WriteControlRegisterIMU
ARM GAS  C:\Users\Mattia\AppData\Local\Temp\ccYnk7Oc.s 			page 9


 139:..\src/IMU_functions.c **** 	CyDelay(10);	
 317              		.loc 1 139 0
 318 007c 0A20     		movs	r0, #10
 319 007e FFF7FEFF 		bl	CyDelay
 140:..\src/IMU_functions.c **** 	WriteControlRegisterIMU(MPU9250_I2C_SLV0_D0, 0x1F); //0x1F ROM access
 320              		.loc 1 140 0
 321 0082 1F21     		movs	r1, #31
 322 0084 6320     		movs	r0, #99
 323 0086 FFF7FEFF 		bl	WriteControlRegisterIMU
 141:..\src/IMU_functions.c **** 	CyDelay(10);
 324              		.loc 1 141 0
 325 008a 0A20     		movs	r0, #10
 326 008c FFF7FEFF 		bl	CyDelay
 142:..\src/IMU_functions.c **** 	WriteControlRegisterIMU(MPU9250_I2C_SLV0_CTRL, 0x81); //enable data from register + 1 bit to write
 327              		.loc 1 142 0
 328 0090 8121     		movs	r1, #129
 329 0092 2720     		movs	r0, #39
 330 0094 FFF7FEFF 		bl	WriteControlRegisterIMU
 143:..\src/IMU_functions.c **** 	CyDelay(10);
 331              		.loc 1 143 0
 332 0098 0A20     		movs	r0, #10
 333 009a FFF7FEFF 		bl	CyDelay
 144:..\src/IMU_functions.c **** 	//SLV0 (use to read)
 145:..\src/IMU_functions.c **** 	WriteControlRegisterIMU(MPU9250_I2C_SLV0_ADDR, 0x8C); // RCR  | AK8963_address (0x0C) 
 334              		.loc 1 145 0
 335 009e 8C21     		movs	r1, #140
 336 00a0 2520     		movs	r0, #37
 337 00a2 FFF7FEFF 		bl	WriteControlRegisterIMU
 146:..\src/IMU_functions.c **** 	CyDelay(10);
 338              		.loc 1 146 0
 339 00a6 0A20     		movs	r0, #10
 340 00a8 FFF7FEFF 		bl	CyDelay
 147:..\src/IMU_functions.c **** 	WriteControlRegisterIMU(MPU9250_I2C_SLV0_REG, 0x10); // 0x10:start from ASAX
 341              		.loc 1 147 0
 342 00ac 1021     		movs	r1, #16
 343 00ae 2620     		movs	r0, #38
 344 00b0 FFF7FEFF 		bl	WriteControlRegisterIMU
 148:..\src/IMU_functions.c **** 	CyDelay(10);
 345              		.loc 1 148 0
 346 00b4 0A20     		movs	r0, #10
 347 00b6 FFF7FEFF 		bl	CyDelay
 149:..\src/IMU_functions.c **** 	WriteControlRegisterIMU(MPU9250_I2C_SLV0_CTRL, 0x83);
 348              		.loc 1 149 0
 349 00ba 8321     		movs	r1, #131
 350 00bc 2720     		movs	r0, #39
 351 00be FFF7FEFF 		bl	WriteControlRegisterIMU
 150:..\src/IMU_functions.c **** 	CyDelay(10);
 352              		.loc 1 150 0
 353 00c2 0A20     		movs	r0, #10
 354 00c4 FFF7FEFF 		bl	CyDelay
 151:..\src/IMU_functions.c **** 	WriteControlRegisterIMU(MPU9250_PWR_MGMT_1, 0x00); 
 355              		.loc 1 151 0
 356 00c8 0021     		movs	r1, #0
 357 00ca 6B20     		movs	r0, #107
 358 00cc FFF7FEFF 		bl	WriteControlRegisterIMU
 152:..\src/IMU_functions.c **** 	CyDelay(20);
 359              		.loc 1 152 0
ARM GAS  C:\Users\Mattia\AppData\Local\Temp\ccYnk7Oc.s 			page 10


 360 00d0 1420     		movs	r0, #20
 361 00d2 FFF7FEFF 		bl	CyDelay
 153:..\src/IMU_functions.c **** }
 362              		.loc 1 153 0
 363 00d6 00BF     		nop
 364 00d8 80BD     		pop	{r7, pc}
 365              		.cfi_endproc
 366              	.LFE66:
 367              		.size	InitIMUMagCal, .-InitIMUMagCal
 368 00da 00BF     		.section	.text.ChipSelectorIMU,"ax",%progbits
 369              		.align	2
 370              		.global	ChipSelectorIMU
 371              		.thumb
 372              		.thumb_func
 373              		.type	ChipSelectorIMU, %function
 374              	ChipSelectorIMU:
 375              	.LFB67:
 154:..\src/IMU_functions.c **** 
 155:..\src/IMU_functions.c **** /********************************************************************************
 156:..\src/IMU_functions.c **** * Function Name: ChipSelectorIMU                                                   *
 157:..\src/IMU_functions.c **** *********************************************************************************/
 158:..\src/IMU_functions.c **** void ChipSelectorIMU(int n)
 159:..\src/IMU_functions.c **** {
 376              		.loc 1 159 0
 377              		.cfi_startproc
 378              		@ args = 0, pretend = 0, frame = 8
 379              		@ frame_needed = 1, uses_anonymous_args = 0
 380 0000 80B5     		push	{r7, lr}
 381              		.cfi_def_cfa_offset 8
 382              		.cfi_offset 7, -8
 383              		.cfi_offset 14, -4
 384 0002 82B0     		sub	sp, sp, #8
 385              		.cfi_def_cfa_offset 16
 386 0004 00AF     		add	r7, sp, #0
 387              		.cfi_def_cfa_register 7
 388 0006 7860     		str	r0, [r7, #4]
 160:..\src/IMU_functions.c ****     Chip_Select_IMU_Write(7);
 389              		.loc 1 160 0
 390 0008 0720     		movs	r0, #7
 391 000a FFF7FEFF 		bl	Chip_Select_IMU_Write
 161:..\src/IMU_functions.c ****     
 162:..\src/IMU_functions.c ****     Chip_Select_IMU_Write(n);
 392              		.loc 1 162 0
 393 000e 7B68     		ldr	r3, [r7, #4]
 394 0010 DBB2     		uxtb	r3, r3
 395 0012 1846     		mov	r0, r3
 396 0014 FFF7FEFF 		bl	Chip_Select_IMU_Write
 163:..\src/IMU_functions.c **** }
 397              		.loc 1 163 0
 398 0018 00BF     		nop
 399 001a 0837     		adds	r7, r7, #8
 400              		.cfi_def_cfa_offset 8
 401 001c BD46     		mov	sp, r7
 402              		.cfi_def_cfa_register 13
 403              		@ sp needed
 404 001e 80BD     		pop	{r7, pc}
 405              		.cfi_endproc
ARM GAS  C:\Users\Mattia\AppData\Local\Temp\ccYnk7Oc.s 			page 11


 406              	.LFE67:
 407              		.size	ChipSelectorIMU, .-ChipSelectorIMU
 408              		.section	.text.InitIMUgeneral,"ax",%progbits
 409              		.align	2
 410              		.global	InitIMUgeneral
 411              		.thumb
 412              		.thumb_func
 413              		.type	InitIMUgeneral, %function
 414              	InitIMUgeneral:
 415              	.LFB68:
 164:..\src/IMU_functions.c **** 
 165:..\src/IMU_functions.c **** /********************************************************************************
 166:..\src/IMU_functions.c **** * Function Name: InitIMUGeneral                                                 *
 167:..\src/IMU_functions.c **** *********************************************************************************/
 168:..\src/IMU_functions.c **** void InitIMUgeneral()
 169:..\src/IMU_functions.c **** {
 416              		.loc 1 169 0
 417              		.cfi_startproc
 418              		@ args = 0, pretend = 0, frame = 32
 419              		@ frame_needed = 1, uses_anonymous_args = 0
 420 0000 90B5     		push	{r4, r7, lr}
 421              		.cfi_def_cfa_offset 12
 422              		.cfi_offset 4, -12
 423              		.cfi_offset 7, -8
 424              		.cfi_offset 14, -4
 425 0002 89B0     		sub	sp, sp, #36
 426              		.cfi_def_cfa_offset 48
 427 0004 00AF     		add	r7, sp, #0
 428              		.cfi_def_cfa_register 7
 170:..\src/IMU_functions.c ****     uint8 k_imu;
 171:..\src/IMU_functions.c ****     uint8 count = 0;
 429              		.loc 1 171 0
 430 0006 0023     		movs	r3, #0
 431 0008 BB77     		strb	r3, [r7, #30]
 172:..\src/IMU_functions.c ****     int IMU_ack;
 173:..\src/IMU_functions.c ****     int tmp[N_IMU_MAX];
 174:..\src/IMU_functions.c ****     
 175:..\src/IMU_functions.c ****     // Initialize Memory Structure 
 176:..\src/IMU_functions.c ****     memset(&g_imu, 0, sizeof(struct st_imu));
 432              		.loc 1 176 0
 433 000a 2022     		movs	r2, #32
 434 000c 0021     		movs	r1, #0
 435 000e A648     		ldr	r0, .L27
 436 0010 FFF7FEFF 		bl	memset
 177:..\src/IMU_functions.c ****     memset(&IMU_connected, 0, sizeof(IMU_connected));
 437              		.loc 1 177 0
 438 0014 0522     		movs	r2, #5
 439 0016 0021     		movs	r1, #0
 440 0018 A448     		ldr	r0, .L27+4
 441 001a FFF7FEFF 		bl	memset
 178:..\src/IMU_functions.c **** 
 179:..\src/IMU_functions.c ****     // Initialize IMU to Read MagCal Parameters
 180:..\src/IMU_functions.c ****     for (k_imu=0; k_imu < N_IMU_MAX; k_imu++) 
 442              		.loc 1 180 0
 443 001e 0023     		movs	r3, #0
 444 0020 FB77     		strb	r3, [r7, #31]
 445 0022 0EE0     		b	.L10
ARM GAS  C:\Users\Mattia\AppData\Local\Temp\ccYnk7Oc.s 			page 12


 446              	.L11:
 181:..\src/IMU_functions.c ****     {	
 182:..\src/IMU_functions.c **** 	    ChipSelectorIMU(k_imu);
 447              		.loc 1 182 0 discriminator 3
 448 0024 FB7F     		ldrb	r3, [r7, #31]	@ zero_extendqisi2
 449 0026 1846     		mov	r0, r3
 450 0028 FFF7FEFF 		bl	ChipSelectorIMU
 183:..\src/IMU_functions.c **** 	    CyDelay(10);
 451              		.loc 1 183 0 discriminator 3
 452 002c 0A20     		movs	r0, #10
 453 002e FFF7FEFF 		bl	CyDelay
 184:..\src/IMU_functions.c **** 	    InitIMUMagCal();
 454              		.loc 1 184 0 discriminator 3
 455 0032 FFF7FEFF 		bl	InitIMUMagCal
 185:..\src/IMU_functions.c **** 	    CyDelay(10); 
 456              		.loc 1 185 0 discriminator 3
 457 0036 0A20     		movs	r0, #10
 458 0038 FFF7FEFF 		bl	CyDelay
 180:..\src/IMU_functions.c ****     {	
 459              		.loc 1 180 0 discriminator 3
 460 003c FB7F     		ldrb	r3, [r7, #31]	@ zero_extendqisi2
 461 003e 0133     		adds	r3, r3, #1
 462 0040 FB77     		strb	r3, [r7, #31]
 463              	.L10:
 180:..\src/IMU_functions.c ****     {	
 464              		.loc 1 180 0 is_stmt 0 discriminator 1
 465 0042 FB7F     		ldrb	r3, [r7, #31]	@ zero_extendqisi2
 466 0044 042B     		cmp	r3, #4
 467 0046 EDD9     		bls	.L11
 186:..\src/IMU_functions.c ****     }
 187:..\src/IMU_functions.c ****     
 188:..\src/IMU_functions.c ****     // Reading of MagCal Parameters
 189:..\src/IMU_functions.c ****     CyDelay(50);
 468              		.loc 1 189 0 is_stmt 1
 469 0048 3220     		movs	r0, #50
 470 004a FFF7FEFF 		bl	CyDelay
 190:..\src/IMU_functions.c ****     for (k_imu = 0; k_imu < N_IMU_MAX; k_imu++){
 471              		.loc 1 190 0
 472 004e 0023     		movs	r3, #0
 473 0050 FB77     		strb	r3, [r7, #31]
 474 0052 10E0     		b	.L12
 475              	.L13:
 191:..\src/IMU_functions.c ****         ChipSelectorIMU(k_imu);
 476              		.loc 1 191 0 discriminator 3
 477 0054 FB7F     		ldrb	r3, [r7, #31]	@ zero_extendqisi2
 478 0056 1846     		mov	r0, r3
 479 0058 FFF7FEFF 		bl	ChipSelectorIMU
 192:..\src/IMU_functions.c ****         CyDelay(10);
 480              		.loc 1 192 0 discriminator 3
 481 005c 0A20     		movs	r0, #10
 482 005e FFF7FEFF 		bl	CyDelay
 193:..\src/IMU_functions.c ****         ReadMagCal(k_imu);  
 483              		.loc 1 193 0 discriminator 3
 484 0062 FB7F     		ldrb	r3, [r7, #31]	@ zero_extendqisi2
 485 0064 1846     		mov	r0, r3
 486 0066 FFF7FEFF 		bl	ReadMagCal
 194:..\src/IMU_functions.c ****         CyDelay(10);
ARM GAS  C:\Users\Mattia\AppData\Local\Temp\ccYnk7Oc.s 			page 13


 487              		.loc 1 194 0 discriminator 3
 488 006a 0A20     		movs	r0, #10
 489 006c FFF7FEFF 		bl	CyDelay
 190:..\src/IMU_functions.c ****         ChipSelectorIMU(k_imu);
 490              		.loc 1 190 0 discriminator 3
 491 0070 FB7F     		ldrb	r3, [r7, #31]	@ zero_extendqisi2
 492 0072 0133     		adds	r3, r3, #1
 493 0074 FB77     		strb	r3, [r7, #31]
 494              	.L12:
 190:..\src/IMU_functions.c ****         ChipSelectorIMU(k_imu);
 495              		.loc 1 190 0 is_stmt 0 discriminator 1
 496 0076 FB7F     		ldrb	r3, [r7, #31]	@ zero_extendqisi2
 497 0078 042B     		cmp	r3, #4
 498 007a EBD9     		bls	.L13
 195:..\src/IMU_functions.c ****     }
 196:..\src/IMU_functions.c **** 
 197:..\src/IMU_functions.c ****     ChipSelectorIMU(0); // Read again first IMU MagCal Parameters
 499              		.loc 1 197 0 is_stmt 1
 500 007c 0020     		movs	r0, #0
 501 007e FFF7FEFF 		bl	ChipSelectorIMU
 198:..\src/IMU_functions.c ****     CyDelay(10);
 502              		.loc 1 198 0
 503 0082 0A20     		movs	r0, #10
 504 0084 FFF7FEFF 		bl	CyDelay
 199:..\src/IMU_functions.c ****     ReadMagCal(0);  
 505              		.loc 1 199 0
 506 0088 0020     		movs	r0, #0
 507 008a FFF7FEFF 		bl	ReadMagCal
 200:..\src/IMU_functions.c ****     CyDelay(10);
 508              		.loc 1 200 0
 509 008e 0A20     		movs	r0, #10
 510 0090 FFF7FEFF 		bl	CyDelay
 201:..\src/IMU_functions.c ****         
 202:..\src/IMU_functions.c ****     // First ping to be sure to wakeup IMUs
 203:..\src/IMU_functions.c ****     for (k_imu=0; k_imu < N_IMU_MAX; k_imu++) 
 511              		.loc 1 203 0
 512 0094 0023     		movs	r3, #0
 513 0096 FB77     		strb	r3, [r7, #31]
 514 0098 0CE0     		b	.L14
 515              	.L15:
 204:..\src/IMU_functions.c ****     {	
 205:..\src/IMU_functions.c **** 	    ChipSelectorIMU(k_imu);
 516              		.loc 1 205 0 discriminator 3
 517 009a FB7F     		ldrb	r3, [r7, #31]	@ zero_extendqisi2
 518 009c 1846     		mov	r0, r3
 519 009e FFF7FEFF 		bl	ChipSelectorIMU
 206:..\src/IMU_functions.c **** 	    CyDelay(10);
 520              		.loc 1 206 0 discriminator 3
 521 00a2 0A20     		movs	r0, #10
 522 00a4 FFF7FEFF 		bl	CyDelay
 207:..\src/IMU_functions.c **** 	    ReadControlRegisterIMU(MPU9250_WHO_AM_I);
 523              		.loc 1 207 0 discriminator 3
 524 00a8 7520     		movs	r0, #117
 525 00aa FFF7FEFF 		bl	ReadControlRegisterIMU
 203:..\src/IMU_functions.c ****     {	
 526              		.loc 1 203 0 discriminator 3
 527 00ae FB7F     		ldrb	r3, [r7, #31]	@ zero_extendqisi2
ARM GAS  C:\Users\Mattia\AppData\Local\Temp\ccYnk7Oc.s 			page 14


 528 00b0 0133     		adds	r3, r3, #1
 529 00b2 FB77     		strb	r3, [r7, #31]
 530              	.L14:
 203:..\src/IMU_functions.c ****     {	
 531              		.loc 1 203 0 is_stmt 0 discriminator 1
 532 00b4 FB7F     		ldrb	r3, [r7, #31]	@ zero_extendqisi2
 533 00b6 042B     		cmp	r3, #4
 534 00b8 EFD9     		bls	.L15
 208:..\src/IMU_functions.c ****     }
 209:..\src/IMU_functions.c ****     
 210:..\src/IMU_functions.c ****     // Identify IMU connected
 211:..\src/IMU_functions.c ****     ChipSelectorIMU(0);
 535              		.loc 1 211 0 is_stmt 1
 536 00ba 0020     		movs	r0, #0
 537 00bc FFF7FEFF 		bl	ChipSelectorIMU
 212:..\src/IMU_functions.c ****     CyDelay(10);
 538              		.loc 1 212 0
 539 00c0 0A20     		movs	r0, #10
 540 00c2 FFF7FEFF 		bl	CyDelay
 213:..\src/IMU_functions.c ****     IMU_ack = ReadControlRegisterIMU(MPU9250_WHO_AM_I);
 541              		.loc 1 213 0
 542 00c6 7520     		movs	r0, #117
 543 00c8 FFF7FEFF 		bl	ReadControlRegisterIMU
 544 00cc 0346     		mov	r3, r0
 545 00ce BB61     		str	r3, [r7, #24]
 214:..\src/IMU_functions.c ****     IMU_ack = 0;
 546              		.loc 1 214 0
 547 00d0 0023     		movs	r3, #0
 548 00d2 BB61     		str	r3, [r7, #24]
 215:..\src/IMU_functions.c ****     N_IMU_Connected = 0;    
 549              		.loc 1 215 0
 550 00d4 764B     		ldr	r3, .L27+8
 551 00d6 0022     		movs	r2, #0
 552 00d8 1A70     		strb	r2, [r3]
 216:..\src/IMU_functions.c ****     for (k_imu = 0; k_imu < NUM_DEV_IMU; k_imu++) 
 553              		.loc 1 216 0
 554 00da 0023     		movs	r3, #0
 555 00dc FB77     		strb	r3, [r7, #31]
 556 00de 2AE0     		b	.L16
 557              	.L19:
 217:..\src/IMU_functions.c ****     {      
 218:..\src/IMU_functions.c ****     	ChipSelectorIMU(k_imu);
 558              		.loc 1 218 0
 559 00e0 FB7F     		ldrb	r3, [r7, #31]	@ zero_extendqisi2
 560 00e2 1846     		mov	r0, r3
 561 00e4 FFF7FEFF 		bl	ChipSelectorIMU
 219:..\src/IMU_functions.c ****         CyDelay(10);
 562              		.loc 1 219 0
 563 00e8 0A20     		movs	r0, #10
 564 00ea FFF7FEFF 		bl	CyDelay
 220:..\src/IMU_functions.c ****         IMU_ack = ReadControlRegisterIMU(MPU9250_WHO_AM_I);
 565              		.loc 1 220 0
 566 00ee 7520     		movs	r0, #117
 567 00f0 FFF7FEFF 		bl	ReadControlRegisterIMU
 568 00f4 0346     		mov	r3, r0
 569 00f6 BB61     		str	r3, [r7, #24]
 221:..\src/IMU_functions.c ****         if (IMU_ack == 0x71) 
ARM GAS  C:\Users\Mattia\AppData\Local\Temp\ccYnk7Oc.s 			page 15


 570              		.loc 1 221 0
 571 00f8 BB69     		ldr	r3, [r7, #24]
 572 00fa 712B     		cmp	r3, #113
 573 00fc 10D1     		bne	.L17
 222:..\src/IMU_functions.c ****         {
 223:..\src/IMU_functions.c ****             N_IMU_Connected++;
 574              		.loc 1 223 0
 575 00fe 6C4B     		ldr	r3, .L27+8
 576 0100 1B78     		ldrb	r3, [r3]	@ zero_extendqisi2
 577 0102 0133     		adds	r3, r3, #1
 578 0104 DAB2     		uxtb	r2, r3
 579 0106 6A4B     		ldr	r3, .L27+8
 580 0108 1A70     		strb	r2, [r3]
 224:..\src/IMU_functions.c ****             IMU_ack = 0;
 581              		.loc 1 224 0
 582 010a 0023     		movs	r3, #0
 583 010c BB61     		str	r3, [r7, #24]
 225:..\src/IMU_functions.c ****             tmp[k_imu] = 1;
 584              		.loc 1 225 0
 585 010e FB7F     		ldrb	r3, [r7, #31]	@ zero_extendqisi2
 586 0110 9B00     		lsls	r3, r3, #2
 587 0112 07F12002 		add	r2, r7, #32
 588 0116 1344     		add	r3, r3, r2
 589 0118 0122     		movs	r2, #1
 590 011a 43F81C2C 		str	r2, [r3, #-28]
 591 011e 07E0     		b	.L18
 592              	.L17:
 226:..\src/IMU_functions.c ****         }
 227:..\src/IMU_functions.c ****         else
 228:..\src/IMU_functions.c ****             tmp[k_imu] = 0;
 593              		.loc 1 228 0
 594 0120 FB7F     		ldrb	r3, [r7, #31]	@ zero_extendqisi2
 595 0122 9B00     		lsls	r3, r3, #2
 596 0124 07F12002 		add	r2, r7, #32
 597 0128 1344     		add	r3, r3, r2
 598 012a 0022     		movs	r2, #0
 599 012c 43F81C2C 		str	r2, [r3, #-28]
 600              	.L18:
 216:..\src/IMU_functions.c ****     {      
 601              		.loc 1 216 0 discriminator 2
 602 0130 FB7F     		ldrb	r3, [r7, #31]	@ zero_extendqisi2
 603 0132 0133     		adds	r3, r3, #1
 604 0134 FB77     		strb	r3, [r7, #31]
 605              	.L16:
 216:..\src/IMU_functions.c ****     {      
 606              		.loc 1 216 0 is_stmt 0 discriminator 1
 607 0136 FB7F     		ldrb	r3, [r7, #31]	@ zero_extendqisi2
 608 0138 002B     		cmp	r3, #0
 609 013a D1D0     		beq	.L19
 229:..\src/IMU_functions.c ****     }
 230:..\src/IMU_functions.c **** 
 231:..\src/IMU_functions.c ****     for(k_imu = 0; k_imu < N_IMU_MAX; k_imu++)
 610              		.loc 1 231 0 is_stmt 1
 611 013c 0023     		movs	r3, #0
 612 013e FB77     		strb	r3, [r7, #31]
 613 0140 12E0     		b	.L20
 614              	.L22:
ARM GAS  C:\Users\Mattia\AppData\Local\Temp\ccYnk7Oc.s 			page 16


 232:..\src/IMU_functions.c ****     {
 233:..\src/IMU_functions.c ****         if(tmp[k_imu] == 1)
 615              		.loc 1 233 0
 616 0142 FB7F     		ldrb	r3, [r7, #31]	@ zero_extendqisi2
 617 0144 9B00     		lsls	r3, r3, #2
 618 0146 07F12002 		add	r2, r7, #32
 619 014a 1344     		add	r3, r3, r2
 620 014c 53F81C3C 		ldr	r3, [r3, #-28]
 621 0150 012B     		cmp	r3, #1
 622 0152 06D1     		bne	.L21
 234:..\src/IMU_functions.c ****         {
 235:..\src/IMU_functions.c ****             IMU_connected[count] = k_imu;
 623              		.loc 1 235 0
 624 0154 BB7F     		ldrb	r3, [r7, #30]	@ zero_extendqisi2
 625 0156 5549     		ldr	r1, .L27+4
 626 0158 FA7F     		ldrb	r2, [r7, #31]
 627 015a CA54     		strb	r2, [r1, r3]
 236:..\src/IMU_functions.c ****             count++;
 628              		.loc 1 236 0
 629 015c BB7F     		ldrb	r3, [r7, #30]	@ zero_extendqisi2
 630 015e 0133     		adds	r3, r3, #1
 631 0160 BB77     		strb	r3, [r7, #30]
 632              	.L21:
 231:..\src/IMU_functions.c ****     {
 633              		.loc 1 231 0 discriminator 2
 634 0162 FB7F     		ldrb	r3, [r7, #31]	@ zero_extendqisi2
 635 0164 0133     		adds	r3, r3, #1
 636 0166 FB77     		strb	r3, [r7, #31]
 637              	.L20:
 231:..\src/IMU_functions.c ****     {
 638              		.loc 1 231 0 is_stmt 0 discriminator 1
 639 0168 FB7F     		ldrb	r3, [r7, #31]	@ zero_extendqisi2
 640 016a 042B     		cmp	r3, #4
 641 016c E9D9     		bls	.L22
 237:..\src/IMU_functions.c ****         }
 238:..\src/IMU_functions.c ****     }
 239:..\src/IMU_functions.c ****             
 240:..\src/IMU_functions.c ****     // Standard Initialization of the IMU
 241:..\src/IMU_functions.c ****     CyDelay(10);
 642              		.loc 1 241 0 is_stmt 1
 643 016e 0A20     		movs	r0, #10
 644 0170 FFF7FEFF 		bl	CyDelay
 242:..\src/IMU_functions.c ****     for (k_imu=0; k_imu < N_IMU_MAX; k_imu++) 
 645              		.loc 1 242 0
 646 0174 0023     		movs	r3, #0
 647 0176 FB77     		strb	r3, [r7, #31]
 648 0178 0EE0     		b	.L23
 649              	.L24:
 243:..\src/IMU_functions.c ****     {	
 244:..\src/IMU_functions.c **** 	    ChipSelectorIMU(k_imu);
 650              		.loc 1 244 0 discriminator 3
 651 017a FB7F     		ldrb	r3, [r7, #31]	@ zero_extendqisi2
 652 017c 1846     		mov	r0, r3
 653 017e FFF7FEFF 		bl	ChipSelectorIMU
 245:..\src/IMU_functions.c **** 	    CyDelay(10);
 654              		.loc 1 245 0 discriminator 3
 655 0182 0A20     		movs	r0, #10
ARM GAS  C:\Users\Mattia\AppData\Local\Temp\ccYnk7Oc.s 			page 17


 656 0184 FFF7FEFF 		bl	CyDelay
 246:..\src/IMU_functions.c **** 	    InitIMU();
 657              		.loc 1 246 0 discriminator 3
 658 0188 FFF7FEFF 		bl	InitIMU
 247:..\src/IMU_functions.c **** 	    CyDelay(10); 
 659              		.loc 1 247 0 discriminator 3
 660 018c 0A20     		movs	r0, #10
 661 018e FFF7FEFF 		bl	CyDelay
 242:..\src/IMU_functions.c ****     {	
 662              		.loc 1 242 0 discriminator 3
 663 0192 FB7F     		ldrb	r3, [r7, #31]	@ zero_extendqisi2
 664 0194 0133     		adds	r3, r3, #1
 665 0196 FB77     		strb	r3, [r7, #31]
 666              	.L23:
 242:..\src/IMU_functions.c ****     {	
 667              		.loc 1 242 0 is_stmt 0 discriminator 1
 668 0198 FB7F     		ldrb	r3, [r7, #31]	@ zero_extendqisi2
 669 019a 042B     		cmp	r3, #4
 670 019c EDD9     		bls	.L24
 248:..\src/IMU_functions.c ****     }
 249:..\src/IMU_functions.c ****     CyDelay(50);
 671              		.loc 1 249 0 is_stmt 1
 672 019e 3220     		movs	r0, #50
 673 01a0 FFF7FEFF 		bl	CyDelay
 250:..\src/IMU_functions.c ****     
 251:..\src/IMU_functions.c ****     // Set Standard Read for the IMU
 252:..\src/IMU_functions.c ****     memset(&single_imu_size, 0, sizeof(single_imu_size));
 674              		.loc 1 252 0
 675 01a4 1422     		movs	r2, #20
 676 01a6 0021     		movs	r1, #0
 677 01a8 4248     		ldr	r0, .L27+12
 678 01aa FFF7FEFF 		bl	memset
 253:..\src/IMU_functions.c ****     imus_data_size = 1; //header    
 679              		.loc 1 253 0
 680 01ae 424B     		ldr	r3, .L27+16
 681 01b0 0122     		movs	r2, #1
 682 01b2 1A60     		str	r2, [r3]
 254:..\src/IMU_functions.c ****     for (k_imu = 0; k_imu < N_IMU_Connected; k_imu++)
 683              		.loc 1 254 0
 684 01b4 0023     		movs	r3, #0
 685 01b6 FB77     		strb	r3, [r7, #31]
 686 01b8 68E0     		b	.L25
 687              	.L26:
 255:..\src/IMU_functions.c ****     {
 256:..\src/IMU_functions.c ****         single_imu_size[IMU_connected[k_imu]] = 1 + 6*c_mem.imu.IMU_conf[IMU_connected[k_imu]][0] +
 688              		.loc 1 256 0 discriminator 3
 689 01ba FB7F     		ldrb	r3, [r7, #31]	@ zero_extendqisi2
 690 01bc 3B4A     		ldr	r2, .L27+4
 691 01be D35C     		ldrb	r3, [r2, r3]	@ zero_extendqisi2
 692 01c0 1C46     		mov	r4, r3
 693 01c2 FB7F     		ldrb	r3, [r7, #31]	@ zero_extendqisi2
 694 01c4 394A     		ldr	r2, .L27+4
 695 01c6 D35C     		ldrb	r3, [r2, r3]	@ zero_extendqisi2
 696 01c8 1946     		mov	r1, r3
 697 01ca 3C4A     		ldr	r2, .L27+20
 698 01cc 0B46     		mov	r3, r1
 699 01ce 9B00     		lsls	r3, r3, #2
ARM GAS  C:\Users\Mattia\AppData\Local\Temp\ccYnk7Oc.s 			page 18


 700 01d0 0B44     		add	r3, r3, r1
 701 01d2 1344     		add	r3, r3, r2
 702 01d4 03F20223 		addw	r3, r3, #514
 703 01d8 1B78     		ldrb	r3, [r3]	@ zero_extendqisi2
 704 01da 1A46     		mov	r2, r3
 705 01dc 1346     		mov	r3, r2
 706 01de 5B00     		lsls	r3, r3, #1
 707 01e0 1344     		add	r3, r3, r2
 708 01e2 5B00     		lsls	r3, r3, #1
 709 01e4 5A1C     		adds	r2, r3, #1
 710 01e6 FB7F     		ldrb	r3, [r7, #31]	@ zero_extendqisi2
 711 01e8 3049     		ldr	r1, .L27+4
 712 01ea CB5C     		ldrb	r3, [r1, r3]	@ zero_extendqisi2
 713 01ec 1846     		mov	r0, r3
 714 01ee 3349     		ldr	r1, .L27+20
 715 01f0 0346     		mov	r3, r0
 716 01f2 9B00     		lsls	r3, r3, #2
 717 01f4 0344     		add	r3, r3, r0
 718 01f6 0B44     		add	r3, r3, r1
 719 01f8 03F20323 		addw	r3, r3, #515
 720 01fc 1B78     		ldrb	r3, [r3]	@ zero_extendqisi2
 721 01fe 1946     		mov	r1, r3
 722 0200 0B46     		mov	r3, r1
 723 0202 5B00     		lsls	r3, r3, #1
 724 0204 0B44     		add	r3, r3, r1
 725 0206 5B00     		lsls	r3, r3, #1
 726 0208 1A44     		add	r2, r2, r3
 727 020a FB7F     		ldrb	r3, [r7, #31]	@ zero_extendqisi2
 728 020c 2749     		ldr	r1, .L27+4
 729 020e CB5C     		ldrb	r3, [r1, r3]	@ zero_extendqisi2
 730 0210 1846     		mov	r0, r3
 731 0212 2A49     		ldr	r1, .L27+20
 732 0214 0346     		mov	r3, r0
 733 0216 9B00     		lsls	r3, r3, #2
 734 0218 0344     		add	r3, r3, r0
 735 021a 0B44     		add	r3, r3, r1
 736 021c 03F50173 		add	r3, r3, #516
 737 0220 1B78     		ldrb	r3, [r3]	@ zero_extendqisi2
 738 0222 1946     		mov	r1, r3
 739 0224 0B46     		mov	r3, r1
 740 0226 5B00     		lsls	r3, r3, #1
 741 0228 0B44     		add	r3, r3, r1
 742 022a 5B00     		lsls	r3, r3, #1
 743 022c 1A44     		add	r2, r2, r3
 744 022e FB7F     		ldrb	r3, [r7, #31]	@ zero_extendqisi2
 745 0230 1E49     		ldr	r1, .L27+4
 746 0232 CB5C     		ldrb	r3, [r1, r3]	@ zero_extendqisi2
 747 0234 1846     		mov	r0, r3
 748 0236 2149     		ldr	r1, .L27+20
 749 0238 0346     		mov	r3, r0
 750 023a 9B00     		lsls	r3, r3, #2
 751 023c 0344     		add	r3, r3, r0
 752 023e 0B44     		add	r3, r3, r1
 753 0240 03F20523 		addw	r3, r3, #517
 754 0244 1B78     		ldrb	r3, [r3]	@ zero_extendqisi2
 755 0246 1B01     		lsls	r3, r3, #4
 756 0248 1A44     		add	r2, r2, r3
ARM GAS  C:\Users\Mattia\AppData\Local\Temp\ccYnk7Oc.s 			page 19


 757 024a FB7F     		ldrb	r3, [r7, #31]	@ zero_extendqisi2
 758 024c 1749     		ldr	r1, .L27+4
 759 024e CB5C     		ldrb	r3, [r1, r3]	@ zero_extendqisi2
 760 0250 1846     		mov	r0, r3
 761 0252 1A49     		ldr	r1, .L27+20
 762 0254 0346     		mov	r3, r0
 763 0256 9B00     		lsls	r3, r3, #2
 764 0258 0344     		add	r3, r3, r0
 765 025a 0B44     		add	r3, r3, r1
 766 025c 03F20623 		addw	r3, r3, #518
 767 0260 1B78     		ldrb	r3, [r3]	@ zero_extendqisi2
 768 0262 5B00     		lsls	r3, r3, #1
 769 0264 1344     		add	r3, r3, r2
 770 0266 0133     		adds	r3, r3, #1
 771 0268 124A     		ldr	r2, .L27+12
 772 026a 42F82430 		str	r3, [r2, r4, lsl #2]
 257:..\src/IMU_functions.c ****         imus_data_size = imus_data_size + single_imu_size[IMU_connected[k_imu]];
 773              		.loc 1 257 0 discriminator 3
 774 026e FB7F     		ldrb	r3, [r7, #31]	@ zero_extendqisi2
 775 0270 0E4A     		ldr	r2, .L27+4
 776 0272 D35C     		ldrb	r3, [r2, r3]	@ zero_extendqisi2
 777 0274 1A46     		mov	r2, r3
 778 0276 0F4B     		ldr	r3, .L27+12
 779 0278 53F82220 		ldr	r2, [r3, r2, lsl #2]
 780 027c 0E4B     		ldr	r3, .L27+16
 781 027e 1B68     		ldr	r3, [r3]
 782 0280 1344     		add	r3, r3, r2
 783 0282 0D4A     		ldr	r2, .L27+16
 784 0284 1360     		str	r3, [r2]
 254:..\src/IMU_functions.c ****     for (k_imu = 0; k_imu < N_IMU_Connected; k_imu++)
 785              		.loc 1 254 0 discriminator 3
 786 0286 FB7F     		ldrb	r3, [r7, #31]	@ zero_extendqisi2
 787 0288 0133     		adds	r3, r3, #1
 788 028a FB77     		strb	r3, [r7, #31]
 789              	.L25:
 254:..\src/IMU_functions.c ****     for (k_imu = 0; k_imu < N_IMU_Connected; k_imu++)
 790              		.loc 1 254 0 is_stmt 0 discriminator 1
 791 028c 084B     		ldr	r3, .L27+8
 792 028e 1B78     		ldrb	r3, [r3]	@ zero_extendqisi2
 793 0290 FA7F     		ldrb	r2, [r7, #31]	@ zero_extendqisi2
 794 0292 9A42     		cmp	r2, r3
 795 0294 91D3     		bcc	.L26
 258:..\src/IMU_functions.c ****     }
 259:..\src/IMU_functions.c ****     imus_data_size = imus_data_size + 1;    //checksum*/
 796              		.loc 1 259 0 is_stmt 1
 797 0296 084B     		ldr	r3, .L27+16
 798 0298 1B68     		ldr	r3, [r3]
 799 029a 0133     		adds	r3, r3, #1
 800 029c 064A     		ldr	r2, .L27+16
 801 029e 1360     		str	r3, [r2]
 260:..\src/IMU_functions.c **** }
 802              		.loc 1 260 0
 803 02a0 00BF     		nop
 804 02a2 2437     		adds	r7, r7, #36
 805              		.cfi_def_cfa_offset 12
 806 02a4 BD46     		mov	sp, r7
 807              		.cfi_def_cfa_register 13
ARM GAS  C:\Users\Mattia\AppData\Local\Temp\ccYnk7Oc.s 			page 20


 808              		@ sp needed
 809 02a6 90BD     		pop	{r4, r7, pc}
 810              	.L28:
 811              		.align	2
 812              	.L27:
 813 02a8 00000000 		.word	g_imu
 814 02ac 00000000 		.word	IMU_connected
 815 02b0 00000000 		.word	N_IMU_Connected
 816 02b4 00000000 		.word	single_imu_size
 817 02b8 00000000 		.word	imus_data_size
 818 02bc 00000000 		.word	c_mem
 819              		.cfi_endproc
 820              	.LFE68:
 821              		.size	InitIMUgeneral, .-InitIMUgeneral
 822              		.section	.text.ReadIMU,"ax",%progbits
 823              		.align	2
 824              		.global	ReadIMU
 825              		.thumb
 826              		.thumb_func
 827              		.type	ReadIMU, %function
 828              	ReadIMU:
 829              	.LFB69:
 261:..\src/IMU_functions.c **** 
 262:..\src/IMU_functions.c **** /*******************************************************************************
 263:..\src/IMU_functions.c **** * Function Name: IMU Read
 264:..\src/IMU_functions.c **** *********************************************************************************/	
 265:..\src/IMU_functions.c **** void ReadIMU(int n)
 266:..\src/IMU_functions.c **** {
 830              		.loc 1 266 0
 831              		.cfi_startproc
 832              		@ args = 0, pretend = 0, frame = 8
 833              		@ frame_needed = 1, uses_anonymous_args = 0
 834 0000 80B5     		push	{r7, lr}
 835              		.cfi_def_cfa_offset 8
 836              		.cfi_offset 7, -8
 837              		.cfi_offset 14, -4
 838 0002 82B0     		sub	sp, sp, #8
 839              		.cfi_def_cfa_offset 16
 840 0004 00AF     		add	r7, sp, #0
 841              		.cfi_def_cfa_register 7
 842 0006 7860     		str	r0, [r7, #4]
 267:..\src/IMU_functions.c ****     if (c_mem.imu.IMU_conf[n][0]) ReadAcc(n);
 843              		.loc 1 267 0
 844 0008 2449     		ldr	r1, .L36
 845 000a 7A68     		ldr	r2, [r7, #4]
 846 000c 1346     		mov	r3, r2
 847 000e 9B00     		lsls	r3, r3, #2
 848 0010 1344     		add	r3, r3, r2
 849 0012 0B44     		add	r3, r3, r1
 850 0014 03F20223 		addw	r3, r3, #514
 851 0018 1B78     		ldrb	r3, [r3]	@ zero_extendqisi2
 852 001a 002B     		cmp	r3, #0
 853 001c 02D0     		beq	.L30
 854              		.loc 1 267 0 is_stmt 0 discriminator 1
 855 001e 7868     		ldr	r0, [r7, #4]
 856 0020 FFF7FEFF 		bl	ReadAcc
 857              	.L30:
ARM GAS  C:\Users\Mattia\AppData\Local\Temp\ccYnk7Oc.s 			page 21


 268:..\src/IMU_functions.c ****     if (c_mem.imu.IMU_conf[n][1]) ReadGyro(n);
 858              		.loc 1 268 0 is_stmt 1
 859 0024 1D49     		ldr	r1, .L36
 860 0026 7A68     		ldr	r2, [r7, #4]
 861 0028 1346     		mov	r3, r2
 862 002a 9B00     		lsls	r3, r3, #2
 863 002c 1344     		add	r3, r3, r2
 864 002e 0B44     		add	r3, r3, r1
 865 0030 03F20323 		addw	r3, r3, #515
 866 0034 1B78     		ldrb	r3, [r3]	@ zero_extendqisi2
 867 0036 002B     		cmp	r3, #0
 868 0038 02D0     		beq	.L31
 869              		.loc 1 268 0 is_stmt 0 discriminator 1
 870 003a 7868     		ldr	r0, [r7, #4]
 871 003c FFF7FEFF 		bl	ReadGyro
 872              	.L31:
 269:..\src/IMU_functions.c ****     if (c_mem.imu.IMU_conf[n][2]) ReadMag(n);
 873              		.loc 1 269 0 is_stmt 1
 874 0040 1649     		ldr	r1, .L36
 875 0042 7A68     		ldr	r2, [r7, #4]
 876 0044 1346     		mov	r3, r2
 877 0046 9B00     		lsls	r3, r3, #2
 878 0048 1344     		add	r3, r3, r2
 879 004a 0B44     		add	r3, r3, r1
 880 004c 03F50173 		add	r3, r3, #516
 881 0050 1B78     		ldrb	r3, [r3]	@ zero_extendqisi2
 882 0052 002B     		cmp	r3, #0
 883 0054 02D0     		beq	.L32
 884              		.loc 1 269 0 is_stmt 0 discriminator 1
 885 0056 7868     		ldr	r0, [r7, #4]
 886 0058 FFF7FEFF 		bl	ReadMag
 887              	.L32:
 270:..\src/IMU_functions.c ****     if (c_mem.imu.IMU_conf[n][3]) ReadQuat(n);
 888              		.loc 1 270 0 is_stmt 1
 889 005c 0F49     		ldr	r1, .L36
 890 005e 7A68     		ldr	r2, [r7, #4]
 891 0060 1346     		mov	r3, r2
 892 0062 9B00     		lsls	r3, r3, #2
 893 0064 1344     		add	r3, r3, r2
 894 0066 0B44     		add	r3, r3, r1
 895 0068 03F20523 		addw	r3, r3, #517
 896 006c 1B78     		ldrb	r3, [r3]	@ zero_extendqisi2
 897 006e 002B     		cmp	r3, #0
 898 0070 02D0     		beq	.L33
 899              		.loc 1 270 0 is_stmt 0 discriminator 1
 900 0072 7868     		ldr	r0, [r7, #4]
 901 0074 FFF7FEFF 		bl	ReadQuat
 902              	.L33:
 271:..\src/IMU_functions.c ****     if (c_mem.imu.IMU_conf[n][4]) ReadTemp(n);
 903              		.loc 1 271 0 is_stmt 1
 904 0078 0849     		ldr	r1, .L36
 905 007a 7A68     		ldr	r2, [r7, #4]
 906 007c 1346     		mov	r3, r2
 907 007e 9B00     		lsls	r3, r3, #2
 908 0080 1344     		add	r3, r3, r2
 909 0082 0B44     		add	r3, r3, r1
 910 0084 03F20623 		addw	r3, r3, #518
ARM GAS  C:\Users\Mattia\AppData\Local\Temp\ccYnk7Oc.s 			page 22


 911 0088 1B78     		ldrb	r3, [r3]	@ zero_extendqisi2
 912 008a 002B     		cmp	r3, #0
 913 008c 02D0     		beq	.L35
 914              		.loc 1 271 0 is_stmt 0 discriminator 1
 915 008e 7868     		ldr	r0, [r7, #4]
 916 0090 FFF7FEFF 		bl	ReadTemp
 917              	.L35:
 272:..\src/IMU_functions.c **** }
 918              		.loc 1 272 0 is_stmt 1
 919 0094 00BF     		nop
 920 0096 0837     		adds	r7, r7, #8
 921              		.cfi_def_cfa_offset 8
 922 0098 BD46     		mov	sp, r7
 923              		.cfi_def_cfa_register 13
 924              		@ sp needed
 925 009a 80BD     		pop	{r7, pc}
 926              	.L37:
 927              		.align	2
 928              	.L36:
 929 009c 00000000 		.word	c_mem
 930              		.cfi_endproc
 931              	.LFE69:
 932              		.size	ReadIMU, .-ReadIMU
 933              		.section	.text.ReadAcc,"ax",%progbits
 934              		.align	2
 935              		.global	ReadAcc
 936              		.thumb
 937              		.thumb_func
 938              		.type	ReadAcc, %function
 939              	ReadAcc:
 940              	.LFB70:
 273:..\src/IMU_functions.c **** 
 274:..\src/IMU_functions.c **** /*******************************************************************************
 275:..\src/IMU_functions.c **** * Function Name: Read Acc's Data of IMU n
 276:..\src/IMU_functions.c **** *********************************************************************************/
 277:..\src/IMU_functions.c **** void ReadAcc(int n)
 278:..\src/IMU_functions.c **** {
 941              		.loc 1 278 0
 942              		.cfi_startproc
 943              		@ args = 0, pretend = 0, frame = 16
 944              		@ frame_needed = 1, uses_anonymous_args = 0
 945 0000 80B5     		push	{r7, lr}
 946              		.cfi_def_cfa_offset 8
 947              		.cfi_offset 7, -8
 948              		.cfi_offset 14, -4
 949 0002 84B0     		sub	sp, sp, #16
 950              		.cfi_def_cfa_offset 24
 951 0004 00AF     		add	r7, sp, #0
 952              		.cfi_def_cfa_register 7
 953 0006 7860     		str	r0, [r7, #4]
 279:..\src/IMU_functions.c **** 	uint8 low=0, high=0;
 954              		.loc 1 279 0
 955 0008 0023     		movs	r3, #0
 956 000a FB73     		strb	r3, [r7, #15]
 957 000c 0023     		movs	r3, #0
 958 000e BB73     		strb	r3, [r7, #14]
 280:..\src/IMU_functions.c **** 	
ARM GAS  C:\Users\Mattia\AppData\Local\Temp\ccYnk7Oc.s 			page 23


 281:..\src/IMU_functions.c **** 	int row = n;
 959              		.loc 1 281 0
 960 0010 7B68     		ldr	r3, [r7, #4]
 961 0012 BB60     		str	r3, [r7, #8]
 282:..\src/IMU_functions.c **** 	
 283:..\src/IMU_functions.c **** 	//read X
 284:..\src/IMU_functions.c ****     low=ReadControlRegisterIMU(MPU9250_ACCEL_XOUT_L);
 962              		.loc 1 284 0
 963 0014 3C20     		movs	r0, #60
 964 0016 FFF7FEFF 		bl	ReadControlRegisterIMU
 965 001a 0346     		mov	r3, r0
 966 001c FB73     		strb	r3, [r7, #15]
 285:..\src/IMU_functions.c ****     SPI_delay();
 967              		.loc 1 285 0
 968 001e FFF7FEFF 		bl	SPI_delay
 286:..\src/IMU_functions.c ****     high=ReadControlRegisterIMU(MPU9250_ACCEL_XOUT_H);
 969              		.loc 1 286 0
 970 0022 3B20     		movs	r0, #59
 971 0024 FFF7FEFF 		bl	ReadControlRegisterIMU
 972 0028 0346     		mov	r3, r0
 973 002a BB73     		strb	r3, [r7, #14]
 287:..\src/IMU_functions.c ****     SPI_delay();
 974              		.loc 1 287 0
 975 002c FFF7FEFF 		bl	SPI_delay
 288:..\src/IMU_functions.c ****     
 289:..\src/IMU_functions.c **** 	Accel[row][0] = high; 
 976              		.loc 1 289 0
 977 0030 3349     		ldr	r1, .L39
 978 0032 BA68     		ldr	r2, [r7, #8]
 979 0034 1346     		mov	r3, r2
 980 0036 5B00     		lsls	r3, r3, #1
 981 0038 1344     		add	r3, r3, r2
 982 003a 5B00     		lsls	r3, r3, #1
 983 003c 0B44     		add	r3, r3, r1
 984 003e BA7B     		ldrb	r2, [r7, #14]
 985 0040 1A70     		strb	r2, [r3]
 290:..\src/IMU_functions.c **** 	Accel[row][1] = low; 
 986              		.loc 1 290 0
 987 0042 2F49     		ldr	r1, .L39
 988 0044 BA68     		ldr	r2, [r7, #8]
 989 0046 1346     		mov	r3, r2
 990 0048 5B00     		lsls	r3, r3, #1
 991 004a 1344     		add	r3, r3, r2
 992 004c 5B00     		lsls	r3, r3, #1
 993 004e 0B44     		add	r3, r3, r1
 994 0050 0133     		adds	r3, r3, #1
 995 0052 FA7B     		ldrb	r2, [r7, #15]
 996 0054 1A70     		strb	r2, [r3]
 291:..\src/IMU_functions.c **** 	low=0, high=0;
 997              		.loc 1 291 0
 998 0056 0023     		movs	r3, #0
 999 0058 FB73     		strb	r3, [r7, #15]
 1000 005a 0023     		movs	r3, #0
 1001 005c BB73     		strb	r3, [r7, #14]
 292:..\src/IMU_functions.c **** 			
 293:..\src/IMU_functions.c **** 	//read Y
 294:..\src/IMU_functions.c ****     low=ReadControlRegisterIMU(MPU9250_ACCEL_YOUT_L);
ARM GAS  C:\Users\Mattia\AppData\Local\Temp\ccYnk7Oc.s 			page 24


 1002              		.loc 1 294 0
 1003 005e 3E20     		movs	r0, #62
 1004 0060 FFF7FEFF 		bl	ReadControlRegisterIMU
 1005 0064 0346     		mov	r3, r0
 1006 0066 FB73     		strb	r3, [r7, #15]
 295:..\src/IMU_functions.c ****     SPI_delay();
 1007              		.loc 1 295 0
 1008 0068 FFF7FEFF 		bl	SPI_delay
 296:..\src/IMU_functions.c **** 	high=ReadControlRegisterIMU(MPU9250_ACCEL_YOUT_H);
 1009              		.loc 1 296 0
 1010 006c 3D20     		movs	r0, #61
 1011 006e FFF7FEFF 		bl	ReadControlRegisterIMU
 1012 0072 0346     		mov	r3, r0
 1013 0074 BB73     		strb	r3, [r7, #14]
 297:..\src/IMU_functions.c ****     SPI_delay();
 1014              		.loc 1 297 0
 1015 0076 FFF7FEFF 		bl	SPI_delay
 298:..\src/IMU_functions.c **** 
 299:..\src/IMU_functions.c **** 	Accel[row][2] = high; 
 1016              		.loc 1 299 0
 1017 007a 2149     		ldr	r1, .L39
 1018 007c BA68     		ldr	r2, [r7, #8]
 1019 007e 1346     		mov	r3, r2
 1020 0080 5B00     		lsls	r3, r3, #1
 1021 0082 1344     		add	r3, r3, r2
 1022 0084 5B00     		lsls	r3, r3, #1
 1023 0086 0B44     		add	r3, r3, r1
 1024 0088 0233     		adds	r3, r3, #2
 1025 008a BA7B     		ldrb	r2, [r7, #14]
 1026 008c 1A70     		strb	r2, [r3]
 300:..\src/IMU_functions.c **** 	Accel[row][3] = low; 
 1027              		.loc 1 300 0
 1028 008e 1C49     		ldr	r1, .L39
 1029 0090 BA68     		ldr	r2, [r7, #8]
 1030 0092 1346     		mov	r3, r2
 1031 0094 5B00     		lsls	r3, r3, #1
 1032 0096 1344     		add	r3, r3, r2
 1033 0098 5B00     		lsls	r3, r3, #1
 1034 009a 0B44     		add	r3, r3, r1
 1035 009c 0333     		adds	r3, r3, #3
 1036 009e FA7B     		ldrb	r2, [r7, #15]
 1037 00a0 1A70     		strb	r2, [r3]
 301:..\src/IMU_functions.c **** 	low=0, high=0;
 1038              		.loc 1 301 0
 1039 00a2 0023     		movs	r3, #0
 1040 00a4 FB73     		strb	r3, [r7, #15]
 1041 00a6 0023     		movs	r3, #0
 1042 00a8 BB73     		strb	r3, [r7, #14]
 302:..\src/IMU_functions.c **** 		
 303:..\src/IMU_functions.c **** 	//read Z
 304:..\src/IMU_functions.c ****     low=ReadControlRegisterIMU(MPU9250_ACCEL_ZOUT_L);
 1043              		.loc 1 304 0
 1044 00aa 4020     		movs	r0, #64
 1045 00ac FFF7FEFF 		bl	ReadControlRegisterIMU
 1046 00b0 0346     		mov	r3, r0
 1047 00b2 FB73     		strb	r3, [r7, #15]
 305:..\src/IMU_functions.c ****     SPI_delay();
ARM GAS  C:\Users\Mattia\AppData\Local\Temp\ccYnk7Oc.s 			page 25


 1048              		.loc 1 305 0
 1049 00b4 FFF7FEFF 		bl	SPI_delay
 306:..\src/IMU_functions.c ****     high=ReadControlRegisterIMU(MPU9250_ACCEL_ZOUT_H);
 1050              		.loc 1 306 0
 1051 00b8 3F20     		movs	r0, #63
 1052 00ba FFF7FEFF 		bl	ReadControlRegisterIMU
 1053 00be 0346     		mov	r3, r0
 1054 00c0 BB73     		strb	r3, [r7, #14]
 307:..\src/IMU_functions.c ****     SPI_delay();
 1055              		.loc 1 307 0
 1056 00c2 FFF7FEFF 		bl	SPI_delay
 308:..\src/IMU_functions.c ****     
 309:..\src/IMU_functions.c **** 	Accel[row][4] = high; 
 1057              		.loc 1 309 0
 1058 00c6 0E49     		ldr	r1, .L39
 1059 00c8 BA68     		ldr	r2, [r7, #8]
 1060 00ca 1346     		mov	r3, r2
 1061 00cc 5B00     		lsls	r3, r3, #1
 1062 00ce 1344     		add	r3, r3, r2
 1063 00d0 5B00     		lsls	r3, r3, #1
 1064 00d2 0B44     		add	r3, r3, r1
 1065 00d4 0433     		adds	r3, r3, #4
 1066 00d6 BA7B     		ldrb	r2, [r7, #14]
 1067 00d8 1A70     		strb	r2, [r3]
 310:..\src/IMU_functions.c **** 	Accel[row][5] = low;
 1068              		.loc 1 310 0
 1069 00da 0949     		ldr	r1, .L39
 1070 00dc BA68     		ldr	r2, [r7, #8]
 1071 00de 1346     		mov	r3, r2
 1072 00e0 5B00     		lsls	r3, r3, #1
 1073 00e2 1344     		add	r3, r3, r2
 1074 00e4 5B00     		lsls	r3, r3, #1
 1075 00e6 0B44     		add	r3, r3, r1
 1076 00e8 0533     		adds	r3, r3, #5
 1077 00ea FA7B     		ldrb	r2, [r7, #15]
 1078 00ec 1A70     		strb	r2, [r3]
 311:..\src/IMU_functions.c **** 	low=0, high=0;
 1079              		.loc 1 311 0
 1080 00ee 0023     		movs	r3, #0
 1081 00f0 FB73     		strb	r3, [r7, #15]
 1082 00f2 0023     		movs	r3, #0
 1083 00f4 BB73     		strb	r3, [r7, #14]
 312:..\src/IMU_functions.c **** }
 1084              		.loc 1 312 0
 1085 00f6 00BF     		nop
 1086 00f8 1037     		adds	r7, r7, #16
 1087              		.cfi_def_cfa_offset 8
 1088 00fa BD46     		mov	sp, r7
 1089              		.cfi_def_cfa_register 13
 1090              		@ sp needed
 1091 00fc 80BD     		pop	{r7, pc}
 1092              	.L40:
 1093 00fe 00BF     		.align	2
 1094              	.L39:
 1095 0100 00000000 		.word	Accel
 1096              		.cfi_endproc
 1097              	.LFE70:
ARM GAS  C:\Users\Mattia\AppData\Local\Temp\ccYnk7Oc.s 			page 26


 1098              		.size	ReadAcc, .-ReadAcc
 1099              		.section	.text.ReadGyro,"ax",%progbits
 1100              		.align	2
 1101              		.global	ReadGyro
 1102              		.thumb
 1103              		.thumb_func
 1104              		.type	ReadGyro, %function
 1105              	ReadGyro:
 1106              	.LFB71:
 313:..\src/IMU_functions.c **** 
 314:..\src/IMU_functions.c **** /*******************************************************************************
 315:..\src/IMU_functions.c **** * Function Name: Read Gyro's Data of IMU n
 316:..\src/IMU_functions.c **** *********************************************************************************/
 317:..\src/IMU_functions.c **** void ReadGyro(int n){
 1107              		.loc 1 317 0
 1108              		.cfi_startproc
 1109              		@ args = 0, pretend = 0, frame = 16
 1110              		@ frame_needed = 1, uses_anonymous_args = 0
 1111 0000 80B5     		push	{r7, lr}
 1112              		.cfi_def_cfa_offset 8
 1113              		.cfi_offset 7, -8
 1114              		.cfi_offset 14, -4
 1115 0002 84B0     		sub	sp, sp, #16
 1116              		.cfi_def_cfa_offset 24
 1117 0004 00AF     		add	r7, sp, #0
 1118              		.cfi_def_cfa_register 7
 1119 0006 7860     		str	r0, [r7, #4]
 318:..\src/IMU_functions.c **** 	uint8 low=0, high=0;
 1120              		.loc 1 318 0
 1121 0008 0023     		movs	r3, #0
 1122 000a FB73     		strb	r3, [r7, #15]
 1123 000c 0023     		movs	r3, #0
 1124 000e BB73     		strb	r3, [r7, #14]
 319:..\src/IMU_functions.c ****  
 320:..\src/IMU_functions.c **** 	int row = n;
 1125              		.loc 1 320 0
 1126 0010 7B68     		ldr	r3, [r7, #4]
 1127 0012 BB60     		str	r3, [r7, #8]
 321:..\src/IMU_functions.c **** 	
 322:..\src/IMU_functions.c **** 	//read X
 323:..\src/IMU_functions.c **** 	low=ReadControlRegisterIMU(MPU9250_GYRO_XOUT_L);
 1128              		.loc 1 323 0
 1129 0014 4420     		movs	r0, #68
 1130 0016 FFF7FEFF 		bl	ReadControlRegisterIMU
 1131 001a 0346     		mov	r3, r0
 1132 001c FB73     		strb	r3, [r7, #15]
 324:..\src/IMU_functions.c ****     SPI_delay();
 1133              		.loc 1 324 0
 1134 001e FFF7FEFF 		bl	SPI_delay
 325:..\src/IMU_functions.c **** 	high=ReadControlRegisterIMU(MPU9250_GYRO_XOUT_H);
 1135              		.loc 1 325 0
 1136 0022 4320     		movs	r0, #67
 1137 0024 FFF7FEFF 		bl	ReadControlRegisterIMU
 1138 0028 0346     		mov	r3, r0
 1139 002a BB73     		strb	r3, [r7, #14]
 326:..\src/IMU_functions.c ****     SPI_delay();
 1140              		.loc 1 326 0
ARM GAS  C:\Users\Mattia\AppData\Local\Temp\ccYnk7Oc.s 			page 27


 1141 002c FFF7FEFF 		bl	SPI_delay
 327:..\src/IMU_functions.c ****     
 328:..\src/IMU_functions.c **** 	Gyro[row][0] = high; 
 1142              		.loc 1 328 0
 1143 0030 3349     		ldr	r1, .L42
 1144 0032 BA68     		ldr	r2, [r7, #8]
 1145 0034 1346     		mov	r3, r2
 1146 0036 5B00     		lsls	r3, r3, #1
 1147 0038 1344     		add	r3, r3, r2
 1148 003a 5B00     		lsls	r3, r3, #1
 1149 003c 0B44     		add	r3, r3, r1
 1150 003e BA7B     		ldrb	r2, [r7, #14]
 1151 0040 1A70     		strb	r2, [r3]
 329:..\src/IMU_functions.c **** 	Gyro[row][1] = low;
 1152              		.loc 1 329 0
 1153 0042 2F49     		ldr	r1, .L42
 1154 0044 BA68     		ldr	r2, [r7, #8]
 1155 0046 1346     		mov	r3, r2
 1156 0048 5B00     		lsls	r3, r3, #1
 1157 004a 1344     		add	r3, r3, r2
 1158 004c 5B00     		lsls	r3, r3, #1
 1159 004e 0B44     		add	r3, r3, r1
 1160 0050 0133     		adds	r3, r3, #1
 1161 0052 FA7B     		ldrb	r2, [r7, #15]
 1162 0054 1A70     		strb	r2, [r3]
 330:..\src/IMU_functions.c **** 	low=0, high=0;
 1163              		.loc 1 330 0
 1164 0056 0023     		movs	r3, #0
 1165 0058 FB73     		strb	r3, [r7, #15]
 1166 005a 0023     		movs	r3, #0
 1167 005c BB73     		strb	r3, [r7, #14]
 331:..\src/IMU_functions.c ****     
 332:..\src/IMU_functions.c **** 	//read Y
 333:..\src/IMU_functions.c **** 	low=ReadControlRegisterIMU(MPU9250_GYRO_YOUT_L);
 1168              		.loc 1 333 0
 1169 005e 4620     		movs	r0, #70
 1170 0060 FFF7FEFF 		bl	ReadControlRegisterIMU
 1171 0064 0346     		mov	r3, r0
 1172 0066 FB73     		strb	r3, [r7, #15]
 334:..\src/IMU_functions.c ****     SPI_delay();
 1173              		.loc 1 334 0
 1174 0068 FFF7FEFF 		bl	SPI_delay
 335:..\src/IMU_functions.c **** 	high=ReadControlRegisterIMU(MPU9250_GYRO_YOUT_H);
 1175              		.loc 1 335 0
 1176 006c 4520     		movs	r0, #69
 1177 006e FFF7FEFF 		bl	ReadControlRegisterIMU
 1178 0072 0346     		mov	r3, r0
 1179 0074 BB73     		strb	r3, [r7, #14]
 336:..\src/IMU_functions.c ****     SPI_delay();
 1180              		.loc 1 336 0
 1181 0076 FFF7FEFF 		bl	SPI_delay
 337:..\src/IMU_functions.c ****     
 338:..\src/IMU_functions.c **** 	Gyro[row][2] = high; 
 1182              		.loc 1 338 0
 1183 007a 2149     		ldr	r1, .L42
 1184 007c BA68     		ldr	r2, [r7, #8]
 1185 007e 1346     		mov	r3, r2
ARM GAS  C:\Users\Mattia\AppData\Local\Temp\ccYnk7Oc.s 			page 28


 1186 0080 5B00     		lsls	r3, r3, #1
 1187 0082 1344     		add	r3, r3, r2
 1188 0084 5B00     		lsls	r3, r3, #1
 1189 0086 0B44     		add	r3, r3, r1
 1190 0088 0233     		adds	r3, r3, #2
 1191 008a BA7B     		ldrb	r2, [r7, #14]
 1192 008c 1A70     		strb	r2, [r3]
 339:..\src/IMU_functions.c **** 	Gyro[row][3] = low;
 1193              		.loc 1 339 0
 1194 008e 1C49     		ldr	r1, .L42
 1195 0090 BA68     		ldr	r2, [r7, #8]
 1196 0092 1346     		mov	r3, r2
 1197 0094 5B00     		lsls	r3, r3, #1
 1198 0096 1344     		add	r3, r3, r2
 1199 0098 5B00     		lsls	r3, r3, #1
 1200 009a 0B44     		add	r3, r3, r1
 1201 009c 0333     		adds	r3, r3, #3
 1202 009e FA7B     		ldrb	r2, [r7, #15]
 1203 00a0 1A70     		strb	r2, [r3]
 340:..\src/IMU_functions.c **** 	low=0, high=0;
 1204              		.loc 1 340 0
 1205 00a2 0023     		movs	r3, #0
 1206 00a4 FB73     		strb	r3, [r7, #15]
 1207 00a6 0023     		movs	r3, #0
 1208 00a8 BB73     		strb	r3, [r7, #14]
 341:..\src/IMU_functions.c **** 
 342:..\src/IMU_functions.c **** 	//read Z
 343:..\src/IMU_functions.c ****     low=ReadControlRegisterIMU(MPU9250_GYRO_ZOUT_L);
 1209              		.loc 1 343 0
 1210 00aa 4820     		movs	r0, #72
 1211 00ac FFF7FEFF 		bl	ReadControlRegisterIMU
 1212 00b0 0346     		mov	r3, r0
 1213 00b2 FB73     		strb	r3, [r7, #15]
 344:..\src/IMU_functions.c ****     SPI_delay();
 1214              		.loc 1 344 0
 1215 00b4 FFF7FEFF 		bl	SPI_delay
 345:..\src/IMU_functions.c **** 	high=ReadControlRegisterIMU(MPU9250_GYRO_ZOUT_H);
 1216              		.loc 1 345 0
 1217 00b8 4720     		movs	r0, #71
 1218 00ba FFF7FEFF 		bl	ReadControlRegisterIMU
 1219 00be 0346     		mov	r3, r0
 1220 00c0 BB73     		strb	r3, [r7, #14]
 346:..\src/IMU_functions.c ****     SPI_delay();
 1221              		.loc 1 346 0
 1222 00c2 FFF7FEFF 		bl	SPI_delay
 347:..\src/IMU_functions.c ****     
 348:..\src/IMU_functions.c **** 	Gyro[row][4] = high; 
 1223              		.loc 1 348 0
 1224 00c6 0E49     		ldr	r1, .L42
 1225 00c8 BA68     		ldr	r2, [r7, #8]
 1226 00ca 1346     		mov	r3, r2
 1227 00cc 5B00     		lsls	r3, r3, #1
 1228 00ce 1344     		add	r3, r3, r2
 1229 00d0 5B00     		lsls	r3, r3, #1
 1230 00d2 0B44     		add	r3, r3, r1
 1231 00d4 0433     		adds	r3, r3, #4
 1232 00d6 BA7B     		ldrb	r2, [r7, #14]
ARM GAS  C:\Users\Mattia\AppData\Local\Temp\ccYnk7Oc.s 			page 29


 1233 00d8 1A70     		strb	r2, [r3]
 349:..\src/IMU_functions.c **** 	Gyro[row][5] = low;        
 1234              		.loc 1 349 0
 1235 00da 0949     		ldr	r1, .L42
 1236 00dc BA68     		ldr	r2, [r7, #8]
 1237 00de 1346     		mov	r3, r2
 1238 00e0 5B00     		lsls	r3, r3, #1
 1239 00e2 1344     		add	r3, r3, r2
 1240 00e4 5B00     		lsls	r3, r3, #1
 1241 00e6 0B44     		add	r3, r3, r1
 1242 00e8 0533     		adds	r3, r3, #5
 1243 00ea FA7B     		ldrb	r2, [r7, #15]
 1244 00ec 1A70     		strb	r2, [r3]
 350:..\src/IMU_functions.c **** 
 351:..\src/IMU_functions.c **** 	low=0, high=0;
 1245              		.loc 1 351 0
 1246 00ee 0023     		movs	r3, #0
 1247 00f0 FB73     		strb	r3, [r7, #15]
 1248 00f2 0023     		movs	r3, #0
 1249 00f4 BB73     		strb	r3, [r7, #14]
 352:..\src/IMU_functions.c **** }
 1250              		.loc 1 352 0
 1251 00f6 00BF     		nop
 1252 00f8 1037     		adds	r7, r7, #16
 1253              		.cfi_def_cfa_offset 8
 1254 00fa BD46     		mov	sp, r7
 1255              		.cfi_def_cfa_register 13
 1256              		@ sp needed
 1257 00fc 80BD     		pop	{r7, pc}
 1258              	.L43:
 1259 00fe 00BF     		.align	2
 1260              	.L42:
 1261 0100 00000000 		.word	Gyro
 1262              		.cfi_endproc
 1263              	.LFE71:
 1264              		.size	ReadGyro, .-ReadGyro
 1265              		.section	.text.ReadMag,"ax",%progbits
 1266              		.align	2
 1267              		.global	ReadMag
 1268              		.thumb
 1269              		.thumb_func
 1270              		.type	ReadMag, %function
 1271              	ReadMag:
 1272              	.LFB72:
 353:..\src/IMU_functions.c **** 
 354:..\src/IMU_functions.c **** /*******************************************************************************
 355:..\src/IMU_functions.c **** * Function Name: Read Compas' Data of IMU n
 356:..\src/IMU_functions.c **** *********************************************************************************/
 357:..\src/IMU_functions.c **** void ReadMag(int n){
 1273              		.loc 1 357 0
 1274              		.cfi_startproc
 1275              		@ args = 0, pretend = 0, frame = 16
 1276              		@ frame_needed = 1, uses_anonymous_args = 0
 1277 0000 80B5     		push	{r7, lr}
 1278              		.cfi_def_cfa_offset 8
 1279              		.cfi_offset 7, -8
 1280              		.cfi_offset 14, -4
ARM GAS  C:\Users\Mattia\AppData\Local\Temp\ccYnk7Oc.s 			page 30


 1281 0002 84B0     		sub	sp, sp, #16
 1282              		.cfi_def_cfa_offset 24
 1283 0004 00AF     		add	r7, sp, #0
 1284              		.cfi_def_cfa_register 7
 1285 0006 7860     		str	r0, [r7, #4]
 358:..\src/IMU_functions.c **** 	
 359:..\src/IMU_functions.c **** 	uint8 low, high;
 360:..\src/IMU_functions.c **** 	int row = n;	
 1286              		.loc 1 360 0
 1287 0008 7B68     		ldr	r3, [r7, #4]
 1288 000a FB60     		str	r3, [r7, #12]
 361:..\src/IMU_functions.c **** 	//read X
 362:..\src/IMU_functions.c **** 	low = ReadControlRegisterIMU(MPU9250_EXT_SENS_DATA_00);
 1289              		.loc 1 362 0
 1290 000c 4920     		movs	r0, #73
 1291 000e FFF7FEFF 		bl	ReadControlRegisterIMU
 1292 0012 0346     		mov	r3, r0
 1293 0014 FB72     		strb	r3, [r7, #11]
 363:..\src/IMU_functions.c ****     SPI_delay();
 1294              		.loc 1 363 0
 1295 0016 FFF7FEFF 		bl	SPI_delay
 364:..\src/IMU_functions.c **** 	high = ReadControlRegisterIMU(MPU9250_EXT_SENS_DATA_01);		
 1296              		.loc 1 364 0
 1297 001a 4A20     		movs	r0, #74
 1298 001c FFF7FEFF 		bl	ReadControlRegisterIMU
 1299 0020 0346     		mov	r3, r0
 1300 0022 BB72     		strb	r3, [r7, #10]
 365:..\src/IMU_functions.c ****     SPI_delay();
 1301              		.loc 1 365 0
 1302 0024 FFF7FEFF 		bl	SPI_delay
 366:..\src/IMU_functions.c ****     
 367:..\src/IMU_functions.c **** 	Mag[row][0] = high; 
 1303              		.loc 1 367 0
 1304 0028 3349     		ldr	r1, .L45
 1305 002a FA68     		ldr	r2, [r7, #12]
 1306 002c 1346     		mov	r3, r2
 1307 002e 5B00     		lsls	r3, r3, #1
 1308 0030 1344     		add	r3, r3, r2
 1309 0032 5B00     		lsls	r3, r3, #1
 1310 0034 0B44     		add	r3, r3, r1
 1311 0036 BA7A     		ldrb	r2, [r7, #10]
 1312 0038 1A70     		strb	r2, [r3]
 368:..\src/IMU_functions.c **** 	Mag[row][1] = low;
 1313              		.loc 1 368 0
 1314 003a 2F49     		ldr	r1, .L45
 1315 003c FA68     		ldr	r2, [r7, #12]
 1316 003e 1346     		mov	r3, r2
 1317 0040 5B00     		lsls	r3, r3, #1
 1318 0042 1344     		add	r3, r3, r2
 1319 0044 5B00     		lsls	r3, r3, #1
 1320 0046 0B44     		add	r3, r3, r1
 1321 0048 0133     		adds	r3, r3, #1
 1322 004a FA7A     		ldrb	r2, [r7, #11]
 1323 004c 1A70     		strb	r2, [r3]
 369:..\src/IMU_functions.c **** 	low=0, high=0;
 1324              		.loc 1 369 0
 1325 004e 0023     		movs	r3, #0
ARM GAS  C:\Users\Mattia\AppData\Local\Temp\ccYnk7Oc.s 			page 31


 1326 0050 FB72     		strb	r3, [r7, #11]
 1327 0052 0023     		movs	r3, #0
 1328 0054 BB72     		strb	r3, [r7, #10]
 370:..\src/IMU_functions.c ****     
 371:..\src/IMU_functions.c **** 	//read Y
 372:..\src/IMU_functions.c **** 	low = ReadControlRegisterIMU(MPU9250_EXT_SENS_DATA_02);
 1329              		.loc 1 372 0
 1330 0056 4B20     		movs	r0, #75
 1331 0058 FFF7FEFF 		bl	ReadControlRegisterIMU
 1332 005c 0346     		mov	r3, r0
 1333 005e FB72     		strb	r3, [r7, #11]
 373:..\src/IMU_functions.c ****     SPI_delay();
 1334              		.loc 1 373 0
 1335 0060 FFF7FEFF 		bl	SPI_delay
 374:..\src/IMU_functions.c **** 	high = ReadControlRegisterIMU(MPU9250_EXT_SENS_DATA_03);		
 1336              		.loc 1 374 0
 1337 0064 4C20     		movs	r0, #76
 1338 0066 FFF7FEFF 		bl	ReadControlRegisterIMU
 1339 006a 0346     		mov	r3, r0
 1340 006c BB72     		strb	r3, [r7, #10]
 375:..\src/IMU_functions.c ****     SPI_delay();
 1341              		.loc 1 375 0
 1342 006e FFF7FEFF 		bl	SPI_delay
 376:..\src/IMU_functions.c ****     
 377:..\src/IMU_functions.c **** 	Mag[row][2] = high; 
 1343              		.loc 1 377 0
 1344 0072 2149     		ldr	r1, .L45
 1345 0074 FA68     		ldr	r2, [r7, #12]
 1346 0076 1346     		mov	r3, r2
 1347 0078 5B00     		lsls	r3, r3, #1
 1348 007a 1344     		add	r3, r3, r2
 1349 007c 5B00     		lsls	r3, r3, #1
 1350 007e 0B44     		add	r3, r3, r1
 1351 0080 0233     		adds	r3, r3, #2
 1352 0082 BA7A     		ldrb	r2, [r7, #10]
 1353 0084 1A70     		strb	r2, [r3]
 378:..\src/IMU_functions.c **** 	Mag[row][3] = low;
 1354              		.loc 1 378 0
 1355 0086 1C49     		ldr	r1, .L45
 1356 0088 FA68     		ldr	r2, [r7, #12]
 1357 008a 1346     		mov	r3, r2
 1358 008c 5B00     		lsls	r3, r3, #1
 1359 008e 1344     		add	r3, r3, r2
 1360 0090 5B00     		lsls	r3, r3, #1
 1361 0092 0B44     		add	r3, r3, r1
 1362 0094 0333     		adds	r3, r3, #3
 1363 0096 FA7A     		ldrb	r2, [r7, #11]
 1364 0098 1A70     		strb	r2, [r3]
 379:..\src/IMU_functions.c **** 	low=0, high=0;
 1365              		.loc 1 379 0
 1366 009a 0023     		movs	r3, #0
 1367 009c FB72     		strb	r3, [r7, #11]
 1368 009e 0023     		movs	r3, #0
 1369 00a0 BB72     		strb	r3, [r7, #10]
 380:..\src/IMU_functions.c ****     
 381:..\src/IMU_functions.c **** 	//read Z
 382:..\src/IMU_functions.c **** 	low = ReadControlRegisterIMU(MPU9250_EXT_SENS_DATA_04);
ARM GAS  C:\Users\Mattia\AppData\Local\Temp\ccYnk7Oc.s 			page 32


 1370              		.loc 1 382 0
 1371 00a2 4D20     		movs	r0, #77
 1372 00a4 FFF7FEFF 		bl	ReadControlRegisterIMU
 1373 00a8 0346     		mov	r3, r0
 1374 00aa FB72     		strb	r3, [r7, #11]
 383:..\src/IMU_functions.c ****     SPI_delay();
 1375              		.loc 1 383 0
 1376 00ac FFF7FEFF 		bl	SPI_delay
 384:..\src/IMU_functions.c **** 	high = ReadControlRegisterIMU(MPU9250_EXT_SENS_DATA_05);
 1377              		.loc 1 384 0
 1378 00b0 4E20     		movs	r0, #78
 1379 00b2 FFF7FEFF 		bl	ReadControlRegisterIMU
 1380 00b6 0346     		mov	r3, r0
 1381 00b8 BB72     		strb	r3, [r7, #10]
 385:..\src/IMU_functions.c ****     SPI_delay();
 1382              		.loc 1 385 0
 1383 00ba FFF7FEFF 		bl	SPI_delay
 386:..\src/IMU_functions.c **** 		
 387:..\src/IMU_functions.c **** 	Mag[row][4] = high; 
 1384              		.loc 1 387 0
 1385 00be 0E49     		ldr	r1, .L45
 1386 00c0 FA68     		ldr	r2, [r7, #12]
 1387 00c2 1346     		mov	r3, r2
 1388 00c4 5B00     		lsls	r3, r3, #1
 1389 00c6 1344     		add	r3, r3, r2
 1390 00c8 5B00     		lsls	r3, r3, #1
 1391 00ca 0B44     		add	r3, r3, r1
 1392 00cc 0433     		adds	r3, r3, #4
 1393 00ce BA7A     		ldrb	r2, [r7, #10]
 1394 00d0 1A70     		strb	r2, [r3]
 388:..\src/IMU_functions.c **** 	Mag[row][5] = low;
 1395              		.loc 1 388 0
 1396 00d2 0949     		ldr	r1, .L45
 1397 00d4 FA68     		ldr	r2, [r7, #12]
 1398 00d6 1346     		mov	r3, r2
 1399 00d8 5B00     		lsls	r3, r3, #1
 1400 00da 1344     		add	r3, r3, r2
 1401 00dc 5B00     		lsls	r3, r3, #1
 1402 00de 0B44     		add	r3, r3, r1
 1403 00e0 0533     		adds	r3, r3, #5
 1404 00e2 FA7A     		ldrb	r2, [r7, #11]
 1405 00e4 1A70     		strb	r2, [r3]
 389:..\src/IMU_functions.c **** 	low=0, high=0;
 1406              		.loc 1 389 0
 1407 00e6 0023     		movs	r3, #0
 1408 00e8 FB72     		strb	r3, [r7, #11]
 1409 00ea 0023     		movs	r3, #0
 1410 00ec BB72     		strb	r3, [r7, #10]
 390:..\src/IMU_functions.c **** }
 1411              		.loc 1 390 0
 1412 00ee 00BF     		nop
 1413 00f0 1037     		adds	r7, r7, #16
 1414              		.cfi_def_cfa_offset 8
 1415 00f2 BD46     		mov	sp, r7
 1416              		.cfi_def_cfa_register 13
 1417              		@ sp needed
 1418 00f4 80BD     		pop	{r7, pc}
ARM GAS  C:\Users\Mattia\AppData\Local\Temp\ccYnk7Oc.s 			page 33


 1419              	.L46:
 1420 00f6 00BF     		.align	2
 1421              	.L45:
 1422 00f8 00000000 		.word	Mag
 1423              		.cfi_endproc
 1424              	.LFE72:
 1425              		.size	ReadMag, .-ReadMag
 1426              		.section	.text.ReadMagCal,"ax",%progbits
 1427              		.align	2
 1428              		.global	ReadMagCal
 1429              		.thumb
 1430              		.thumb_func
 1431              		.type	ReadMagCal, %function
 1432              	ReadMagCal:
 1433              	.LFB73:
 391:..\src/IMU_functions.c **** 
 392:..\src/IMU_functions.c **** /********************************************************************************
 393:..\src/IMU_functions.c **** * Function Name: ReadMagCal
 394:..\src/IMU_functions.c **** *********************************************************************************/
 395:..\src/IMU_functions.c **** void ReadMagCal(int n){
 1434              		.loc 1 395 0
 1435              		.cfi_startproc
 1436              		@ args = 0, pretend = 0, frame = 16
 1437              		@ frame_needed = 1, uses_anonymous_args = 0
 1438 0000 80B5     		push	{r7, lr}
 1439              		.cfi_def_cfa_offset 8
 1440              		.cfi_offset 7, -8
 1441              		.cfi_offset 14, -4
 1442 0002 84B0     		sub	sp, sp, #16
 1443              		.cfi_def_cfa_offset 24
 1444 0004 00AF     		add	r7, sp, #0
 1445              		.cfi_def_cfa_register 7
 1446 0006 7860     		str	r0, [r7, #4]
 396:..\src/IMU_functions.c **** 	
 397:..\src/IMU_functions.c ****     uint8 read = 0; 
 1447              		.loc 1 397 0
 1448 0008 0023     		movs	r3, #0
 1449 000a FB73     		strb	r3, [r7, #15]
 398:..\src/IMU_functions.c **** 	int row = n;	
 1450              		.loc 1 398 0
 1451 000c 7B68     		ldr	r3, [r7, #4]
 1452 000e BB60     		str	r3, [r7, #8]
 399:..\src/IMU_functions.c **** 	//read X
 400:..\src/IMU_functions.c **** 	read = ReadControlRegisterIMU(MPU9250_EXT_SENS_DATA_00);
 1453              		.loc 1 400 0
 1454 0010 4920     		movs	r0, #73
 1455 0012 FFF7FEFF 		bl	ReadControlRegisterIMU
 1456 0016 0346     		mov	r3, r0
 1457 0018 FB73     		strb	r3, [r7, #15]
 401:..\src/IMU_functions.c ****     MagCal[row][0] = read; 
 1458              		.loc 1 401 0
 1459 001a 1749     		ldr	r1, .L48
 1460 001c BA68     		ldr	r2, [r7, #8]
 1461 001e 1346     		mov	r3, r2
 1462 0020 5B00     		lsls	r3, r3, #1
 1463 0022 1344     		add	r3, r3, r2
 1464 0024 0B44     		add	r3, r3, r1
ARM GAS  C:\Users\Mattia\AppData\Local\Temp\ccYnk7Oc.s 			page 34


 1465 0026 FA7B     		ldrb	r2, [r7, #15]
 1466 0028 1A70     		strb	r2, [r3]
 402:..\src/IMU_functions.c ****     read = 0;
 1467              		.loc 1 402 0
 1468 002a 0023     		movs	r3, #0
 1469 002c FB73     		strb	r3, [r7, #15]
 403:..\src/IMU_functions.c ****     
 404:..\src/IMU_functions.c **** 	//read Y
 405:..\src/IMU_functions.c **** 	read = ReadControlRegisterIMU(MPU9250_EXT_SENS_DATA_01);			
 1470              		.loc 1 405 0
 1471 002e 4A20     		movs	r0, #74
 1472 0030 FFF7FEFF 		bl	ReadControlRegisterIMU
 1473 0034 0346     		mov	r3, r0
 1474 0036 FB73     		strb	r3, [r7, #15]
 406:..\src/IMU_functions.c **** 	MagCal[row][1] = read; 
 1475              		.loc 1 406 0
 1476 0038 0F49     		ldr	r1, .L48
 1477 003a BA68     		ldr	r2, [r7, #8]
 1478 003c 1346     		mov	r3, r2
 1479 003e 5B00     		lsls	r3, r3, #1
 1480 0040 1344     		add	r3, r3, r2
 1481 0042 0B44     		add	r3, r3, r1
 1482 0044 0133     		adds	r3, r3, #1
 1483 0046 FA7B     		ldrb	r2, [r7, #15]
 1484 0048 1A70     		strb	r2, [r3]
 407:..\src/IMU_functions.c **** 	read = 0;
 1485              		.loc 1 407 0
 1486 004a 0023     		movs	r3, #0
 1487 004c FB73     		strb	r3, [r7, #15]
 408:..\src/IMU_functions.c ****     
 409:..\src/IMU_functions.c **** 	//read Z
 410:..\src/IMU_functions.c **** 	read = ReadControlRegisterIMU(MPU9250_EXT_SENS_DATA_02);			
 1488              		.loc 1 410 0
 1489 004e 4B20     		movs	r0, #75
 1490 0050 FFF7FEFF 		bl	ReadControlRegisterIMU
 1491 0054 0346     		mov	r3, r0
 1492 0056 FB73     		strb	r3, [r7, #15]
 411:..\src/IMU_functions.c **** 	MagCal[row][2] = read; 
 1493              		.loc 1 411 0
 1494 0058 0749     		ldr	r1, .L48
 1495 005a BA68     		ldr	r2, [r7, #8]
 1496 005c 1346     		mov	r3, r2
 1497 005e 5B00     		lsls	r3, r3, #1
 1498 0060 1344     		add	r3, r3, r2
 1499 0062 0B44     		add	r3, r3, r1
 1500 0064 0233     		adds	r3, r3, #2
 1501 0066 FA7B     		ldrb	r2, [r7, #15]
 1502 0068 1A70     		strb	r2, [r3]
 412:..\src/IMU_functions.c **** 	read = 0;
 1503              		.loc 1 412 0
 1504 006a 0023     		movs	r3, #0
 1505 006c FB73     		strb	r3, [r7, #15]
 413:..\src/IMU_functions.c ****     
 414:..\src/IMU_functions.c **** }
 1506              		.loc 1 414 0
 1507 006e 00BF     		nop
 1508 0070 1037     		adds	r7, r7, #16
ARM GAS  C:\Users\Mattia\AppData\Local\Temp\ccYnk7Oc.s 			page 35


 1509              		.cfi_def_cfa_offset 8
 1510 0072 BD46     		mov	sp, r7
 1511              		.cfi_def_cfa_register 13
 1512              		@ sp needed
 1513 0074 80BD     		pop	{r7, pc}
 1514              	.L49:
 1515 0076 00BF     		.align	2
 1516              	.L48:
 1517 0078 00000000 		.word	MagCal
 1518              		.cfi_endproc
 1519              	.LFE73:
 1520              		.size	ReadMagCal, .-ReadMagCal
 1521              		.global	__aeabi_i2d
 1522              		.global	__aeabi_dmul
 1523              		.global	__aeabi_d2f
 1524              		.global	__aeabi_f2d
 1525              		.global	__aeabi_dcmplt
 1526              		.global	__aeabi_fmul
 1527              		.global	__aeabi_fsub
 1528              		.global	__aeabi_fadd
 1529              		.global	__aeabi_dsub
 1530              		.global	__aeabi_dadd
 1531              		.global	__aeabi_dcmpeq
 1532              		.section	.text.ReadQuat,"ax",%progbits
 1533              		.align	2
 1534              		.global	ReadQuat
 1535              		.thumb
 1536              		.thumb_func
 1537              		.type	ReadQuat, %function
 1538              	ReadQuat:
 1539              	.LFB74:
 415:..\src/IMU_functions.c ****     
 416:..\src/IMU_functions.c **** /*******************************************************************************
 417:..\src/IMU_functions.c **** * Function Name: Read Quaternion of IMU n
 418:..\src/IMU_functions.c **** *********************************************************************************/
 419:..\src/IMU_functions.c **** void ReadQuat(int n)
 420:..\src/IMU_functions.c **** {
 1540              		.loc 1 420 0
 1541              		.cfi_startproc
 1542              		@ args = 0, pretend = 0, frame = 88
 1543              		@ frame_needed = 1, uses_anonymous_args = 0
 1544 0000 2DE9F04F 		push	{r4, r5, r6, r7, r8, r9, r10, fp, lr}
 1545              		.cfi_def_cfa_offset 36
 1546              		.cfi_offset 4, -36
 1547              		.cfi_offset 5, -32
 1548              		.cfi_offset 6, -28
 1549              		.cfi_offset 7, -24
 1550              		.cfi_offset 8, -20
 1551              		.cfi_offset 9, -16
 1552              		.cfi_offset 10, -12
 1553              		.cfi_offset 11, -8
 1554              		.cfi_offset 14, -4
 1555 0004 97B0     		sub	sp, sp, #92
 1556              		.cfi_def_cfa_offset 128
 1557 0006 00AF     		add	r7, sp, #0
 1558              		.cfi_def_cfa_register 7
 1559 0008 7860     		str	r0, [r7, #4]
ARM GAS  C:\Users\Mattia\AppData\Local\Temp\ccYnk7Oc.s 			page 36


 421:..\src/IMU_functions.c ****     int16 var_h;
 422:..\src/IMU_functions.c ****     float qd0,qd1,qd2,qd3;        
 423:..\src/IMU_functions.c ****     float aP[3]; //, fa[3];
 424:..\src/IMU_functions.c ****     float Napla[4],g[4],qL[4];
 425:..\src/IMU_functions.c **** 
 426:..\src/IMU_functions.c ****     if (!c_mem.imu.IMU_conf[n][0]) ReadAcc(n);
 1560              		.loc 1 426 0
 1561 000a C349     		ldr	r1, .L65+24
 1562 000c 7A68     		ldr	r2, [r7, #4]
 1563 000e 1346     		mov	r3, r2
 1564 0010 9B00     		lsls	r3, r3, #2
 1565 0012 1344     		add	r3, r3, r2
 1566 0014 0B44     		add	r3, r3, r1
 1567 0016 03F20223 		addw	r3, r3, #514
 1568 001a 1B78     		ldrb	r3, [r3]	@ zero_extendqisi2
 1569 001c 002B     		cmp	r3, #0
 1570 001e 02D1     		bne	.L51
 1571              		.loc 1 426 0 is_stmt 0 discriminator 1
 1572 0020 7868     		ldr	r0, [r7, #4]
 1573 0022 FFF7FEFF 		bl	ReadAcc
 1574              	.L51:
 427:..\src/IMU_functions.c ****     if (!c_mem.imu.IMU_conf[n][1]) ReadGyro(n);
 1575              		.loc 1 427 0 is_stmt 1
 1576 0026 BC49     		ldr	r1, .L65+24
 1577 0028 7A68     		ldr	r2, [r7, #4]
 1578 002a 1346     		mov	r3, r2
 1579 002c 9B00     		lsls	r3, r3, #2
 1580 002e 1344     		add	r3, r3, r2
 1581 0030 0B44     		add	r3, r3, r1
 1582 0032 03F20323 		addw	r3, r3, #515
 1583 0036 1B78     		ldrb	r3, [r3]	@ zero_extendqisi2
 1584 0038 002B     		cmp	r3, #0
 1585 003a 02D1     		bne	.L52
 1586              		.loc 1 427 0 is_stmt 0 discriminator 1
 1587 003c 7868     		ldr	r0, [r7, #4]
 1588 003e FFF7FEFF 		bl	ReadGyro
 1589              	.L52:
 428:..\src/IMU_functions.c ****     
 429:..\src/IMU_functions.c ****     // assume cycle time is the same of last function_scheduler execution,
 430:..\src/IMU_functions.c ****     // without adding another counter
 431:..\src/IMU_functions.c ****     
 432:..\src/IMU_functions.c ****     // how N sees P; N is 'Earth' equivalent, P is for sensor
 433:..\src/IMU_functions.c ****     // e.g. N = imu1, P = imu0, how imu1 sees imu0
 434:..\src/IMU_functions.c **** 
 435:..\src/IMU_functions.c ****     var_h = Accel[n][0];
 1590              		.loc 1 435 0 is_stmt 1
 1591 0042 B649     		ldr	r1, .L65+28
 1592 0044 7A68     		ldr	r2, [r7, #4]
 1593 0046 1346     		mov	r3, r2
 1594 0048 5B00     		lsls	r3, r3, #1
 1595 004a 1344     		add	r3, r3, r2
 1596 004c 5B00     		lsls	r3, r3, #1
 1597 004e 0B44     		add	r3, r3, r1
 1598 0050 1B78     		ldrb	r3, [r3]	@ zero_extendqisi2
 1599 0052 A7F85630 		strh	r3, [r7, #86]	@ movhi
 436:..\src/IMU_functions.c ****     aP[0] = (int16_t)(var_h << 8 | Accel[n][1])*TICK2ACC; 
 1600              		.loc 1 436 0
ARM GAS  C:\Users\Mattia\AppData\Local\Temp\ccYnk7Oc.s 			page 37


 1601 0056 B7F95630 		ldrsh	r3, [r7, #86]
 1602 005a 1B02     		lsls	r3, r3, #8
 1603 005c 19B2     		sxth	r1, r3
 1604 005e AF48     		ldr	r0, .L65+28
 1605 0060 7A68     		ldr	r2, [r7, #4]
 1606 0062 1346     		mov	r3, r2
 1607 0064 5B00     		lsls	r3, r3, #1
 1608 0066 1344     		add	r3, r3, r2
 1609 0068 5B00     		lsls	r3, r3, #1
 1610 006a 0344     		add	r3, r3, r0
 1611 006c 0133     		adds	r3, r3, #1
 1612 006e 1B78     		ldrb	r3, [r3]	@ zero_extendqisi2
 1613 0070 1BB2     		sxth	r3, r3
 1614 0072 0B43     		orrs	r3, r3, r1
 1615 0074 1BB2     		sxth	r3, r3
 1616 0076 1846     		mov	r0, r3
 1617 0078 FFF7FEFF 		bl	__aeabi_i2d
 1618 007c A0A3     		adr	r3, .L65
 1619 007e D3E90023 		ldrd	r2, [r3]
 1620 0082 FFF7FEFF 		bl	__aeabi_dmul
 1621 0086 0346     		mov	r3, r0
 1622 0088 0C46     		mov	r4, r1
 1623 008a 1846     		mov	r0, r3
 1624 008c 2146     		mov	r1, r4
 1625 008e FFF7FEFF 		bl	__aeabi_d2f
 1626 0092 0346     		mov	r3, r0
 1627 0094 BB63     		str	r3, [r7, #56]	@ float
 437:..\src/IMU_functions.c ****     var_h = Accel[n][2];
 1628              		.loc 1 437 0
 1629 0096 A149     		ldr	r1, .L65+28
 1630 0098 7A68     		ldr	r2, [r7, #4]
 1631 009a 1346     		mov	r3, r2
 1632 009c 5B00     		lsls	r3, r3, #1
 1633 009e 1344     		add	r3, r3, r2
 1634 00a0 5B00     		lsls	r3, r3, #1
 1635 00a2 0B44     		add	r3, r3, r1
 1636 00a4 0233     		adds	r3, r3, #2
 1637 00a6 1B78     		ldrb	r3, [r3]	@ zero_extendqisi2
 1638 00a8 A7F85630 		strh	r3, [r7, #86]	@ movhi
 438:..\src/IMU_functions.c ****     aP[1] = (int16_t)(var_h << 8 | Accel[n][3])*TICK2ACC; 
 1639              		.loc 1 438 0
 1640 00ac B7F95630 		ldrsh	r3, [r7, #86]
 1641 00b0 1B02     		lsls	r3, r3, #8
 1642 00b2 19B2     		sxth	r1, r3
 1643 00b4 9948     		ldr	r0, .L65+28
 1644 00b6 7A68     		ldr	r2, [r7, #4]
 1645 00b8 1346     		mov	r3, r2
 1646 00ba 5B00     		lsls	r3, r3, #1
 1647 00bc 1344     		add	r3, r3, r2
 1648 00be 5B00     		lsls	r3, r3, #1
 1649 00c0 0344     		add	r3, r3, r0
 1650 00c2 0333     		adds	r3, r3, #3
 1651 00c4 1B78     		ldrb	r3, [r3]	@ zero_extendqisi2
 1652 00c6 1BB2     		sxth	r3, r3
 1653 00c8 0B43     		orrs	r3, r3, r1
 1654 00ca 1BB2     		sxth	r3, r3
 1655 00cc 1846     		mov	r0, r3
ARM GAS  C:\Users\Mattia\AppData\Local\Temp\ccYnk7Oc.s 			page 38


 1656 00ce FFF7FEFF 		bl	__aeabi_i2d
 1657 00d2 8BA3     		adr	r3, .L65
 1658 00d4 D3E90023 		ldrd	r2, [r3]
 1659 00d8 FFF7FEFF 		bl	__aeabi_dmul
 1660 00dc 0346     		mov	r3, r0
 1661 00de 0C46     		mov	r4, r1
 1662 00e0 1846     		mov	r0, r3
 1663 00e2 2146     		mov	r1, r4
 1664 00e4 FFF7FEFF 		bl	__aeabi_d2f
 1665 00e8 0346     		mov	r3, r0
 1666 00ea FB63     		str	r3, [r7, #60]	@ float
 439:..\src/IMU_functions.c ****     var_h = Accel[n][4];
 1667              		.loc 1 439 0
 1668 00ec 8B49     		ldr	r1, .L65+28
 1669 00ee 7A68     		ldr	r2, [r7, #4]
 1670 00f0 1346     		mov	r3, r2
 1671 00f2 5B00     		lsls	r3, r3, #1
 1672 00f4 1344     		add	r3, r3, r2
 1673 00f6 5B00     		lsls	r3, r3, #1
 1674 00f8 0B44     		add	r3, r3, r1
 1675 00fa 0433     		adds	r3, r3, #4
 1676 00fc 1B78     		ldrb	r3, [r3]	@ zero_extendqisi2
 1677 00fe A7F85630 		strh	r3, [r7, #86]	@ movhi
 440:..\src/IMU_functions.c ****     aP[2] = (int16_t)(var_h << 8 | Accel[n][5])*TICK2ACC;
 1678              		.loc 1 440 0
 1679 0102 B7F95630 		ldrsh	r3, [r7, #86]
 1680 0106 1B02     		lsls	r3, r3, #8
 1681 0108 19B2     		sxth	r1, r3
 1682 010a 8448     		ldr	r0, .L65+28
 1683 010c 7A68     		ldr	r2, [r7, #4]
 1684 010e 1346     		mov	r3, r2
 1685 0110 5B00     		lsls	r3, r3, #1
 1686 0112 1344     		add	r3, r3, r2
 1687 0114 5B00     		lsls	r3, r3, #1
 1688 0116 0344     		add	r3, r3, r0
 1689 0118 0533     		adds	r3, r3, #5
 1690 011a 1B78     		ldrb	r3, [r3]	@ zero_extendqisi2
 1691 011c 1BB2     		sxth	r3, r3
 1692 011e 0B43     		orrs	r3, r3, r1
 1693 0120 1BB2     		sxth	r3, r3
 1694 0122 1846     		mov	r0, r3
 1695 0124 FFF7FEFF 		bl	__aeabi_i2d
 1696 0128 75A3     		adr	r3, .L65
 1697 012a D3E90023 		ldrd	r2, [r3]
 1698 012e FFF7FEFF 		bl	__aeabi_dmul
 1699 0132 0346     		mov	r3, r0
 1700 0134 0C46     		mov	r4, r1
 1701 0136 1846     		mov	r0, r3
 1702 0138 2146     		mov	r1, r4
 1703 013a FFF7FEFF 		bl	__aeabi_d2f
 1704 013e 0346     		mov	r3, r0
 1705 0140 3B64     		str	r3, [r7, #64]	@ float
 441:..\src/IMU_functions.c ****     
 442:..\src/IMU_functions.c ****     g[0] = 0;
 1706              		.loc 1 442 0
 1707 0142 4FF00003 		mov	r3, #0
 1708 0146 BB61     		str	r3, [r7, #24]	@ float
ARM GAS  C:\Users\Mattia\AppData\Local\Temp\ccYnk7Oc.s 			page 39


 443:..\src/IMU_functions.c ****     var_h = Gyro[n][0];
 1709              		.loc 1 443 0
 1710 0148 7549     		ldr	r1, .L65+32
 1711 014a 7A68     		ldr	r2, [r7, #4]
 1712 014c 1346     		mov	r3, r2
 1713 014e 5B00     		lsls	r3, r3, #1
 1714 0150 1344     		add	r3, r3, r2
 1715 0152 5B00     		lsls	r3, r3, #1
 1716 0154 0B44     		add	r3, r3, r1
 1717 0156 1B78     		ldrb	r3, [r3]	@ zero_extendqisi2
 1718 0158 A7F85630 		strh	r3, [r7, #86]	@ movhi
 444:..\src/IMU_functions.c ****     g[1] = ((int16)(var_h << 8 | Gyro[n][1]))*TICK2GYRO;
 1719              		.loc 1 444 0
 1720 015c B7F95630 		ldrsh	r3, [r7, #86]
 1721 0160 1B02     		lsls	r3, r3, #8
 1722 0162 19B2     		sxth	r1, r3
 1723 0164 6E48     		ldr	r0, .L65+32
 1724 0166 7A68     		ldr	r2, [r7, #4]
 1725 0168 1346     		mov	r3, r2
 1726 016a 5B00     		lsls	r3, r3, #1
 1727 016c 1344     		add	r3, r3, r2
 1728 016e 5B00     		lsls	r3, r3, #1
 1729 0170 0344     		add	r3, r3, r0
 1730 0172 0133     		adds	r3, r3, #1
 1731 0174 1B78     		ldrb	r3, [r3]	@ zero_extendqisi2
 1732 0176 1BB2     		sxth	r3, r3
 1733 0178 0B43     		orrs	r3, r3, r1
 1734 017a 1BB2     		sxth	r3, r3
 1735 017c 1846     		mov	r0, r3
 1736 017e FFF7FEFF 		bl	__aeabi_i2d
 1737 0182 61A3     		adr	r3, .L65+8
 1738 0184 D3E90023 		ldrd	r2, [r3]
 1739 0188 FFF7FEFF 		bl	__aeabi_dmul
 1740 018c 0346     		mov	r3, r0
 1741 018e 0C46     		mov	r4, r1
 1742 0190 1846     		mov	r0, r3
 1743 0192 2146     		mov	r1, r4
 1744 0194 FFF7FEFF 		bl	__aeabi_d2f
 1745 0198 0346     		mov	r3, r0
 1746 019a FB61     		str	r3, [r7, #28]	@ float
 445:..\src/IMU_functions.c ****     if ( fabs(g[1]) < GYRO_THR ) g[1] = 0;
 1747              		.loc 1 445 0
 1748 019c FB69     		ldr	r3, [r7, #28]	@ float
 1749 019e 23F00043 		bic	r3, r3, #-2147483648
 1750 01a2 1846     		mov	r0, r3
 1751 01a4 FFF7FEFF 		bl	__aeabi_f2d
 1752 01a8 59A3     		adr	r3, .L65+16
 1753 01aa D3E90023 		ldrd	r2, [r3]
 1754 01ae FFF7FEFF 		bl	__aeabi_dcmplt
 1755 01b2 0346     		mov	r3, r0
 1756 01b4 002B     		cmp	r3, #0
 1757 01b6 02D0     		beq	.L53
 1758              		.loc 1 445 0 is_stmt 0 discriminator 1
 1759 01b8 4FF00003 		mov	r3, #0
 1760 01bc FB61     		str	r3, [r7, #28]	@ float
 1761              	.L53:
 446:..\src/IMU_functions.c ****     var_h = Gyro[n][2];
ARM GAS  C:\Users\Mattia\AppData\Local\Temp\ccYnk7Oc.s 			page 40


 1762              		.loc 1 446 0 is_stmt 1
 1763 01be 5849     		ldr	r1, .L65+32
 1764 01c0 7A68     		ldr	r2, [r7, #4]
 1765 01c2 1346     		mov	r3, r2
 1766 01c4 5B00     		lsls	r3, r3, #1
 1767 01c6 1344     		add	r3, r3, r2
 1768 01c8 5B00     		lsls	r3, r3, #1
 1769 01ca 0B44     		add	r3, r3, r1
 1770 01cc 0233     		adds	r3, r3, #2
 1771 01ce 1B78     		ldrb	r3, [r3]	@ zero_extendqisi2
 1772 01d0 A7F85630 		strh	r3, [r7, #86]	@ movhi
 447:..\src/IMU_functions.c ****     g[2] = ((int16)(var_h << 8 | Gyro[n][3]))*TICK2GYRO; 
 1773              		.loc 1 447 0
 1774 01d4 B7F95630 		ldrsh	r3, [r7, #86]
 1775 01d8 1B02     		lsls	r3, r3, #8
 1776 01da 19B2     		sxth	r1, r3
 1777 01dc 5048     		ldr	r0, .L65+32
 1778 01de 7A68     		ldr	r2, [r7, #4]
 1779 01e0 1346     		mov	r3, r2
 1780 01e2 5B00     		lsls	r3, r3, #1
 1781 01e4 1344     		add	r3, r3, r2
 1782 01e6 5B00     		lsls	r3, r3, #1
 1783 01e8 0344     		add	r3, r3, r0
 1784 01ea 0333     		adds	r3, r3, #3
 1785 01ec 1B78     		ldrb	r3, [r3]	@ zero_extendqisi2
 1786 01ee 1BB2     		sxth	r3, r3
 1787 01f0 0B43     		orrs	r3, r3, r1
 1788 01f2 1BB2     		sxth	r3, r3
 1789 01f4 1846     		mov	r0, r3
 1790 01f6 FFF7FEFF 		bl	__aeabi_i2d
 1791 01fa 43A3     		adr	r3, .L65+8
 1792 01fc D3E90023 		ldrd	r2, [r3]
 1793 0200 FFF7FEFF 		bl	__aeabi_dmul
 1794 0204 0346     		mov	r3, r0
 1795 0206 0C46     		mov	r4, r1
 1796 0208 1846     		mov	r0, r3
 1797 020a 2146     		mov	r1, r4
 1798 020c FFF7FEFF 		bl	__aeabi_d2f
 1799 0210 0346     		mov	r3, r0
 1800 0212 3B62     		str	r3, [r7, #32]	@ float
 448:..\src/IMU_functions.c ****     if ( fabs(g[2]) < GYRO_THR ) g[2] = 0;
 1801              		.loc 1 448 0
 1802 0214 3B6A     		ldr	r3, [r7, #32]	@ float
 1803 0216 23F00043 		bic	r3, r3, #-2147483648
 1804 021a 1846     		mov	r0, r3
 1805 021c FFF7FEFF 		bl	__aeabi_f2d
 1806 0220 3BA3     		adr	r3, .L65+16
 1807 0222 D3E90023 		ldrd	r2, [r3]
 1808 0226 FFF7FEFF 		bl	__aeabi_dcmplt
 1809 022a 0346     		mov	r3, r0
 1810 022c 002B     		cmp	r3, #0
 1811 022e 02D0     		beq	.L55
 1812              		.loc 1 448 0 is_stmt 0 discriminator 1
 1813 0230 4FF00003 		mov	r3, #0
 1814 0234 3B62     		str	r3, [r7, #32]	@ float
 1815              	.L55:
 449:..\src/IMU_functions.c ****     var_h = Gyro[n][4];
ARM GAS  C:\Users\Mattia\AppData\Local\Temp\ccYnk7Oc.s 			page 41


 1816              		.loc 1 449 0 is_stmt 1
 1817 0236 3A49     		ldr	r1, .L65+32
 1818 0238 7A68     		ldr	r2, [r7, #4]
 1819 023a 1346     		mov	r3, r2
 1820 023c 5B00     		lsls	r3, r3, #1
 1821 023e 1344     		add	r3, r3, r2
 1822 0240 5B00     		lsls	r3, r3, #1
 1823 0242 0B44     		add	r3, r3, r1
 1824 0244 0433     		adds	r3, r3, #4
 1825 0246 1B78     		ldrb	r3, [r3]	@ zero_extendqisi2
 1826 0248 A7F85630 		strh	r3, [r7, #86]	@ movhi
 450:..\src/IMU_functions.c ****     g[3] = ((int16)(var_h << 8 | Gyro[n][5]))*TICK2GYRO;
 1827              		.loc 1 450 0
 1828 024c B7F95630 		ldrsh	r3, [r7, #86]
 1829 0250 1B02     		lsls	r3, r3, #8
 1830 0252 19B2     		sxth	r1, r3
 1831 0254 3248     		ldr	r0, .L65+32
 1832 0256 7A68     		ldr	r2, [r7, #4]
 1833 0258 1346     		mov	r3, r2
 1834 025a 5B00     		lsls	r3, r3, #1
 1835 025c 1344     		add	r3, r3, r2
 1836 025e 5B00     		lsls	r3, r3, #1
 1837 0260 0344     		add	r3, r3, r0
 1838 0262 0533     		adds	r3, r3, #5
 1839 0264 1B78     		ldrb	r3, [r3]	@ zero_extendqisi2
 1840 0266 1BB2     		sxth	r3, r3
 1841 0268 0B43     		orrs	r3, r3, r1
 1842 026a 1BB2     		sxth	r3, r3
 1843 026c 1846     		mov	r0, r3
 1844 026e FFF7FEFF 		bl	__aeabi_i2d
 1845 0272 25A3     		adr	r3, .L65+8
 1846 0274 D3E90023 		ldrd	r2, [r3]
 1847 0278 FFF7FEFF 		bl	__aeabi_dmul
 1848 027c 0346     		mov	r3, r0
 1849 027e 0C46     		mov	r4, r1
 1850 0280 1846     		mov	r0, r3
 1851 0282 2146     		mov	r1, r4
 1852 0284 FFF7FEFF 		bl	__aeabi_d2f
 1853 0288 0346     		mov	r3, r0
 1854 028a 7B62     		str	r3, [r7, #36]	@ float
 451:..\src/IMU_functions.c ****     if ( fabs(g[3]) < GYRO_THR ) g[3] = 0;
 1855              		.loc 1 451 0
 1856 028c 7B6A     		ldr	r3, [r7, #36]	@ float
 1857 028e 23F00043 		bic	r3, r3, #-2147483648
 1858 0292 1846     		mov	r0, r3
 1859 0294 FFF7FEFF 		bl	__aeabi_f2d
 1860 0298 1DA3     		adr	r3, .L65+16
 1861 029a D3E90023 		ldrd	r2, [r3]
 1862 029e FFF7FEFF 		bl	__aeabi_dcmplt
 1863 02a2 0346     		mov	r3, r0
 1864 02a4 002B     		cmp	r3, #0
 1865 02a6 02D0     		beq	.L57
 1866              		.loc 1 451 0 is_stmt 0 discriminator 1
 1867 02a8 4FF00003 		mov	r3, #0
 1868 02ac 7B62     		str	r3, [r7, #36]	@ float
 1869              	.L57:
 452:..\src/IMU_functions.c ****     
ARM GAS  C:\Users\Mattia\AppData\Local\Temp\ccYnk7Oc.s 			page 42


 453:..\src/IMU_functions.c ****     // Normalize to 1
 454:..\src/IMU_functions.c ****     v3_normalize(aP);
 1870              		.loc 1 454 0 is_stmt 1
 1871 02ae 07F13803 		add	r3, r7, #56
 1872 02b2 1846     		mov	r0, r3
 1873 02b4 FFF7FEFF 		bl	v3_normalize
 455:..\src/IMU_functions.c ****     
 456:..\src/IMU_functions.c ****     // Current quaternion assignment
 457:..\src/IMU_functions.c ****     qL[0] = Quat[n][0];
 1874              		.loc 1 457 0
 1875 02b8 1A4A     		ldr	r2, .L65+36
 1876 02ba 7B68     		ldr	r3, [r7, #4]
 1877 02bc 1B01     		lsls	r3, r3, #4
 1878 02be 1344     		add	r3, r3, r2
 1879 02c0 1B68     		ldr	r3, [r3]	@ float
 1880 02c2 BB60     		str	r3, [r7, #8]	@ float
 458:..\src/IMU_functions.c ****     qL[1] = Quat[n][1];
 1881              		.loc 1 458 0
 1882 02c4 174A     		ldr	r2, .L65+36
 1883 02c6 7B68     		ldr	r3, [r7, #4]
 1884 02c8 1B01     		lsls	r3, r3, #4
 1885 02ca 1344     		add	r3, r3, r2
 1886 02cc 0433     		adds	r3, r3, #4
 1887 02ce 1B68     		ldr	r3, [r3]	@ float
 1888 02d0 FB60     		str	r3, [r7, #12]	@ float
 459:..\src/IMU_functions.c ****     qL[2] = Quat[n][2];
 1889              		.loc 1 459 0
 1890 02d2 144A     		ldr	r2, .L65+36
 1891 02d4 7B68     		ldr	r3, [r7, #4]
 1892 02d6 1B01     		lsls	r3, r3, #4
 1893 02d8 1344     		add	r3, r3, r2
 1894 02da 0833     		adds	r3, r3, #8
 1895 02dc 1B68     		ldr	r3, [r3]	@ float
 1896 02de 3B61     		str	r3, [r7, #16]	@ float
 460:..\src/IMU_functions.c ****     qL[3] = Quat[n][3];   
 1897              		.loc 1 460 0
 1898 02e0 104A     		ldr	r2, .L65+36
 1899 02e2 7B68     		ldr	r3, [r7, #4]
 1900 02e4 1B01     		lsls	r3, r3, #4
 1901 02e6 1344     		add	r3, r3, r2
 1902 02e8 0C33     		adds	r3, r3, #12
 1903 02ea 1B68     		ldr	r3, [r3]	@ float
 1904 02ec 7B61     		str	r3, [r7, #20]	@ float
 461:..\src/IMU_functions.c ****     
 462:..\src/IMU_functions.c ****     // Napla computation
 463:..\src/IMU_functions.c ****     Napla[0] = (-qL[2]*((2*(qL[1]*qL[3]-qL[0]*qL[2]) - aP[0])) + qL[1]*((2*(qL[0]*qL[1] + qL[2]*qL[
 1905              		.loc 1 463 0
 1906 02ee 3B69     		ldr	r3, [r7, #16]	@ float
 1907 02f0 83F00044 		eor	r4, r3, #-2147483648
 1908 02f4 FB68     		ldr	r3, [r7, #12]	@ float
 1909 02f6 7A69     		ldr	r2, [r7, #20]	@ float
 1910 02f8 1146     		mov	r1, r2
 1911 02fa 15E0     		b	.L66
 1912              	.L67:
 1913 02fc AFF30080 		.align	3
 1914              	.L65:
 1915 0300 08F4E5AC 		.word	-1394215928
ARM GAS  C:\Users\Mattia\AppData\Local\Temp\ccYnk7Oc.s 			page 43


 1916 0304 1F00103F 		.word	1058013215
 1917 0308 D1ACA982 		.word	-2102809391
 1918 030c 0A74213F 		.word	1059157002
 1919 0310 6FF085C9 		.word	-913969041
 1920 0314 54C1D03F 		.word	1070645588
 1921 0318 00000000 		.word	c_mem
 1922 031c 00000000 		.word	Accel
 1923 0320 00000000 		.word	Gyro
 1924 0324 00000000 		.word	Quat
 1925              	.L66:
 1926 0328 1846     		mov	r0, r3
 1927 032a FFF7FEFF 		bl	__aeabi_fmul
 1928 032e 0346     		mov	r3, r0
 1929 0330 1D46     		mov	r5, r3
 1930 0332 BB68     		ldr	r3, [r7, #8]	@ float
 1931 0334 3A69     		ldr	r2, [r7, #16]	@ float
 1932 0336 1146     		mov	r1, r2
 1933 0338 1846     		mov	r0, r3
 1934 033a FFF7FEFF 		bl	__aeabi_fmul
 1935 033e 0346     		mov	r3, r0
 1936 0340 1946     		mov	r1, r3
 1937 0342 2846     		mov	r0, r5
 1938 0344 FFF7FEFF 		bl	__aeabi_fsub
 1939 0348 0346     		mov	r3, r0
 1940 034a 1946     		mov	r1, r3
 1941 034c 1846     		mov	r0, r3
 1942 034e FFF7FEFF 		bl	__aeabi_fadd
 1943 0352 0346     		mov	r3, r0
 1944 0354 1A46     		mov	r2, r3
 1945 0356 BB6B     		ldr	r3, [r7, #56]	@ float
 1946 0358 1946     		mov	r1, r3
 1947 035a 1046     		mov	r0, r2
 1948 035c FFF7FEFF 		bl	__aeabi_fsub
 1949 0360 0346     		mov	r3, r0
 1950 0362 1946     		mov	r1, r3
 1951 0364 2046     		mov	r0, r4
 1952 0366 FFF7FEFF 		bl	__aeabi_fmul
 1953 036a 0346     		mov	r3, r0
 1954 036c 1D46     		mov	r5, r3
 1955 036e FC68     		ldr	r4, [r7, #12]	@ float
 1956 0370 BB68     		ldr	r3, [r7, #8]	@ float
 1957 0372 FA68     		ldr	r2, [r7, #12]	@ float
 1958 0374 1146     		mov	r1, r2
 1959 0376 1846     		mov	r0, r3
 1960 0378 FFF7FEFF 		bl	__aeabi_fmul
 1961 037c 0346     		mov	r3, r0
 1962 037e 1E46     		mov	r6, r3
 1963 0380 3B69     		ldr	r3, [r7, #16]	@ float
 1964 0382 7A69     		ldr	r2, [r7, #20]	@ float
 1965 0384 1146     		mov	r1, r2
 1966 0386 1846     		mov	r0, r3
 1967 0388 FFF7FEFF 		bl	__aeabi_fmul
 1968 038c 0346     		mov	r3, r0
 1969 038e 1946     		mov	r1, r3
 1970 0390 3046     		mov	r0, r6
 1971 0392 FFF7FEFF 		bl	__aeabi_fadd
 1972 0396 0346     		mov	r3, r0
ARM GAS  C:\Users\Mattia\AppData\Local\Temp\ccYnk7Oc.s 			page 44


 1973 0398 1946     		mov	r1, r3
 1974 039a 1846     		mov	r0, r3
 1975 039c FFF7FEFF 		bl	__aeabi_fadd
 1976 03a0 0346     		mov	r3, r0
 1977 03a2 1A46     		mov	r2, r3
 1978 03a4 FB6B     		ldr	r3, [r7, #60]	@ float
 1979 03a6 1946     		mov	r1, r3
 1980 03a8 1046     		mov	r0, r2
 1981 03aa FFF7FEFF 		bl	__aeabi_fsub
 1982 03ae 0346     		mov	r3, r0
 1983 03b0 1946     		mov	r1, r3
 1984 03b2 2046     		mov	r0, r4
 1985 03b4 FFF7FEFF 		bl	__aeabi_fmul
 1986 03b8 0346     		mov	r3, r0
 1987 03ba 1946     		mov	r1, r3
 1988 03bc 2846     		mov	r0, r5
 1989 03be FFF7FEFF 		bl	__aeabi_fadd
 1990 03c2 0346     		mov	r3, r0
 1991 03c4 AE49     		ldr	r1, .L68+8
 1992 03c6 1846     		mov	r0, r3
 1993 03c8 FFF7FEFF 		bl	__aeabi_fmul
 1994 03cc 0346     		mov	r3, r0
 1995 03ce BB62     		str	r3, [r7, #40]	@ float
 464:..\src/IMU_functions.c ****     Napla[1] = (qL[3]*((2*(qL[1]*qL[3]-qL[0]*qL[2]) - aP[0])) + qL[0]*((2*(qL[0]*qL[1] + qL[2]*qL[3
 1996              		.loc 1 464 0
 1997 03d0 7C69     		ldr	r4, [r7, #20]	@ float
 1998 03d2 FB68     		ldr	r3, [r7, #12]	@ float
 1999 03d4 7A69     		ldr	r2, [r7, #20]	@ float
 2000 03d6 1146     		mov	r1, r2
 2001 03d8 1846     		mov	r0, r3
 2002 03da FFF7FEFF 		bl	__aeabi_fmul
 2003 03de 0346     		mov	r3, r0
 2004 03e0 1D46     		mov	r5, r3
 2005 03e2 BB68     		ldr	r3, [r7, #8]	@ float
 2006 03e4 3A69     		ldr	r2, [r7, #16]	@ float
 2007 03e6 1146     		mov	r1, r2
 2008 03e8 1846     		mov	r0, r3
 2009 03ea FFF7FEFF 		bl	__aeabi_fmul
 2010 03ee 0346     		mov	r3, r0
 2011 03f0 1946     		mov	r1, r3
 2012 03f2 2846     		mov	r0, r5
 2013 03f4 FFF7FEFF 		bl	__aeabi_fsub
 2014 03f8 0346     		mov	r3, r0
 2015 03fa 1946     		mov	r1, r3
 2016 03fc 1846     		mov	r0, r3
 2017 03fe FFF7FEFF 		bl	__aeabi_fadd
 2018 0402 0346     		mov	r3, r0
 2019 0404 1A46     		mov	r2, r3
 2020 0406 BB6B     		ldr	r3, [r7, #56]	@ float
 2021 0408 1946     		mov	r1, r3
 2022 040a 1046     		mov	r0, r2
 2023 040c FFF7FEFF 		bl	__aeabi_fsub
 2024 0410 0346     		mov	r3, r0
 2025 0412 1946     		mov	r1, r3
 2026 0414 2046     		mov	r0, r4
 2027 0416 FFF7FEFF 		bl	__aeabi_fmul
 2028 041a 0346     		mov	r3, r0
ARM GAS  C:\Users\Mattia\AppData\Local\Temp\ccYnk7Oc.s 			page 45


 2029 041c 1D46     		mov	r5, r3
 2030 041e BC68     		ldr	r4, [r7, #8]	@ float
 2031 0420 BB68     		ldr	r3, [r7, #8]	@ float
 2032 0422 FA68     		ldr	r2, [r7, #12]	@ float
 2033 0424 1146     		mov	r1, r2
 2034 0426 1846     		mov	r0, r3
 2035 0428 FFF7FEFF 		bl	__aeabi_fmul
 2036 042c 0346     		mov	r3, r0
 2037 042e 1E46     		mov	r6, r3
 2038 0430 3B69     		ldr	r3, [r7, #16]	@ float
 2039 0432 7A69     		ldr	r2, [r7, #20]	@ float
 2040 0434 1146     		mov	r1, r2
 2041 0436 1846     		mov	r0, r3
 2042 0438 FFF7FEFF 		bl	__aeabi_fmul
 2043 043c 0346     		mov	r3, r0
 2044 043e 1946     		mov	r1, r3
 2045 0440 3046     		mov	r0, r6
 2046 0442 FFF7FEFF 		bl	__aeabi_fadd
 2047 0446 0346     		mov	r3, r0
 2048 0448 1946     		mov	r1, r3
 2049 044a 1846     		mov	r0, r3
 2050 044c FFF7FEFF 		bl	__aeabi_fadd
 2051 0450 0346     		mov	r3, r0
 2052 0452 1A46     		mov	r2, r3
 2053 0454 FB6B     		ldr	r3, [r7, #60]	@ float
 2054 0456 1946     		mov	r1, r3
 2055 0458 1046     		mov	r0, r2
 2056 045a FFF7FEFF 		bl	__aeabi_fsub
 2057 045e 0346     		mov	r3, r0
 2058 0460 1946     		mov	r1, r3
 2059 0462 2046     		mov	r0, r4
 2060 0464 FFF7FEFF 		bl	__aeabi_fmul
 2061 0468 0346     		mov	r3, r0
 2062 046a 1946     		mov	r1, r3
 2063 046c 2846     		mov	r0, r5
 2064 046e FFF7FEFF 		bl	__aeabi_fadd
 2065 0472 0346     		mov	r3, r0
 2066 0474 1846     		mov	r0, r3
 2067 0476 FFF7FEFF 		bl	__aeabi_f2d
 2068 047a 0446     		mov	r4, r0
 2069 047c 0D46     		mov	r5, r1
 2070 047e FB68     		ldr	r3, [r7, #12]	@ float
 2071 0480 1946     		mov	r1, r3
 2072 0482 1846     		mov	r0, r3
 2073 0484 FFF7FEFF 		bl	__aeabi_fadd
 2074 0488 0346     		mov	r3, r0
 2075 048a 1846     		mov	r0, r3
 2076 048c FFF7FEFF 		bl	__aeabi_f2d
 2077 0490 8046     		mov	r8, r0
 2078 0492 8946     		mov	r9, r1
 2079 0494 FB68     		ldr	r3, [r7, #12]	@ float
 2080 0496 FA68     		ldr	r2, [r7, #12]	@ float
 2081 0498 1146     		mov	r1, r2
 2082 049a 1846     		mov	r0, r3
 2083 049c FFF7FEFF 		bl	__aeabi_fmul
 2084 04a0 0346     		mov	r3, r0
 2085 04a2 1846     		mov	r0, r3
ARM GAS  C:\Users\Mattia\AppData\Local\Temp\ccYnk7Oc.s 			page 46


 2086 04a4 FFF7FEFF 		bl	__aeabi_f2d
 2087 04a8 0246     		mov	r2, r0
 2088 04aa 0B46     		mov	r3, r1
 2089 04ac 4FF00000 		mov	r0, #0
 2090 04b0 7449     		ldr	r1, .L68+12
 2091 04b2 FFF7FEFF 		bl	__aeabi_dsub
 2092 04b6 0246     		mov	r2, r0
 2093 04b8 0B46     		mov	r3, r1
 2094 04ba 9246     		mov	r10, r2
 2095 04bc 9B46     		mov	fp, r3
 2096 04be 3B69     		ldr	r3, [r7, #16]	@ float
 2097 04c0 3A69     		ldr	r2, [r7, #16]	@ float
 2098 04c2 1146     		mov	r1, r2
 2099 04c4 1846     		mov	r0, r3
 2100 04c6 FFF7FEFF 		bl	__aeabi_fmul
 2101 04ca 0346     		mov	r3, r0
 2102 04cc 1846     		mov	r0, r3
 2103 04ce FFF7FEFF 		bl	__aeabi_f2d
 2104 04d2 0246     		mov	r2, r0
 2105 04d4 0B46     		mov	r3, r1
 2106 04d6 5046     		mov	r0, r10
 2107 04d8 5946     		mov	r1, fp
 2108 04da FFF7FEFF 		bl	__aeabi_dsub
 2109 04de 0246     		mov	r2, r0
 2110 04e0 0B46     		mov	r3, r1
 2111 04e2 1046     		mov	r0, r2
 2112 04e4 1946     		mov	r1, r3
 2113 04e6 0246     		mov	r2, r0
 2114 04e8 0B46     		mov	r3, r1
 2115 04ea FFF7FEFF 		bl	__aeabi_dadd
 2116 04ee 0246     		mov	r2, r0
 2117 04f0 0B46     		mov	r3, r1
 2118 04f2 9246     		mov	r10, r2
 2119 04f4 9B46     		mov	fp, r3
 2120 04f6 3B6C     		ldr	r3, [r7, #64]	@ float
 2121 04f8 1846     		mov	r0, r3
 2122 04fa FFF7FEFF 		bl	__aeabi_f2d
 2123 04fe 0246     		mov	r2, r0
 2124 0500 0B46     		mov	r3, r1
 2125 0502 5046     		mov	r0, r10
 2126 0504 5946     		mov	r1, fp
 2127 0506 FFF7FEFF 		bl	__aeabi_dsub
 2128 050a 0246     		mov	r2, r0
 2129 050c 0B46     		mov	r3, r1
 2130 050e 4046     		mov	r0, r8
 2131 0510 4946     		mov	r1, r9
 2132 0512 FFF7FEFF 		bl	__aeabi_dmul
 2133 0516 0246     		mov	r2, r0
 2134 0518 0B46     		mov	r3, r1
 2135 051a 2046     		mov	r0, r4
 2136 051c 2946     		mov	r1, r5
 2137 051e FFF7FEFF 		bl	__aeabi_dsub
 2138 0522 0346     		mov	r3, r0
 2139 0524 0C46     		mov	r4, r1
 2140 0526 1846     		mov	r0, r3
 2141 0528 2146     		mov	r1, r4
 2142 052a 53A3     		adr	r3, .L68
ARM GAS  C:\Users\Mattia\AppData\Local\Temp\ccYnk7Oc.s 			page 47


 2143 052c D3E90023 		ldrd	r2, [r3]
 2144 0530 FFF7FEFF 		bl	__aeabi_dmul
 2145 0534 0346     		mov	r3, r0
 2146 0536 0C46     		mov	r4, r1
 2147 0538 1846     		mov	r0, r3
 2148 053a 2146     		mov	r1, r4
 2149 053c FFF7FEFF 		bl	__aeabi_d2f
 2150 0540 0346     		mov	r3, r0
 2151 0542 FB62     		str	r3, [r7, #44]	@ float
 465:..\src/IMU_functions.c ****     Napla[2] = (-qL[0]*((2*(qL[1]*qL[3]-qL[0]*qL[2]) - aP[0])) +qL[3]*((2*(qL[0]*qL[1] + qL[2]*qL[3
 2152              		.loc 1 465 0
 2153 0544 BB68     		ldr	r3, [r7, #8]	@ float
 2154 0546 83F00044 		eor	r4, r3, #-2147483648
 2155 054a FB68     		ldr	r3, [r7, #12]	@ float
 2156 054c 7A69     		ldr	r2, [r7, #20]	@ float
 2157 054e 1146     		mov	r1, r2
 2158 0550 1846     		mov	r0, r3
 2159 0552 FFF7FEFF 		bl	__aeabi_fmul
 2160 0556 0346     		mov	r3, r0
 2161 0558 1D46     		mov	r5, r3
 2162 055a BB68     		ldr	r3, [r7, #8]	@ float
 2163 055c 3A69     		ldr	r2, [r7, #16]	@ float
 2164 055e 1146     		mov	r1, r2
 2165 0560 1846     		mov	r0, r3
 2166 0562 FFF7FEFF 		bl	__aeabi_fmul
 2167 0566 0346     		mov	r3, r0
 2168 0568 1946     		mov	r1, r3
 2169 056a 2846     		mov	r0, r5
 2170 056c FFF7FEFF 		bl	__aeabi_fsub
 2171 0570 0346     		mov	r3, r0
 2172 0572 1946     		mov	r1, r3
 2173 0574 1846     		mov	r0, r3
 2174 0576 FFF7FEFF 		bl	__aeabi_fadd
 2175 057a 0346     		mov	r3, r0
 2176 057c 1A46     		mov	r2, r3
 2177 057e BB6B     		ldr	r3, [r7, #56]	@ float
 2178 0580 1946     		mov	r1, r3
 2179 0582 1046     		mov	r0, r2
 2180 0584 FFF7FEFF 		bl	__aeabi_fsub
 2181 0588 0346     		mov	r3, r0
 2182 058a 1946     		mov	r1, r3
 2183 058c 2046     		mov	r0, r4
 2184 058e FFF7FEFF 		bl	__aeabi_fmul
 2185 0592 0346     		mov	r3, r0
 2186 0594 1D46     		mov	r5, r3
 2187 0596 7C69     		ldr	r4, [r7, #20]	@ float
 2188 0598 BB68     		ldr	r3, [r7, #8]	@ float
 2189 059a FA68     		ldr	r2, [r7, #12]	@ float
 2190 059c 1146     		mov	r1, r2
 2191 059e 1846     		mov	r0, r3
 2192 05a0 FFF7FEFF 		bl	__aeabi_fmul
 2193 05a4 0346     		mov	r3, r0
 2194 05a6 1E46     		mov	r6, r3
 2195 05a8 3B69     		ldr	r3, [r7, #16]	@ float
 2196 05aa 7A69     		ldr	r2, [r7, #20]	@ float
 2197 05ac 1146     		mov	r1, r2
 2198 05ae 1846     		mov	r0, r3
ARM GAS  C:\Users\Mattia\AppData\Local\Temp\ccYnk7Oc.s 			page 48


 2199 05b0 FFF7FEFF 		bl	__aeabi_fmul
 2200 05b4 0346     		mov	r3, r0
 2201 05b6 1946     		mov	r1, r3
 2202 05b8 3046     		mov	r0, r6
 2203 05ba FFF7FEFF 		bl	__aeabi_fadd
 2204 05be 0346     		mov	r3, r0
 2205 05c0 1946     		mov	r1, r3
 2206 05c2 1846     		mov	r0, r3
 2207 05c4 FFF7FEFF 		bl	__aeabi_fadd
 2208 05c8 0346     		mov	r3, r0
 2209 05ca 1A46     		mov	r2, r3
 2210 05cc FB6B     		ldr	r3, [r7, #60]	@ float
 2211 05ce 1946     		mov	r1, r3
 2212 05d0 1046     		mov	r0, r2
 2213 05d2 FFF7FEFF 		bl	__aeabi_fsub
 2214 05d6 0346     		mov	r3, r0
 2215 05d8 1946     		mov	r1, r3
 2216 05da 2046     		mov	r0, r4
 2217 05dc FFF7FEFF 		bl	__aeabi_fmul
 2218 05e0 0346     		mov	r3, r0
 2219 05e2 1946     		mov	r1, r3
 2220 05e4 2846     		mov	r0, r5
 2221 05e6 FFF7FEFF 		bl	__aeabi_fadd
 2222 05ea 0346     		mov	r3, r0
 2223 05ec 1846     		mov	r0, r3
 2224 05ee FFF7FEFF 		bl	__aeabi_f2d
 2225 05f2 0446     		mov	r4, r0
 2226 05f4 0D46     		mov	r5, r1
 2227 05f6 3B69     		ldr	r3, [r7, #16]	@ float
 2228 05f8 1946     		mov	r1, r3
 2229 05fa 1846     		mov	r0, r3
 2230 05fc FFF7FEFF 		bl	__aeabi_fadd
 2231 0600 0346     		mov	r3, r0
 2232 0602 1846     		mov	r0, r3
 2233 0604 FFF7FEFF 		bl	__aeabi_f2d
 2234 0608 8046     		mov	r8, r0
 2235 060a 8946     		mov	r9, r1
 2236 060c FB68     		ldr	r3, [r7, #12]	@ float
 2237 060e FA68     		ldr	r2, [r7, #12]	@ float
 2238 0610 1146     		mov	r1, r2
 2239 0612 1846     		mov	r0, r3
 2240 0614 FFF7FEFF 		bl	__aeabi_fmul
 2241 0618 0346     		mov	r3, r0
 2242 061a 1846     		mov	r0, r3
 2243 061c FFF7FEFF 		bl	__aeabi_f2d
 2244 0620 0246     		mov	r2, r0
 2245 0622 0B46     		mov	r3, r1
 2246 0624 4FF00000 		mov	r0, #0
 2247 0628 1649     		ldr	r1, .L68+12
 2248 062a FFF7FEFF 		bl	__aeabi_dsub
 2249 062e 0246     		mov	r2, r0
 2250 0630 0B46     		mov	r3, r1
 2251 0632 9246     		mov	r10, r2
 2252 0634 9B46     		mov	fp, r3
 2253 0636 3B69     		ldr	r3, [r7, #16]	@ float
 2254 0638 3A69     		ldr	r2, [r7, #16]	@ float
 2255 063a 1146     		mov	r1, r2
ARM GAS  C:\Users\Mattia\AppData\Local\Temp\ccYnk7Oc.s 			page 49


 2256 063c 1846     		mov	r0, r3
 2257 063e FFF7FEFF 		bl	__aeabi_fmul
 2258 0642 0346     		mov	r3, r0
 2259 0644 1846     		mov	r0, r3
 2260 0646 FFF7FEFF 		bl	__aeabi_f2d
 2261 064a 0246     		mov	r2, r0
 2262 064c 0B46     		mov	r3, r1
 2263 064e 5046     		mov	r0, r10
 2264 0650 5946     		mov	r1, fp
 2265 0652 FFF7FEFF 		bl	__aeabi_dsub
 2266 0656 0246     		mov	r2, r0
 2267 0658 0B46     		mov	r3, r1
 2268 065a 1046     		mov	r0, r2
 2269 065c 1946     		mov	r1, r3
 2270 065e 0246     		mov	r2, r0
 2271 0660 0B46     		mov	r3, r1
 2272 0662 FFF7FEFF 		bl	__aeabi_dadd
 2273 0666 0246     		mov	r2, r0
 2274 0668 0B46     		mov	r3, r1
 2275 066a 9246     		mov	r10, r2
 2276 066c 9B46     		mov	fp, r3
 2277 066e 3B6C     		ldr	r3, [r7, #64]	@ float
 2278 0670 0AE0     		b	.L69
 2279              	.L70:
 2280 0672 00BFAFF3 		.align	3
 2280      0080
 2281              	.L68:
 2282 0678 00000000 		.word	0
 2283 067c 006AF840 		.word	1090021888
 2284 0680 0050C347 		.word	1203982336
 2285 0684 0000E03F 		.word	1071644672
 2286              	.L69:
 2287 0688 1846     		mov	r0, r3
 2288 068a FFF7FEFF 		bl	__aeabi_f2d
 2289 068e 0246     		mov	r2, r0
 2290 0690 0B46     		mov	r3, r1
 2291 0692 5046     		mov	r0, r10
 2292 0694 5946     		mov	r1, fp
 2293 0696 FFF7FEFF 		bl	__aeabi_dsub
 2294 069a 0246     		mov	r2, r0
 2295 069c 0B46     		mov	r3, r1
 2296 069e 4046     		mov	r0, r8
 2297 06a0 4946     		mov	r1, r9
 2298 06a2 FFF7FEFF 		bl	__aeabi_dmul
 2299 06a6 0246     		mov	r2, r0
 2300 06a8 0B46     		mov	r3, r1
 2301 06aa 2046     		mov	r0, r4
 2302 06ac 2946     		mov	r1, r5
 2303 06ae FFF7FEFF 		bl	__aeabi_dsub
 2304 06b2 0346     		mov	r3, r0
 2305 06b4 0C46     		mov	r4, r1
 2306 06b6 1846     		mov	r0, r3
 2307 06b8 2146     		mov	r1, r4
 2308 06ba A5A3     		adr	r3, .L71
 2309 06bc D3E90023 		ldrd	r2, [r3]
 2310 06c0 FFF7FEFF 		bl	__aeabi_dmul
 2311 06c4 0346     		mov	r3, r0
ARM GAS  C:\Users\Mattia\AppData\Local\Temp\ccYnk7Oc.s 			page 50


 2312 06c6 0C46     		mov	r4, r1
 2313 06c8 1846     		mov	r0, r3
 2314 06ca 2146     		mov	r1, r4
 2315 06cc FFF7FEFF 		bl	__aeabi_d2f
 2316 06d0 0346     		mov	r3, r0
 2317 06d2 3B63     		str	r3, [r7, #48]	@ float
 466:..\src/IMU_functions.c ****     Napla[3] = (qL[1]*((2*(qL[1]*qL[3]-qL[0]*qL[2]) - aP[0])) + qL[2]*((2*(qL[0]*qL[1] + qL[2]*qL[3
 2318              		.loc 1 466 0
 2319 06d4 FC68     		ldr	r4, [r7, #12]	@ float
 2320 06d6 FB68     		ldr	r3, [r7, #12]	@ float
 2321 06d8 7A69     		ldr	r2, [r7, #20]	@ float
 2322 06da 1146     		mov	r1, r2
 2323 06dc 1846     		mov	r0, r3
 2324 06de FFF7FEFF 		bl	__aeabi_fmul
 2325 06e2 0346     		mov	r3, r0
 2326 06e4 1D46     		mov	r5, r3
 2327 06e6 BB68     		ldr	r3, [r7, #8]	@ float
 2328 06e8 3A69     		ldr	r2, [r7, #16]	@ float
 2329 06ea 1146     		mov	r1, r2
 2330 06ec 1846     		mov	r0, r3
 2331 06ee FFF7FEFF 		bl	__aeabi_fmul
 2332 06f2 0346     		mov	r3, r0
 2333 06f4 1946     		mov	r1, r3
 2334 06f6 2846     		mov	r0, r5
 2335 06f8 FFF7FEFF 		bl	__aeabi_fsub
 2336 06fc 0346     		mov	r3, r0
 2337 06fe 1946     		mov	r1, r3
 2338 0700 1846     		mov	r0, r3
 2339 0702 FFF7FEFF 		bl	__aeabi_fadd
 2340 0706 0346     		mov	r3, r0
 2341 0708 1A46     		mov	r2, r3
 2342 070a BB6B     		ldr	r3, [r7, #56]	@ float
 2343 070c 1946     		mov	r1, r3
 2344 070e 1046     		mov	r0, r2
 2345 0710 FFF7FEFF 		bl	__aeabi_fsub
 2346 0714 0346     		mov	r3, r0
 2347 0716 1946     		mov	r1, r3
 2348 0718 2046     		mov	r0, r4
 2349 071a FFF7FEFF 		bl	__aeabi_fmul
 2350 071e 0346     		mov	r3, r0
 2351 0720 1D46     		mov	r5, r3
 2352 0722 3C69     		ldr	r4, [r7, #16]	@ float
 2353 0724 BB68     		ldr	r3, [r7, #8]	@ float
 2354 0726 FA68     		ldr	r2, [r7, #12]	@ float
 2355 0728 1146     		mov	r1, r2
 2356 072a 1846     		mov	r0, r3
 2357 072c FFF7FEFF 		bl	__aeabi_fmul
 2358 0730 0346     		mov	r3, r0
 2359 0732 1E46     		mov	r6, r3
 2360 0734 3B69     		ldr	r3, [r7, #16]	@ float
 2361 0736 7A69     		ldr	r2, [r7, #20]	@ float
 2362 0738 1146     		mov	r1, r2
 2363 073a 1846     		mov	r0, r3
 2364 073c FFF7FEFF 		bl	__aeabi_fmul
 2365 0740 0346     		mov	r3, r0
 2366 0742 1946     		mov	r1, r3
 2367 0744 3046     		mov	r0, r6
ARM GAS  C:\Users\Mattia\AppData\Local\Temp\ccYnk7Oc.s 			page 51


 2368 0746 FFF7FEFF 		bl	__aeabi_fadd
 2369 074a 0346     		mov	r3, r0
 2370 074c 1946     		mov	r1, r3
 2371 074e 1846     		mov	r0, r3
 2372 0750 FFF7FEFF 		bl	__aeabi_fadd
 2373 0754 0346     		mov	r3, r0
 2374 0756 1A46     		mov	r2, r3
 2375 0758 FB6B     		ldr	r3, [r7, #60]	@ float
 2376 075a 1946     		mov	r1, r3
 2377 075c 1046     		mov	r0, r2
 2378 075e FFF7FEFF 		bl	__aeabi_fsub
 2379 0762 0346     		mov	r3, r0
 2380 0764 1946     		mov	r1, r3
 2381 0766 2046     		mov	r0, r4
 2382 0768 FFF7FEFF 		bl	__aeabi_fmul
 2383 076c 0346     		mov	r3, r0
 2384 076e 1946     		mov	r1, r3
 2385 0770 2846     		mov	r0, r5
 2386 0772 FFF7FEFF 		bl	__aeabi_fadd
 2387 0776 0346     		mov	r3, r0
 2388 0778 7749     		ldr	r1, .L71+8
 2389 077a 1846     		mov	r0, r3
 2390 077c FFF7FEFF 		bl	__aeabi_fmul
 2391 0780 0346     		mov	r3, r0
 2392 0782 7B63     		str	r3, [r7, #52]	@ float
 467:..\src/IMU_functions.c ****     
 468:..\src/IMU_functions.c ****     qd0 = 0.5*(-(qL[1]*g[1] + qL[2]*g[2] + qL[3]*g[3])) - Napla[0];
 2393              		.loc 1 468 0
 2394 0784 FB68     		ldr	r3, [r7, #12]	@ float
 2395 0786 FA69     		ldr	r2, [r7, #28]	@ float
 2396 0788 1146     		mov	r1, r2
 2397 078a 1846     		mov	r0, r3
 2398 078c FFF7FEFF 		bl	__aeabi_fmul
 2399 0790 0346     		mov	r3, r0
 2400 0792 1C46     		mov	r4, r3
 2401 0794 3B69     		ldr	r3, [r7, #16]	@ float
 2402 0796 3A6A     		ldr	r2, [r7, #32]	@ float
 2403 0798 1146     		mov	r1, r2
 2404 079a 1846     		mov	r0, r3
 2405 079c FFF7FEFF 		bl	__aeabi_fmul
 2406 07a0 0346     		mov	r3, r0
 2407 07a2 1946     		mov	r1, r3
 2408 07a4 2046     		mov	r0, r4
 2409 07a6 FFF7FEFF 		bl	__aeabi_fadd
 2410 07aa 0346     		mov	r3, r0
 2411 07ac 1C46     		mov	r4, r3
 2412 07ae 7B69     		ldr	r3, [r7, #20]	@ float
 2413 07b0 7A6A     		ldr	r2, [r7, #36]	@ float
 2414 07b2 1146     		mov	r1, r2
 2415 07b4 1846     		mov	r0, r3
 2416 07b6 FFF7FEFF 		bl	__aeabi_fmul
 2417 07ba 0346     		mov	r3, r0
 2418 07bc 1946     		mov	r1, r3
 2419 07be 2046     		mov	r0, r4
 2420 07c0 FFF7FEFF 		bl	__aeabi_fadd
 2421 07c4 0346     		mov	r3, r0
 2422 07c6 83F00043 		eor	r3, r3, #-2147483648
ARM GAS  C:\Users\Mattia\AppData\Local\Temp\ccYnk7Oc.s 			page 52


 2423 07ca 1846     		mov	r0, r3
 2424 07cc FFF7FEFF 		bl	__aeabi_f2d
 2425 07d0 4FF00002 		mov	r2, #0
 2426 07d4 614B     		ldr	r3, .L71+12
 2427 07d6 FFF7FEFF 		bl	__aeabi_dmul
 2428 07da 0346     		mov	r3, r0
 2429 07dc 0C46     		mov	r4, r1
 2430 07de 2546     		mov	r5, r4
 2431 07e0 1C46     		mov	r4, r3
 2432 07e2 BB6A     		ldr	r3, [r7, #40]	@ float
 2433 07e4 1846     		mov	r0, r3
 2434 07e6 FFF7FEFF 		bl	__aeabi_f2d
 2435 07ea 0246     		mov	r2, r0
 2436 07ec 0B46     		mov	r3, r1
 2437 07ee 2046     		mov	r0, r4
 2438 07f0 2946     		mov	r1, r5
 2439 07f2 FFF7FEFF 		bl	__aeabi_dsub
 2440 07f6 0346     		mov	r3, r0
 2441 07f8 0C46     		mov	r4, r1
 2442 07fa 1846     		mov	r0, r3
 2443 07fc 2146     		mov	r1, r4
 2444 07fe FFF7FEFF 		bl	__aeabi_d2f
 2445 0802 0346     		mov	r3, r0
 2446 0804 3B65     		str	r3, [r7, #80]	@ float
 469:..\src/IMU_functions.c ****     qd1 = 0.5*(qL[0]*g[1] + (qL[2]*g[3] - qL[3]*g[2])) - Napla[1];
 2447              		.loc 1 469 0
 2448 0806 BB68     		ldr	r3, [r7, #8]	@ float
 2449 0808 FA69     		ldr	r2, [r7, #28]	@ float
 2450 080a 1146     		mov	r1, r2
 2451 080c 1846     		mov	r0, r3
 2452 080e FFF7FEFF 		bl	__aeabi_fmul
 2453 0812 0346     		mov	r3, r0
 2454 0814 1C46     		mov	r4, r3
 2455 0816 3B69     		ldr	r3, [r7, #16]	@ float
 2456 0818 7A6A     		ldr	r2, [r7, #36]	@ float
 2457 081a 1146     		mov	r1, r2
 2458 081c 1846     		mov	r0, r3
 2459 081e FFF7FEFF 		bl	__aeabi_fmul
 2460 0822 0346     		mov	r3, r0
 2461 0824 1D46     		mov	r5, r3
 2462 0826 7B69     		ldr	r3, [r7, #20]	@ float
 2463 0828 3A6A     		ldr	r2, [r7, #32]	@ float
 2464 082a 1146     		mov	r1, r2
 2465 082c 1846     		mov	r0, r3
 2466 082e FFF7FEFF 		bl	__aeabi_fmul
 2467 0832 0346     		mov	r3, r0
 2468 0834 1946     		mov	r1, r3
 2469 0836 2846     		mov	r0, r5
 2470 0838 FFF7FEFF 		bl	__aeabi_fsub
 2471 083c 0346     		mov	r3, r0
 2472 083e 1946     		mov	r1, r3
 2473 0840 2046     		mov	r0, r4
 2474 0842 FFF7FEFF 		bl	__aeabi_fadd
 2475 0846 0346     		mov	r3, r0
 2476 0848 1846     		mov	r0, r3
 2477 084a FFF7FEFF 		bl	__aeabi_f2d
 2478 084e 4FF00002 		mov	r2, #0
ARM GAS  C:\Users\Mattia\AppData\Local\Temp\ccYnk7Oc.s 			page 53


 2479 0852 424B     		ldr	r3, .L71+12
 2480 0854 FFF7FEFF 		bl	__aeabi_dmul
 2481 0858 0346     		mov	r3, r0
 2482 085a 0C46     		mov	r4, r1
 2483 085c 2546     		mov	r5, r4
 2484 085e 1C46     		mov	r4, r3
 2485 0860 FB6A     		ldr	r3, [r7, #44]	@ float
 2486 0862 1846     		mov	r0, r3
 2487 0864 FFF7FEFF 		bl	__aeabi_f2d
 2488 0868 0246     		mov	r2, r0
 2489 086a 0B46     		mov	r3, r1
 2490 086c 2046     		mov	r0, r4
 2491 086e 2946     		mov	r1, r5
 2492 0870 FFF7FEFF 		bl	__aeabi_dsub
 2493 0874 0346     		mov	r3, r0
 2494 0876 0C46     		mov	r4, r1
 2495 0878 1846     		mov	r0, r3
 2496 087a 2146     		mov	r1, r4
 2497 087c FFF7FEFF 		bl	__aeabi_d2f
 2498 0880 0346     		mov	r3, r0
 2499 0882 FB64     		str	r3, [r7, #76]	@ float
 470:..\src/IMU_functions.c ****     qd2 = 0.5*(qL[0]*g[2] + (qL[3]*g[1] - qL[1]*g[3])) - Napla[2];
 2500              		.loc 1 470 0
 2501 0884 BB68     		ldr	r3, [r7, #8]	@ float
 2502 0886 3A6A     		ldr	r2, [r7, #32]	@ float
 2503 0888 1146     		mov	r1, r2
 2504 088a 1846     		mov	r0, r3
 2505 088c FFF7FEFF 		bl	__aeabi_fmul
 2506 0890 0346     		mov	r3, r0
 2507 0892 1C46     		mov	r4, r3
 2508 0894 7B69     		ldr	r3, [r7, #20]	@ float
 2509 0896 FA69     		ldr	r2, [r7, #28]	@ float
 2510 0898 1146     		mov	r1, r2
 2511 089a 1846     		mov	r0, r3
 2512 089c FFF7FEFF 		bl	__aeabi_fmul
 2513 08a0 0346     		mov	r3, r0
 2514 08a2 1D46     		mov	r5, r3
 2515 08a4 FB68     		ldr	r3, [r7, #12]	@ float
 2516 08a6 7A6A     		ldr	r2, [r7, #36]	@ float
 2517 08a8 1146     		mov	r1, r2
 2518 08aa 1846     		mov	r0, r3
 2519 08ac FFF7FEFF 		bl	__aeabi_fmul
 2520 08b0 0346     		mov	r3, r0
 2521 08b2 1946     		mov	r1, r3
 2522 08b4 2846     		mov	r0, r5
 2523 08b6 FFF7FEFF 		bl	__aeabi_fsub
 2524 08ba 0346     		mov	r3, r0
 2525 08bc 1946     		mov	r1, r3
 2526 08be 2046     		mov	r0, r4
 2527 08c0 FFF7FEFF 		bl	__aeabi_fadd
 2528 08c4 0346     		mov	r3, r0
 2529 08c6 1846     		mov	r0, r3
 2530 08c8 FFF7FEFF 		bl	__aeabi_f2d
 2531 08cc 4FF00002 		mov	r2, #0
 2532 08d0 224B     		ldr	r3, .L71+12
 2533 08d2 FFF7FEFF 		bl	__aeabi_dmul
 2534 08d6 0346     		mov	r3, r0
ARM GAS  C:\Users\Mattia\AppData\Local\Temp\ccYnk7Oc.s 			page 54


 2535 08d8 0C46     		mov	r4, r1
 2536 08da 2546     		mov	r5, r4
 2537 08dc 1C46     		mov	r4, r3
 2538 08de 3B6B     		ldr	r3, [r7, #48]	@ float
 2539 08e0 1846     		mov	r0, r3
 2540 08e2 FFF7FEFF 		bl	__aeabi_f2d
 2541 08e6 0246     		mov	r2, r0
 2542 08e8 0B46     		mov	r3, r1
 2543 08ea 2046     		mov	r0, r4
 2544 08ec 2946     		mov	r1, r5
 2545 08ee FFF7FEFF 		bl	__aeabi_dsub
 2546 08f2 0346     		mov	r3, r0
 2547 08f4 0C46     		mov	r4, r1
 2548 08f6 1846     		mov	r0, r3
 2549 08f8 2146     		mov	r1, r4
 2550 08fa FFF7FEFF 		bl	__aeabi_d2f
 2551 08fe 0346     		mov	r3, r0
 2552 0900 BB64     		str	r3, [r7, #72]	@ float
 471:..\src/IMU_functions.c ****     qd3 = 0.5*(qL[0]*g[3] + (qL[1]*g[2] - qL[2]*g[1])) - Napla[3];
 2553              		.loc 1 471 0
 2554 0902 BB68     		ldr	r3, [r7, #8]	@ float
 2555 0904 7A6A     		ldr	r2, [r7, #36]	@ float
 2556 0906 1146     		mov	r1, r2
 2557 0908 1846     		mov	r0, r3
 2558 090a FFF7FEFF 		bl	__aeabi_fmul
 2559 090e 0346     		mov	r3, r0
 2560 0910 1C46     		mov	r4, r3
 2561 0912 FB68     		ldr	r3, [r7, #12]	@ float
 2562 0914 3A6A     		ldr	r2, [r7, #32]	@ float
 2563 0916 1146     		mov	r1, r2
 2564 0918 1846     		mov	r0, r3
 2565 091a FFF7FEFF 		bl	__aeabi_fmul
 2566 091e 0346     		mov	r3, r0
 2567 0920 1D46     		mov	r5, r3
 2568 0922 3B69     		ldr	r3, [r7, #16]	@ float
 2569 0924 FA69     		ldr	r2, [r7, #28]	@ float
 2570 0926 1146     		mov	r1, r2
 2571 0928 1846     		mov	r0, r3
 2572 092a FFF7FEFF 		bl	__aeabi_fmul
 2573 092e 0346     		mov	r3, r0
 2574 0930 1946     		mov	r1, r3
 2575 0932 2846     		mov	r0, r5
 2576 0934 FFF7FEFF 		bl	__aeabi_fsub
 2577 0938 0346     		mov	r3, r0
 2578 093a 1946     		mov	r1, r3
 2579 093c 2046     		mov	r0, r4
 2580 093e FFF7FEFF 		bl	__aeabi_fadd
 2581 0942 0346     		mov	r3, r0
 2582 0944 1846     		mov	r0, r3
 2583 0946 FFF7FEFF 		bl	__aeabi_f2d
 2584 094a 4FF00002 		mov	r2, #0
 2585 094e 07E0     		b	.L72
 2586              	.L73:
 2587              		.align	3
 2588              	.L71:
 2589 0950 00000000 		.word	0
 2590 0954 006AF840 		.word	1090021888
ARM GAS  C:\Users\Mattia\AppData\Local\Temp\ccYnk7Oc.s 			page 55


 2591 0958 0050C347 		.word	1203982336
 2592 095c 0000E03F 		.word	1071644672
 2593              	.L72:
 2594 0960 684B     		ldr	r3, .L74
 2595 0962 FFF7FEFF 		bl	__aeabi_dmul
 2596 0966 0346     		mov	r3, r0
 2597 0968 0C46     		mov	r4, r1
 2598 096a 2546     		mov	r5, r4
 2599 096c 1C46     		mov	r4, r3
 2600 096e 7B6B     		ldr	r3, [r7, #52]	@ float
 2601 0970 1846     		mov	r0, r3
 2602 0972 FFF7FEFF 		bl	__aeabi_f2d
 2603 0976 0246     		mov	r2, r0
 2604 0978 0B46     		mov	r3, r1
 2605 097a 2046     		mov	r0, r4
 2606 097c 2946     		mov	r1, r5
 2607 097e FFF7FEFF 		bl	__aeabi_dsub
 2608 0982 0346     		mov	r3, r0
 2609 0984 0C46     		mov	r4, r1
 2610 0986 1846     		mov	r0, r3
 2611 0988 2146     		mov	r1, r4
 2612 098a FFF7FEFF 		bl	__aeabi_d2f
 2613 098e 0346     		mov	r3, r0
 2614 0990 7B64     		str	r3, [r7, #68]	@ float
 472:..\src/IMU_functions.c ****             
 473:..\src/IMU_functions.c ****     qL[0] = qL[0] + qd0*cycle_time;
 2615              		.loc 1 473 0
 2616 0992 BC68     		ldr	r4, [r7, #8]	@ float
 2617 0994 5C4B     		ldr	r3, .L74+4
 2618 0996 1B68     		ldr	r3, [r3]	@ float
 2619 0998 396D     		ldr	r1, [r7, #80]	@ float
 2620 099a 1846     		mov	r0, r3
 2621 099c FFF7FEFF 		bl	__aeabi_fmul
 2622 09a0 0346     		mov	r3, r0
 2623 09a2 1946     		mov	r1, r3
 2624 09a4 2046     		mov	r0, r4
 2625 09a6 FFF7FEFF 		bl	__aeabi_fadd
 2626 09aa 0346     		mov	r3, r0
 2627 09ac BB60     		str	r3, [r7, #8]	@ float
 474:..\src/IMU_functions.c ****     qL[1] = qL[1] + qd1*cycle_time;
 2628              		.loc 1 474 0
 2629 09ae FC68     		ldr	r4, [r7, #12]	@ float
 2630 09b0 554B     		ldr	r3, .L74+4
 2631 09b2 1B68     		ldr	r3, [r3]	@ float
 2632 09b4 F96C     		ldr	r1, [r7, #76]	@ float
 2633 09b6 1846     		mov	r0, r3
 2634 09b8 FFF7FEFF 		bl	__aeabi_fmul
 2635 09bc 0346     		mov	r3, r0
 2636 09be 1946     		mov	r1, r3
 2637 09c0 2046     		mov	r0, r4
 2638 09c2 FFF7FEFF 		bl	__aeabi_fadd
 2639 09c6 0346     		mov	r3, r0
 2640 09c8 FB60     		str	r3, [r7, #12]	@ float
 475:..\src/IMU_functions.c ****     qL[2] = qL[2] + qd2*cycle_time;
 2641              		.loc 1 475 0
 2642 09ca 3C69     		ldr	r4, [r7, #16]	@ float
 2643 09cc 4E4B     		ldr	r3, .L74+4
ARM GAS  C:\Users\Mattia\AppData\Local\Temp\ccYnk7Oc.s 			page 56


 2644 09ce 1B68     		ldr	r3, [r3]	@ float
 2645 09d0 B96C     		ldr	r1, [r7, #72]	@ float
 2646 09d2 1846     		mov	r0, r3
 2647 09d4 FFF7FEFF 		bl	__aeabi_fmul
 2648 09d8 0346     		mov	r3, r0
 2649 09da 1946     		mov	r1, r3
 2650 09dc 2046     		mov	r0, r4
 2651 09de FFF7FEFF 		bl	__aeabi_fadd
 2652 09e2 0346     		mov	r3, r0
 2653 09e4 3B61     		str	r3, [r7, #16]	@ float
 476:..\src/IMU_functions.c ****     qL[3] = qL[3] + qd3*cycle_time;
 2654              		.loc 1 476 0
 2655 09e6 7C69     		ldr	r4, [r7, #20]	@ float
 2656 09e8 474B     		ldr	r3, .L74+4
 2657 09ea 1B68     		ldr	r3, [r3]	@ float
 2658 09ec 796C     		ldr	r1, [r7, #68]	@ float
 2659 09ee 1846     		mov	r0, r3
 2660 09f0 FFF7FEFF 		bl	__aeabi_fmul
 2661 09f4 0346     		mov	r3, r0
 2662 09f6 1946     		mov	r1, r3
 2663 09f8 2046     		mov	r0, r4
 2664 09fa FFF7FEFF 		bl	__aeabi_fadd
 2665 09fe 0346     		mov	r3, r0
 2666 0a00 7B61     		str	r3, [r7, #20]	@ float
 477:..\src/IMU_functions.c ****     
 478:..\src/IMU_functions.c ****     if (sqrt(qL[0]*qL[0] + qL[1]*qL[1] + qL[2]*qL[2] + qL[3]*qL[3]) == 0) {
 2667              		.loc 1 478 0
 2668 0a02 BB68     		ldr	r3, [r7, #8]	@ float
 2669 0a04 BA68     		ldr	r2, [r7, #8]	@ float
 2670 0a06 1146     		mov	r1, r2
 2671 0a08 1846     		mov	r0, r3
 2672 0a0a FFF7FEFF 		bl	__aeabi_fmul
 2673 0a0e 0346     		mov	r3, r0
 2674 0a10 1C46     		mov	r4, r3
 2675 0a12 FB68     		ldr	r3, [r7, #12]	@ float
 2676 0a14 FA68     		ldr	r2, [r7, #12]	@ float
 2677 0a16 1146     		mov	r1, r2
 2678 0a18 1846     		mov	r0, r3
 2679 0a1a FFF7FEFF 		bl	__aeabi_fmul
 2680 0a1e 0346     		mov	r3, r0
 2681 0a20 1946     		mov	r1, r3
 2682 0a22 2046     		mov	r0, r4
 2683 0a24 FFF7FEFF 		bl	__aeabi_fadd
 2684 0a28 0346     		mov	r3, r0
 2685 0a2a 1C46     		mov	r4, r3
 2686 0a2c 3B69     		ldr	r3, [r7, #16]	@ float
 2687 0a2e 3A69     		ldr	r2, [r7, #16]	@ float
 2688 0a30 1146     		mov	r1, r2
 2689 0a32 1846     		mov	r0, r3
 2690 0a34 FFF7FEFF 		bl	__aeabi_fmul
 2691 0a38 0346     		mov	r3, r0
 2692 0a3a 1946     		mov	r1, r3
 2693 0a3c 2046     		mov	r0, r4
 2694 0a3e FFF7FEFF 		bl	__aeabi_fadd
 2695 0a42 0346     		mov	r3, r0
 2696 0a44 1C46     		mov	r4, r3
 2697 0a46 7B69     		ldr	r3, [r7, #20]	@ float
ARM GAS  C:\Users\Mattia\AppData\Local\Temp\ccYnk7Oc.s 			page 57


 2698 0a48 7A69     		ldr	r2, [r7, #20]	@ float
 2699 0a4a 1146     		mov	r1, r2
 2700 0a4c 1846     		mov	r0, r3
 2701 0a4e FFF7FEFF 		bl	__aeabi_fmul
 2702 0a52 0346     		mov	r3, r0
 2703 0a54 1946     		mov	r1, r3
 2704 0a56 2046     		mov	r0, r4
 2705 0a58 FFF7FEFF 		bl	__aeabi_fadd
 2706 0a5c 0346     		mov	r3, r0
 2707 0a5e 1846     		mov	r0, r3
 2708 0a60 FFF7FEFF 		bl	__aeabi_f2d
 2709 0a64 0346     		mov	r3, r0
 2710 0a66 0C46     		mov	r4, r1
 2711 0a68 1846     		mov	r0, r3
 2712 0a6a 2146     		mov	r1, r4
 2713 0a6c FFF7FEFF 		bl	sqrt
 2714 0a70 4FF00002 		mov	r2, #0
 2715 0a74 4FF00003 		mov	r3, #0
 2716 0a78 FFF7FEFF 		bl	__aeabi_dcmpeq
 2717 0a7c 0346     		mov	r3, r0
 2718 0a7e 002B     		cmp	r3, #0
 2719 0a80 1AD0     		beq	.L59
 479:..\src/IMU_functions.c **** 	    qL[0] = Quat[n][0];
 2720              		.loc 1 479 0
 2721 0a82 224A     		ldr	r2, .L74+8
 2722 0a84 7B68     		ldr	r3, [r7, #4]
 2723 0a86 1B01     		lsls	r3, r3, #4
 2724 0a88 1344     		add	r3, r3, r2
 2725 0a8a 1B68     		ldr	r3, [r3]	@ float
 2726 0a8c BB60     		str	r3, [r7, #8]	@ float
 480:..\src/IMU_functions.c **** 	    qL[1] = Quat[n][1];
 2727              		.loc 1 480 0
 2728 0a8e 1F4A     		ldr	r2, .L74+8
 2729 0a90 7B68     		ldr	r3, [r7, #4]
 2730 0a92 1B01     		lsls	r3, r3, #4
 2731 0a94 1344     		add	r3, r3, r2
 2732 0a96 0433     		adds	r3, r3, #4
 2733 0a98 1B68     		ldr	r3, [r3]	@ float
 2734 0a9a FB60     		str	r3, [r7, #12]	@ float
 481:..\src/IMU_functions.c **** 	    qL[2] = Quat[n][2];
 2735              		.loc 1 481 0
 2736 0a9c 1B4A     		ldr	r2, .L74+8
 2737 0a9e 7B68     		ldr	r3, [r7, #4]
 2738 0aa0 1B01     		lsls	r3, r3, #4
 2739 0aa2 1344     		add	r3, r3, r2
 2740 0aa4 0833     		adds	r3, r3, #8
 2741 0aa6 1B68     		ldr	r3, [r3]	@ float
 2742 0aa8 3B61     		str	r3, [r7, #16]	@ float
 482:..\src/IMU_functions.c **** 	    qL[3] = Quat[n][3];
 2743              		.loc 1 482 0
 2744 0aaa 184A     		ldr	r2, .L74+8
 2745 0aac 7B68     		ldr	r3, [r7, #4]
 2746 0aae 1B01     		lsls	r3, r3, #4
 2747 0ab0 1344     		add	r3, r3, r2
 2748 0ab2 0C33     		adds	r3, r3, #12
 2749 0ab4 1B68     		ldr	r3, [r3]	@ float
 2750 0ab6 7B61     		str	r3, [r7, #20]	@ float
ARM GAS  C:\Users\Mattia\AppData\Local\Temp\ccYnk7Oc.s 			page 58


 2751              	.L59:
 483:..\src/IMU_functions.c ****     }
 484:..\src/IMU_functions.c ****         
 485:..\src/IMU_functions.c ****     v4_normalize(qL);
 2752              		.loc 1 485 0
 2753 0ab8 07F10803 		add	r3, r7, #8
 2754 0abc 1846     		mov	r0, r3
 2755 0abe FFF7FEFF 		bl	v4_normalize
 486:..\src/IMU_functions.c ****     
 487:..\src/IMU_functions.c ****     // Quaternion update      
 488:..\src/IMU_functions.c ****     Quat[n][0] = qL[0];
 2756              		.loc 1 488 0
 2757 0ac2 BA68     		ldr	r2, [r7, #8]	@ float
 2758 0ac4 1149     		ldr	r1, .L74+8
 2759 0ac6 7B68     		ldr	r3, [r7, #4]
 2760 0ac8 1B01     		lsls	r3, r3, #4
 2761 0aca 0B44     		add	r3, r3, r1
 2762 0acc 1A60     		str	r2, [r3]	@ float
 489:..\src/IMU_functions.c ****     Quat[n][1] = qL[1];
 2763              		.loc 1 489 0
 2764 0ace FA68     		ldr	r2, [r7, #12]	@ float
 2765 0ad0 0E49     		ldr	r1, .L74+8
 2766 0ad2 7B68     		ldr	r3, [r7, #4]
 2767 0ad4 1B01     		lsls	r3, r3, #4
 2768 0ad6 0B44     		add	r3, r3, r1
 2769 0ad8 0433     		adds	r3, r3, #4
 2770 0ada 1A60     		str	r2, [r3]	@ float
 490:..\src/IMU_functions.c ****     Quat[n][2] = qL[2];
 2771              		.loc 1 490 0
 2772 0adc 3A69     		ldr	r2, [r7, #16]	@ float
 2773 0ade 0B49     		ldr	r1, .L74+8
 2774 0ae0 7B68     		ldr	r3, [r7, #4]
 2775 0ae2 1B01     		lsls	r3, r3, #4
 2776 0ae4 0B44     		add	r3, r3, r1
 2777 0ae6 0833     		adds	r3, r3, #8
 2778 0ae8 1A60     		str	r2, [r3]	@ float
 491:..\src/IMU_functions.c ****     Quat[n][3] = qL[3];
 2779              		.loc 1 491 0
 2780 0aea 7A69     		ldr	r2, [r7, #20]	@ float
 2781 0aec 0749     		ldr	r1, .L74+8
 2782 0aee 7B68     		ldr	r3, [r7, #4]
 2783 0af0 1B01     		lsls	r3, r3, #4
 2784 0af2 0B44     		add	r3, r3, r1
 2785 0af4 0C33     		adds	r3, r3, #12
 2786 0af6 1A60     		str	r2, [r3]	@ float
 492:..\src/IMU_functions.c **** }
 2787              		.loc 1 492 0
 2788 0af8 00BF     		nop
 2789 0afa 5C37     		adds	r7, r7, #92
 2790              		.cfi_def_cfa_offset 36
 2791 0afc BD46     		mov	sp, r7
 2792              		.cfi_def_cfa_register 13
 2793              		@ sp needed
 2794 0afe BDE8F08F 		pop	{r4, r5, r6, r7, r8, r9, r10, fp, pc}
 2795              	.L75:
 2796 0b02 00BF     		.align	2
 2797              	.L74:
ARM GAS  C:\Users\Mattia\AppData\Local\Temp\ccYnk7Oc.s 			page 59


 2798 0b04 0000E03F 		.word	1071644672
 2799 0b08 00000000 		.word	cycle_time
 2800 0b0c 00000000 		.word	Quat
 2801              		.cfi_endproc
 2802              	.LFE74:
 2803              		.size	ReadQuat, .-ReadQuat
 2804              		.section	.text.ReadAllIMUs,"ax",%progbits
 2805              		.align	2
 2806              		.global	ReadAllIMUs
 2807              		.thumb
 2808              		.thumb_func
 2809              		.type	ReadAllIMUs, %function
 2810              	ReadAllIMUs:
 2811              	.LFB75:
 493:..\src/IMU_functions.c **** 
 494:..\src/IMU_functions.c **** /********************************************************************************
 495:..\src/IMU_functions.c **** * Function Name: ReadAllIMUs
 496:..\src/IMU_functions.c **** *********************************************************************************/
 497:..\src/IMU_functions.c **** void ReadAllIMUs(){
 2812              		.loc 1 497 0
 2813              		.cfi_startproc
 2814              		@ args = 0, pretend = 0, frame = 8
 2815              		@ frame_needed = 1, uses_anonymous_args = 0
 2816 0000 F0B5     		push	{r4, r5, r6, r7, lr}
 2817              		.cfi_def_cfa_offset 20
 2818              		.cfi_offset 4, -20
 2819              		.cfi_offset 5, -16
 2820              		.cfi_offset 6, -12
 2821              		.cfi_offset 7, -8
 2822              		.cfi_offset 14, -4
 2823 0002 83B0     		sub	sp, sp, #12
 2824              		.cfi_def_cfa_offset 32
 2825 0004 00AF     		add	r7, sp, #0
 2826              		.cfi_def_cfa_register 7
 498:..\src/IMU_functions.c ****     static uint8 k_imu = 0;
 499:..\src/IMU_functions.c ****     uint16 tmp = 0, j = 0;
 2827              		.loc 1 499 0
 2828 0006 0023     		movs	r3, #0
 2829 0008 BB80     		strh	r3, [r7, #4]	@ movhi
 2830 000a 0023     		movs	r3, #0
 2831 000c FB80     		strh	r3, [r7, #6]	@ movhi
 500:..\src/IMU_functions.c **** 
 501:..\src/IMU_functions.c ****     for (k_imu = 0; k_imu < N_IMU_Connected; k_imu++){ 
 2832              		.loc 1 501 0
 2833 000e 954B     		ldr	r3, .L87
 2834 0010 0022     		movs	r2, #0
 2835 0012 1A70     		strb	r2, [r3]
 2836 0014 1BE1     		b	.L77
 2837              	.L86:
 502:..\src/IMU_functions.c ****         // Read k_imu IMU
 503:..\src/IMU_functions.c ****         ChipSelectorIMU(IMU_connected[k_imu]);
 2838              		.loc 1 503 0
 2839 0016 934B     		ldr	r3, .L87
 2840 0018 1B78     		ldrb	r3, [r3]	@ zero_extendqisi2
 2841 001a 1A46     		mov	r2, r3
 2842 001c 924B     		ldr	r3, .L87+4
 2843 001e 9B5C     		ldrb	r3, [r3, r2]	@ zero_extendqisi2
ARM GAS  C:\Users\Mattia\AppData\Local\Temp\ccYnk7Oc.s 			page 60


 2844 0020 1846     		mov	r0, r3
 2845 0022 FFF7FEFF 		bl	ChipSelectorIMU
 504:..\src/IMU_functions.c ****         ReadIMU(IMU_connected[k_imu]);
 2846              		.loc 1 504 0
 2847 0026 8F4B     		ldr	r3, .L87
 2848 0028 1B78     		ldrb	r3, [r3]	@ zero_extendqisi2
 2849 002a 1A46     		mov	r2, r3
 2850 002c 8E4B     		ldr	r3, .L87+4
 2851 002e 9B5C     		ldrb	r3, [r3, r2]	@ zero_extendqisi2
 2852 0030 1846     		mov	r0, r3
 2853 0032 FFF7FEFF 		bl	ReadIMU
 505:..\src/IMU_functions.c ****         
 506:..\src/IMU_functions.c ****         for (j = 0; j < 3; j++) {
 2854              		.loc 1 506 0
 2855 0036 0023     		movs	r3, #0
 2856 0038 FB80     		strh	r3, [r7, #6]	@ movhi
 2857 003a 38E0     		b	.L78
 2858              	.L79:
 507:..\src/IMU_functions.c ****             tmp = Accel[IMU_connected[k_imu]][2*j];
 2859              		.loc 1 507 0 discriminator 3
 2860 003c 894B     		ldr	r3, .L87
 2861 003e 1B78     		ldrb	r3, [r3]	@ zero_extendqisi2
 2862 0040 1A46     		mov	r2, r3
 2863 0042 894B     		ldr	r3, .L87+4
 2864 0044 9B5C     		ldrb	r3, [r3, r2]	@ zero_extendqisi2
 2865 0046 1846     		mov	r0, r3
 2866 0048 FB88     		ldrh	r3, [r7, #6]
 2867 004a 5A00     		lsls	r2, r3, #1
 2868 004c 8749     		ldr	r1, .L87+8
 2869 004e 0346     		mov	r3, r0
 2870 0050 5B00     		lsls	r3, r3, #1
 2871 0052 0344     		add	r3, r3, r0
 2872 0054 5B00     		lsls	r3, r3, #1
 2873 0056 0B44     		add	r3, r3, r1
 2874 0058 1344     		add	r3, r3, r2
 2875 005a 1B78     		ldrb	r3, [r3]	@ zero_extendqisi2
 2876 005c BB80     		strh	r3, [r7, #4]	@ movhi
 508:..\src/IMU_functions.c ****             g_imuNew[k_imu].accel_value[j] = (int16)(tmp<<8 | Accel[IMU_connected[k_imu]][2*j + 1])
 2877              		.loc 1 508 0 discriminator 3
 2878 005e 814B     		ldr	r3, .L87
 2879 0060 1B78     		ldrb	r3, [r3]	@ zero_extendqisi2
 2880 0062 1D46     		mov	r5, r3
 2881 0064 FA88     		ldrh	r2, [r7, #6]
 2882 0066 BB88     		ldrh	r3, [r7, #4]
 2883 0068 1B02     		lsls	r3, r3, #8
 2884 006a 19B2     		sxth	r1, r3
 2885 006c 7D4B     		ldr	r3, .L87
 2886 006e 1B78     		ldrb	r3, [r3]	@ zero_extendqisi2
 2887 0070 1846     		mov	r0, r3
 2888 0072 7D4B     		ldr	r3, .L87+4
 2889 0074 1B5C     		ldrb	r3, [r3, r0]	@ zero_extendqisi2
 2890 0076 1E46     		mov	r6, r3
 2891 0078 FB88     		ldrh	r3, [r7, #6]
 2892 007a 5B00     		lsls	r3, r3, #1
 2893 007c 581C     		adds	r0, r3, #1
 2894 007e 7B4C     		ldr	r4, .L87+8
 2895 0080 3346     		mov	r3, r6
ARM GAS  C:\Users\Mattia\AppData\Local\Temp\ccYnk7Oc.s 			page 61


 2896 0082 5B00     		lsls	r3, r3, #1
 2897 0084 3344     		add	r3, r3, r6
 2898 0086 5B00     		lsls	r3, r3, #1
 2899 0088 2344     		add	r3, r3, r4
 2900 008a 0344     		add	r3, r3, r0
 2901 008c 1B78     		ldrb	r3, [r3]	@ zero_extendqisi2
 2902 008e 1BB2     		sxth	r3, r3
 2903 0090 0B43     		orrs	r3, r3, r1
 2904 0092 18B2     		sxth	r0, r3
 2905 0094 7649     		ldr	r1, .L87+12
 2906 0096 2B46     		mov	r3, r5
 2907 0098 9B00     		lsls	r3, r3, #2
 2908 009a 2B44     		add	r3, r3, r5
 2909 009c 9B00     		lsls	r3, r3, #2
 2910 009e 1344     		add	r3, r3, r2
 2911 00a0 5B00     		lsls	r3, r3, #1
 2912 00a2 0B44     		add	r3, r3, r1
 2913 00a4 0246     		mov	r2, r0	@ movhi
 2914 00a6 5A80     		strh	r2, [r3, #2]	@ movhi
 506:..\src/IMU_functions.c ****             tmp = Accel[IMU_connected[k_imu]][2*j];
 2915              		.loc 1 506 0 discriminator 3
 2916 00a8 FB88     		ldrh	r3, [r7, #6]
 2917 00aa 0133     		adds	r3, r3, #1
 2918 00ac FB80     		strh	r3, [r7, #6]	@ movhi
 2919              	.L78:
 506:..\src/IMU_functions.c ****             tmp = Accel[IMU_connected[k_imu]][2*j];
 2920              		.loc 1 506 0 is_stmt 0 discriminator 1
 2921 00ae FB88     		ldrh	r3, [r7, #6]
 2922 00b0 022B     		cmp	r3, #2
 2923 00b2 C3D9     		bls	.L79
 509:..\src/IMU_functions.c ****         }
 510:..\src/IMU_functions.c ****         
 511:..\src/IMU_functions.c ****         for (j = 0; j < 3; j++) {
 2924              		.loc 1 511 0 is_stmt 1
 2925 00b4 0023     		movs	r3, #0
 2926 00b6 FB80     		strh	r3, [r7, #6]	@ movhi
 2927 00b8 38E0     		b	.L80
 2928              	.L81:
 512:..\src/IMU_functions.c ****             tmp = Gyro[IMU_connected[k_imu]][2*j];
 2929              		.loc 1 512 0 discriminator 3
 2930 00ba 6A4B     		ldr	r3, .L87
 2931 00bc 1B78     		ldrb	r3, [r3]	@ zero_extendqisi2
 2932 00be 1A46     		mov	r2, r3
 2933 00c0 694B     		ldr	r3, .L87+4
 2934 00c2 9B5C     		ldrb	r3, [r3, r2]	@ zero_extendqisi2
 2935 00c4 1846     		mov	r0, r3
 2936 00c6 FB88     		ldrh	r3, [r7, #6]
 2937 00c8 5A00     		lsls	r2, r3, #1
 2938 00ca 6A49     		ldr	r1, .L87+16
 2939 00cc 0346     		mov	r3, r0
 2940 00ce 5B00     		lsls	r3, r3, #1
 2941 00d0 0344     		add	r3, r3, r0
 2942 00d2 5B00     		lsls	r3, r3, #1
 2943 00d4 0B44     		add	r3, r3, r1
 2944 00d6 1344     		add	r3, r3, r2
 2945 00d8 1B78     		ldrb	r3, [r3]	@ zero_extendqisi2
 2946 00da BB80     		strh	r3, [r7, #4]	@ movhi
ARM GAS  C:\Users\Mattia\AppData\Local\Temp\ccYnk7Oc.s 			page 62


 513:..\src/IMU_functions.c ****             g_imuNew[k_imu].gyro_value[j] = (int16)(tmp<<8 | Gyro[IMU_connected[k_imu]][2*j + 1]);
 2947              		.loc 1 513 0 discriminator 3
 2948 00dc 614B     		ldr	r3, .L87
 2949 00de 1B78     		ldrb	r3, [r3]	@ zero_extendqisi2
 2950 00e0 1D46     		mov	r5, r3
 2951 00e2 FA88     		ldrh	r2, [r7, #6]
 2952 00e4 BB88     		ldrh	r3, [r7, #4]
 2953 00e6 1B02     		lsls	r3, r3, #8
 2954 00e8 19B2     		sxth	r1, r3
 2955 00ea 5E4B     		ldr	r3, .L87
 2956 00ec 1B78     		ldrb	r3, [r3]	@ zero_extendqisi2
 2957 00ee 1846     		mov	r0, r3
 2958 00f0 5D4B     		ldr	r3, .L87+4
 2959 00f2 1B5C     		ldrb	r3, [r3, r0]	@ zero_extendqisi2
 2960 00f4 1E46     		mov	r6, r3
 2961 00f6 FB88     		ldrh	r3, [r7, #6]
 2962 00f8 5B00     		lsls	r3, r3, #1
 2963 00fa 581C     		adds	r0, r3, #1
 2964 00fc 5D4C     		ldr	r4, .L87+16
 2965 00fe 3346     		mov	r3, r6
 2966 0100 5B00     		lsls	r3, r3, #1
 2967 0102 3344     		add	r3, r3, r6
 2968 0104 5B00     		lsls	r3, r3, #1
 2969 0106 2344     		add	r3, r3, r4
 2970 0108 0344     		add	r3, r3, r0
 2971 010a 1B78     		ldrb	r3, [r3]	@ zero_extendqisi2
 2972 010c 1BB2     		sxth	r3, r3
 2973 010e 0B43     		orrs	r3, r3, r1
 2974 0110 18B2     		sxth	r0, r3
 2975 0112 5749     		ldr	r1, .L87+12
 2976 0114 2B46     		mov	r3, r5
 2977 0116 9B00     		lsls	r3, r3, #2
 2978 0118 2B44     		add	r3, r3, r5
 2979 011a 9B00     		lsls	r3, r3, #2
 2980 011c 1344     		add	r3, r3, r2
 2981 011e 0433     		adds	r3, r3, #4
 2982 0120 0246     		mov	r2, r0	@ movhi
 2983 0122 21F81320 		strh	r2, [r1, r3, lsl #1]	@ movhi
 511:..\src/IMU_functions.c ****             tmp = Gyro[IMU_connected[k_imu]][2*j];
 2984              		.loc 1 511 0 discriminator 3
 2985 0126 FB88     		ldrh	r3, [r7, #6]
 2986 0128 0133     		adds	r3, r3, #1
 2987 012a FB80     		strh	r3, [r7, #6]	@ movhi
 2988              	.L80:
 511:..\src/IMU_functions.c ****             tmp = Gyro[IMU_connected[k_imu]][2*j];
 2989              		.loc 1 511 0 is_stmt 0 discriminator 1
 2990 012c FB88     		ldrh	r3, [r7, #6]
 2991 012e 022B     		cmp	r3, #2
 2992 0130 C3D9     		bls	.L81
 514:..\src/IMU_functions.c ****         }
 515:..\src/IMU_functions.c ****                 
 516:..\src/IMU_functions.c ****         for (j = 0; j < 3; j++) {
 2993              		.loc 1 516 0 is_stmt 1
 2994 0132 0023     		movs	r3, #0
 2995 0134 FB80     		strh	r3, [r7, #6]	@ movhi
 2996 0136 39E0     		b	.L82
 2997              	.L83:
ARM GAS  C:\Users\Mattia\AppData\Local\Temp\ccYnk7Oc.s 			page 63


 517:..\src/IMU_functions.c ****             tmp = Mag[IMU_connected[k_imu]][2*j];
 2998              		.loc 1 517 0 discriminator 3
 2999 0138 4A4B     		ldr	r3, .L87
 3000 013a 1B78     		ldrb	r3, [r3]	@ zero_extendqisi2
 3001 013c 1A46     		mov	r2, r3
 3002 013e 4A4B     		ldr	r3, .L87+4
 3003 0140 9B5C     		ldrb	r3, [r3, r2]	@ zero_extendqisi2
 3004 0142 1846     		mov	r0, r3
 3005 0144 FB88     		ldrh	r3, [r7, #6]
 3006 0146 5A00     		lsls	r2, r3, #1
 3007 0148 4B49     		ldr	r1, .L87+20
 3008 014a 0346     		mov	r3, r0
 3009 014c 5B00     		lsls	r3, r3, #1
 3010 014e 0344     		add	r3, r3, r0
 3011 0150 5B00     		lsls	r3, r3, #1
 3012 0152 0B44     		add	r3, r3, r1
 3013 0154 1344     		add	r3, r3, r2
 3014 0156 1B78     		ldrb	r3, [r3]	@ zero_extendqisi2
 3015 0158 BB80     		strh	r3, [r7, #4]	@ movhi
 518:..\src/IMU_functions.c ****             g_imuNew[k_imu].mag_value[j] = (int16)(tmp<<8 | Mag[IMU_connected[k_imu]][2*j + 1]);
 3016              		.loc 1 518 0 discriminator 3
 3017 015a 424B     		ldr	r3, .L87
 3018 015c 1B78     		ldrb	r3, [r3]	@ zero_extendqisi2
 3019 015e 1D46     		mov	r5, r3
 3020 0160 FA88     		ldrh	r2, [r7, #6]
 3021 0162 BB88     		ldrh	r3, [r7, #4]
 3022 0164 1B02     		lsls	r3, r3, #8
 3023 0166 19B2     		sxth	r1, r3
 3024 0168 3E4B     		ldr	r3, .L87
 3025 016a 1B78     		ldrb	r3, [r3]	@ zero_extendqisi2
 3026 016c 1846     		mov	r0, r3
 3027 016e 3E4B     		ldr	r3, .L87+4
 3028 0170 1B5C     		ldrb	r3, [r3, r0]	@ zero_extendqisi2
 3029 0172 1E46     		mov	r6, r3
 3030 0174 FB88     		ldrh	r3, [r7, #6]
 3031 0176 5B00     		lsls	r3, r3, #1
 3032 0178 581C     		adds	r0, r3, #1
 3033 017a 3F4C     		ldr	r4, .L87+20
 3034 017c 3346     		mov	r3, r6
 3035 017e 5B00     		lsls	r3, r3, #1
 3036 0180 3344     		add	r3, r3, r6
 3037 0182 5B00     		lsls	r3, r3, #1
 3038 0184 2344     		add	r3, r3, r4
 3039 0186 0344     		add	r3, r3, r0
 3040 0188 1B78     		ldrb	r3, [r3]	@ zero_extendqisi2
 3041 018a 1BB2     		sxth	r3, r3
 3042 018c 0B43     		orrs	r3, r3, r1
 3043 018e 18B2     		sxth	r0, r3
 3044 0190 3749     		ldr	r1, .L87+12
 3045 0192 2B46     		mov	r3, r5
 3046 0194 9B00     		lsls	r3, r3, #2
 3047 0196 2B44     		add	r3, r3, r5
 3048 0198 9B00     		lsls	r3, r3, #2
 3049 019a 1344     		add	r3, r3, r2
 3050 019c 0433     		adds	r3, r3, #4
 3051 019e 5B00     		lsls	r3, r3, #1
 3052 01a0 0B44     		add	r3, r3, r1
ARM GAS  C:\Users\Mattia\AppData\Local\Temp\ccYnk7Oc.s 			page 64


 3053 01a2 0246     		mov	r2, r0	@ movhi
 3054 01a4 DA80     		strh	r2, [r3, #6]	@ movhi
 516:..\src/IMU_functions.c ****             tmp = Mag[IMU_connected[k_imu]][2*j];
 3055              		.loc 1 516 0 discriminator 3
 3056 01a6 FB88     		ldrh	r3, [r7, #6]
 3057 01a8 0133     		adds	r3, r3, #1
 3058 01aa FB80     		strh	r3, [r7, #6]	@ movhi
 3059              	.L82:
 516:..\src/IMU_functions.c ****             tmp = Mag[IMU_connected[k_imu]][2*j];
 3060              		.loc 1 516 0 is_stmt 0 discriminator 1
 3061 01ac FB88     		ldrh	r3, [r7, #6]
 3062 01ae 022B     		cmp	r3, #2
 3063 01b0 C2D9     		bls	.L83
 519:..\src/IMU_functions.c ****         }  
 520:..\src/IMU_functions.c **** 
 521:..\src/IMU_functions.c ****         for (j = 0; j < 4; j++) {
 3064              		.loc 1 521 0 is_stmt 1
 3065 01b2 0023     		movs	r3, #0
 3066 01b4 FB80     		strh	r3, [r7, #6]	@ movhi
 3067 01b6 1CE0     		b	.L84
 3068              	.L85:
 522:..\src/IMU_functions.c ****             g_imuNew[k_imu].quat_value[j] = (float)(Quat[IMU_connected[k_imu]][j]);
 3069              		.loc 1 522 0 discriminator 3
 3070 01b8 2A4B     		ldr	r3, .L87
 3071 01ba 1B78     		ldrb	r3, [r3]	@ zero_extendqisi2
 3072 01bc 1C46     		mov	r4, r3
 3073 01be F988     		ldrh	r1, [r7, #6]
 3074 01c0 284B     		ldr	r3, .L87
 3075 01c2 1B78     		ldrb	r3, [r3]	@ zero_extendqisi2
 3076 01c4 1A46     		mov	r2, r3
 3077 01c6 284B     		ldr	r3, .L87+4
 3078 01c8 9B5C     		ldrb	r3, [r3, r2]	@ zero_extendqisi2
 3079 01ca 1A46     		mov	r2, r3
 3080 01cc FB88     		ldrh	r3, [r7, #6]
 3081 01ce 2B48     		ldr	r0, .L87+24
 3082 01d0 9200     		lsls	r2, r2, #2
 3083 01d2 1344     		add	r3, r3, r2
 3084 01d4 50F82320 		ldr	r2, [r0, r3, lsl #2]	@ float
 3085 01d8 2548     		ldr	r0, .L87+12
 3086 01da 2346     		mov	r3, r4
 3087 01dc 9B00     		lsls	r3, r3, #2
 3088 01de 2344     		add	r3, r3, r4
 3089 01e0 5B00     		lsls	r3, r3, #1
 3090 01e2 0B44     		add	r3, r3, r1
 3091 01e4 0433     		adds	r3, r3, #4
 3092 01e6 9B00     		lsls	r3, r3, #2
 3093 01e8 0344     		add	r3, r3, r0
 3094 01ea 5A60     		str	r2, [r3, #4]	@ float
 521:..\src/IMU_functions.c ****             g_imuNew[k_imu].quat_value[j] = (float)(Quat[IMU_connected[k_imu]][j]);
 3095              		.loc 1 521 0 discriminator 3
 3096 01ec FB88     		ldrh	r3, [r7, #6]
 3097 01ee 0133     		adds	r3, r3, #1
 3098 01f0 FB80     		strh	r3, [r7, #6]	@ movhi
 3099              	.L84:
 521:..\src/IMU_functions.c ****             g_imuNew[k_imu].quat_value[j] = (float)(Quat[IMU_connected[k_imu]][j]);
 3100              		.loc 1 521 0 is_stmt 0 discriminator 1
 3101 01f2 FB88     		ldrh	r3, [r7, #6]
ARM GAS  C:\Users\Mattia\AppData\Local\Temp\ccYnk7Oc.s 			page 65


 3102 01f4 032B     		cmp	r3, #3
 3103 01f6 DFD9     		bls	.L85
 523:..\src/IMU_functions.c ****         }
 524:..\src/IMU_functions.c ****         
 525:..\src/IMU_functions.c ****         tmp = Temp[IMU_connected[k_imu]][0];
 3104              		.loc 1 525 0 is_stmt 1 discriminator 2
 3105 01f8 1A4B     		ldr	r3, .L87
 3106 01fa 1B78     		ldrb	r3, [r3]	@ zero_extendqisi2
 3107 01fc 1A46     		mov	r2, r3
 3108 01fe 1A4B     		ldr	r3, .L87+4
 3109 0200 9B5C     		ldrb	r3, [r3, r2]	@ zero_extendqisi2
 3110 0202 1A46     		mov	r2, r3
 3111 0204 1E4B     		ldr	r3, .L87+28
 3112 0206 13F81230 		ldrb	r3, [r3, r2, lsl #1]	@ zero_extendqisi2
 3113 020a BB80     		strh	r3, [r7, #4]	@ movhi
 526:..\src/IMU_functions.c ****         g_imuNew[k_imu].temp_value = (int16)(tmp<<8 | Temp[IMU_connected[k_imu]][1]);
 3114              		.loc 1 526 0 discriminator 2
 3115 020c 154B     		ldr	r3, .L87
 3116 020e 1B78     		ldrb	r3, [r3]	@ zero_extendqisi2
 3117 0210 1846     		mov	r0, r3
 3118 0212 BB88     		ldrh	r3, [r7, #4]
 3119 0214 1B02     		lsls	r3, r3, #8
 3120 0216 1AB2     		sxth	r2, r3
 3121 0218 124B     		ldr	r3, .L87
 3122 021a 1B78     		ldrb	r3, [r3]	@ zero_extendqisi2
 3123 021c 1946     		mov	r1, r3
 3124 021e 124B     		ldr	r3, .L87+4
 3125 0220 5B5C     		ldrb	r3, [r3, r1]	@ zero_extendqisi2
 3126 0222 1749     		ldr	r1, .L87+28
 3127 0224 5B00     		lsls	r3, r3, #1
 3128 0226 0B44     		add	r3, r3, r1
 3129 0228 5B78     		ldrb	r3, [r3, #1]	@ zero_extendqisi2
 3130 022a 1BB2     		sxth	r3, r3
 3131 022c 1343     		orrs	r3, r3, r2
 3132 022e 19B2     		sxth	r1, r3
 3133 0230 0F4A     		ldr	r2, .L87+12
 3134 0232 0346     		mov	r3, r0
 3135 0234 9B00     		lsls	r3, r3, #2
 3136 0236 0344     		add	r3, r3, r0
 3137 0238 DB00     		lsls	r3, r3, #3
 3138 023a 1344     		add	r3, r3, r2
 3139 023c 2433     		adds	r3, r3, #36
 3140 023e 0A46     		mov	r2, r1	@ movhi
 3141 0240 1A80     		strh	r2, [r3]	@ movhi
 501:..\src/IMU_functions.c ****         // Read k_imu IMU
 3142              		.loc 1 501 0 discriminator 2
 3143 0242 084B     		ldr	r3, .L87
 3144 0244 1B78     		ldrb	r3, [r3]	@ zero_extendqisi2
 3145 0246 0133     		adds	r3, r3, #1
 3146 0248 DAB2     		uxtb	r2, r3
 3147 024a 064B     		ldr	r3, .L87
 3148 024c 1A70     		strb	r2, [r3]
 3149              	.L77:
 501:..\src/IMU_functions.c ****         // Read k_imu IMU
 3150              		.loc 1 501 0 is_stmt 0 discriminator 1
 3151 024e 054B     		ldr	r3, .L87
 3152 0250 1A78     		ldrb	r2, [r3]	@ zero_extendqisi2
ARM GAS  C:\Users\Mattia\AppData\Local\Temp\ccYnk7Oc.s 			page 66


 3153 0252 0C4B     		ldr	r3, .L87+32
 3154 0254 1B78     		ldrb	r3, [r3]	@ zero_extendqisi2
 3155 0256 9A42     		cmp	r2, r3
 3156 0258 FFF4DDAE 		bcc	.L86
 527:..\src/IMU_functions.c ****     }
 528:..\src/IMU_functions.c **** }
 3157              		.loc 1 528 0 is_stmt 1
 3158 025c 00BF     		nop
 3159 025e 0C37     		adds	r7, r7, #12
 3160              		.cfi_def_cfa_offset 20
 3161 0260 BD46     		mov	sp, r7
 3162              		.cfi_def_cfa_register 13
 3163              		@ sp needed
 3164 0262 F0BD     		pop	{r4, r5, r6, r7, pc}
 3165              	.L88:
 3166              		.align	2
 3167              	.L87:
 3168 0264 00000000 		.word	k_imu.10252
 3169 0268 00000000 		.word	IMU_connected
 3170 026c 00000000 		.word	Accel
 3171 0270 00000000 		.word	g_imuNew
 3172 0274 00000000 		.word	Gyro
 3173 0278 00000000 		.word	Mag
 3174 027c 00000000 		.word	Quat
 3175 0280 00000000 		.word	Temp
 3176 0284 00000000 		.word	N_IMU_Connected
 3177              		.cfi_endproc
 3178              	.LFE75:
 3179              		.size	ReadAllIMUs, .-ReadAllIMUs
 3180              		.section	.text.ReadTemp,"ax",%progbits
 3181              		.align	2
 3182              		.global	ReadTemp
 3183              		.thumb
 3184              		.thumb_func
 3185              		.type	ReadTemp, %function
 3186              	ReadTemp:
 3187              	.LFB76:
 529:..\src/IMU_functions.c **** 
 530:..\src/IMU_functions.c **** /*******************************************************************************
 531:..\src/IMU_functions.c **** * Function Name: Read Temperature Data of IMU n
 532:..\src/IMU_functions.c **** *********************************************************************************/
 533:..\src/IMU_functions.c **** void ReadTemp(int n)
 534:..\src/IMU_functions.c **** {
 3188              		.loc 1 534 0
 3189              		.cfi_startproc
 3190              		@ args = 0, pretend = 0, frame = 16
 3191              		@ frame_needed = 1, uses_anonymous_args = 0
 3192 0000 80B5     		push	{r7, lr}
 3193              		.cfi_def_cfa_offset 8
 3194              		.cfi_offset 7, -8
 3195              		.cfi_offset 14, -4
 3196 0002 84B0     		sub	sp, sp, #16
 3197              		.cfi_def_cfa_offset 24
 3198 0004 00AF     		add	r7, sp, #0
 3199              		.cfi_def_cfa_register 7
 3200 0006 7860     		str	r0, [r7, #4]
 535:..\src/IMU_functions.c **** 	uint8 low=0, high=0;	
ARM GAS  C:\Users\Mattia\AppData\Local\Temp\ccYnk7Oc.s 			page 67


 3201              		.loc 1 535 0
 3202 0008 0023     		movs	r3, #0
 3203 000a FB73     		strb	r3, [r7, #15]
 3204 000c 0023     		movs	r3, #0
 3205 000e BB73     		strb	r3, [r7, #14]
 536:..\src/IMU_functions.c **** 	int row = n;
 3206              		.loc 1 536 0
 3207 0010 7B68     		ldr	r3, [r7, #4]
 3208 0012 BB60     		str	r3, [r7, #8]
 537:..\src/IMU_functions.c **** 	
 538:..\src/IMU_functions.c **** 	//read X
 539:..\src/IMU_functions.c ****     low=ReadControlRegisterIMU(MPU9250_TEMP_OUT_L);
 3209              		.loc 1 539 0
 3210 0014 4220     		movs	r0, #66
 3211 0016 FFF7FEFF 		bl	ReadControlRegisterIMU
 3212 001a 0346     		mov	r3, r0
 3213 001c FB73     		strb	r3, [r7, #15]
 540:..\src/IMU_functions.c ****     SPI_delay();
 3214              		.loc 1 540 0
 3215 001e FFF7FEFF 		bl	SPI_delay
 541:..\src/IMU_functions.c **** 	high=ReadControlRegisterIMU(MPU9250_TEMP_OUT_H);
 3216              		.loc 1 541 0
 3217 0022 4120     		movs	r0, #65
 3218 0024 FFF7FEFF 		bl	ReadControlRegisterIMU
 3219 0028 0346     		mov	r3, r0
 3220 002a BB73     		strb	r3, [r7, #14]
 542:..\src/IMU_functions.c ****     SPI_delay();
 3221              		.loc 1 542 0
 3222 002c FFF7FEFF 		bl	SPI_delay
 543:..\src/IMU_functions.c **** 
 544:..\src/IMU_functions.c **** 	Temp[row][0] = high; 
 3223              		.loc 1 544 0
 3224 0030 0949     		ldr	r1, .L90
 3225 0032 BB68     		ldr	r3, [r7, #8]
 3226 0034 BA7B     		ldrb	r2, [r7, #14]
 3227 0036 01F81320 		strb	r2, [r1, r3, lsl #1]
 545:..\src/IMU_functions.c **** 	Temp[row][1] = low; 
 3228              		.loc 1 545 0
 3229 003a 074A     		ldr	r2, .L90
 3230 003c BB68     		ldr	r3, [r7, #8]
 3231 003e 5B00     		lsls	r3, r3, #1
 3232 0040 1344     		add	r3, r3, r2
 3233 0042 FA7B     		ldrb	r2, [r7, #15]
 3234 0044 5A70     		strb	r2, [r3, #1]
 546:..\src/IMU_functions.c **** 	low=0, high=0;
 3235              		.loc 1 546 0
 3236 0046 0023     		movs	r3, #0
 3237 0048 FB73     		strb	r3, [r7, #15]
 3238 004a 0023     		movs	r3, #0
 3239 004c BB73     		strb	r3, [r7, #14]
 547:..\src/IMU_functions.c **** }
 3240              		.loc 1 547 0
 3241 004e 00BF     		nop
 3242 0050 1037     		adds	r7, r7, #16
 3243              		.cfi_def_cfa_offset 8
 3244 0052 BD46     		mov	sp, r7
 3245              		.cfi_def_cfa_register 13
ARM GAS  C:\Users\Mattia\AppData\Local\Temp\ccYnk7Oc.s 			page 68


 3246              		@ sp needed
 3247 0054 80BD     		pop	{r7, pc}
 3248              	.L91:
 3249 0056 00BF     		.align	2
 3250              	.L90:
 3251 0058 00000000 		.word	Temp
 3252              		.cfi_endproc
 3253              	.LFE76:
 3254              		.size	ReadTemp, .-ReadTemp
 3255              		.section	.text.WriteControlRegisterIMU,"ax",%progbits
 3256              		.align	2
 3257              		.global	WriteControlRegisterIMU
 3258              		.thumb
 3259              		.thumb_func
 3260              		.type	WriteControlRegisterIMU, %function
 3261              	WriteControlRegisterIMU:
 3262              	.LFB77:
 548:..\src/IMU_functions.c **** 
 549:..\src/IMU_functions.c **** /********************************** *********************************************
 550:..\src/IMU_functions.c **** * Function Name: Write Control Register
 551:..\src/IMU_functions.c **** *********************************************************************************/
 552:..\src/IMU_functions.c **** void WriteControlRegisterIMU(uint8 address, uint8 dta){
 3263              		.loc 1 552 0
 3264              		.cfi_startproc
 3265              		@ args = 0, pretend = 0, frame = 8
 3266              		@ frame_needed = 1, uses_anonymous_args = 0
 3267 0000 80B5     		push	{r7, lr}
 3268              		.cfi_def_cfa_offset 8
 3269              		.cfi_offset 7, -8
 3270              		.cfi_offset 14, -4
 3271 0002 82B0     		sub	sp, sp, #8
 3272              		.cfi_def_cfa_offset 16
 3273 0004 00AF     		add	r7, sp, #0
 3274              		.cfi_def_cfa_register 7
 3275 0006 0346     		mov	r3, r0
 3276 0008 0A46     		mov	r2, r1
 3277 000a FB71     		strb	r3, [r7, #7]
 3278 000c 1346     		mov	r3, r2
 3279 000e BB71     		strb	r3, [r7, #6]
 553:..\src/IMU_functions.c **** 	
 554:..\src/IMU_functions.c **** 	SPI_IMU_ClearRxBuffer();
 3280              		.loc 1 554 0
 3281 0010 FFF7FEFF 		bl	SPI_IMU_ClearRxBuffer
 555:..\src/IMU_functions.c **** 	SPI_IMU_ClearTxBuffer();
 3282              		.loc 1 555 0
 3283 0014 FFF7FEFF 		bl	SPI_IMU_ClearTxBuffer
 556:..\src/IMU_functions.c **** 	SPI_IMU_ClearFIFO();
 3284              		.loc 1 556 0
 3285 0018 FFF7FEFF 		bl	SPI_IMU_ClearFIFO
 557:..\src/IMU_functions.c **** 	SPI_IMU_WriteByte(MPU9250_WCR | address);
 3286              		.loc 1 557 0
 3287 001c FB79     		ldrb	r3, [r7, #7]	@ zero_extendqisi2
 3288 001e 1846     		mov	r0, r3
 3289 0020 FFF7FEFF 		bl	SPI_IMU_WriteTxData
 558:..\src/IMU_functions.c **** 	while(!( SPI_IMU_ReadStatus() & SPI_IMU_STS_TX_FIFO_EMPTY));		
 3290              		.loc 1 558 0
 3291 0024 00BF     		nop
ARM GAS  C:\Users\Mattia\AppData\Local\Temp\ccYnk7Oc.s 			page 69


 3292              	.L93:
 3293              		.loc 1 558 0 is_stmt 0 discriminator 1
 3294 0026 FFF7FEFF 		bl	SPI_IMU_ReadStatus
 3295 002a 0346     		mov	r3, r0
 3296 002c 03F00203 		and	r3, r3, #2
 3297 0030 002B     		cmp	r3, #0
 3298 0032 F8D0     		beq	.L93
 559:..\src/IMU_functions.c **** 	SPI_IMU_WriteByte(dta);
 3299              		.loc 1 559 0 is_stmt 1
 3300 0034 BB79     		ldrb	r3, [r7, #6]	@ zero_extendqisi2
 3301 0036 1846     		mov	r0, r3
 3302 0038 FFF7FEFF 		bl	SPI_IMU_WriteTxData
 560:..\src/IMU_functions.c **** 	while(!( SPI_IMU_ReadStatus() & SPI_IMU_STS_TX_FIFO_EMPTY));
 3303              		.loc 1 560 0
 3304 003c 00BF     		nop
 3305              	.L94:
 3306              		.loc 1 560 0 is_stmt 0 discriminator 1
 3307 003e FFF7FEFF 		bl	SPI_IMU_ReadStatus
 3308 0042 0346     		mov	r3, r0
 3309 0044 03F00203 		and	r3, r3, #2
 3310 0048 002B     		cmp	r3, #0
 3311 004a F8D0     		beq	.L94
 561:..\src/IMU_functions.c **** }
 3312              		.loc 1 561 0 is_stmt 1
 3313 004c 00BF     		nop
 3314 004e 0837     		adds	r7, r7, #8
 3315              		.cfi_def_cfa_offset 8
 3316 0050 BD46     		mov	sp, r7
 3317              		.cfi_def_cfa_register 13
 3318              		@ sp needed
 3319 0052 80BD     		pop	{r7, pc}
 3320              		.cfi_endproc
 3321              	.LFE77:
 3322              		.size	WriteControlRegisterIMU, .-WriteControlRegisterIMU
 3323              		.section	.text.ReadControlRegisterIMU,"ax",%progbits
 3324              		.align	2
 3325              		.global	ReadControlRegisterIMU
 3326              		.thumb
 3327              		.thumb_func
 3328              		.type	ReadControlRegisterIMU, %function
 3329              	ReadControlRegisterIMU:
 3330              	.LFB78:
 562:..\src/IMU_functions.c **** 
 563:..\src/IMU_functions.c **** /*******************************************************************************
 564:..\src/IMU_functions.c **** * Function Name: Read Control Register
 565:..\src/IMU_functions.c **** *********************************************************************************/
 566:..\src/IMU_functions.c **** uint8 ReadControlRegisterIMU(uint8 address){
 3331              		.loc 1 566 0
 3332              		.cfi_startproc
 3333              		@ args = 0, pretend = 0, frame = 16
 3334              		@ frame_needed = 1, uses_anonymous_args = 0
 3335 0000 80B5     		push	{r7, lr}
 3336              		.cfi_def_cfa_offset 8
 3337              		.cfi_offset 7, -8
 3338              		.cfi_offset 14, -4
 3339 0002 84B0     		sub	sp, sp, #16
 3340              		.cfi_def_cfa_offset 24
ARM GAS  C:\Users\Mattia\AppData\Local\Temp\ccYnk7Oc.s 			page 70


 3341 0004 00AF     		add	r7, sp, #0
 3342              		.cfi_def_cfa_register 7
 3343 0006 0346     		mov	r3, r0
 3344 0008 FB71     		strb	r3, [r7, #7]
 567:..\src/IMU_functions.c **** 	uint8 controlreg = 0;
 3345              		.loc 1 567 0
 3346 000a 0023     		movs	r3, #0
 3347 000c FB73     		strb	r3, [r7, #15]
 568:..\src/IMU_functions.c **** 	
 569:..\src/IMU_functions.c **** 	SPI_IMU_WriteByte(MPU9250_RCR | address);
 3348              		.loc 1 569 0
 3349 000e FB79     		ldrb	r3, [r7, #7]
 3350 0010 63F07F03 		orn	r3, r3, #127
 3351 0014 DBB2     		uxtb	r3, r3
 3352 0016 1846     		mov	r0, r3
 3353 0018 FFF7FEFF 		bl	SPI_IMU_WriteTxData
 570:..\src/IMU_functions.c ****     while(!( SPI_IMU_ReadStatus() & SPI_IMU_STS_TX_FIFO_EMPTY));
 3354              		.loc 1 570 0
 3355 001c 00BF     		nop
 3356              	.L96:
 3357              		.loc 1 570 0 is_stmt 0 discriminator 1
 3358 001e FFF7FEFF 		bl	SPI_IMU_ReadStatus
 3359 0022 0346     		mov	r3, r0
 3360 0024 03F00203 		and	r3, r3, #2
 3361 0028 002B     		cmp	r3, #0
 3362 002a F8D0     		beq	.L96
 571:..\src/IMU_functions.c ****     SPI_IMU_WriteByte(0x00);
 3363              		.loc 1 571 0 is_stmt 1
 3364 002c 0020     		movs	r0, #0
 3365 002e FFF7FEFF 		bl	SPI_IMU_WriteTxData
 572:..\src/IMU_functions.c **** 	while(!( SPI_IMU_ReadStatus() & SPI_IMU_STS_SPI_DONE));
 3366              		.loc 1 572 0
 3367 0032 00BF     		nop
 3368              	.L97:
 3369              		.loc 1 572 0 is_stmt 0 discriminator 1
 3370 0034 FFF7FEFF 		bl	SPI_IMU_ReadStatus
 3371 0038 0346     		mov	r3, r0
 3372 003a 03F00103 		and	r3, r3, #1
 3373 003e 002B     		cmp	r3, #0
 3374 0040 F8D0     		beq	.L97
 573:..\src/IMU_functions.c **** 	controlreg = SPI_IMU_ReadByte();        //real data
 3375              		.loc 1 573 0 is_stmt 1
 3376 0042 FFF7FEFF 		bl	SPI_IMU_ReadRxData
 3377 0046 0346     		mov	r3, r0
 3378 0048 FB73     		strb	r3, [r7, #15]
 574:..\src/IMU_functions.c **** 	return controlreg;
 3379              		.loc 1 574 0
 3380 004a FB7B     		ldrb	r3, [r7, #15]	@ zero_extendqisi2
 575:..\src/IMU_functions.c **** }
 3381              		.loc 1 575 0
 3382 004c 1846     		mov	r0, r3
 3383 004e 1037     		adds	r7, r7, #16
 3384              		.cfi_def_cfa_offset 8
 3385 0050 BD46     		mov	sp, r7
 3386              		.cfi_def_cfa_register 13
 3387              		@ sp needed
 3388 0052 80BD     		pop	{r7, pc}
ARM GAS  C:\Users\Mattia\AppData\Local\Temp\ccYnk7Oc.s 			page 71


 3389              		.cfi_endproc
 3390              	.LFE78:
 3391              		.size	ReadControlRegisterIMU, .-ReadControlRegisterIMU
 3392              		.section	.text.SPI_delay,"ax",%progbits
 3393              		.align	2
 3394              		.global	SPI_delay
 3395              		.thumb
 3396              		.thumb_func
 3397              		.type	SPI_delay, %function
 3398              	SPI_delay:
 3399              	.LFB79:
 576:..\src/IMU_functions.c **** 
 577:..\src/IMU_functions.c **** /*******************************************************************************
 578:..\src/IMU_functions.c **** * Function Name: SPI delay
 579:..\src/IMU_functions.c **** *********************************************************************************/
 580:..\src/IMU_functions.c **** void SPI_delay(){
 3400              		.loc 1 580 0
 3401              		.cfi_startproc
 3402              		@ args = 0, pretend = 0, frame = 0
 3403              		@ frame_needed = 1, uses_anonymous_args = 0
 3404 0000 80B5     		push	{r7, lr}
 3405              		.cfi_def_cfa_offset 8
 3406              		.cfi_offset 7, -8
 3407              		.cfi_offset 14, -4
 3408 0002 00AF     		add	r7, sp, #0
 3409              		.cfi_def_cfa_register 7
 581:..\src/IMU_functions.c ****     switch( c_mem.imu.SPI_read_delay ) {
 3410              		.loc 1 581 0
 3411 0004 084B     		ldr	r3, .L104
 3412 0006 93F80132 		ldrb	r3, [r3, #513]	@ zero_extendqisi2
 3413 000a 012B     		cmp	r3, #1
 3414 000c 02D0     		beq	.L101
 3415 000e 022B     		cmp	r3, #2
 3416 0010 04D0     		beq	.L102
 582:..\src/IMU_functions.c ****         case 1:     // Low
 583:..\src/IMU_functions.c ****             CyDelayUs((uint16)SPI_DELAY_LOW);
 584:..\src/IMU_functions.c ****             break;
 585:..\src/IMU_functions.c ****         case 2:     // High
 586:..\src/IMU_functions.c ****             CyDelayUs((uint16)SPI_DELAY_HIGH);
 587:..\src/IMU_functions.c ****             break;
 588:..\src/IMU_functions.c ****         default:    // None
 589:..\src/IMU_functions.c ****             break;
 3417              		.loc 1 589 0
 3418 0012 07E0     		b	.L103
 3419              	.L101:
 583:..\src/IMU_functions.c ****             break;
 3420              		.loc 1 583 0
 3421 0014 0A20     		movs	r0, #10
 3422 0016 FFF7FEFF 		bl	CyDelayUs
 584:..\src/IMU_functions.c ****         case 2:     // High
 3423              		.loc 1 584 0
 3424 001a 03E0     		b	.L103
 3425              	.L102:
 586:..\src/IMU_functions.c ****             break;
 3426              		.loc 1 586 0
 3427 001c 6420     		movs	r0, #100
 3428 001e FFF7FEFF 		bl	CyDelayUs
ARM GAS  C:\Users\Mattia\AppData\Local\Temp\ccYnk7Oc.s 			page 72


 587:..\src/IMU_functions.c ****         default:    // None
 3429              		.loc 1 587 0
 3430 0022 00BF     		nop
 3431              	.L103:
 590:..\src/IMU_functions.c ****     }
 591:..\src/IMU_functions.c **** }...
 3432              		.loc 1 591 0
 3433 0024 00BF     		nop
 3434 0026 80BD     		pop	{r7, pc}
 3435              	.L105:
 3436              		.align	2
 3437              	.L104:
 3438 0028 00000000 		.word	c_mem
 3439              		.cfi_endproc
 3440              	.LFE79:
 3441              		.size	SPI_delay, .-SPI_delay
 3442              		.bss
 3443              	k_imu.10252:
 3444 0000 00       		.space	1
 3445              		.text
 3446              	.Letext0:
 3447              		.file 2 "c:\\program files (x86)\\cypress\\psoc creator\\4.2\\psoc creator\\import\\gnu\\arm\\5.4.
 3448              		.file 3 "c:\\program files (x86)\\cypress\\psoc creator\\4.2\\psoc creator\\import\\gnu\\arm\\5.4.
 3449              		.file 4 "Generated_Source\\PSoC5/cytypes.h"
 3450              		.file 5 "..\\src\\globals.h"
 3451              		.file 6 "Generated_Source\\PSoC5/core_cm3.h"