ARM GAS  C:\Users\Mattia\AppData\Local\Temp\cclAPrfh.s 			page 1


   1              		.syntax unified
   2              		.cpu cortex-m3
   3              		.fpu softvfp
   4              		.eabi_attribute 20, 1
   5              		.eabi_attribute 21, 1
   6              		.eabi_attribute 23, 3
   7              		.eabi_attribute 24, 1
   8              		.eabi_attribute 25, 1
   9              		.eabi_attribute 26, 1
  10              		.eabi_attribute 30, 6
  11              		.eabi_attribute 34, 1
  12              		.eabi_attribute 18, 4
  13              		.thumb
  14              		.syntax unified
  15              		.file	"interruptions.c"
  16              		.text
  17              	.Ltext0:
  18              		.cfi_sections	.debug_frame
  19              		.section	.rodata
  20              		.align	2
  21              		.type	pwm_preload_values, %object
  22              		.size	pwm_preload_values, 29
  23              	pwm_preload_values:
  24 0000 64       		.byte	100
  25 0001 53       		.byte	83
  26 0002 4E       		.byte	78
  27 0003 4C       		.byte	76
  28 0004 4A       		.byte	74
  29 0005 48       		.byte	72
  30 0006 46       		.byte	70
  31 0007 44       		.byte	68
  32 0008 43       		.byte	67
  33 0009 41       		.byte	65
  34 000a 40       		.byte	64
  35 000b 3F       		.byte	63
  36 000c 3E       		.byte	62
  37 000d 3D       		.byte	61
  38 000e 3C       		.byte	60
  39 000f 3B       		.byte	59
  40 0010 3A       		.byte	58
  41 0011 39       		.byte	57
  42 0012 38       		.byte	56
  43 0013 38       		.byte	56
  44 0014 37       		.byte	55
  45 0015 36       		.byte	54
  46 0016 36       		.byte	54
  47 0017 35       		.byte	53
  48 0018 34       		.byte	52
  49 0019 34       		.byte	52
  50 001a 34       		.byte	52
  51 001b 33       		.byte	51
  52 001c 33       		.byte	51
  53              		.section	.text.ISR_RS485_RX_ExInterrupt,"ax",%progbits
  54              		.align	2
  55              		.global	ISR_RS485_RX_ExInterrupt
  56              		.thumb
  57              		.thumb_func
ARM GAS  C:\Users\Mattia\AppData\Local\Temp\cclAPrfh.s 			page 2


  58              		.type	ISR_RS485_RX_ExInterrupt, %function
  59              	ISR_RS485_RX_ExInterrupt:
  60              	.LFB64:
  61              		.file 1 "..\\src\\interruptions.c"
   1:..\src/interruptions.c **** // ----------------------------------------------------------------------------
   2:..\src/interruptions.c **** // BSD 3-Clause License
   3:..\src/interruptions.c **** 
   4:..\src/interruptions.c **** // Copyright (c) 2016, qbrobotics
   5:..\src/interruptions.c **** // Copyright (c) 2017-2020, Centro "E.Piaggio"
   6:..\src/interruptions.c **** // All rights reserved.
   7:..\src/interruptions.c **** 
   8:..\src/interruptions.c **** // Redistribution and use in source and binary forms, with or without
   9:..\src/interruptions.c **** // modification, are permitted provided that the following conditions are met:
  10:..\src/interruptions.c **** 
  11:..\src/interruptions.c **** // * Redistributions of source code must retain the above copyright notice, this
  12:..\src/interruptions.c **** //   list of conditions and the following disclaimer.
  13:..\src/interruptions.c **** 
  14:..\src/interruptions.c **** // * Redistributions in binary form must reproduce the above copyright notice,
  15:..\src/interruptions.c **** //   this list of conditions and the following disclaimer in the documentation
  16:..\src/interruptions.c **** //   and/or other materials provided with the distribution.
  17:..\src/interruptions.c **** 
  18:..\src/interruptions.c **** // * Neither the name of the copyright holder nor the names of its
  19:..\src/interruptions.c **** //   contributors may be used to endorse or promote products derived from
  20:..\src/interruptions.c **** //   this software without specific prior written permission.
  21:..\src/interruptions.c **** 
  22:..\src/interruptions.c **** // THIS SOFTWARE IS PROVIDED BY THE COPYRIGHT HOLDERS AND CONTRIBUTORS "AS IS"
  23:..\src/interruptions.c **** // AND ANY EXPRESS OR IMPLIED WARRANTIES, INCLUDING, BUT NOT LIMITED TO, THE
  24:..\src/interruptions.c **** // IMPLIED WARRANTIES OF MERCHANTABILITY AND FITNESS FOR A PARTICULAR PURPOSE ARE
  25:..\src/interruptions.c **** // DISCLAIMED. IN NO EVENT SHALL THE COPYRIGHT HOLDER OR CONTRIBUTORS BE LIABLE
  26:..\src/interruptions.c **** // FOR ANY DIRECT, INDIRECT, INCIDENTAL, SPECIAL, EXEMPLARY, OR CONSEQUENTIAL
  27:..\src/interruptions.c **** // DAMAGES (INCLUDING, BUT NOT LIMITED TO, PROCUREMENT OF SUBSTITUTE GOODS OR
  28:..\src/interruptions.c **** // SERVICES; LOSS OF USE, DATA, OR PROFITS; OR BUSINESS INTERRUPTION) HOWEVER
  29:..\src/interruptions.c **** // CAUSED AND ON ANY THEORY OF LIABILITY, WHETHER IN CONTRACT, STRICT LIABILITY,
  30:..\src/interruptions.c **** // OR TORT (INCLUDING NEGLIGENCE OR OTHERWISE) ARISING IN ANY WAY OUT OF THE USE
  31:..\src/interruptions.c **** // OF THIS SOFTWARE, EVEN IF ADVISED OF THE POSSIBILITY OF SUCH DAMAGE.
  32:..\src/interruptions.c **** // POSSIBILITY OF SUCH DAMAGE.
  33:..\src/interruptions.c **** // ----------------------------------------------------------------------------
  34:..\src/interruptions.c **** 
  35:..\src/interruptions.c **** /**
  36:..\src/interruptions.c **** * \file         interruptions.c
  37:..\src/interruptions.c **** *
  38:..\src/interruptions.c **** * \brief        Interruption handling and firmware core functions
  39:..\src/interruptions.c **** * \date         March 20th, 2020
  40:..\src/interruptions.c **** * \author       _Centro "E.Piaggio"_
  41:..\src/interruptions.c **** * \copyright    (C) 2012-2016 qbrobotics. All rights reserved.
  42:..\src/interruptions.c **** * \copyright    (C) 2017-2020 Centro "E.Piaggio". All rights reserved.
  43:..\src/interruptions.c **** */
  44:..\src/interruptions.c **** 
  45:..\src/interruptions.c **** 
  46:..\src/interruptions.c **** //=================================================================     includes
  47:..\src/interruptions.c **** #include "interruptions.h"
  48:..\src/interruptions.c **** 
  49:..\src/interruptions.c **** //==============================================================================
  50:..\src/interruptions.c **** //                                                            RS485 RX INTERRUPT
  51:..\src/interruptions.c **** //==============================================================================
  52:..\src/interruptions.c **** // Processing RS-485 data frame:
  53:..\src/interruptions.c **** //
ARM GAS  C:\Users\Mattia\AppData\Local\Temp\cclAPrfh.s 			page 3


  54:..\src/interruptions.c **** // - 0:     Waits for beginning characters
  55:..\src/interruptions.c **** // - 1:     Waits for ID;
  56:..\src/interruptions.c **** // - 2:     Data length;
  57:..\src/interruptions.c **** // - 3:     Receive all bytes;
  58:..\src/interruptions.c **** // - 4:     Wait for another device end of transmission;
  59:..\src/interruptions.c **** //
  60:..\src/interruptions.c **** //==============================================================================
  61:..\src/interruptions.c **** 
  62:..\src/interruptions.c **** // PWM values needed to obtain 11.5 V given a certain input tension
  63:..\src/interruptions.c **** // Numbers are sperimentally calculated //[index] (millivolts)
  64:..\src/interruptions.c **** static const uint8 pwm_preload_values[29] = {100,    //0 (11500)
  65:..\src/interruptions.c ****                                               83,
  66:..\src/interruptions.c ****                                               78,
  67:..\src/interruptions.c ****                                               76,
  68:..\src/interruptions.c ****                                               74,
  69:..\src/interruptions.c ****                                               72,    //5 (14000)
  70:..\src/interruptions.c ****                                               70,
  71:..\src/interruptions.c ****                                               68,
  72:..\src/interruptions.c ****                                               67,
  73:..\src/interruptions.c ****                                               65,
  74:..\src/interruptions.c ****                                               64,    //10 (16500)
  75:..\src/interruptions.c ****                                               63,
  76:..\src/interruptions.c ****                                               62,
  77:..\src/interruptions.c ****                                               61,
  78:..\src/interruptions.c ****                                               60,
  79:..\src/interruptions.c ****                                               59,    //15 (19000)
  80:..\src/interruptions.c ****                                               58,
  81:..\src/interruptions.c ****                                               57,
  82:..\src/interruptions.c ****                                               56,
  83:..\src/interruptions.c ****                                               56,
  84:..\src/interruptions.c ****                                               55,    //20 (21500)
  85:..\src/interruptions.c ****                                               54,
  86:..\src/interruptions.c ****                                               54,
  87:..\src/interruptions.c ****                                               53,
  88:..\src/interruptions.c ****                                               52,
  89:..\src/interruptions.c ****                                               52,    //25 (24000)
  90:..\src/interruptions.c ****                                               52,
  91:..\src/interruptions.c ****                                               51,
  92:..\src/interruptions.c ****                                               51};   //28 (25500)
  93:..\src/interruptions.c **** 
  94:..\src/interruptions.c **** //==============================================================================
  95:..\src/interruptions.c **** //                                                            RS485 RX INTERRUPT
  96:..\src/interruptions.c **** //==============================================================================
  97:..\src/interruptions.c **** 
  98:..\src/interruptions.c **** CY_ISR(ISR_RS485_RX_ExInterrupt) {
  62              		.loc 1 98 0
  63              		.cfi_startproc
  64              		@ args = 0, pretend = 0, frame = 0
  65              		@ frame_needed = 1, uses_anonymous_args = 0
  66              		@ link register save eliminated.
  67 0000 80B4     		push	{r7}
  68              		.cfi_def_cfa_offset 4
  69              		.cfi_offset 7, -4
  70 0002 00AF     		add	r7, sp, #0
  71              		.cfi_def_cfa_register 7
  99:..\src/interruptions.c **** 
 100:..\src/interruptions.c ****     // Set RS485 flag
ARM GAS  C:\Users\Mattia\AppData\Local\Temp\cclAPrfh.s 			page 4


 101:..\src/interruptions.c ****     
 102:..\src/interruptions.c ****     interrupt_flag = TRUE;
  72              		.loc 1 102 0
  73 0004 034B     		ldr	r3, .L2
  74 0006 0122     		movs	r2, #1
  75 0008 1A70     		strb	r2, [r3]
 103:..\src/interruptions.c ****      
 104:..\src/interruptions.c **** }
  76              		.loc 1 104 0
  77 000a 00BF     		nop
  78 000c BD46     		mov	sp, r7
  79              		.cfi_def_cfa_register 13
  80              		@ sp needed
  81 000e 80BC     		pop	{r7}
  82              		.cfi_restore 7
  83              		.cfi_def_cfa_offset 0
  84 0010 7047     		bx	lr
  85              	.L3:
  86 0012 00BF     		.align	2
  87              	.L2:
  88 0014 00000000 		.word	interrupt_flag
  89              		.cfi_endproc
  90              	.LFE64:
  91              		.size	ISR_RS485_RX_ExInterrupt, .-ISR_RS485_RX_ExInterrupt
  92              		.section	.text.ISR_CYCLES_Handler,"ax",%progbits
  93              		.align	2
  94              		.global	ISR_CYCLES_Handler
  95              		.thumb
  96              		.thumb_func
  97              		.type	ISR_CYCLES_Handler, %function
  98              	ISR_CYCLES_Handler:
  99              	.LFB65:
 105:..\src/interruptions.c **** 
 106:..\src/interruptions.c **** //==============================================================================
 107:..\src/interruptions.c **** //                                                        CYCLES TIMER INTERRUPT
 108:..\src/interruptions.c **** //==============================================================================
 109:..\src/interruptions.c **** CY_ISR(ISR_CYCLES_Handler){
 100              		.loc 1 109 0
 101              		.cfi_startproc
 102              		@ args = 0, pretend = 0, frame = 0
 103              		@ frame_needed = 1, uses_anonymous_args = 0
 104              		@ link register save eliminated.
 105 0000 80B4     		push	{r7}
 106              		.cfi_def_cfa_offset 4
 107              		.cfi_offset 7, -4
 108 0002 00AF     		add	r7, sp, #0
 109              		.cfi_def_cfa_register 7
 110:..\src/interruptions.c **** 
 111:..\src/interruptions.c ****     // Set cycles interrupt flag
 112:..\src/interruptions.c ****     
 113:..\src/interruptions.c ****     cycles_interrupt_flag = TRUE;
 110              		.loc 1 113 0
 111 0004 044B     		ldr	r3, .L5
 112 0006 0122     		movs	r2, #1
 113 0008 1A70     		strb	r2, [r3]
 114:..\src/interruptions.c ****     
 115:..\src/interruptions.c ****     CYCLES_TIMER_STATUS;
ARM GAS  C:\Users\Mattia\AppData\Local\Temp\cclAPrfh.s 			page 5


 114              		.loc 1 115 0
 115 000a 044B     		ldr	r3, .L5+4
 116 000c 1B78     		ldrb	r3, [r3]
 116:..\src/interruptions.c **** 
 117:..\src/interruptions.c **** }
 117              		.loc 1 117 0
 118 000e 00BF     		nop
 119 0010 BD46     		mov	sp, r7
 120              		.cfi_def_cfa_register 13
 121              		@ sp needed
 122 0012 80BC     		pop	{r7}
 123              		.cfi_restore 7
 124              		.cfi_def_cfa_offset 0
 125 0014 7047     		bx	lr
 126              	.L6:
 127 0016 00BF     		.align	2
 128              	.L5:
 129 0018 00000000 		.word	cycles_interrupt_flag
 130 001c 034F0040 		.word	1073762051
 131              		.cfi_endproc
 132              	.LFE65:
 133              		.size	ISR_CYCLES_Handler, .-ISR_CYCLES_Handler
 134              		.section	.text.interrupt_manager,"ax",%progbits
 135              		.align	2
 136              		.global	interrupt_manager
 137              		.thumb
 138              		.thumb_func
 139              		.type	interrupt_manager, %function
 140              	interrupt_manager:
 141              	.LFB66:
 118:..\src/interruptions.c **** 
 119:..\src/interruptions.c **** //==============================================================================
 120:..\src/interruptions.c **** //                                                             INTERRUPT MANAGER
 121:..\src/interruptions.c **** //==============================================================================
 122:..\src/interruptions.c **** // Manage interrupt from RS485 
 123:..\src/interruptions.c **** //==============================================================================
 124:..\src/interruptions.c **** // Processing RS-485 data frame:
 125:..\src/interruptions.c **** //
 126:..\src/interruptions.c **** // - WAIT_START:    Waits for beginning characters;
 127:..\src/interruptions.c **** // - WAIT_ID:       Waits for ID;
 128:..\src/interruptions.c **** // - WAIT_LENGTH:   Data length;
 129:..\src/interruptions.c **** // - RECEIVE:       Receive all bytes;
 130:..\src/interruptions.c **** // - UNLOAD:        Wait for another device end of transmission;
 131:..\src/interruptions.c **** //
 132:..\src/interruptions.c **** //==============================================================================
 133:..\src/interruptions.c **** 
 134:..\src/interruptions.c **** void interrupt_manager(){
 142              		.loc 1 134 0
 143              		.cfi_startproc
 144              		@ args = 0, pretend = 0, frame = 8
 145              		@ frame_needed = 1, uses_anonymous_args = 0
 146 0000 80B5     		push	{r7, lr}
 147              		.cfi_def_cfa_offset 8
 148              		.cfi_offset 7, -8
 149              		.cfi_offset 14, -4
 150 0002 82B0     		sub	sp, sp, #8
 151              		.cfi_def_cfa_offset 16
ARM GAS  C:\Users\Mattia\AppData\Local\Temp\cclAPrfh.s 			page 6


 152 0004 00AF     		add	r7, sp, #0
 153              		.cfi_def_cfa_register 7
 135:..\src/interruptions.c **** 
 136:..\src/interruptions.c ****     
 137:..\src/interruptions.c ****     //===========================================     local variables definition
 138:..\src/interruptions.c **** 
 139:..\src/interruptions.c ****     static uint8 CYDATA state = WAIT_START;                      // state
 140:..\src/interruptions.c ****     
 141:..\src/interruptions.c ****     //------------------------------------------------- local data packet
 142:..\src/interruptions.c ****     static uint8 CYDATA data_packet_index;
 143:..\src/interruptions.c ****     static uint8 CYDATA data_packet_length;
 144:..\src/interruptions.c ****     static uint8 data_packet_buffer[128];                     
 145:..\src/interruptions.c ****     static uint8 CYDATA rx_queue[3];                    // last 2 bytes received
 146:..\src/interruptions.c ****     //-------------------------------------------------
 147:..\src/interruptions.c **** 
 148:..\src/interruptions.c ****     uint8 CYDATA    rx_data;                            // RS485 UART rx data
 149:..\src/interruptions.c ****     CYBIT           rx_data_type = TRUE;                       // my id?
 154              		.loc 1 149 0
 155 0006 0123     		movs	r3, #1
 156 0008 FB71     		strb	r3, [r7, #7]
 150:..\src/interruptions.c ****     uint8 CYDATA    package_count = 0;                     
 157              		.loc 1 150 0
 158 000a 0023     		movs	r3, #0
 159 000c BB71     		strb	r3, [r7, #6]
 151:..\src/interruptions.c **** 
 152:..\src/interruptions.c ****     //======================================================     receive routine
 153:..\src/interruptions.c ****     
 154:..\src/interruptions.c ****     while(UART_RS485_GetRxBufferSize() && (package_count < 100)){
 160              		.loc 1 154 0
 161 000e D6E0     		b	.L8
 162              	.L28:
 155:..\src/interruptions.c ****         // 100 - estimated maximum number of packets we can read without blocking firmware executio
 156:..\src/interruptions.c **** 
 157:..\src/interruptions.c ****         // Get next char
 158:..\src/interruptions.c ****         rx_data = UART_RS485_GetChar();
 163              		.loc 1 158 0
 164 0010 FFF7FEFF 		bl	UART_RS485_GetChar
 165 0014 0346     		mov	r3, r0
 166 0016 7B71     		strb	r3, [r7, #5]
 159:..\src/interruptions.c ****         
 160:..\src/interruptions.c ****         switch (state) {
 167              		.loc 1 160 0
 168 0018 6F4B     		ldr	r3, .L31
 169 001a 1B78     		ldrb	r3, [r3]	@ zero_extendqisi2
 170 001c 042B     		cmp	r3, #4
 171 001e 00F2CE80 		bhi	.L8
 172 0022 01A2     		adr	r2, .L10
 173 0024 52F823F0 		ldr	pc, [r2, r3, lsl #2]
 174              		.p2align 2
 175              	.L10:
 176 0028 3D000000 		.word	.L9+1
 177 002c A3000000 		.word	.L11+1
 178 0030 CD000000 		.word	.L12+1
 179 0034 1B010000 		.word	.L13+1
 180 0038 85010000 		.word	.L14+1
 181              		.p2align 1
 182              	.L9:
ARM GAS  C:\Users\Mattia\AppData\Local\Temp\cclAPrfh.s 			page 7


 161:..\src/interruptions.c ****             //-----     wait for frame start     -------------------------------
 162:..\src/interruptions.c ****             case WAIT_START:
 163:..\src/interruptions.c ****             
 164:..\src/interruptions.c ****                 rx_queue[0] = rx_queue[1];
 183              		.loc 1 164 0
 184 003c 674B     		ldr	r3, .L31+4
 185 003e 5A78     		ldrb	r2, [r3, #1]	@ zero_extendqisi2
 186 0040 664B     		ldr	r3, .L31+4
 187 0042 1A70     		strb	r2, [r3]
 165:..\src/interruptions.c ****                 rx_queue[1] = rx_queue[2];
 188              		.loc 1 165 0
 189 0044 654B     		ldr	r3, .L31+4
 190 0046 9A78     		ldrb	r2, [r3, #2]	@ zero_extendqisi2
 191 0048 644B     		ldr	r3, .L31+4
 192 004a 5A70     		strb	r2, [r3, #1]
 166:..\src/interruptions.c ****                 rx_queue[2] = rx_data;
 193              		.loc 1 166 0
 194 004c 634A     		ldr	r2, .L31+4
 195 004e 7B79     		ldrb	r3, [r7, #5]
 196 0050 9370     		strb	r3, [r2, #2]
 167:..\src/interruptions.c ****                 
 168:..\src/interruptions.c ****                 // Check for header configuration package
 169:..\src/interruptions.c ****                 if ((rx_queue[1] == 58) && (rx_queue[2] == 58)) {
 197              		.loc 1 169 0
 198 0052 624B     		ldr	r3, .L31+4
 199 0054 5B78     		ldrb	r3, [r3, #1]	@ zero_extendqisi2
 200 0056 3A2B     		cmp	r3, #58
 201 0058 10D1     		bne	.L15
 202              		.loc 1 169 0 is_stmt 0 discriminator 1
 203 005a 604B     		ldr	r3, .L31+4
 204 005c 9B78     		ldrb	r3, [r3, #2]	@ zero_extendqisi2
 205 005e 3A2B     		cmp	r3, #58
 206 0060 0CD1     		bne	.L15
 170:..\src/interruptions.c ****                     rx_queue[0] = 0;
 207              		.loc 1 170 0 is_stmt 1
 208 0062 5E4B     		ldr	r3, .L31+4
 209 0064 0022     		movs	r2, #0
 210 0066 1A70     		strb	r2, [r3]
 171:..\src/interruptions.c ****                     rx_queue[1] = 0;
 211              		.loc 1 171 0
 212 0068 5C4B     		ldr	r3, .L31+4
 213 006a 0022     		movs	r2, #0
 214 006c 5A70     		strb	r2, [r3, #1]
 172:..\src/interruptions.c ****                     rx_queue[2] = 0;
 215              		.loc 1 172 0
 216 006e 5B4B     		ldr	r3, .L31+4
 217 0070 0022     		movs	r2, #0
 218 0072 9A70     		strb	r2, [r3, #2]
 173:..\src/interruptions.c ****                     state       = WAIT_ID;                    
 219              		.loc 1 173 0
 220 0074 584B     		ldr	r3, .L31
 221 0076 0122     		movs	r2, #1
 222 0078 1A70     		strb	r2, [r3]
 223 007a 11E0     		b	.L16
 224              	.L15:
 174:..\src/interruptions.c ****                 }else
 175:..\src/interruptions.c ****                     if ((rx_queue[0] == 63) &&      //ASCII - ?
ARM GAS  C:\Users\Mattia\AppData\Local\Temp\cclAPrfh.s 			page 8


 225              		.loc 1 175 0
 226 007c 574B     		ldr	r3, .L31+4
 227 007e 1B78     		ldrb	r3, [r3]	@ zero_extendqisi2
 228 0080 3F2B     		cmp	r3, #63
 229 0082 40F09C80 		bne	.L8
 176:..\src/interruptions.c ****                         (rx_queue[1] == 13) &&      //ASCII - CR
 230              		.loc 1 176 0 discriminator 1
 231 0086 554B     		ldr	r3, .L31+4
 232 0088 5B78     		ldrb	r3, [r3, #1]	@ zero_extendqisi2
 175:..\src/interruptions.c ****                         (rx_queue[1] == 13) &&      //ASCII - CR
 233              		.loc 1 175 0 discriminator 1
 234 008a 0D2B     		cmp	r3, #13
 235 008c 40F09780 		bne	.L8
 177:..\src/interruptions.c ****                         (rx_queue[2] == 10))        //ASCII - LF)
 236              		.loc 1 177 0
 237 0090 524B     		ldr	r3, .L31+4
 238 0092 9B78     		ldrb	r3, [r3, #2]	@ zero_extendqisi2
 176:..\src/interruptions.c ****                         (rx_queue[1] == 13) &&      //ASCII - CR
 239              		.loc 1 176 0
 240 0094 0A2B     		cmp	r3, #10
 241 0096 40F09280 		bne	.L8
 178:..\src/interruptions.c ****                         infoGet(INFO_ALL);
 242              		.loc 1 178 0
 243 009a 0020     		movs	r0, #0
 244 009c FFF7FEFF 		bl	infoGet
 245              	.L16:
 179:..\src/interruptions.c ****                 break;
 246              		.loc 1 179 0
 247 00a0 8DE0     		b	.L8
 248              	.L11:
 180:..\src/interruptions.c **** 
 181:..\src/interruptions.c ****             //-----     wait for id     ----------------------------------------
 182:..\src/interruptions.c ****             case  WAIT_ID:
 183:..\src/interruptions.c **** 
 184:..\src/interruptions.c ****                 // packet is for my ID or is broadcast
 185:..\src/interruptions.c **** #ifdef MASTER_FW
 186:..\src/interruptions.c ****                 if (rx_data == c_mem.dev.id || rx_data == 0 || (c_mem.MS.slave_comm_active && rx_da
 187:..\src/interruptions.c ****                    rx_data_type = FALSE;
 188:..\src/interruptions.c ****                 else                //packet is for others
 189:..\src/interruptions.c ****                     rx_data_type = TRUE;
 190:..\src/interruptions.c **** #else
 191:..\src/interruptions.c ****                 if (rx_data == c_mem.dev.id || rx_data == 0)
 249              		.loc 1 191 0
 250 00a2 4F4B     		ldr	r3, .L31+8
 251 00a4 93F8A030 		ldrb	r3, [r3, #160]	@ zero_extendqisi2
 252 00a8 7A79     		ldrb	r2, [r7, #5]	@ zero_extendqisi2
 253 00aa 9A42     		cmp	r2, r3
 254 00ac 02D0     		beq	.L17
 255              		.loc 1 191 0 is_stmt 0 discriminator 1
 256 00ae 7B79     		ldrb	r3, [r7, #5]	@ zero_extendqisi2
 257 00b0 002B     		cmp	r3, #0
 258 00b2 02D1     		bne	.L18
 259              	.L17:
 192:..\src/interruptions.c ****                     rx_data_type = FALSE;
 260              		.loc 1 192 0 is_stmt 1
 261 00b4 0023     		movs	r3, #0
 262 00b6 FB71     		strb	r3, [r7, #7]
ARM GAS  C:\Users\Mattia\AppData\Local\Temp\cclAPrfh.s 			page 9


 263 00b8 01E0     		b	.L19
 264              	.L18:
 193:..\src/interruptions.c ****                 else                //packet is for others
 194:..\src/interruptions.c ****                     rx_data_type = TRUE;
 265              		.loc 1 194 0
 266 00ba 0123     		movs	r3, #1
 267 00bc FB71     		strb	r3, [r7, #7]
 268              	.L19:
 195:..\src/interruptions.c **** #endif                
 196:..\src/interruptions.c ****                 data_packet_length = 0;
 269              		.loc 1 196 0
 270 00be 494B     		ldr	r3, .L31+12
 271 00c0 0022     		movs	r2, #0
 272 00c2 1A70     		strb	r2, [r3]
 197:..\src/interruptions.c ****                 state = WAIT_LENGTH;
 273              		.loc 1 197 0
 274 00c4 444B     		ldr	r3, .L31
 275 00c6 0222     		movs	r2, #2
 276 00c8 1A70     		strb	r2, [r3]
 198:..\src/interruptions.c ****                 break;
 277              		.loc 1 198 0
 278 00ca 78E0     		b	.L8
 279              	.L12:
 199:..\src/interruptions.c **** 
 200:..\src/interruptions.c ****             //-----     wait for length     ------------------------------------
 201:..\src/interruptions.c ****             case  WAIT_LENGTH:
 202:..\src/interruptions.c **** 
 203:..\src/interruptions.c ****                 data_packet_length = rx_data;
 280              		.loc 1 203 0
 281 00cc 454A     		ldr	r2, .L31+12
 282 00ce 7B79     		ldrb	r3, [r7, #5]
 283 00d0 1370     		strb	r3, [r2]
 204:..\src/interruptions.c ****                 // check validity of pack length
 205:..\src/interruptions.c ****                 if (data_packet_length <= 1) {
 284              		.loc 1 205 0
 285 00d2 444B     		ldr	r3, .L31+12
 286 00d4 1B78     		ldrb	r3, [r3]	@ zero_extendqisi2
 287 00d6 012B     		cmp	r3, #1
 288 00d8 06D8     		bhi	.L20
 206:..\src/interruptions.c ****                     data_packet_length = 0;
 289              		.loc 1 206 0
 290 00da 424B     		ldr	r3, .L31+12
 291 00dc 0022     		movs	r2, #0
 292 00de 1A70     		strb	r2, [r3]
 207:..\src/interruptions.c ****                     state = WAIT_START;
 293              		.loc 1 207 0
 294 00e0 3D4B     		ldr	r3, .L31
 295 00e2 0022     		movs	r2, #0
 296 00e4 1A70     		strb	r2, [r3]
 297 00e6 6AE0     		b	.L8
 298              	.L20:
 208:..\src/interruptions.c ****                 } else if (data_packet_length > 128) {
 299              		.loc 1 208 0
 300 00e8 3E4B     		ldr	r3, .L31+12
 301 00ea 1B78     		ldrb	r3, [r3]	@ zero_extendqisi2
 302 00ec 802B     		cmp	r3, #128
 303 00ee 06D9     		bls	.L22
ARM GAS  C:\Users\Mattia\AppData\Local\Temp\cclAPrfh.s 			page 10


 209:..\src/interruptions.c ****                     data_packet_length = 0;
 304              		.loc 1 209 0
 305 00f0 3C4B     		ldr	r3, .L31+12
 306 00f2 0022     		movs	r2, #0
 307 00f4 1A70     		strb	r2, [r3]
 210:..\src/interruptions.c ****                     state = WAIT_START;
 308              		.loc 1 210 0
 309 00f6 384B     		ldr	r3, .L31
 310 00f8 0022     		movs	r2, #0
 311 00fa 1A70     		strb	r2, [r3]
 312 00fc 5FE0     		b	.L8
 313              	.L22:
 211:..\src/interruptions.c ****                 } else {
 212:..\src/interruptions.c ****                     data_packet_index = 0;
 314              		.loc 1 212 0
 315 00fe 3A4B     		ldr	r3, .L31+16
 316 0100 0022     		movs	r2, #0
 317 0102 1A70     		strb	r2, [r3]
 213:..\src/interruptions.c ****                     
 214:..\src/interruptions.c ****                     if(rx_data_type == FALSE)
 318              		.loc 1 214 0
 319 0104 FB79     		ldrb	r3, [r7, #7]	@ zero_extendqisi2
 320 0106 002B     		cmp	r3, #0
 321 0108 03D1     		bne	.L23
 215:..\src/interruptions.c ****                         state = RECEIVE;          // packet for me or broadcast
 322              		.loc 1 215 0
 323 010a 334B     		ldr	r3, .L31
 324 010c 0322     		movs	r2, #3
 325 010e 1A70     		strb	r2, [r3]
 326 0110 55E0     		b	.L8
 327              	.L23:
 216:..\src/interruptions.c ****                     else
 217:..\src/interruptions.c ****                         state = UNLOAD;           // packet for others
 328              		.loc 1 217 0
 329 0112 314B     		ldr	r3, .L31
 330 0114 0422     		movs	r2, #4
 331 0116 1A70     		strb	r2, [r3]
 218:..\src/interruptions.c ****                 }
 219:..\src/interruptions.c ****                 break;
 332              		.loc 1 219 0
 333 0118 51E0     		b	.L8
 334              	.L13:
 220:..\src/interruptions.c **** 
 221:..\src/interruptions.c ****             //-----     receiving     -------------------------------------------
 222:..\src/interruptions.c ****             case RECEIVE:
 223:..\src/interruptions.c **** 
 224:..\src/interruptions.c ****                 data_packet_buffer[data_packet_index] = rx_data;
 335              		.loc 1 224 0
 336 011a 334B     		ldr	r3, .L31+16
 337 011c 1B78     		ldrb	r3, [r3]	@ zero_extendqisi2
 338 011e 1946     		mov	r1, r3
 339 0120 324A     		ldr	r2, .L31+20
 340 0122 7B79     		ldrb	r3, [r7, #5]
 341 0124 5354     		strb	r3, [r2, r1]
 225:..\src/interruptions.c ****                 data_packet_index++;
 342              		.loc 1 225 0
 343 0126 304B     		ldr	r3, .L31+16
ARM GAS  C:\Users\Mattia\AppData\Local\Temp\cclAPrfh.s 			page 11


 344 0128 1B78     		ldrb	r3, [r3]	@ zero_extendqisi2
 345 012a 0133     		adds	r3, r3, #1
 346 012c DAB2     		uxtb	r2, r3
 347 012e 2E4B     		ldr	r3, .L31+16
 348 0130 1A70     		strb	r2, [r3]
 226:..\src/interruptions.c ****                 
 227:..\src/interruptions.c ****                 // check end of transmission
 228:..\src/interruptions.c ****                 if (data_packet_index >= data_packet_length) {
 349              		.loc 1 228 0
 350 0132 2D4B     		ldr	r3, .L31+16
 351 0134 1A78     		ldrb	r2, [r3]	@ zero_extendqisi2
 352 0136 2B4B     		ldr	r3, .L31+12
 353 0138 1B78     		ldrb	r3, [r3]	@ zero_extendqisi2
 354 013a 9A42     		cmp	r2, r3
 355 013c 3FD3     		bcc	.L8
 229:..\src/interruptions.c ****                     // verify if frame ID corresponded to the device ID
 230:..\src/interruptions.c ****                     if (rx_data_type == FALSE) {
 356              		.loc 1 230 0
 357 013e FB79     		ldrb	r3, [r7, #7]	@ zero_extendqisi2
 358 0140 002B     		cmp	r3, #0
 359 0142 12D1     		bne	.L25
 231:..\src/interruptions.c ****                         // copying data from buffer to global packet
 232:..\src/interruptions.c ****                         memcpy(g_rx.buffer, data_packet_buffer, data_packet_length);
 360              		.loc 1 232 0
 361 0144 274B     		ldr	r3, .L31+12
 362 0146 1B78     		ldrb	r3, [r3]	@ zero_extendqisi2
 363 0148 1A46     		mov	r2, r3
 364 014a 2849     		ldr	r1, .L31+20
 365 014c 2848     		ldr	r0, .L31+24
 366 014e FFF7FEFF 		bl	memcpy
 233:..\src/interruptions.c ****                         g_rx.length = data_packet_length;
 367              		.loc 1 233 0
 368 0152 244B     		ldr	r3, .L31+12
 369 0154 1B78     		ldrb	r3, [r3]	@ zero_extendqisi2
 370 0156 1AB2     		sxth	r2, r3
 371 0158 254B     		ldr	r3, .L31+24
 372 015a A3F88020 		strh	r2, [r3, #128]	@ movhi
 234:..\src/interruptions.c ****                         g_rx.ready  = 1;
 373              		.loc 1 234 0
 374 015e 244B     		ldr	r3, .L31+24
 375 0160 0122     		movs	r2, #1
 376 0162 83F88420 		strb	r2, [r3, #132]
 235:..\src/interruptions.c ****                         commProcess();
 377              		.loc 1 235 0
 378 0166 FFF7FEFF 		bl	commProcess
 379              	.L25:
 236:..\src/interruptions.c ****                     }
 237:..\src/interruptions.c ****                     
 238:..\src/interruptions.c ****                     data_packet_index  = 0;
 380              		.loc 1 238 0
 381 016a 1F4B     		ldr	r3, .L31+16
 382 016c 0022     		movs	r2, #0
 383 016e 1A70     		strb	r2, [r3]
 239:..\src/interruptions.c ****                     data_packet_length = 0;
 384              		.loc 1 239 0
 385 0170 1C4B     		ldr	r3, .L31+12
 386 0172 0022     		movs	r2, #0
ARM GAS  C:\Users\Mattia\AppData\Local\Temp\cclAPrfh.s 			page 12


 387 0174 1A70     		strb	r2, [r3]
 240:..\src/interruptions.c ****                     state              = WAIT_START;
 388              		.loc 1 240 0
 389 0176 184B     		ldr	r3, .L31
 390 0178 0022     		movs	r2, #0
 391 017a 1A70     		strb	r2, [r3]
 241:..\src/interruptions.c ****                     package_count++;
 392              		.loc 1 241 0
 393 017c BB79     		ldrb	r3, [r7, #6]	@ zero_extendqisi2
 394 017e 0133     		adds	r3, r3, #1
 395 0180 BB71     		strb	r3, [r7, #6]
 242:..\src/interruptions.c ****                 
 243:..\src/interruptions.c ****                 }
 244:..\src/interruptions.c ****                 break;
 396              		.loc 1 244 0
 397 0182 1CE0     		b	.L8
 398              	.L14:
 245:..\src/interruptions.c **** 
 246:..\src/interruptions.c ****             //-----     other device is receving     ---------------------------
 247:..\src/interruptions.c ****             case UNLOAD:
 248:..\src/interruptions.c ****                 if (!(--data_packet_length)) {
 399              		.loc 1 248 0
 400 0184 174B     		ldr	r3, .L31+12
 401 0186 1B78     		ldrb	r3, [r3]	@ zero_extendqisi2
 402 0188 013B     		subs	r3, r3, #1
 403 018a DAB2     		uxtb	r2, r3
 404 018c 154B     		ldr	r3, .L31+12
 405 018e 1A70     		strb	r2, [r3]
 406 0190 144B     		ldr	r3, .L31+12
 407 0192 1B78     		ldrb	r3, [r3]	@ zero_extendqisi2
 408 0194 002B     		cmp	r3, #0
 409 0196 11D1     		bne	.L30
 249:..\src/interruptions.c ****                     data_packet_index  = 0;
 410              		.loc 1 249 0
 411 0198 134B     		ldr	r3, .L31+16
 412 019a 0022     		movs	r2, #0
 413 019c 1A70     		strb	r2, [r3]
 250:..\src/interruptions.c ****                     data_packet_length = 0;
 414              		.loc 1 250 0
 415 019e 114B     		ldr	r3, .L31+12
 416 01a0 0022     		movs	r2, #0
 417 01a2 1A70     		strb	r2, [r3]
 251:..\src/interruptions.c ****                     RS485_CTS_Write(1);
 418              		.loc 1 251 0
 419 01a4 0120     		movs	r0, #1
 420 01a6 FFF7FEFF 		bl	RS485_CTS_Write
 252:..\src/interruptions.c ****                     RS485_CTS_Write(0);
 421              		.loc 1 252 0
 422 01aa 0020     		movs	r0, #0
 423 01ac FFF7FEFF 		bl	RS485_CTS_Write
 253:..\src/interruptions.c ****                     state              = WAIT_START;
 424              		.loc 1 253 0
 425 01b0 094B     		ldr	r3, .L31
 426 01b2 0022     		movs	r2, #0
 427 01b4 1A70     		strb	r2, [r3]
 254:..\src/interruptions.c ****                     package_count++;
 428              		.loc 1 254 0
ARM GAS  C:\Users\Mattia\AppData\Local\Temp\cclAPrfh.s 			page 13


 429 01b6 BB79     		ldrb	r3, [r7, #6]	@ zero_extendqisi2
 430 01b8 0133     		adds	r3, r3, #1
 431 01ba BB71     		strb	r3, [r7, #6]
 432              	.L30:
 255:..\src/interruptions.c ****                 }
 256:..\src/interruptions.c ****                 break;
 433              		.loc 1 256 0
 434 01bc 00BF     		nop
 435              	.L8:
 154:..\src/interruptions.c ****         // 100 - estimated maximum number of packets we can read without blocking firmware executio
 436              		.loc 1 154 0
 437 01be FFF7FEFF 		bl	UART_RS485_GetRxBufferSize
 438 01c2 0346     		mov	r3, r0
 439 01c4 002B     		cmp	r3, #0
 440 01c6 03D0     		beq	.L29
 154:..\src/interruptions.c ****         // 100 - estimated maximum number of packets we can read without blocking firmware executio
 441              		.loc 1 154 0 is_stmt 0 discriminator 1
 442 01c8 BB79     		ldrb	r3, [r7, #6]	@ zero_extendqisi2
 443 01ca 632B     		cmp	r3, #99
 444 01cc 7FF620AF 		bls	.L28
 445              	.L29:
 257:..\src/interruptions.c ****         }
 258:..\src/interruptions.c ****     }
 259:..\src/interruptions.c **** }
 446              		.loc 1 259 0 is_stmt 1
 447 01d0 00BF     		nop
 448 01d2 0837     		adds	r7, r7, #8
 449              		.cfi_def_cfa_offset 8
 450 01d4 BD46     		mov	sp, r7
 451              		.cfi_def_cfa_register 13
 452              		@ sp needed
 453 01d6 80BD     		pop	{r7, pc}
 454              	.L32:
 455              		.align	2
 456              	.L31:
 457 01d8 00000000 		.word	state.10410
 458 01dc 04000000 		.word	rx_queue.10414
 459 01e0 00000000 		.word	c_mem
 460 01e4 07000000 		.word	data_packet_length.10412
 461 01e8 08000000 		.word	data_packet_index.10411
 462 01ec 0C000000 		.word	data_packet_buffer.10413
 463 01f0 00000000 		.word	g_rx
 464              		.cfi_endproc
 465              	.LFE66:
 466              		.size	interrupt_manager, .-interrupt_manager
 467              		.global	__aeabi_i2f
 468              		.global	__aeabi_fdiv
 469              		.section	.text.function_scheduler,"ax",%progbits
 470              		.align	2
 471              		.global	function_scheduler
 472              		.thumb
 473              		.thumb_func
 474              		.type	function_scheduler, %function
 475              	function_scheduler:
 476              	.LFB67:
 260:..\src/interruptions.c **** //==============================================================================
 261:..\src/interruptions.c **** //                                                            FUNCTION SCHEDULER
ARM GAS  C:\Users\Mattia\AppData\Local\Temp\cclAPrfh.s 			page 14


 262:..\src/interruptions.c **** //==============================================================================
 263:..\src/interruptions.c **** // Call all the function with the right frequency
 264:..\src/interruptions.c **** //==============================================================================
 265:..\src/interruptions.c **** // Base frequency 1000 Hz
 266:..\src/interruptions.c **** //==============================================================================
 267:..\src/interruptions.c **** 
 268:..\src/interruptions.c **** void function_scheduler(void) {
 477              		.loc 1 268 0
 478              		.cfi_startproc
 479              		@ args = 0, pretend = 0, frame = 2504
 480              		@ frame_needed = 1, uses_anonymous_args = 0
 481 0000 B0B5     		push	{r4, r5, r7, lr}
 482              		.cfi_def_cfa_offset 16
 483              		.cfi_offset 4, -16
 484              		.cfi_offset 5, -12
 485              		.cfi_offset 7, -8
 486              		.cfi_offset 14, -4
 487 0002 ADF6C81D 		subw	sp, sp, #2504
 488              		.cfi_def_cfa_offset 2520
 489 0006 00AF     		add	r7, sp, #0
 490              		.cfi_def_cfa_register 7
 269:..\src/interruptions.c ****  
 270:..\src/interruptions.c ****     static uint16 counter_calibration = DIV_INIT_VALUE;
 271:..\src/interruptions.c ****     static uint16 counter_tension_func = DIV_INIT_VALUE;
 272:..\src/interruptions.c ****     char info_[2500] = "";
 491              		.loc 1 272 0
 492 0008 3B46     		mov	r3, r7
 493 000a 0022     		movs	r2, #0
 494 000c 1A60     		str	r2, [r3]
 495 000e 0433     		adds	r3, r3, #4
 496 0010 4FF41C62 		mov	r2, #2496
 497 0014 0021     		movs	r1, #0
 498 0016 1846     		mov	r0, r3
 499 0018 FFF7FEFF 		bl	memset
 273:..\src/interruptions.c ****     
 274:..\src/interruptions.c ****     uint8 MOTOR_IDX = 0;
 500              		.loc 1 274 0
 501 001c 0023     		movs	r3, #0
 502 001e 87F8C639 		strb	r3, [r7, #2502]
 275:..\src/interruptions.c ****     uint8 SECOND_MOTOR_IDX = 1;
 503              		.loc 1 275 0
 504 0022 0123     		movs	r3, #1
 505 0024 87F8C539 		strb	r3, [r7, #2501]
 276:..\src/interruptions.c ****     
 277:..\src/interruptions.c ****     MY_TIMER_REG_Write(0x00);
 506              		.loc 1 277 0
 507 0028 0020     		movs	r0, #0
 508 002a FFF7FEFF 		bl	MY_TIMER_REG_Write
 278:..\src/interruptions.c ****     timer_value0 = (uint32)MY_TIMER_ReadCounter();
 509              		.loc 1 278 0
 510 002e FFF7FEFF 		bl	MY_TIMER_ReadCounter
 511 0032 0346     		mov	r3, r0
 512 0034 1A46     		mov	r2, r3
 513 0036 A64B     		ldr	r3, .L78
 514 0038 1A80     		strh	r2, [r3]	@ movhi
 279:..\src/interruptions.c **** 
 280:..\src/interruptions.c ****     // Start ADC Conversion, SOC = 1
ARM GAS  C:\Users\Mattia\AppData\Local\Temp\cclAPrfh.s 			page 15


 281:..\src/interruptions.c **** 
 282:..\src/interruptions.c ****     ADC_SOC_Write(0x01); 
 515              		.loc 1 282 0
 516 003a 0120     		movs	r0, #1
 517 003c FFF7FEFF 		bl	ADC_SOC_Write
 283:..\src/interruptions.c ****     
 284:..\src/interruptions.c ****     // Check Interrupt 
 285:..\src/interruptions.c **** 
 286:..\src/interruptions.c ****     if (interrupt_flag){
 518              		.loc 1 286 0
 519 0040 A44B     		ldr	r3, .L78+4
 520 0042 1B78     		ldrb	r3, [r3]	@ zero_extendqisi2
 521 0044 002B     		cmp	r3, #0
 522 0046 04D0     		beq	.L34
 287:..\src/interruptions.c ****         interrupt_flag = FALSE;
 523              		.loc 1 287 0
 524 0048 A24B     		ldr	r3, .L78+4
 525 004a 0022     		movs	r2, #0
 526 004c 1A70     		strb	r2, [r3]
 288:..\src/interruptions.c ****         interrupt_manager();
 527              		.loc 1 288 0
 528 004e FFF7FEFF 		bl	interrupt_manager
 529              	.L34:
 289:..\src/interruptions.c ****     }
 290:..\src/interruptions.c ****     
 291:..\src/interruptions.c ****     switch(c_mem.dev.dev_type){
 530              		.loc 1 291 0
 531 0052 A14B     		ldr	r3, .L78+8
 532 0054 93F8AC30 		ldrb	r3, [r3, #172]	@ zero_extendqisi2
 533 0058 032B     		cmp	r3, #3
 534 005a 00F2AC81 		bhi	.L35
 535 005e 01A2     		adr	r2, .L37
 536 0060 52F823F0 		ldr	pc, [r2, r3, lsl #2]
 537              		.p2align 2
 538              	.L37:
 539 0064 75000000 		.word	.L36+1
 540 0068 35010000 		.word	.L38+1
 541 006c A9020000 		.word	.L39+1
 542 0070 A9020000 		.word	.L39+1
 543              		.p2align 1
 544              	.L36:
 292:..\src/interruptions.c ****         case SOFTHAND_PRO:
 293:..\src/interruptions.c ****         
 294:..\src/interruptions.c ****             //---------------------------------- Get Encoders
 295:..\src/interruptions.c ****             
 296:..\src/interruptions.c ****             // Get CS0 encoder line for RIGHT HAND and CS1 line for LEFT HAND
 297:..\src/interruptions.c ****             if (N_Encoder_Line_Connected[c_mem.motor[MOTOR_IDX].encoder_line] > 0) {
 545              		.loc 1 297 0
 546 0074 97F8C629 		ldrb	r2, [r7, #2502]	@ zero_extendqisi2
 547 0078 9749     		ldr	r1, .L78+8
 548 007a 1346     		mov	r3, r2
 549 007c DB00     		lsls	r3, r3, #3
 550 007e 9B1A     		subs	r3, r3, r2
 551 0080 1B01     		lsls	r3, r3, #4
 552 0082 0B44     		add	r3, r3, r1
 553 0084 03F58873 		add	r3, r3, #272
 554 0088 1B78     		ldrb	r3, [r3]	@ zero_extendqisi2
ARM GAS  C:\Users\Mattia\AppData\Local\Temp\cclAPrfh.s 			page 16


 555 008a 1A46     		mov	r2, r3
 556 008c 934B     		ldr	r3, .L78+12
 557 008e 9B5C     		ldrb	r3, [r3, r2]	@ zero_extendqisi2
 558 0090 002B     		cmp	r3, #0
 559 0092 25D0     		beq	.L40
 298:..\src/interruptions.c ****                 // Change CS only if there are attached encoders on the line
 299:..\src/interruptions.c ****                 Change_CS_EncoderLine(c_mem.motor[MOTOR_IDX].encoder_line);
 560              		.loc 1 299 0
 561 0094 97F8C629 		ldrb	r2, [r7, #2502]	@ zero_extendqisi2
 562 0098 8F49     		ldr	r1, .L78+8
 563 009a 1346     		mov	r3, r2
 564 009c DB00     		lsls	r3, r3, #3
 565 009e 9B1A     		subs	r3, r3, r2
 566 00a0 1B01     		lsls	r3, r3, #4
 567 00a2 0B44     		add	r3, r3, r1
 568 00a4 03F58873 		add	r3, r3, #272
 569 00a8 1B78     		ldrb	r3, [r3]	@ zero_extendqisi2
 570 00aa 1846     		mov	r0, r3
 571 00ac FFF7FEFF 		bl	Change_CS_EncoderLine
 300:..\src/interruptions.c ****                 
 301:..\src/interruptions.c ****                 encoder_reading_SPI(c_mem.motor[MOTOR_IDX].encoder_line, 0);    // assoc_motor = 0 
 572              		.loc 1 301 0
 573 00b0 97F8C629 		ldrb	r2, [r7, #2502]	@ zero_extendqisi2
 574 00b4 8849     		ldr	r1, .L78+8
 575 00b6 1346     		mov	r3, r2
 576 00b8 DB00     		lsls	r3, r3, #3
 577 00ba 9B1A     		subs	r3, r3, r2
 578 00bc 1B01     		lsls	r3, r3, #4
 579 00be 0B44     		add	r3, r3, r1
 580 00c0 03F58873 		add	r3, r3, #272
 581 00c4 1B78     		ldrb	r3, [r3]	@ zero_extendqisi2
 582 00c6 0021     		movs	r1, #0
 583 00c8 1846     		mov	r0, r3
 584 00ca FFF7FEFF 		bl	encoder_reading_SPI
 302:..\src/interruptions.c **** 
 303:..\src/interruptions.c ****                 // Check Interrupt     
 304:..\src/interruptions.c ****                 
 305:..\src/interruptions.c ****                 if (interrupt_flag){
 585              		.loc 1 305 0
 586 00ce 814B     		ldr	r3, .L78+4
 587 00d0 1B78     		ldrb	r3, [r3]	@ zero_extendqisi2
 588 00d2 002B     		cmp	r3, #0
 589 00d4 04D0     		beq	.L40
 306:..\src/interruptions.c ****                     interrupt_flag = FALSE;
 590              		.loc 1 306 0
 591 00d6 7F4B     		ldr	r3, .L78+4
 592 00d8 0022     		movs	r2, #0
 593 00da 1A70     		strb	r2, [r3]
 307:..\src/interruptions.c ****                     interrupt_manager();
 594              		.loc 1 307 0
 595 00dc FFF7FEFF 		bl	interrupt_manager
 596              	.L40:
 308:..\src/interruptions.c ****                 }
 309:..\src/interruptions.c ****             }
 310:..\src/interruptions.c ****             
 311:..\src/interruptions.c ****             //---------------------------------- Control SH Motor
 312:..\src/interruptions.c ****             
ARM GAS  C:\Users\Mattia\AppData\Local\Temp\cclAPrfh.s 			page 17


 313:..\src/interruptions.c ****             motor_control_SH();
 597              		.loc 1 313 0
 598 00e0 FFF7FEFF 		bl	motor_control_SH
 314:..\src/interruptions.c ****             
 315:..\src/interruptions.c ****             // Check external reference before processing other serial data and right after motor c
 316:..\src/interruptions.c ****             if (c_mem.motor[MOTOR_IDX].not_revers_motor_flag == TRUE) {
 599              		.loc 1 316 0
 600 00e4 97F8C629 		ldrb	r2, [r7, #2502]	@ zero_extendqisi2
 601 00e8 7B49     		ldr	r1, .L78+8
 602 00ea 1346     		mov	r3, r2
 603 00ec DB00     		lsls	r3, r3, #3
 604 00ee 9B1A     		subs	r3, r3, r2
 605 00f0 1B01     		lsls	r3, r3, #4
 606 00f2 0B44     		add	r3, r3, r1
 607 00f4 03F58973 		add	r3, r3, #274
 608 00f8 1B78     		ldrb	r3, [r3]	@ zero_extendqisi2
 609 00fa 012B     		cmp	r3, #1
 610 00fc 0FD1     		bne	.L41
 317:..\src/interruptions.c ****                 if (c_mem.motor[MOTOR_IDX].input_mode == INPUT_MODE_EXTERNAL) {
 611              		.loc 1 317 0
 612 00fe 97F8C629 		ldrb	r2, [r7, #2502]	@ zero_extendqisi2
 613 0102 7549     		ldr	r1, .L78+8
 614 0104 1346     		mov	r3, r2
 615 0106 DB00     		lsls	r3, r3, #3
 616 0108 9B1A     		subs	r3, r3, r2
 617 010a 1B01     		lsls	r3, r3, #4
 618 010c 0B44     		add	r3, r3, r1
 619 010e 03F58773 		add	r3, r3, #270
 620 0112 1B78     		ldrb	r3, [r3]	@ zero_extendqisi2
 621 0114 002B     		cmp	r3, #0
 622 0116 02D1     		bne	.L41
 318:..\src/interruptions.c ****                     change_ext_ref_flag = FALSE;
 623              		.loc 1 318 0
 624 0118 714B     		ldr	r3, .L78+16
 625 011a 0022     		movs	r2, #0
 626 011c 1A70     		strb	r2, [r3]
 627              	.L41:
 319:..\src/interruptions.c ****                 }   
 320:..\src/interruptions.c ****             }
 321:..\src/interruptions.c **** 
 322:..\src/interruptions.c ****             // Check Interrupt 
 323:..\src/interruptions.c **** 
 324:..\src/interruptions.c ****             if (interrupt_flag){
 628              		.loc 1 324 0
 629 011e 6D4B     		ldr	r3, .L78+4
 630 0120 1B78     		ldrb	r3, [r3]	@ zero_extendqisi2
 631 0122 002B     		cmp	r3, #0
 632 0124 00F03A81 		beq	.L75
 325:..\src/interruptions.c ****                 interrupt_flag = FALSE;
 633              		.loc 1 325 0
 634 0128 6A4B     		ldr	r3, .L78+4
 635 012a 0022     		movs	r2, #0
 636 012c 1A70     		strb	r2, [r3]
 326:..\src/interruptions.c ****                 interrupt_manager();
 637              		.loc 1 326 0
 638 012e FFF7FEFF 		bl	interrupt_manager
 327:..\src/interruptions.c ****             }
ARM GAS  C:\Users\Mattia\AppData\Local\Temp\cclAPrfh.s 			page 18


 328:..\src/interruptions.c ****             break;
 639              		.loc 1 328 0
 640 0132 33E1     		b	.L75
 641              	.L38:
 642              	.LBB2:
 329:..\src/interruptions.c ****             
 330:..\src/interruptions.c ****         case GENERIC_2_MOTORS:
 331:..\src/interruptions.c ****             
 332:..\src/interruptions.c ****             //---------------------------------- Get Encoders
 333:..\src/interruptions.c ****             for (uint8 i = 0; i < N_ENCODER_LINE_MAX; i++) {
 643              		.loc 1 333 0
 644 0134 0023     		movs	r3, #0
 645 0136 87F8C739 		strb	r3, [r7, #2503]
 646 013a 53E0     		b	.L43
 647              	.L48:
 334:..\src/interruptions.c ****                 if (N_Encoder_Line_Connected[i] > 0) {
 648              		.loc 1 334 0
 649 013c 97F8C739 		ldrb	r3, [r7, #2503]	@ zero_extendqisi2
 650 0140 664A     		ldr	r2, .L78+12
 651 0142 D35C     		ldrb	r3, [r2, r3]	@ zero_extendqisi2
 652 0144 002B     		cmp	r3, #0
 653 0146 48D0     		beq	.L44
 335:..\src/interruptions.c ****                     // Change CS only if there are attached encoders on the line
 336:..\src/interruptions.c ****                     Change_CS_EncoderLine(i);
 654              		.loc 1 336 0
 655 0148 97F8C739 		ldrb	r3, [r7, #2503]	@ zero_extendqisi2
 656 014c 1846     		mov	r0, r3
 657 014e FFF7FEFF 		bl	Change_CS_EncoderLine
 337:..\src/interruptions.c ****                               
 338:..\src/interruptions.c ****                     if (c_mem.motor[MOTOR_IDX].encoder_line == i) {
 658              		.loc 1 338 0
 659 0152 97F8C629 		ldrb	r2, [r7, #2502]	@ zero_extendqisi2
 660 0156 6049     		ldr	r1, .L78+8
 661 0158 1346     		mov	r3, r2
 662 015a DB00     		lsls	r3, r3, #3
 663 015c 9B1A     		subs	r3, r3, r2
 664 015e 1B01     		lsls	r3, r3, #4
 665 0160 0B44     		add	r3, r3, r1
 666 0162 03F58873 		add	r3, r3, #272
 667 0166 1B78     		ldrb	r3, [r3]	@ zero_extendqisi2
 668 0168 97F8C729 		ldrb	r2, [r7, #2503]	@ zero_extendqisi2
 669 016c 9A42     		cmp	r2, r3
 670 016e 08D1     		bne	.L45
 339:..\src/interruptions.c ****                         // Check if the line is used to control motor or not
 340:..\src/interruptions.c ****                         encoder_reading_SPI(i, MOTOR_IDX); 
 671              		.loc 1 340 0
 672 0170 97F8C629 		ldrb	r2, [r7, #2502]	@ zero_extendqisi2
 673 0174 97F8C739 		ldrb	r3, [r7, #2503]	@ zero_extendqisi2
 674 0178 1146     		mov	r1, r2
 675 017a 1846     		mov	r0, r3
 676 017c FFF7FEFF 		bl	encoder_reading_SPI
 677 0180 22E0     		b	.L46
 678              	.L45:
 341:..\src/interruptions.c ****                     }
 342:..\src/interruptions.c ****                     else {
 343:..\src/interruptions.c ****                         if (c_mem.motor[SECOND_MOTOR_IDX].encoder_line == i) {
 679              		.loc 1 343 0
ARM GAS  C:\Users\Mattia\AppData\Local\Temp\cclAPrfh.s 			page 19


 680 0182 97F8C529 		ldrb	r2, [r7, #2501]	@ zero_extendqisi2
 681 0186 5449     		ldr	r1, .L78+8
 682 0188 1346     		mov	r3, r2
 683 018a DB00     		lsls	r3, r3, #3
 684 018c 9B1A     		subs	r3, r3, r2
 685 018e 1B01     		lsls	r3, r3, #4
 686 0190 0B44     		add	r3, r3, r1
 687 0192 03F58873 		add	r3, r3, #272
 688 0196 1B78     		ldrb	r3, [r3]	@ zero_extendqisi2
 689 0198 97F8C729 		ldrb	r2, [r7, #2503]	@ zero_extendqisi2
 690 019c 9A42     		cmp	r2, r3
 691 019e 08D1     		bne	.L47
 344:..\src/interruptions.c ****                             // Check if the line is used to control motor or not
 345:..\src/interruptions.c ****                             encoder_reading_SPI(i, SECOND_MOTOR_IDX); 
 692              		.loc 1 345 0
 693 01a0 97F8C529 		ldrb	r2, [r7, #2501]	@ zero_extendqisi2
 694 01a4 97F8C739 		ldrb	r3, [r7, #2503]	@ zero_extendqisi2
 695 01a8 1146     		mov	r1, r2
 696 01aa 1846     		mov	r0, r3
 697 01ac FFF7FEFF 		bl	encoder_reading_SPI
 698 01b0 0AE0     		b	.L46
 699              	.L47:
 346:..\src/interruptions.c ****                         }
 347:..\src/interruptions.c ****                         else {
 348:..\src/interruptions.c ****                             // Get only raw encoder value
 349:..\src/interruptions.c ****                             ReadEncoderLine(N_Encoder_Line_Connected[i], i);
 700              		.loc 1 349 0
 701 01b2 97F8C739 		ldrb	r3, [r7, #2503]	@ zero_extendqisi2
 702 01b6 494A     		ldr	r2, .L78+12
 703 01b8 D35C     		ldrb	r3, [r2, r3]	@ zero_extendqisi2
 704 01ba 1A46     		mov	r2, r3
 705 01bc 97F8C739 		ldrb	r3, [r7, #2503]	@ zero_extendqisi2
 706 01c0 1946     		mov	r1, r3
 707 01c2 1046     		mov	r0, r2
 708 01c4 FFF7FEFF 		bl	ReadEncoderLine
 709              	.L46:
 350:..\src/interruptions.c ****                             // Values are stored in Encoder_Value[i] vector
 351:..\src/interruptions.c ****                         }
 352:..\src/interruptions.c ****                     }
 353:..\src/interruptions.c **** 
 354:..\src/interruptions.c ****                     // Check Interrupt     
 355:..\src/interruptions.c ****                     
 356:..\src/interruptions.c ****                     if (interrupt_flag){
 710              		.loc 1 356 0
 711 01c8 424B     		ldr	r3, .L78+4
 712 01ca 1B78     		ldrb	r3, [r3]	@ zero_extendqisi2
 713 01cc 002B     		cmp	r3, #0
 714 01ce 04D0     		beq	.L44
 357:..\src/interruptions.c ****                         interrupt_flag = FALSE;
 715              		.loc 1 357 0
 716 01d0 404B     		ldr	r3, .L78+4
 717 01d2 0022     		movs	r2, #0
 718 01d4 1A70     		strb	r2, [r3]
 358:..\src/interruptions.c ****                         interrupt_manager();
 719              		.loc 1 358 0
 720 01d6 FFF7FEFF 		bl	interrupt_manager
 721              	.L44:
ARM GAS  C:\Users\Mattia\AppData\Local\Temp\cclAPrfh.s 			page 20


 333:..\src/interruptions.c ****                 if (N_Encoder_Line_Connected[i] > 0) {
 722              		.loc 1 333 0 discriminator 2
 723 01da 97F8C739 		ldrb	r3, [r7, #2503]	@ zero_extendqisi2
 724 01de 0133     		adds	r3, r3, #1
 725 01e0 87F8C739 		strb	r3, [r7, #2503]
 726              	.L43:
 333:..\src/interruptions.c ****                 if (N_Encoder_Line_Connected[i] > 0) {
 727              		.loc 1 333 0 is_stmt 0 discriminator 1
 728 01e4 97F8C739 		ldrb	r3, [r7, #2503]	@ zero_extendqisi2
 729 01e8 012B     		cmp	r3, #1
 730 01ea A7D9     		bls	.L48
 731              	.LBE2:
 359:..\src/interruptions.c ****                     }
 360:..\src/interruptions.c ****                 }
 361:..\src/interruptions.c ****             } 
 362:..\src/interruptions.c ****             
 363:..\src/interruptions.c ****             //---------------------------------- Control Motor
 364:..\src/interruptions.c ****             
 365:..\src/interruptions.c ****             // Control MOTOR_IDX motor (always active) according to motor driver type
 366:..\src/interruptions.c ****             motor_control_generic(MOTOR_IDX);
 732              		.loc 1 366 0 is_stmt 1
 733 01ec 97F8C639 		ldrb	r3, [r7, #2502]	@ zero_extendqisi2
 734 01f0 1846     		mov	r0, r3
 735 01f2 FFF7FEFF 		bl	motor_control_generic
 367:..\src/interruptions.c ****             
 368:..\src/interruptions.c ****             // Check external reference before processing other serial data and right after motor c
 369:..\src/interruptions.c ****             if (c_mem.motor[MOTOR_IDX].not_revers_motor_flag == TRUE) {
 736              		.loc 1 369 0
 737 01f6 97F8C629 		ldrb	r2, [r7, #2502]	@ zero_extendqisi2
 738 01fa 3749     		ldr	r1, .L78+8
 739 01fc 1346     		mov	r3, r2
 740 01fe DB00     		lsls	r3, r3, #3
 741 0200 9B1A     		subs	r3, r3, r2
 742 0202 1B01     		lsls	r3, r3, #4
 743 0204 0B44     		add	r3, r3, r1
 744 0206 03F58973 		add	r3, r3, #274
 745 020a 1B78     		ldrb	r3, [r3]	@ zero_extendqisi2
 746 020c 012B     		cmp	r3, #1
 747 020e 0FD1     		bne	.L49
 370:..\src/interruptions.c ****                 if (c_mem.motor[MOTOR_IDX].input_mode == INPUT_MODE_EXTERNAL) {
 748              		.loc 1 370 0
 749 0210 97F8C629 		ldrb	r2, [r7, #2502]	@ zero_extendqisi2
 750 0214 3049     		ldr	r1, .L78+8
 751 0216 1346     		mov	r3, r2
 752 0218 DB00     		lsls	r3, r3, #3
 753 021a 9B1A     		subs	r3, r3, r2
 754 021c 1B01     		lsls	r3, r3, #4
 755 021e 0B44     		add	r3, r3, r1
 756 0220 03F58773 		add	r3, r3, #270
 757 0224 1B78     		ldrb	r3, [r3]	@ zero_extendqisi2
 758 0226 002B     		cmp	r3, #0
 759 0228 02D1     		bne	.L49
 371:..\src/interruptions.c ****                     change_ext_ref_flag = FALSE;
 760              		.loc 1 371 0
 761 022a 2D4B     		ldr	r3, .L78+16
 762 022c 0022     		movs	r2, #0
 763 022e 1A70     		strb	r2, [r3]
ARM GAS  C:\Users\Mattia\AppData\Local\Temp\cclAPrfh.s 			page 21


 764              	.L49:
 372:..\src/interruptions.c ****                 }   
 373:..\src/interruptions.c ****             }
 374:..\src/interruptions.c ****             
 375:..\src/interruptions.c ****             // Check Interrupt 
 376:..\src/interruptions.c **** 
 377:..\src/interruptions.c ****             if (interrupt_flag){
 765              		.loc 1 377 0
 766 0230 284B     		ldr	r3, .L78+4
 767 0232 1B78     		ldrb	r3, [r3]	@ zero_extendqisi2
 768 0234 002B     		cmp	r3, #0
 769 0236 04D0     		beq	.L50
 378:..\src/interruptions.c ****                 interrupt_flag = FALSE;
 770              		.loc 1 378 0
 771 0238 264B     		ldr	r3, .L78+4
 772 023a 0022     		movs	r2, #0
 773 023c 1A70     		strb	r2, [r3]
 379:..\src/interruptions.c ****                 interrupt_manager();
 774              		.loc 1 379 0
 775 023e FFF7FEFF 		bl	interrupt_manager
 776              	.L50:
 380:..\src/interruptions.c ****             }
 381:..\src/interruptions.c ****             
 382:..\src/interruptions.c ****             // Control 2nd motor (if necessary) according to motor driver type
 383:..\src/interruptions.c ****             if (c_mem.dev.use_2nd_motor_flag == TRUE){
 777              		.loc 1 383 0
 778 0242 254B     		ldr	r3, .L78+8
 779 0244 93F8A930 		ldrb	r3, [r3, #169]	@ zero_extendqisi2
 780 0248 012B     		cmp	r3, #1
 781 024a 40F0A980 		bne	.L76
 384:..\src/interruptions.c ****                 motor_control_generic(SECOND_MOTOR_IDX);
 782              		.loc 1 384 0
 783 024e 97F8C539 		ldrb	r3, [r7, #2501]	@ zero_extendqisi2
 784 0252 1846     		mov	r0, r3
 785 0254 FFF7FEFF 		bl	motor_control_generic
 385:..\src/interruptions.c ****                 
 386:..\src/interruptions.c ****                 // Check external reference before processing other serial data and right after mot
 387:..\src/interruptions.c ****                 if (c_mem.motor[SECOND_MOTOR_IDX].not_revers_motor_flag == TRUE) {
 786              		.loc 1 387 0
 787 0258 97F8C529 		ldrb	r2, [r7, #2501]	@ zero_extendqisi2
 788 025c 1E49     		ldr	r1, .L78+8
 789 025e 1346     		mov	r3, r2
 790 0260 DB00     		lsls	r3, r3, #3
 791 0262 9B1A     		subs	r3, r3, r2
 792 0264 1B01     		lsls	r3, r3, #4
 793 0266 0B44     		add	r3, r3, r1
 794 0268 03F58973 		add	r3, r3, #274
 795 026c 1B78     		ldrb	r3, [r3]	@ zero_extendqisi2
 796 026e 012B     		cmp	r3, #1
 797 0270 0FD1     		bne	.L52
 388:..\src/interruptions.c ****                     if (c_mem.motor[SECOND_MOTOR_IDX].input_mode == INPUT_MODE_EXTERNAL) {
 798              		.loc 1 388 0
 799 0272 97F8C529 		ldrb	r2, [r7, #2501]	@ zero_extendqisi2
 800 0276 1849     		ldr	r1, .L78+8
 801 0278 1346     		mov	r3, r2
 802 027a DB00     		lsls	r3, r3, #3
 803 027c 9B1A     		subs	r3, r3, r2
ARM GAS  C:\Users\Mattia\AppData\Local\Temp\cclAPrfh.s 			page 22


 804 027e 1B01     		lsls	r3, r3, #4
 805 0280 0B44     		add	r3, r3, r1
 806 0282 03F58773 		add	r3, r3, #270
 807 0286 1B78     		ldrb	r3, [r3]	@ zero_extendqisi2
 808 0288 002B     		cmp	r3, #0
 809 028a 02D1     		bne	.L52
 389:..\src/interruptions.c ****                         change_ext_ref_flag = FALSE;
 810              		.loc 1 389 0
 811 028c 144B     		ldr	r3, .L78+16
 812 028e 0022     		movs	r2, #0
 813 0290 1A70     		strb	r2, [r3]
 814              	.L52:
 390:..\src/interruptions.c ****                     }   
 391:..\src/interruptions.c ****                 }
 392:..\src/interruptions.c ****                 
 393:..\src/interruptions.c ****                 // Check Interrupt 
 394:..\src/interruptions.c **** 
 395:..\src/interruptions.c ****                 if (interrupt_flag){
 815              		.loc 1 395 0
 816 0292 104B     		ldr	r3, .L78+4
 817 0294 1B78     		ldrb	r3, [r3]	@ zero_extendqisi2
 818 0296 002B     		cmp	r3, #0
 819 0298 00F08280 		beq	.L76
 396:..\src/interruptions.c ****                     interrupt_flag = FALSE;
 820              		.loc 1 396 0
 821 029c 0D4B     		ldr	r3, .L78+4
 822 029e 0022     		movs	r2, #0
 823 02a0 1A70     		strb	r2, [r3]
 397:..\src/interruptions.c ****                     interrupt_manager();
 824              		.loc 1 397 0
 825 02a2 FFF7FEFF 		bl	interrupt_manager
 398:..\src/interruptions.c ****                 }
 399:..\src/interruptions.c ****             }  
 400:..\src/interruptions.c ****             break;
 826              		.loc 1 400 0
 827 02a6 7BE0     		b	.L76
 828              	.L39:
 401:..\src/interruptions.c ****             
 402:..\src/interruptions.c ****         case AIR_CHAMBERS_FB: case OTBK_ACT_WRIST_MS:
 403:..\src/interruptions.c ****             
 404:..\src/interruptions.c ****             //---------------------------------- Force Feedback control
 405:..\src/interruptions.c ****             if (master_mode && c_mem.MS.slave_comm_active) {
 829              		.loc 1 405 0
 830 02a8 0E4B     		ldr	r3, .L78+20
 831 02aa 1B78     		ldrb	r3, [r3]	@ zero_extendqisi2
 832 02ac 002B     		cmp	r3, #0
 833 02ae 3BD0     		beq	.L53
 834              		.loc 1 405 0 is_stmt 0 discriminator 1
 835 02b0 094B     		ldr	r3, .L78+8
 836 02b2 93F8B032 		ldrb	r3, [r3, #688]	@ zero_extendqisi2
 837 02b6 002B     		cmp	r3, #0
 838 02b8 36D0     		beq	.L53
 406:..\src/interruptions.c ****                 
 407:..\src/interruptions.c ****                 if (c_mem.dev.dev_type == AIR_CHAMBERS_FB){
 839              		.loc 1 407 0 is_stmt 1
 840 02ba 074B     		ldr	r3, .L78+8
 841 02bc 93F8AC30 		ldrb	r3, [r3, #172]	@ zero_extendqisi2
ARM GAS  C:\Users\Mattia\AppData\Local\Temp\cclAPrfh.s 			page 23


 842 02c0 022B     		cmp	r3, #2
 843 02c2 11D1     		bne	.L54
 408:..\src/interruptions.c ****                     air_chambers_control(SECOND_MOTOR_IDX);
 844              		.loc 1 408 0
 845 02c4 97F8C539 		ldrb	r3, [r7, #2501]	@ zero_extendqisi2
 846 02c8 1846     		mov	r0, r3
 847 02ca FFF7FEFF 		bl	air_chambers_control
 848 02ce 10E0     		b	.L55
 849              	.L79:
 850              		.align	2
 851              	.L78:
 852 02d0 00000000 		.word	timer_value0
 853 02d4 00000000 		.word	interrupt_flag
 854 02d8 00000000 		.word	c_mem
 855 02dc 00000000 		.word	N_Encoder_Line_Connected
 856 02e0 00000000 		.word	change_ext_ref_flag
 857 02e4 00000000 		.word	master_mode
 858              	.L54:
 409:..\src/interruptions.c ****                 }
 410:..\src/interruptions.c ****                 else{ //OTBK_ACT_WRIST_MS
 411:..\src/interruptions.c ****                     otbk_act_wrist_control(SECOND_MOTOR_IDX);
 859              		.loc 1 411 0
 860 02e8 97F8C539 		ldrb	r3, [r7, #2501]	@ zero_extendqisi2
 861 02ec 1846     		mov	r0, r3
 862 02ee FFF7FEFF 		bl	otbk_act_wrist_control
 863              	.L55:
 412:..\src/interruptions.c ****                 }
 413:..\src/interruptions.c **** 
 414:..\src/interruptions.c ****                 // Check Interrupt 
 415:..\src/interruptions.c **** 
 416:..\src/interruptions.c ****                 if (interrupt_flag){
 864              		.loc 1 416 0
 865 02f2 2C4B     		ldr	r3, .L80
 866 02f4 1B78     		ldrb	r3, [r3]	@ zero_extendqisi2
 867 02f6 002B     		cmp	r3, #0
 868 02f8 04D0     		beq	.L56
 417:..\src/interruptions.c ****                     interrupt_flag = FALSE;
 869              		.loc 1 417 0
 870 02fa 2A4B     		ldr	r3, .L80
 871 02fc 0022     		movs	r2, #0
 872 02fe 1A70     		strb	r2, [r3]
 418:..\src/interruptions.c ****                     interrupt_manager();
 873              		.loc 1 418 0
 874 0300 FFF7FEFF 		bl	interrupt_manager
 875              	.L56:
 419:..\src/interruptions.c ****                 }
 420:..\src/interruptions.c ****             
 421:..\src/interruptions.c ****                 drive_slave(SECOND_MOTOR_IDX, c_mem.MS.slave_ID);
 876              		.loc 1 421 0
 877 0304 284B     		ldr	r3, .L80+4
 878 0306 93F8B122 		ldrb	r2, [r3, #689]	@ zero_extendqisi2
 879 030a 97F8C539 		ldrb	r3, [r7, #2501]	@ zero_extendqisi2
 880 030e 1146     		mov	r1, r2
 881 0310 1846     		mov	r0, r3
 882 0312 FFF7FEFF 		bl	drive_slave
 422:..\src/interruptions.c ****             
 423:..\src/interruptions.c ****                 // Check Interrupt 
ARM GAS  C:\Users\Mattia\AppData\Local\Temp\cclAPrfh.s 			page 24


 424:..\src/interruptions.c **** 
 425:..\src/interruptions.c ****                 if (interrupt_flag){
 883              		.loc 1 425 0
 884 0316 234B     		ldr	r3, .L80
 885 0318 1B78     		ldrb	r3, [r3]	@ zero_extendqisi2
 886 031a 002B     		cmp	r3, #0
 887 031c 04D0     		beq	.L53
 426:..\src/interruptions.c ****                     interrupt_flag = FALSE;
 888              		.loc 1 426 0
 889 031e 214B     		ldr	r3, .L80
 890 0320 0022     		movs	r2, #0
 891 0322 1A70     		strb	r2, [r3]
 427:..\src/interruptions.c ****                     interrupt_manager();
 892              		.loc 1 427 0
 893 0324 FFF7FEFF 		bl	interrupt_manager
 894              	.L53:
 428:..\src/interruptions.c ****                 }
 429:..\src/interruptions.c ****             }
 430:..\src/interruptions.c ****             if (!master_mode){
 895              		.loc 1 430 0
 896 0328 204B     		ldr	r3, .L80+8
 897 032a 1B78     		ldrb	r3, [r3]	@ zero_extendqisi2
 898 032c 002B     		cmp	r3, #0
 899 032e 11D1     		bne	.L57
 431:..\src/interruptions.c ****                 
 432:..\src/interruptions.c ****                 if (c_mem.MS.slave_comm_active) {
 900              		.loc 1 432 0
 901 0330 1D4B     		ldr	r3, .L80+4
 902 0332 93F8B032 		ldrb	r3, [r3, #688]	@ zero_extendqisi2
 903 0336 002B     		cmp	r3, #0
 904 0338 01D0     		beq	.L58
 433:..\src/interruptions.c ****                     // Stop feedback motors
 434:..\src/interruptions.c ****                     stop_master_device();
 905              		.loc 1 434 0
 906 033a FFF7FEFF 		bl	stop_master_device
 907              	.L58:
 435:..\src/interruptions.c ****                 }
 436:..\src/interruptions.c ****                 // Disable slave or motors
 437:..\src/interruptions.c ****                 deactivate_slaves();
 908              		.loc 1 437 0
 909 033e FFF7FEFF 		bl	deactivate_slaves
 438:..\src/interruptions.c ****                         
 439:..\src/interruptions.c ****                 // Check Interrupt 
 440:..\src/interruptions.c ****                 if (interrupt_flag){
 910              		.loc 1 440 0
 911 0342 184B     		ldr	r3, .L80
 912 0344 1B78     		ldrb	r3, [r3]	@ zero_extendqisi2
 913 0346 002B     		cmp	r3, #0
 914 0348 04D0     		beq	.L57
 441:..\src/interruptions.c ****                     interrupt_flag = FALSE;
 915              		.loc 1 441 0
 916 034a 164B     		ldr	r3, .L80
 917 034c 0022     		movs	r2, #0
 918 034e 1A70     		strb	r2, [r3]
 442:..\src/interruptions.c ****                     interrupt_manager();
 919              		.loc 1 442 0
 920 0350 FFF7FEFF 		bl	interrupt_manager
ARM GAS  C:\Users\Mattia\AppData\Local\Temp\cclAPrfh.s 			page 25


 921              	.L57:
 443:..\src/interruptions.c ****                 } 
 444:..\src/interruptions.c ****             }
 445:..\src/interruptions.c ****     
 446:..\src/interruptions.c ****             // Control Master device main motor 
 447:..\src/interruptions.c ****             // (e.g. in AIR_CHAMBERS_FB device controls MOTOR_IDX motor [PUMP] with PWM control)
 448:..\src/interruptions.c ****             motor_control_generic(MOTOR_IDX);
 922              		.loc 1 448 0
 923 0354 97F8C639 		ldrb	r3, [r7, #2502]	@ zero_extendqisi2
 924 0358 1846     		mov	r0, r3
 925 035a FFF7FEFF 		bl	motor_control_generic
 449:..\src/interruptions.c ****                         
 450:..\src/interruptions.c ****             // Always limit output voltage on the wrist
 451:..\src/interruptions.c ****              if (c_mem.dev.dev_type == OTBK_ACT_WRIST_MS){
 926              		.loc 1 451 0
 927 035e 124B     		ldr	r3, .L80+4
 928 0360 93F8AC30 		ldrb	r3, [r3, #172]	@ zero_extendqisi2
 929 0364 032B     		cmp	r3, #3
 930 0366 0FD1     		bne	.L59
 452:..\src/interruptions.c ****                 if (g_refNew[0].pwm > 67) // 67 (8.4V max of 2S ottobock battery) 66.6% of 12.6V
 931              		.loc 1 452 0
 932 0368 114B     		ldr	r3, .L80+12
 933 036a 9B68     		ldr	r3, [r3, #8]
 934 036c 432B     		cmp	r3, #67
 935 036e 02DD     		ble	.L60
 453:..\src/interruptions.c ****                     g_refNew[0].pwm = 67; // 67
 936              		.loc 1 453 0
 937 0370 0F4B     		ldr	r3, .L80+12
 938 0372 4322     		movs	r2, #67
 939 0374 9A60     		str	r2, [r3, #8]
 940              	.L60:
 454:..\src/interruptions.c ****                 if (g_refNew[0].pwm < -67)
 941              		.loc 1 454 0
 942 0376 0E4B     		ldr	r3, .L80+12
 943 0378 9B68     		ldr	r3, [r3, #8]
 944 037a 13F1430F 		cmn	r3, #67
 945 037e 03DA     		bge	.L59
 455:..\src/interruptions.c ****                     g_refNew[0].pwm = -67;
 946              		.loc 1 455 0
 947 0380 0B4B     		ldr	r3, .L80+12
 948 0382 6FF04202 		mvn	r2, #66
 949 0386 9A60     		str	r2, [r3, #8]
 950              	.L59:
 456:..\src/interruptions.c ****             }
 457:..\src/interruptions.c ****             
 458:..\src/interruptions.c ****             // Check Interrupt 
 459:..\src/interruptions.c **** 
 460:..\src/interruptions.c ****             if (interrupt_flag){
 951              		.loc 1 460 0
 952 0388 064B     		ldr	r3, .L80
 953 038a 1B78     		ldrb	r3, [r3]	@ zero_extendqisi2
 954 038c 002B     		cmp	r3, #0
 955 038e 11D0     		beq	.L77
 461:..\src/interruptions.c ****                 interrupt_flag = FALSE;
 956              		.loc 1 461 0
 957 0390 044B     		ldr	r3, .L80
 958 0392 0022     		movs	r2, #0
ARM GAS  C:\Users\Mattia\AppData\Local\Temp\cclAPrfh.s 			page 26


 959 0394 1A70     		strb	r2, [r3]
 462:..\src/interruptions.c ****                 interrupt_manager();
 960              		.loc 1 462 0
 961 0396 FFF7FEFF 		bl	interrupt_manager
 463:..\src/interruptions.c ****             }
 464:..\src/interruptions.c ****             
 465:..\src/interruptions.c ****             break;
 962              		.loc 1 465 0
 963 039a 0BE0     		b	.L77
 964              	.L75:
 328:..\src/interruptions.c ****             
 965              		.loc 1 328 0
 966 039c 00BF     		nop
 967 039e 0AE0     		b	.L35
 968              	.L76:
 400:..\src/interruptions.c ****             
 969              		.loc 1 400 0
 970 03a0 00BF     		nop
 971 03a2 08E0     		b	.L35
 972              	.L81:
 973              		.align	2
 974              	.L80:
 975 03a4 00000000 		.word	interrupt_flag
 976 03a8 00000000 		.word	c_mem
 977 03ac 00000000 		.word	master_mode
 978 03b0 00000000 		.word	g_refNew
 979              	.L77:
 980              		.loc 1 465 0
 981 03b4 00BF     		nop
 982              	.L35:
 466:..\src/interruptions.c ****     }
 467:..\src/interruptions.c **** 
 468:..\src/interruptions.c ****     //---------------------------------- Read conversion buffer - LOCK function
 469:..\src/interruptions.c **** 
 470:..\src/interruptions.c ****     analog_read_end();
 983              		.loc 1 470 0
 984 03b6 FFF7FEFF 		bl	analog_read_end
 471:..\src/interruptions.c **** 
 472:..\src/interruptions.c ****     if (interrupt_flag){
 985              		.loc 1 472 0
 986 03ba 844B     		ldr	r3, .L82
 987 03bc 1B78     		ldrb	r3, [r3]	@ zero_extendqisi2
 988 03be 002B     		cmp	r3, #0
 989 03c0 04D0     		beq	.L62
 473:..\src/interruptions.c ****         interrupt_flag = FALSE;
 990              		.loc 1 473 0
 991 03c2 824B     		ldr	r3, .L82
 992 03c4 0022     		movs	r2, #0
 993 03c6 1A70     		strb	r2, [r3]
 474:..\src/interruptions.c ****         interrupt_manager();
 994              		.loc 1 474 0
 995 03c8 FFF7FEFF 		bl	interrupt_manager
 996              	.L62:
 475:..\src/interruptions.c ****     }
 476:..\src/interruptions.c **** 
 477:..\src/interruptions.c ****     //---------------------------------- Control Overcurrent
 478:..\src/interruptions.c **** 
ARM GAS  C:\Users\Mattia\AppData\Local\Temp\cclAPrfh.s 			page 27


 479:..\src/interruptions.c ****     overcurrent_control();
 997              		.loc 1 479 0
 998 03cc FFF7FEFF 		bl	overcurrent_control
 480:..\src/interruptions.c ****     
 481:..\src/interruptions.c ****     // Check Interrupt 
 482:..\src/interruptions.c ****     
 483:..\src/interruptions.c ****     if (interrupt_flag){
 999              		.loc 1 483 0
 1000 03d0 7E4B     		ldr	r3, .L82
 1001 03d2 1B78     		ldrb	r3, [r3]	@ zero_extendqisi2
 1002 03d4 002B     		cmp	r3, #0
 1003 03d6 04D0     		beq	.L63
 484:..\src/interruptions.c ****         interrupt_flag = FALSE;
 1004              		.loc 1 484 0
 1005 03d8 7C4B     		ldr	r3, .L82
 1006 03da 0022     		movs	r2, #0
 1007 03dc 1A70     		strb	r2, [r3]
 485:..\src/interruptions.c ****         interrupt_manager();
 1008              		.loc 1 485 0
 1009 03de FFF7FEFF 		bl	interrupt_manager
 1010              	.L63:
 486:..\src/interruptions.c ****     }
 487:..\src/interruptions.c **** 
 488:..\src/interruptions.c ****     //---------------------------------- Calibration 
 489:..\src/interruptions.c **** 
 490:..\src/interruptions.c ****     // Divider 10, freq = 500 Hz
 491:..\src/interruptions.c ****     if (calib.enabled == TRUE) {
 1011              		.loc 1 491 0
 1012 03e2 7B4B     		ldr	r3, .L82+4
 1013 03e4 1B78     		ldrb	r3, [r3]	@ zero_extendqisi2
 1014 03e6 012B     		cmp	r3, #1
 1015 03e8 0ED1     		bne	.L64
 492:..\src/interruptions.c ****         if (counter_calibration == CALIBRATION_DIV) {
 1016              		.loc 1 492 0
 1017 03ea 7A4B     		ldr	r3, .L82+8
 1018 03ec 1B88     		ldrh	r3, [r3]
 1019 03ee 0A2B     		cmp	r3, #10
 1020 03f0 04D1     		bne	.L65
 493:..\src/interruptions.c ****             calibration();
 1021              		.loc 1 493 0
 1022 03f2 FFF7FEFF 		bl	calibration
 494:..\src/interruptions.c ****             counter_calibration = 0;
 1023              		.loc 1 494 0
 1024 03f6 774B     		ldr	r3, .L82+8
 1025 03f8 0022     		movs	r2, #0
 1026 03fa 1A80     		strh	r2, [r3]	@ movhi
 1027              	.L65:
 495:..\src/interruptions.c ****         }
 496:..\src/interruptions.c ****         counter_calibration++;
 1028              		.loc 1 496 0
 1029 03fc 754B     		ldr	r3, .L82+8
 1030 03fe 1B88     		ldrh	r3, [r3]
 1031 0400 0133     		adds	r3, r3, #1
 1032 0402 9AB2     		uxth	r2, r3
 1033 0404 734B     		ldr	r3, .L82+8
 1034 0406 1A80     		strh	r2, [r3]	@ movhi
 1035              	.L64:
ARM GAS  C:\Users\Mattia\AppData\Local\Temp\cclAPrfh.s 			page 28


 497:..\src/interruptions.c ****     }
 498:..\src/interruptions.c **** 
 499:..\src/interruptions.c ****     // Check Interrupt 
 500:..\src/interruptions.c ****     
 501:..\src/interruptions.c ****     if (interrupt_flag){
 1036              		.loc 1 501 0
 1037 0408 704B     		ldr	r3, .L82
 1038 040a 1B78     		ldrb	r3, [r3]	@ zero_extendqisi2
 1039 040c 002B     		cmp	r3, #0
 1040 040e 04D0     		beq	.L66
 502:..\src/interruptions.c ****         interrupt_flag = FALSE;
 1041              		.loc 1 502 0
 1042 0410 6E4B     		ldr	r3, .L82
 1043 0412 0022     		movs	r2, #0
 1044 0414 1A70     		strb	r2, [r3]
 503:..\src/interruptions.c ****         interrupt_manager();
 1045              		.loc 1 503 0
 1046 0416 FFF7FEFF 		bl	interrupt_manager
 1047              	.L66:
 504:..\src/interruptions.c ****     }
 505:..\src/interruptions.c ****     
 506:..\src/interruptions.c ****     if (c_mem.dev.dev_type == SOFTHAND_PRO){   
 1048              		.loc 1 506 0
 1049 041a 6F4B     		ldr	r3, .L82+12
 1050 041c 93F8AC30 		ldrb	r3, [r3, #172]	@ zero_extendqisi2
 1051 0420 002B     		cmp	r3, #0
 1052 0422 1CD1     		bne	.L67
 507:..\src/interruptions.c ****     
 508:..\src/interruptions.c ****         //---------------------------------- Rest position check
 509:..\src/interruptions.c **** 
 510:..\src/interruptions.c ****         // Divider 10, freq = 500 Hz
 511:..\src/interruptions.c ****         if (c_mem.SH.rest_position_flag == TRUE){
 1053              		.loc 1 511 0
 1054 0424 6C4B     		ldr	r3, .L82+12
 1055 0426 93F8AC32 		ldrb	r3, [r3, #684]	@ zero_extendqisi2
 1056 042a 012B     		cmp	r3, #1
 1057 042c 17D1     		bne	.L67
 512:..\src/interruptions.c ****             if (counter_calibration == CALIBRATION_DIV) {
 1058              		.loc 1 512 0
 1059 042e 694B     		ldr	r3, .L82+8
 1060 0430 1B88     		ldrh	r3, [r3]
 1061 0432 0A2B     		cmp	r3, #10
 1062 0434 04D1     		bne	.L68
 513:..\src/interruptions.c ****                     check_rest_position();
 1063              		.loc 1 513 0
 1064 0436 FFF7FEFF 		bl	check_rest_position
 514:..\src/interruptions.c ****                     counter_calibration = 0;
 1065              		.loc 1 514 0
 1066 043a 664B     		ldr	r3, .L82+8
 1067 043c 0022     		movs	r2, #0
 1068 043e 1A80     		strh	r2, [r3]	@ movhi
 1069              	.L68:
 515:..\src/interruptions.c ****             }
 516:..\src/interruptions.c ****             counter_calibration++;
 1070              		.loc 1 516 0
 1071 0440 644B     		ldr	r3, .L82+8
 1072 0442 1B88     		ldrh	r3, [r3]
ARM GAS  C:\Users\Mattia\AppData\Local\Temp\cclAPrfh.s 			page 29


 1073 0444 0133     		adds	r3, r3, #1
 1074 0446 9AB2     		uxth	r2, r3
 1075 0448 624B     		ldr	r3, .L82+8
 1076 044a 1A80     		strh	r2, [r3]	@ movhi
 517:..\src/interruptions.c **** 
 518:..\src/interruptions.c ****             // Check Interrupt     
 519:..\src/interruptions.c ****             if (interrupt_flag){
 1077              		.loc 1 519 0
 1078 044c 5F4B     		ldr	r3, .L82
 1079 044e 1B78     		ldrb	r3, [r3]	@ zero_extendqisi2
 1080 0450 002B     		cmp	r3, #0
 1081 0452 04D0     		beq	.L67
 520:..\src/interruptions.c ****                 interrupt_flag = FALSE;
 1082              		.loc 1 520 0
 1083 0454 5D4B     		ldr	r3, .L82
 1084 0456 0022     		movs	r2, #0
 1085 0458 1A70     		strb	r2, [r3]
 521:..\src/interruptions.c ****                 interrupt_manager();
 1086              		.loc 1 521 0
 1087 045a FFF7FEFF 		bl	interrupt_manager
 1088              	.L67:
 522:..\src/interruptions.c ****             }
 523:..\src/interruptions.c ****         }
 524:..\src/interruptions.c ****         
 525:..\src/interruptions.c ****     }
 526:..\src/interruptions.c ****     //---------------------------------- Control Cycles Counter
 527:..\src/interruptions.c **** 
 528:..\src/interruptions.c ****     cycles_counter_update();
 1089              		.loc 1 528 0
 1090 045e FFF7FEFF 		bl	cycles_counter_update
 529:..\src/interruptions.c **** 
 530:..\src/interruptions.c ****     // Check Cycles Interrupt 
 531:..\src/interruptions.c ****     
 532:..\src/interruptions.c ****     if (cycles_interrupt_flag){
 1091              		.loc 1 532 0
 1092 0462 5E4B     		ldr	r3, .L82+16
 1093 0464 1B78     		ldrb	r3, [r3]	@ zero_extendqisi2
 1094 0466 002B     		cmp	r3, #0
 1095 0468 25D0     		beq	.L69
 533:..\src/interruptions.c ****         cycles_interrupt_flag = FALSE;
 1096              		.loc 1 533 0
 1097 046a 5C4B     		ldr	r3, .L82+16
 1098 046c 0022     		movs	r2, #0
 1099 046e 1A70     		strb	r2, [r3]
 534:..\src/interruptions.c **** 
 535:..\src/interruptions.c ****         // Cycles are written only every 120 seconds (CYCLES_TIMER interrupt)
 536:..\src/interruptions.c ****         // to save EEPROM writings (1M maximum)
 537:..\src/interruptions.c ****         if(can_write) {
 1100              		.loc 1 537 0
 1101 0470 5B4B     		ldr	r3, .L82+20
 1102 0472 1B78     		ldrb	r3, [r3]	@ zero_extendqisi2
 1103 0474 002B     		cmp	r3, #0
 1104 0476 1ED0     		beq	.L69
 538:..\src/interruptions.c ****             cycles_status = PREPARE_DATA;
 1105              		.loc 1 538 0
 1106 0478 5A4B     		ldr	r3, .L82+24
 1107 047a 0022     		movs	r2, #0
ARM GAS  C:\Users\Mattia\AppData\Local\Temp\cclAPrfh.s 			page 30


 1108 047c 1A70     		strb	r2, [r3]
 539:..\src/interruptions.c ****             
 540:..\src/interruptions.c ****             //Update time variable
 541:..\src/interruptions.c ****             g_mem.cnt.total_time_on = g_mem.cnt.total_time_on + 120;  // Add 120 seconds.
 1109              		.loc 1 541 0
 1110 047e 5A4B     		ldr	r3, .L82+28
 1111 0480 9B6D     		ldr	r3, [r3, #88]
 1112 0482 7833     		adds	r3, r3, #120
 1113 0484 584A     		ldr	r2, .L82+28
 1114 0486 9365     		str	r3, [r2, #88]
 542:..\src/interruptions.c ****             
 543:..\src/interruptions.c ****             if (c_mem.exp.read_exp_port_flag == EXP_SD_RTC) {
 1115              		.loc 1 543 0
 1116 0488 534B     		ldr	r3, .L82+12
 1117 048a 93F82632 		ldrb	r3, [r3, #550]	@ zero_extendqisi2
 1118 048e 012B     		cmp	r3, #1
 1119 0490 11D1     		bne	.L69
 544:..\src/interruptions.c ****                 
 545:..\src/interruptions.c ****                 store_RTC_current_time();
 1120              		.loc 1 545 0
 1121 0492 FFF7FEFF 		bl	store_RTC_current_time
 546:..\src/interruptions.c ****                 
 547:..\src/interruptions.c ****                 //Write in SD card
 548:..\src/interruptions.c ****                 prepare_SD_info(info_);
 1122              		.loc 1 548 0
 1123 0496 3B46     		mov	r3, r7
 1124 0498 1846     		mov	r0, r3
 1125 049a FFF7FEFF 		bl	prepare_SD_info
 549:..\src/interruptions.c ****                 FS_Write(pFile, info_, strlen(info_));
 1126              		.loc 1 549 0
 1127 049e 534B     		ldr	r3, .L82+32
 1128 04a0 1C68     		ldr	r4, [r3]
 1129 04a2 3B46     		mov	r3, r7
 1130 04a4 1846     		mov	r0, r3
 1131 04a6 FFF7FEFF 		bl	strlen
 1132 04aa 0246     		mov	r2, r0
 1133 04ac 3B46     		mov	r3, r7
 1134 04ae 1946     		mov	r1, r3
 1135 04b0 2046     		mov	r0, r4
 1136 04b2 FFF7FEFF 		bl	FS_Write
 1137              	.L69:
 550:..\src/interruptions.c ****             }
 551:..\src/interruptions.c ****         }
 552:..\src/interruptions.c ****     }
 553:..\src/interruptions.c ****     
 554:..\src/interruptions.c ****     // Check Interrupt 
 555:..\src/interruptions.c ****     
 556:..\src/interruptions.c ****     if (interrupt_flag){
 1138              		.loc 1 556 0
 1139 04b6 454B     		ldr	r3, .L82
 1140 04b8 1B78     		ldrb	r3, [r3]	@ zero_extendqisi2
 1141 04ba 002B     		cmp	r3, #0
 1142 04bc 04D0     		beq	.L70
 557:..\src/interruptions.c ****         interrupt_flag = FALSE;
 1143              		.loc 1 557 0
 1144 04be 434B     		ldr	r3, .L82
 1145 04c0 0022     		movs	r2, #0
ARM GAS  C:\Users\Mattia\AppData\Local\Temp\cclAPrfh.s 			page 31


 1146 04c2 1A70     		strb	r2, [r3]
 558:..\src/interruptions.c ****         interrupt_manager();
 1147              		.loc 1 558 0
 1148 04c4 FFF7FEFF 		bl	interrupt_manager
 1149              	.L70:
 559:..\src/interruptions.c ****     }
 560:..\src/interruptions.c ****     
 561:..\src/interruptions.c ****     
 562:..\src/interruptions.c ****     //---------------------------------- Check battery
 563:..\src/interruptions.c **** 
 564:..\src/interruptions.c ****     // Divider 10, freq = 500 Hz
 565:..\src/interruptions.c ****     if (counter_tension_func == CALIBRATION_DIV) {
 1150              		.loc 1 565 0
 1151 04c8 494B     		ldr	r3, .L82+36
 1152 04ca 1B88     		ldrh	r3, [r3]
 1153 04cc 0A2B     		cmp	r3, #10
 1154 04ce 04D1     		bne	.L71
 566:..\src/interruptions.c ****         battery_management();   
 1155              		.loc 1 566 0
 1156 04d0 FFF7FEFF 		bl	battery_management
 567:..\src/interruptions.c ****         counter_tension_func = 0;
 1157              		.loc 1 567 0
 1158 04d4 464B     		ldr	r3, .L82+36
 1159 04d6 0022     		movs	r2, #0
 1160 04d8 1A80     		strh	r2, [r3]	@ movhi
 1161              	.L71:
 568:..\src/interruptions.c ****     }
 569:..\src/interruptions.c ****     counter_tension_func++;
 1162              		.loc 1 569 0
 1163 04da 454B     		ldr	r3, .L82+36
 1164 04dc 1B88     		ldrh	r3, [r3]
 1165 04de 0133     		adds	r3, r3, #1
 1166 04e0 9AB2     		uxth	r2, r3
 1167 04e2 434B     		ldr	r3, .L82+36
 1168 04e4 1A80     		strh	r2, [r3]	@ movhi
 570:..\src/interruptions.c **** 
 571:..\src/interruptions.c ****     // Check Interrupt 
 572:..\src/interruptions.c ****     
 573:..\src/interruptions.c ****     if (interrupt_flag){
 1169              		.loc 1 573 0
 1170 04e6 394B     		ldr	r3, .L82
 1171 04e8 1B78     		ldrb	r3, [r3]	@ zero_extendqisi2
 1172 04ea 002B     		cmp	r3, #0
 1173 04ec 04D0     		beq	.L72
 574:..\src/interruptions.c ****         interrupt_flag = FALSE;
 1174              		.loc 1 574 0
 1175 04ee 374B     		ldr	r3, .L82
 1176 04f0 0022     		movs	r2, #0
 1177 04f2 1A70     		strb	r2, [r3]
 575:..\src/interruptions.c ****         interrupt_manager();
 1178              		.loc 1 575 0
 1179 04f4 FFF7FEFF 		bl	interrupt_manager
 1180              	.L72:
 576:..\src/interruptions.c ****     }
 577:..\src/interruptions.c ****    
 578:..\src/interruptions.c ****     //---------------------------------- Read IMUs
 579:..\src/interruptions.c ****     if (c_mem.imu.read_imu_flag) {
ARM GAS  C:\Users\Mattia\AppData\Local\Temp\cclAPrfh.s 			page 32


 1181              		.loc 1 579 0
 1182 04f8 374B     		ldr	r3, .L82+12
 1183 04fa 93F80032 		ldrb	r3, [r3, #512]	@ zero_extendqisi2
 1184 04fe 002B     		cmp	r3, #0
 1185 0500 0AD0     		beq	.L73
 580:..\src/interruptions.c ****         ReadAllIMUs();      // IMU reading is atomic, no RS485 request is handled
 1186              		.loc 1 580 0
 1187 0502 FFF7FEFF 		bl	ReadAllIMUs
 581:..\src/interruptions.c ****         
 582:..\src/interruptions.c ****         if (interrupt_flag){
 1188              		.loc 1 582 0
 1189 0506 314B     		ldr	r3, .L82
 1190 0508 1B78     		ldrb	r3, [r3]	@ zero_extendqisi2
 1191 050a 002B     		cmp	r3, #0
 1192 050c 04D0     		beq	.L73
 583:..\src/interruptions.c ****             interrupt_flag = FALSE;
 1193              		.loc 1 583 0
 1194 050e 2F4B     		ldr	r3, .L82
 1195 0510 0022     		movs	r2, #0
 1196 0512 1A70     		strb	r2, [r3]
 584:..\src/interruptions.c ****             interrupt_manager();
 1197              		.loc 1 584 0
 1198 0514 FFF7FEFF 		bl	interrupt_manager
 1199              	.L73:
 585:..\src/interruptions.c ****         }
 586:..\src/interruptions.c ****     }
 587:..\src/interruptions.c ****    
 588:..\src/interruptions.c ****     //---------------------------------- Update States
 589:..\src/interruptions.c ****     
 590:..\src/interruptions.c ****     // Load k-1 state
 591:..\src/interruptions.c ****     memcpy( &g_adc_measOld, &g_adc_meas, sizeof(g_adc_meas) );
 1200              		.loc 1 591 0
 1201 0518 364A     		ldr	r2, .L82+40
 1202 051a 374B     		ldr	r3, .L82+44
 1203 051c 1446     		mov	r4, r2
 1204 051e 1D46     		mov	r5, r3
 1205 0520 0FCD     		ldmia	r5!, {r0, r1, r2, r3}
 1206 0522 0FC4     		stmia	r4!, {r0, r1, r2, r3}
 1207 0524 0FCD     		ldmia	r5!, {r0, r1, r2, r3}
 1208 0526 0FC4     		stmia	r4!, {r0, r1, r2, r3}
 1209 0528 95E80300 		ldmia	r5, {r0, r1}
 1210 052c 84E80300 		stmia	r4, {r0, r1}
 592:..\src/interruptions.c ****     memcpy( &g_measOld, &g_meas, sizeof(g_meas) );
 1211              		.loc 1 592 0
 1212 0530 324A     		ldr	r2, .L82+48
 1213 0532 334B     		ldr	r3, .L82+52
 1214 0534 1046     		mov	r0, r2
 1215 0536 1946     		mov	r1, r3
 1216 0538 6823     		movs	r3, #104
 1217 053a 1A46     		mov	r2, r3
 1218 053c FFF7FEFF 		bl	memcpy
 593:..\src/interruptions.c ****     memcpy( &g_refOld, &g_ref, sizeof(g_ref) );
 1219              		.loc 1 593 0
 1220 0540 304A     		ldr	r2, .L82+56
 1221 0542 314B     		ldr	r3, .L82+60
 1222 0544 1446     		mov	r4, r2
 1223 0546 1D46     		mov	r5, r3
ARM GAS  C:\Users\Mattia\AppData\Local\Temp\cclAPrfh.s 			page 33


 1224 0548 0FCD     		ldmia	r5!, {r0, r1, r2, r3}
 1225 054a 0FC4     		stmia	r4!, {r0, r1, r2, r3}
 1226 054c 95E80F00 		ldmia	r5, {r0, r1, r2, r3}
 1227 0550 84E80F00 		stmia	r4, {r0, r1, r2, r3}
 594:..\src/interruptions.c **** 
 595:..\src/interruptions.c ****     // Load k+1 state        
 596:..\src/interruptions.c ****     memcpy( &g_ref, &g_refNew, sizeof(g_ref) );
 1228              		.loc 1 596 0
 1229 0554 2C4A     		ldr	r2, .L82+60
 1230 0556 2D4B     		ldr	r3, .L82+64
 1231 0558 1446     		mov	r4, r2
 1232 055a 1D46     		mov	r5, r3
 1233 055c 0FCD     		ldmia	r5!, {r0, r1, r2, r3}
 1234 055e 0FC4     		stmia	r4!, {r0, r1, r2, r3}
 1235 0560 95E80F00 		ldmia	r5, {r0, r1, r2, r3}
 1236 0564 84E80F00 		stmia	r4, {r0, r1, r2, r3}
 597:..\src/interruptions.c ****     memcpy( &g_imu, &g_imuNew, sizeof(g_imu) );
 1237              		.loc 1 597 0
 1238 0568 294A     		ldr	r2, .L82+68
 1239 056a 2A4B     		ldr	r3, .L82+72
 1240 056c 1046     		mov	r0, r2
 1241 056e 1946     		mov	r1, r3
 1242 0570 C823     		movs	r3, #200
 1243 0572 1A46     		mov	r2, r3
 1244 0574 FFF7FEFF 		bl	memcpy
 598:..\src/interruptions.c ****                 
 599:..\src/interruptions.c ****     if (interrupt_flag){
 1245              		.loc 1 599 0
 1246 0578 144B     		ldr	r3, .L82
 1247 057a 1B78     		ldrb	r3, [r3]	@ zero_extendqisi2
 1248 057c 002B     		cmp	r3, #0
 1249 057e 04D0     		beq	.L74
 600:..\src/interruptions.c ****         interrupt_flag = FALSE;
 1250              		.loc 1 600 0
 1251 0580 124B     		ldr	r3, .L82
 1252 0582 0022     		movs	r2, #0
 1253 0584 1A70     		strb	r2, [r3]
 601:..\src/interruptions.c ****         interrupt_manager();
 1254              		.loc 1 601 0
 1255 0586 FFF7FEFF 		bl	interrupt_manager
 1256              	.L74:
 602:..\src/interruptions.c ****     }
 603:..\src/interruptions.c **** 
 604:..\src/interruptions.c ****     timer_value = (uint16)MY_TIMER_ReadCounter();
 1257              		.loc 1 604 0
 1258 058a FFF7FEFF 		bl	MY_TIMER_ReadCounter
 1259 058e 0346     		mov	r3, r0
 1260 0590 1A46     		mov	r2, r3
 1261 0592 214B     		ldr	r3, .L82+76
 1262 0594 1A80     		strh	r2, [r3]	@ movhi
 605:..\src/interruptions.c ****     cycle_time = ((float)(timer_value0 - timer_value)/1000000.0);
 1263              		.loc 1 605 0
 1264 0596 214B     		ldr	r3, .L82+80
 1265 0598 1B88     		ldrh	r3, [r3]
 1266 059a 1A46     		mov	r2, r3
 1267 059c 1E4B     		ldr	r3, .L82+76
 1268 059e 1B88     		ldrh	r3, [r3]
ARM GAS  C:\Users\Mattia\AppData\Local\Temp\cclAPrfh.s 			page 34


 1269 05a0 D31A     		subs	r3, r2, r3
 1270 05a2 1846     		mov	r0, r3
 1271 05a4 FFF7FEFF 		bl	__aeabi_i2f
 1272 05a8 0346     		mov	r3, r0
 1273 05aa 1D49     		ldr	r1, .L82+84
 1274 05ac 1846     		mov	r0, r3
 1275 05ae FFF7FEFF 		bl	__aeabi_fdiv
 1276 05b2 0346     		mov	r3, r0
 1277 05b4 1A46     		mov	r2, r3
 1278 05b6 1B4B     		ldr	r3, .L82+88
 1279 05b8 1A60     		str	r2, [r3]	@ float
 606:..\src/interruptions.c ****     MY_TIMER_REG_Write(0x01);   // reset timer
 1280              		.loc 1 606 0
 1281 05ba 0120     		movs	r0, #1
 1282 05bc FFF7FEFF 		bl	MY_TIMER_REG_Write
 607:..\src/interruptions.c **** 
 608:..\src/interruptions.c **** }
 1283              		.loc 1 608 0
 1284 05c0 00BF     		nop
 1285 05c2 07F6C817 		addw	r7, r7, #2504
 1286              		.cfi_def_cfa_offset 16
 1287 05c6 BD46     		mov	sp, r7
 1288              		.cfi_def_cfa_register 13
 1289              		@ sp needed
 1290 05c8 B0BD     		pop	{r4, r5, r7, pc}
 1291              	.L83:
 1292 05ca 00BF     		.align	2
 1293              	.L82:
 1294 05cc 00000000 		.word	interrupt_flag
 1295 05d0 00000000 		.word	calib
 1296 05d4 00000000 		.word	counter_calibration.10430
 1297 05d8 00000000 		.word	c_mem
 1298 05dc 00000000 		.word	cycles_interrupt_flag
 1299 05e0 00000000 		.word	can_write
 1300 05e4 00000000 		.word	cycles_status
 1301 05e8 00000000 		.word	g_mem
 1302 05ec 00000000 		.word	pFile
 1303 05f0 02000000 		.word	counter_tension_func.10431
 1304 05f4 00000000 		.word	g_adc_measOld
 1305 05f8 00000000 		.word	g_adc_meas
 1306 05fc 00000000 		.word	g_measOld
 1307 0600 00000000 		.word	g_meas
 1308 0604 00000000 		.word	g_refOld
 1309 0608 00000000 		.word	g_ref
 1310 060c 00000000 		.word	g_refNew
 1311 0610 00000000 		.word	g_imu
 1312 0614 00000000 		.word	g_imuNew
 1313 0618 00000000 		.word	timer_value
 1314 061c 00000000 		.word	timer_value0
 1315 0620 00247449 		.word	1232348160
 1316 0624 00000000 		.word	cycle_time
 1317              		.cfi_endproc
 1318              	.LFE67:
 1319              		.size	function_scheduler, .-function_scheduler
 1320              		.section	.text.compute_reference,"ax",%progbits
 1321              		.align	2
 1322              		.global	compute_reference
ARM GAS  C:\Users\Mattia\AppData\Local\Temp\cclAPrfh.s 			page 35


 1323              		.thumb
 1324              		.thumb_func
 1325              		.type	compute_reference, %function
 1326              	compute_reference:
 1327              	.LFB68:
 609:..\src/interruptions.c **** 
 610:..\src/interruptions.c **** //==============================================================================
 611:..\src/interruptions.c **** //                                                       COMPUTE MOTOR REFERENCE
 612:..\src/interruptions.c **** //==============================================================================
 613:..\src/interruptions.c **** void compute_reference(uint8 motor_idx, struct st_ref* st_ref_p, struct st_ref* st_refOld_p) {
 1328              		.loc 1 613 0
 1329              		.cfi_startproc
 1330              		@ args = 0, pretend = 0, frame = 40
 1331              		@ frame_needed = 1, uses_anonymous_args = 0
 1332 0000 80B5     		push	{r7, lr}
 1333              		.cfi_def_cfa_offset 8
 1334              		.cfi_offset 7, -8
 1335              		.cfi_offset 14, -4
 1336 0002 8AB0     		sub	sp, sp, #40
 1337              		.cfi_def_cfa_offset 48
 1338 0004 00AF     		add	r7, sp, #0
 1339              		.cfi_def_cfa_register 7
 1340 0006 0346     		mov	r3, r0
 1341 0008 B960     		str	r1, [r7, #8]
 1342 000a 7A60     		str	r2, [r7, #4]
 1343 000c FB73     		strb	r3, [r7, #15]
 614:..\src/interruptions.c ****     
 615:..\src/interruptions.c ****     int32 CYDATA handle_value;
 616:..\src/interruptions.c ****     int32 CYDATA err_emg_1, err_emg_2;
 617:..\src/interruptions.c ****     struct st_motor* MOT = &c_mem.motor[motor_idx];      // SoftHand default motor
 1344              		.loc 1 617 0
 1345 000e FA7B     		ldrb	r2, [r7, #15]	@ zero_extendqisi2
 1346 0010 1346     		mov	r3, r2
 1347 0012 DB00     		lsls	r3, r3, #3
 1348 0014 9B1A     		subs	r3, r3, r2
 1349 0016 1B01     		lsls	r3, r3, #4
 1350 0018 B033     		adds	r3, r3, #176
 1351 001a A74A     		ldr	r2, .L146
 1352 001c 1344     		add	r3, r3, r2
 1353 001e 3B62     		str	r3, [r7, #32]
 618:..\src/interruptions.c ****     uint8 ENC_L = MOT->encoder_line;          // Associated encoder line
 1354              		.loc 1 618 0
 1355 0020 3B6A     		ldr	r3, [r7, #32]
 1356 0022 93F86030 		ldrb	r3, [r3, #96]
 1357 0026 FB77     		strb	r3, [r7, #31]
 619:..\src/interruptions.c ****     
 620:..\src/interruptions.c ****     static uint8 current_emg[NUM_OF_MOTORS] = {0, 0};   // 0 NONE
 621:..\src/interruptions.c ****                                                         // 1 EMG 1
 622:..\src/interruptions.c ****                                                         // 2 EMG 2
 623:..\src/interruptions.c ****                                                         // wait for both to get down
 624:..\src/interruptions.c ****     
 625:..\src/interruptions.c ****     err_emg_1 = g_adc_meas.emg[0] - c_mem.emg.emg_threshold[0];
 1358              		.loc 1 625 0
 1359 0028 A44B     		ldr	r3, .L146+4
 1360 002a 1B68     		ldr	r3, [r3]
 1361 002c A24A     		ldr	r2, .L146
 1362 002e B2F8F021 		ldrh	r2, [r2, #496]
ARM GAS  C:\Users\Mattia\AppData\Local\Temp\cclAPrfh.s 			page 36


 1363 0032 9B1A     		subs	r3, r3, r2
 1364 0034 BB61     		str	r3, [r7, #24]
 626:..\src/interruptions.c ****     err_emg_2 = g_adc_meas.emg[1] - c_mem.emg.emg_threshold[1];
 1365              		.loc 1 626 0
 1366 0036 A14B     		ldr	r3, .L146+4
 1367 0038 5B68     		ldr	r3, [r3, #4]
 1368 003a 9F4A     		ldr	r2, .L146
 1369 003c B2F8F221 		ldrh	r2, [r2, #498]
 1370 0040 9B1A     		subs	r3, r3, r2
 1371 0042 7B61     		str	r3, [r7, #20]
 627:..\src/interruptions.c ****     
 628:..\src/interruptions.c ****      // =========================== POSITION INPUT ==============================            
 629:..\src/interruptions.c ****     switch(MOT->input_mode) {
 1372              		.loc 1 629 0
 1373 0044 3B6A     		ldr	r3, [r7, #32]
 1374 0046 93F85E30 		ldrb	r3, [r3, #94]	@ zero_extendqisi2
 1375 004a 013B     		subs	r3, r3, #1
 1376 004c 062B     		cmp	r3, #6
 1377 004e 00F24382 		bhi	.L138
 1378 0052 01A2     		adr	r2, .L87
 1379 0054 52F823F0 		ldr	pc, [r2, r3, lsl #2]
 1380              		.p2align 2
 1381              	.L87:
 1382 0058 75000000 		.word	.L86+1
 1383 005c 21020000 		.word	.L88+1
 1384 0060 C9020000 		.word	.L89+1
 1385 0064 31030000 		.word	.L90+1
 1386 0068 F5030000 		.word	.L91+1
 1387 006c 4D010000 		.word	.L92+1
 1388 0070 5B020000 		.word	.L93+1
 1389              		.p2align 1
 1390              	.L86:
 630:..\src/interruptions.c ****         case INPUT_MODE_ENCODER3:
 631:..\src/interruptions.c **** 
 632:..\src/interruptions.c ****             // Calculate handle value based on position of handle in the
 633:..\src/interruptions.c ****             // sensor chain and multiplication factor between handle and motor position
 634:..\src/interruptions.c ****             if (c_mem.enc[ENC_L].double_encoder_on_off) 
 1391              		.loc 1 634 0
 1392 0074 FA7F     		ldrb	r2, [r7, #31]	@ zero_extendqisi2
 1393 0076 9049     		ldr	r1, .L146
 1394 0078 1346     		mov	r3, r2
 1395 007a 5B00     		lsls	r3, r3, #1
 1396 007c 1344     		add	r3, r3, r2
 1397 007e 1B01     		lsls	r3, r3, #4
 1398 0080 0B44     		add	r3, r3, r1
 1399 0082 03F5D873 		add	r3, r3, #432
 1400 0086 1B78     		ldrb	r3, [r3]	@ zero_extendqisi2
 1401 0088 002B     		cmp	r3, #0
 1402 008a 19D0     		beq	.L94
 635:..\src/interruptions.c ****                 handle_value = (g_meas[ENC_L].pos[2] * c_mem.enc[ENC_L].motor_handle_ratio) + MOT->
 1403              		.loc 1 635 0
 1404 008c FB7F     		ldrb	r3, [r7, #31]	@ zero_extendqisi2
 1405 008e 8C4A     		ldr	r2, .L146+8
 1406 0090 3421     		movs	r1, #52
 1407 0092 01FB03F3 		mul	r3, r1, r3
 1408 0096 1344     		add	r3, r3, r2
 1409 0098 0833     		adds	r3, r3, #8
ARM GAS  C:\Users\Mattia\AppData\Local\Temp\cclAPrfh.s 			page 37


 1410 009a 1968     		ldr	r1, [r3]
 1411 009c FA7F     		ldrb	r2, [r7, #31]	@ zero_extendqisi2
 1412 009e 8648     		ldr	r0, .L146
 1413 00a0 1346     		mov	r3, r2
 1414 00a2 5B00     		lsls	r3, r3, #1
 1415 00a4 1344     		add	r3, r3, r2
 1416 00a6 1B01     		lsls	r3, r3, #4
 1417 00a8 0344     		add	r3, r3, r0
 1418 00aa 03F5DA73 		add	r3, r3, #436
 1419 00ae 93F90030 		ldrsb	r3, [r3]
 1420 00b2 03FB01F2 		mul	r2, r3, r1
 1421 00b6 3B6A     		ldr	r3, [r7, #32]
 1422 00b8 5B6B     		ldr	r3, [r3, #52]
 1423 00ba 1344     		add	r3, r3, r2
 1424 00bc 7B62     		str	r3, [r7, #36]
 1425 00be 18E0     		b	.L95
 1426              	.L94:
 636:..\src/interruptions.c ****             else
 637:..\src/interruptions.c ****                 handle_value = (g_meas[ENC_L].pos[1] * c_mem.enc[ENC_L].motor_handle_ratio) + MOT->
 1427              		.loc 1 637 0
 1428 00c0 FB7F     		ldrb	r3, [r7, #31]	@ zero_extendqisi2
 1429 00c2 7F4A     		ldr	r2, .L146+8
 1430 00c4 3421     		movs	r1, #52
 1431 00c6 01FB03F3 		mul	r3, r1, r3
 1432 00ca 1344     		add	r3, r3, r2
 1433 00cc 0433     		adds	r3, r3, #4
 1434 00ce 1968     		ldr	r1, [r3]
 1435 00d0 FA7F     		ldrb	r2, [r7, #31]	@ zero_extendqisi2
 1436 00d2 7948     		ldr	r0, .L146
 1437 00d4 1346     		mov	r3, r2
 1438 00d6 5B00     		lsls	r3, r3, #1
 1439 00d8 1344     		add	r3, r3, r2
 1440 00da 1B01     		lsls	r3, r3, #4
 1441 00dc 0344     		add	r3, r3, r0
 1442 00de 03F5DA73 		add	r3, r3, #436
 1443 00e2 93F90030 		ldrsb	r3, [r3]
 1444 00e6 03FB01F2 		mul	r2, r3, r1
 1445 00ea 3B6A     		ldr	r3, [r7, #32]
 1446 00ec 5B6B     		ldr	r3, [r3, #52]
 1447 00ee 1344     		add	r3, r3, r2
 1448 00f0 7B62     		str	r3, [r7, #36]
 1449              	.L95:
 638:..\src/interruptions.c ****             
 639:..\src/interruptions.c **** 
 640:..\src/interruptions.c ****             // Read handle and use it as reference for the motor
 641:..\src/interruptions.c ****             if (((handle_value - st_refOld_p->pos) > MOT->max_step_pos) && (MOT->max_step_pos != 0)
 1450              		.loc 1 641 0
 1451 00f2 7B68     		ldr	r3, [r7, #4]
 1452 00f4 1B68     		ldr	r3, [r3]
 1453 00f6 7A6A     		ldr	r2, [r7, #36]
 1454 00f8 D21A     		subs	r2, r2, r3
 1455 00fa 3B6A     		ldr	r3, [r7, #32]
 1456 00fc 1B6C     		ldr	r3, [r3, #64]
 1457 00fe 9A42     		cmp	r2, r3
 1458 0100 0BDD     		ble	.L96
 1459              		.loc 1 641 0 is_stmt 0 discriminator 1
 1460 0102 3B6A     		ldr	r3, [r7, #32]
ARM GAS  C:\Users\Mattia\AppData\Local\Temp\cclAPrfh.s 			page 38


 1461 0104 1B6C     		ldr	r3, [r3, #64]
 1462 0106 002B     		cmp	r3, #0
 1463 0108 07D0     		beq	.L96
 642:..\src/interruptions.c ****                 st_ref_p->pos += MOT->max_step_pos;
 1464              		.loc 1 642 0 is_stmt 1
 1465 010a BB68     		ldr	r3, [r7, #8]
 1466 010c 1A68     		ldr	r2, [r3]
 1467 010e 3B6A     		ldr	r3, [r7, #32]
 1468 0110 1B6C     		ldr	r3, [r3, #64]
 1469 0112 1A44     		add	r2, r2, r3
 1470 0114 BB68     		ldr	r3, [r7, #8]
 1471 0116 1A60     		str	r2, [r3]
 1472 0118 17E0     		b	.L97
 1473              	.L96:
 643:..\src/interruptions.c ****             else {
 644:..\src/interruptions.c ****                 if (((handle_value - st_refOld_p->pos) < MOT->max_step_neg) && (MOT->max_step_neg !
 1474              		.loc 1 644 0
 1475 011a 7B68     		ldr	r3, [r7, #4]
 1476 011c 1B68     		ldr	r3, [r3]
 1477 011e 7A6A     		ldr	r2, [r7, #36]
 1478 0120 D21A     		subs	r2, r2, r3
 1479 0122 3B6A     		ldr	r3, [r7, #32]
 1480 0124 DB6B     		ldr	r3, [r3, #60]
 1481 0126 9A42     		cmp	r2, r3
 1482 0128 0BDA     		bge	.L98
 1483              		.loc 1 644 0 is_stmt 0 discriminator 1
 1484 012a 3B6A     		ldr	r3, [r7, #32]
 1485 012c DB6B     		ldr	r3, [r3, #60]
 1486 012e 002B     		cmp	r3, #0
 1487 0130 07D0     		beq	.L98
 645:..\src/interruptions.c ****                     st_ref_p->pos += MOT->max_step_neg;
 1488              		.loc 1 645 0 is_stmt 1
 1489 0132 BB68     		ldr	r3, [r7, #8]
 1490 0134 1A68     		ldr	r2, [r3]
 1491 0136 3B6A     		ldr	r3, [r7, #32]
 1492 0138 DB6B     		ldr	r3, [r3, #60]
 1493 013a 1A44     		add	r2, r2, r3
 1494 013c BB68     		ldr	r3, [r7, #8]
 1495 013e 1A60     		str	r2, [r3]
 1496 0140 03E0     		b	.L97
 1497              	.L98:
 646:..\src/interruptions.c ****                 else
 647:..\src/interruptions.c ****                     st_ref_p->pos = handle_value;
 1498              		.loc 1 647 0
 1499 0142 BB68     		ldr	r3, [r7, #8]
 1500 0144 7A6A     		ldr	r2, [r7, #36]
 1501 0146 1A60     		str	r2, [r3]
 648:..\src/interruptions.c ****             }
 649:..\src/interruptions.c ****             break;
 1502              		.loc 1 649 0
 1503 0148 D1E1     		b	.L99
 1504              	.L97:
 1505 014a D0E1     		b	.L99
 1506              	.L92:
 650:..\src/interruptions.c ****         
 651:..\src/interruptions.c ****         case INPUT_MODE_JOYSTICK:
 652:..\src/interruptions.c ****             
ARM GAS  C:\Users\Mattia\AppData\Local\Temp\cclAPrfh.s 			page 39


 653:..\src/interruptions.c ****             if (c_mem.dev.use_2nd_motor_flag == FALSE){
 1507              		.loc 1 653 0
 1508 014c 5A4B     		ldr	r3, .L146
 1509 014e 93F8A930 		ldrb	r3, [r3, #169]	@ zero_extendqisi2
 1510 0152 002B     		cmp	r3, #0
 1511 0154 57D1     		bne	.L100
 654:..\src/interruptions.c ****                 // Code for single motor devices. Use only up/down direction to give speed referenc
 655:..\src/interruptions.c ****                 st_ref_p->pos = st_refOld_p->pos;
 1512              		.loc 1 655 0
 1513 0156 7B68     		ldr	r3, [r7, #4]
 1514 0158 1A68     		ldr	r2, [r3]
 1515 015a BB68     		ldr	r3, [r7, #8]
 1516 015c 1A60     		str	r2, [r3]
 656:..\src/interruptions.c ****                 if(!(g_adc_meas.joystick[0] > 900)) {
 1517              		.loc 1 656 0
 1518 015e 574B     		ldr	r3, .L146+4
 1519 0160 1B6A     		ldr	r3, [r3, #32]
 1520 0162 B3F5617F 		cmp	r3, #900
 1521 0166 45DC     		bgt	.L101
 1522              	.LBB3:
 657:..\src/interruptions.c ****                     int32 CYDATA err_joy_1 = g_adc_meas.joystick[0] - c_mem.JOY_spec.joystick_thres
 1523              		.loc 1 657 0
 1524 0168 544B     		ldr	r3, .L146+4
 1525 016a 1B6A     		ldr	r3, [r3, #32]
 1526 016c 524A     		ldr	r2, .L146
 1527 016e B2F9E422 		ldrsh	r2, [r2, #740]
 1528 0172 9B1A     		subs	r3, r3, r2
 1529 0174 3B61     		str	r3, [r7, #16]
 658:..\src/interruptions.c **** 
 659:..\src/interruptions.c ****                     if(g_adc_meas.joystick[0] > c_mem.JOY_spec.joystick_threshold) {     //both mot
 1530              		.loc 1 659 0
 1531 0176 514B     		ldr	r3, .L146+4
 1532 0178 1B6A     		ldr	r3, [r3, #32]
 1533 017a 4F4A     		ldr	r2, .L146
 1534 017c B2F9E422 		ldrsh	r2, [r2, #740]
 1535 0180 9342     		cmp	r3, r2
 1536 0182 13DD     		ble	.L102
 660:..\src/interruptions.c ****                         st_ref_p->pos += ((int32) err_joy_1 * c_mem.JOY_spec.joystick_closure_speed
 1537              		.loc 1 660 0
 1538 0184 BB68     		ldr	r3, [r7, #8]
 1539 0186 1A68     		ldr	r2, [r3]
 1540 0188 4B4B     		ldr	r3, .L146
 1541 018a B3F8E232 		ldrh	r3, [r3, #738]
 1542 018e 1946     		mov	r1, r3
 1543 0190 3B69     		ldr	r3, [r7, #16]
 1544 0192 03FB01F1 		mul	r1, r3, r1
 1545 0196 484B     		ldr	r3, .L146
 1546 0198 B3F9E432 		ldrsh	r3, [r3, #740]
 1547 019c C3F58063 		rsb	r3, r3, #1024
 1548 01a0 91FBF3F3 		sdiv	r3, r1, r3
 1549 01a4 1A44     		add	r2, r2, r3
 1550 01a6 BB68     		ldr	r3, [r7, #8]
 1551 01a8 1A60     		str	r2, [r3]
 1552              	.LBE3:
 661:..\src/interruptions.c ****                     }
 662:..\src/interruptions.c ****                     else {
 663:..\src/interruptions.c ****                         err_joy_1 = g_adc_meas.joystick[0] + c_mem.JOY_spec.joystick_threshold;
ARM GAS  C:\Users\Mattia\AppData\Local\Temp\cclAPrfh.s 			page 40


 664:..\src/interruptions.c ****                         if(g_adc_meas.joystick[0] < -c_mem.JOY_spec.joystick_threshold) {  //both m
 665:..\src/interruptions.c ****                             st_ref_p->pos += ((int32) err_joy_1 * c_mem.JOY_spec.joystick_closure_s
 666:..\src/interruptions.c ****                         }
 667:..\src/interruptions.c ****                     }
 668:..\src/interruptions.c ****                 }
 669:..\src/interruptions.c ****                 else {  //The button is pressed and the motor reference is gradually set to zero 
 670:..\src/interruptions.c ****                     st_ref_p->pos -= g_mem.JOY_spec.joystick_closure_speed;
 671:..\src/interruptions.c ****                 }
 672:..\src/interruptions.c ****             }
 673:..\src/interruptions.c ****             else {
 674:..\src/interruptions.c ****                 // Code for two motors devices. Use both direction to give speed references
 675:..\src/interruptions.c ****                 if (c_mem.dev.dev_type == SOFTHAND_2_MOTORS){
 676:..\src/interruptions.c ****                     compute_SoftHand_2_motors_joystick_reference(motor_idx, st_ref_p, st_refOld_p);
 677:..\src/interruptions.c ****                 }
 678:..\src/interruptions.c ****             }
 679:..\src/interruptions.c ****             break;
 1553              		.loc 1 679 0
 1554 01aa 97E1     		b	.L139
 1555              	.L102:
 1556              	.LBB4:
 663:..\src/interruptions.c ****                         if(g_adc_meas.joystick[0] < -c_mem.JOY_spec.joystick_threshold) {  //both m
 1557              		.loc 1 663 0
 1558 01ac 434B     		ldr	r3, .L146+4
 1559 01ae 1B6A     		ldr	r3, [r3, #32]
 1560 01b0 414A     		ldr	r2, .L146
 1561 01b2 B2F9E422 		ldrsh	r2, [r2, #740]
 1562 01b6 1344     		add	r3, r3, r2
 1563 01b8 3B61     		str	r3, [r7, #16]
 664:..\src/interruptions.c ****                             st_ref_p->pos += ((int32) err_joy_1 * c_mem.JOY_spec.joystick_closure_s
 1564              		.loc 1 664 0
 1565 01ba 404B     		ldr	r3, .L146+4
 1566 01bc 1A6A     		ldr	r2, [r3, #32]
 1567 01be 3E4B     		ldr	r3, .L146
 1568 01c0 B3F9E432 		ldrsh	r3, [r3, #740]
 1569 01c4 5B42     		negs	r3, r3
 1570 01c6 9A42     		cmp	r2, r3
 1571 01c8 80F28881 		bge	.L139
 665:..\src/interruptions.c ****                         }
 1572              		.loc 1 665 0
 1573 01cc BB68     		ldr	r3, [r7, #8]
 1574 01ce 1A68     		ldr	r2, [r3]
 1575 01d0 394B     		ldr	r3, .L146
 1576 01d2 B3F8E232 		ldrh	r3, [r3, #738]
 1577 01d6 1946     		mov	r1, r3
 1578 01d8 3B69     		ldr	r3, [r7, #16]
 1579 01da 03FB01F1 		mul	r1, r3, r1
 1580 01de 364B     		ldr	r3, .L146
 1581 01e0 B3F9E432 		ldrsh	r3, [r3, #740]
 1582 01e4 C3F58063 		rsb	r3, r3, #1024
 1583 01e8 91FBF3F3 		sdiv	r3, r1, r3
 1584 01ec 1A44     		add	r2, r2, r3
 1585 01ee BB68     		ldr	r3, [r7, #8]
 1586 01f0 1A60     		str	r2, [r3]
 1587              	.LBE4:
 1588              		.loc 1 679 0
 1589 01f2 73E1     		b	.L139
 1590              	.L101:
ARM GAS  C:\Users\Mattia\AppData\Local\Temp\cclAPrfh.s 			page 41


 670:..\src/interruptions.c ****                 }
 1591              		.loc 1 670 0
 1592 01f4 BB68     		ldr	r3, [r7, #8]
 1593 01f6 1B68     		ldr	r3, [r3]
 1594 01f8 324A     		ldr	r2, .L146+12
 1595 01fa B2F8E222 		ldrh	r2, [r2, #738]
 1596 01fe 9A1A     		subs	r2, r3, r2
 1597 0200 BB68     		ldr	r3, [r7, #8]
 1598 0202 1A60     		str	r2, [r3]
 1599              		.loc 1 679 0
 1600 0204 6AE1     		b	.L139
 1601              	.L100:
 675:..\src/interruptions.c ****                     compute_SoftHand_2_motors_joystick_reference(motor_idx, st_ref_p, st_refOld_p);
 1602              		.loc 1 675 0
 1603 0206 2C4B     		ldr	r3, .L146
 1604 0208 93F8AC30 		ldrb	r3, [r3, #172]	@ zero_extendqisi2
 1605 020c 042B     		cmp	r3, #4
 1606 020e 40F06581 		bne	.L139
 676:..\src/interruptions.c ****                 }
 1607              		.loc 1 676 0
 1608 0212 FB7B     		ldrb	r3, [r7, #15]	@ zero_extendqisi2
 1609 0214 7A68     		ldr	r2, [r7, #4]
 1610 0216 B968     		ldr	r1, [r7, #8]
 1611 0218 1846     		mov	r0, r3
 1612 021a FFF7FEFF 		bl	compute_SoftHand_2_motors_joystick_reference
 1613              		.loc 1 679 0
 1614 021e 5DE1     		b	.L139
 1615              	.L88:
 680:..\src/interruptions.c ****             
 681:..\src/interruptions.c ****         case INPUT_MODE_EMG_PROPORTIONAL:
 682:..\src/interruptions.c ****             if (err_emg_1 > 0)
 1616              		.loc 1 682 0
 1617 0220 BB69     		ldr	r3, [r7, #24]
 1618 0222 002B     		cmp	r3, #0
 1619 0224 15DD     		ble	.L106
 683:..\src/interruptions.c ****                 st_ref_p->pos = (err_emg_1 * g_mem.motor[motor_idx].pos_lim_sup) / (1024 - c_mem.em
 1620              		.loc 1 683 0
 1621 0226 FA7B     		ldrb	r2, [r7, #15]	@ zero_extendqisi2
 1622 0228 2649     		ldr	r1, .L146+12
 1623 022a 1346     		mov	r3, r2
 1624 022c DB00     		lsls	r3, r3, #3
 1625 022e 9B1A     		subs	r3, r3, r2
 1626 0230 1B01     		lsls	r3, r3, #4
 1627 0232 0B44     		add	r3, r3, r1
 1628 0234 E833     		adds	r3, r3, #232
 1629 0236 1B68     		ldr	r3, [r3]
 1630 0238 BA69     		ldr	r2, [r7, #24]
 1631 023a 02FB03F2 		mul	r2, r2, r3
 1632 023e 1E4B     		ldr	r3, .L146
 1633 0240 B3F8F031 		ldrh	r3, [r3, #496]
 1634 0244 C3F58063 		rsb	r3, r3, #1024
 1635 0248 92FBF3F2 		sdiv	r2, r2, r3
 1636 024c BB68     		ldr	r3, [r7, #8]
 1637 024e 1A60     		str	r2, [r3]
 684:..\src/interruptions.c ****             else
 685:..\src/interruptions.c ****                 st_ref_p->pos = 0;
 686:..\src/interruptions.c ****             break;
ARM GAS  C:\Users\Mattia\AppData\Local\Temp\cclAPrfh.s 			page 42


 1638              		.loc 1 686 0
 1639 0250 4DE1     		b	.L99
 1640              	.L106:
 685:..\src/interruptions.c ****             break;
 1641              		.loc 1 685 0
 1642 0252 BB68     		ldr	r3, [r7, #8]
 1643 0254 0022     		movs	r2, #0
 1644 0256 1A60     		str	r2, [r3]
 1645              		.loc 1 686 0
 1646 0258 49E1     		b	.L99
 1647              	.L93:
 687:..\src/interruptions.c ****         
 688:..\src/interruptions.c ****         case INPUT_MODE_EMG_PROPORTIONAL_NC:
 689:..\src/interruptions.c ****             if (err_emg_1 > 0)
 1648              		.loc 1 689 0
 1649 025a BB69     		ldr	r3, [r7, #24]
 1650 025c 002B     		cmp	r3, #0
 1651 025e 1FDD     		ble	.L108
 690:..\src/interruptions.c ****                 st_ref_p->pos = g_mem.motor[motor_idx].pos_lim_sup - (err_emg_1 * g_mem.motor[motor
 1652              		.loc 1 690 0
 1653 0260 FA7B     		ldrb	r2, [r7, #15]	@ zero_extendqisi2
 1654 0262 1849     		ldr	r1, .L146+12
 1655 0264 1346     		mov	r3, r2
 1656 0266 DB00     		lsls	r3, r3, #3
 1657 0268 9B1A     		subs	r3, r3, r2
 1658 026a 1B01     		lsls	r3, r3, #4
 1659 026c 0B44     		add	r3, r3, r1
 1660 026e E833     		adds	r3, r3, #232
 1661 0270 1968     		ldr	r1, [r3]
 1662 0272 FA7B     		ldrb	r2, [r7, #15]	@ zero_extendqisi2
 1663 0274 1348     		ldr	r0, .L146+12
 1664 0276 1346     		mov	r3, r2
 1665 0278 DB00     		lsls	r3, r3, #3
 1666 027a 9B1A     		subs	r3, r3, r2
 1667 027c 1B01     		lsls	r3, r3, #4
 1668 027e 0344     		add	r3, r3, r0
 1669 0280 E833     		adds	r3, r3, #232
 1670 0282 1B68     		ldr	r3, [r3]
 1671 0284 BA69     		ldr	r2, [r7, #24]
 1672 0286 02FB03F2 		mul	r2, r2, r3
 1673 028a 0B4B     		ldr	r3, .L146
 1674 028c B3F8F031 		ldrh	r3, [r3, #496]
 1675 0290 C3F58063 		rsb	r3, r3, #1024
 1676 0294 92FBF3F3 		sdiv	r3, r2, r3
 1677 0298 CA1A     		subs	r2, r1, r3
 1678 029a BB68     		ldr	r3, [r7, #8]
 1679 029c 1A60     		str	r2, [r3]
 691:..\src/interruptions.c ****             else
 692:..\src/interruptions.c ****                 st_ref_p->pos = g_mem.motor[motor_idx].pos_lim_sup;
 693:..\src/interruptions.c ****             break;
 1680              		.loc 1 693 0
 1681 029e 26E1     		b	.L99
 1682              	.L108:
 692:..\src/interruptions.c ****             break;
 1683              		.loc 1 692 0
 1684 02a0 FA7B     		ldrb	r2, [r7, #15]	@ zero_extendqisi2
 1685 02a2 0849     		ldr	r1, .L146+12
ARM GAS  C:\Users\Mattia\AppData\Local\Temp\cclAPrfh.s 			page 43


 1686 02a4 1346     		mov	r3, r2
 1687 02a6 DB00     		lsls	r3, r3, #3
 1688 02a8 9B1A     		subs	r3, r3, r2
 1689 02aa 1B01     		lsls	r3, r3, #4
 1690 02ac 0B44     		add	r3, r3, r1
 1691 02ae E833     		adds	r3, r3, #232
 1692 02b0 1A68     		ldr	r2, [r3]
 1693 02b2 BB68     		ldr	r3, [r7, #8]
 1694 02b4 1A60     		str	r2, [r3]
 1695              		.loc 1 693 0
 1696 02b6 1AE1     		b	.L99
 1697              	.L147:
 1698              		.align	2
 1699              	.L146:
 1700 02b8 00000000 		.word	c_mem
 1701 02bc 00000000 		.word	g_adc_meas
 1702 02c0 00000000 		.word	g_meas
 1703 02c4 00000000 		.word	g_mem
 1704              	.L89:
 694:..\src/interruptions.c **** 
 695:..\src/interruptions.c ****         case INPUT_MODE_EMG_INTEGRAL:
 696:..\src/interruptions.c ****             st_ref_p->pos = st_refOld_p->pos;
 1705              		.loc 1 696 0
 1706 02c8 7B68     		ldr	r3, [r7, #4]
 1707 02ca 1A68     		ldr	r2, [r3]
 1708 02cc BB68     		ldr	r3, [r7, #8]
 1709 02ce 1A60     		str	r2, [r3]
 697:..\src/interruptions.c ****             if (err_emg_1 > 0) {
 1710              		.loc 1 697 0
 1711 02d0 BB69     		ldr	r3, [r7, #24]
 1712 02d2 002B     		cmp	r3, #0
 1713 02d4 13DD     		ble	.L110
 698:..\src/interruptions.c ****                 st_ref_p->pos = st_refOld_p->pos + (err_emg_1 * (int)g_mem.emg.emg_speed[0] * 2) / 
 1714              		.loc 1 698 0
 1715 02d6 7B68     		ldr	r3, [r7, #4]
 1716 02d8 1A68     		ldr	r2, [r3]
 1717 02da 814B     		ldr	r3, .L148
 1718 02dc 93F8FC31 		ldrb	r3, [r3, #508]	@ zero_extendqisi2
 1719 02e0 1946     		mov	r1, r3
 1720 02e2 BB69     		ldr	r3, [r7, #24]
 1721 02e4 03FB01F3 		mul	r3, r3, r1
 1722 02e8 5900     		lsls	r1, r3, #1
 1723 02ea 7E4B     		ldr	r3, .L148+4
 1724 02ec B3F8F031 		ldrh	r3, [r3, #496]
 1725 02f0 C3F58063 		rsb	r3, r3, #1024
 1726 02f4 91FBF3F3 		sdiv	r3, r1, r3
 1727 02f8 1A44     		add	r2, r2, r3
 1728 02fa BB68     		ldr	r3, [r7, #8]
 1729 02fc 1A60     		str	r2, [r3]
 1730              	.L110:
 699:..\src/interruptions.c ****             }
 700:..\src/interruptions.c ****             if (err_emg_2 > 0) {
 1731              		.loc 1 700 0
 1732 02fe 7B69     		ldr	r3, [r7, #20]
 1733 0300 002B     		cmp	r3, #0
 1734 0302 40F3F380 		ble	.L140
 701:..\src/interruptions.c ****                 st_ref_p->pos = st_refOld_p->pos - (err_emg_2 * (int)g_mem.emg.emg_speed[1] * 2) / 
ARM GAS  C:\Users\Mattia\AppData\Local\Temp\cclAPrfh.s 			page 44


 1735              		.loc 1 701 0
 1736 0306 7B68     		ldr	r3, [r7, #4]
 1737 0308 1A68     		ldr	r2, [r3]
 1738 030a 754B     		ldr	r3, .L148
 1739 030c 93F8FD31 		ldrb	r3, [r3, #509]	@ zero_extendqisi2
 1740 0310 1946     		mov	r1, r3
 1741 0312 7B69     		ldr	r3, [r7, #20]
 1742 0314 03FB01F3 		mul	r3, r3, r1
 1743 0318 5900     		lsls	r1, r3, #1
 1744 031a 724B     		ldr	r3, .L148+4
 1745 031c B3F8F231 		ldrh	r3, [r3, #498]
 1746 0320 C3F58063 		rsb	r3, r3, #1024
 1747 0324 91FBF3F3 		sdiv	r3, r1, r3
 1748 0328 D21A     		subs	r2, r2, r3
 1749 032a BB68     		ldr	r3, [r7, #8]
 1750 032c 1A60     		str	r2, [r3]
 702:..\src/interruptions.c ****             }
 703:..\src/interruptions.c ****             break;
 1751              		.loc 1 703 0
 1752 032e DDE0     		b	.L140
 1753              	.L90:
 704:..\src/interruptions.c **** 
 705:..\src/interruptions.c ****         case INPUT_MODE_EMG_FCFS:
 706:..\src/interruptions.c ****             st_ref_p->pos = st_refOld_p->pos;
 1754              		.loc 1 706 0
 1755 0330 7B68     		ldr	r3, [r7, #4]
 1756 0332 1A68     		ldr	r2, [r3]
 1757 0334 BB68     		ldr	r3, [r7, #8]
 1758 0336 1A60     		str	r2, [r3]
 707:..\src/interruptions.c ****             switch (current_emg[motor_idx]) {
 1759              		.loc 1 707 0
 1760 0338 FB7B     		ldrb	r3, [r7, #15]	@ zero_extendqisi2
 1761 033a 6B4A     		ldr	r2, .L148+8
 1762 033c D35C     		ldrb	r3, [r2, r3]	@ zero_extendqisi2
 1763 033e 012B     		cmp	r3, #1
 1764 0340 1CD0     		beq	.L113
 1765 0342 022B     		cmp	r3, #2
 1766 0344 37D0     		beq	.L114
 1767 0346 002B     		cmp	r3, #0
 1768 0348 00D0     		beq	.L115
 708:..\src/interruptions.c ****                 case 0:
 709:..\src/interruptions.c ****                     // Look for the first EMG passing the threshold
 710:..\src/interruptions.c ****                     if (err_emg_1 > 0 && err_emg_1 > err_emg_2) {
 711:..\src/interruptions.c ****                         current_emg[motor_idx] = 1;
 712:..\src/interruptions.c ****                         break;
 713:..\src/interruptions.c ****                     }
 714:..\src/interruptions.c ****                     if (err_emg_2 > 0 && err_emg_2 > err_emg_1) {
 715:..\src/interruptions.c ****                         current_emg[motor_idx] = 2;
 716:..\src/interruptions.c ****                         break;
 717:..\src/interruptions.c ****                     }
 718:..\src/interruptions.c ****                     break;
 719:..\src/interruptions.c **** 
 720:..\src/interruptions.c ****                 case 1:
 721:..\src/interruptions.c ****                     // EMG 1 is first
 722:..\src/interruptions.c ****                     if (err_emg_1 < 0) {
 723:..\src/interruptions.c ****                         current_emg[motor_idx] = 0;
 724:..\src/interruptions.c ****                         break;
ARM GAS  C:\Users\Mattia\AppData\Local\Temp\cclAPrfh.s 			page 45


 725:..\src/interruptions.c ****                     }
 726:..\src/interruptions.c ****                     st_ref_p->pos = st_refOld_p->pos + (err_emg_1 * g_mem.emg.emg_speed[0] << 2) / 
 727:..\src/interruptions.c ****                     break;
 728:..\src/interruptions.c **** 
 729:..\src/interruptions.c ****                 case 2:
 730:..\src/interruptions.c ****                     // EMG 2 is first
 731:..\src/interruptions.c ****                     if (err_emg_2 < 0) {
 732:..\src/interruptions.c ****                         current_emg[motor_idx] = 0;
 733:..\src/interruptions.c ****                         break;
 734:..\src/interruptions.c ****                     }
 735:..\src/interruptions.c ****                     st_ref_p->pos = st_refOld_p->pos - (err_emg_2 * g_mem.emg.emg_speed[1] << 2) / 
 736:..\src/interruptions.c ****                     break;
 737:..\src/interruptions.c **** 
 738:..\src/interruptions.c ****                 default:
 739:..\src/interruptions.c ****                     break;
 1769              		.loc 1 739 0
 1770 034a 52E0     		b	.L117
 1771              	.L115:
 710:..\src/interruptions.c ****                         current_emg[motor_idx] = 1;
 1772              		.loc 1 710 0
 1773 034c BB69     		ldr	r3, [r7, #24]
 1774 034e 002B     		cmp	r3, #0
 1775 0350 08DD     		ble	.L116
 710:..\src/interruptions.c ****                         current_emg[motor_idx] = 1;
 1776              		.loc 1 710 0 is_stmt 0 discriminator 1
 1777 0352 BA69     		ldr	r2, [r7, #24]
 1778 0354 7B69     		ldr	r3, [r7, #20]
 1779 0356 9A42     		cmp	r2, r3
 1780 0358 04DD     		ble	.L116
 711:..\src/interruptions.c ****                         break;
 1781              		.loc 1 711 0 is_stmt 1
 1782 035a FB7B     		ldrb	r3, [r7, #15]	@ zero_extendqisi2
 1783 035c 624A     		ldr	r2, .L148+8
 1784 035e 0121     		movs	r1, #1
 1785 0360 D154     		strb	r1, [r2, r3]
 712:..\src/interruptions.c ****                     }
 1786              		.loc 1 712 0
 1787 0362 46E0     		b	.L117
 1788              	.L116:
 714:..\src/interruptions.c ****                         current_emg[motor_idx] = 2;
 1789              		.loc 1 714 0
 1790 0364 7B69     		ldr	r3, [r7, #20]
 1791 0366 002B     		cmp	r3, #0
 1792 0368 42DD     		ble	.L141
 714:..\src/interruptions.c ****                         current_emg[motor_idx] = 2;
 1793              		.loc 1 714 0 is_stmt 0 discriminator 1
 1794 036a 7A69     		ldr	r2, [r7, #20]
 1795 036c BB69     		ldr	r3, [r7, #24]
 1796 036e 9A42     		cmp	r2, r3
 1797 0370 3EDD     		ble	.L141
 715:..\src/interruptions.c ****                         break;
 1798              		.loc 1 715 0 is_stmt 1
 1799 0372 FB7B     		ldrb	r3, [r7, #15]	@ zero_extendqisi2
 1800 0374 5C4A     		ldr	r2, .L148+8
 1801 0376 0221     		movs	r1, #2
 1802 0378 D154     		strb	r1, [r2, r3]
 716:..\src/interruptions.c ****                     }
ARM GAS  C:\Users\Mattia\AppData\Local\Temp\cclAPrfh.s 			page 46


 1803              		.loc 1 716 0
 1804 037a 3AE0     		b	.L117
 1805              	.L113:
 722:..\src/interruptions.c ****                         current_emg[motor_idx] = 0;
 1806              		.loc 1 722 0
 1807 037c BB69     		ldr	r3, [r7, #24]
 1808 037e 002B     		cmp	r3, #0
 1809 0380 04DA     		bge	.L119
 723:..\src/interruptions.c ****                         break;
 1810              		.loc 1 723 0
 1811 0382 FB7B     		ldrb	r3, [r7, #15]	@ zero_extendqisi2
 1812 0384 584A     		ldr	r2, .L148+8
 1813 0386 0021     		movs	r1, #0
 1814 0388 D154     		strb	r1, [r2, r3]
 724:..\src/interruptions.c ****                     }
 1815              		.loc 1 724 0
 1816 038a 32E0     		b	.L117
 1817              	.L119:
 726:..\src/interruptions.c ****                     break;
 1818              		.loc 1 726 0
 1819 038c 7B68     		ldr	r3, [r7, #4]
 1820 038e 1A68     		ldr	r2, [r3]
 1821 0390 534B     		ldr	r3, .L148
 1822 0392 93F8FC31 		ldrb	r3, [r3, #508]	@ zero_extendqisi2
 1823 0396 1946     		mov	r1, r3
 1824 0398 BB69     		ldr	r3, [r7, #24]
 1825 039a 03FB01F3 		mul	r3, r3, r1
 1826 039e 9900     		lsls	r1, r3, #2
 1827 03a0 504B     		ldr	r3, .L148+4
 1828 03a2 B3F8F031 		ldrh	r3, [r3, #496]
 1829 03a6 C3F58063 		rsb	r3, r3, #1024
 1830 03aa 91FBF3F3 		sdiv	r3, r1, r3
 1831 03ae 1A44     		add	r2, r2, r3
 1832 03b0 BB68     		ldr	r3, [r7, #8]
 1833 03b2 1A60     		str	r2, [r3]
 727:..\src/interruptions.c **** 
 1834              		.loc 1 727 0
 1835 03b4 1DE0     		b	.L117
 1836              	.L114:
 731:..\src/interruptions.c ****                         current_emg[motor_idx] = 0;
 1837              		.loc 1 731 0
 1838 03b6 7B69     		ldr	r3, [r7, #20]
 1839 03b8 002B     		cmp	r3, #0
 1840 03ba 04DA     		bge	.L120
 732:..\src/interruptions.c ****                         break;
 1841              		.loc 1 732 0
 1842 03bc FB7B     		ldrb	r3, [r7, #15]	@ zero_extendqisi2
 1843 03be 4A4A     		ldr	r2, .L148+8
 1844 03c0 0021     		movs	r1, #0
 1845 03c2 D154     		strb	r1, [r2, r3]
 733:..\src/interruptions.c ****                     }
 1846              		.loc 1 733 0
 1847 03c4 15E0     		b	.L117
 1848              	.L120:
 735:..\src/interruptions.c ****                     break;
 1849              		.loc 1 735 0
 1850 03c6 7B68     		ldr	r3, [r7, #4]
ARM GAS  C:\Users\Mattia\AppData\Local\Temp\cclAPrfh.s 			page 47


 1851 03c8 1A68     		ldr	r2, [r3]
 1852 03ca 454B     		ldr	r3, .L148
 1853 03cc 93F8FD31 		ldrb	r3, [r3, #509]	@ zero_extendqisi2
 1854 03d0 1946     		mov	r1, r3
 1855 03d2 7B69     		ldr	r3, [r7, #20]
 1856 03d4 03FB01F3 		mul	r3, r3, r1
 1857 03d8 9900     		lsls	r1, r3, #2
 1858 03da 424B     		ldr	r3, .L148+4
 1859 03dc B3F8F231 		ldrh	r3, [r3, #498]
 1860 03e0 C3F58063 		rsb	r3, r3, #1024
 1861 03e4 91FBF3F3 		sdiv	r3, r1, r3
 1862 03e8 D21A     		subs	r2, r2, r3
 1863 03ea BB68     		ldr	r3, [r7, #8]
 1864 03ec 1A60     		str	r2, [r3]
 736:..\src/interruptions.c **** 
 1865              		.loc 1 736 0
 1866 03ee 00E0     		b	.L117
 1867              	.L141:
 718:..\src/interruptions.c **** 
 1868              		.loc 1 718 0
 1869 03f0 00BF     		nop
 1870              	.L117:
 740:..\src/interruptions.c ****             }
 741:..\src/interruptions.c ****             break;
 1871              		.loc 1 741 0 discriminator 3
 1872 03f2 7CE0     		b	.L99
 1873              	.L91:
 742:..\src/interruptions.c **** 
 743:..\src/interruptions.c ****         case INPUT_MODE_EMG_FCFS_ADV:
 744:..\src/interruptions.c ****             st_ref_p->pos = st_refOld_p->pos;
 1874              		.loc 1 744 0
 1875 03f4 7B68     		ldr	r3, [r7, #4]
 1876 03f6 1A68     		ldr	r2, [r3]
 1877 03f8 BB68     		ldr	r3, [r7, #8]
 1878 03fa 1A60     		str	r2, [r3]
 745:..\src/interruptions.c ****             switch (current_emg[motor_idx]) {
 1879              		.loc 1 745 0
 1880 03fc FB7B     		ldrb	r3, [r7, #15]	@ zero_extendqisi2
 1881 03fe 3A4A     		ldr	r2, .L148+8
 1882 0400 D35C     		ldrb	r3, [r2, r3]	@ zero_extendqisi2
 1883 0402 012B     		cmp	r3, #1
 1884 0404 1CD0     		beq	.L122
 1885 0406 022B     		cmp	r3, #2
 1886 0408 3DD0     		beq	.L123
 1887 040a 002B     		cmp	r3, #0
 1888 040c 00D0     		beq	.L124
 746:..\src/interruptions.c ****                 // Look for the first EMG passing the threshold
 747:..\src/interruptions.c ****                 case 0:
 748:..\src/interruptions.c ****                     if (err_emg_1 > 0 && err_emg_1 > err_emg_2) {
 749:..\src/interruptions.c ****                         current_emg[motor_idx] = 1;
 750:..\src/interruptions.c ****                         break;
 751:..\src/interruptions.c ****                     }
 752:..\src/interruptions.c ****                     if (err_emg_2 > 0 && err_emg_2 > err_emg_1) {
 753:..\src/interruptions.c ****                         current_emg[motor_idx] = 2;
 754:..\src/interruptions.c ****                         break;
 755:..\src/interruptions.c ****                     }
 756:..\src/interruptions.c ****                     break;
ARM GAS  C:\Users\Mattia\AppData\Local\Temp\cclAPrfh.s 			page 48


 757:..\src/interruptions.c **** 
 758:..\src/interruptions.c ****                 // EMG 1 is first
 759:..\src/interruptions.c ****                 case 1:
 760:..\src/interruptions.c ****                     // If both signals are under threshold go back to status 0
 761:..\src/interruptions.c ****                     if ((err_emg_1 < 0) && (err_emg_2 < 0)) {
 762:..\src/interruptions.c ****                         current_emg[motor_idx] = 0;
 763:..\src/interruptions.c ****                         break;
 764:..\src/interruptions.c ****                     }
 765:..\src/interruptions.c ****                     // but if the current signal come back over threshold, continue using it
 766:..\src/interruptions.c ****                     if (err_emg_1 > 0) 
 767:..\src/interruptions.c ****                         st_ref_p->pos = st_refOld_p->pos + (err_emg_1 * g_mem.emg.emg_speed[0] << 2
 768:..\src/interruptions.c ****                     
 769:..\src/interruptions.c ****                     break;
 770:..\src/interruptions.c **** 
 771:..\src/interruptions.c ****                 // EMG 2 is first
 772:..\src/interruptions.c ****                 case 2:
 773:..\src/interruptions.c ****                     // If both signals are under threshold go back to status 0
 774:..\src/interruptions.c ****                     if ((err_emg_1 < 0) && (err_emg_2 < 0)) {
 775:..\src/interruptions.c ****                         current_emg[motor_idx] = 0;
 776:..\src/interruptions.c ****                         break;
 777:..\src/interruptions.c ****                     }
 778:..\src/interruptions.c ****                     // but if the current signal come back over threshold, continue using it
 779:..\src/interruptions.c ****                     if (err_emg_2 > 0) {
 780:..\src/interruptions.c ****                         st_ref_p->pos = st_refOld_p->pos - (err_emg_2 * c_mem.emg.emg_speed[1] << 2
 781:..\src/interruptions.c ****                     }
 782:..\src/interruptions.c ****                     break;
 783:..\src/interruptions.c **** 
 784:..\src/interruptions.c ****                 default:
 785:..\src/interruptions.c ****                     break;
 1889              		.loc 1 785 0
 1890 040e 62E0     		b	.L126
 1891              	.L124:
 748:..\src/interruptions.c ****                         current_emg[motor_idx] = 1;
 1892              		.loc 1 748 0
 1893 0410 BB69     		ldr	r3, [r7, #24]
 1894 0412 002B     		cmp	r3, #0
 1895 0414 08DD     		ble	.L125
 748:..\src/interruptions.c ****                         current_emg[motor_idx] = 1;
 1896              		.loc 1 748 0 is_stmt 0 discriminator 1
 1897 0416 BA69     		ldr	r2, [r7, #24]
 1898 0418 7B69     		ldr	r3, [r7, #20]
 1899 041a 9A42     		cmp	r2, r3
 1900 041c 04DD     		ble	.L125
 749:..\src/interruptions.c ****                         break;
 1901              		.loc 1 749 0 is_stmt 1
 1902 041e FB7B     		ldrb	r3, [r7, #15]	@ zero_extendqisi2
 1903 0420 314A     		ldr	r2, .L148+8
 1904 0422 0121     		movs	r1, #1
 1905 0424 D154     		strb	r1, [r2, r3]
 750:..\src/interruptions.c ****                     }
 1906              		.loc 1 750 0
 1907 0426 56E0     		b	.L126
 1908              	.L125:
 752:..\src/interruptions.c ****                         current_emg[motor_idx] = 2;
 1909              		.loc 1 752 0
 1910 0428 7B69     		ldr	r3, [r7, #20]
 1911 042a 002B     		cmp	r3, #0
ARM GAS  C:\Users\Mattia\AppData\Local\Temp\cclAPrfh.s 			page 49


 1912 042c 4EDD     		ble	.L142
 752:..\src/interruptions.c ****                         current_emg[motor_idx] = 2;
 1913              		.loc 1 752 0 is_stmt 0 discriminator 1
 1914 042e 7A69     		ldr	r2, [r7, #20]
 1915 0430 BB69     		ldr	r3, [r7, #24]
 1916 0432 9A42     		cmp	r2, r3
 1917 0434 4ADD     		ble	.L142
 753:..\src/interruptions.c ****                         break;
 1918              		.loc 1 753 0 is_stmt 1
 1919 0436 FB7B     		ldrb	r3, [r7, #15]	@ zero_extendqisi2
 1920 0438 2B4A     		ldr	r2, .L148+8
 1921 043a 0221     		movs	r1, #2
 1922 043c D154     		strb	r1, [r2, r3]
 754:..\src/interruptions.c ****                     }
 1923              		.loc 1 754 0
 1924 043e 4AE0     		b	.L126
 1925              	.L122:
 761:..\src/interruptions.c ****                         current_emg[motor_idx] = 0;
 1926              		.loc 1 761 0
 1927 0440 BB69     		ldr	r3, [r7, #24]
 1928 0442 002B     		cmp	r3, #0
 1929 0444 07DA     		bge	.L128
 761:..\src/interruptions.c ****                         current_emg[motor_idx] = 0;
 1930              		.loc 1 761 0 is_stmt 0 discriminator 1
 1931 0446 7B69     		ldr	r3, [r7, #20]
 1932 0448 002B     		cmp	r3, #0
 1933 044a 04DA     		bge	.L128
 762:..\src/interruptions.c ****                         break;
 1934              		.loc 1 762 0 is_stmt 1
 1935 044c FB7B     		ldrb	r3, [r7, #15]	@ zero_extendqisi2
 1936 044e 264A     		ldr	r2, .L148+8
 1937 0450 0021     		movs	r1, #0
 1938 0452 D154     		strb	r1, [r2, r3]
 763:..\src/interruptions.c ****                     }
 1939              		.loc 1 763 0
 1940 0454 3FE0     		b	.L126
 1941              	.L128:
 766:..\src/interruptions.c ****                         st_ref_p->pos = st_refOld_p->pos + (err_emg_1 * g_mem.emg.emg_speed[0] << 2
 1942              		.loc 1 766 0
 1943 0456 BB69     		ldr	r3, [r7, #24]
 1944 0458 002B     		cmp	r3, #0
 1945 045a 39DD     		ble	.L143
 767:..\src/interruptions.c ****                     
 1946              		.loc 1 767 0
 1947 045c 7B68     		ldr	r3, [r7, #4]
 1948 045e 1A68     		ldr	r2, [r3]
 1949 0460 1F4B     		ldr	r3, .L148
 1950 0462 93F8FC31 		ldrb	r3, [r3, #508]	@ zero_extendqisi2
 1951 0466 1946     		mov	r1, r3
 1952 0468 BB69     		ldr	r3, [r7, #24]
 1953 046a 03FB01F3 		mul	r3, r3, r1
 1954 046e 9900     		lsls	r1, r3, #2
 1955 0470 1C4B     		ldr	r3, .L148+4
 1956 0472 B3F8F031 		ldrh	r3, [r3, #496]
 1957 0476 C3F58063 		rsb	r3, r3, #1024
 1958 047a 91FBF3F3 		sdiv	r3, r1, r3
 1959 047e 1A44     		add	r2, r2, r3
ARM GAS  C:\Users\Mattia\AppData\Local\Temp\cclAPrfh.s 			page 50


 1960 0480 BB68     		ldr	r3, [r7, #8]
 1961 0482 1A60     		str	r2, [r3]
 769:..\src/interruptions.c **** 
 1962              		.loc 1 769 0
 1963 0484 24E0     		b	.L143
 1964              	.L123:
 774:..\src/interruptions.c ****                         current_emg[motor_idx] = 0;
 1965              		.loc 1 774 0
 1966 0486 BB69     		ldr	r3, [r7, #24]
 1967 0488 002B     		cmp	r3, #0
 1968 048a 07DA     		bge	.L130
 774:..\src/interruptions.c ****                         current_emg[motor_idx] = 0;
 1969              		.loc 1 774 0 is_stmt 0 discriminator 1
 1970 048c 7B69     		ldr	r3, [r7, #20]
 1971 048e 002B     		cmp	r3, #0
 1972 0490 04DA     		bge	.L130
 775:..\src/interruptions.c ****                         break;
 1973              		.loc 1 775 0 is_stmt 1
 1974 0492 FB7B     		ldrb	r3, [r7, #15]	@ zero_extendqisi2
 1975 0494 144A     		ldr	r2, .L148+8
 1976 0496 0021     		movs	r1, #0
 1977 0498 D154     		strb	r1, [r2, r3]
 776:..\src/interruptions.c ****                     }
 1978              		.loc 1 776 0
 1979 049a 1CE0     		b	.L126
 1980              	.L130:
 779:..\src/interruptions.c ****                         st_ref_p->pos = st_refOld_p->pos - (err_emg_2 * c_mem.emg.emg_speed[1] << 2
 1981              		.loc 1 779 0
 1982 049c 7B69     		ldr	r3, [r7, #20]
 1983 049e 002B     		cmp	r3, #0
 1984 04a0 18DD     		ble	.L144
 780:..\src/interruptions.c ****                     }
 1985              		.loc 1 780 0
 1986 04a2 7B68     		ldr	r3, [r7, #4]
 1987 04a4 1A68     		ldr	r2, [r3]
 1988 04a6 0F4B     		ldr	r3, .L148+4
 1989 04a8 93F8FD31 		ldrb	r3, [r3, #509]	@ zero_extendqisi2
 1990 04ac 1946     		mov	r1, r3
 1991 04ae 7B69     		ldr	r3, [r7, #20]
 1992 04b0 03FB01F3 		mul	r3, r3, r1
 1993 04b4 9900     		lsls	r1, r3, #2
 1994 04b6 0B4B     		ldr	r3, .L148+4
 1995 04b8 B3F8F231 		ldrh	r3, [r3, #498]
 1996 04bc C3F58063 		rsb	r3, r3, #1024
 1997 04c0 91FBF3F3 		sdiv	r3, r1, r3
 1998 04c4 D21A     		subs	r2, r2, r3
 1999 04c6 BB68     		ldr	r3, [r7, #8]
 2000 04c8 1A60     		str	r2, [r3]
 782:..\src/interruptions.c **** 
 2001              		.loc 1 782 0
 2002 04ca 03E0     		b	.L144
 2003              	.L142:
 756:..\src/interruptions.c **** 
 2004              		.loc 1 756 0
 2005 04cc 00BF     		nop
 2006 04ce 0EE0     		b	.L99
 2007              	.L143:
ARM GAS  C:\Users\Mattia\AppData\Local\Temp\cclAPrfh.s 			page 51


 769:..\src/interruptions.c **** 
 2008              		.loc 1 769 0
 2009 04d0 00BF     		nop
 2010 04d2 0CE0     		b	.L99
 2011              	.L144:
 782:..\src/interruptions.c **** 
 2012              		.loc 1 782 0
 2013 04d4 00BF     		nop
 2014              	.L126:
 786:..\src/interruptions.c ****             }
 787:..\src/interruptions.c ****             break;
 2015              		.loc 1 787 0 discriminator 5
 2016 04d6 0AE0     		b	.L99
 2017              	.L138:
 788:..\src/interruptions.c **** 
 789:..\src/interruptions.c ****         default:
 790:..\src/interruptions.c ****             break;
 2018              		.loc 1 790 0
 2019 04d8 00BF     		nop
 2020 04da 08E0     		b	.L99
 2021              	.L139:
 679:..\src/interruptions.c ****             
 2022              		.loc 1 679 0
 2023 04dc 00BF     		nop
 2024 04de 06E0     		b	.L99
 2025              	.L149:
 2026              		.align	2
 2027              	.L148:
 2028 04e0 00000000 		.word	g_mem
 2029 04e4 00000000 		.word	c_mem
 2030 04e8 8C000000 		.word	current_emg.10454
 2031              	.L140:
 703:..\src/interruptions.c **** 
 2032              		.loc 1 703 0
 2033 04ec 00BF     		nop
 2034              	.L99:
 791:..\src/interruptions.c ****     }
 792:..\src/interruptions.c **** 
 793:..\src/interruptions.c ****     // Position limit saturation
 794:..\src/interruptions.c ****     if (MOT->pos_lim_flag) {
 2035              		.loc 1 794 0
 2036 04ee 3B6A     		ldr	r3, [r7, #32]
 2037 04f0 93F83330 		ldrb	r3, [r3, #51]	@ zero_extendqisi2
 2038 04f4 002B     		cmp	r3, #0
 2039 04f6 13D0     		beq	.L132
 795:..\src/interruptions.c ****         if (st_ref_p->pos < MOT->pos_lim_inf) 
 2040              		.loc 1 795 0
 2041 04f8 BB68     		ldr	r3, [r7, #8]
 2042 04fa 1A68     		ldr	r2, [r3]
 2043 04fc 3B6A     		ldr	r3, [r7, #32]
 2044 04fe 5B6B     		ldr	r3, [r3, #52]
 2045 0500 9A42     		cmp	r2, r3
 2046 0502 03DA     		bge	.L133
 796:..\src/interruptions.c ****             st_ref_p->pos = MOT->pos_lim_inf;
 2047              		.loc 1 796 0
 2048 0504 3B6A     		ldr	r3, [r7, #32]
 2049 0506 5A6B     		ldr	r2, [r3, #52]
ARM GAS  C:\Users\Mattia\AppData\Local\Temp\cclAPrfh.s 			page 52


 2050 0508 BB68     		ldr	r3, [r7, #8]
 2051 050a 1A60     		str	r2, [r3]
 2052              	.L133:
 797:..\src/interruptions.c ****         if (st_ref_p->pos > MOT->pos_lim_sup) 
 2053              		.loc 1 797 0
 2054 050c BB68     		ldr	r3, [r7, #8]
 2055 050e 1A68     		ldr	r2, [r3]
 2056 0510 3B6A     		ldr	r3, [r7, #32]
 2057 0512 9B6B     		ldr	r3, [r3, #56]
 2058 0514 9A42     		cmp	r2, r3
 2059 0516 03DD     		ble	.L132
 798:..\src/interruptions.c ****             st_ref_p->pos = MOT->pos_lim_sup;
 2060              		.loc 1 798 0
 2061 0518 3B6A     		ldr	r3, [r7, #32]
 2062 051a 9A6B     		ldr	r2, [r3, #56]
 2063 051c BB68     		ldr	r3, [r7, #8]
 2064 051e 1A60     		str	r2, [r3]
 2065              	.L132:
 799:..\src/interruptions.c ****     }
 800:..\src/interruptions.c ****     
 801:..\src/interruptions.c ****     // SAFETY
 802:..\src/interruptions.c ****     if (battery_low_SoC == TRUE) {
 2066              		.loc 1 802 0
 2067 0520 1D4B     		ldr	r3, .L150
 2068 0522 1B78     		ldrb	r3, [r3]	@ zero_extendqisi2
 2069 0524 012B     		cmp	r3, #1
 2070 0526 02D1     		bne	.L134
 803:..\src/interruptions.c ****         //Reopen the terminal device before disabling motor
 804:..\src/interruptions.c ****         st_ref_p->pos = 0;
 2071              		.loc 1 804 0
 2072 0528 BB68     		ldr	r3, [r7, #8]
 2073 052a 0022     		movs	r2, #0
 2074 052c 1A60     		str	r2, [r3]
 2075              	.L134:
 805:..\src/interruptions.c ****     }      
 806:..\src/interruptions.c ****     
 807:..\src/interruptions.c ****        
 808:..\src/interruptions.c ****     if (c_mem.SH.rest_position_flag == TRUE) {
 2076              		.loc 1 808 0
 2077 052e 1B4B     		ldr	r3, .L150+4
 2078 0530 93F8AC32 		ldrb	r3, [r3, #684]	@ zero_extendqisi2
 2079 0534 012B     		cmp	r3, #1
 2080 0536 2AD1     		bne	.L145
 809:..\src/interruptions.c ****         if (rest_enabled == 1){
 2081              		.loc 1 809 0
 2082 0538 194B     		ldr	r3, .L150+8
 2083 053a 1B78     		ldrb	r3, [r3]	@ zero_extendqisi2
 2084 053c 012B     		cmp	r3, #1
 2085 053e 03D1     		bne	.L136
 810:..\src/interruptions.c ****             // Change position reference to drive motor to rest position smoothly
 811:..\src/interruptions.c ****             st_ref_p->pos = rest_pos_curr_ref;
 2086              		.loc 1 811 0
 2087 0540 184B     		ldr	r3, .L150+12
 2088 0542 1A68     		ldr	r2, [r3]
 2089 0544 BB68     		ldr	r3, [r7, #8]
 2090 0546 1A60     		str	r2, [r3]
 2091              	.L136:
ARM GAS  C:\Users\Mattia\AppData\Local\Temp\cclAPrfh.s 			page 53


 812:..\src/interruptions.c ****         }
 813:..\src/interruptions.c ****         
 814:..\src/interruptions.c ****         if (forced_open == 1) {
 2092              		.loc 1 814 0
 2093 0548 174B     		ldr	r3, .L150+16
 2094 054a 1B78     		ldrb	r3, [r3]	@ zero_extendqisi2
 2095 054c 012B     		cmp	r3, #1
 2096 054e 1ED1     		bne	.L145
 815:..\src/interruptions.c ****             // Open the SoftHand as EMG PROPORTIONAL input mode 
 816:..\src/interruptions.c ****             if (err_emg_2 > 0)
 2097              		.loc 1 816 0
 2098 0550 7B69     		ldr	r3, [r7, #20]
 2099 0552 002B     		cmp	r3, #0
 2100 0554 13DD     		ble	.L137
 817:..\src/interruptions.c ****                 st_ref_p->pos = g_mem.SH.rest_pos - (err_emg_2 * g_mem.SH.rest_pos) / (1024 - c_mem
 2101              		.loc 1 817 0
 2102 0556 154B     		ldr	r3, .L150+20
 2103 0558 D3F8A022 		ldr	r2, [r3, #672]
 2104 055c 134B     		ldr	r3, .L150+20
 2105 055e D3F8A032 		ldr	r3, [r3, #672]
 2106 0562 7969     		ldr	r1, [r7, #20]
 2107 0564 01FB03F1 		mul	r1, r1, r3
 2108 0568 0C4B     		ldr	r3, .L150+4
 2109 056a B3F8F231 		ldrh	r3, [r3, #498]
 2110 056e C3F58063 		rsb	r3, r3, #1024
 2111 0572 91FBF3F3 		sdiv	r3, r1, r3
 2112 0576 D21A     		subs	r2, r2, r3
 2113 0578 BB68     		ldr	r3, [r7, #8]
 2114 057a 1A60     		str	r2, [r3]
 818:..\src/interruptions.c ****             else {
 819:..\src/interruptions.c ****                 st_ref_p->pos = g_mem.SH.rest_pos;
 820:..\src/interruptions.c ****                 forced_open = 0;
 821:..\src/interruptions.c ****             }
 822:..\src/interruptions.c ****         }
 823:..\src/interruptions.c ****     }
 824:..\src/interruptions.c **** }
 2115              		.loc 1 824 0
 2116 057c 07E0     		b	.L145
 2117              	.L137:
 819:..\src/interruptions.c ****                 forced_open = 0;
 2118              		.loc 1 819 0
 2119 057e 0B4B     		ldr	r3, .L150+20
 2120 0580 D3F8A022 		ldr	r2, [r3, #672]
 2121 0584 BB68     		ldr	r3, [r7, #8]
 2122 0586 1A60     		str	r2, [r3]
 820:..\src/interruptions.c ****             }
 2123              		.loc 1 820 0
 2124 0588 074B     		ldr	r3, .L150+16
 2125 058a 0022     		movs	r2, #0
 2126 058c 1A70     		strb	r2, [r3]
 2127              	.L145:
 2128              		.loc 1 824 0
 2129 058e 00BF     		nop
 2130 0590 2837     		adds	r7, r7, #40
 2131              		.cfi_def_cfa_offset 8
 2132 0592 BD46     		mov	sp, r7
 2133              		.cfi_def_cfa_register 13
ARM GAS  C:\Users\Mattia\AppData\Local\Temp\cclAPrfh.s 			page 54


 2134              		@ sp needed
 2135 0594 80BD     		pop	{r7, pc}
 2136              	.L151:
 2137 0596 00BF     		.align	2
 2138              	.L150:
 2139 0598 00000000 		.word	battery_low_SoC
 2140 059c 00000000 		.word	c_mem
 2141 05a0 00000000 		.word	rest_enabled
 2142 05a4 00000000 		.word	rest_pos_curr_ref
 2143 05a8 00000000 		.word	forced_open
 2144 05ac 00000000 		.word	g_mem
 2145              		.cfi_endproc
 2146              	.LFE68:
 2147              		.size	compute_reference, .-compute_reference
 2148              		.section	.text.compute_SoftHand_2_motors_joystick_reference,"ax",%progbits
 2149              		.align	2
 2150              		.global	compute_SoftHand_2_motors_joystick_reference
 2151              		.thumb
 2152              		.thumb_func
 2153              		.type	compute_SoftHand_2_motors_joystick_reference, %function
 2154              	compute_SoftHand_2_motors_joystick_reference:
 2155              	.LFB69:
 825:..\src/interruptions.c **** 
 826:..\src/interruptions.c **** 
 827:..\src/interruptions.c **** //==============================================================================
 828:..\src/interruptions.c **** //                                                       COMPUTE MOTOR REFERENCE
 829:..\src/interruptions.c **** //==============================================================================
 830:..\src/interruptions.c **** void compute_SoftHand_2_motors_joystick_reference(uint8 motor_idx, struct st_ref* st_ref_p, struct 
 2156              		.loc 1 830 0
 2157              		.cfi_startproc
 2158              		@ args = 0, pretend = 0, frame = 16
 2159              		@ frame_needed = 1, uses_anonymous_args = 0
 2160              		@ link register save eliminated.
 2161 0000 80B4     		push	{r7}
 2162              		.cfi_def_cfa_offset 4
 2163              		.cfi_offset 7, -4
 2164 0002 85B0     		sub	sp, sp, #20
 2165              		.cfi_def_cfa_offset 24
 2166 0004 00AF     		add	r7, sp, #0
 2167              		.cfi_def_cfa_register 7
 2168 0006 0346     		mov	r3, r0
 2169 0008 B960     		str	r1, [r7, #8]
 2170 000a 7A60     		str	r2, [r7, #4]
 2171 000c FB73     		strb	r3, [r7, #15]
 831:..\src/interruptions.c ****     
 832:..\src/interruptions.c ****                 
 833:..\src/interruptions.c ****             // Operates as handle input with single motor devices
 834:..\src/interruptions.c ****             /*
 835:..\src/interruptions.c ****                     case INPUT_MODE_JOYSTICK:
 836:..\src/interruptions.c **** 
 837:..\src/interruptions.c ****             err_joy_1 = 0;
 838:..\src/interruptions.c ****             err_joy_2 = 0;
 839:..\src/interruptions.c ****             if(!(g_meas.joystick[0] > 900)) {
 840:..\src/interruptions.c ****                 err_joy_1 = g_meas.joystick[0] - g_mem.joystick_threshold;
 841:..\src/interruptions.c **** 
 842:..\src/interruptions.c ****                  
 843:..\src/interruptions.c ****                 if(g_meas.joystick[0] > g_mem.joystick_threshold) {     //both motors wind the wire
ARM GAS  C:\Users\Mattia\AppData\Local\Temp\cclAPrfh.s 			page 55


 844:..\src/interruptions.c ****                     g_refNew.pos[0] += ((int32) err_joy_1 * g_mem.closure_speed) / (1024 - g_mem.jo
 845:..\src/interruptions.c ****                     g_refNew.pos[1] += ((int32) err_joy_1 * g_mem.closure_speed) / (1024 - g_mem.jo
 846:..\src/interruptions.c ****                 }
 847:..\src/interruptions.c ****                 else {
 848:..\src/interruptions.c ****                     err_joy_1 = g_meas.joystick[0] + g_mem.joystick_threshold;
 849:..\src/interruptions.c ****                     //if (err_joy_1 < 0) {
 850:..\src/interruptions.c ****                     if(g_meas.joystick[0] < -g_mem.joystick_threshold) {  //both motors unroll the 
 851:..\src/interruptions.c ****                         g_refNew.pos[0] += ((int32) err_joy_1 * g_mem.closure_speed) / (1024 - g_me
 852:..\src/interruptions.c ****                         g_refNew.pos[1] += ((int32) err_joy_1 * g_mem.closure_speed) / (1024 - g_me
 853:..\src/interruptions.c **** 
 854:..\src/interruptions.c ****                        
 855:..\src/interruptions.c ****                     }
 856:..\src/interruptions.c ****                 }
 857:..\src/interruptions.c **** 
 858:..\src/interruptions.c ****                 err_joy_2 = g_meas.joystick[1] - g_mem.joystick_threshold;
 859:..\src/interruptions.c ****                
 860:..\src/interruptions.c ****                 if(g_meas.joystick[1] > g_mem.joystick_threshold) {    //The wire is winded around 
 861:..\src/interruptions.c ****                     g_refNew.pos[0] += ((int32) err_joy_2 * g_mem.closure_speed) / (1024 - g_mem.jo
 862:..\src/interruptions.c ****                     g_refNew.pos[1] -= ((int32) err_joy_2 * g_mem.closure_speed) / (1024 - g_mem.jo
 863:..\src/interruptions.c ****                 
 864:..\src/interruptions.c ****                     
 865:..\src/interruptions.c ****                 }
 866:..\src/interruptions.c ****                 else {
 867:..\src/interruptions.c ****                     err_joy_2 = g_meas.joystick[1] + g_mem.joystick_threshold;
 868:..\src/interruptions.c ****                     
 869:..\src/interruptions.c ****                     if(g_meas.joystick[1] < -g_mem.joystick_threshold) {  //The wire is unwinded fr
 870:..\src/interruptions.c ****                         g_refNew.pos[0] += ((int32) err_joy_2 * g_mem.closure_speed) / (1024 - g_me
 871:..\src/interruptions.c ****                         g_refNew.pos[1] -= ((int32) err_joy_2 * g_mem.closure_speed) / (1024 - g_me
 872:..\src/interruptions.c **** 
 873:..\src/interruptions.c ****                         
 874:..\src/interruptions.c ****                     }
 875:..\src/interruptions.c ****                 }
 876:..\src/interruptions.c ****             }
 877:..\src/interruptions.c **** 
 878:..\src/interruptions.c ****             else {  //The button is pressed and the hand is opened firstly making the position diff
 879:..\src/interruptions.c ****                     //equal to zero, then the position sum is gradually set to zero 
 880:..\src/interruptions.c ****                 pos_diff = (g_meas.pos[0] - g_meas.pos[1]) >> c_mem.res[0];
 881:..\src/interruptions.c ****                 pos_sum = (g_meas.pos[0] + g_meas.pos[1]) >> c_mem.res[0];
 882:..\src/interruptions.c **** 
 883:..\src/interruptions.c ****                 if(abs(pos_diff) > 500) {
 884:..\src/interruptions.c ****                     if(SIGN(pos_diff) == 1) {
 885:..\src/interruptions.c ****                         g_refNew.pos[1] += g_mem.closure_speed;
 886:..\src/interruptions.c ****                         g_refNew.pos[0] -= g_mem.closure_speed / 2;
 887:..\src/interruptions.c ****                     }
 888:..\src/interruptions.c ****                     else {
 889:..\src/interruptions.c ****                         g_refNew.pos[0] += g_mem.closure_speed;
 890:..\src/interruptions.c ****                         g_refNew.pos[1] -= g_mem.closure_speed / 2;
 891:..\src/interruptions.c ****                     }
 892:..\src/interruptions.c ****                     
 893:..\src/interruptions.c ****                 }
 894:..\src/interruptions.c ****                 else {
 895:..\src/interruptions.c ****                     if(pos_sum > 0) {
 896:..\src/interruptions.c ****                         g_refNew.pos[0] -= g_mem.closure_speed * 2;
 897:..\src/interruptions.c ****                         g_refNew.pos[1] -= g_mem.closure_speed * 2;
 898:..\src/interruptions.c ****                         if(g_refNew.pos[0] < 0)
 899:..\src/interruptions.c ****                             g_refNew.pos[0] = 0;
 900:..\src/interruptions.c ****                         if(g_refNew.pos[1] < 0);
ARM GAS  C:\Users\Mattia\AppData\Local\Temp\cclAPrfh.s 			page 56


 901:..\src/interruptions.c ****                             g_refNew.pos[1] = 0;
 902:..\src/interruptions.c ****                     }
 903:..\src/interruptions.c ****                 }
 904:..\src/interruptions.c ****             }
 905:..\src/interruptions.c ****         
 906:..\src/interruptions.c ****         break;
 907:..\src/interruptions.c ****             */
 908:..\src/interruptions.c ****             
 909:..\src/interruptions.c **** }
 2172              		.loc 1 909 0
 2173 000e 00BF     		nop
 2174 0010 1437     		adds	r7, r7, #20
 2175              		.cfi_def_cfa_offset 4
 2176 0012 BD46     		mov	sp, r7
 2177              		.cfi_def_cfa_register 13
 2178              		@ sp needed
 2179 0014 80BC     		pop	{r7}
 2180              		.cfi_restore 7
 2181              		.cfi_def_cfa_offset 0
 2182 0016 7047     		bx	lr
 2183              		.cfi_endproc
 2184              	.LFE69:
 2185              		.size	compute_SoftHand_2_motors_joystick_reference, .-compute_SoftHand_2_motors_joystick_reference
 2186              		.section	.text.motor_control_SH,"ax",%progbits
 2187              		.align	2
 2188              		.global	motor_control_SH
 2189              		.thumb
 2190              		.thumb_func
 2191              		.type	motor_control_SH, %function
 2192              	motor_control_SH:
 2193              	.LFB70:
 910:..\src/interruptions.c **** 
 911:..\src/interruptions.c **** //==============================================================================
 912:..\src/interruptions.c **** //                                                        MOTOR CONTROL SOFTHAND
 913:..\src/interruptions.c **** //==============================================================================
 914:..\src/interruptions.c **** void motor_control_SH() {
 2194              		.loc 1 914 0
 2195              		.cfi_startproc
 2196              		@ args = 0, pretend = 0, frame = 80
 2197              		@ frame_needed = 1, uses_anonymous_args = 0
 2198 0000 80B5     		push	{r7, lr}
 2199              		.cfi_def_cfa_offset 8
 2200              		.cfi_offset 7, -8
 2201              		.cfi_offset 14, -4
 2202 0002 94B0     		sub	sp, sp, #80
 2203              		.cfi_def_cfa_offset 88
 2204 0004 00AF     		add	r7, sp, #0
 2205              		.cfi_def_cfa_register 7
 915:..\src/interruptions.c **** 
 916:..\src/interruptions.c ****     int32 CYDATA pwm_input = 0;
 2206              		.loc 1 916 0
 2207 0006 0023     		movs	r3, #0
 2208 0008 FB64     		str	r3, [r7, #76]
 917:..\src/interruptions.c ****     int32 CYDATA pos_error;         // position error
 918:..\src/interruptions.c ****     int32 CYDATA curr_error;        // current error
 919:..\src/interruptions.c ****     int32 CYDATA i_ref;             // current reference
 920:..\src/interruptions.c ****  
ARM GAS  C:\Users\Mattia\AppData\Local\Temp\cclAPrfh.s 			page 57


 921:..\src/interruptions.c ****     uint8 MOTOR_IDX = 0;
 2209              		.loc 1 921 0
 2210 000a 0023     		movs	r3, #0
 2211 000c 87F84730 		strb	r3, [r7, #71]
 922:..\src/interruptions.c ****     
 923:..\src/interruptions.c ****     struct st_motor* SH_MOT = &c_mem.motor[MOTOR_IDX];      // SoftHand default motor
 2212              		.loc 1 923 0
 2213 0010 97F84720 		ldrb	r2, [r7, #71]	@ zero_extendqisi2
 2214 0014 1346     		mov	r3, r2
 2215 0016 DB00     		lsls	r3, r3, #3
 2216 0018 9B1A     		subs	r3, r3, r2
 2217 001a 1B01     		lsls	r3, r3, #4
 2218 001c B033     		adds	r3, r3, #176
 2219 001e 9D4A     		ldr	r2, .L214
 2220 0020 1344     		add	r3, r3, r2
 2221 0022 3B64     		str	r3, [r7, #64]
 924:..\src/interruptions.c ****     uint8 SH_ENC_L = SH_MOT->encoder_line;          // Associated encoder line
 2222              		.loc 1 924 0
 2223 0024 3B6C     		ldr	r3, [r7, #64]
 2224 0026 93F86030 		ldrb	r3, [r3, #96]
 2225 002a 87F83F30 		strb	r3, [r7, #63]
 925:..\src/interruptions.c ****     
 926:..\src/interruptions.c ****     int32 CYDATA k_p = SH_MOT->k_p;  
 2226              		.loc 1 926 0
 2227 002e 3B6C     		ldr	r3, [r7, #64]
 2228 0030 1B68     		ldr	r3, [r3]
 2229 0032 BB63     		str	r3, [r7, #56]
 927:..\src/interruptions.c ****     int32 CYDATA k_i = SH_MOT->k_i; 
 2230              		.loc 1 927 0
 2231 0034 3B6C     		ldr	r3, [r7, #64]
 2232 0036 5B68     		ldr	r3, [r3, #4]
 2233 0038 7B63     		str	r3, [r7, #52]
 928:..\src/interruptions.c ****     int32 CYDATA k_d = SH_MOT->k_d; 
 2234              		.loc 1 928 0
 2235 003a 3B6C     		ldr	r3, [r7, #64]
 2236 003c 9B68     		ldr	r3, [r3, #8]
 2237 003e 3B63     		str	r3, [r7, #48]
 929:..\src/interruptions.c **** 
 930:..\src/interruptions.c ****     int32 CYDATA k_p_c = SH_MOT->k_p_c;  
 2238              		.loc 1 930 0
 2239 0040 3B6C     		ldr	r3, [r7, #64]
 2240 0042 DB68     		ldr	r3, [r3, #12]
 2241 0044 FB62     		str	r3, [r7, #44]
 931:..\src/interruptions.c ****     int32 CYDATA k_i_c = SH_MOT->k_i_c; 
 2242              		.loc 1 931 0
 2243 0046 3B6C     		ldr	r3, [r7, #64]
 2244 0048 1B69     		ldr	r3, [r3, #16]
 2245 004a BB62     		str	r3, [r7, #40]
 932:..\src/interruptions.c ****     int32 CYDATA k_d_c = SH_MOT->k_d_c;   
 2246              		.loc 1 932 0
 2247 004c 3B6C     		ldr	r3, [r7, #64]
 2248 004e 5B69     		ldr	r3, [r3, #20]
 2249 0050 7B62     		str	r3, [r7, #36]
 933:..\src/interruptions.c **** 
 934:..\src/interruptions.c ****     int32 CYDATA k_p_dl = SH_MOT->k_p_dl;  
 2250              		.loc 1 934 0
 2251 0052 3B6C     		ldr	r3, [r7, #64]
ARM GAS  C:\Users\Mattia\AppData\Local\Temp\cclAPrfh.s 			page 58


 2252 0054 9B69     		ldr	r3, [r3, #24]
 2253 0056 3B62     		str	r3, [r7, #32]
 935:..\src/interruptions.c ****     int32 CYDATA k_i_dl = SH_MOT->k_i_dl; 
 2254              		.loc 1 935 0
 2255 0058 3B6C     		ldr	r3, [r7, #64]
 2256 005a DB69     		ldr	r3, [r3, #28]
 2257 005c FB61     		str	r3, [r7, #28]
 936:..\src/interruptions.c ****     int32 CYDATA k_d_dl = SH_MOT->k_d_dl;
 2258              		.loc 1 936 0
 2259 005e 3B6C     		ldr	r3, [r7, #64]
 2260 0060 1B6A     		ldr	r3, [r3, #32]
 2261 0062 BB61     		str	r3, [r7, #24]
 937:..\src/interruptions.c ****     
 938:..\src/interruptions.c ****     int32 CYDATA k_p_c_dl = SH_MOT->k_p_c_dl;  
 2262              		.loc 1 938 0
 2263 0064 3B6C     		ldr	r3, [r7, #64]
 2264 0066 5B6A     		ldr	r3, [r3, #36]
 2265 0068 7B61     		str	r3, [r7, #20]
 939:..\src/interruptions.c ****     int32 CYDATA k_i_c_dl = SH_MOT->k_i_c_dl; 
 2266              		.loc 1 939 0
 2267 006a 3B6C     		ldr	r3, [r7, #64]
 2268 006c 9B6A     		ldr	r3, [r3, #40]
 2269 006e 3B61     		str	r3, [r7, #16]
 940:..\src/interruptions.c ****     int32 CYDATA k_d_c_dl = SH_MOT->k_d_c_dl;   
 2270              		.loc 1 940 0
 2271 0070 3B6C     		ldr	r3, [r7, #64]
 2272 0072 DB6A     		ldr	r3, [r3, #44]
 2273 0074 FB60     		str	r3, [r7, #12]
 941:..\src/interruptions.c **** 
 942:..\src/interruptions.c ****     // Static Variables
 943:..\src/interruptions.c **** 
 944:..\src/interruptions.c ****     static int32 pos_error_sum;     // position error sum for integral
 945:..\src/interruptions.c ****     static int32 curr_error_sum;    // current error sum for integral
 946:..\src/interruptions.c ****     
 947:..\src/interruptions.c ****     static int32 prev_pos_err;      // previous position error for deriv. control
 948:..\src/interruptions.c ****     static int32 prev_curr_err;     // previous current error for deriv. control
 949:..\src/interruptions.c ****     static int32 prev_pwm;
 950:..\src/interruptions.c **** 
 951:..\src/interruptions.c ****     static CYBIT motor_dir = FALSE;
 952:..\src/interruptions.c ****     static uint32 position_counter = 0;
 953:..\src/interruptions.c ****   
 954:..\src/interruptions.c ****     // ======================= UPDATE MOTOR REFERENCE ==========================            
 955:..\src/interruptions.c ****     compute_reference(MOTOR_IDX, &g_ref[MOTOR_IDX], &g_refOld[MOTOR_IDX]);
 2274              		.loc 1 955 0
 2275 0076 97F84730 		ldrb	r3, [r7, #71]	@ zero_extendqisi2
 2276 007a 1B01     		lsls	r3, r3, #4
 2277 007c 864A     		ldr	r2, .L214+4
 2278 007e 9918     		adds	r1, r3, r2
 2279 0080 97F84730 		ldrb	r3, [r7, #71]	@ zero_extendqisi2
 2280 0084 1B01     		lsls	r3, r3, #4
 2281 0086 854A     		ldr	r2, .L214+8
 2282 0088 1A44     		add	r2, r2, r3
 2283 008a 97F84730 		ldrb	r3, [r7, #71]	@ zero_extendqisi2
 2284 008e 1846     		mov	r0, r3
 2285 0090 FFF7FEFF 		bl	compute_reference
 956:..\src/interruptions.c ****      
 957:..\src/interruptions.c ****     switch(SH_MOT->control_mode) {
ARM GAS  C:\Users\Mattia\AppData\Local\Temp\cclAPrfh.s 			page 59


 2286              		.loc 1 957 0
 2287 0094 3B6C     		ldr	r3, [r7, #64]
 2288 0096 93F85F30 		ldrb	r3, [r3, #95]	@ zero_extendqisi2
 2289 009a 032B     		cmp	r3, #3
 2290 009c 00F2F781 		bhi	.L154
 2291 00a0 01A2     		adr	r2, .L156
 2292 00a2 52F823F0 		ldr	pc, [r2, r3, lsl #2]
 2293 00a6 00BF     		.p2align 2
 2294              	.L156:
 2295 00a8 55020000 		.word	.L155+1
 2296 00ac 49040000 		.word	.L157+1
 2297 00b0 3B030000 		.word	.L158+1
 2298 00b4 B9000000 		.word	.L159+1
 2299              		.p2align 1
 2300              	.L159:
 958:..\src/interruptions.c ****         // ======================= CURRENT AND POSITION CONTROL =======================
 959:..\src/interruptions.c ****         case CURR_AND_POS_CONTROL:
 960:..\src/interruptions.c ****             pos_error = g_ref[MOTOR_IDX].pos - g_meas[SH_ENC_L].pos[0];
 2301              		.loc 1 960 0
 2302 00b8 97F84730 		ldrb	r3, [r7, #71]	@ zero_extendqisi2
 2303 00bc 764A     		ldr	r2, .L214+4
 2304 00be 1B01     		lsls	r3, r3, #4
 2305 00c0 1344     		add	r3, r3, r2
 2306 00c2 1A68     		ldr	r2, [r3]
 2307 00c4 97F83F30 		ldrb	r3, [r7, #63]	@ zero_extendqisi2
 2308 00c8 7549     		ldr	r1, .L214+12
 2309 00ca 3420     		movs	r0, #52
 2310 00cc 00FB03F3 		mul	r3, r0, r3
 2311 00d0 0B44     		add	r3, r3, r1
 2312 00d2 1B68     		ldr	r3, [r3]
 2313 00d4 D31A     		subs	r3, r2, r3
 2314 00d6 BB60     		str	r3, [r7, #8]
 961:..\src/interruptions.c **** 
 962:..\src/interruptions.c ****             pos_error_sum += pos_error;
 2315              		.loc 1 962 0
 2316 00d8 724B     		ldr	r3, .L214+16
 2317 00da 1A68     		ldr	r2, [r3]
 2318 00dc BB68     		ldr	r3, [r7, #8]
 2319 00de 1344     		add	r3, r3, r2
 2320 00e0 704A     		ldr	r2, .L214+16
 2321 00e2 1360     		str	r3, [r2]
 963:..\src/interruptions.c **** 
 964:..\src/interruptions.c ****             // error_sum saturation
 965:..\src/interruptions.c ****             if (pos_error_sum > POS_INTEGRAL_SAT_LIMIT)
 2322              		.loc 1 965 0
 2323 00e4 6F4B     		ldr	r3, .L214+16
 2324 00e6 1B68     		ldr	r3, [r3]
 2325 00e8 6F4A     		ldr	r2, .L214+20
 2326 00ea 9342     		cmp	r3, r2
 2327 00ec 03DD     		ble	.L160
 966:..\src/interruptions.c ****                 pos_error_sum = POS_INTEGRAL_SAT_LIMIT;
 2328              		.loc 1 966 0
 2329 00ee 6D4B     		ldr	r3, .L214+16
 2330 00f0 6D4A     		ldr	r2, .L214+20
 2331 00f2 1A60     		str	r2, [r3]
 2332 00f4 07E0     		b	.L161
 2333              	.L160:
ARM GAS  C:\Users\Mattia\AppData\Local\Temp\cclAPrfh.s 			page 60


 967:..\src/interruptions.c ****             else {
 968:..\src/interruptions.c ****                 if (pos_error_sum < -POS_INTEGRAL_SAT_LIMIT) 
 2334              		.loc 1 968 0
 2335 00f6 6B4B     		ldr	r3, .L214+16
 2336 00f8 1B68     		ldr	r3, [r3]
 2337 00fa 6C4A     		ldr	r2, .L214+24
 2338 00fc 9342     		cmp	r3, r2
 2339 00fe 02DA     		bge	.L161
 969:..\src/interruptions.c ****                     pos_error_sum = -POS_INTEGRAL_SAT_LIMIT;
 2340              		.loc 1 969 0
 2341 0100 684B     		ldr	r3, .L214+16
 2342 0102 6A4A     		ldr	r2, .L214+24
 2343 0104 1A60     		str	r2, [r3]
 2344              	.L161:
 970:..\src/interruptions.c ****             }
 971:..\src/interruptions.c ****             
 972:..\src/interruptions.c ****             // ------ position PID control ------
 973:..\src/interruptions.c **** 
 974:..\src/interruptions.c ****             i_ref = 0;
 2345              		.loc 1 974 0
 2346 0106 0023     		movs	r3, #0
 2347 0108 BB64     		str	r3, [r7, #72]
 975:..\src/interruptions.c ****             
 976:..\src/interruptions.c ****             // Proportional
 977:..\src/interruptions.c ****             if (k_p_dl != 0)
 2348              		.loc 1 977 0
 2349 010a 3B6A     		ldr	r3, [r7, #32]
 2350 010c 002B     		cmp	r3, #0
 2351 010e 07D0     		beq	.L162
 978:..\src/interruptions.c ****                 i_ref += (int32)(k_p_dl * pos_error) >> 16;
 2352              		.loc 1 978 0
 2353 0110 3B6A     		ldr	r3, [r7, #32]
 2354 0112 BA68     		ldr	r2, [r7, #8]
 2355 0114 02FB03F3 		mul	r3, r2, r3
 2356 0118 1B14     		asrs	r3, r3, #16
 2357 011a BA6C     		ldr	r2, [r7, #72]
 2358 011c 1344     		add	r3, r3, r2
 2359 011e BB64     		str	r3, [r7, #72]
 2360              	.L162:
 979:..\src/interruptions.c **** 
 980:..\src/interruptions.c ****             // Integral
 981:..\src/interruptions.c ****             if (k_i_dl != 0)
 2361              		.loc 1 981 0
 2362 0120 FB69     		ldr	r3, [r7, #28]
 2363 0122 002B     		cmp	r3, #0
 2364 0124 08D0     		beq	.L163
 982:..\src/interruptions.c ****                 i_ref += (int32)(k_i_dl * pos_error_sum) >> 16;
 2365              		.loc 1 982 0
 2366 0126 5F4B     		ldr	r3, .L214+16
 2367 0128 1B68     		ldr	r3, [r3]
 2368 012a FA69     		ldr	r2, [r7, #28]
 2369 012c 02FB03F3 		mul	r3, r2, r3
 2370 0130 1B14     		asrs	r3, r3, #16
 2371 0132 BA6C     		ldr	r2, [r7, #72]
 2372 0134 1344     		add	r3, r3, r2
 2373 0136 BB64     		str	r3, [r7, #72]
 2374              	.L163:
ARM GAS  C:\Users\Mattia\AppData\Local\Temp\cclAPrfh.s 			page 61


 983:..\src/interruptions.c **** 
 984:..\src/interruptions.c ****             // Derivative
 985:..\src/interruptions.c ****             if (k_d_dl != 0)
 2375              		.loc 1 985 0
 2376 0138 BB69     		ldr	r3, [r7, #24]
 2377 013a 002B     		cmp	r3, #0
 2378 013c 0AD0     		beq	.L164
 986:..\src/interruptions.c ****                 i_ref += (int32)(k_d_dl * (pos_error - prev_pos_err)) >> 16;
 2379              		.loc 1 986 0
 2380 013e 5C4B     		ldr	r3, .L214+28
 2381 0140 1B68     		ldr	r3, [r3]
 2382 0142 BA68     		ldr	r2, [r7, #8]
 2383 0144 D31A     		subs	r3, r2, r3
 2384 0146 BA69     		ldr	r2, [r7, #24]
 2385 0148 02FB03F3 		mul	r3, r2, r3
 2386 014c 1B14     		asrs	r3, r3, #16
 2387 014e BA6C     		ldr	r2, [r7, #72]
 2388 0150 1344     		add	r3, r3, r2
 2389 0152 BB64     		str	r3, [r7, #72]
 2390              	.L164:
 987:..\src/interruptions.c ****                         
 988:..\src/interruptions.c ****             // Update previous position
 989:..\src/interruptions.c ****             prev_pos_err = pos_error;
 2391              		.loc 1 989 0
 2392 0154 564A     		ldr	r2, .L214+28
 2393 0156 BB68     		ldr	r3, [r7, #8]
 2394 0158 1360     		str	r3, [r2]
 990:..\src/interruptions.c **** 
 991:..\src/interruptions.c ****             // motor direction depends on i_ref
 992:..\src/interruptions.c ****             if (i_ref >= 0)
 2395              		.loc 1 992 0
 2396 015a BB6C     		ldr	r3, [r7, #72]
 2397 015c 002B     		cmp	r3, #0
 2398 015e 03DB     		blt	.L165
 993:..\src/interruptions.c ****                 motor_dir = TRUE;
 2399              		.loc 1 993 0
 2400 0160 544B     		ldr	r3, .L214+32
 2401 0162 0122     		movs	r2, #1
 2402 0164 1A70     		strb	r2, [r3]
 2403 0166 02E0     		b	.L166
 2404              	.L165:
 994:..\src/interruptions.c ****             else
 995:..\src/interruptions.c ****                 motor_dir = FALSE;
 2405              		.loc 1 995 0
 2406 0168 524B     		ldr	r3, .L214+32
 2407 016a 0022     		movs	r2, #0
 2408 016c 1A70     		strb	r2, [r3]
 2409              	.L166:
 996:..\src/interruptions.c **** 
 997:..\src/interruptions.c ****             // saturate max current
 998:..\src/interruptions.c ****             if (i_ref > SH_MOT->current_limit)
 2410              		.loc 1 998 0
 2411 016e 3B6C     		ldr	r3, [r7, #64]
 2412 0170 B3F95C30 		ldrsh	r3, [r3, #92]
 2413 0174 1A46     		mov	r2, r3
 2414 0176 BB6C     		ldr	r3, [r7, #72]
 2415 0178 9A42     		cmp	r2, r3
ARM GAS  C:\Users\Mattia\AppData\Local\Temp\cclAPrfh.s 			page 62


 2416 017a 04DA     		bge	.L167
 999:..\src/interruptions.c ****                 i_ref = SH_MOT->current_limit;
 2417              		.loc 1 999 0
 2418 017c 3B6C     		ldr	r3, [r7, #64]
 2419 017e B3F95C30 		ldrsh	r3, [r3, #92]
 2420 0182 BB64     		str	r3, [r7, #72]
 2421 0184 0BE0     		b	.L168
 2422              	.L167:
1000:..\src/interruptions.c ****             else {
1001:..\src/interruptions.c ****                 if (i_ref < -SH_MOT->current_limit)
 2423              		.loc 1 1001 0
 2424 0186 3B6C     		ldr	r3, [r7, #64]
 2425 0188 B3F95C30 		ldrsh	r3, [r3, #92]
 2426 018c 5A42     		negs	r2, r3
 2427 018e BB6C     		ldr	r3, [r7, #72]
 2428 0190 9A42     		cmp	r2, r3
 2429 0192 04DD     		ble	.L168
1002:..\src/interruptions.c ****                     i_ref = -SH_MOT->current_limit;
 2430              		.loc 1 1002 0
 2431 0194 3B6C     		ldr	r3, [r7, #64]
 2432 0196 B3F95C30 		ldrsh	r3, [r3, #92]
 2433 019a 5B42     		negs	r3, r3
 2434 019c BB64     		str	r3, [r7, #72]
 2435              	.L168:
1003:..\src/interruptions.c ****         	}
1004:..\src/interruptions.c **** 
1005:..\src/interruptions.c ****             // current error and curr error sum
1006:..\src/interruptions.c ****             curr_error = i_ref - g_meas[SH_ENC_L].curr;
 2436              		.loc 1 1006 0
 2437 019e 97F83F30 		ldrb	r3, [r7, #63]	@ zero_extendqisi2
 2438 01a2 3F4A     		ldr	r2, .L214+12
 2439 01a4 3421     		movs	r1, #52
 2440 01a6 01FB03F3 		mul	r3, r1, r3
 2441 01aa 1344     		add	r3, r3, r2
 2442 01ac 0C33     		adds	r3, r3, #12
 2443 01ae 1B68     		ldr	r3, [r3]
 2444 01b0 BA6C     		ldr	r2, [r7, #72]
 2445 01b2 D31A     		subs	r3, r2, r3
 2446 01b4 7B60     		str	r3, [r7, #4]
1007:..\src/interruptions.c ****             curr_error_sum += curr_error;
 2447              		.loc 1 1007 0
 2448 01b6 404B     		ldr	r3, .L214+36
 2449 01b8 1A68     		ldr	r2, [r3]
 2450 01ba 7B68     		ldr	r3, [r7, #4]
 2451 01bc 1344     		add	r3, r3, r2
 2452 01be 3E4A     		ldr	r2, .L214+36
 2453 01c0 1360     		str	r3, [r2]
1008:..\src/interruptions.c ****             
1009:..\src/interruptions.c ****             if (curr_error_sum > CURR_INTEGRAL_SAT_LIMIT)
 2454              		.loc 1 1009 0
 2455 01c2 3D4B     		ldr	r3, .L214+36
 2456 01c4 1B68     		ldr	r3, [r3]
 2457 01c6 3D4A     		ldr	r2, .L214+40
 2458 01c8 9342     		cmp	r3, r2
 2459 01ca 03DD     		ble	.L169
1010:..\src/interruptions.c ****                 curr_error_sum = CURR_INTEGRAL_SAT_LIMIT;
 2460              		.loc 1 1010 0
ARM GAS  C:\Users\Mattia\AppData\Local\Temp\cclAPrfh.s 			page 63


 2461 01cc 3A4B     		ldr	r3, .L214+36
 2462 01ce 3B4A     		ldr	r2, .L214+40
 2463 01d0 1A60     		str	r2, [r3]
 2464 01d2 07E0     		b	.L170
 2465              	.L169:
1011:..\src/interruptions.c ****             else {
1012:..\src/interruptions.c ****                 if (curr_error_sum < -CURR_INTEGRAL_SAT_LIMIT)
 2466              		.loc 1 1012 0
 2467 01d4 384B     		ldr	r3, .L214+36
 2468 01d6 1B68     		ldr	r3, [r3]
 2469 01d8 394A     		ldr	r2, .L214+44
 2470 01da 9342     		cmp	r3, r2
 2471 01dc 02DA     		bge	.L170
1013:..\src/interruptions.c ****                     curr_error_sum = -CURR_INTEGRAL_SAT_LIMIT;
 2472              		.loc 1 1013 0
 2473 01de 364B     		ldr	r3, .L214+36
 2474 01e0 374A     		ldr	r2, .L214+44
 2475 01e2 1A60     		str	r2, [r3]
 2476              	.L170:
1014:..\src/interruptions.c ****             }
1015:..\src/interruptions.c **** 
1016:..\src/interruptions.c ****             // ----- current PID control -----
1017:..\src/interruptions.c **** 
1018:..\src/interruptions.c ****             pwm_input = 0;
 2477              		.loc 1 1018 0
 2478 01e4 0023     		movs	r3, #0
 2479 01e6 FB64     		str	r3, [r7, #76]
1019:..\src/interruptions.c **** 
1020:..\src/interruptions.c ****             // Proportional
1021:..\src/interruptions.c ****             if (k_p_c_dl != 0)
 2480              		.loc 1 1021 0
 2481 01e8 7B69     		ldr	r3, [r7, #20]
 2482 01ea 002B     		cmp	r3, #0
 2483 01ec 07D0     		beq	.L171
1022:..\src/interruptions.c ****                 pwm_input += (int32)(k_p_c_dl * curr_error) >> 16;
 2484              		.loc 1 1022 0
 2485 01ee 7B69     		ldr	r3, [r7, #20]
 2486 01f0 7A68     		ldr	r2, [r7, #4]
 2487 01f2 02FB03F3 		mul	r3, r2, r3
 2488 01f6 1B14     		asrs	r3, r3, #16
 2489 01f8 FA6C     		ldr	r2, [r7, #76]
 2490 01fa 1344     		add	r3, r3, r2
 2491 01fc FB64     		str	r3, [r7, #76]
 2492              	.L171:
1023:..\src/interruptions.c **** 
1024:..\src/interruptions.c ****             // Integral
1025:..\src/interruptions.c ****             if (k_i_c_dl != 0)
 2493              		.loc 1 1025 0
 2494 01fe 3B69     		ldr	r3, [r7, #16]
 2495 0200 002B     		cmp	r3, #0
 2496 0202 08D0     		beq	.L172
1026:..\src/interruptions.c ****                 pwm_input += (int32)(k_i_c_dl * curr_error_sum) >> 16;
 2497              		.loc 1 1026 0
 2498 0204 2C4B     		ldr	r3, .L214+36
 2499 0206 1B68     		ldr	r3, [r3]
 2500 0208 3A69     		ldr	r2, [r7, #16]
 2501 020a 02FB03F3 		mul	r3, r2, r3
ARM GAS  C:\Users\Mattia\AppData\Local\Temp\cclAPrfh.s 			page 64


 2502 020e 1B14     		asrs	r3, r3, #16
 2503 0210 FA6C     		ldr	r2, [r7, #76]
 2504 0212 1344     		add	r3, r3, r2
 2505 0214 FB64     		str	r3, [r7, #76]
 2506              	.L172:
1027:..\src/interruptions.c **** 
1028:..\src/interruptions.c ****             // Derivative
1029:..\src/interruptions.c ****             if (k_d_c_dl != 0)
 2507              		.loc 1 1029 0
 2508 0216 FB68     		ldr	r3, [r7, #12]
 2509 0218 002B     		cmp	r3, #0
 2510 021a 0AD0     		beq	.L173
1030:..\src/interruptions.c ****                 pwm_input += (int32)(k_d_c_dl * (curr_error - prev_curr_err)) >> 16;
 2511              		.loc 1 1030 0
 2512 021c 294B     		ldr	r3, .L214+48
 2513 021e 1B68     		ldr	r3, [r3]
 2514 0220 7A68     		ldr	r2, [r7, #4]
 2515 0222 D31A     		subs	r3, r2, r3
 2516 0224 FA68     		ldr	r2, [r7, #12]
 2517 0226 02FB03F3 		mul	r3, r2, r3
 2518 022a 1B14     		asrs	r3, r3, #16
 2519 022c FA6C     		ldr	r2, [r7, #76]
 2520 022e 1344     		add	r3, r3, r2
 2521 0230 FB64     		str	r3, [r7, #76]
 2522              	.L173:
1031:..\src/interruptions.c **** 
1032:..\src/interruptions.c ****             // pwm_input saturation
1033:..\src/interruptions.c ****             if (pwm_input < -PWM_MAX_VALUE) 
 2523              		.loc 1 1033 0
 2524 0232 FB6C     		ldr	r3, [r7, #76]
 2525 0234 13F1640F 		cmn	r3, #100
 2526 0238 03DA     		bge	.L174
1034:..\src/interruptions.c ****                 pwm_input = -PWM_MAX_VALUE;
 2527              		.loc 1 1034 0
 2528 023a 6FF06303 		mvn	r3, #99
 2529 023e FB64     		str	r3, [r7, #76]
 2530 0240 04E0     		b	.L175
 2531              	.L174:
1035:..\src/interruptions.c ****             else {
1036:..\src/interruptions.c ****                 if (pwm_input > PWM_MAX_VALUE)
 2532              		.loc 1 1036 0
 2533 0242 FB6C     		ldr	r3, [r7, #76]
 2534 0244 642B     		cmp	r3, #100
 2535 0246 01DD     		ble	.L175
1037:..\src/interruptions.c ****                     pwm_input = PWM_MAX_VALUE;
 2536              		.loc 1 1037 0
 2537 0248 6423     		movs	r3, #100
 2538 024a FB64     		str	r3, [r7, #76]
 2539              	.L175:
1038:..\src/interruptions.c ****             }
1039:..\src/interruptions.c **** 
1040:..\src/interruptions.c ****             // Update previous current
1041:..\src/interruptions.c ****             prev_curr_err = curr_error;
 2540              		.loc 1 1041 0
 2541 024c 1D4A     		ldr	r2, .L214+48
 2542 024e 7B68     		ldr	r3, [r7, #4]
 2543 0250 1360     		str	r3, [r2]
ARM GAS  C:\Users\Mattia\AppData\Local\Temp\cclAPrfh.s 			page 65


1042:..\src/interruptions.c **** 
1043:..\src/interruptions.c ****         break;
 2544              		.loc 1 1043 0
 2545 0252 1CE1     		b	.L154
 2546              	.L155:
1044:..\src/interruptions.c **** 
1045:..\src/interruptions.c ****         // ============================== POSITION CONTROL =====================
1046:..\src/interruptions.c ****         case CONTROL_ANGLE:
1047:..\src/interruptions.c ****             pos_error = g_ref[MOTOR_IDX].pos - g_meas[SH_ENC_L].pos[0];
 2547              		.loc 1 1047 0
 2548 0254 97F84730 		ldrb	r3, [r7, #71]	@ zero_extendqisi2
 2549 0258 0F4A     		ldr	r2, .L214+4
 2550 025a 1B01     		lsls	r3, r3, #4
 2551 025c 1344     		add	r3, r3, r2
 2552 025e 1A68     		ldr	r2, [r3]
 2553 0260 97F83F30 		ldrb	r3, [r7, #63]	@ zero_extendqisi2
 2554 0264 0E49     		ldr	r1, .L214+12
 2555 0266 3420     		movs	r0, #52
 2556 0268 00FB03F3 		mul	r3, r0, r3
 2557 026c 0B44     		add	r3, r3, r1
 2558 026e 1B68     		ldr	r3, [r3]
 2559 0270 D31A     		subs	r3, r2, r3
 2560 0272 BB60     		str	r3, [r7, #8]
1048:..\src/interruptions.c **** 
1049:..\src/interruptions.c ****             pos_error_sum += pos_error;
 2561              		.loc 1 1049 0
 2562 0274 0B4B     		ldr	r3, .L214+16
 2563 0276 1A68     		ldr	r2, [r3]
 2564 0278 BB68     		ldr	r3, [r7, #8]
 2565 027a 1344     		add	r3, r3, r2
 2566 027c 094A     		ldr	r2, .L214+16
 2567 027e 1360     		str	r3, [r2]
1050:..\src/interruptions.c **** 
1051:..\src/interruptions.c ****             // anti-windup (for integral control)
1052:..\src/interruptions.c ****             if (pos_error_sum > ANTI_WINDUP)
 2568              		.loc 1 1052 0
 2569 0280 084B     		ldr	r3, .L214+16
 2570 0282 1B68     		ldr	r3, [r3]
 2571 0284 B3F57A7F 		cmp	r3, #1000
 2572 0288 1EDD     		ble	.L176
1053:..\src/interruptions.c ****                 pos_error_sum = ANTI_WINDUP;
 2573              		.loc 1 1053 0
 2574 028a 064B     		ldr	r3, .L214+16
 2575 028c 4FF47A72 		mov	r2, #1000
 2576 0290 1A60     		str	r2, [r3]
 2577 0292 21E0     		b	.L177
 2578              	.L215:
 2579              		.align	2
 2580              	.L214:
 2581 0294 00000000 		.word	c_mem
 2582 0298 00000000 		.word	g_ref
 2583 029c 00000000 		.word	g_refOld
 2584 02a0 00000000 		.word	g_meas
 2585 02a4 90000000 		.word	pos_error_sum.10501
 2586 02a8 80F0FA02 		.word	50000000
 2587 02ac 800F05FD 		.word	-50000000
 2588 02b0 94000000 		.word	prev_pos_err.10503
ARM GAS  C:\Users\Mattia\AppData\Local\Temp\cclAPrfh.s 			page 66


 2589 02b4 98000000 		.word	motor_dir.10506
 2590 02b8 9C000000 		.word	curr_error_sum.10502
 2591 02bc A0860100 		.word	100000
 2592 02c0 6079FEFF 		.word	-100000
 2593 02c4 A0000000 		.word	prev_curr_err.10504
 2594              	.L176:
1054:..\src/interruptions.c ****             else {
1055:..\src/interruptions.c **** 				if (pos_error_sum < -ANTI_WINDUP)
 2595              		.loc 1 1055 0
 2596 02c8 9C4B     		ldr	r3, .L216
 2597 02ca 1B68     		ldr	r3, [r3]
 2598 02cc 13F57A7F 		cmn	r3, #1000
 2599 02d0 02DA     		bge	.L177
1056:..\src/interruptions.c ****                 	pos_error_sum = -ANTI_WINDUP;
 2600              		.loc 1 1056 0
 2601 02d2 9A4B     		ldr	r3, .L216
 2602 02d4 9A4A     		ldr	r2, .L216+4
 2603 02d6 1A60     		str	r2, [r3]
 2604              	.L177:
1057:..\src/interruptions.c ****             }
1058:..\src/interruptions.c **** 
1059:..\src/interruptions.c ****             // Proportional
1060:..\src/interruptions.c ****             if (k_p != 0) 
 2605              		.loc 1 1060 0
 2606 02d8 BB6B     		ldr	r3, [r7, #56]
 2607 02da 002B     		cmp	r3, #0
 2608 02dc 05D0     		beq	.L178
1061:..\src/interruptions.c ****                 pwm_input = (int32)(k_p * pos_error) >> 16;
 2609              		.loc 1 1061 0
 2610 02de BB6B     		ldr	r3, [r7, #56]
 2611 02e0 BA68     		ldr	r2, [r7, #8]
 2612 02e2 02FB03F3 		mul	r3, r2, r3
 2613 02e6 1B14     		asrs	r3, r3, #16
 2614 02e8 FB64     		str	r3, [r7, #76]
 2615              	.L178:
1062:..\src/interruptions.c ****             
1063:..\src/interruptions.c **** 
1064:..\src/interruptions.c ****             // Integral
1065:..\src/interruptions.c ****             if (k_i != 0) 
 2616              		.loc 1 1065 0
 2617 02ea 7B6B     		ldr	r3, [r7, #52]
 2618 02ec 002B     		cmp	r3, #0
 2619 02ee 08D0     		beq	.L179
1066:..\src/interruptions.c ****                 pwm_input += (int32)(k_i * pos_error_sum) >> 16;
 2620              		.loc 1 1066 0
 2621 02f0 924B     		ldr	r3, .L216
 2622 02f2 1B68     		ldr	r3, [r3]
 2623 02f4 7A6B     		ldr	r2, [r7, #52]
 2624 02f6 02FB03F3 		mul	r3, r2, r3
 2625 02fa 1B14     		asrs	r3, r3, #16
 2626 02fc FA6C     		ldr	r2, [r7, #76]
 2627 02fe 1344     		add	r3, r3, r2
 2628 0300 FB64     		str	r3, [r7, #76]
 2629              	.L179:
1067:..\src/interruptions.c ****             
1068:..\src/interruptions.c **** 
1069:..\src/interruptions.c ****             // Derivative
ARM GAS  C:\Users\Mattia\AppData\Local\Temp\cclAPrfh.s 			page 67


1070:..\src/interruptions.c ****             if (k_d != 0) 
 2630              		.loc 1 1070 0
 2631 0302 3B6B     		ldr	r3, [r7, #48]
 2632 0304 002B     		cmp	r3, #0
 2633 0306 0AD0     		beq	.L180
1071:..\src/interruptions.c ****                 pwm_input += (int32)(k_d * (pos_error - prev_pos_err)) >> 16;
 2634              		.loc 1 1071 0
 2635 0308 8E4B     		ldr	r3, .L216+8
 2636 030a 1B68     		ldr	r3, [r3]
 2637 030c BA68     		ldr	r2, [r7, #8]
 2638 030e D31A     		subs	r3, r2, r3
 2639 0310 3A6B     		ldr	r2, [r7, #48]
 2640 0312 02FB03F3 		mul	r3, r2, r3
 2641 0316 1B14     		asrs	r3, r3, #16
 2642 0318 FA6C     		ldr	r2, [r7, #76]
 2643 031a 1344     		add	r3, r3, r2
 2644 031c FB64     		str	r3, [r7, #76]
 2645              	.L180:
1072:..\src/interruptions.c ****             
1073:..\src/interruptions.c **** 
1074:..\src/interruptions.c ****             // Update measure
1075:..\src/interruptions.c ****             prev_pos_err = pos_error;
 2646              		.loc 1 1075 0
 2647 031e 894A     		ldr	r2, .L216+8
 2648 0320 BB68     		ldr	r3, [r7, #8]
 2649 0322 1360     		str	r3, [r2]
1076:..\src/interruptions.c **** 
1077:..\src/interruptions.c ****             if (pwm_input > 0)
 2650              		.loc 1 1077 0
 2651 0324 FB6C     		ldr	r3, [r7, #76]
 2652 0326 002B     		cmp	r3, #0
 2653 0328 03DD     		ble	.L181
1078:..\src/interruptions.c ****                 motor_dir = TRUE;
 2654              		.loc 1 1078 0
 2655 032a 874B     		ldr	r3, .L216+12
 2656 032c 0122     		movs	r2, #1
 2657 032e 1A70     		strb	r2, [r3]
1079:..\src/interruptions.c ****             else
1080:..\src/interruptions.c ****                 motor_dir = FALSE;
1081:..\src/interruptions.c **** 
1082:..\src/interruptions.c ****         break;
 2658              		.loc 1 1082 0
 2659 0330 ADE0     		b	.L154
 2660              	.L181:
1080:..\src/interruptions.c **** 
 2661              		.loc 1 1080 0
 2662 0332 854B     		ldr	r3, .L216+12
 2663 0334 0022     		movs	r2, #0
 2664 0336 1A70     		strb	r2, [r3]
 2665              		.loc 1 1082 0
 2666 0338 A9E0     		b	.L154
 2667              	.L158:
1083:..\src/interruptions.c **** 
1084:..\src/interruptions.c ****         // ========================== CURRENT CONTROL ==========================
1085:..\src/interruptions.c ****         case CONTROL_CURRENT:
1086:..\src/interruptions.c ****             if(g_ref[MOTOR_IDX].onoff && tension_valid) {
 2668              		.loc 1 1086 0
ARM GAS  C:\Users\Mattia\AppData\Local\Temp\cclAPrfh.s 			page 68


 2669 033a 97F84730 		ldrb	r3, [r7, #71]	@ zero_extendqisi2
 2670 033e 834A     		ldr	r2, .L216+16
 2671 0340 1B01     		lsls	r3, r3, #4
 2672 0342 1344     		add	r3, r3, r2
 2673 0344 0C33     		adds	r3, r3, #12
 2674 0346 1B78     		ldrb	r3, [r3]	@ zero_extendqisi2
 2675 0348 002B     		cmp	r3, #0
 2676 034a 00F09D80 		beq	.L212
 2677              		.loc 1 1086 0 is_stmt 0 discriminator 1
 2678 034e 804B     		ldr	r3, .L216+20
 2679 0350 1B78     		ldrb	r3, [r3]	@ zero_extendqisi2
 2680 0352 002B     		cmp	r3, #0
 2681 0354 00F09880 		beq	.L212
1087:..\src/interruptions.c ****                 
1088:..\src/interruptions.c ****                 i_ref = g_ref[MOTOR_IDX].curr;
 2682              		.loc 1 1088 0 is_stmt 1
 2683 0358 97F84730 		ldrb	r3, [r7, #71]	@ zero_extendqisi2
 2684 035c 7B4A     		ldr	r2, .L216+16
 2685 035e 1B01     		lsls	r3, r3, #4
 2686 0360 1344     		add	r3, r3, r2
 2687 0362 0433     		adds	r3, r3, #4
 2688 0364 1B68     		ldr	r3, [r3]
 2689 0366 BB64     		str	r3, [r7, #72]
1089:..\src/interruptions.c **** 
1090:..\src/interruptions.c ****                 if (i_ref > SH_MOT->current_limit) 
 2690              		.loc 1 1090 0
 2691 0368 3B6C     		ldr	r3, [r7, #64]
 2692 036a B3F95C30 		ldrsh	r3, [r3, #92]
 2693 036e 1A46     		mov	r2, r3
 2694 0370 BB6C     		ldr	r3, [r7, #72]
 2695 0372 9A42     		cmp	r2, r3
 2696 0374 04DA     		bge	.L184
1091:..\src/interruptions.c ****                     i_ref = SH_MOT->current_limit;
 2697              		.loc 1 1091 0
 2698 0376 3B6C     		ldr	r3, [r7, #64]
 2699 0378 B3F95C30 		ldrsh	r3, [r3, #92]
 2700 037c BB64     		str	r3, [r7, #72]
 2701 037e 0BE0     		b	.L185
 2702              	.L184:
1092:..\src/interruptions.c ****                 else {
1093:..\src/interruptions.c ****                     if (i_ref < -SH_MOT->current_limit)
 2703              		.loc 1 1093 0
 2704 0380 3B6C     		ldr	r3, [r7, #64]
 2705 0382 B3F95C30 		ldrsh	r3, [r3, #92]
 2706 0386 5A42     		negs	r2, r3
 2707 0388 BB6C     		ldr	r3, [r7, #72]
 2708 038a 9A42     		cmp	r2, r3
 2709 038c 04DD     		ble	.L185
1094:..\src/interruptions.c ****                         i_ref = -SH_MOT->current_limit;
 2710              		.loc 1 1094 0
 2711 038e 3B6C     		ldr	r3, [r7, #64]
 2712 0390 B3F95C30 		ldrsh	r3, [r3, #92]
 2713 0394 5B42     		negs	r3, r3
 2714 0396 BB64     		str	r3, [r7, #72]
 2715              	.L185:
1095:..\src/interruptions.c ****                 }
1096:..\src/interruptions.c ****                 
ARM GAS  C:\Users\Mattia\AppData\Local\Temp\cclAPrfh.s 			page 69


1097:..\src/interruptions.c ****                 // current error
1098:..\src/interruptions.c ****                 curr_error = i_ref - g_meas[SH_ENC_L].curr;            
 2716              		.loc 1 1098 0
 2717 0398 97F83F30 		ldrb	r3, [r7, #63]	@ zero_extendqisi2
 2718 039c 6D4A     		ldr	r2, .L216+24
 2719 039e 3421     		movs	r1, #52
 2720 03a0 01FB03F3 		mul	r3, r1, r3
 2721 03a4 1344     		add	r3, r3, r2
 2722 03a6 0C33     		adds	r3, r3, #12
 2723 03a8 1B68     		ldr	r3, [r3]
 2724 03aa BA6C     		ldr	r2, [r7, #72]
 2725 03ac D31A     		subs	r3, r2, r3
 2726 03ae 7B60     		str	r3, [r7, #4]
1099:..\src/interruptions.c ****                 curr_error_sum += curr_error;
 2727              		.loc 1 1099 0
 2728 03b0 694B     		ldr	r3, .L216+28
 2729 03b2 1A68     		ldr	r2, [r3]
 2730 03b4 7B68     		ldr	r3, [r7, #4]
 2731 03b6 1344     		add	r3, r3, r2
 2732 03b8 674A     		ldr	r2, .L216+28
 2733 03ba 1360     		str	r3, [r2]
1100:..\src/interruptions.c ****                 
1101:..\src/interruptions.c ****                 if (curr_error_sum > CURR_INTEGRAL_SAT_LIMIT)
 2734              		.loc 1 1101 0
 2735 03bc 664B     		ldr	r3, .L216+28
 2736 03be 1B68     		ldr	r3, [r3]
 2737 03c0 664A     		ldr	r2, .L216+32
 2738 03c2 9342     		cmp	r3, r2
 2739 03c4 03DD     		ble	.L186
1102:..\src/interruptions.c ****                     curr_error_sum = CURR_INTEGRAL_SAT_LIMIT;
 2740              		.loc 1 1102 0
 2741 03c6 644B     		ldr	r3, .L216+28
 2742 03c8 644A     		ldr	r2, .L216+32
 2743 03ca 1A60     		str	r2, [r3]
 2744 03cc 07E0     		b	.L187
 2745              	.L186:
1103:..\src/interruptions.c ****                 else {
1104:..\src/interruptions.c ****                     if (curr_error_sum < -CURR_INTEGRAL_SAT_LIMIT) 
 2746              		.loc 1 1104 0
 2747 03ce 624B     		ldr	r3, .L216+28
 2748 03d0 1B68     		ldr	r3, [r3]
 2749 03d2 634A     		ldr	r2, .L216+36
 2750 03d4 9342     		cmp	r3, r2
 2751 03d6 02DA     		bge	.L187
1105:..\src/interruptions.c ****                         curr_error_sum = -CURR_INTEGRAL_SAT_LIMIT;
 2752              		.loc 1 1105 0
 2753 03d8 5F4B     		ldr	r3, .L216+28
 2754 03da 614A     		ldr	r2, .L216+36
 2755 03dc 1A60     		str	r2, [r3]
 2756              	.L187:
1106:..\src/interruptions.c ****                 }
1107:..\src/interruptions.c **** 
1108:..\src/interruptions.c ****                 pwm_input = 0;
 2757              		.loc 1 1108 0
 2758 03de 0023     		movs	r3, #0
 2759 03e0 FB64     		str	r3, [r7, #76]
1109:..\src/interruptions.c **** 
ARM GAS  C:\Users\Mattia\AppData\Local\Temp\cclAPrfh.s 			page 70


1110:..\src/interruptions.c ****                 // Proportional
1111:..\src/interruptions.c ****                 if (k_p_c != 0)
 2760              		.loc 1 1111 0
 2761 03e2 FB6A     		ldr	r3, [r7, #44]
 2762 03e4 002B     		cmp	r3, #0
 2763 03e6 07D0     		beq	.L188
1112:..\src/interruptions.c ****                     pwm_input += (int32)(k_p_c * curr_error) >> 16;
 2764              		.loc 1 1112 0
 2765 03e8 FB6A     		ldr	r3, [r7, #44]
 2766 03ea 7A68     		ldr	r2, [r7, #4]
 2767 03ec 02FB03F3 		mul	r3, r2, r3
 2768 03f0 1B14     		asrs	r3, r3, #16
 2769 03f2 FA6C     		ldr	r2, [r7, #76]
 2770 03f4 1344     		add	r3, r3, r2
 2771 03f6 FB64     		str	r3, [r7, #76]
 2772              	.L188:
1113:..\src/interruptions.c **** 
1114:..\src/interruptions.c ****                 // Integral
1115:..\src/interruptions.c ****                 if (k_i_c != 0)
 2773              		.loc 1 1115 0
 2774 03f8 BB6A     		ldr	r3, [r7, #40]
 2775 03fa 002B     		cmp	r3, #0
 2776 03fc 08D0     		beq	.L189
1116:..\src/interruptions.c ****                     pwm_input += (int32)(k_i_c * curr_error_sum) >> 16;
 2777              		.loc 1 1116 0
 2778 03fe 564B     		ldr	r3, .L216+28
 2779 0400 1B68     		ldr	r3, [r3]
 2780 0402 BA6A     		ldr	r2, [r7, #40]
 2781 0404 02FB03F3 		mul	r3, r2, r3
 2782 0408 1B14     		asrs	r3, r3, #16
 2783 040a FA6C     		ldr	r2, [r7, #76]
 2784 040c 1344     		add	r3, r3, r2
 2785 040e FB64     		str	r3, [r7, #76]
 2786              	.L189:
1117:..\src/interruptions.c **** 
1118:..\src/interruptions.c ****                 // Derivative
1119:..\src/interruptions.c ****                 if (k_d_c != 0)
 2787              		.loc 1 1119 0
 2788 0410 7B6A     		ldr	r3, [r7, #36]
 2789 0412 002B     		cmp	r3, #0
 2790 0414 0AD0     		beq	.L190
1120:..\src/interruptions.c ****                     pwm_input += (int32)(k_d_c * (curr_error - prev_curr_err)) >> 16;
 2791              		.loc 1 1120 0
 2792 0416 534B     		ldr	r3, .L216+40
 2793 0418 1B68     		ldr	r3, [r3]
 2794 041a 7A68     		ldr	r2, [r7, #4]
 2795 041c D31A     		subs	r3, r2, r3
 2796 041e 7A6A     		ldr	r2, [r7, #36]
 2797 0420 02FB03F3 		mul	r3, r2, r3
 2798 0424 1B14     		asrs	r3, r3, #16
 2799 0426 FA6C     		ldr	r2, [r7, #76]
 2800 0428 1344     		add	r3, r3, r2
 2801 042a FB64     		str	r3, [r7, #76]
 2802              	.L190:
1121:..\src/interruptions.c ****                 
1122:..\src/interruptions.c ****                 prev_curr_err = curr_error;
 2803              		.loc 1 1122 0
ARM GAS  C:\Users\Mattia\AppData\Local\Temp\cclAPrfh.s 			page 71


 2804 042c 4D4A     		ldr	r2, .L216+40
 2805 042e 7B68     		ldr	r3, [r7, #4]
 2806 0430 1360     		str	r3, [r2]
1123:..\src/interruptions.c ****                 
1124:..\src/interruptions.c ****                 if (pwm_input >= 0) 
 2807              		.loc 1 1124 0
 2808 0432 FB6C     		ldr	r3, [r7, #76]
 2809 0434 002B     		cmp	r3, #0
 2810 0436 03DB     		blt	.L191
1125:..\src/interruptions.c ****                     motor_dir = TRUE;
 2811              		.loc 1 1125 0
 2812 0438 434B     		ldr	r3, .L216+12
 2813 043a 0122     		movs	r2, #1
 2814 043c 1A70     		strb	r2, [r3]
1126:..\src/interruptions.c ****                 else
1127:..\src/interruptions.c ****                     motor_dir = FALSE;
1128:..\src/interruptions.c ****             }
1129:..\src/interruptions.c ****         break;
 2815              		.loc 1 1129 0
 2816 043e 23E0     		b	.L212
 2817              	.L191:
1127:..\src/interruptions.c ****             }
 2818              		.loc 1 1127 0
 2819 0440 414B     		ldr	r3, .L216+12
 2820 0442 0022     		movs	r2, #0
 2821 0444 1A70     		strb	r2, [r3]
 2822              		.loc 1 1129 0
 2823 0446 1FE0     		b	.L212
 2824              	.L157:
1130:..\src/interruptions.c ****         
1131:..\src/interruptions.c ****         // ================= DIRECT PWM CONTROL ================================
1132:..\src/interruptions.c ****         case CONTROL_PWM:
1133:..\src/interruptions.c **** 
1134:..\src/interruptions.c ****             pwm_input = g_ref[MOTOR_IDX].pwm;
 2825              		.loc 1 1134 0
 2826 0448 97F84730 		ldrb	r3, [r7, #71]	@ zero_extendqisi2
 2827 044c 3F4A     		ldr	r2, .L216+16
 2828 044e 1B01     		lsls	r3, r3, #4
 2829 0450 1344     		add	r3, r3, r2
 2830 0452 0833     		adds	r3, r3, #8
 2831 0454 1B68     		ldr	r3, [r3]
 2832 0456 FB64     		str	r3, [r7, #76]
1135:..\src/interruptions.c **** 
1136:..\src/interruptions.c ****             if (pwm_input > 0) 
 2833              		.loc 1 1136 0
 2834 0458 FB6C     		ldr	r3, [r7, #76]
 2835 045a 002B     		cmp	r3, #0
 2836 045c 03DD     		ble	.L192
1137:..\src/interruptions.c ****                 motor_dir = TRUE;
 2837              		.loc 1 1137 0
 2838 045e 3A4B     		ldr	r3, .L216+12
 2839 0460 0122     		movs	r2, #1
 2840 0462 1A70     		strb	r2, [r3]
 2841 0464 02E0     		b	.L193
 2842              	.L192:
1138:..\src/interruptions.c ****             else 
1139:..\src/interruptions.c ****                 motor_dir = FALSE;
ARM GAS  C:\Users\Mattia\AppData\Local\Temp\cclAPrfh.s 			page 72


 2843              		.loc 1 1139 0
 2844 0466 384B     		ldr	r3, .L216+12
 2845 0468 0022     		movs	r2, #0
 2846 046a 1A70     		strb	r2, [r3]
 2847              	.L193:
1140:..\src/interruptions.c ****             
1141:..\src/interruptions.c **** 
1142:..\src/interruptions.c ****             // pwm_input saturation
1143:..\src/interruptions.c ****             if (pwm_input < -PWM_MAX_VALUE) 
 2848              		.loc 1 1143 0
 2849 046c FB6C     		ldr	r3, [r7, #76]
 2850 046e 13F1640F 		cmn	r3, #100
 2851 0472 03DA     		bge	.L194
1144:..\src/interruptions.c ****                 pwm_input = -PWM_MAX_VALUE;
 2852              		.loc 1 1144 0
 2853 0474 6FF06303 		mvn	r3, #99
 2854 0478 FB64     		str	r3, [r7, #76]
1145:..\src/interruptions.c ****             else {
1146:..\src/interruptions.c **** 				if (pwm_input > PWM_MAX_VALUE) 
1147:..\src/interruptions.c ****                 	pwm_input = PWM_MAX_VALUE;
1148:..\src/interruptions.c ****         	}
1149:..\src/interruptions.c **** 
1150:..\src/interruptions.c ****         break;
 2855              		.loc 1 1150 0
 2856 047a 07E0     		b	.L213
 2857              	.L194:
1146:..\src/interruptions.c ****                 	pwm_input = PWM_MAX_VALUE;
 2858              		.loc 1 1146 0
 2859 047c FB6C     		ldr	r3, [r7, #76]
 2860 047e 642B     		cmp	r3, #100
 2861 0480 04DD     		ble	.L213
1147:..\src/interruptions.c ****         	}
 2862              		.loc 1 1147 0
 2863 0482 6423     		movs	r3, #100
 2864 0484 FB64     		str	r3, [r7, #76]
 2865              		.loc 1 1150 0
 2866 0486 01E0     		b	.L213
 2867              	.L212:
1129:..\src/interruptions.c ****         
 2868              		.loc 1 1129 0
 2869 0488 00BF     		nop
 2870 048a 00E0     		b	.L154
 2871              	.L213:
 2872              		.loc 1 1150 0
 2873 048c 00BF     		nop
 2874              	.L154:
1151:..\src/interruptions.c ****             
1152:..\src/interruptions.c ****     }
1153:..\src/interruptions.c **** 
1154:..\src/interruptions.c ****     ////////////////////////////////////////////////////////////////////////////
1155:..\src/interruptions.c **** 
1156:..\src/interruptions.c ****     if(pwm_input >  PWM_MAX_VALUE) 
 2875              		.loc 1 1156 0
 2876 048e FB6C     		ldr	r3, [r7, #76]
 2877 0490 642B     		cmp	r3, #100
 2878 0492 01DD     		ble	.L196
1157:..\src/interruptions.c ****         pwm_input =  PWM_MAX_VALUE;
ARM GAS  C:\Users\Mattia\AppData\Local\Temp\cclAPrfh.s 			page 73


 2879              		.loc 1 1157 0
 2880 0494 6423     		movs	r3, #100
 2881 0496 FB64     		str	r3, [r7, #76]
 2882              	.L196:
1158:..\src/interruptions.c ****     if(pwm_input < -PWM_MAX_VALUE) 
 2883              		.loc 1 1158 0
 2884 0498 FB6C     		ldr	r3, [r7, #76]
 2885 049a 13F1640F 		cmn	r3, #100
 2886 049e 02DA     		bge	.L197
1159:..\src/interruptions.c ****         pwm_input = -PWM_MAX_VALUE;
 2887              		.loc 1 1159 0
 2888 04a0 6FF06303 		mvn	r3, #99
 2889 04a4 FB64     		str	r3, [r7, #76]
 2890              	.L197:
1160:..\src/interruptions.c **** 
1161:..\src/interruptions.c ****     if (SH_MOT->control_mode != CONTROL_PWM) 
 2891              		.loc 1 1161 0
 2892 04a6 3B6C     		ldr	r3, [r7, #64]
 2893 04a8 93F85F30 		ldrb	r3, [r3, #95]	@ zero_extendqisi2
 2894 04ac 012B     		cmp	r3, #1
 2895 04ae 0DD0     		beq	.L198
1162:..\src/interruptions.c ****         pwm_input = (((pwm_input << 10) / PWM_MAX_VALUE) * dev_pwm_limit[0]) >> 10;
 2896              		.loc 1 1162 0
 2897 04b0 FB6C     		ldr	r3, [r7, #76]
 2898 04b2 9B02     		lsls	r3, r3, #10
 2899 04b4 2C4A     		ldr	r2, .L216+44
 2900 04b6 82FB0312 		smull	r1, r2, r2, r3
 2901 04ba 5211     		asrs	r2, r2, #5
 2902 04bc DB17     		asrs	r3, r3, #31
 2903 04be D31A     		subs	r3, r2, r3
 2904 04c0 2A4A     		ldr	r2, .L216+48
 2905 04c2 1278     		ldrb	r2, [r2]	@ zero_extendqisi2
 2906 04c4 02FB03F3 		mul	r3, r2, r3
 2907 04c8 9B12     		asrs	r3, r3, #10
 2908 04ca FB64     		str	r3, [r7, #76]
 2909              	.L198:
1163:..\src/interruptions.c ****  
1164:..\src/interruptions.c ****     //// RATE LIMITER ////
1165:..\src/interruptions.c ****     if((pwm_input-prev_pwm) > SH_MOT->pwm_rate_limiter){
 2910              		.loc 1 1165 0
 2911 04cc 284B     		ldr	r3, .L216+52
 2912 04ce 1B68     		ldr	r3, [r3]
 2913 04d0 FA6C     		ldr	r2, [r7, #76]
 2914 04d2 D31A     		subs	r3, r2, r3
 2915 04d4 3A6C     		ldr	r2, [r7, #64]
 2916 04d6 92F86120 		ldrb	r2, [r2, #97]	@ zero_extendqisi2
 2917 04da 9342     		cmp	r3, r2
 2918 04dc 08DD     		ble	.L199
1166:..\src/interruptions.c ****         pwm_input =  prev_pwm + SH_MOT->pwm_rate_limiter;
 2919              		.loc 1 1166 0
 2920 04de 3B6C     		ldr	r3, [r7, #64]
 2921 04e0 93F86130 		ldrb	r3, [r3, #97]	@ zero_extendqisi2
 2922 04e4 1A46     		mov	r2, r3
 2923 04e6 224B     		ldr	r3, .L216+52
 2924 04e8 1B68     		ldr	r3, [r3]
 2925 04ea 1344     		add	r3, r3, r2
 2926 04ec FB64     		str	r3, [r7, #76]
ARM GAS  C:\Users\Mattia\AppData\Local\Temp\cclAPrfh.s 			page 74


 2927 04ee 10E0     		b	.L200
 2928              	.L199:
1167:..\src/interruptions.c ****     }
1168:..\src/interruptions.c ****     else {
1169:..\src/interruptions.c ****         if((pwm_input-prev_pwm) < -SH_MOT->pwm_rate_limiter)
 2929              		.loc 1 1169 0
 2930 04f0 1F4B     		ldr	r3, .L216+52
 2931 04f2 1B68     		ldr	r3, [r3]
 2932 04f4 FA6C     		ldr	r2, [r7, #76]
 2933 04f6 D21A     		subs	r2, r2, r3
 2934 04f8 3B6C     		ldr	r3, [r7, #64]
 2935 04fa 93F86130 		ldrb	r3, [r3, #97]	@ zero_extendqisi2
 2936 04fe 5B42     		negs	r3, r3
 2937 0500 9A42     		cmp	r2, r3
 2938 0502 06DA     		bge	.L200
1170:..\src/interruptions.c ****             pwm_input =  prev_pwm - SH_MOT->pwm_rate_limiter;
 2939              		.loc 1 1170 0
 2940 0504 1A4B     		ldr	r3, .L216+52
 2941 0506 1B68     		ldr	r3, [r3]
 2942 0508 3A6C     		ldr	r2, [r7, #64]
 2943 050a 92F86120 		ldrb	r2, [r2, #97]	@ zero_extendqisi2
 2944 050e 9B1A     		subs	r3, r3, r2
 2945 0510 FB64     		str	r3, [r7, #76]
 2946              	.L200:
1171:..\src/interruptions.c ****     }
1172:..\src/interruptions.c ****     
1173:..\src/interruptions.c ****     if(pwm_input >  PWM_MAX_VALUE) 
 2947              		.loc 1 1173 0
 2948 0512 FB6C     		ldr	r3, [r7, #76]
 2949 0514 642B     		cmp	r3, #100
 2950 0516 01DD     		ble	.L201
1174:..\src/interruptions.c ****         pwm_input =  PWM_MAX_VALUE;
 2951              		.loc 1 1174 0
 2952 0518 6423     		movs	r3, #100
 2953 051a FB64     		str	r3, [r7, #76]
 2954              	.L201:
1175:..\src/interruptions.c ****     if(pwm_input < -PWM_MAX_VALUE) 
 2955              		.loc 1 1175 0
 2956 051c FB6C     		ldr	r3, [r7, #76]
 2957 051e 13F1640F 		cmn	r3, #100
 2958 0522 02DA     		bge	.L202
1176:..\src/interruptions.c ****         pwm_input = -PWM_MAX_VALUE;
 2959              		.loc 1 1176 0
 2960 0524 6FF06303 		mvn	r3, #99
 2961 0528 FB64     		str	r3, [r7, #76]
 2962              	.L202:
1177:..\src/interruptions.c ****     
1178:..\src/interruptions.c ****     prev_pwm = pwm_input;
 2963              		.loc 1 1178 0
 2964 052a 114A     		ldr	r2, .L216+52
 2965 052c FB6C     		ldr	r3, [r7, #76]
 2966 052e 1360     		str	r3, [r2]
1179:..\src/interruptions.c **** 	
1180:..\src/interruptions.c ****     pwm_sign = SIGN(pwm_input);   
 2967              		.loc 1 1180 0
 2968 0530 FB6C     		ldr	r3, [r7, #76]
 2969 0532 002B     		cmp	r3, #0
ARM GAS  C:\Users\Mattia\AppData\Local\Temp\cclAPrfh.s 			page 75


 2970 0534 1EDB     		blt	.L203
 2971              		.loc 1 1180 0 is_stmt 0 discriminator 1
 2972 0536 0122     		movs	r2, #1
 2973 0538 1EE0     		b	.L204
 2974              	.L217:
 2975 053a 00BF     		.align	2
 2976              	.L216:
 2977 053c 90000000 		.word	pos_error_sum.10501
 2978 0540 18FCFFFF 		.word	-1000
 2979 0544 94000000 		.word	prev_pos_err.10503
 2980 0548 98000000 		.word	motor_dir.10506
 2981 054c 00000000 		.word	g_ref
 2982 0550 00000000 		.word	tension_valid
 2983 0554 00000000 		.word	g_meas
 2984 0558 9C000000 		.word	curr_error_sum.10502
 2985 055c A0860100 		.word	100000
 2986 0560 6079FEFF 		.word	-100000
 2987 0564 A0000000 		.word	prev_curr_err.10504
 2988 0568 1F85EB51 		.word	1374389535
 2989 056c 00000000 		.word	dev_pwm_limit
 2990 0570 A4000000 		.word	prev_pwm.10505
 2991              	.L203:
 2992              		.loc 1 1180 0 discriminator 2
 2993 0574 4FF0FF32 		mov	r2, #-1
 2994              	.L204:
 2995              		.loc 1 1180 0 discriminator 4
 2996 0578 5A4B     		ldr	r3, .L218
 2997 057a 1A70     		strb	r2, [r3]
1181:..\src/interruptions.c ****     
1182:..\src/interruptions.c ****     if (SH_MOT->not_revers_motor_flag == TRUE) {
 2998              		.loc 1 1182 0 is_stmt 1 discriminator 4
 2999 057c 3B6C     		ldr	r3, [r7, #64]
 3000 057e 93F86230 		ldrb	r3, [r3, #98]	@ zero_extendqisi2
 3001 0582 012B     		cmp	r3, #1
 3002 0584 40F09680 		bne	.L205
1183:..\src/interruptions.c ****         // Block motor with pwm = 0 to exploit not reversible motor behaviour 
1184:..\src/interruptions.c ****     	if ( SH_MOT->control_mode != CONTROL_PWM && ((g_measOld[SH_ENC_L].pos[0]-g_meas[SH_ENC_L].pos[
 3003              		.loc 1 1184 0
 3004 0588 3B6C     		ldr	r3, [r7, #64]
 3005 058a 93F85F30 		ldrb	r3, [r3, #95]	@ zero_extendqisi2
 3006 058e 012B     		cmp	r3, #1
 3007 0590 00F08D80 		beq	.L206
 3008              		.loc 1 1184 0 is_stmt 0 discriminator 1
 3009 0594 97F83F30 		ldrb	r3, [r7, #63]	@ zero_extendqisi2
 3010 0598 534A     		ldr	r2, .L218+4
 3011 059a 3421     		movs	r1, #52
 3012 059c 01FB03F3 		mul	r3, r1, r3
 3013 05a0 1344     		add	r3, r3, r2
 3014 05a2 1A68     		ldr	r2, [r3]
 3015 05a4 97F83F30 		ldrb	r3, [r7, #63]	@ zero_extendqisi2
 3016 05a8 5049     		ldr	r1, .L218+8
 3017 05aa 3420     		movs	r0, #52
 3018 05ac 00FB03F3 		mul	r3, r0, r3
 3019 05b0 0B44     		add	r3, r3, r1
 3020 05b2 1B68     		ldr	r3, [r3]
 3021 05b4 D31A     		subs	r3, r2, r3
 3022 05b6 312B     		cmp	r3, #49
ARM GAS  C:\Users\Mattia\AppData\Local\Temp\cclAPrfh.s 			page 76


 3023 05b8 79DC     		bgt	.L206
1185:..\src/interruptions.c ****             (g_measOld[SH_ENC_L].pos[0]-g_meas[SH_ENC_L].pos[0]) > -50) && 
 3024              		.loc 1 1185 0 is_stmt 1 discriminator 2
 3025 05ba 97F83F30 		ldrb	r3, [r7, #63]	@ zero_extendqisi2
 3026 05be 4A4A     		ldr	r2, .L218+4
 3027 05c0 3421     		movs	r1, #52
 3028 05c2 01FB03F3 		mul	r3, r1, r3
 3029 05c6 1344     		add	r3, r3, r2
 3030 05c8 1A68     		ldr	r2, [r3]
 3031 05ca 97F83F30 		ldrb	r3, [r7, #63]	@ zero_extendqisi2
 3032 05ce 4749     		ldr	r1, .L218+8
 3033 05d0 3420     		movs	r0, #52
 3034 05d2 00FB03F3 		mul	r3, r0, r3
 3035 05d6 0B44     		add	r3, r3, r1
 3036 05d8 1B68     		ldr	r3, [r3]
 3037 05da D31A     		subs	r3, r2, r3
1184:..\src/interruptions.c ****             (g_measOld[SH_ENC_L].pos[0]-g_meas[SH_ENC_L].pos[0]) > -50) && 
 3038              		.loc 1 1184 0 discriminator 2
 3039 05dc 13F1310F 		cmn	r3, #49
 3040 05e0 65DB     		blt	.L206
1186:..\src/interruptions.c ****             ((g_refOld[MOTOR_IDX].pos - g_ref[MOTOR_IDX].pos) < 100 && (g_refOld[MOTOR_IDX].pos - g
 3041              		.loc 1 1186 0
 3042 05e2 97F84730 		ldrb	r3, [r7, #71]	@ zero_extendqisi2
 3043 05e6 424A     		ldr	r2, .L218+12
 3044 05e8 1B01     		lsls	r3, r3, #4
 3045 05ea 1344     		add	r3, r3, r2
 3046 05ec 1A68     		ldr	r2, [r3]
 3047 05ee 97F84730 		ldrb	r3, [r7, #71]	@ zero_extendqisi2
 3048 05f2 4049     		ldr	r1, .L218+16
 3049 05f4 1B01     		lsls	r3, r3, #4
 3050 05f6 0B44     		add	r3, r3, r1
 3051 05f8 1B68     		ldr	r3, [r3]
 3052 05fa D31A     		subs	r3, r2, r3
1185:..\src/interruptions.c ****             (g_measOld[SH_ENC_L].pos[0]-g_meas[SH_ENC_L].pos[0]) > -50) && 
 3053              		.loc 1 1185 0
 3054 05fc 632B     		cmp	r3, #99
 3055 05fe 56DC     		bgt	.L206
 3056              		.loc 1 1186 0
 3057 0600 97F84730 		ldrb	r3, [r7, #71]	@ zero_extendqisi2
 3058 0604 3A4A     		ldr	r2, .L218+12
 3059 0606 1B01     		lsls	r3, r3, #4
 3060 0608 1344     		add	r3, r3, r2
 3061 060a 1A68     		ldr	r2, [r3]
 3062 060c 97F84730 		ldrb	r3, [r7, #71]	@ zero_extendqisi2
 3063 0610 3849     		ldr	r1, .L218+16
 3064 0612 1B01     		lsls	r3, r3, #4
 3065 0614 0B44     		add	r3, r3, r1
 3066 0616 1B68     		ldr	r3, [r3]
 3067 0618 D31A     		subs	r3, r2, r3
 3068 061a 13F1630F 		cmn	r3, #99
 3069 061e 46DB     		blt	.L206
1187:..\src/interruptions.c ****             position_counter++;
 3070              		.loc 1 1187 0
 3071 0620 354B     		ldr	r3, .L218+20
 3072 0622 1B68     		ldr	r3, [r3]
 3073 0624 0133     		adds	r3, r3, #1
 3074 0626 344A     		ldr	r2, .L218+20
ARM GAS  C:\Users\Mattia\AppData\Local\Temp\cclAPrfh.s 			page 77


 3075 0628 1360     		str	r3, [r2]
1188:..\src/interruptions.c ****             
1189:..\src/interruptions.c ****             if (position_counter >= 250) { 
 3076              		.loc 1 1189 0
 3077 062a 334B     		ldr	r3, .L218+20
 3078 062c 1B68     		ldr	r3, [r3]
 3079 062e F92B     		cmp	r3, #249
 3080 0630 40D9     		bls	.L205
1190:..\src/interruptions.c ****                 if (SH_MOT->input_mode == INPUT_MODE_EXTERNAL && change_ext_ref_flag == FALSE) {
 3081              		.loc 1 1190 0
 3082 0632 3B6C     		ldr	r3, [r7, #64]
 3083 0634 93F85E30 		ldrb	r3, [r3, #94]	@ zero_extendqisi2
 3084 0638 002B     		cmp	r3, #0
 3085 063a 11D1     		bne	.L208
 3086              		.loc 1 1190 0 is_stmt 0 discriminator 1
 3087 063c 2F4B     		ldr	r3, .L218+24
 3088 063e 1B78     		ldrb	r3, [r3]	@ zero_extendqisi2
 3089 0640 002B     		cmp	r3, #0
 3090 0642 0DD1     		bne	.L208
1191:..\src/interruptions.c ****                     g_refNew[MOTOR_IDX].pos = g_meas[SH_ENC_L].pos[0];       // Needed only when US
 3091              		.loc 1 1191 0 is_stmt 1
 3092 0644 97F84730 		ldrb	r3, [r7, #71]	@ zero_extendqisi2
 3093 0648 97F83F20 		ldrb	r2, [r7, #63]	@ zero_extendqisi2
 3094 064c 2749     		ldr	r1, .L218+8
 3095 064e 3420     		movs	r0, #52
 3096 0650 00FB02F2 		mul	r2, r0, r2
 3097 0654 0A44     		add	r2, r2, r1
 3098 0656 1268     		ldr	r2, [r2]
 3099 0658 2949     		ldr	r1, .L218+28
 3100 065a 1B01     		lsls	r3, r3, #4
 3101 065c 0B44     		add	r3, r3, r1
 3102 065e 1A60     		str	r2, [r3]
 3103              	.L208:
1192:..\src/interruptions.c ****                 }
1193:..\src/interruptions.c ****                 g_ref[MOTOR_IDX].pos = g_meas[SH_ENC_L].pos[0];
 3104              		.loc 1 1193 0
 3105 0660 97F84730 		ldrb	r3, [r7, #71]	@ zero_extendqisi2
 3106 0664 97F83F20 		ldrb	r2, [r7, #63]	@ zero_extendqisi2
 3107 0668 2049     		ldr	r1, .L218+8
 3108 066a 3420     		movs	r0, #52
 3109 066c 00FB02F2 		mul	r2, r0, r2
 3110 0670 0A44     		add	r2, r2, r1
 3111 0672 1268     		ldr	r2, [r2]
 3112 0674 1F49     		ldr	r1, .L218+16
 3113 0676 1B01     		lsls	r3, r3, #4
 3114 0678 0B44     		add	r3, r3, r1
 3115 067a 1A60     		str	r2, [r3]
1194:..\src/interruptions.c ****                 
1195:..\src/interruptions.c ****                 if (position_counter == 250){
 3116              		.loc 1 1195 0
 3117 067c 1E4B     		ldr	r3, .L218+20
 3118 067e 1B68     		ldr	r3, [r3]
 3119 0680 FA2B     		cmp	r3, #250
 3120 0682 11D1     		bne	.L209
1196:..\src/interruptions.c ****                     // To do only once
1197:..\src/interruptions.c ****                     g_meas[SH_ENC_L].hold_curr = g_meas[SH_ENC_L].curr;
 3121              		.loc 1 1197 0
ARM GAS  C:\Users\Mattia\AppData\Local\Temp\cclAPrfh.s 			page 78


 3122 0684 97F83F30 		ldrb	r3, [r7, #63]	@ zero_extendqisi2
 3123 0688 97F83F20 		ldrb	r2, [r7, #63]	@ zero_extendqisi2
 3124 068c 1749     		ldr	r1, .L218+8
 3125 068e 3420     		movs	r0, #52
 3126 0690 00FB02F2 		mul	r2, r0, r2
 3127 0694 0A44     		add	r2, r2, r1
 3128 0696 0C32     		adds	r2, r2, #12
 3129 0698 1268     		ldr	r2, [r2]
 3130 069a 1449     		ldr	r1, .L218+8
 3131 069c 3420     		movs	r0, #52
 3132 069e 00FB03F3 		mul	r3, r0, r3
 3133 06a2 0B44     		add	r3, r3, r1
 3134 06a4 1433     		adds	r3, r3, #20
 3135 06a6 1A60     		str	r2, [r3]
 3136              	.L209:
1198:..\src/interruptions.c ****                 }
1199:..\src/interruptions.c ****                 pwm_input = 0;            
 3137              		.loc 1 1199 0
 3138 06a8 0023     		movs	r3, #0
 3139 06aa FB64     		str	r3, [r7, #76]
1189:..\src/interruptions.c ****                 if (SH_MOT->input_mode == INPUT_MODE_EXTERNAL && change_ext_ref_flag == FALSE) {
 3140              		.loc 1 1189 0
 3141 06ac 02E0     		b	.L205
 3142              	.L206:
1200:..\src/interruptions.c ****             }
1201:..\src/interruptions.c ****         }
1202:..\src/interruptions.c ****         else {
1203:..\src/interruptions.c ****             position_counter = 0;
 3143              		.loc 1 1203 0
 3144 06ae 124B     		ldr	r3, .L218+20
 3145 06b0 0022     		movs	r2, #0
 3146 06b2 1A60     		str	r2, [r3]
 3147              	.L205:
1204:..\src/interruptions.c ****         }
1205:..\src/interruptions.c ****     }
1206:..\src/interruptions.c ****     
1207:..\src/interruptions.c ****     if (motor_dir)
 3148              		.loc 1 1207 0
 3149 06b4 134B     		ldr	r3, .L218+32
 3150 06b6 1B78     		ldrb	r3, [r3]	@ zero_extendqisi2
 3151 06b8 002B     		cmp	r3, #0
 3152 06ba 03D0     		beq	.L210
1208:..\src/interruptions.c ****         MOTOR_DIR_1_Write(0x01);
 3153              		.loc 1 1208 0
 3154 06bc 0120     		movs	r0, #1
 3155 06be FFF7FEFF 		bl	MOTOR_DIR_1_Write
 3156 06c2 02E0     		b	.L211
 3157              	.L210:
1209:..\src/interruptions.c ****     else
1210:..\src/interruptions.c ****         MOTOR_DIR_1_Write(0x00);
 3158              		.loc 1 1210 0
 3159 06c4 0020     		movs	r0, #0
 3160 06c6 FFF7FEFF 		bl	MOTOR_DIR_1_Write
 3161              	.L211:
1211:..\src/interruptions.c **** 
1212:..\src/interruptions.c ****     PWM_MOTORS_WriteCompare1(abs(pwm_input));
 3162              		.loc 1 1212 0
ARM GAS  C:\Users\Mattia\AppData\Local\Temp\cclAPrfh.s 			page 79


 3163 06ca FB6C     		ldr	r3, [r7, #76]
 3164 06cc 002B     		cmp	r3, #0
 3165 06ce B8BF     		it	lt
 3166 06d0 5B42     		rsblt	r3, r3, #0
 3167 06d2 DBB2     		uxtb	r3, r3
 3168 06d4 1846     		mov	r0, r3
 3169 06d6 FFF7FEFF 		bl	PWM_MOTORS_WriteCompare1
1213:..\src/interruptions.c **** }
 3170              		.loc 1 1213 0
 3171 06da 00BF     		nop
 3172 06dc 5037     		adds	r7, r7, #80
 3173              		.cfi_def_cfa_offset 8
 3174 06de BD46     		mov	sp, r7
 3175              		.cfi_def_cfa_register 13
 3176              		@ sp needed
 3177 06e0 80BD     		pop	{r7, pc}
 3178              	.L219:
 3179 06e2 00BF     		.align	2
 3180              	.L218:
 3181 06e4 00000000 		.word	pwm_sign
 3182 06e8 00000000 		.word	g_measOld
 3183 06ec 00000000 		.word	g_meas
 3184 06f0 00000000 		.word	g_refOld
 3185 06f4 00000000 		.word	g_ref
 3186 06f8 A8000000 		.word	position_counter.10507
 3187 06fc 00000000 		.word	change_ext_ref_flag
 3188 0700 00000000 		.word	g_refNew
 3189 0704 98000000 		.word	motor_dir.10506
 3190              		.cfi_endproc
 3191              	.LFE70:
 3192              		.size	motor_control_SH, .-motor_control_SH
 3193              		.section	.text.motor_control_generic,"ax",%progbits
 3194              		.align	2
 3195              		.global	motor_control_generic
 3196              		.thumb
 3197              		.thumb_func
 3198              		.type	motor_control_generic, %function
 3199              	motor_control_generic:
 3200              	.LFB71:
1214:..\src/interruptions.c **** 
1215:..\src/interruptions.c **** //==============================================================================
1216:..\src/interruptions.c **** //                                                         MOTOR CONTROL GENERIC
1217:..\src/interruptions.c **** //==============================================================================
1218:..\src/interruptions.c **** void motor_control_generic(uint8 idx) {
 3201              		.loc 1 1218 0
 3202              		.cfi_startproc
 3203              		@ args = 0, pretend = 0, frame = 80
 3204              		@ frame_needed = 1, uses_anonymous_args = 0
 3205 0000 90B5     		push	{r4, r7, lr}
 3206              		.cfi_def_cfa_offset 12
 3207              		.cfi_offset 4, -12
 3208              		.cfi_offset 7, -8
 3209              		.cfi_offset 14, -4
 3210 0002 95B0     		sub	sp, sp, #84
 3211              		.cfi_def_cfa_offset 96
 3212 0004 00AF     		add	r7, sp, #0
 3213              		.cfi_def_cfa_register 7
ARM GAS  C:\Users\Mattia\AppData\Local\Temp\cclAPrfh.s 			page 80


 3214 0006 0346     		mov	r3, r0
 3215 0008 FB71     		strb	r3, [r7, #7]
1219:..\src/interruptions.c ****     
1220:..\src/interruptions.c ****     int32 CYDATA pwm_input = 0;
 3216              		.loc 1 1220 0
 3217 000a 0023     		movs	r3, #0
 3218 000c FB64     		str	r3, [r7, #76]
1221:..\src/interruptions.c ****     int32 CYDATA pos_error;         // position error
1222:..\src/interruptions.c ****     int32 CYDATA curr_error;        // current error
1223:..\src/interruptions.c ****     int32 CYDATA i_ref;             // current reference
1224:..\src/interruptions.c **** 
1225:..\src/interruptions.c ****     struct st_motor* MOT = &c_mem.motor[idx]; // Motor struct
 3219              		.loc 1 1225 0
 3220 000e FA79     		ldrb	r2, [r7, #7]	@ zero_extendqisi2
 3221 0010 1346     		mov	r3, r2
 3222 0012 DB00     		lsls	r3, r3, #3
 3223 0014 9B1A     		subs	r3, r3, r2
 3224 0016 1B01     		lsls	r3, r3, #4
 3225 0018 B033     		adds	r3, r3, #176
 3226 001a 9C4A     		ldr	r2, .L292
 3227 001c 1344     		add	r3, r3, r2
 3228 001e 7B64     		str	r3, [r7, #68]
1226:..\src/interruptions.c ****     uint8 ENC_L = MOT->encoder_line;          // Associated encoder line
 3229              		.loc 1 1226 0
 3230 0020 7B6C     		ldr	r3, [r7, #68]
 3231 0022 93F86030 		ldrb	r3, [r3, #96]
 3232 0026 87F84330 		strb	r3, [r7, #67]
1227:..\src/interruptions.c ****     
1228:..\src/interruptions.c ****     int32 CYDATA k_p = MOT->k_p;  
 3233              		.loc 1 1228 0
 3234 002a 7B6C     		ldr	r3, [r7, #68]
 3235 002c 1B68     		ldr	r3, [r3]
 3236 002e FB63     		str	r3, [r7, #60]
1229:..\src/interruptions.c ****     int32 CYDATA k_i = MOT->k_i; 
 3237              		.loc 1 1229 0
 3238 0030 7B6C     		ldr	r3, [r7, #68]
 3239 0032 5B68     		ldr	r3, [r3, #4]
 3240 0034 BB63     		str	r3, [r7, #56]
1230:..\src/interruptions.c ****     int32 CYDATA k_d = MOT->k_d; 
 3241              		.loc 1 1230 0
 3242 0036 7B6C     		ldr	r3, [r7, #68]
 3243 0038 9B68     		ldr	r3, [r3, #8]
 3244 003a 7B63     		str	r3, [r7, #52]
1231:..\src/interruptions.c **** 
1232:..\src/interruptions.c ****     int32 CYDATA k_p_c = MOT->k_p_c;  
 3245              		.loc 1 1232 0
 3246 003c 7B6C     		ldr	r3, [r7, #68]
 3247 003e DB68     		ldr	r3, [r3, #12]
 3248 0040 3B63     		str	r3, [r7, #48]
1233:..\src/interruptions.c ****     int32 CYDATA k_i_c = MOT->k_i_c; 
 3249              		.loc 1 1233 0
 3250 0042 7B6C     		ldr	r3, [r7, #68]
 3251 0044 1B69     		ldr	r3, [r3, #16]
 3252 0046 FB62     		str	r3, [r7, #44]
1234:..\src/interruptions.c ****     int32 CYDATA k_d_c = MOT->k_d_c;   
 3253              		.loc 1 1234 0
 3254 0048 7B6C     		ldr	r3, [r7, #68]
ARM GAS  C:\Users\Mattia\AppData\Local\Temp\cclAPrfh.s 			page 81


 3255 004a 5B69     		ldr	r3, [r3, #20]
 3256 004c BB62     		str	r3, [r7, #40]
1235:..\src/interruptions.c **** 
1236:..\src/interruptions.c ****     int32 CYDATA k_p_dl = MOT->k_p_dl;  
 3257              		.loc 1 1236 0
 3258 004e 7B6C     		ldr	r3, [r7, #68]
 3259 0050 9B69     		ldr	r3, [r3, #24]
 3260 0052 7B62     		str	r3, [r7, #36]
1237:..\src/interruptions.c ****     int32 CYDATA k_i_dl = MOT->k_i_dl; 
 3261              		.loc 1 1237 0
 3262 0054 7B6C     		ldr	r3, [r7, #68]
 3263 0056 DB69     		ldr	r3, [r3, #28]
 3264 0058 3B62     		str	r3, [r7, #32]
1238:..\src/interruptions.c ****     int32 CYDATA k_d_dl = MOT->k_d_dl;
 3265              		.loc 1 1238 0
 3266 005a 7B6C     		ldr	r3, [r7, #68]
 3267 005c 1B6A     		ldr	r3, [r3, #32]
 3268 005e FB61     		str	r3, [r7, #28]
1239:..\src/interruptions.c ****     
1240:..\src/interruptions.c ****     int32 CYDATA k_p_c_dl = MOT->k_p_c_dl;  
 3269              		.loc 1 1240 0
 3270 0060 7B6C     		ldr	r3, [r7, #68]
 3271 0062 5B6A     		ldr	r3, [r3, #36]
 3272 0064 BB61     		str	r3, [r7, #24]
1241:..\src/interruptions.c ****     int32 CYDATA k_i_c_dl = MOT->k_i_c_dl; 
 3273              		.loc 1 1241 0
 3274 0066 7B6C     		ldr	r3, [r7, #68]
 3275 0068 9B6A     		ldr	r3, [r3, #40]
 3276 006a 7B61     		str	r3, [r7, #20]
1242:..\src/interruptions.c ****     int32 CYDATA k_d_c_dl = MOT->k_d_c_dl;   
 3277              		.loc 1 1242 0
 3278 006c 7B6C     		ldr	r3, [r7, #68]
 3279 006e DB6A     		ldr	r3, [r3, #44]
 3280 0070 3B61     		str	r3, [r7, #16]
1243:..\src/interruptions.c **** 
1244:..\src/interruptions.c ****     // Static Variables
1245:..\src/interruptions.c **** 
1246:..\src/interruptions.c ****     static int32 pos_error_sum[NUM_OF_MOTORS];     // position error sum for integral
1247:..\src/interruptions.c ****     static int32 curr_error_sum[NUM_OF_MOTORS];    // current error sum for integral
1248:..\src/interruptions.c ****     
1249:..\src/interruptions.c ****     static int32 prev_pos_err[NUM_OF_MOTORS];      // previous position error for deriv. control
1250:..\src/interruptions.c ****     static int32 prev_curr_err[NUM_OF_MOTORS];     // previous current error for deriv. control
1251:..\src/interruptions.c ****     static int32 prev_pwm[NUM_OF_MOTORS];
1252:..\src/interruptions.c **** 
1253:..\src/interruptions.c ****     static CYBIT motor_dir[NUM_OF_MOTORS] = {FALSE, FALSE};
1254:..\src/interruptions.c ****     static uint32 position_counter[NUM_OF_MOTORS] = {0, 0};
1255:..\src/interruptions.c **** 
1256:..\src/interruptions.c ****     // ======================= UPDATE MOTOR REFERENCE ==========================            
1257:..\src/interruptions.c ****     compute_reference(idx, &g_ref[idx], &g_refOld[idx]);
 3281              		.loc 1 1257 0
 3282 0072 FB79     		ldrb	r3, [r7, #7]	@ zero_extendqisi2
 3283 0074 1B01     		lsls	r3, r3, #4
 3284 0076 864A     		ldr	r2, .L292+4
 3285 0078 9918     		adds	r1, r3, r2
 3286 007a FB79     		ldrb	r3, [r7, #7]	@ zero_extendqisi2
 3287 007c 1B01     		lsls	r3, r3, #4
 3288 007e 854A     		ldr	r2, .L292+8
ARM GAS  C:\Users\Mattia\AppData\Local\Temp\cclAPrfh.s 			page 82


 3289 0080 1A44     		add	r2, r2, r3
 3290 0082 FB79     		ldrb	r3, [r7, #7]	@ zero_extendqisi2
 3291 0084 1846     		mov	r0, r3
 3292 0086 FFF7FEFF 		bl	compute_reference
1258:..\src/interruptions.c ****     
1259:..\src/interruptions.c ****    
1260:..\src/interruptions.c ****     switch(MOT->control_mode) {
 3293              		.loc 1 1260 0
 3294 008a 7B6C     		ldr	r3, [r7, #68]
 3295 008c 93F85F30 		ldrb	r3, [r3, #95]	@ zero_extendqisi2
 3296 0090 032B     		cmp	r3, #3
 3297 0092 00F25482 		bhi	.L221
 3298 0096 01A2     		adr	r2, .L223
 3299 0098 52F823F0 		ldr	pc, [r2, r3, lsl #2]
 3300              		.p2align 2
 3301              	.L223:
 3302 009c C1020000 		.word	.L222+1
 3303 00a0 CB040000 		.word	.L224+1
 3304 00a4 99030000 		.word	.L225+1
 3305 00a8 AD000000 		.word	.L226+1
 3306              		.p2align 1
 3307              	.L226:
1261:..\src/interruptions.c ****         // ======================= CURRENT AND POSITION CONTROL =======================
1262:..\src/interruptions.c ****         case CURR_AND_POS_CONTROL:
1263:..\src/interruptions.c ****             pos_error = g_ref[0].pos - g_meas[ENC_L].pos[0];
 3308              		.loc 1 1263 0
 3309 00ac 784B     		ldr	r3, .L292+4
 3310 00ae 1A68     		ldr	r2, [r3]
 3311 00b0 97F84330 		ldrb	r3, [r7, #67]	@ zero_extendqisi2
 3312 00b4 7849     		ldr	r1, .L292+12
 3313 00b6 3420     		movs	r0, #52
 3314 00b8 00FB03F3 		mul	r3, r0, r3
 3315 00bc 0B44     		add	r3, r3, r1
 3316 00be 1B68     		ldr	r3, [r3]
 3317 00c0 D31A     		subs	r3, r2, r3
 3318 00c2 FB60     		str	r3, [r7, #12]
1264:..\src/interruptions.c **** 
1265:..\src/interruptions.c ****             pos_error_sum[idx] += pos_error;
 3319              		.loc 1 1265 0
 3320 00c4 FB79     		ldrb	r3, [r7, #7]	@ zero_extendqisi2
 3321 00c6 FA79     		ldrb	r2, [r7, #7]	@ zero_extendqisi2
 3322 00c8 7449     		ldr	r1, .L292+16
 3323 00ca 51F82210 		ldr	r1, [r1, r2, lsl #2]
 3324 00ce FA68     		ldr	r2, [r7, #12]
 3325 00d0 0A44     		add	r2, r2, r1
 3326 00d2 7249     		ldr	r1, .L292+16
 3327 00d4 41F82320 		str	r2, [r1, r3, lsl #2]
1266:..\src/interruptions.c **** 
1267:..\src/interruptions.c ****             // error_sum saturation
1268:..\src/interruptions.c ****             if (pos_error_sum[idx] > POS_INTEGRAL_SAT_LIMIT)
 3328              		.loc 1 1268 0
 3329 00d8 FB79     		ldrb	r3, [r7, #7]	@ zero_extendqisi2
 3330 00da 704A     		ldr	r2, .L292+16
 3331 00dc 52F82330 		ldr	r3, [r2, r3, lsl #2]
 3332 00e0 6F4A     		ldr	r2, .L292+20
 3333 00e2 9342     		cmp	r3, r2
 3334 00e4 05DD     		ble	.L227
ARM GAS  C:\Users\Mattia\AppData\Local\Temp\cclAPrfh.s 			page 83


1269:..\src/interruptions.c ****                 pos_error_sum[idx] = POS_INTEGRAL_SAT_LIMIT;
 3335              		.loc 1 1269 0
 3336 00e6 FB79     		ldrb	r3, [r7, #7]	@ zero_extendqisi2
 3337 00e8 6C4A     		ldr	r2, .L292+16
 3338 00ea 6D49     		ldr	r1, .L292+20
 3339 00ec 42F82310 		str	r1, [r2, r3, lsl #2]
 3340 00f0 0BE0     		b	.L228
 3341              	.L227:
1270:..\src/interruptions.c ****             else {
1271:..\src/interruptions.c ****                 if (pos_error_sum[idx] < -POS_INTEGRAL_SAT_LIMIT) 
 3342              		.loc 1 1271 0
 3343 00f2 FB79     		ldrb	r3, [r7, #7]	@ zero_extendqisi2
 3344 00f4 694A     		ldr	r2, .L292+16
 3345 00f6 52F82330 		ldr	r3, [r2, r3, lsl #2]
 3346 00fa 6A4A     		ldr	r2, .L292+24
 3347 00fc 9342     		cmp	r3, r2
 3348 00fe 04DA     		bge	.L228
1272:..\src/interruptions.c ****                     pos_error_sum[idx] = -POS_INTEGRAL_SAT_LIMIT;
 3349              		.loc 1 1272 0
 3350 0100 FB79     		ldrb	r3, [r7, #7]	@ zero_extendqisi2
 3351 0102 664A     		ldr	r2, .L292+16
 3352 0104 6749     		ldr	r1, .L292+24
 3353 0106 42F82310 		str	r1, [r2, r3, lsl #2]
 3354              	.L228:
1273:..\src/interruptions.c ****             }
1274:..\src/interruptions.c ****             
1275:..\src/interruptions.c ****             // ------ position PID control ------
1276:..\src/interruptions.c **** 
1277:..\src/interruptions.c ****             i_ref = 0;
 3355              		.loc 1 1277 0
 3356 010a 0023     		movs	r3, #0
 3357 010c BB64     		str	r3, [r7, #72]
1278:..\src/interruptions.c ****             
1279:..\src/interruptions.c ****             // Proportional
1280:..\src/interruptions.c ****             if (k_p_dl != 0)
 3358              		.loc 1 1280 0
 3359 010e 7B6A     		ldr	r3, [r7, #36]
 3360 0110 002B     		cmp	r3, #0
 3361 0112 07D0     		beq	.L229
1281:..\src/interruptions.c ****                 i_ref += (int32)(k_p_dl * pos_error) >> 16;
 3362              		.loc 1 1281 0
 3363 0114 7B6A     		ldr	r3, [r7, #36]
 3364 0116 FA68     		ldr	r2, [r7, #12]
 3365 0118 02FB03F3 		mul	r3, r2, r3
 3366 011c 1B14     		asrs	r3, r3, #16
 3367 011e BA6C     		ldr	r2, [r7, #72]
 3368 0120 1344     		add	r3, r3, r2
 3369 0122 BB64     		str	r3, [r7, #72]
 3370              	.L229:
1282:..\src/interruptions.c **** 
1283:..\src/interruptions.c ****             // Integral
1284:..\src/interruptions.c ****             if (k_i_dl != 0)
 3371              		.loc 1 1284 0
 3372 0124 3B6A     		ldr	r3, [r7, #32]
 3373 0126 002B     		cmp	r3, #0
 3374 0128 0AD0     		beq	.L230
1285:..\src/interruptions.c ****                 i_ref += (int32)(k_i_dl * pos_error_sum[idx]) >> 16;
ARM GAS  C:\Users\Mattia\AppData\Local\Temp\cclAPrfh.s 			page 84


 3375              		.loc 1 1285 0
 3376 012a FB79     		ldrb	r3, [r7, #7]	@ zero_extendqisi2
 3377 012c 5B4A     		ldr	r2, .L292+16
 3378 012e 52F82330 		ldr	r3, [r2, r3, lsl #2]
 3379 0132 3A6A     		ldr	r2, [r7, #32]
 3380 0134 02FB03F3 		mul	r3, r2, r3
 3381 0138 1B14     		asrs	r3, r3, #16
 3382 013a BA6C     		ldr	r2, [r7, #72]
 3383 013c 1344     		add	r3, r3, r2
 3384 013e BB64     		str	r3, [r7, #72]
 3385              	.L230:
1286:..\src/interruptions.c **** 
1287:..\src/interruptions.c ****             // Derivative
1288:..\src/interruptions.c ****             if (k_d_dl != 0)
 3386              		.loc 1 1288 0
 3387 0140 FB69     		ldr	r3, [r7, #28]
 3388 0142 002B     		cmp	r3, #0
 3389 0144 0CD0     		beq	.L231
1289:..\src/interruptions.c ****                 i_ref += (int32)(k_d_dl * (pos_error - prev_pos_err[idx])) >> 16;
 3390              		.loc 1 1289 0
 3391 0146 FB79     		ldrb	r3, [r7, #7]	@ zero_extendqisi2
 3392 0148 574A     		ldr	r2, .L292+28
 3393 014a 52F82330 		ldr	r3, [r2, r3, lsl #2]
 3394 014e FA68     		ldr	r2, [r7, #12]
 3395 0150 D31A     		subs	r3, r2, r3
 3396 0152 FA69     		ldr	r2, [r7, #28]
 3397 0154 02FB03F3 		mul	r3, r2, r3
 3398 0158 1B14     		asrs	r3, r3, #16
 3399 015a BA6C     		ldr	r2, [r7, #72]
 3400 015c 1344     		add	r3, r3, r2
 3401 015e BB64     		str	r3, [r7, #72]
 3402              	.L231:
1290:..\src/interruptions.c ****                         
1291:..\src/interruptions.c ****             // Update previous position
1292:..\src/interruptions.c ****             prev_pos_err[idx] = pos_error;
 3403              		.loc 1 1292 0
 3404 0160 FB79     		ldrb	r3, [r7, #7]	@ zero_extendqisi2
 3405 0162 5149     		ldr	r1, .L292+28
 3406 0164 FA68     		ldr	r2, [r7, #12]
 3407 0166 41F82320 		str	r2, [r1, r3, lsl #2]
1293:..\src/interruptions.c **** 
1294:..\src/interruptions.c ****             // motor direction depends on i_ref
1295:..\src/interruptions.c ****             if (i_ref >= 0)
 3408              		.loc 1 1295 0
 3409 016a BB6C     		ldr	r3, [r7, #72]
 3410 016c 002B     		cmp	r3, #0
 3411 016e 04DB     		blt	.L232
1296:..\src/interruptions.c ****                 motor_dir[idx] = TRUE;
 3412              		.loc 1 1296 0
 3413 0170 FB79     		ldrb	r3, [r7, #7]	@ zero_extendqisi2
 3414 0172 4E4A     		ldr	r2, .L292+32
 3415 0174 0121     		movs	r1, #1
 3416 0176 D154     		strb	r1, [r2, r3]
 3417 0178 03E0     		b	.L233
 3418              	.L232:
1297:..\src/interruptions.c ****             else
1298:..\src/interruptions.c ****                 motor_dir[idx] = FALSE;
ARM GAS  C:\Users\Mattia\AppData\Local\Temp\cclAPrfh.s 			page 85


 3419              		.loc 1 1298 0
 3420 017a FB79     		ldrb	r3, [r7, #7]	@ zero_extendqisi2
 3421 017c 4B4A     		ldr	r2, .L292+32
 3422 017e 0021     		movs	r1, #0
 3423 0180 D154     		strb	r1, [r2, r3]
 3424              	.L233:
1299:..\src/interruptions.c **** 
1300:..\src/interruptions.c ****             // saturate max current
1301:..\src/interruptions.c ****             if (i_ref > MOT->current_limit)
 3425              		.loc 1 1301 0
 3426 0182 7B6C     		ldr	r3, [r7, #68]
 3427 0184 B3F95C30 		ldrsh	r3, [r3, #92]
 3428 0188 1A46     		mov	r2, r3
 3429 018a BB6C     		ldr	r3, [r7, #72]
 3430 018c 9A42     		cmp	r2, r3
 3431 018e 04DA     		bge	.L234
1302:..\src/interruptions.c ****                 i_ref = MOT->current_limit;
 3432              		.loc 1 1302 0
 3433 0190 7B6C     		ldr	r3, [r7, #68]
 3434 0192 B3F95C30 		ldrsh	r3, [r3, #92]
 3435 0196 BB64     		str	r3, [r7, #72]
 3436 0198 0BE0     		b	.L235
 3437              	.L234:
1303:..\src/interruptions.c ****             else {
1304:..\src/interruptions.c ****                 if (i_ref < -MOT->current_limit)
 3438              		.loc 1 1304 0
 3439 019a 7B6C     		ldr	r3, [r7, #68]
 3440 019c B3F95C30 		ldrsh	r3, [r3, #92]
 3441 01a0 5A42     		negs	r2, r3
 3442 01a2 BB6C     		ldr	r3, [r7, #72]
 3443 01a4 9A42     		cmp	r2, r3
 3444 01a6 04DD     		ble	.L235
1305:..\src/interruptions.c ****                     i_ref = -MOT->current_limit;
 3445              		.loc 1 1305 0
 3446 01a8 7B6C     		ldr	r3, [r7, #68]
 3447 01aa B3F95C30 		ldrsh	r3, [r3, #92]
 3448 01ae 5B42     		negs	r3, r3
 3449 01b0 BB64     		str	r3, [r7, #72]
 3450              	.L235:
1306:..\src/interruptions.c ****         	}
1307:..\src/interruptions.c **** 
1308:..\src/interruptions.c ****             // current error and curr error sum
1309:..\src/interruptions.c ****             curr_error = i_ref - g_meas[ENC_L].curr;
 3451              		.loc 1 1309 0
 3452 01b2 97F84330 		ldrb	r3, [r7, #67]	@ zero_extendqisi2
 3453 01b6 384A     		ldr	r2, .L292+12
 3454 01b8 3421     		movs	r1, #52
 3455 01ba 01FB03F3 		mul	r3, r1, r3
 3456 01be 1344     		add	r3, r3, r2
 3457 01c0 0C33     		adds	r3, r3, #12
 3458 01c2 1B68     		ldr	r3, [r3]
 3459 01c4 BA6C     		ldr	r2, [r7, #72]
 3460 01c6 D31A     		subs	r3, r2, r3
 3461 01c8 BB60     		str	r3, [r7, #8]
1310:..\src/interruptions.c ****             curr_error_sum[idx] += curr_error;
 3462              		.loc 1 1310 0
 3463 01ca FB79     		ldrb	r3, [r7, #7]	@ zero_extendqisi2
ARM GAS  C:\Users\Mattia\AppData\Local\Temp\cclAPrfh.s 			page 86


 3464 01cc FA79     		ldrb	r2, [r7, #7]	@ zero_extendqisi2
 3465 01ce 3849     		ldr	r1, .L292+36
 3466 01d0 51F82210 		ldr	r1, [r1, r2, lsl #2]
 3467 01d4 BA68     		ldr	r2, [r7, #8]
 3468 01d6 0A44     		add	r2, r2, r1
 3469 01d8 3549     		ldr	r1, .L292+36
 3470 01da 41F82320 		str	r2, [r1, r3, lsl #2]
1311:..\src/interruptions.c ****             
1312:..\src/interruptions.c ****             if (curr_error_sum[idx] > CURR_INTEGRAL_SAT_LIMIT)
 3471              		.loc 1 1312 0
 3472 01de FB79     		ldrb	r3, [r7, #7]	@ zero_extendqisi2
 3473 01e0 334A     		ldr	r2, .L292+36
 3474 01e2 52F82330 		ldr	r3, [r2, r3, lsl #2]
 3475 01e6 334A     		ldr	r2, .L292+40
 3476 01e8 9342     		cmp	r3, r2
 3477 01ea 05DD     		ble	.L236
1313:..\src/interruptions.c ****                 curr_error_sum[idx] = CURR_INTEGRAL_SAT_LIMIT;
 3478              		.loc 1 1313 0
 3479 01ec FB79     		ldrb	r3, [r7, #7]	@ zero_extendqisi2
 3480 01ee 304A     		ldr	r2, .L292+36
 3481 01f0 3049     		ldr	r1, .L292+40
 3482 01f2 42F82310 		str	r1, [r2, r3, lsl #2]
 3483 01f6 0BE0     		b	.L237
 3484              	.L236:
1314:..\src/interruptions.c ****             else {
1315:..\src/interruptions.c ****                 if (curr_error_sum[idx] < -CURR_INTEGRAL_SAT_LIMIT)
 3485              		.loc 1 1315 0
 3486 01f8 FB79     		ldrb	r3, [r7, #7]	@ zero_extendqisi2
 3487 01fa 2D4A     		ldr	r2, .L292+36
 3488 01fc 52F82330 		ldr	r3, [r2, r3, lsl #2]
 3489 0200 2D4A     		ldr	r2, .L292+44
 3490 0202 9342     		cmp	r3, r2
 3491 0204 04DA     		bge	.L237
1316:..\src/interruptions.c ****                     curr_error_sum[idx] = -CURR_INTEGRAL_SAT_LIMIT;
 3492              		.loc 1 1316 0
 3493 0206 FB79     		ldrb	r3, [r7, #7]	@ zero_extendqisi2
 3494 0208 294A     		ldr	r2, .L292+36
 3495 020a 2B49     		ldr	r1, .L292+44
 3496 020c 42F82310 		str	r1, [r2, r3, lsl #2]
 3497              	.L237:
1317:..\src/interruptions.c ****             }
1318:..\src/interruptions.c **** 
1319:..\src/interruptions.c ****             // ----- current PID control -----
1320:..\src/interruptions.c **** 
1321:..\src/interruptions.c ****             pwm_input = 0;
 3498              		.loc 1 1321 0
 3499 0210 0023     		movs	r3, #0
 3500 0212 FB64     		str	r3, [r7, #76]
1322:..\src/interruptions.c **** 
1323:..\src/interruptions.c ****             // Proportional
1324:..\src/interruptions.c ****             if (k_p_c_dl != 0)
 3501              		.loc 1 1324 0
 3502 0214 BB69     		ldr	r3, [r7, #24]
 3503 0216 002B     		cmp	r3, #0
 3504 0218 07D0     		beq	.L238
1325:..\src/interruptions.c ****                 pwm_input += (int32)(k_p_c_dl * curr_error) >> 16;
 3505              		.loc 1 1325 0
ARM GAS  C:\Users\Mattia\AppData\Local\Temp\cclAPrfh.s 			page 87


 3506 021a BB69     		ldr	r3, [r7, #24]
 3507 021c BA68     		ldr	r2, [r7, #8]
 3508 021e 02FB03F3 		mul	r3, r2, r3
 3509 0222 1B14     		asrs	r3, r3, #16
 3510 0224 FA6C     		ldr	r2, [r7, #76]
 3511 0226 1344     		add	r3, r3, r2
 3512 0228 FB64     		str	r3, [r7, #76]
 3513              	.L238:
1326:..\src/interruptions.c **** 
1327:..\src/interruptions.c ****             // Integral
1328:..\src/interruptions.c ****             if (k_i_c_dl != 0)
 3514              		.loc 1 1328 0
 3515 022a 7B69     		ldr	r3, [r7, #20]
 3516 022c 002B     		cmp	r3, #0
 3517 022e 0AD0     		beq	.L239
1329:..\src/interruptions.c ****                 pwm_input += (int32)(k_i_c_dl * curr_error_sum[idx]) >> 16;
 3518              		.loc 1 1329 0
 3519 0230 FB79     		ldrb	r3, [r7, #7]	@ zero_extendqisi2
 3520 0232 1F4A     		ldr	r2, .L292+36
 3521 0234 52F82330 		ldr	r3, [r2, r3, lsl #2]
 3522 0238 7A69     		ldr	r2, [r7, #20]
 3523 023a 02FB03F3 		mul	r3, r2, r3
 3524 023e 1B14     		asrs	r3, r3, #16
 3525 0240 FA6C     		ldr	r2, [r7, #76]
 3526 0242 1344     		add	r3, r3, r2
 3527 0244 FB64     		str	r3, [r7, #76]
 3528              	.L239:
1330:..\src/interruptions.c **** 
1331:..\src/interruptions.c ****             // Derivative
1332:..\src/interruptions.c ****             if (k_d_c_dl != 0)
 3529              		.loc 1 1332 0
 3530 0246 3B69     		ldr	r3, [r7, #16]
 3531 0248 002B     		cmp	r3, #0
 3532 024a 0CD0     		beq	.L240
1333:..\src/interruptions.c ****                 pwm_input += (int32)(k_d_c_dl * (curr_error - prev_curr_err[idx])) >> 16;
 3533              		.loc 1 1333 0
 3534 024c FB79     		ldrb	r3, [r7, #7]	@ zero_extendqisi2
 3535 024e 1B4A     		ldr	r2, .L292+48
 3536 0250 52F82330 		ldr	r3, [r2, r3, lsl #2]
 3537 0254 BA68     		ldr	r2, [r7, #8]
 3538 0256 D31A     		subs	r3, r2, r3
 3539 0258 3A69     		ldr	r2, [r7, #16]
 3540 025a 02FB03F3 		mul	r3, r2, r3
 3541 025e 1B14     		asrs	r3, r3, #16
 3542 0260 FA6C     		ldr	r2, [r7, #76]
 3543 0262 1344     		add	r3, r3, r2
 3544 0264 FB64     		str	r3, [r7, #76]
 3545              	.L240:
1334:..\src/interruptions.c **** 
1335:..\src/interruptions.c ****             // pwm_input saturation
1336:..\src/interruptions.c ****             if (pwm_input < -PWM_MAX_VALUE) 
 3546              		.loc 1 1336 0
 3547 0266 FB6C     		ldr	r3, [r7, #76]
 3548 0268 13F1640F 		cmn	r3, #100
 3549 026c 03DA     		bge	.L241
1337:..\src/interruptions.c ****                 pwm_input = -PWM_MAX_VALUE;
 3550              		.loc 1 1337 0
ARM GAS  C:\Users\Mattia\AppData\Local\Temp\cclAPrfh.s 			page 88


 3551 026e 6FF06303 		mvn	r3, #99
 3552 0272 FB64     		str	r3, [r7, #76]
 3553 0274 04E0     		b	.L242
 3554              	.L241:
1338:..\src/interruptions.c ****             else {
1339:..\src/interruptions.c ****                 if (pwm_input > PWM_MAX_VALUE)
 3555              		.loc 1 1339 0
 3556 0276 FB6C     		ldr	r3, [r7, #76]
 3557 0278 642B     		cmp	r3, #100
 3558 027a 01DD     		ble	.L242
1340:..\src/interruptions.c ****                     pwm_input = PWM_MAX_VALUE;
 3559              		.loc 1 1340 0
 3560 027c 6423     		movs	r3, #100
 3561 027e FB64     		str	r3, [r7, #76]
 3562              	.L242:
1341:..\src/interruptions.c ****             }
1342:..\src/interruptions.c **** 
1343:..\src/interruptions.c ****             // Update previous current
1344:..\src/interruptions.c ****             prev_curr_err[idx] = curr_error;
 3563              		.loc 1 1344 0
 3564 0280 FB79     		ldrb	r3, [r7, #7]	@ zero_extendqisi2
 3565 0282 0E49     		ldr	r1, .L292+48
 3566 0284 BA68     		ldr	r2, [r7, #8]
 3567 0286 41F82320 		str	r2, [r1, r3, lsl #2]
1345:..\src/interruptions.c **** 
1346:..\src/interruptions.c ****         break;
 3568              		.loc 1 1346 0
 3569 028a 58E1     		b	.L221
 3570              	.L293:
 3571              		.align	2
 3572              	.L292:
 3573 028c 00000000 		.word	c_mem
 3574 0290 00000000 		.word	g_ref
 3575 0294 00000000 		.word	g_refOld
 3576 0298 00000000 		.word	g_meas
 3577 029c AC000000 		.word	pos_error_sum.10534
 3578 02a0 80F0FA02 		.word	50000000
 3579 02a4 800F05FD 		.word	-50000000
 3580 02a8 B4000000 		.word	prev_pos_err.10536
 3581 02ac BC000000 		.word	motor_dir.10539
 3582 02b0 C0000000 		.word	curr_error_sum.10535
 3583 02b4 A0860100 		.word	100000
 3584 02b8 6079FEFF 		.word	-100000
 3585 02bc C8000000 		.word	prev_curr_err.10537
 3586              	.L222:
1347:..\src/interruptions.c **** 
1348:..\src/interruptions.c ****         // ============================== POSITION CONTROL =====================
1349:..\src/interruptions.c ****         case CONTROL_ANGLE:
1350:..\src/interruptions.c ****             pos_error = g_ref[idx].pos - g_meas[ENC_L].pos[0];
 3587              		.loc 1 1350 0
 3588 02c0 FB79     		ldrb	r3, [r7, #7]	@ zero_extendqisi2
 3589 02c2 934A     		ldr	r2, .L294
 3590 02c4 1B01     		lsls	r3, r3, #4
 3591 02c6 1344     		add	r3, r3, r2
 3592 02c8 1A68     		ldr	r2, [r3]
 3593 02ca 97F84330 		ldrb	r3, [r7, #67]	@ zero_extendqisi2
 3594 02ce 9149     		ldr	r1, .L294+4
ARM GAS  C:\Users\Mattia\AppData\Local\Temp\cclAPrfh.s 			page 89


 3595 02d0 3420     		movs	r0, #52
 3596 02d2 00FB03F3 		mul	r3, r0, r3
 3597 02d6 0B44     		add	r3, r3, r1
 3598 02d8 1B68     		ldr	r3, [r3]
 3599 02da D31A     		subs	r3, r2, r3
 3600 02dc FB60     		str	r3, [r7, #12]
1351:..\src/interruptions.c **** 
1352:..\src/interruptions.c ****             pos_error_sum[idx] += pos_error;
 3601              		.loc 1 1352 0
 3602 02de FB79     		ldrb	r3, [r7, #7]	@ zero_extendqisi2
 3603 02e0 FA79     		ldrb	r2, [r7, #7]	@ zero_extendqisi2
 3604 02e2 8D49     		ldr	r1, .L294+8
 3605 02e4 51F82210 		ldr	r1, [r1, r2, lsl #2]
 3606 02e8 FA68     		ldr	r2, [r7, #12]
 3607 02ea 0A44     		add	r2, r2, r1
 3608 02ec 8A49     		ldr	r1, .L294+8
 3609 02ee 41F82320 		str	r2, [r1, r3, lsl #2]
1353:..\src/interruptions.c **** 
1354:..\src/interruptions.c ****             // anti-windup (for integral control)
1355:..\src/interruptions.c ****             if (pos_error_sum[idx] > ANTI_WINDUP)
 3610              		.loc 1 1355 0
 3611 02f2 FB79     		ldrb	r3, [r7, #7]	@ zero_extendqisi2
 3612 02f4 884A     		ldr	r2, .L294+8
 3613 02f6 52F82330 		ldr	r3, [r2, r3, lsl #2]
 3614 02fa B3F57A7F 		cmp	r3, #1000
 3615 02fe 06DD     		ble	.L243
1356:..\src/interruptions.c ****                 pos_error_sum[idx] = ANTI_WINDUP;
 3616              		.loc 1 1356 0
 3617 0300 FB79     		ldrb	r3, [r7, #7]	@ zero_extendqisi2
 3618 0302 854A     		ldr	r2, .L294+8
 3619 0304 4FF47A71 		mov	r1, #1000
 3620 0308 42F82310 		str	r1, [r2, r3, lsl #2]
 3621 030c 0BE0     		b	.L244
 3622              	.L243:
1357:..\src/interruptions.c ****             else {
1358:..\src/interruptions.c **** 				if (pos_error_sum[idx] < -ANTI_WINDUP)
 3623              		.loc 1 1358 0
 3624 030e FB79     		ldrb	r3, [r7, #7]	@ zero_extendqisi2
 3625 0310 814A     		ldr	r2, .L294+8
 3626 0312 52F82330 		ldr	r3, [r2, r3, lsl #2]
 3627 0316 13F57A7F 		cmn	r3, #1000
 3628 031a 04DA     		bge	.L244
1359:..\src/interruptions.c ****                 	pos_error_sum[idx] = -ANTI_WINDUP;
 3629              		.loc 1 1359 0
 3630 031c FB79     		ldrb	r3, [r7, #7]	@ zero_extendqisi2
 3631 031e 7E4A     		ldr	r2, .L294+8
 3632 0320 7E49     		ldr	r1, .L294+12
 3633 0322 42F82310 		str	r1, [r2, r3, lsl #2]
 3634              	.L244:
1360:..\src/interruptions.c ****             }
1361:..\src/interruptions.c **** 
1362:..\src/interruptions.c ****             // Proportional
1363:..\src/interruptions.c ****             if (k_p != 0) 
 3635              		.loc 1 1363 0
 3636 0326 FB6B     		ldr	r3, [r7, #60]
 3637 0328 002B     		cmp	r3, #0
 3638 032a 05D0     		beq	.L245
ARM GAS  C:\Users\Mattia\AppData\Local\Temp\cclAPrfh.s 			page 90


1364:..\src/interruptions.c ****                 pwm_input = (int32)(k_p * pos_error) >> 16;
 3639              		.loc 1 1364 0
 3640 032c FB6B     		ldr	r3, [r7, #60]
 3641 032e FA68     		ldr	r2, [r7, #12]
 3642 0330 02FB03F3 		mul	r3, r2, r3
 3643 0334 1B14     		asrs	r3, r3, #16
 3644 0336 FB64     		str	r3, [r7, #76]
 3645              	.L245:
1365:..\src/interruptions.c ****             
1366:..\src/interruptions.c **** 
1367:..\src/interruptions.c ****             // Integral
1368:..\src/interruptions.c ****             if (k_i != 0) 
 3646              		.loc 1 1368 0
 3647 0338 BB6B     		ldr	r3, [r7, #56]
 3648 033a 002B     		cmp	r3, #0
 3649 033c 0AD0     		beq	.L246
1369:..\src/interruptions.c ****                 pwm_input += (int32)(k_i * pos_error_sum[idx]) >> 16;
 3650              		.loc 1 1369 0
 3651 033e FB79     		ldrb	r3, [r7, #7]	@ zero_extendqisi2
 3652 0340 754A     		ldr	r2, .L294+8
 3653 0342 52F82330 		ldr	r3, [r2, r3, lsl #2]
 3654 0346 BA6B     		ldr	r2, [r7, #56]
 3655 0348 02FB03F3 		mul	r3, r2, r3
 3656 034c 1B14     		asrs	r3, r3, #16
 3657 034e FA6C     		ldr	r2, [r7, #76]
 3658 0350 1344     		add	r3, r3, r2
 3659 0352 FB64     		str	r3, [r7, #76]
 3660              	.L246:
1370:..\src/interruptions.c ****             
1371:..\src/interruptions.c **** 
1372:..\src/interruptions.c ****             // Derivative
1373:..\src/interruptions.c ****             if (k_d != 0) 
 3661              		.loc 1 1373 0
 3662 0354 7B6B     		ldr	r3, [r7, #52]
 3663 0356 002B     		cmp	r3, #0
 3664 0358 0CD0     		beq	.L247
1374:..\src/interruptions.c ****                 pwm_input += (int32)(k_d * (pos_error - prev_pos_err[idx])) >> 16;
 3665              		.loc 1 1374 0
 3666 035a FB79     		ldrb	r3, [r7, #7]	@ zero_extendqisi2
 3667 035c 704A     		ldr	r2, .L294+16
 3668 035e 52F82330 		ldr	r3, [r2, r3, lsl #2]
 3669 0362 FA68     		ldr	r2, [r7, #12]
 3670 0364 D31A     		subs	r3, r2, r3
 3671 0366 7A6B     		ldr	r2, [r7, #52]
 3672 0368 02FB03F3 		mul	r3, r2, r3
 3673 036c 1B14     		asrs	r3, r3, #16
 3674 036e FA6C     		ldr	r2, [r7, #76]
 3675 0370 1344     		add	r3, r3, r2
 3676 0372 FB64     		str	r3, [r7, #76]
 3677              	.L247:
1375:..\src/interruptions.c ****             
1376:..\src/interruptions.c **** 
1377:..\src/interruptions.c ****             // Update measure
1378:..\src/interruptions.c ****             prev_pos_err[idx] = pos_error;
 3678              		.loc 1 1378 0
 3679 0374 FB79     		ldrb	r3, [r7, #7]	@ zero_extendqisi2
 3680 0376 6A49     		ldr	r1, .L294+16
ARM GAS  C:\Users\Mattia\AppData\Local\Temp\cclAPrfh.s 			page 91


 3681 0378 FA68     		ldr	r2, [r7, #12]
 3682 037a 41F82320 		str	r2, [r1, r3, lsl #2]
1379:..\src/interruptions.c **** 
1380:..\src/interruptions.c ****             if (pwm_input > 0)
 3683              		.loc 1 1380 0
 3684 037e FB6C     		ldr	r3, [r7, #76]
 3685 0380 002B     		cmp	r3, #0
 3686 0382 04DD     		ble	.L248
1381:..\src/interruptions.c ****                 motor_dir[idx] = TRUE;
 3687              		.loc 1 1381 0
 3688 0384 FB79     		ldrb	r3, [r7, #7]	@ zero_extendqisi2
 3689 0386 674A     		ldr	r2, .L294+20
 3690 0388 0121     		movs	r1, #1
 3691 038a D154     		strb	r1, [r2, r3]
1382:..\src/interruptions.c ****             else
1383:..\src/interruptions.c ****                 motor_dir[idx] = FALSE;
1384:..\src/interruptions.c **** 
1385:..\src/interruptions.c ****         break;
 3692              		.loc 1 1385 0
 3693 038c D7E0     		b	.L221
 3694              	.L248:
1383:..\src/interruptions.c **** 
 3695              		.loc 1 1383 0
 3696 038e FB79     		ldrb	r3, [r7, #7]	@ zero_extendqisi2
 3697 0390 644A     		ldr	r2, .L294+20
 3698 0392 0021     		movs	r1, #0
 3699 0394 D154     		strb	r1, [r2, r3]
 3700              		.loc 1 1385 0
 3701 0396 D2E0     		b	.L221
 3702              	.L225:
1386:..\src/interruptions.c **** 
1387:..\src/interruptions.c ****         // ========================== CURRENT CONTROL ==========================
1388:..\src/interruptions.c ****         case CONTROL_CURRENT:
1389:..\src/interruptions.c ****             if(g_ref[idx].onoff && tension_valid) {
 3703              		.loc 1 1389 0
 3704 0398 FB79     		ldrb	r3, [r7, #7]	@ zero_extendqisi2
 3705 039a 5D4A     		ldr	r2, .L294
 3706 039c 1B01     		lsls	r3, r3, #4
 3707 039e 1344     		add	r3, r3, r2
 3708 03a0 0C33     		adds	r3, r3, #12
 3709 03a2 1B78     		ldrb	r3, [r3]	@ zero_extendqisi2
 3710 03a4 002B     		cmp	r3, #0
 3711 03a6 00F0B180 		beq	.L289
 3712              		.loc 1 1389 0 is_stmt 0 discriminator 1
 3713 03aa 5F4B     		ldr	r3, .L294+24
 3714 03ac 1B78     		ldrb	r3, [r3]	@ zero_extendqisi2
 3715 03ae 002B     		cmp	r3, #0
 3716 03b0 00F0AC80 		beq	.L289
1390:..\src/interruptions.c ****                 
1391:..\src/interruptions.c ****                 i_ref = g_ref[idx].curr;
 3717              		.loc 1 1391 0 is_stmt 1
 3718 03b4 FB79     		ldrb	r3, [r7, #7]	@ zero_extendqisi2
 3719 03b6 564A     		ldr	r2, .L294
 3720 03b8 1B01     		lsls	r3, r3, #4
 3721 03ba 1344     		add	r3, r3, r2
 3722 03bc 0433     		adds	r3, r3, #4
 3723 03be 1B68     		ldr	r3, [r3]
ARM GAS  C:\Users\Mattia\AppData\Local\Temp\cclAPrfh.s 			page 92


 3724 03c0 BB64     		str	r3, [r7, #72]
1392:..\src/interruptions.c **** 
1393:..\src/interruptions.c ****                 if (i_ref > MOT->current_limit) 
 3725              		.loc 1 1393 0
 3726 03c2 7B6C     		ldr	r3, [r7, #68]
 3727 03c4 B3F95C30 		ldrsh	r3, [r3, #92]
 3728 03c8 1A46     		mov	r2, r3
 3729 03ca BB6C     		ldr	r3, [r7, #72]
 3730 03cc 9A42     		cmp	r2, r3
 3731 03ce 04DA     		bge	.L251
1394:..\src/interruptions.c ****                     i_ref = MOT->current_limit;
 3732              		.loc 1 1394 0
 3733 03d0 7B6C     		ldr	r3, [r7, #68]
 3734 03d2 B3F95C30 		ldrsh	r3, [r3, #92]
 3735 03d6 BB64     		str	r3, [r7, #72]
 3736 03d8 0BE0     		b	.L252
 3737              	.L251:
1395:..\src/interruptions.c ****                 else {
1396:..\src/interruptions.c ****                     if (i_ref < -MOT->current_limit)
 3738              		.loc 1 1396 0
 3739 03da 7B6C     		ldr	r3, [r7, #68]
 3740 03dc B3F95C30 		ldrsh	r3, [r3, #92]
 3741 03e0 5A42     		negs	r2, r3
 3742 03e2 BB6C     		ldr	r3, [r7, #72]
 3743 03e4 9A42     		cmp	r2, r3
 3744 03e6 04DD     		ble	.L252
1397:..\src/interruptions.c ****                         i_ref = -MOT->current_limit;
 3745              		.loc 1 1397 0
 3746 03e8 7B6C     		ldr	r3, [r7, #68]
 3747 03ea B3F95C30 		ldrsh	r3, [r3, #92]
 3748 03ee 5B42     		negs	r3, r3
 3749 03f0 BB64     		str	r3, [r7, #72]
 3750              	.L252:
1398:..\src/interruptions.c ****                 }
1399:..\src/interruptions.c ****                 
1400:..\src/interruptions.c ****                 // current error
1401:..\src/interruptions.c ****                 curr_error = i_ref - g_meas[ENC_L].curr;            
 3751              		.loc 1 1401 0
 3752 03f2 97F84330 		ldrb	r3, [r7, #67]	@ zero_extendqisi2
 3753 03f6 474A     		ldr	r2, .L294+4
 3754 03f8 3421     		movs	r1, #52
 3755 03fa 01FB03F3 		mul	r3, r1, r3
 3756 03fe 1344     		add	r3, r3, r2
 3757 0400 0C33     		adds	r3, r3, #12
 3758 0402 1B68     		ldr	r3, [r3]
 3759 0404 BA6C     		ldr	r2, [r7, #72]
 3760 0406 D31A     		subs	r3, r2, r3
 3761 0408 BB60     		str	r3, [r7, #8]
1402:..\src/interruptions.c ****                 curr_error_sum[idx] += curr_error;
 3762              		.loc 1 1402 0
