ARM GAS  C:\Users\Mattia\AppData\Local\Temp\ccnjK3ek.s 			page 1


   1              		.syntax unified
   2              		.cpu cortex-m3
   3              		.fpu softvfp
   4              		.eabi_attribute 20, 1
   5              		.eabi_attribute 21, 1
   6              		.eabi_attribute 23, 3
   7              		.eabi_attribute 24, 1
   8              		.eabi_attribute 25, 1
   9              		.eabi_attribute 26, 1
  10              		.eabi_attribute 30, 6
  11              		.eabi_attribute 34, 1
  12              		.eabi_attribute 18, 4
  13              		.thumb
  14              		.syntax unified
  15              		.file	"SD_RTC_functions.c"
  16              		.text
  17              	.Ltext0:
  18              		.cfi_sections	.debug_frame
  19              		.section	.text.DS1302_write,"ax",%progbits
  20              		.align	2
  21              		.global	DS1302_write
  22              		.thumb
  23              		.thumb_func
  24              		.type	DS1302_write, %function
  25              	DS1302_write:
  26              	.LFB64:
  27              		.file 1 "..\\src\\SD_RTC_functions.c"
   1:..\src/SD_RTC_functions.c **** // ----------------------------------------------------------------------------
   2:..\src/SD_RTC_functions.c **** // BSD 3-Clause License
   3:..\src/SD_RTC_functions.c **** 
   4:..\src/SD_RTC_functions.c **** // Copyright (c) 2016, qbrobotics
   5:..\src/SD_RTC_functions.c **** // Copyright (c) 2017-2020, Centro "E.Piaggio"
   6:..\src/SD_RTC_functions.c **** // All rights reserved.
   7:..\src/SD_RTC_functions.c **** 
   8:..\src/SD_RTC_functions.c **** // Redistribution and use in source and binary forms, with or without
   9:..\src/SD_RTC_functions.c **** // modification, are permitted provided that the following conditions are met:
  10:..\src/SD_RTC_functions.c **** 
  11:..\src/SD_RTC_functions.c **** // * Redistributions of source code must retain the above copyright notice, this
  12:..\src/SD_RTC_functions.c **** //   list of conditions and the following disclaimer.
  13:..\src/SD_RTC_functions.c **** 
  14:..\src/SD_RTC_functions.c **** // * Redistributions in binary form must reproduce the above copyright notice,
  15:..\src/SD_RTC_functions.c **** //   this list of conditions and the following disclaimer in the documentation
  16:..\src/SD_RTC_functions.c **** //   and/or other materials provided with the distribution.
  17:..\src/SD_RTC_functions.c **** 
  18:..\src/SD_RTC_functions.c **** // * Neither the name of the copyright holder nor the names of its
  19:..\src/SD_RTC_functions.c **** //   contributors may be used to endorse or promote products derived from
  20:..\src/SD_RTC_functions.c **** //   this software without specific prior written permission.
  21:..\src/SD_RTC_functions.c **** 
  22:..\src/SD_RTC_functions.c **** // THIS SOFTWARE IS PROVIDED BY THE COPYRIGHT HOLDERS AND CONTRIBUTORS "AS IS"
  23:..\src/SD_RTC_functions.c **** // AND ANY EXPRESS OR IMPLIED WARRANTIES, INCLUDING, BUT NOT LIMITED TO, THE
  24:..\src/SD_RTC_functions.c **** // IMPLIED WARRANTIES OF MERCHANTABILITY AND FITNESS FOR A PARTICULAR PURPOSE ARE
  25:..\src/SD_RTC_functions.c **** // DISCLAIMED. IN NO EVENT SHALL THE COPYRIGHT HOLDER OR CONTRIBUTORS BE LIABLE
  26:..\src/SD_RTC_functions.c **** // FOR ANY DIRECT, INDIRECT, INCIDENTAL, SPECIAL, EXEMPLARY, OR CONSEQUENTIAL
  27:..\src/SD_RTC_functions.c **** // DAMAGES (INCLUDING, BUT NOT LIMITED TO, PROCUREMENT OF SUBSTITUTE GOODS OR
  28:..\src/SD_RTC_functions.c **** // SERVICES; LOSS OF USE, DATA, OR PROFITS; OR BUSINESS INTERRUPTION) HOWEVER
  29:..\src/SD_RTC_functions.c **** // CAUSED AND ON ANY THEORY OF LIABILITY, WHETHER IN CONTRACT, STRICT LIABILITY,
  30:..\src/SD_RTC_functions.c **** // OR TORT (INCLUDING NEGLIGENCE OR OTHERWISE) ARISING IN ANY WAY OUT OF THE USE
ARM GAS  C:\Users\Mattia\AppData\Local\Temp\ccnjK3ek.s 			page 2


  31:..\src/SD_RTC_functions.c **** // OF THIS SOFTWARE, EVEN IF ADVISED OF THE POSSIBILITY OF SUCH DAMAGE.
  32:..\src/SD_RTC_functions.c **** // POSSIBILITY OF SUCH DAMAGE.
  33:..\src/SD_RTC_functions.c **** // ----------------------------------------------------------------------------
  34:..\src/SD_RTC_functions.c **** 
  35:..\src/SD_RTC_functions.c **** /**
  36:..\src/SD_RTC_functions.c **** * \file         SD_RTC_functions.c
  37:..\src/SD_RTC_functions.c **** *
  38:..\src/SD_RTC_functions.c **** * \brief        Implementation of SD and RTC module functions.
  39:..\src/SD_RTC_functions.c **** * \date         March 20th, 2020
  40:..\src/SD_RTC_functions.c **** * \author       _Centro "E.Piaggio"_
  41:..\src/SD_RTC_functions.c **** * \copyright    (C) 2012-2016 qbrobotics. All rights reserved.
  42:..\src/SD_RTC_functions.c **** * \copyright    (C) 2017-2020 Centro "E.Piaggio". All rights reserved.
  43:..\src/SD_RTC_functions.c **** */
  44:..\src/SD_RTC_functions.c **** 
  45:..\src/SD_RTC_functions.c **** #include "SD_RTC_functions.h"
  46:..\src/SD_RTC_functions.c **** 
  47:..\src/SD_RTC_functions.c **** // --------------------------------------------------------
  48:..\src/SD_RTC_functions.c **** // DS1302_write
  49:..\src/SD_RTC_functions.c **** void DS1302_write(uint8 address, uint8 data_wr) {
  28              		.loc 1 49 0
  29              		.cfi_startproc
  30              		@ args = 0, pretend = 0, frame = 8
  31              		@ frame_needed = 1, uses_anonymous_args = 0
  32 0000 80B5     		push	{r7, lr}
  33              		.cfi_def_cfa_offset 8
  34              		.cfi_offset 7, -8
  35              		.cfi_offset 14, -4
  36 0002 82B0     		sub	sp, sp, #8
  37              		.cfi_def_cfa_offset 16
  38 0004 00AF     		add	r7, sp, #0
  39              		.cfi_def_cfa_register 7
  40 0006 0346     		mov	r3, r0
  41 0008 0A46     		mov	r2, r1
  42 000a FB71     		strb	r3, [r7, #7]
  43 000c 1346     		mov	r3, r2
  44 000e BB71     		strb	r3, [r7, #6]
  50:..\src/SD_RTC_functions.c **** 
  51:..\src/SD_RTC_functions.c ****   CLK_RTC_Write(0);  
  45              		.loc 1 51 0
  46 0010 0020     		movs	r0, #0
  47 0012 FFF7FEFF 		bl	CLK_RTC_Write
  52:..\src/SD_RTC_functions.c ****   CS_RTC_Write(1);
  48              		.loc 1 52 0
  49 0016 0120     		movs	r0, #1
  50 0018 FFF7FEFF 		bl	CS_RTC_Write
  53:..\src/SD_RTC_functions.c ****   CyDelayUs(5);
  51              		.loc 1 53 0
  52 001c 0520     		movs	r0, #5
  53 001e FFF7FEFF 		bl	CyDelayUs
  54:..\src/SD_RTC_functions.c ****   DS1302_writeByte(address);
  54              		.loc 1 54 0
  55 0022 FB79     		ldrb	r3, [r7, #7]	@ zero_extendqisi2
  56 0024 1846     		mov	r0, r3
  57 0026 FFF7FEFF 		bl	DS1302_writeByte
  55:..\src/SD_RTC_functions.c ****   DS1302_writeByte(data_wr);
  58              		.loc 1 55 0
  59 002a BB79     		ldrb	r3, [r7, #6]	@ zero_extendqisi2
ARM GAS  C:\Users\Mattia\AppData\Local\Temp\ccnjK3ek.s 			page 3


  60 002c 1846     		mov	r0, r3
  61 002e FFF7FEFF 		bl	DS1302_writeByte
  56:..\src/SD_RTC_functions.c ****   
  57:..\src/SD_RTC_functions.c ****   CS_RTC_Write(0);
  62              		.loc 1 57 0
  63 0032 0020     		movs	r0, #0
  64 0034 FFF7FEFF 		bl	CS_RTC_Write
  58:..\src/SD_RTC_functions.c ****   CyDelayUs(5);
  65              		.loc 1 58 0
  66 0038 0520     		movs	r0, #5
  67 003a FFF7FEFF 		bl	CyDelayUs
  59:..\src/SD_RTC_functions.c **** }
  68              		.loc 1 59 0
  69 003e 00BF     		nop
  70 0040 0837     		adds	r7, r7, #8
  71              		.cfi_def_cfa_offset 8
  72 0042 BD46     		mov	sp, r7
  73              		.cfi_def_cfa_register 13
  74              		@ sp needed
  75 0044 80BD     		pop	{r7, pc}
  76              		.cfi_endproc
  77              	.LFE64:
  78              		.size	DS1302_write, .-DS1302_write
  79 0046 00BF     		.section	.text.DS1302_writeByte,"ax",%progbits
  80              		.align	2
  81              		.global	DS1302_writeByte
  82              		.thumb
  83              		.thumb_func
  84              		.type	DS1302_writeByte, %function
  85              	DS1302_writeByte:
  86              	.LFB65:
  60:..\src/SD_RTC_functions.c **** 
  61:..\src/SD_RTC_functions.c **** void DS1302_writeByte(uint8 data_wr) {
  87              		.loc 1 61 0
  88              		.cfi_startproc
  89              		@ args = 0, pretend = 0, frame = 8
  90              		@ frame_needed = 1, uses_anonymous_args = 0
  91 0000 80B5     		push	{r7, lr}
  92              		.cfi_def_cfa_offset 8
  93              		.cfi_offset 7, -8
  94              		.cfi_offset 14, -4
  95 0002 82B0     		sub	sp, sp, #8
  96              		.cfi_def_cfa_offset 16
  97 0004 00AF     		add	r7, sp, #0
  98              		.cfi_def_cfa_register 7
  99 0006 0346     		mov	r3, r0
 100 0008 FB71     		strb	r3, [r7, #7]
  62:..\src/SD_RTC_functions.c ****   
  63:..\src/SD_RTC_functions.c ****   shiftOut_RTC(data_wr);
 101              		.loc 1 63 0
 102 000a FB79     		ldrb	r3, [r7, #7]	@ zero_extendqisi2
 103 000c 1846     		mov	r0, r3
 104 000e FFF7FEFF 		bl	shiftOut_RTC
  64:..\src/SD_RTC_functions.c **** 
  65:..\src/SD_RTC_functions.c **** }
 105              		.loc 1 65 0
 106 0012 00BF     		nop
ARM GAS  C:\Users\Mattia\AppData\Local\Temp\ccnjK3ek.s 			page 4


 107 0014 0837     		adds	r7, r7, #8
 108              		.cfi_def_cfa_offset 8
 109 0016 BD46     		mov	sp, r7
 110              		.cfi_def_cfa_register 13
 111              		@ sp needed
 112 0018 80BD     		pop	{r7, pc}
 113              		.cfi_endproc
 114              	.LFE65:
 115              		.size	DS1302_writeByte, .-DS1302_writeByte
 116 001a 00BF     		.section	.text.DS1302_read,"ax",%progbits
 117              		.align	2
 118              		.global	DS1302_read
 119              		.thumb
 120              		.thumb_func
 121              		.type	DS1302_read, %function
 122              	DS1302_read:
 123              	.LFB66:
  66:..\src/SD_RTC_functions.c **** 
  67:..\src/SD_RTC_functions.c **** uint8 DS1302_read(uint8 address) {
 124              		.loc 1 67 0
 125              		.cfi_startproc
 126              		@ args = 0, pretend = 0, frame = 16
 127              		@ frame_needed = 1, uses_anonymous_args = 0
 128 0000 80B5     		push	{r7, lr}
 129              		.cfi_def_cfa_offset 8
 130              		.cfi_offset 7, -8
 131              		.cfi_offset 14, -4
 132 0002 84B0     		sub	sp, sp, #16
 133              		.cfi_def_cfa_offset 24
 134 0004 00AF     		add	r7, sp, #0
 135              		.cfi_def_cfa_register 7
 136 0006 0346     		mov	r3, r0
 137 0008 FB71     		strb	r3, [r7, #7]
  68:..\src/SD_RTC_functions.c **** 
  69:..\src/SD_RTC_functions.c ****   uint8 readValue;
  70:..\src/SD_RTC_functions.c ****   CLK_RTC_Write(0); 
 138              		.loc 1 70 0
 139 000a 0020     		movs	r0, #0
 140 000c FFF7FEFF 		bl	CLK_RTC_Write
  71:..\src/SD_RTC_functions.c ****   CS_RTC_Write(1);
 141              		.loc 1 71 0
 142 0010 0120     		movs	r0, #1
 143 0012 FFF7FEFF 		bl	CS_RTC_Write
  72:..\src/SD_RTC_functions.c ****   CyDelayUs(5);
 144              		.loc 1 72 0
 145 0016 0520     		movs	r0, #5
 146 0018 FFF7FEFF 		bl	CyDelayUs
  73:..\src/SD_RTC_functions.c ****   DS1302_writeByte(address);
 147              		.loc 1 73 0
 148 001c FB79     		ldrb	r3, [r7, #7]	@ zero_extendqisi2
 149 001e 1846     		mov	r0, r3
 150 0020 FFF7FEFF 		bl	DS1302_writeByte
  74:..\src/SD_RTC_functions.c ****   readValue = DS1302_readByte();
 151              		.loc 1 74 0
 152 0024 FFF7FEFF 		bl	DS1302_readByte
 153 0028 0346     		mov	r3, r0
 154 002a FB73     		strb	r3, [r7, #15]
ARM GAS  C:\Users\Mattia\AppData\Local\Temp\ccnjK3ek.s 			page 5


  75:..\src/SD_RTC_functions.c ****   CS_RTC_Write(0);
 155              		.loc 1 75 0
 156 002c 0020     		movs	r0, #0
 157 002e FFF7FEFF 		bl	CS_RTC_Write
  76:..\src/SD_RTC_functions.c ****   CyDelayUs(5);
 158              		.loc 1 76 0
 159 0032 0520     		movs	r0, #5
 160 0034 FFF7FEFF 		bl	CyDelayUs
  77:..\src/SD_RTC_functions.c ****   return readValue;
 161              		.loc 1 77 0
 162 0038 FB7B     		ldrb	r3, [r7, #15]	@ zero_extendqisi2
  78:..\src/SD_RTC_functions.c ****   
  79:..\src/SD_RTC_functions.c **** }
 163              		.loc 1 79 0
 164 003a 1846     		mov	r0, r3
 165 003c 1037     		adds	r7, r7, #16
 166              		.cfi_def_cfa_offset 8
 167 003e BD46     		mov	sp, r7
 168              		.cfi_def_cfa_register 13
 169              		@ sp needed
 170 0040 80BD     		pop	{r7, pc}
 171              		.cfi_endproc
 172              	.LFE66:
 173              		.size	DS1302_read, .-DS1302_read
 174 0042 00BF     		.section	.text.DS1302_readByte,"ax",%progbits
 175              		.align	2
 176              		.global	DS1302_readByte
 177              		.thumb
 178              		.thumb_func
 179              		.type	DS1302_readByte, %function
 180              	DS1302_readByte:
 181              	.LFB67:
  80:..\src/SD_RTC_functions.c **** 
  81:..\src/SD_RTC_functions.c **** uint8 DS1302_readByte() {
 182              		.loc 1 81 0
 183              		.cfi_startproc
 184              		@ args = 0, pretend = 0, frame = 16
 185              		@ frame_needed = 1, uses_anonymous_args = 0
 186 0000 80B5     		push	{r7, lr}
 187              		.cfi_def_cfa_offset 8
 188              		.cfi_offset 7, -8
 189              		.cfi_offset 14, -4
 190 0002 84B0     		sub	sp, sp, #16
 191              		.cfi_def_cfa_offset 24
 192 0004 00AF     		add	r7, sp, #0
 193              		.cfi_def_cfa_register 7
  82:..\src/SD_RTC_functions.c **** 
  83:..\src/SD_RTC_functions.c ****   uint8 value = 0;
 194              		.loc 1 83 0
 195 0006 0023     		movs	r3, #0
 196 0008 FB73     		strb	r3, [r7, #15]
  84:..\src/SD_RTC_functions.c ****   uint8 currentBit = 0;
 197              		.loc 1 84 0
 198 000a 0023     		movs	r3, #0
 199 000c FB71     		strb	r3, [r7, #7]
  85:..\src/SD_RTC_functions.c ****   int i=0;
 200              		.loc 1 85 0
ARM GAS  C:\Users\Mattia\AppData\Local\Temp\ccnjK3ek.s 			page 6


 201 000e 0023     		movs	r3, #0
 202 0010 BB60     		str	r3, [r7, #8]
  86:..\src/SD_RTC_functions.c ****   for (i = 0; i < 8; ++i)
 203              		.loc 1 86 0
 204 0012 0023     		movs	r3, #0
 205 0014 BB60     		str	r3, [r7, #8]
 206 0016 19E0     		b	.L6
 207              	.L7:
  87:..\src/SD_RTC_functions.c ****   {
  88:..\src/SD_RTC_functions.c ****     currentBit = MISO_RTC_Read();
 208              		.loc 1 88 0 discriminator 3
 209 0018 FFF7FEFF 		bl	MISO_RTC_Read
 210 001c 0346     		mov	r3, r0
 211 001e FB71     		strb	r3, [r7, #7]
  89:..\src/SD_RTC_functions.c ****     value |= (currentBit << i);
 212              		.loc 1 89 0 discriminator 3
 213 0020 FA79     		ldrb	r2, [r7, #7]	@ zero_extendqisi2
 214 0022 BB68     		ldr	r3, [r7, #8]
 215 0024 02FA03F3 		lsl	r3, r2, r3
 216 0028 5AB2     		sxtb	r2, r3
 217 002a 97F90F30 		ldrsb	r3, [r7, #15]
 218 002e 1343     		orrs	r3, r3, r2
 219 0030 5BB2     		sxtb	r3, r3
 220 0032 FB73     		strb	r3, [r7, #15]
  90:..\src/SD_RTC_functions.c ****     CLK_RTC_Write(1);
 221              		.loc 1 90 0 discriminator 3
 222 0034 0120     		movs	r0, #1
 223 0036 FFF7FEFF 		bl	CLK_RTC_Write
  91:..\src/SD_RTC_functions.c ****     CyDelayUs(1);
 224              		.loc 1 91 0 discriminator 3
 225 003a 0120     		movs	r0, #1
 226 003c FFF7FEFF 		bl	CyDelayUs
  92:..\src/SD_RTC_functions.c ****     CLK_RTC_Write(0);
 227              		.loc 1 92 0 discriminator 3
 228 0040 0020     		movs	r0, #0
 229 0042 FFF7FEFF 		bl	CLK_RTC_Write
  86:..\src/SD_RTC_functions.c ****   {
 230              		.loc 1 86 0 discriminator 3
 231 0046 BB68     		ldr	r3, [r7, #8]
 232 0048 0133     		adds	r3, r3, #1
 233 004a BB60     		str	r3, [r7, #8]
 234              	.L6:
  86:..\src/SD_RTC_functions.c ****   {
 235              		.loc 1 86 0 is_stmt 0 discriminator 1
 236 004c BB68     		ldr	r3, [r7, #8]
 237 004e 072B     		cmp	r3, #7
 238 0050 E2DD     		ble	.L7
  93:..\src/SD_RTC_functions.c ****   }
  94:..\src/SD_RTC_functions.c ****   return value;
 239              		.loc 1 94 0 is_stmt 1
 240 0052 FB7B     		ldrb	r3, [r7, #15]	@ zero_extendqisi2
  95:..\src/SD_RTC_functions.c **** }
 241              		.loc 1 95 0
 242 0054 1846     		mov	r0, r3
 243 0056 1037     		adds	r7, r7, #16
 244              		.cfi_def_cfa_offset 8
 245 0058 BD46     		mov	sp, r7
ARM GAS  C:\Users\Mattia\AppData\Local\Temp\ccnjK3ek.s 			page 7


 246              		.cfi_def_cfa_register 13
 247              		@ sp needed
 248 005a 80BD     		pop	{r7, pc}
 249              		.cfi_endproc
 250              	.LFE67:
 251              		.size	DS1302_readByte, .-DS1302_readByte
 252              		.section	.text.shiftOut_RTC,"ax",%progbits
 253              		.align	2
 254              		.global	shiftOut_RTC
 255              		.thumb
 256              		.thumb_func
 257              		.type	shiftOut_RTC, %function
 258              	shiftOut_RTC:
 259              	.LFB68:
  96:..\src/SD_RTC_functions.c **** 
  97:..\src/SD_RTC_functions.c **** void shiftOut_RTC(uint8 val)
  98:..\src/SD_RTC_functions.c **** {
 260              		.loc 1 98 0
 261              		.cfi_startproc
 262              		@ args = 0, pretend = 0, frame = 16
 263              		@ frame_needed = 1, uses_anonymous_args = 0
 264 0000 80B5     		push	{r7, lr}
 265              		.cfi_def_cfa_offset 8
 266              		.cfi_offset 7, -8
 267              		.cfi_offset 14, -4
 268 0002 84B0     		sub	sp, sp, #16
 269              		.cfi_def_cfa_offset 24
 270 0004 00AF     		add	r7, sp, #0
 271              		.cfi_def_cfa_register 7
 272 0006 0346     		mov	r3, r0
 273 0008 FB71     		strb	r3, [r7, #7]
  99:..\src/SD_RTC_functions.c ****     uint8 i;
 100:..\src/SD_RTC_functions.c ****     for (i = 0; i < 8; i++)  {
 274              		.loc 1 100 0
 275 000a 0023     		movs	r3, #0
 276 000c FB73     		strb	r3, [r7, #15]
 277 000e 16E0     		b	.L10
 278              	.L11:
 101:..\src/SD_RTC_functions.c ****         MOSI_RTC_Write(!!(val & (1 << i)));
 279              		.loc 1 101 0 discriminator 3
 280 0010 FA79     		ldrb	r2, [r7, #7]	@ zero_extendqisi2
 281 0012 FB7B     		ldrb	r3, [r7, #15]	@ zero_extendqisi2
 282 0014 42FA03F3 		asr	r3, r2, r3
 283 0018 03F00103 		and	r3, r3, #1
 284 001c 002B     		cmp	r3, #0
 285 001e 14BF     		ite	ne
 286 0020 0123     		movne	r3, #1
 287 0022 0023     		moveq	r3, #0
 288 0024 DBB2     		uxtb	r3, r3
 289 0026 1846     		mov	r0, r3
 290 0028 FFF7FEFF 		bl	MOSI_RTC_Write
 102:..\src/SD_RTC_functions.c ****         CLK_RTC_Write(1);
 291              		.loc 1 102 0 discriminator 3
 292 002c 0120     		movs	r0, #1
 293 002e FFF7FEFF 		bl	CLK_RTC_Write
 103:..\src/SD_RTC_functions.c ****         CLK_RTC_Write(0);
 294              		.loc 1 103 0 discriminator 3
ARM GAS  C:\Users\Mattia\AppData\Local\Temp\ccnjK3ek.s 			page 8


 295 0032 0020     		movs	r0, #0
 296 0034 FFF7FEFF 		bl	CLK_RTC_Write
 100:..\src/SD_RTC_functions.c ****         MOSI_RTC_Write(!!(val & (1 << i)));
 297              		.loc 1 100 0 discriminator 3
 298 0038 FB7B     		ldrb	r3, [r7, #15]	@ zero_extendqisi2
 299 003a 0133     		adds	r3, r3, #1
 300 003c FB73     		strb	r3, [r7, #15]
 301              	.L10:
 100:..\src/SD_RTC_functions.c ****         MOSI_RTC_Write(!!(val & (1 << i)));
 302              		.loc 1 100 0 is_stmt 0 discriminator 1
 303 003e FB7B     		ldrb	r3, [r7, #15]	@ zero_extendqisi2
 304 0040 072B     		cmp	r3, #7
 305 0042 E5D9     		bls	.L11
 104:..\src/SD_RTC_functions.c ****     }
 105:..\src/SD_RTC_functions.c **** }
 306              		.loc 1 105 0 is_stmt 1
 307 0044 00BF     		nop
 308 0046 1037     		adds	r7, r7, #16
 309              		.cfi_def_cfa_offset 8
 310 0048 BD46     		mov	sp, r7
 311              		.cfi_def_cfa_register 13
 312              		@ sp needed
 313 004a 80BD     		pop	{r7, pc}
 314              		.cfi_endproc
 315              	.LFE68:
 316              		.size	shiftOut_RTC, .-shiftOut_RTC
 317              		.section	.text.store_RTC_current_time,"ax",%progbits
 318              		.align	2
 319              		.global	store_RTC_current_time
 320              		.thumb
 321              		.thumb_func
 322              		.type	store_RTC_current_time, %function
 323              	store_RTC_current_time:
 324              	.LFB69:
 106:..\src/SD_RTC_functions.c **** 
 107:..\src/SD_RTC_functions.c **** void store_RTC_current_time(){
 325              		.loc 1 107 0
 326              		.cfi_startproc
 327              		@ args = 0, pretend = 0, frame = 8
 328              		@ frame_needed = 1, uses_anonymous_args = 0
 329 0000 80B5     		push	{r7, lr}
 330              		.cfi_def_cfa_offset 8
 331              		.cfi_offset 7, -8
 332              		.cfi_offset 14, -4
 333 0002 82B0     		sub	sp, sp, #8
 334              		.cfi_def_cfa_offset 16
 335 0004 00AF     		add	r7, sp, #0
 336              		.cfi_def_cfa_register 7
 108:..\src/SD_RTC_functions.c ****     uint8 rtc_data;
 109:..\src/SD_RTC_functions.c ****     
 110:..\src/SD_RTC_functions.c ****     // Update current time
 111:..\src/SD_RTC_functions.c ****     rtc_data = DS1302_read(DS1302_DATE_RD);
 337              		.loc 1 111 0
 338 0006 8720     		movs	r0, #135
 339 0008 FFF7FEFF 		bl	DS1302_read
 340 000c 0346     		mov	r3, r0
 341 000e FB71     		strb	r3, [r7, #7]
ARM GAS  C:\Users\Mattia\AppData\Local\Temp\ccnjK3ek.s 			page 9


 112:..\src/SD_RTC_functions.c ****     g_mem.exp.curr_time[0] = (rtc_data/16) * 10 + rtc_data%16;
 342              		.loc 1 112 0
 343 0010 FB79     		ldrb	r3, [r7, #7]	@ zero_extendqisi2
 344 0012 1B09     		lsrs	r3, r3, #4
 345 0014 DBB2     		uxtb	r3, r3
 346 0016 1A46     		mov	r2, r3
 347 0018 9200     		lsls	r2, r2, #2
 348 001a 1344     		add	r3, r3, r2
 349 001c 5B00     		lsls	r3, r3, #1
 350 001e DAB2     		uxtb	r2, r3
 351 0020 FB79     		ldrb	r3, [r7, #7]
 352 0022 03F00F03 		and	r3, r3, #15
 353 0026 DBB2     		uxtb	r3, r3
 354 0028 1344     		add	r3, r3, r2
 355 002a DAB2     		uxtb	r2, r3
 356 002c 3A4B     		ldr	r3, .L13
 357 002e 83F82022 		strb	r2, [r3, #544]
 113:..\src/SD_RTC_functions.c ****     rtc_data = DS1302_read(DS1302_MONTH_RD);
 358              		.loc 1 113 0
 359 0032 8920     		movs	r0, #137
 360 0034 FFF7FEFF 		bl	DS1302_read
 361 0038 0346     		mov	r3, r0
 362 003a FB71     		strb	r3, [r7, #7]
 114:..\src/SD_RTC_functions.c ****     g_mem.exp.curr_time[1] = (rtc_data/16) * 10 + rtc_data%16;
 363              		.loc 1 114 0
 364 003c FB79     		ldrb	r3, [r7, #7]	@ zero_extendqisi2
 365 003e 1B09     		lsrs	r3, r3, #4
 366 0040 DBB2     		uxtb	r3, r3
 367 0042 1A46     		mov	r2, r3
 368 0044 9200     		lsls	r2, r2, #2
 369 0046 1344     		add	r3, r3, r2
 370 0048 5B00     		lsls	r3, r3, #1
 371 004a DAB2     		uxtb	r2, r3
 372 004c FB79     		ldrb	r3, [r7, #7]
 373 004e 03F00F03 		and	r3, r3, #15
 374 0052 DBB2     		uxtb	r3, r3
 375 0054 1344     		add	r3, r3, r2
 376 0056 DAB2     		uxtb	r2, r3
 377 0058 2F4B     		ldr	r3, .L13
 378 005a 83F82122 		strb	r2, [r3, #545]
 115:..\src/SD_RTC_functions.c ****     rtc_data = DS1302_read(DS1302_YEAR_RD);
 379              		.loc 1 115 0
 380 005e 8D20     		movs	r0, #141
 381 0060 FFF7FEFF 		bl	DS1302_read
 382 0064 0346     		mov	r3, r0
 383 0066 FB71     		strb	r3, [r7, #7]
 116:..\src/SD_RTC_functions.c ****     g_mem.exp.curr_time[2] = (rtc_data/16) * 10 + rtc_data%16;
 384              		.loc 1 116 0
 385 0068 FB79     		ldrb	r3, [r7, #7]	@ zero_extendqisi2
 386 006a 1B09     		lsrs	r3, r3, #4
 387 006c DBB2     		uxtb	r3, r3
 388 006e 1A46     		mov	r2, r3
 389 0070 9200     		lsls	r2, r2, #2
 390 0072 1344     		add	r3, r3, r2
 391 0074 5B00     		lsls	r3, r3, #1
 392 0076 DAB2     		uxtb	r2, r3
 393 0078 FB79     		ldrb	r3, [r7, #7]
ARM GAS  C:\Users\Mattia\AppData\Local\Temp\ccnjK3ek.s 			page 10


 394 007a 03F00F03 		and	r3, r3, #15
 395 007e DBB2     		uxtb	r3, r3
 396 0080 1344     		add	r3, r3, r2
 397 0082 DAB2     		uxtb	r2, r3
 398 0084 244B     		ldr	r3, .L13
 399 0086 83F82222 		strb	r2, [r3, #546]
 117:..\src/SD_RTC_functions.c **** 
 118:..\src/SD_RTC_functions.c **** 
 119:..\src/SD_RTC_functions.c ****     rtc_data = DS1302_read(DS1302_HOUR_RD);
 400              		.loc 1 119 0
 401 008a 8520     		movs	r0, #133
 402 008c FFF7FEFF 		bl	DS1302_read
 403 0090 0346     		mov	r3, r0
 404 0092 FB71     		strb	r3, [r7, #7]
 120:..\src/SD_RTC_functions.c ****     g_mem.exp.curr_time[3] = (rtc_data/16) * 10 + rtc_data%16;
 405              		.loc 1 120 0
 406 0094 FB79     		ldrb	r3, [r7, #7]	@ zero_extendqisi2
 407 0096 1B09     		lsrs	r3, r3, #4
 408 0098 DBB2     		uxtb	r3, r3
 409 009a 1A46     		mov	r2, r3
 410 009c 9200     		lsls	r2, r2, #2
 411 009e 1344     		add	r3, r3, r2
 412 00a0 5B00     		lsls	r3, r3, #1
 413 00a2 DAB2     		uxtb	r2, r3
 414 00a4 FB79     		ldrb	r3, [r7, #7]
 415 00a6 03F00F03 		and	r3, r3, #15
 416 00aa DBB2     		uxtb	r3, r3
 417 00ac 1344     		add	r3, r3, r2
 418 00ae DAB2     		uxtb	r2, r3
 419 00b0 194B     		ldr	r3, .L13
 420 00b2 83F82322 		strb	r2, [r3, #547]
 121:..\src/SD_RTC_functions.c ****     rtc_data = DS1302_read(DS1302_MINUTES_RD);
 421              		.loc 1 121 0
 422 00b6 8320     		movs	r0, #131
 423 00b8 FFF7FEFF 		bl	DS1302_read
 424 00bc 0346     		mov	r3, r0
 425 00be FB71     		strb	r3, [r7, #7]
 122:..\src/SD_RTC_functions.c ****     g_mem.exp.curr_time[4] = (rtc_data/16) * 10 + rtc_data%16;
 426              		.loc 1 122 0
 427 00c0 FB79     		ldrb	r3, [r7, #7]	@ zero_extendqisi2
 428 00c2 1B09     		lsrs	r3, r3, #4
 429 00c4 DBB2     		uxtb	r3, r3
 430 00c6 1A46     		mov	r2, r3
 431 00c8 9200     		lsls	r2, r2, #2
 432 00ca 1344     		add	r3, r3, r2
 433 00cc 5B00     		lsls	r3, r3, #1
 434 00ce DAB2     		uxtb	r2, r3
 435 00d0 FB79     		ldrb	r3, [r7, #7]
 436 00d2 03F00F03 		and	r3, r3, #15
 437 00d6 DBB2     		uxtb	r3, r3
 438 00d8 1344     		add	r3, r3, r2
 439 00da DAB2     		uxtb	r2, r3
 440 00dc 0E4B     		ldr	r3, .L13
 441 00de 83F82422 		strb	r2, [r3, #548]
 123:..\src/SD_RTC_functions.c ****     rtc_data = DS1302_read(DS1302_SECONDS_RD);
 442              		.loc 1 123 0
 443 00e2 8120     		movs	r0, #129
ARM GAS  C:\Users\Mattia\AppData\Local\Temp\ccnjK3ek.s 			page 11


 444 00e4 FFF7FEFF 		bl	DS1302_read
 445 00e8 0346     		mov	r3, r0
 446 00ea FB71     		strb	r3, [r7, #7]
 124:..\src/SD_RTC_functions.c ****     g_mem.exp.curr_time[5] = (rtc_data/16) * 10 + rtc_data%16;
 447              		.loc 1 124 0
 448 00ec FB79     		ldrb	r3, [r7, #7]	@ zero_extendqisi2
 449 00ee 1B09     		lsrs	r3, r3, #4
 450 00f0 DBB2     		uxtb	r3, r3
 451 00f2 1A46     		mov	r2, r3
 452 00f4 9200     		lsls	r2, r2, #2
 453 00f6 1344     		add	r3, r3, r2
 454 00f8 5B00     		lsls	r3, r3, #1
 455 00fa DAB2     		uxtb	r2, r3
 456 00fc FB79     		ldrb	r3, [r7, #7]
 457 00fe 03F00F03 		and	r3, r3, #15
 458 0102 DBB2     		uxtb	r3, r3
 459 0104 1344     		add	r3, r3, r2
 460 0106 DAB2     		uxtb	r2, r3
 461 0108 034B     		ldr	r3, .L13
 462 010a 83F82522 		strb	r2, [r3, #549]
 125:..\src/SD_RTC_functions.c **** }
 463              		.loc 1 125 0
 464 010e 00BF     		nop
 465 0110 0837     		adds	r7, r7, #8
 466              		.cfi_def_cfa_offset 8
 467 0112 BD46     		mov	sp, r7
 468              		.cfi_def_cfa_register 13
 469              		@ sp needed
 470 0114 80BD     		pop	{r7, pc}
 471              	.L14:
 472 0116 00BF     		.align	2
 473              	.L13:
 474 0118 00000000 		.word	g_mem
 475              		.cfi_endproc
 476              	.LFE69:
 477              		.size	store_RTC_current_time, .-store_RTC_current_time
 478              		.section	.text.set_RTC_time,"ax",%progbits
 479              		.align	2
 480              		.global	set_RTC_time
 481              		.thumb
 482              		.thumb_func
 483              		.type	set_RTC_time, %function
 484              	set_RTC_time:
 485              	.LFB70:
 126:..\src/SD_RTC_functions.c **** 
 127:..\src/SD_RTC_functions.c **** void set_RTC_time(){
 486              		.loc 1 127 0
 487              		.cfi_startproc
 488              		@ args = 0, pretend = 0, frame = 0
 489              		@ frame_needed = 1, uses_anonymous_args = 0
 490 0000 80B5     		push	{r7, lr}
 491              		.cfi_def_cfa_offset 8
 492              		.cfi_offset 7, -8
 493              		.cfi_offset 14, -4
 494 0002 00AF     		add	r7, sp, #0
 495              		.cfi_def_cfa_register 7
 128:..\src/SD_RTC_functions.c ****     DS1302_write(DS1302_DATE_WR, (((g_mem.exp.curr_time[0] / 10)*16) + (g_mem.exp.curr_time[0] % 10
ARM GAS  C:\Users\Mattia\AppData\Local\Temp\ccnjK3ek.s 			page 12


 496              		.loc 1 128 0
 497 0004 574B     		ldr	r3, .L16
 498 0006 93F82032 		ldrb	r3, [r3, #544]	@ zero_extendqisi2
 499 000a 574A     		ldr	r2, .L16+4
 500 000c A2FB0323 		umull	r2, r3, r2, r3
 501 0010 DB08     		lsrs	r3, r3, #3
 502 0012 DBB2     		uxtb	r3, r3
 503 0014 1B01     		lsls	r3, r3, #4
 504 0016 D8B2     		uxtb	r0, r3
 505 0018 524B     		ldr	r3, .L16
 506 001a 93F82022 		ldrb	r2, [r3, #544]	@ zero_extendqisi2
 507 001e 524B     		ldr	r3, .L16+4
 508 0020 A3FB0213 		umull	r1, r3, r3, r2
 509 0024 D908     		lsrs	r1, r3, #3
 510 0026 0B46     		mov	r3, r1
 511 0028 9B00     		lsls	r3, r3, #2
 512 002a 0B44     		add	r3, r3, r1
 513 002c 5B00     		lsls	r3, r3, #1
 514 002e D31A     		subs	r3, r2, r3
 515 0030 DBB2     		uxtb	r3, r3
 516 0032 0344     		add	r3, r3, r0
 517 0034 DBB2     		uxtb	r3, r3
 518 0036 1946     		mov	r1, r3
 519 0038 8620     		movs	r0, #134
 520 003a FFF7FEFF 		bl	DS1302_write
 129:..\src/SD_RTC_functions.c ****     DS1302_write(DS1302_MONTH_WR, (((g_mem.exp.curr_time[1] / 10)*16) + (g_mem.exp.curr_time[1] % 1
 521              		.loc 1 129 0
 522 003e 494B     		ldr	r3, .L16
 523 0040 93F82132 		ldrb	r3, [r3, #545]	@ zero_extendqisi2
 524 0044 484A     		ldr	r2, .L16+4
 525 0046 A2FB0323 		umull	r2, r3, r2, r3
 526 004a DB08     		lsrs	r3, r3, #3
 527 004c DBB2     		uxtb	r3, r3
 528 004e 1B01     		lsls	r3, r3, #4
 529 0050 D8B2     		uxtb	r0, r3
 530 0052 444B     		ldr	r3, .L16
 531 0054 93F82122 		ldrb	r2, [r3, #545]	@ zero_extendqisi2
 532 0058 434B     		ldr	r3, .L16+4
 533 005a A3FB0213 		umull	r1, r3, r3, r2
 534 005e D908     		lsrs	r1, r3, #3
 535 0060 0B46     		mov	r3, r1
 536 0062 9B00     		lsls	r3, r3, #2
 537 0064 0B44     		add	r3, r3, r1
 538 0066 5B00     		lsls	r3, r3, #1
 539 0068 D31A     		subs	r3, r2, r3
 540 006a DBB2     		uxtb	r3, r3
 541 006c 0344     		add	r3, r3, r0
 542 006e DBB2     		uxtb	r3, r3
 543 0070 1946     		mov	r1, r3
 544 0072 8820     		movs	r0, #136
 545 0074 FFF7FEFF 		bl	DS1302_write
 130:..\src/SD_RTC_functions.c ****     DS1302_write(DS1302_YEAR_WR, (((g_mem.exp.curr_time[2] / 10)*16) + (g_mem.exp.curr_time[2] % 10
 546              		.loc 1 130 0
 547 0078 3A4B     		ldr	r3, .L16
 548 007a 93F82232 		ldrb	r3, [r3, #546]	@ zero_extendqisi2
 549 007e 3A4A     		ldr	r2, .L16+4
 550 0080 A2FB0323 		umull	r2, r3, r2, r3
ARM GAS  C:\Users\Mattia\AppData\Local\Temp\ccnjK3ek.s 			page 13


 551 0084 DB08     		lsrs	r3, r3, #3
 552 0086 DBB2     		uxtb	r3, r3
 553 0088 1B01     		lsls	r3, r3, #4
 554 008a D8B2     		uxtb	r0, r3
 555 008c 354B     		ldr	r3, .L16
 556 008e 93F82222 		ldrb	r2, [r3, #546]	@ zero_extendqisi2
 557 0092 354B     		ldr	r3, .L16+4
 558 0094 A3FB0213 		umull	r1, r3, r3, r2
 559 0098 D908     		lsrs	r1, r3, #3
 560 009a 0B46     		mov	r3, r1
 561 009c 9B00     		lsls	r3, r3, #2
 562 009e 0B44     		add	r3, r3, r1
 563 00a0 5B00     		lsls	r3, r3, #1
 564 00a2 D31A     		subs	r3, r2, r3
 565 00a4 DBB2     		uxtb	r3, r3
 566 00a6 0344     		add	r3, r3, r0
 567 00a8 DBB2     		uxtb	r3, r3
 568 00aa 1946     		mov	r1, r3
 569 00ac 8C20     		movs	r0, #140
 570 00ae FFF7FEFF 		bl	DS1302_write
 131:..\src/SD_RTC_functions.c ****     DS1302_write(DS1302_HOUR_WR, (((g_mem.exp.curr_time[3] / 10)*16) + (g_mem.exp.curr_time[3] % 10
 571              		.loc 1 131 0
 572 00b2 2C4B     		ldr	r3, .L16
 573 00b4 93F82332 		ldrb	r3, [r3, #547]	@ zero_extendqisi2
 574 00b8 2B4A     		ldr	r2, .L16+4
 575 00ba A2FB0323 		umull	r2, r3, r2, r3
 576 00be DB08     		lsrs	r3, r3, #3
 577 00c0 DBB2     		uxtb	r3, r3
 578 00c2 1B01     		lsls	r3, r3, #4
 579 00c4 D8B2     		uxtb	r0, r3
 580 00c6 274B     		ldr	r3, .L16
 581 00c8 93F82322 		ldrb	r2, [r3, #547]	@ zero_extendqisi2
 582 00cc 264B     		ldr	r3, .L16+4
 583 00ce A3FB0213 		umull	r1, r3, r3, r2
 584 00d2 D908     		lsrs	r1, r3, #3
 585 00d4 0B46     		mov	r3, r1
 586 00d6 9B00     		lsls	r3, r3, #2
 587 00d8 0B44     		add	r3, r3, r1
 588 00da 5B00     		lsls	r3, r3, #1
 589 00dc D31A     		subs	r3, r2, r3
 590 00de DBB2     		uxtb	r3, r3
 591 00e0 0344     		add	r3, r3, r0
 592 00e2 DBB2     		uxtb	r3, r3
 593 00e4 1946     		mov	r1, r3
 594 00e6 8420     		movs	r0, #132
 595 00e8 FFF7FEFF 		bl	DS1302_write
 132:..\src/SD_RTC_functions.c ****     DS1302_write(DS1302_MINUTES_WR, (((g_mem.exp.curr_time[4] / 10)*16) + (g_mem.exp.curr_time[4] %
 596              		.loc 1 132 0
 597 00ec 1D4B     		ldr	r3, .L16
 598 00ee 93F82432 		ldrb	r3, [r3, #548]	@ zero_extendqisi2
 599 00f2 1D4A     		ldr	r2, .L16+4
 600 00f4 A2FB0323 		umull	r2, r3, r2, r3
 601 00f8 DB08     		lsrs	r3, r3, #3
 602 00fa DBB2     		uxtb	r3, r3
 603 00fc 1B01     		lsls	r3, r3, #4
 604 00fe D8B2     		uxtb	r0, r3
 605 0100 184B     		ldr	r3, .L16
ARM GAS  C:\Users\Mattia\AppData\Local\Temp\ccnjK3ek.s 			page 14


 606 0102 93F82422 		ldrb	r2, [r3, #548]	@ zero_extendqisi2
 607 0106 184B     		ldr	r3, .L16+4
 608 0108 A3FB0213 		umull	r1, r3, r3, r2
 609 010c D908     		lsrs	r1, r3, #3
 610 010e 0B46     		mov	r3, r1
 611 0110 9B00     		lsls	r3, r3, #2
 612 0112 0B44     		add	r3, r3, r1
 613 0114 5B00     		lsls	r3, r3, #1
 614 0116 D31A     		subs	r3, r2, r3
 615 0118 DBB2     		uxtb	r3, r3
 616 011a 0344     		add	r3, r3, r0
 617 011c DBB2     		uxtb	r3, r3
 618 011e 1946     		mov	r1, r3
 619 0120 8220     		movs	r0, #130
 620 0122 FFF7FEFF 		bl	DS1302_write
 133:..\src/SD_RTC_functions.c ****     DS1302_write(DS1302_SECONDS_WR, (((g_mem.exp.curr_time[5] / 10)*16) + (g_mem.exp.curr_time[5] %
 621              		.loc 1 133 0
 622 0126 0F4B     		ldr	r3, .L16
 623 0128 93F82532 		ldrb	r3, [r3, #549]	@ zero_extendqisi2
 624 012c 0E4A     		ldr	r2, .L16+4
 625 012e A2FB0323 		umull	r2, r3, r2, r3
 626 0132 DB08     		lsrs	r3, r3, #3
 627 0134 DBB2     		uxtb	r3, r3
 628 0136 1B01     		lsls	r3, r3, #4
 629 0138 D8B2     		uxtb	r0, r3
 630 013a 0A4B     		ldr	r3, .L16
 631 013c 93F82522 		ldrb	r2, [r3, #549]	@ zero_extendqisi2
 632 0140 094B     		ldr	r3, .L16+4
 633 0142 A3FB0213 		umull	r1, r3, r3, r2
 634 0146 D908     		lsrs	r1, r3, #3
 635 0148 0B46     		mov	r3, r1
 636 014a 9B00     		lsls	r3, r3, #2
 637 014c 0B44     		add	r3, r3, r1
 638 014e 5B00     		lsls	r3, r3, #1
 639 0150 D31A     		subs	r3, r2, r3
 640 0152 DBB2     		uxtb	r3, r3
 641 0154 0344     		add	r3, r3, r0
 642 0156 DBB2     		uxtb	r3, r3
 643 0158 1946     		mov	r1, r3
 644 015a 8020     		movs	r0, #128
 645 015c FFF7FEFF 		bl	DS1302_write
 134:..\src/SD_RTC_functions.c **** }
 646              		.loc 1 134 0
 647 0160 00BF     		nop
 648 0162 80BD     		pop	{r7, pc}
 649              	.L17:
 650              		.align	2
 651              	.L16:
 652 0164 00000000 		.word	g_mem
 653 0168 CDCCCCCC 		.word	-858993459
 654              		.cfi_endproc
 655              	.LFE70:
 656              		.size	set_RTC_time, .-set_RTC_time
 657              		.section	.rodata
 658              		.align	2
 659              	.LC2:
 660 0000 5C257300 		.ascii	"\\%s\000"
ARM GAS  C:\Users\Mattia\AppData\Local\Temp\ccnjK3ek.s 			page 15


 661              		.align	2
 662              	.LC3:
 663 0004 25735C32 		.ascii	"%s\\20%02d\000"
 663      30253032 
 663      6400
 664 000e 0000     		.align	2
 665              	.LC4:
 666 0010 25735C25 		.ascii	"%s\\%02d\000"
 666      30326400 
 667              		.align	2
 668              	.LC5:
 669 0018 25735C25 		.ascii	"%s\\%s_%d.csv\000"
 669      735F2564 
 669      2E637376 
 669      00
 670 0025 000000   		.align	2
 671              	.LC6:
 672 0028 7200     		.ascii	"r\000"
 673 002a 0000     		.align	2
 674              	.LC7:
 675 002c 6100     		.ascii	"a\000"
 676 002e 0000     		.align	2
 677              	.LC8:
 678 0030 7700     		.ascii	"w\000"
 679 0032 0000     		.align	2
 680              	.LC0:
 681 0034 55736553 		.ascii	"UseStats\000"
 681      74617473 
 681      00
 682 003d 00       		.space	1
 683 003e 0000     		.align	2
 684              	.LC1:
 685 0040 50617261 		.ascii	"Param\000"
 685      6D00
 686 0046 00       		.space	1
 687              		.section	.text.InitSD_FS,"ax",%progbits
 688              		.align	2
 689              		.global	InitSD_FS
 690              		.thumb
 691              		.thumb_func
 692              		.type	InitSD_FS, %function
 693              	InitSD_FS:
 694              	.LFB71:
 135:..\src/SD_RTC_functions.c **** 
 136:..\src/SD_RTC_functions.c **** /*******************************************************************************
 137:..\src/SD_RTC_functions.c **** * Function Name: Init SD Filesystem
 138:..\src/SD_RTC_functions.c **** *********************************************************************************/
 139:..\src/SD_RTC_functions.c **** void InitSD_FS()
 140:..\src/SD_RTC_functions.c **** {
 695              		.loc 1 140 0
 696              		.cfi_startproc
 697              		@ args = 0, pretend = 0, frame = 5248
 698              		@ frame_needed = 1, uses_anonymous_args = 0
 699 0000 90B5     		push	{r4, r7, lr}
 700              		.cfi_def_cfa_offset 12
 701              		.cfi_offset 4, -12
 702              		.cfi_offset 7, -8
ARM GAS  C:\Users\Mattia\AppData\Local\Temp\ccnjK3ek.s 			page 16


 703              		.cfi_offset 14, -4
 704 0002 ADF5A45D 		sub	sp, sp, #5248
 705              		.cfi_def_cfa_offset 5260
 706 0006 83B0     		sub	sp, sp, #12
 707              		.cfi_def_cfa_offset 5272
 708 0008 02AF     		add	r7, sp, #8
 709              		.cfi_def_cfa 7, 5264
 141:..\src/SD_RTC_functions.c ****     //char sdFile[12] = "";              // No long file name (LFN) support enabled. Max 12 chars f
 142:..\src/SD_RTC_functions.c **** 
 143:..\src/SD_RTC_functions.c ****     char sdDir[100] = "";
 710              		.loc 1 143 0
 711 000a 0023     		movs	r3, #0
 712 000c 07F5A052 		add	r2, r7, #5120
 713 0010 02F10402 		add	r2, r2, #4
 714 0014 1360     		str	r3, [r2]
 715 0016 07F5A053 		add	r3, r7, #5120
 716 001a 03F10803 		add	r3, r3, #8
 717 001e 6022     		movs	r2, #96
 718 0020 0021     		movs	r1, #0
 719 0022 1846     		mov	r0, r3
 720 0024 FFF7FEFF 		bl	memset
 144:..\src/SD_RTC_functions.c ****     char lastsdParam[100] = "";
 721              		.loc 1 144 0
 722 0028 0023     		movs	r3, #0
 723 002a 07F59D52 		add	r2, r7, #5024
 724 002e 1360     		str	r3, [r2]
 725 0030 07F59D53 		add	r3, r7, #5024
 726 0034 03F10403 		add	r3, r3, #4
 727 0038 6022     		movs	r2, #96
 728 003a 0021     		movs	r1, #0
 729 003c 1846     		mov	r0, r3
 730 003e FFF7FEFF 		bl	memset
 145:..\src/SD_RTC_functions.c ****     char info_[2500] = "";
 731              		.loc 1 145 0
 732 0042 07F6DC13 		addw	r3, r7, #2524
 733 0046 0022     		movs	r2, #0
 734 0048 1A60     		str	r2, [r3]
 735 004a 0433     		adds	r3, r3, #4
 736 004c 4FF41C62 		mov	r2, #2496
 737 0050 0021     		movs	r1, #0
 738 0052 1846     		mov	r0, r3
 739 0054 FFF7FEFF 		bl	memset
 146:..\src/SD_RTC_functions.c ****     char info_read_[2500] = "";
 740              		.loc 1 146 0
 741 0058 07F12003 		add	r3, r7, #32
 742 005c 083B     		subs	r3, r3, #8
 743 005e 0022     		movs	r2, #0
 744 0060 1A60     		str	r2, [r3]
 745 0062 0433     		adds	r3, r3, #4
 746 0064 4FF41C62 		mov	r2, #2496
 747 0068 0021     		movs	r1, #0
 748 006a 1846     		mov	r0, r3
 749 006c FFF7FEFF 		bl	memset
 147:..\src/SD_RTC_functions.c ****     char Data_filename[10] = "UseStats";
 750              		.loc 1 147 0
 751 0070 07F12004 		add	r4, r7, #32
 752 0074 143C     		subs	r4, r4, #20
ARM GAS  C:\Users\Mattia\AppData\Local\Temp\ccnjK3ek.s 			page 17


 753 0076 AE4A     		ldr	r2, .L26
 754 0078 2346     		mov	r3, r4
 755 007a 07CA     		ldmia	r2, {r0, r1, r2}
 756 007c 03C3     		stmia	r3!, {r0, r1}
 757 007e 1A70     		strb	r2, [r3]
 758 0080 0023     		movs	r3, #0
 759 0082 6372     		strb	r3, [r4, #9]
 148:..\src/SD_RTC_functions.c ****     char Param_filename[7] = "Param";
 760              		.loc 1 148 0
 761 0084 07F12003 		add	r3, r7, #32
 762 0088 1C3B     		subs	r3, r3, #28
 763 008a AA49     		ldr	r1, .L26+4
 764 008c 1A46     		mov	r2, r3
 765 008e 03C9     		ldmia	r1, {r0, r1}
 766 0090 1060     		str	r0, [r2]
 767 0092 0432     		adds	r2, r2, #4
 768 0094 1180     		strh	r1, [r2]	@ movhi
 769 0096 0022     		movs	r2, #0
 770 0098 9A71     		strb	r2, [r3, #6]
 149:..\src/SD_RTC_functions.c ****     uint8 Write_new_info = TRUE;
 771              		.loc 1 149 0
 772 009a 0123     		movs	r3, #1
 773 009c 07F5A352 		add	r2, r7, #5216
 774 00a0 02F11F02 		add	r2, r2, #31
 775 00a4 1370     		strb	r3, [r2]
 150:..\src/SD_RTC_functions.c ****     uint8 num_files = 0;
 776              		.loc 1 150 0
 777 00a6 0023     		movs	r3, #0
 778 00a8 07F5A352 		add	r2, r7, #5216
 779 00ac 02F11E02 		add	r2, r2, #30
 780 00b0 1370     		strb	r3, [r2]
 151:..\src/SD_RTC_functions.c ****     FS_FILE* pParam;
 152:..\src/SD_RTC_functions.c ****     FS_FILE* pFile_read;
 153:..\src/SD_RTC_functions.c ****     FS_DIR *pDir;
 154:..\src/SD_RTC_functions.c ****     uint32 i = 0;
 781              		.loc 1 154 0
 782 00b2 0023     		movs	r3, #0
 783 00b4 07F5A352 		add	r2, r7, #5216
 784 00b8 02F11802 		add	r2, r2, #24
 785 00bc 1360     		str	r3, [r2]
 155:..\src/SD_RTC_functions.c ****     
 156:..\src/SD_RTC_functions.c ****     FS_Init();
 786              		.loc 1 156 0
 787 00be FFF7FEFF 		bl	FS_Init
 157:..\src/SD_RTC_functions.c ****     FS_FAT_SupportLFN();
 788              		.loc 1 157 0
 789 00c2 FFF7FEFF 		bl	FS_FAT_SupportLFN
 158:..\src/SD_RTC_functions.c ****         
 159:..\src/SD_RTC_functions.c ****     // Create Filesystem with USER\YYYY\MM\DD folder
 160:..\src/SD_RTC_functions.c ****     sprintf(sdDir, "\\%s", g_mem.user[g_mem.dev.user_id].user_code_string); 
 790              		.loc 1 160 0
 791 00c6 9C4B     		ldr	r3, .L26+8
 792 00c8 93F8AB30 		ldrb	r3, [r3, #171]	@ zero_extendqisi2
 793 00cc 1233     		adds	r3, r3, #18
 794 00ce 5B01     		lsls	r3, r3, #5
 795 00d0 994A     		ldr	r2, .L26+8
 796 00d2 1A44     		add	r2, r2, r3
ARM GAS  C:\Users\Mattia\AppData\Local\Temp\ccnjK3ek.s 			page 18


 797 00d4 07F5A053 		add	r3, r7, #5120
 798 00d8 03F10403 		add	r3, r3, #4
 799 00dc 9749     		ldr	r1, .L26+12
 800 00de 1846     		mov	r0, r3
 801 00e0 FFF7FEFF 		bl	sprintf
 161:..\src/SD_RTC_functions.c ****     FS_MkDir(sdDir);
 802              		.loc 1 161 0
 803 00e4 07F5A053 		add	r3, r7, #5120
 804 00e8 03F10403 		add	r3, r3, #4
 805 00ec 1846     		mov	r0, r3
 806 00ee FFF7FEFF 		bl	FS_MkDir
 162:..\src/SD_RTC_functions.c ****     sprintf(sdDir, "%s\\20%02d", sdDir, g_mem.exp.curr_time[2]); 
 807              		.loc 1 162 0
 808 00f2 914B     		ldr	r3, .L26+8
 809 00f4 93F82232 		ldrb	r3, [r3, #546]	@ zero_extendqisi2
 810 00f8 07F5A052 		add	r2, r7, #5120
 811 00fc 02F10402 		add	r2, r2, #4
 812 0100 07F5A050 		add	r0, r7, #5120
 813 0104 00F10400 		add	r0, r0, #4
 814 0108 8D49     		ldr	r1, .L26+16
 815 010a FFF7FEFF 		bl	sprintf
 163:..\src/SD_RTC_functions.c ****     FS_MkDir(sdDir);
 816              		.loc 1 163 0
 817 010e 07F5A053 		add	r3, r7, #5120
 818 0112 03F10403 		add	r3, r3, #4
 819 0116 1846     		mov	r0, r3
 820 0118 FFF7FEFF 		bl	FS_MkDir
 164:..\src/SD_RTC_functions.c ****     sprintf(sdDir, "%s\\%02d", sdDir, g_mem.exp.curr_time[1]);
 821              		.loc 1 164 0
 822 011c 864B     		ldr	r3, .L26+8
 823 011e 93F82132 		ldrb	r3, [r3, #545]	@ zero_extendqisi2
 824 0122 07F5A052 		add	r2, r7, #5120
 825 0126 02F10402 		add	r2, r2, #4
 826 012a 07F5A050 		add	r0, r7, #5120
 827 012e 00F10400 		add	r0, r0, #4
 828 0132 8449     		ldr	r1, .L26+20
 829 0134 FFF7FEFF 		bl	sprintf
 165:..\src/SD_RTC_functions.c ****     FS_MkDir(sdDir);
 830              		.loc 1 165 0
 831 0138 07F5A053 		add	r3, r7, #5120
 832 013c 03F10403 		add	r3, r3, #4
 833 0140 1846     		mov	r0, r3
 834 0142 FFF7FEFF 		bl	FS_MkDir
 166:..\src/SD_RTC_functions.c ****     sprintf(sdDir, "%s\\%02d", sdDir, g_mem.exp.curr_time[0]);
 835              		.loc 1 166 0
 836 0146 7C4B     		ldr	r3, .L26+8
 837 0148 93F82032 		ldrb	r3, [r3, #544]	@ zero_extendqisi2
 838 014c 07F5A052 		add	r2, r7, #5120
 839 0150 02F10402 		add	r2, r2, #4
 840 0154 07F5A050 		add	r0, r7, #5120
 841 0158 00F10400 		add	r0, r0, #4
 842 015c 7949     		ldr	r1, .L26+20
 843 015e FFF7FEFF 		bl	sprintf
 167:..\src/SD_RTC_functions.c ****     FS_MkDir(sdDir);
 844              		.loc 1 167 0
 845 0162 07F5A053 		add	r3, r7, #5120
 846 0166 03F10403 		add	r3, r3, #4
ARM GAS  C:\Users\Mattia\AppData\Local\Temp\ccnjK3ek.s 			page 19


 847 016a 1846     		mov	r0, r3
 848 016c FFF7FEFF 		bl	FS_MkDir
 168:..\src/SD_RTC_functions.c ****     
 169:..\src/SD_RTC_functions.c ****     // Create param info
 170:..\src/SD_RTC_functions.c ****     prepare_SD_param_info(info_);
 849              		.loc 1 170 0
 850 0170 07F6DC13 		addw	r3, r7, #2524
 851 0174 1846     		mov	r0, r3
 852 0176 FFF7FEFF 		bl	prepare_SD_param_info
 171:..\src/SD_RTC_functions.c ****             
 172:..\src/SD_RTC_functions.c ****     // Open folder and count the number of files, it should be even (1 param and 1 data file)
 173:..\src/SD_RTC_functions.c ****     pDir = FS_OpenDir(sdDir);
 853              		.loc 1 173 0
 854 017a 07F5A053 		add	r3, r7, #5120
 855 017e 03F10403 		add	r3, r3, #4
 856 0182 1846     		mov	r0, r3
 857 0184 FFF7FEFF 		bl	FS_OpenDir
 858 0188 07F5A353 		add	r3, r7, #5216
 859 018c 03F11403 		add	r3, r3, #20
 860 0190 1860     		str	r0, [r3]
 174:..\src/SD_RTC_functions.c ****     num_files = FS_GetNumFiles(pDir);    
 861              		.loc 1 174 0
 862 0192 07F5A353 		add	r3, r7, #5216
 863 0196 03F11403 		add	r3, r3, #20
 864 019a 1868     		ldr	r0, [r3]
 865 019c FFF7FEFF 		bl	FS_GetNumFiles
 866 01a0 0346     		mov	r3, r0
 867 01a2 07F5A352 		add	r2, r7, #5216
 868 01a6 02F11E02 		add	r2, r2, #30
 869 01aa 1370     		strb	r3, [r2]
 175:..\src/SD_RTC_functions.c **** 
 176:..\src/SD_RTC_functions.c ****     // Prepare filenames
 177:..\src/SD_RTC_functions.c **** 
 178:..\src/SD_RTC_functions.c ****     if (num_files != 0) {
 870              		.loc 1 178 0
 871 01ac 07F5A353 		add	r3, r7, #5216
 872 01b0 03F11E03 		add	r3, r3, #30
 873 01b4 1B78     		ldrb	r3, [r3]	@ zero_extendqisi2
 874 01b6 002B     		cmp	r3, #0
 875 01b8 00F0CE80 		beq	.L19
 179:..\src/SD_RTC_functions.c ****         // The directory is not empty
 180:..\src/SD_RTC_functions.c ****          
 181:..\src/SD_RTC_functions.c ****         // Decide whether to create new param and data files or not
 182:..\src/SD_RTC_functions.c ****         sprintf(lastsdParam, "%s\\%s_%d.csv", sdDir, Param_filename, (num_files/2) - 1);
 876              		.loc 1 182 0
 877 01bc 07F5A353 		add	r3, r7, #5216
 878 01c0 03F11E03 		add	r3, r3, #30
 879 01c4 1B78     		ldrb	r3, [r3]	@ zero_extendqisi2
 880 01c6 5B08     		lsrs	r3, r3, #1
 881 01c8 DBB2     		uxtb	r3, r3
 882 01ca 5A1E     		subs	r2, r3, #1
 883 01cc 07F12003 		add	r3, r7, #32
 884 01d0 1C3B     		subs	r3, r3, #28
 885 01d2 07F5A051 		add	r1, r7, #5120
 886 01d6 01F10401 		add	r1, r1, #4
 887 01da 07F59D50 		add	r0, r7, #5024
 888 01de 0092     		str	r2, [sp]
ARM GAS  C:\Users\Mattia\AppData\Local\Temp\ccnjK3ek.s 			page 20


 889 01e0 0A46     		mov	r2, r1
 890 01e2 5949     		ldr	r1, .L26+24
 891 01e4 FFF7FEFF 		bl	sprintf
 183:..\src/SD_RTC_functions.c **** 
 184:..\src/SD_RTC_functions.c ****         pFile_read = FS_FOpen(lastsdParam, "r"); 
 892              		.loc 1 184 0
 893 01e8 07F59D53 		add	r3, r7, #5024
 894 01ec 5749     		ldr	r1, .L26+28
 895 01ee 1846     		mov	r0, r3
 896 01f0 FFF7FEFF 		bl	FS_FOpen
 897 01f4 07F5A353 		add	r3, r7, #5216
 898 01f8 03F11003 		add	r3, r3, #16
 899 01fc 1860     		str	r0, [r3]
 185:..\src/SD_RTC_functions.c ****         if (pFile_read != 0) {
 900              		.loc 1 185 0
 901 01fe 07F5A353 		add	r3, r7, #5216
 902 0202 03F11003 		add	r3, r3, #16
 903 0206 1B68     		ldr	r3, [r3]
 904 0208 002B     		cmp	r3, #0
 905 020a 00F08880 		beq	.L20
 186:..\src/SD_RTC_functions.c ****             i = FS_FRead(info_read_, 1, sizeof(info_read_) - 1, pFile_read);
 906              		.loc 1 186 0
 907 020e 07F12000 		add	r0, r7, #32
 908 0212 0838     		subs	r0, r0, #8
 909 0214 07F5A353 		add	r3, r7, #5216
 910 0218 03F11003 		add	r3, r3, #16
 911 021c 1B68     		ldr	r3, [r3]
 912 021e 40F6C312 		movw	r2, #2499
 913 0222 0121     		movs	r1, #1
 914 0224 FFF7FEFF 		bl	FS_FRead
 915 0228 07F5A353 		add	r3, r7, #5216
 916 022c 03F11803 		add	r3, r3, #24
 917 0230 1860     		str	r0, [r3]
 187:..\src/SD_RTC_functions.c ****             info_read_[i] = 0;
 918              		.loc 1 187 0
 919 0232 07F12003 		add	r3, r7, #32
 920 0236 083B     		subs	r3, r3, #8
 921 0238 07F5A352 		add	r2, r7, #5216
 922 023c 02F11802 		add	r2, r2, #24
 923 0240 1268     		ldr	r2, [r2]
 924 0242 1344     		add	r3, r3, r2
 925 0244 0022     		movs	r2, #0
 926 0246 1A70     		strb	r2, [r3]
 188:..\src/SD_RTC_functions.c ****             if (strcmp(info_, info_read_)) {    // if different
 927              		.loc 1 188 0
 928 0248 07F12003 		add	r3, r7, #32
 929 024c 083B     		subs	r3, r3, #8
 930 024e 07F6DC12 		addw	r2, r7, #2524
 931 0252 1946     		mov	r1, r3
 932 0254 1046     		mov	r0, r2
 933 0256 FFF7FEFF 		bl	strcmp
 934 025a 0346     		mov	r3, r0
 935 025c 002B     		cmp	r3, #0
 936 025e 2ED0     		beq	.L21
 189:..\src/SD_RTC_functions.c ****                 Write_new_info = TRUE;
 937              		.loc 1 189 0
 938 0260 0123     		movs	r3, #1
ARM GAS  C:\Users\Mattia\AppData\Local\Temp\ccnjK3ek.s 			page 21


 939 0262 07F5A352 		add	r2, r7, #5216
 940 0266 02F11F02 		add	r2, r2, #31
 941 026a 1370     		strb	r3, [r2]
 190:..\src/SD_RTC_functions.c ****                 sprintf(sdParam, "%s\\%s_%d.csv", sdDir, Param_filename, num_files/2);  // new para
 942              		.loc 1 190 0
 943 026c 07F5A353 		add	r3, r7, #5216
 944 0270 03F11E03 		add	r3, r3, #30
 945 0274 1B78     		ldrb	r3, [r3]	@ zero_extendqisi2
 946 0276 5B08     		lsrs	r3, r3, #1
 947 0278 DBB2     		uxtb	r3, r3
 948 027a 1946     		mov	r1, r3
 949 027c 07F12003 		add	r3, r7, #32
 950 0280 1C3B     		subs	r3, r3, #28
 951 0282 07F5A052 		add	r2, r7, #5120
 952 0286 02F10402 		add	r2, r2, #4
 953 028a 0091     		str	r1, [sp]
 954 028c 2E49     		ldr	r1, .L26+24
 955 028e 3048     		ldr	r0, .L26+32
 956 0290 FFF7FEFF 		bl	sprintf
 191:..\src/SD_RTC_functions.c ****                 sprintf(sdFile, "%s\\%s_%d.csv", sdDir, Data_filename, num_files/2);    // new data
 957              		.loc 1 191 0
 958 0294 07F5A353 		add	r3, r7, #5216
 959 0298 03F11E03 		add	r3, r3, #30
 960 029c 1B78     		ldrb	r3, [r3]	@ zero_extendqisi2
 961 029e 5B08     		lsrs	r3, r3, #1
 962 02a0 DBB2     		uxtb	r3, r3
 963 02a2 1946     		mov	r1, r3
 964 02a4 07F12003 		add	r3, r7, #32
 965 02a8 143B     		subs	r3, r3, #20
 966 02aa 07F5A052 		add	r2, r7, #5120
 967 02ae 02F10402 		add	r2, r2, #4
 968 02b2 0091     		str	r1, [sp]
 969 02b4 2449     		ldr	r1, .L26+24
 970 02b6 2748     		ldr	r0, .L26+36
 971 02b8 FFF7FEFF 		bl	sprintf
 972 02bc 2FE0     		b	.L20
 973              	.L21:
 192:..\src/SD_RTC_functions.c ****             }
 193:..\src/SD_RTC_functions.c ****             else {
 194:..\src/SD_RTC_functions.c ****                 sprintf(sdParam, "%s\\%s_%d.csv", sdDir, Param_filename, (num_files/2)-1);  // last
 974              		.loc 1 194 0
 975 02be 07F5A353 		add	r3, r7, #5216
 976 02c2 03F11E03 		add	r3, r3, #30
 977 02c6 1B78     		ldrb	r3, [r3]	@ zero_extendqisi2
 978 02c8 5B08     		lsrs	r3, r3, #1
 979 02ca DBB2     		uxtb	r3, r3
 980 02cc 5A1E     		subs	r2, r3, #1
 981 02ce 07F12003 		add	r3, r7, #32
 982 02d2 1C3B     		subs	r3, r3, #28
 983 02d4 07F5A051 		add	r1, r7, #5120
 984 02d8 01F10401 		add	r1, r1, #4
 985 02dc 0092     		str	r2, [sp]
 986 02de 0A46     		mov	r2, r1
 987 02e0 1949     		ldr	r1, .L26+24
 988 02e2 1B48     		ldr	r0, .L26+32
 989 02e4 FFF7FEFF 		bl	sprintf
 195:..\src/SD_RTC_functions.c ****                 sprintf(sdFile, "%s\\%s_%d.csv", sdDir, Data_filename, (num_files/2)-1);    // last
ARM GAS  C:\Users\Mattia\AppData\Local\Temp\ccnjK3ek.s 			page 22


 990              		.loc 1 195 0
 991 02e8 07F5A353 		add	r3, r7, #5216
 992 02ec 03F11E03 		add	r3, r3, #30
 993 02f0 1B78     		ldrb	r3, [r3]	@ zero_extendqisi2
 994 02f2 5B08     		lsrs	r3, r3, #1
 995 02f4 DBB2     		uxtb	r3, r3
 996 02f6 5A1E     		subs	r2, r3, #1
 997 02f8 07F12003 		add	r3, r7, #32
 998 02fc 143B     		subs	r3, r3, #20
 999 02fe 07F5A051 		add	r1, r7, #5120
 1000 0302 01F10401 		add	r1, r1, #4
 1001 0306 0092     		str	r2, [sp]
 1002 0308 0A46     		mov	r2, r1
 1003 030a 0F49     		ldr	r1, .L26+24
 1004 030c 1148     		ldr	r0, .L26+36
 1005 030e FFF7FEFF 		bl	sprintf
 196:..\src/SD_RTC_functions.c ****                 Write_new_info = FALSE;
 1006              		.loc 1 196 0
 1007 0312 0023     		movs	r3, #0
 1008 0314 07F5A352 		add	r2, r7, #5216
 1009 0318 02F11F02 		add	r2, r2, #31
 1010 031c 1370     		strb	r3, [r2]
 1011              	.L20:
 197:..\src/SD_RTC_functions.c ****             }
 198:..\src/SD_RTC_functions.c ****         }
 199:..\src/SD_RTC_functions.c ****         FS_FClose(pFile_read);
 1012              		.loc 1 199 0
 1013 031e 07F5A353 		add	r3, r7, #5216
 1014 0322 03F11003 		add	r3, r3, #16
 1015 0326 1868     		ldr	r0, [r3]
 1016 0328 FFF7FEFF 		bl	FS_FClose
 1017 032c 36E0     		b	.L22
 1018              	.L27:
 1019 032e 00BF     		.align	2
 1020              	.L26:
 1021 0330 34000000 		.word	.LC0
 1022 0334 40000000 		.word	.LC1
 1023 0338 00000000 		.word	g_mem
 1024 033c 00000000 		.word	.LC2
 1025 0340 04000000 		.word	.LC3
 1026 0344 10000000 		.word	.LC4
 1027 0348 18000000 		.word	.LC5
 1028 034c 28000000 		.word	.LC6
 1029 0350 00000000 		.word	sdParam
 1030 0354 00000000 		.word	sdFile
 1031              	.L19:
 200:..\src/SD_RTC_functions.c ****     } 
 201:..\src/SD_RTC_functions.c ****     else {
 202:..\src/SD_RTC_functions.c ****         // The directory is empty
 203:..\src/SD_RTC_functions.c ****         sprintf(sdParam, "%s\\%s_%d.csv", sdDir, Param_filename, 0);  // first param filename
 1032              		.loc 1 203 0
 1033 0358 07F12003 		add	r3, r7, #32
 1034 035c 1C3B     		subs	r3, r3, #28
 1035 035e 07F5A051 		add	r1, r7, #5120
 1036 0362 01F10401 		add	r1, r1, #4
 1037 0366 0022     		movs	r2, #0
 1038 0368 0092     		str	r2, [sp]
ARM GAS  C:\Users\Mattia\AppData\Local\Temp\ccnjK3ek.s 			page 23


 1039 036a 0A46     		mov	r2, r1
 1040 036c 5849     		ldr	r1, .L28
 1041 036e 5948     		ldr	r0, .L28+4
 1042 0370 FFF7FEFF 		bl	sprintf
 204:..\src/SD_RTC_functions.c ****         sprintf(sdFile, "%s\\%s_%d.csv", sdDir, Data_filename, 0);    //first data filename
 1043              		.loc 1 204 0
 1044 0374 07F12003 		add	r3, r7, #32
 1045 0378 143B     		subs	r3, r3, #20
 1046 037a 07F5A051 		add	r1, r7, #5120
 1047 037e 01F10401 		add	r1, r1, #4
 1048 0382 0022     		movs	r2, #0
 1049 0384 0092     		str	r2, [sp]
 1050 0386 0A46     		mov	r2, r1
 1051 0388 5149     		ldr	r1, .L28
 1052 038a 5348     		ldr	r0, .L28+8
 1053 038c FFF7FEFF 		bl	sprintf
 205:..\src/SD_RTC_functions.c ****         Write_new_info = TRUE;
 1054              		.loc 1 205 0
 1055 0390 0123     		movs	r3, #1
 1056 0392 07F5A352 		add	r2, r7, #5216
 1057 0396 02F11F02 		add	r2, r2, #31
 1058 039a 1370     		strb	r3, [r2]
 1059              	.L22:
 206:..\src/SD_RTC_functions.c ****     } 
 207:..\src/SD_RTC_functions.c ****     FS_CloseDir(pDir);
 1060              		.loc 1 207 0
 1061 039c 07F5A353 		add	r3, r7, #5216
 1062 03a0 03F11403 		add	r3, r3, #20
 1063 03a4 1868     		ldr	r0, [r3]
 1064 03a6 FFF7FEFF 		bl	FS_CloseDir
 208:..\src/SD_RTC_functions.c ****     
 209:..\src/SD_RTC_functions.c ****     // Write chosen data in SD card        
 210:..\src/SD_RTC_functions.c ****     if (Write_new_info) {            
 1065              		.loc 1 210 0
 1066 03aa 07F5A353 		add	r3, r7, #5216
 1067 03ae 03F11F03 		add	r3, r3, #31
 1068 03b2 1B78     		ldrb	r3, [r3]	@ zero_extendqisi2
 1069 03b4 002B     		cmp	r3, #0
 1070 03b6 1FD0     		beq	.L23
 211:..\src/SD_RTC_functions.c ****         pParam = FS_FOpen(sdParam, "a");
 1071              		.loc 1 211 0
 1072 03b8 4849     		ldr	r1, .L28+12
 1073 03ba 4648     		ldr	r0, .L28+4
 1074 03bc FFF7FEFF 		bl	FS_FOpen
 1075 03c0 07F5A353 		add	r3, r7, #5216
 1076 03c4 03F10C03 		add	r3, r3, #12
 1077 03c8 1860     		str	r0, [r3]
 212:..\src/SD_RTC_functions.c ****         //info_ string has been already created
 213:..\src/SD_RTC_functions.c ****         FS_Write(pParam, info_, strlen(info_));
 1078              		.loc 1 213 0
 1079 03ca 07F6DC13 		addw	r3, r7, #2524
 1080 03ce 1846     		mov	r0, r3
 1081 03d0 FFF7FEFF 		bl	strlen
 1082 03d4 0246     		mov	r2, r0
 1083 03d6 07F6DC13 		addw	r3, r7, #2524
 1084 03da 1946     		mov	r1, r3
 1085 03dc 07F5A353 		add	r3, r7, #5216
ARM GAS  C:\Users\Mattia\AppData\Local\Temp\ccnjK3ek.s 			page 24


 1086 03e0 03F10C03 		add	r3, r3, #12
 1087 03e4 1868     		ldr	r0, [r3]
 1088 03e6 FFF7FEFF 		bl	FS_Write
 214:..\src/SD_RTC_functions.c ****         FS_FClose(pParam);
 1089              		.loc 1 214 0
 1090 03ea 07F5A353 		add	r3, r7, #5216
 1091 03ee 03F10C03 		add	r3, r3, #12
 1092 03f2 1868     		ldr	r0, [r3]
 1093 03f4 FFF7FEFF 		bl	FS_FClose
 1094              	.L23:
 215:..\src/SD_RTC_functions.c ****     }
 216:..\src/SD_RTC_functions.c ****     
 217:..\src/SD_RTC_functions.c ****     // Open chosen data file in append mode
 218:..\src/SD_RTC_functions.c ****     pFile = FS_FOpen(sdFile, "a");
 1095              		.loc 1 218 0
 1096 03f8 3849     		ldr	r1, .L28+12
 1097 03fa 3748     		ldr	r0, .L28+8
 1098 03fc FFF7FEFF 		bl	FS_FOpen
 1099 0400 0246     		mov	r2, r0
 1100 0402 374B     		ldr	r3, .L28+16
 1101 0404 1A60     		str	r2, [r3]
 219:..\src/SD_RTC_functions.c ****     if (Write_new_info) { 
 1102              		.loc 1 219 0
 1103 0406 07F5A353 		add	r3, r7, #5216
 1104 040a 03F11F03 		add	r3, r3, #31
 1105 040e 1B78     		ldrb	r3, [r3]	@ zero_extendqisi2
 1106 0410 002B     		cmp	r3, #0
 1107 0412 12D0     		beq	.L24
 220:..\src/SD_RTC_functions.c ****         // The file doesn't exist, so write legend info inside
 221:..\src/SD_RTC_functions.c ****         prepare_SD_legend(info_);
 1108              		.loc 1 221 0
 1109 0414 07F6DC13 		addw	r3, r7, #2524
 1110 0418 1846     		mov	r0, r3
 1111 041a FFF7FEFF 		bl	prepare_SD_legend
 222:..\src/SD_RTC_functions.c ****         FS_Write(pFile, info_, strlen(info_));
 1112              		.loc 1 222 0
 1113 041e 304B     		ldr	r3, .L28+16
 1114 0420 1C68     		ldr	r4, [r3]
 1115 0422 07F6DC13 		addw	r3, r7, #2524
 1116 0426 1846     		mov	r0, r3
 1117 0428 FFF7FEFF 		bl	strlen
 1118 042c 0246     		mov	r2, r0
 1119 042e 07F6DC13 		addw	r3, r7, #2524
 1120 0432 1946     		mov	r1, r3
 1121 0434 2046     		mov	r0, r4
 1122 0436 FFF7FEFF 		bl	FS_Write
 1123              	.L24:
 223:..\src/SD_RTC_functions.c ****     }
 224:..\src/SD_RTC_functions.c ****     //FS_FClose(pFile); 
 225:..\src/SD_RTC_functions.c ****      
 226:..\src/SD_RTC_functions.c ****     // Open file for EMG History in write mode (create it if it does not exist)
 227:..\src/SD_RTC_functions.c ****     if (c_mem.exp.record_EMG_history_on_SD){
 1124              		.loc 1 227 0
 1125 043a 2A4B     		ldr	r3, .L28+20
 1126 043c 93F83432 		ldrb	r3, [r3, #564]	@ zero_extendqisi2
 1127 0440 002B     		cmp	r3, #0
 1128 0442 19D0     		beq	.L25
ARM GAS  C:\Users\Mattia\AppData\Local\Temp\ccnjK3ek.s 			page 25


 228:..\src/SD_RTC_functions.c ****         pEMGHFile = FS_FOpen(sdEMGHFile, "w");
 1129              		.loc 1 228 0
 1130 0444 2849     		ldr	r1, .L28+24
 1131 0446 2948     		ldr	r0, .L28+28
 1132 0448 FFF7FEFF 		bl	FS_FOpen
 1133 044c 0246     		mov	r2, r0
 1134 044e 284B     		ldr	r3, .L28+32
 1135 0450 1A60     		str	r2, [r3]
 229:..\src/SD_RTC_functions.c ****         prepare_SD_EMG_History_legend(info_);
 1136              		.loc 1 229 0
 1137 0452 07F6DC13 		addw	r3, r7, #2524
 1138 0456 1846     		mov	r0, r3
 1139 0458 FFF7FEFF 		bl	prepare_SD_EMG_History_legend
 230:..\src/SD_RTC_functions.c ****         FS_Write(pEMGHFile, info_, strlen(info_));
 1140              		.loc 1 230 0
 1141 045c 244B     		ldr	r3, .L28+32
 1142 045e 1C68     		ldr	r4, [r3]
 1143 0460 07F6DC13 		addw	r3, r7, #2524
 1144 0464 1846     		mov	r0, r3
 1145 0466 FFF7FEFF 		bl	strlen
 1146 046a 0246     		mov	r2, r0
 1147 046c 07F6DC13 		addw	r3, r7, #2524
 1148 0470 1946     		mov	r1, r3
 1149 0472 2046     		mov	r0, r4
 1150 0474 FFF7FEFF 		bl	FS_Write
 1151              	.L25:
 231:..\src/SD_RTC_functions.c ****     }
 232:..\src/SD_RTC_functions.c ****     
 233:..\src/SD_RTC_functions.c ****     //Write updated data on R01 project
 234:..\src/SD_RTC_functions.c ****     FS_FILE* pR01File = FS_FOpen(sdR01File, "w");
 1152              		.loc 1 234 0
 1153 0478 1B49     		ldr	r1, .L28+24
 1154 047a 1E48     		ldr	r0, .L28+36
 1155 047c FFF7FEFF 		bl	FS_FOpen
 1156 0480 07F5A353 		add	r3, r7, #5216
 1157 0484 03F10803 		add	r3, r3, #8
 1158 0488 1860     		str	r0, [r3]
 235:..\src/SD_RTC_functions.c ****     prepare_R01_info(info_);
 1159              		.loc 1 235 0
 1160 048a 07F6DC13 		addw	r3, r7, #2524
 1161 048e 1846     		mov	r0, r3
 1162 0490 FFF7FEFF 		bl	prepare_R01_info
 236:..\src/SD_RTC_functions.c ****     FS_Write(pR01File, info_, strlen(info_));
 1163              		.loc 1 236 0
 1164 0494 07F6DC13 		addw	r3, r7, #2524
 1165 0498 1846     		mov	r0, r3
 1166 049a FFF7FEFF 		bl	strlen
 1167 049e 0246     		mov	r2, r0
 1168 04a0 07F6DC13 		addw	r3, r7, #2524
 1169 04a4 1946     		mov	r1, r3
 1170 04a6 07F5A353 		add	r3, r7, #5216
 1171 04aa 03F10803 		add	r3, r3, #8
 1172 04ae 1868     		ldr	r0, [r3]
 1173 04b0 FFF7FEFF 		bl	FS_Write
 237:..\src/SD_RTC_functions.c ****     FS_FClose(pR01File);
 1174              		.loc 1 237 0
 1175 04b4 07F5A353 		add	r3, r7, #5216
ARM GAS  C:\Users\Mattia\AppData\Local\Temp\ccnjK3ek.s 			page 26


 1176 04b8 03F10803 		add	r3, r3, #8
 1177 04bc 1868     		ldr	r0, [r3]
 1178 04be FFF7FEFF 		bl	FS_FClose
 238:..\src/SD_RTC_functions.c **** }
 1179              		.loc 1 238 0
 1180 04c2 00BF     		nop
 1181 04c4 07F5A457 		add	r7, r7, #5248
 1182 04c8 0437     		adds	r7, r7, #4
 1183              		.cfi_def_cfa_offset 12
 1184 04ca BD46     		mov	sp, r7
 1185              		.cfi_def_cfa_register 13
 1186              		@ sp needed
 1187 04cc 90BD     		pop	{r4, r7, pc}
 1188              	.L29:
 1189 04ce 00BF     		.align	2
 1190              	.L28:
 1191 04d0 18000000 		.word	.LC5
 1192 04d4 00000000 		.word	sdParam
 1193 04d8 00000000 		.word	sdFile
 1194 04dc 2C000000 		.word	.LC7
 1195 04e0 00000000 		.word	pFile
 1196 04e4 00000000 		.word	c_mem
 1197 04e8 30000000 		.word	.LC8
 1198 04ec 00000000 		.word	sdEMGHFile
 1199 04f0 00000000 		.word	pEMGHFile
 1200 04f4 00000000 		.word	sdR01File
 1201              		.cfi_endproc
 1202              	.LFE71:
 1203              		.size	InitSD_FS, .-InitSD_FS
 1204              		.section	.text.Write_SD_Param_file,"ax",%progbits
 1205              		.align	2
 1206              		.global	Write_SD_Param_file
 1207              		.thumb
 1208              		.thumb_func
 1209              		.type	Write_SD_Param_file, %function
 1210              	Write_SD_Param_file:
 1211              	.LFB72:
 239:..\src/SD_RTC_functions.c **** 
 240:..\src/SD_RTC_functions.c **** /*******************************************************************************
 241:..\src/SD_RTC_functions.c **** * Function Name: Write SD Param File
 242:..\src/SD_RTC_functions.c **** *********************************************************************************/
 243:..\src/SD_RTC_functions.c **** void Write_SD_Param_file(){
 1212              		.loc 1 243 0
 1213              		.cfi_startproc
 1214              		@ args = 0, pretend = 0, frame = 2504
 1215              		@ frame_needed = 1, uses_anonymous_args = 0
 1216 0000 90B5     		push	{r4, r7, lr}
 1217              		.cfi_def_cfa_offset 12
 1218              		.cfi_offset 4, -12
 1219              		.cfi_offset 7, -8
 1220              		.cfi_offset 14, -4
 1221 0002 ADF6CC1D 		subw	sp, sp, #2508
 1222              		.cfi_def_cfa_offset 2520
 1223 0006 00AF     		add	r7, sp, #0
 1224              		.cfi_def_cfa_register 7
 244:..\src/SD_RTC_functions.c ****     char info_[2500] = "";
 1225              		.loc 1 244 0
ARM GAS  C:\Users\Mattia\AppData\Local\Temp\ccnjK3ek.s 			page 27


 1226 0008 3B1D     		adds	r3, r7, #4
 1227 000a 0022     		movs	r2, #0
 1228 000c 1A60     		str	r2, [r3]
 1229 000e 0433     		adds	r3, r3, #4
 1230 0010 4FF41C62 		mov	r2, #2496
 1231 0014 0021     		movs	r1, #0
 1232 0016 1846     		mov	r0, r3
 1233 0018 FFF7FEFF 		bl	memset
 245:..\src/SD_RTC_functions.c ****     
 246:..\src/SD_RTC_functions.c ****     prepare_SD_param_info(info_);
 1234              		.loc 1 246 0
 1235 001c 3B1D     		adds	r3, r7, #4
 1236 001e 1846     		mov	r0, r3
 1237 0020 FFF7FEFF 		bl	prepare_SD_param_info
 247:..\src/SD_RTC_functions.c ****     FS_Write(pFile, info_, strlen(info_));
 1238              		.loc 1 247 0
 1239 0024 084B     		ldr	r3, .L31
 1240 0026 1C68     		ldr	r4, [r3]
 1241 0028 3B1D     		adds	r3, r7, #4
 1242 002a 1846     		mov	r0, r3
 1243 002c FFF7FEFF 		bl	strlen
 1244 0030 0246     		mov	r2, r0
 1245 0032 3B1D     		adds	r3, r7, #4
 1246 0034 1946     		mov	r1, r3
 1247 0036 2046     		mov	r0, r4
 1248 0038 FFF7FEFF 		bl	FS_Write
 248:..\src/SD_RTC_functions.c **** }
 1249              		.loc 1 248 0
 1250 003c 00BF     		nop
 1251 003e 07F6CC17 		addw	r7, r7, #2508
 1252              		.cfi_def_cfa_offset 12
 1253 0042 BD46     		mov	sp, r7
 1254              		.cfi_def_cfa_register 13
 1255              		@ sp needed
 1256 0044 90BD     		pop	{r4, r7, pc}
 1257              	.L32:
 1258 0046 00BF     		.align	2
 1259              	.L31:
 1260 0048 00000000 		.word	pFile
 1261              		.cfi_endproc
 1262              	.LFE72:
 1263              		.size	Write_SD_Param_file, .-Write_SD_Param_file
 1264              		.section	.text.Read_SD_Closed_File,"ax",%progbits
 1265              		.align	2
 1266              		.global	Read_SD_Closed_File
 1267              		.thumb
 1268              		.thumb_func
 1269              		.type	Read_SD_Closed_File, %function
 1270              	Read_SD_Closed_File:
 1271              	.LFB73:
 249:..\src/SD_RTC_functions.c **** 
 250:..\src/SD_RTC_functions.c **** /*******************************************************************************
 251:..\src/SD_RTC_functions.c **** * Function Name: Read SD Closed File (Param or closed Data files)
 252:..\src/SD_RTC_functions.c **** *********************************************************************************/
 253:..\src/SD_RTC_functions.c **** void Read_SD_Closed_File(char* src_file, char* info_file, int n_p){
 1272              		.loc 1 253 0
 1273              		.cfi_startproc
ARM GAS  C:\Users\Mattia\AppData\Local\Temp\ccnjK3ek.s 			page 28


 1274              		@ args = 0, pretend = 0, frame = 24
 1275              		@ frame_needed = 1, uses_anonymous_args = 0
 1276 0000 80B5     		push	{r7, lr}
 1277              		.cfi_def_cfa_offset 8
 1278              		.cfi_offset 7, -8
 1279              		.cfi_offset 14, -4
 1280 0002 86B0     		sub	sp, sp, #24
 1281              		.cfi_def_cfa_offset 32
 1282 0004 00AF     		add	r7, sp, #0
 1283              		.cfi_def_cfa_register 7
 1284 0006 F860     		str	r0, [r7, #12]
 1285 0008 B960     		str	r1, [r7, #8]
 1286 000a 7A60     		str	r2, [r7, #4]
 254:..\src/SD_RTC_functions.c ****     int i;
 255:..\src/SD_RTC_functions.c ****     FS_FILE* pF;
 256:..\src/SD_RTC_functions.c ****     
 257:..\src/SD_RTC_functions.c ****     // Open param file in read mode
 258:..\src/SD_RTC_functions.c ****     pF = FS_FOpen(src_file, "r");
 1287              		.loc 1 258 0
 1288 000c 0D49     		ldr	r1, .L35
 1289 000e F868     		ldr	r0, [r7, #12]
 1290 0010 FFF7FEFF 		bl	FS_FOpen
 1291 0014 7861     		str	r0, [r7, #20]
 259:..\src/SD_RTC_functions.c ****     if (pF != 0) {
 1292              		.loc 1 259 0
 1293 0016 7B69     		ldr	r3, [r7, #20]
 1294 0018 002B     		cmp	r3, #0
 1295 001a 0CD0     		beq	.L34
 260:..\src/SD_RTC_functions.c ****         i = FS_FRead(info_file, 1, n_p, pF);
 1296              		.loc 1 260 0
 1297 001c 7A68     		ldr	r2, [r7, #4]
 1298 001e 7B69     		ldr	r3, [r7, #20]
 1299 0020 0121     		movs	r1, #1
 1300 0022 B868     		ldr	r0, [r7, #8]
 1301 0024 FFF7FEFF 		bl	FS_FRead
 1302 0028 0346     		mov	r3, r0
 1303 002a 3B61     		str	r3, [r7, #16]
 261:..\src/SD_RTC_functions.c ****         info_file[i] = 0;
 1304              		.loc 1 261 0
 1305 002c 3B69     		ldr	r3, [r7, #16]
 1306 002e BA68     		ldr	r2, [r7, #8]
 1307 0030 1344     		add	r3, r3, r2
 1308 0032 0022     		movs	r2, #0
 1309 0034 1A70     		strb	r2, [r3]
 1310              	.L34:
 262:..\src/SD_RTC_functions.c ****     }
 263:..\src/SD_RTC_functions.c ****     FS_FClose(pF);
 1311              		.loc 1 263 0
 1312 0036 7869     		ldr	r0, [r7, #20]
 1313 0038 FFF7FEFF 		bl	FS_FClose
 264:..\src/SD_RTC_functions.c **** }
 1314              		.loc 1 264 0
 1315 003c 00BF     		nop
 1316 003e 1837     		adds	r7, r7, #24
 1317              		.cfi_def_cfa_offset 8
 1318 0040 BD46     		mov	sp, r7
 1319              		.cfi_def_cfa_register 13
ARM GAS  C:\Users\Mattia\AppData\Local\Temp\ccnjK3ek.s 			page 29


 1320              		@ sp needed
 1321 0042 80BD     		pop	{r7, pc}
 1322              	.L36:
 1323              		.align	2
 1324              	.L35:
 1325 0044 28000000 		.word	.LC6
 1326              		.cfi_endproc
 1327              	.LFE73:
 1328              		.size	Read_SD_Closed_File, .-Read_SD_Closed_File
 1329              		.section	.text.Remove_SD_File,"ax",%progbits
 1330              		.align	2
 1331              		.global	Remove_SD_File
 1332              		.thumb
 1333              		.thumb_func
 1334              		.type	Remove_SD_File, %function
 1335              	Remove_SD_File:
 1336              	.LFB74:
 265:..\src/SD_RTC_functions.c **** 
 266:..\src/SD_RTC_functions.c **** /*******************************************************************************
 267:..\src/SD_RTC_functions.c **** * Function Name: Remove SD File
 268:..\src/SD_RTC_functions.c **** *********************************************************************************/
 269:..\src/SD_RTC_functions.c **** int Remove_SD_File(char* src_file){     
 1337              		.loc 1 269 0
 1338              		.cfi_startproc
 1339              		@ args = 0, pretend = 0, frame = 8
 1340              		@ frame_needed = 1, uses_anonymous_args = 0
 1341 0000 80B5     		push	{r7, lr}
 1342              		.cfi_def_cfa_offset 8
 1343              		.cfi_offset 7, -8
 1344              		.cfi_offset 14, -4
 1345 0002 82B0     		sub	sp, sp, #8
 1346              		.cfi_def_cfa_offset 16
 1347 0004 00AF     		add	r7, sp, #0
 1348              		.cfi_def_cfa_register 7
 1349 0006 7860     		str	r0, [r7, #4]
 270:..\src/SD_RTC_functions.c ****     return FS_Remove(src_file);  
 1350              		.loc 1 270 0
 1351 0008 7868     		ldr	r0, [r7, #4]
 1352 000a FFF7FEFF 		bl	FS_Remove
 1353 000e 0346     		mov	r3, r0
 271:..\src/SD_RTC_functions.c **** }
 1354              		.loc 1 271 0
 1355 0010 1846     		mov	r0, r3
 1356 0012 0837     		adds	r7, r7, #8
 1357              		.cfi_def_cfa_offset 8
 1358 0014 BD46     		mov	sp, r7
 1359              		.cfi_def_cfa_register 13
 1360              		@ sp needed
 1361 0016 80BD     		pop	{r7, pc}
 1362              		.cfi_endproc
 1363              	.LFE74:
 1364              		.size	Remove_SD_File, .-Remove_SD_File
 1365              		.section	.text.Read_SD_Current_Data,"ax",%progbits
 1366              		.align	2
 1367              		.global	Read_SD_Current_Data
 1368              		.thumb
 1369              		.thumb_func
ARM GAS  C:\Users\Mattia\AppData\Local\Temp\ccnjK3ek.s 			page 30


 1370              		.type	Read_SD_Current_Data, %function
 1371              	Read_SD_Current_Data:
 1372              	.LFB75:
 272:..\src/SD_RTC_functions.c **** 
 273:..\src/SD_RTC_functions.c **** /*******************************************************************************
 274:..\src/SD_RTC_functions.c **** * Function Name: Read SD Current Open Data File
 275:..\src/SD_RTC_functions.c **** *********************************************************************************/
 276:..\src/SD_RTC_functions.c **** void Read_SD_Current_Data(char* info_data, int n_d){
 1373              		.loc 1 276 0
 1374              		.cfi_startproc
 1375              		@ args = 0, pretend = 0, frame = 16
 1376              		@ frame_needed = 1, uses_anonymous_args = 0
 1377 0000 80B5     		push	{r7, lr}
 1378              		.cfi_def_cfa_offset 8
 1379              		.cfi_offset 7, -8
 1380              		.cfi_offset 14, -4
 1381 0002 84B0     		sub	sp, sp, #16
 1382              		.cfi_def_cfa_offset 24
 1383 0004 00AF     		add	r7, sp, #0
 1384              		.cfi_def_cfa_register 7
 1385 0006 7860     		str	r0, [r7, #4]
 1386 0008 3960     		str	r1, [r7]
 277:..\src/SD_RTC_functions.c ****     int i;
 278:..\src/SD_RTC_functions.c ****     FS_FILE* pData;
 279:..\src/SD_RTC_functions.c ****     
 280:..\src/SD_RTC_functions.c ****     FS_FClose(pFile);
 1387              		.loc 1 280 0
 1388 000a 144B     		ldr	r3, .L41
 1389 000c 1B68     		ldr	r3, [r3]
 1390 000e 1846     		mov	r0, r3
 1391 0010 FFF7FEFF 		bl	FS_FClose
 281:..\src/SD_RTC_functions.c ****     
 282:..\src/SD_RTC_functions.c ****     // Open data file in read mode    
 283:..\src/SD_RTC_functions.c ****     pData = FS_FOpen(sdFile, "r");
 1392              		.loc 1 283 0
 1393 0014 1249     		ldr	r1, .L41+4
 1394 0016 1348     		ldr	r0, .L41+8
 1395 0018 FFF7FEFF 		bl	FS_FOpen
 1396 001c F860     		str	r0, [r7, #12]
 284:..\src/SD_RTC_functions.c ****     if (pData != 0) {
 1397              		.loc 1 284 0
 1398 001e FB68     		ldr	r3, [r7, #12]
 1399 0020 002B     		cmp	r3, #0
 1400 0022 0CD0     		beq	.L40
 285:..\src/SD_RTC_functions.c ****         i = FS_FRead(info_data, 1, n_d, pData);
 1401              		.loc 1 285 0
 1402 0024 3A68     		ldr	r2, [r7]
 1403 0026 FB68     		ldr	r3, [r7, #12]
 1404 0028 0121     		movs	r1, #1
 1405 002a 7868     		ldr	r0, [r7, #4]
 1406 002c FFF7FEFF 		bl	FS_FRead
 1407 0030 0346     		mov	r3, r0
 1408 0032 BB60     		str	r3, [r7, #8]
 286:..\src/SD_RTC_functions.c ****         info_data[i] = 0;  
 1409              		.loc 1 286 0
 1410 0034 BB68     		ldr	r3, [r7, #8]
 1411 0036 7A68     		ldr	r2, [r7, #4]
ARM GAS  C:\Users\Mattia\AppData\Local\Temp\ccnjK3ek.s 			page 31


 1412 0038 1344     		add	r3, r3, r2
 1413 003a 0022     		movs	r2, #0
 1414 003c 1A70     		strb	r2, [r3]
 1415              	.L40:
 287:..\src/SD_RTC_functions.c ****     }
 288:..\src/SD_RTC_functions.c ****     FS_FClose(pData);
 1416              		.loc 1 288 0
 1417 003e F868     		ldr	r0, [r7, #12]
 1418 0040 FFF7FEFF 		bl	FS_FClose
 289:..\src/SD_RTC_functions.c ****     
 290:..\src/SD_RTC_functions.c ****     // Before exiting, reopen data file in append mode
 291:..\src/SD_RTC_functions.c ****     pFile = FS_FOpen(sdFile, "a");
 1419              		.loc 1 291 0
 1420 0044 0849     		ldr	r1, .L41+12
 1421 0046 0748     		ldr	r0, .L41+8
 1422 0048 FFF7FEFF 		bl	FS_FOpen
 1423 004c 0246     		mov	r2, r0
 1424 004e 034B     		ldr	r3, .L41
 1425 0050 1A60     		str	r2, [r3]
 292:..\src/SD_RTC_functions.c **** }
 1426              		.loc 1 292 0
 1427 0052 00BF     		nop
 1428 0054 1037     		adds	r7, r7, #16
 1429              		.cfi_def_cfa_offset 8
 1430 0056 BD46     		mov	sp, r7
 1431              		.cfi_def_cfa_register 13
 1432              		@ sp needed
 1433 0058 80BD     		pop	{r7, pc}
 1434              	.L42:
 1435 005a 00BF     		.align	2
 1436              	.L41:
 1437 005c 00000000 		.word	pFile
 1438 0060 28000000 		.word	.LC6
 1439 0064 00000000 		.word	sdFile
 1440 0068 2C000000 		.word	.LC7
 1441              		.cfi_endproc
 1442              	.LFE75:
 1443              		.size	Read_SD_Current_Data, .-Read_SD_Current_Data
 1444              		.section	.text.Read_SD_EMG_History_Data,"ax",%progbits
 1445              		.align	2
 1446              		.global	Read_SD_EMG_History_Data
 1447              		.thumb
 1448              		.thumb_func
 1449              		.type	Read_SD_EMG_History_Data, %function
 1450              	Read_SD_EMG_History_Data:
 1451              	.LFB76:
 293:..\src/SD_RTC_functions.c **** 
 294:..\src/SD_RTC_functions.c **** /*******************************************************************************
 295:..\src/SD_RTC_functions.c **** * Function Name: Read SD Current Open EMG History File
 296:..\src/SD_RTC_functions.c **** *********************************************************************************/
 297:..\src/SD_RTC_functions.c **** void Read_SD_EMG_History_Data(){
 1452              		.loc 1 297 0
 1453              		.cfi_startproc
 1454              		@ args = 0, pretend = 0, frame = 24
 1455              		@ frame_needed = 1, uses_anonymous_args = 0
 1456 0000 80B5     		push	{r7, lr}
 1457              		.cfi_def_cfa_offset 8
ARM GAS  C:\Users\Mattia\AppData\Local\Temp\ccnjK3ek.s 			page 32


 1458              		.cfi_offset 7, -8
 1459              		.cfi_offset 14, -4
 1460 0002 86B0     		sub	sp, sp, #24
 1461              		.cfi_def_cfa_offset 32
 1462 0004 00AF     		add	r7, sp, #0
 1463              		.cfi_def_cfa_register 7
 298:..\src/SD_RTC_functions.c ****     int i;
 299:..\src/SD_RTC_functions.c ****     FS_FILE* pData;
 300:..\src/SD_RTC_functions.c ****     char iData[10];
 301:..\src/SD_RTC_functions.c ****     
 302:..\src/SD_RTC_functions.c ****     FS_FClose(pEMGHFile);
 1464              		.loc 1 302 0
 1465 0006 164B     		ldr	r3, .L45
 1466 0008 1B68     		ldr	r3, [r3]
 1467 000a 1846     		mov	r0, r3
 1468 000c FFF7FEFF 		bl	FS_FClose
 303:..\src/SD_RTC_functions.c ****     
 304:..\src/SD_RTC_functions.c ****     // Open data file in read mode    
 305:..\src/SD_RTC_functions.c ****     pData = FS_FOpen(sdEMGHFile, "r");
 1469              		.loc 1 305 0
 1470 0010 1449     		ldr	r1, .L45+4
 1471 0012 1548     		ldr	r0, .L45+8
 1472 0014 FFF7FEFF 		bl	FS_FOpen
 1473 0018 7861     		str	r0, [r7, #20]
 306:..\src/SD_RTC_functions.c ****     
 307:..\src/SD_RTC_functions.c ****     UART_RS485_ClearTxBuffer();
 1474              		.loc 1 307 0
 1475 001a FFF7FEFF 		bl	UART_RS485_ClearTxBuffer
 1476              	.L44:
 308:..\src/SD_RTC_functions.c ****     do {
 309:..\src/SD_RTC_functions.c ****         i = FS_FRead(iData, 1, 1, pData);
 1477              		.loc 1 309 0 discriminator 1
 1478 001e 381D     		adds	r0, r7, #4
 1479 0020 7B69     		ldr	r3, [r7, #20]
 1480 0022 0122     		movs	r2, #1
 1481 0024 0121     		movs	r1, #1
 1482 0026 FFF7FEFF 		bl	FS_FRead
 1483 002a 0346     		mov	r3, r0
 1484 002c 3B61     		str	r3, [r7, #16]
 310:..\src/SD_RTC_functions.c ****         UART_RS485_PutChar((uint8)iData[0]);
 1485              		.loc 1 310 0 discriminator 1
 1486 002e 3B79     		ldrb	r3, [r7, #4]	@ zero_extendqisi2
 1487 0030 1846     		mov	r0, r3
 1488 0032 FFF7FEFF 		bl	UART_RS485_PutChar
 311:..\src/SD_RTC_functions.c ****     }
 312:..\src/SD_RTC_functions.c ****     while(i);
 1489              		.loc 1 312 0 discriminator 1
 1490 0036 3B69     		ldr	r3, [r7, #16]
 1491 0038 002B     		cmp	r3, #0
 1492 003a F0D1     		bne	.L44
 313:..\src/SD_RTC_functions.c ****     UART_RS485_PutChar((uint8)0);
 1493              		.loc 1 313 0
 1494 003c 0020     		movs	r0, #0
 1495 003e FFF7FEFF 		bl	UART_RS485_PutChar
 314:..\src/SD_RTC_functions.c ****     
 315:..\src/SD_RTC_functions.c ****     FS_FClose(pData);
 1496              		.loc 1 315 0
ARM GAS  C:\Users\Mattia\AppData\Local\Temp\ccnjK3ek.s 			page 33


 1497 0042 7869     		ldr	r0, [r7, #20]
 1498 0044 FFF7FEFF 		bl	FS_FClose
 316:..\src/SD_RTC_functions.c ****     
 317:..\src/SD_RTC_functions.c ****     // Before exiting, reopen file in append mode
 318:..\src/SD_RTC_functions.c ****     pEMGHFile = FS_FOpen(sdEMGHFile, "a");
 1499              		.loc 1 318 0
 1500 0048 0849     		ldr	r1, .L45+12
 1501 004a 0748     		ldr	r0, .L45+8
 1502 004c FFF7FEFF 		bl	FS_FOpen
 1503 0050 0246     		mov	r2, r0
 1504 0052 034B     		ldr	r3, .L45
 1505 0054 1A60     		str	r2, [r3]
 319:..\src/SD_RTC_functions.c **** }
 1506              		.loc 1 319 0
 1507 0056 00BF     		nop
 1508 0058 1837     		adds	r7, r7, #24
 1509              		.cfi_def_cfa_offset 8
 1510 005a BD46     		mov	sp, r7
 1511              		.cfi_def_cfa_register 13
 1512              		@ sp needed
 1513 005c 80BD     		pop	{r7, pc}
 1514              	.L46:
 1515 005e 00BF     		.align	2
 1516              	.L45:
 1517 0060 00000000 		.word	pEMGHFile
 1518 0064 28000000 		.word	.LC6
 1519 0068 00000000 		.word	sdEMGHFile
 1520 006c 2C000000 		.word	.LC7
 1521              		.cfi_endproc
 1522              	.LFE76:
 1523              		.size	Read_SD_EMG_History_Data, .-Read_SD_EMG_History_Data
 1524              		.section	.rodata
 1525 0047 00       		.align	2
 1526              	.LC9:
 1527 0048 5C00     		.ascii	"\\\000"
 1528 004a 0000     		.align	2
 1529              	.LC10:
 1530 004c 2E00     		.ascii	".\000"
 1531 004e 0000     		.align	2
 1532              	.LC11:
 1533 0050 2E2E00   		.ascii	"..\000"
 1534              		.section	.text.Get_DirectoriesList,"ax",%progbits
 1535              		.align	2
 1536              		.global	Get_DirectoriesList
 1537              		.thumb
 1538              		.thumb_func
 1539              		.type	Get_DirectoriesList, %function
 1540              	Get_DirectoriesList:
 1541              	.LFB77:
 320:..\src/SD_RTC_functions.c **** 
 321:..\src/SD_RTC_functions.c **** /*******************************************************************************
 322:..\src/SD_RTC_functions.c **** * Function Name: Get SD Directories List
 323:..\src/SD_RTC_functions.c **** *********************************************************************************/
 324:..\src/SD_RTC_functions.c **** int Get_DirectoriesList(char* path, char directories_list[3000][8], int first_idx){
 1542              		.loc 1 324 0
 1543              		.cfi_startproc
 1544              		@ args = 0, pretend = 0, frame = 208
ARM GAS  C:\Users\Mattia\AppData\Local\Temp\ccnjK3ek.s 			page 34


 1545              		@ frame_needed = 1, uses_anonymous_args = 0
 1546 0000 80B5     		push	{r7, lr}
 1547              		.cfi_def_cfa_offset 8
 1548              		.cfi_offset 7, -8
 1549              		.cfi_offset 14, -4
 1550 0002 B4B0     		sub	sp, sp, #208
 1551              		.cfi_def_cfa_offset 216
 1552 0004 00AF     		add	r7, sp, #0
 1553              		.cfi_def_cfa_register 7
 1554 0006 F860     		str	r0, [r7, #12]
 1555 0008 B960     		str	r1, [r7, #8]
 1556 000a 7A60     		str	r2, [r7, #4]
 325:..\src/SD_RTC_functions.c ****     
 326:..\src/SD_RTC_functions.c ****     FS_FIND_DATA fd;
 327:..\src/SD_RTC_functions.c ****     int num_found_dirs = 0;
 1557              		.loc 1 327 0
 1558 000c 0023     		movs	r3, #0
 1559 000e C7F8CC30 		str	r3, [r7, #204]
 328:..\src/SD_RTC_functions.c ****     char acDirname[20];    
 329:..\src/SD_RTC_functions.c ****     
 330:..\src/SD_RTC_functions.c ****     if (FS_FindFirstFile(&fd, path, acDirname, sizeof(acDirname)) == 0) {
 1560              		.loc 1 330 0
 1561 0012 07F17402 		add	r2, r7, #116
 1562 0016 07F18800 		add	r0, r7, #136
 1563 001a 1423     		movs	r3, #20
 1564 001c F968     		ldr	r1, [r7, #12]
 1565 001e FFF7FEFF 		bl	FS_FindFirstFile
 1566 0022 0346     		mov	r3, r0
 1567 0024 002B     		cmp	r3, #0
 1568 0026 77D1     		bne	.L48
 1569              	.L50:
 1570              	.LBB2:
 331:..\src/SD_RTC_functions.c ****         do {
 332:..\src/SD_RTC_functions.c ****             FS_DIR *pDir;
 333:..\src/SD_RTC_functions.c ****             char curr_path[100] = "";
 1571              		.loc 1 333 0
 1572 0028 0023     		movs	r3, #0
 1573 002a 3B61     		str	r3, [r7, #16]
 1574 002c 07F11403 		add	r3, r7, #20
 1575 0030 6022     		movs	r2, #96
 1576 0032 0021     		movs	r1, #0
 1577 0034 1846     		mov	r0, r3
 1578 0036 FFF7FEFF 		bl	memset
 334:..\src/SD_RTC_functions.c ****             strcpy(curr_path, path);
 1579              		.loc 1 334 0
 1580 003a 07F11003 		add	r3, r7, #16
 1581 003e F968     		ldr	r1, [r7, #12]
 1582 0040 1846     		mov	r0, r3
 1583 0042 FFF7FEFF 		bl	strcpy
 335:..\src/SD_RTC_functions.c ****             strcat(curr_path, "\\");
 1584              		.loc 1 335 0
 1585 0046 07F11003 		add	r3, r7, #16
 1586 004a 1846     		mov	r0, r3
 1587 004c FFF7FEFF 		bl	strlen
 1588 0050 0346     		mov	r3, r0
 1589 0052 1A46     		mov	r2, r3
 1590 0054 07F11003 		add	r3, r7, #16
ARM GAS  C:\Users\Mattia\AppData\Local\Temp\ccnjK3ek.s 			page 35


 1591 0058 1344     		add	r3, r3, r2
 1592 005a 3549     		ldr	r1, .L52
 1593 005c 1A46     		mov	r2, r3
 1594 005e 0B46     		mov	r3, r1
 1595 0060 1B88     		ldrh	r3, [r3]	@ unaligned
 1596 0062 1380     		strh	r3, [r2]	@ unaligned
 336:..\src/SD_RTC_functions.c ****             strcat(curr_path, acDirname);
 1597              		.loc 1 336 0
 1598 0064 07F17402 		add	r2, r7, #116
 1599 0068 07F11003 		add	r3, r7, #16
 1600 006c 1146     		mov	r1, r2
 1601 006e 1846     		mov	r0, r3
 1602 0070 FFF7FEFF 		bl	strcat
 337:..\src/SD_RTC_functions.c ****             strcat(curr_path, "\\");
 1603              		.loc 1 337 0
 1604 0074 07F11003 		add	r3, r7, #16
 1605 0078 1846     		mov	r0, r3
 1606 007a FFF7FEFF 		bl	strlen
 1607 007e 0346     		mov	r3, r0
 1608 0080 1A46     		mov	r2, r3
 1609 0082 07F11003 		add	r3, r7, #16
 1610 0086 1344     		add	r3, r3, r2
 1611 0088 2949     		ldr	r1, .L52
 1612 008a 1A46     		mov	r2, r3
 1613 008c 0B46     		mov	r3, r1
 1614 008e 1B88     		ldrh	r3, [r3]	@ unaligned
 1615 0090 1380     		strh	r3, [r2]	@ unaligned
 338:..\src/SD_RTC_functions.c ****             pDir = FS_OpenDir(curr_path);
 1616              		.loc 1 338 0
 1617 0092 07F11003 		add	r3, r7, #16
 1618 0096 1846     		mov	r0, r3
 1619 0098 FFF7FEFF 		bl	FS_OpenDir
 1620 009c C7F8C800 		str	r0, [r7, #200]
 339:..\src/SD_RTC_functions.c ****             int num_files_dir = FS_GetNumFiles(pDir);
 1621              		.loc 1 339 0
 1622 00a0 D7F8C800 		ldr	r0, [r7, #200]
 1623 00a4 FFF7FEFF 		bl	FS_GetNumFiles
 1624 00a8 0346     		mov	r3, r0
 1625 00aa C7F8C430 		str	r3, [r7, #196]
 340:..\src/SD_RTC_functions.c ****             FS_CloseDir(pDir);
 1626              		.loc 1 340 0
 1627 00ae D7F8C800 		ldr	r0, [r7, #200]
 1628 00b2 FFF7FEFF 		bl	FS_CloseDir
 341:..\src/SD_RTC_functions.c ****             if (num_files_dir != -1){
 1629              		.loc 1 341 0
 1630 00b6 D7F8C430 		ldr	r3, [r7, #196]
 1631 00ba B3F1FF3F 		cmp	r3, #-1
 1632 00be 23D0     		beq	.L49
 342:..\src/SD_RTC_functions.c ****   
 343:..\src/SD_RTC_functions.c ****                 if (strcmp(acDirname, ".") && strcmp(acDirname, "..")){
 1633              		.loc 1 343 0
 1634 00c0 07F17403 		add	r3, r7, #116
 1635 00c4 1B49     		ldr	r1, .L52+4
 1636 00c6 1846     		mov	r0, r3
 1637 00c8 FFF7FEFF 		bl	strcmp
 1638 00cc 0346     		mov	r3, r0
 1639 00ce 002B     		cmp	r3, #0
ARM GAS  C:\Users\Mattia\AppData\Local\Temp\ccnjK3ek.s 			page 36


 1640 00d0 1AD0     		beq	.L49
 1641              		.loc 1 343 0 is_stmt 0 discriminator 1
 1642 00d2 07F17403 		add	r3, r7, #116
 1643 00d6 1849     		ldr	r1, .L52+8
 1644 00d8 1846     		mov	r0, r3
 1645 00da FFF7FEFF 		bl	strcmp
 1646 00de 0346     		mov	r3, r0
 1647 00e0 002B     		cmp	r3, #0
 1648 00e2 11D0     		beq	.L49
 344:..\src/SD_RTC_functions.c ****                     strcpy(directories_list[first_idx + num_found_dirs], acDirname);               
 1649              		.loc 1 344 0 is_stmt 1
 1650 00e4 7A68     		ldr	r2, [r7, #4]
 1651 00e6 D7F8CC30 		ldr	r3, [r7, #204]
 1652 00ea 1344     		add	r3, r3, r2
 1653 00ec DB00     		lsls	r3, r3, #3
 1654 00ee BA68     		ldr	r2, [r7, #8]
 1655 00f0 1344     		add	r3, r3, r2
 1656 00f2 07F17402 		add	r2, r7, #116
 1657 00f6 1146     		mov	r1, r2
 1658 00f8 1846     		mov	r0, r3
 1659 00fa FFF7FEFF 		bl	strcpy
 345:..\src/SD_RTC_functions.c ****                     num_found_dirs++;
 1660              		.loc 1 345 0
 1661 00fe D7F8CC30 		ldr	r3, [r7, #204]
 1662 0102 0133     		adds	r3, r3, #1
 1663 0104 C7F8CC30 		str	r3, [r7, #204]
 1664              	.L49:
 1665              	.LBE2:
 346:..\src/SD_RTC_functions.c ****                 }
 347:..\src/SD_RTC_functions.c ****             }    
 348:..\src/SD_RTC_functions.c ****  
 349:..\src/SD_RTC_functions.c ****         } while (FS_FindNextFile (&fd));
 1666              		.loc 1 349 0
 1667 0108 07F18803 		add	r3, r7, #136
 1668 010c 1846     		mov	r0, r3
 1669 010e FFF7FEFF 		bl	FS_FindNextFile
 1670 0112 0346     		mov	r3, r0
 1671 0114 002B     		cmp	r3, #0
 1672 0116 87D1     		bne	.L50
 1673              	.L48:
 350:..\src/SD_RTC_functions.c ****     }
 351:..\src/SD_RTC_functions.c ****     FS_FindClose(&fd);
 1674              		.loc 1 351 0
 1675 0118 07F18803 		add	r3, r7, #136
 1676 011c 1846     		mov	r0, r3
 1677 011e FFF7FEFF 		bl	FS_FindClose
 352:..\src/SD_RTC_functions.c ****     
 353:..\src/SD_RTC_functions.c ****     return num_found_dirs;
 1678              		.loc 1 353 0
 1679 0122 D7F8CC30 		ldr	r3, [r7, #204]
 354:..\src/SD_RTC_functions.c **** }
 1680              		.loc 1 354 0
 1681 0126 1846     		mov	r0, r3
 1682 0128 D037     		adds	r7, r7, #208
 1683              		.cfi_def_cfa_offset 8
 1684 012a BD46     		mov	sp, r7
 1685              		.cfi_def_cfa_register 13
ARM GAS  C:\Users\Mattia\AppData\Local\Temp\ccnjK3ek.s 			page 37


 1686              		@ sp needed
 1687 012c 80BD     		pop	{r7, pc}
 1688              	.L53:
 1689 012e 00BF     		.align	2
 1690              	.L52:
 1691 0130 48000000 		.word	.LC9
 1692 0134 4C000000 		.word	.LC10
 1693 0138 50000000 		.word	.LC11
 1694              		.cfi_endproc
 1695              	.LFE77:
 1696              		.size	Get_DirectoriesList, .-Get_DirectoriesList
 1697              		.section	.rodata
 1698 0053 00       		.align	2
 1699              	.LC12:
 1700 0054 5C25735C 		.ascii	"\\%s\\%s\\%s\\%s,%d\015\012\000"
 1700      25735C25 
 1700      735C2573 
 1700      2C25640D 
 1700      0A00
 1701              		.section	.text.Get_SD_FS,"ax",%progbits
 1702              		.align	2
 1703              		.global	Get_SD_FS
 1704              		.thumb
 1705              		.thumb_func
 1706              		.type	Get_SD_FS, %function
 1707              	Get_SD_FS:
 1708              	.LFB78:
 355:..\src/SD_RTC_functions.c **** 
 356:..\src/SD_RTC_functions.c **** /*******************************************************************************
 357:..\src/SD_RTC_functions.c **** * Function Name: Get SD Filesystem
 358:..\src/SD_RTC_functions.c **** *********************************************************************************/
 359:..\src/SD_RTC_functions.c **** void Get_SD_FS(char* info_data){
 1709              		.loc 1 359 0
 1710              		.cfi_startproc
 1711              		@ args = 0, pretend = 0, frame = 24720
 1712              		@ frame_needed = 1, uses_anonymous_args = 0
 1713 0000 B0B5     		push	{r4, r5, r7, lr}
 1714              		.cfi_def_cfa_offset 16
 1715              		.cfi_offset 4, -16
 1716              		.cfi_offset 5, -12
 1717              		.cfi_offset 7, -8
 1718              		.cfi_offset 14, -4
 1719 0002 ADF5C14D 		sub	sp, sp, #24704
 1720              		.cfi_def_cfa_offset 24720
 1721 0006 88B0     		sub	sp, sp, #32
 1722              		.cfi_def_cfa_offset 24752
 1723 0008 04AF     		add	r7, sp, #16
 1724              		.cfi_def_cfa 7, 24736
 1725 000a 07F11003 		add	r3, r7, #16
 1726 000e 0C3B     		subs	r3, r3, #12
 1727 0010 1860     		str	r0, [r3]
 360:..\src/SD_RTC_functions.c ****         
 361:..\src/SD_RTC_functions.c ****     // Called with PING command
 362:..\src/SD_RTC_functions.c ****     // Get all the folders with path and contained files number in the CSV-like format
 363:..\src/SD_RTC_functions.c ****     // and send to API through info_data string
 364:..\src/SD_RTC_functions.c ****     // USER\YYYY\MM\DD, number_of_files
 365:..\src/SD_RTC_functions.c ****     
ARM GAS  C:\Users\Mattia\AppData\Local\Temp\ccnjK3ek.s 			page 38


 366:..\src/SD_RTC_functions.c ****     
 367:..\src/SD_RTC_functions.c ****     strcpy(info_data, "");
 1728              		.loc 1 367 0
 1729 0012 07F11003 		add	r3, r7, #16
 1730 0016 0C3B     		subs	r3, r3, #12
 1731 0018 1B68     		ldr	r3, [r3]
 1732 001a 0022     		movs	r2, #0
 1733 001c 1A70     		strb	r2, [r3]
 368:..\src/SD_RTC_functions.c ****     
 369:..\src/SD_RTC_functions.c ****     // Get users folders   
 370:..\src/SD_RTC_functions.c ****     int num_found_users = 0;
 1734              		.loc 1 370 0
 1735 001e 0023     		movs	r3, #0
 1736 0020 07F5C042 		add	r2, r7, #24576
 1737 0024 02F16C02 		add	r2, r2, #108
 1738 0028 1360     		str	r3, [r2]
 371:..\src/SD_RTC_functions.c ****     char CYDATA found_users[20][8];         // Max. 20 users (each with 8 max. characters)
 372:..\src/SD_RTC_functions.c ****     char CYDATA folder_tree_data[3000][8];  //3000 days (>8 yrs) of everyday folders for each users
 373:..\src/SD_RTC_functions.c ****     memset(&found_users, 0, 20*8);
 1739              		.loc 1 373 0
 1740 002a 07F5BF43 		add	r3, r7, #24448
 1741 002e 03F14003 		add	r3, r3, #64
 1742 0032 A022     		movs	r2, #160
 1743 0034 0021     		movs	r1, #0
 1744 0036 1846     		mov	r0, r3
 1745 0038 FFF7FEFF 		bl	memset
 374:..\src/SD_RTC_functions.c ****     memset(&folder_tree_data, 0, 3000*8);
 1746              		.loc 1 374 0
 1747 003c 07F50473 		add	r3, r7, #528
 1748 0040 103B     		subs	r3, r3, #16
 1749 0042 45F6C052 		movw	r2, #24000
 1750 0046 0021     		movs	r1, #0
 1751 0048 1846     		mov	r0, r3
 1752 004a FFF7FEFF 		bl	memset
 375:..\src/SD_RTC_functions.c ****    
 376:..\src/SD_RTC_functions.c ****     num_found_users = Get_DirectoriesList("\\", folder_tree_data, 0);
 1753              		.loc 1 376 0
 1754 004e 07F50473 		add	r3, r7, #528
 1755 0052 103B     		subs	r3, r3, #16
 1756 0054 0022     		movs	r2, #0
 1757 0056 1946     		mov	r1, r3
 1758 0058 B348     		ldr	r0, .L65
 1759 005a FFF7FEFF 		bl	Get_DirectoriesList
 1760 005e 07F5C043 		add	r3, r7, #24576
 1761 0062 03F16C03 		add	r3, r3, #108
 1762 0066 1860     		str	r0, [r3]
 1763              	.LBB3:
 377:..\src/SD_RTC_functions.c ****     for (int i=0; i< num_found_users; i++){ // Copy user folders and free the tree structure
 1764              		.loc 1 377 0
 1765 0068 0023     		movs	r3, #0
 1766 006a 07F5C142 		add	r2, r7, #24704
 1767 006e 02F10C02 		add	r2, r2, #12
 1768 0072 1360     		str	r3, [r2]
 1769 0074 22E0     		b	.L55
 1770              	.L56:
 378:..\src/SD_RTC_functions.c ****         strcpy(found_users[i], folder_tree_data[i]);
 1771              		.loc 1 378 0 discriminator 3
ARM GAS  C:\Users\Mattia\AppData\Local\Temp\ccnjK3ek.s 			page 39


 1772 0076 07F5BF42 		add	r2, r7, #24448
 1773 007a 02F14002 		add	r2, r2, #64
 1774 007e 07F5C143 		add	r3, r7, #24704
 1775 0082 03F10C03 		add	r3, r3, #12
 1776 0086 1B68     		ldr	r3, [r3]
 1777 0088 DB00     		lsls	r3, r3, #3
 1778 008a D018     		adds	r0, r2, r3
 1779 008c 07F50473 		add	r3, r7, #528
 1780 0090 103B     		subs	r3, r3, #16
 1781 0092 07F5C142 		add	r2, r7, #24704
 1782 0096 02F10C02 		add	r2, r2, #12
 1783 009a 1268     		ldr	r2, [r2]
 1784 009c D200     		lsls	r2, r2, #3
 1785 009e 1344     		add	r3, r3, r2
 1786 00a0 1946     		mov	r1, r3
 1787 00a2 FFF7FEFF 		bl	strcpy
 377:..\src/SD_RTC_functions.c ****     for (int i=0; i< num_found_users; i++){ // Copy user folders and free the tree structure
 1788              		.loc 1 377 0 discriminator 3
 1789 00a6 07F5C143 		add	r3, r7, #24704
 1790 00aa 03F10C03 		add	r3, r3, #12
 1791 00ae 1B68     		ldr	r3, [r3]
 1792 00b0 0133     		adds	r3, r3, #1
 1793 00b2 07F5C142 		add	r2, r7, #24704
 1794 00b6 02F10C02 		add	r2, r2, #12
 1795 00ba 1360     		str	r3, [r2]
 1796              	.L55:
 377:..\src/SD_RTC_functions.c ****     for (int i=0; i< num_found_users; i++){ // Copy user folders and free the tree structure
 1797              		.loc 1 377 0 is_stmt 0 discriminator 1
 1798 00bc 07F5C143 		add	r3, r7, #24704
 1799 00c0 03F10C03 		add	r3, r3, #12
 1800 00c4 1A68     		ldr	r2, [r3]
 1801 00c6 07F5C043 		add	r3, r7, #24576
 1802 00ca 03F16C03 		add	r3, r3, #108
 1803 00ce 1B68     		ldr	r3, [r3]
 1804 00d0 9A42     		cmp	r2, r3
 1805 00d2 D0DB     		blt	.L56
 1806              	.LBE3:
 379:..\src/SD_RTC_functions.c ****     }
 380:..\src/SD_RTC_functions.c ****     memset(&folder_tree_data, 0, 3000*8);
 1807              		.loc 1 380 0 is_stmt 1
 1808 00d4 07F50473 		add	r3, r7, #528
 1809 00d8 103B     		subs	r3, r3, #16
 1810 00da 45F6C052 		movw	r2, #24000
 1811 00de 0021     		movs	r1, #0
 1812 00e0 1846     		mov	r0, r3
 1813 00e2 FFF7FEFF 		bl	memset
 381:..\src/SD_RTC_functions.c ****     
 382:..\src/SD_RTC_functions.c ****     int n_idx = 0;
 1814              		.loc 1 382 0
 1815 00e6 0023     		movs	r3, #0
 1816 00e8 07F5C142 		add	r2, r7, #24704
 1817 00ec 02F10802 		add	r2, r2, #8
 1818 00f0 1360     		str	r3, [r2]
 1819              	.LBB4:
 383:..\src/SD_RTC_functions.c ****     for (int i=0; i< num_found_users; i++){
 1820              		.loc 1 383 0
 1821 00f2 0023     		movs	r3, #0
ARM GAS  C:\Users\Mattia\AppData\Local\Temp\ccnjK3ek.s 			page 40


 1822 00f4 07F5C142 		add	r2, r7, #24704
 1823 00f8 02F10402 		add	r2, r2, #4
 1824 00fc 1360     		str	r3, [r2]
 1825 00fe 56E2     		b	.L57
 1826              	.L64:
 1827              	.LBB5:
 384:..\src/SD_RTC_functions.c ****         char y_path[100] = "\\";
 1828              		.loc 1 384 0
 1829 0100 07F11003 		add	r3, r7, #16
 1830 0104 043B     		subs	r3, r3, #4
 1831 0106 5C22     		movs	r2, #92
 1832 0108 1A60     		str	r2, [r3]
 1833 010a 0433     		adds	r3, r3, #4
 1834 010c 6022     		movs	r2, #96
 1835 010e 0021     		movs	r1, #0
 1836 0110 1846     		mov	r0, r3
 1837 0112 FFF7FEFF 		bl	memset
 385:..\src/SD_RTC_functions.c ****         strcat(y_path, found_users[i]);
 1838              		.loc 1 385 0
 1839 0116 07F5BF42 		add	r2, r7, #24448
 1840 011a 02F14002 		add	r2, r2, #64
 1841 011e 07F5C143 		add	r3, r7, #24704
 1842 0122 03F10403 		add	r3, r3, #4
 1843 0126 1B68     		ldr	r3, [r3]
 1844 0128 DB00     		lsls	r3, r3, #3
 1845 012a 1A44     		add	r2, r2, r3
 1846 012c 07F11003 		add	r3, r7, #16
 1847 0130 043B     		subs	r3, r3, #4
 1848 0132 1146     		mov	r1, r2
 1849 0134 1846     		mov	r0, r3
 1850 0136 FFF7FEFF 		bl	strcat
 386:..\src/SD_RTC_functions.c ****         strcat(y_path, "\\");
 1851              		.loc 1 386 0
 1852 013a 07F11003 		add	r3, r7, #16
 1853 013e 043B     		subs	r3, r3, #4
 1854 0140 1846     		mov	r0, r3
 1855 0142 FFF7FEFF 		bl	strlen
 1856 0146 0346     		mov	r3, r0
 1857 0148 1A46     		mov	r2, r3
 1858 014a 07F11003 		add	r3, r7, #16
 1859 014e 043B     		subs	r3, r3, #4
 1860 0150 1344     		add	r3, r3, r2
 1861 0152 7549     		ldr	r1, .L65
 1862 0154 1A46     		mov	r2, r3
 1863 0156 0B46     		mov	r3, r1
 1864 0158 1B88     		ldrh	r3, [r3]	@ unaligned
 1865 015a 1380     		strh	r3, [r2]	@ unaligned
 387:..\src/SD_RTC_functions.c ****         
 388:..\src/SD_RTC_functions.c ****         int nyears = Get_DirectoriesList(y_path, folder_tree_data, n_idx);
 1866              		.loc 1 388 0
 1867 015c 07F50471 		add	r1, r7, #528
 1868 0160 1039     		subs	r1, r1, #16
 1869 0162 07F11003 		add	r3, r7, #16
 1870 0166 043B     		subs	r3, r3, #4
 1871 0168 07F5C142 		add	r2, r7, #24704
 1872 016c 02F10802 		add	r2, r2, #8
 1873 0170 1268     		ldr	r2, [r2]
ARM GAS  C:\Users\Mattia\AppData\Local\Temp\ccnjK3ek.s 			page 41


 1874 0172 1846     		mov	r0, r3
 1875 0174 FFF7FEFF 		bl	Get_DirectoriesList
 1876 0178 07F5C043 		add	r3, r7, #24576
 1877 017c 03F16803 		add	r3, r3, #104
 1878 0180 1860     		str	r0, [r3]
 389:..\src/SD_RTC_functions.c ****         int nmonths = 0, ndays = 0;
 1879              		.loc 1 389 0
 1880 0182 0023     		movs	r3, #0
 1881 0184 07F5C142 		add	r2, r7, #24704
 1882 0188 1360     		str	r3, [r2]
 1883 018a 0023     		movs	r3, #0
 1884 018c 07F5C042 		add	r2, r7, #24576
 1885 0190 02F17C02 		add	r2, r2, #124
 1886 0194 1360     		str	r3, [r2]
 1887              	.LBB6:
 390:..\src/SD_RTC_functions.c ****         for (int j=0; j< nyears; j++){
 1888              		.loc 1 390 0
 1889 0196 0023     		movs	r3, #0
 1890 0198 07F5C042 		add	r2, r7, #24576
 1891 019c 02F17802 		add	r2, r2, #120
 1892 01a0 1360     		str	r3, [r2]
 1893 01a2 D2E1     		b	.L58
 1894              	.L63:
 1895              	.LBB7:
 391:..\src/SD_RTC_functions.c ****             char m_path[100] = "\\";
 1896              		.loc 1 391 0
 1897 01a4 07F19003 		add	r3, r7, #144
 1898 01a8 203B     		subs	r3, r3, #32
 1899 01aa 5C22     		movs	r2, #92
 1900 01ac 1A60     		str	r2, [r3]
 1901 01ae 0433     		adds	r3, r3, #4
 1902 01b0 6022     		movs	r2, #96
 1903 01b2 0021     		movs	r1, #0
 1904 01b4 1846     		mov	r0, r3
 1905 01b6 FFF7FEFF 		bl	memset
 392:..\src/SD_RTC_functions.c ****             strcpy(m_path, y_path);
 1906              		.loc 1 392 0
 1907 01ba 07F11002 		add	r2, r7, #16
 1908 01be 043A     		subs	r2, r2, #4
 1909 01c0 07F19003 		add	r3, r7, #144
 1910 01c4 203B     		subs	r3, r3, #32
 1911 01c6 1146     		mov	r1, r2
 1912 01c8 1846     		mov	r0, r3
 1913 01ca FFF7FEFF 		bl	strcpy
 393:..\src/SD_RTC_functions.c ****             strcat(m_path, folder_tree_data[n_idx + j]);
 1914              		.loc 1 393 0
 1915 01ce 07F5C143 		add	r3, r7, #24704
 1916 01d2 03F10803 		add	r3, r3, #8
 1917 01d6 1A68     		ldr	r2, [r3]
 1918 01d8 07F5C043 		add	r3, r7, #24576
 1919 01dc 03F17803 		add	r3, r3, #120
 1920 01e0 1B68     		ldr	r3, [r3]
 1921 01e2 1A44     		add	r2, r2, r3
 1922 01e4 07F50473 		add	r3, r7, #528
 1923 01e8 103B     		subs	r3, r3, #16
 1924 01ea D200     		lsls	r2, r2, #3
 1925 01ec 1A44     		add	r2, r2, r3
ARM GAS  C:\Users\Mattia\AppData\Local\Temp\ccnjK3ek.s 			page 42


 1926 01ee 07F19003 		add	r3, r7, #144
 1927 01f2 203B     		subs	r3, r3, #32
 1928 01f4 1146     		mov	r1, r2
 1929 01f6 1846     		mov	r0, r3
 1930 01f8 FFF7FEFF 		bl	strcat
 394:..\src/SD_RTC_functions.c ****             strcat(m_path, "\\");
 1931              		.loc 1 394 0
 1932 01fc 07F19003 		add	r3, r7, #144
 1933 0200 203B     		subs	r3, r3, #32
 1934 0202 1846     		mov	r0, r3
 1935 0204 FFF7FEFF 		bl	strlen
 1936 0208 0346     		mov	r3, r0
 1937 020a 1A46     		mov	r2, r3
 1938 020c 07F19003 		add	r3, r7, #144
 1939 0210 203B     		subs	r3, r3, #32
 1940 0212 1344     		add	r3, r3, r2
 1941 0214 4449     		ldr	r1, .L65
 1942 0216 1A46     		mov	r2, r3
 1943 0218 0B46     		mov	r3, r1
 1944 021a 1B88     		ldrh	r3, [r3]	@ unaligned
 1945 021c 1380     		strh	r3, [r2]	@ unaligned
 395:..\src/SD_RTC_functions.c ****             nmonths = Get_DirectoriesList(m_path, folder_tree_data, n_idx + nyears);
 1946              		.loc 1 395 0
 1947 021e 07F5C143 		add	r3, r7, #24704
 1948 0222 03F10803 		add	r3, r3, #8
 1949 0226 1A68     		ldr	r2, [r3]
 1950 0228 07F5C043 		add	r3, r7, #24576
 1951 022c 03F16803 		add	r3, r3, #104
 1952 0230 1B68     		ldr	r3, [r3]
 1953 0232 1A44     		add	r2, r2, r3
 1954 0234 07F50471 		add	r1, r7, #528
 1955 0238 1039     		subs	r1, r1, #16
 1956 023a 07F19003 		add	r3, r7, #144
 1957 023e 203B     		subs	r3, r3, #32
 1958 0240 1846     		mov	r0, r3
 1959 0242 FFF7FEFF 		bl	Get_DirectoriesList
 1960 0246 07F5C143 		add	r3, r7, #24704
 1961 024a 1860     		str	r0, [r3]
 1962              	.LBB8:
 396:..\src/SD_RTC_functions.c ****             for (int k=0; k< nmonths; k++){
 1963              		.loc 1 396 0
 1964 024c 0023     		movs	r3, #0
 1965 024e 07F5C042 		add	r2, r7, #24576
 1966 0252 02F17402 		add	r2, r2, #116
 1967 0256 1360     		str	r3, [r2]
 1968 0258 61E1     		b	.L59
 1969              	.L62:
 1970              	.LBB9:
 397:..\src/SD_RTC_functions.c ****                 char d_path[100] = "\\";
 1971              		.loc 1 397 0
 1972 025a 07F58873 		add	r3, r7, #272
 1973 025e 3C3B     		subs	r3, r3, #60
 1974 0260 5C22     		movs	r2, #92
 1975 0262 1A60     		str	r2, [r3]
 1976 0264 0433     		adds	r3, r3, #4
 1977 0266 6022     		movs	r2, #96
 1978 0268 0021     		movs	r1, #0
ARM GAS  C:\Users\Mattia\AppData\Local\Temp\ccnjK3ek.s 			page 43


 1979 026a 1846     		mov	r0, r3
 1980 026c FFF7FEFF 		bl	memset
 398:..\src/SD_RTC_functions.c ****                 strcpy(d_path, m_path);
 1981              		.loc 1 398 0
 1982 0270 07F19002 		add	r2, r7, #144
 1983 0274 203A     		subs	r2, r2, #32
 1984 0276 07F58873 		add	r3, r7, #272
 1985 027a 3C3B     		subs	r3, r3, #60
 1986 027c 1146     		mov	r1, r2
 1987 027e 1846     		mov	r0, r3
 1988 0280 FFF7FEFF 		bl	strcpy
 399:..\src/SD_RTC_functions.c ****                 strcat(d_path, folder_tree_data[n_idx + nyears + k]);
 1989              		.loc 1 399 0
 1990 0284 07F5C143 		add	r3, r7, #24704
 1991 0288 03F10803 		add	r3, r3, #8
 1992 028c 1A68     		ldr	r2, [r3]
 1993 028e 07F5C043 		add	r3, r7, #24576
 1994 0292 03F16803 		add	r3, r3, #104
 1995 0296 1B68     		ldr	r3, [r3]
 1996 0298 1A44     		add	r2, r2, r3
 1997 029a 07F5C043 		add	r3, r7, #24576
 1998 029e 03F17403 		add	r3, r3, #116
 1999 02a2 1B68     		ldr	r3, [r3]
 2000 02a4 1A44     		add	r2, r2, r3
 2001 02a6 07F50473 		add	r3, r7, #528
 2002 02aa 103B     		subs	r3, r3, #16
 2003 02ac D200     		lsls	r2, r2, #3
 2004 02ae 1A44     		add	r2, r2, r3
 2005 02b0 07F58873 		add	r3, r7, #272
 2006 02b4 3C3B     		subs	r3, r3, #60
 2007 02b6 1146     		mov	r1, r2
 2008 02b8 1846     		mov	r0, r3
 2009 02ba FFF7FEFF 		bl	strcat
 400:..\src/SD_RTC_functions.c ****                 strcat(d_path, "\\");
 2010              		.loc 1 400 0
 2011 02be 07F58873 		add	r3, r7, #272
 2012 02c2 3C3B     		subs	r3, r3, #60
 2013 02c4 1846     		mov	r0, r3
 2014 02c6 FFF7FEFF 		bl	strlen
 2015 02ca 0346     		mov	r3, r0
 2016 02cc 1A46     		mov	r2, r3
 2017 02ce 07F58873 		add	r3, r7, #272
 2018 02d2 3C3B     		subs	r3, r3, #60
 2019 02d4 1344     		add	r3, r3, r2
 2020 02d6 1449     		ldr	r1, .L65
 2021 02d8 1A46     		mov	r2, r3
 2022 02da 0B46     		mov	r3, r1
 2023 02dc 1B88     		ldrh	r3, [r3]	@ unaligned
 2024 02de 1380     		strh	r3, [r2]	@ unaligned
 401:..\src/SD_RTC_functions.c ****                 ndays = Get_DirectoriesList(d_path, folder_tree_data, n_idx + nyears + nmonths);
 2025              		.loc 1 401 0
 2026 02e0 07F5C143 		add	r3, r7, #24704
 2027 02e4 03F10803 		add	r3, r3, #8
 2028 02e8 1A68     		ldr	r2, [r3]
 2029 02ea 07F5C043 		add	r3, r7, #24576
 2030 02ee 03F16803 		add	r3, r3, #104
 2031 02f2 1B68     		ldr	r3, [r3]
ARM GAS  C:\Users\Mattia\AppData\Local\Temp\ccnjK3ek.s 			page 44


 2032 02f4 1A44     		add	r2, r2, r3
 2033 02f6 07F5C143 		add	r3, r7, #24704
 2034 02fa 1B68     		ldr	r3, [r3]
 2035 02fc 1A44     		add	r2, r2, r3
 2036 02fe 07F50471 		add	r1, r7, #528
 2037 0302 1039     		subs	r1, r1, #16
 2038 0304 07F58873 		add	r3, r7, #272
 2039 0308 3C3B     		subs	r3, r3, #60
 2040 030a 1846     		mov	r0, r3
 2041 030c FFF7FEFF 		bl	Get_DirectoriesList
 2042 0310 07F5C043 		add	r3, r7, #24576
 2043 0314 03F17C03 		add	r3, r3, #124
 2044 0318 1860     		str	r0, [r3]
 2045              	.LBB10:
 402:..\src/SD_RTC_functions.c ****                 for (int h=0; h< ndays; h++){
 2046              		.loc 1 402 0
 2047 031a 0023     		movs	r3, #0
 2048 031c 07F5C042 		add	r2, r7, #24576
 2049 0320 02F17002 		add	r2, r2, #112
 2050 0324 1360     		str	r3, [r2]
 2051 0326 E2E0     		b	.L60
 2052              	.L66:
 2053              		.align	2
 2054              	.L65:
 2055 0328 48000000 		.word	.LC9
 2056              	.L61:
 2057              	.LBB11:
 403:..\src/SD_RTC_functions.c ****                     
 404:..\src/SD_RTC_functions.c ****                     char f_path[100] = "\\";
 2058              		.loc 1 404 0 discriminator 3
 2059 032c 07F5C873 		add	r3, r7, #400
 2060 0330 583B     		subs	r3, r3, #88
 2061 0332 5C22     		movs	r2, #92
 2062 0334 1A60     		str	r2, [r3]
 2063 0336 0433     		adds	r3, r3, #4
 2064 0338 6022     		movs	r2, #96
 2065 033a 0021     		movs	r1, #0
 2066 033c 1846     		mov	r0, r3
 2067 033e FFF7FEFF 		bl	memset
 405:..\src/SD_RTC_functions.c ****                     strcpy(f_path, d_path);
 2068              		.loc 1 405 0 discriminator 3
 2069 0342 07F58872 		add	r2, r7, #272
 2070 0346 3C3A     		subs	r2, r2, #60
 2071 0348 07F5C873 		add	r3, r7, #400
 2072 034c 583B     		subs	r3, r3, #88
 2073 034e 1146     		mov	r1, r2
 2074 0350 1846     		mov	r0, r3
 2075 0352 FFF7FEFF 		bl	strcpy
 406:..\src/SD_RTC_functions.c ****                     strcat(f_path, folder_tree_data[n_idx + nyears + nmonths + h]);
 2076              		.loc 1 406 0 discriminator 3
 2077 0356 07F5C143 		add	r3, r7, #24704
 2078 035a 03F10803 		add	r3, r3, #8
 2079 035e 1A68     		ldr	r2, [r3]
 2080 0360 07F5C043 		add	r3, r7, #24576
 2081 0364 03F16803 		add	r3, r3, #104
 2082 0368 1B68     		ldr	r3, [r3]
 2083 036a 1A44     		add	r2, r2, r3
ARM GAS  C:\Users\Mattia\AppData\Local\Temp\ccnjK3ek.s 			page 45


 2084 036c 07F5C143 		add	r3, r7, #24704
 2085 0370 1B68     		ldr	r3, [r3]
 2086 0372 1A44     		add	r2, r2, r3
 2087 0374 07F5C043 		add	r3, r7, #24576
 2088 0378 03F17003 		add	r3, r3, #112
 2089 037c 1B68     		ldr	r3, [r3]
 2090 037e 1A44     		add	r2, r2, r3
 2091 0380 07F50473 		add	r3, r7, #528
 2092 0384 103B     		subs	r3, r3, #16
 2093 0386 D200     		lsls	r2, r2, #3
 2094 0388 1A44     		add	r2, r2, r3
 2095 038a 07F5C873 		add	r3, r7, #400
 2096 038e 583B     		subs	r3, r3, #88
 2097 0390 1146     		mov	r1, r2
 2098 0392 1846     		mov	r0, r3
 2099 0394 FFF7FEFF 		bl	strcat
 407:..\src/SD_RTC_functions.c ****                     strcat(f_path, "\\");
 2100              		.loc 1 407 0 discriminator 3
 2101 0398 07F5C873 		add	r3, r7, #400
 2102 039c 583B     		subs	r3, r3, #88
 2103 039e 1846     		mov	r0, r3
 2104 03a0 FFF7FEFF 		bl	strlen
 2105 03a4 0346     		mov	r3, r0
 2106 03a6 1A46     		mov	r2, r3
 2107 03a8 07F5C873 		add	r3, r7, #400
 2108 03ac 583B     		subs	r3, r3, #88
 2109 03ae 1344     		add	r3, r3, r2
 2110 03b0 8849     		ldr	r1, .L67
 2111 03b2 1A46     		mov	r2, r3
 2112 03b4 0B46     		mov	r3, r1
 2113 03b6 1B88     		ldrh	r3, [r3]	@ unaligned
 2114 03b8 1380     		strh	r3, [r2]	@ unaligned
 408:..\src/SD_RTC_functions.c ****                     
 409:..\src/SD_RTC_functions.c ****                     // A directory with data files cannot be empty
 410:..\src/SD_RTC_functions.c ****                     FS_DIR* pDir = FS_OpenDir(f_path);
 2115              		.loc 1 410 0 discriminator 3
 2116 03ba 07F5C873 		add	r3, r7, #400
 2117 03be 583B     		subs	r3, r3, #88
 2118 03c0 1846     		mov	r0, r3
 2119 03c2 FFF7FEFF 		bl	FS_OpenDir
 2120 03c6 07F5C043 		add	r3, r7, #24576
 2121 03ca 03F16403 		add	r3, r3, #100
 2122 03ce 1860     		str	r0, [r3]
 411:..\src/SD_RTC_functions.c ****                     int nfiles = FS_GetNumFiles(pDir);
 2123              		.loc 1 411 0 discriminator 3
 2124 03d0 07F5C043 		add	r3, r7, #24576
 2125 03d4 03F16403 		add	r3, r3, #100
 2126 03d8 1868     		ldr	r0, [r3]
 2127 03da FFF7FEFF 		bl	FS_GetNumFiles
 2128 03de 0346     		mov	r3, r0
 2129 03e0 07F5C042 		add	r2, r7, #24576
 2130 03e4 02F16002 		add	r2, r2, #96
 2131 03e8 1360     		str	r3, [r2]
 412:..\src/SD_RTC_functions.c ****                     FS_CloseDir(pDir);
 2132              		.loc 1 412 0 discriminator 3
 2133 03ea 07F5C043 		add	r3, r7, #24576
 2134 03ee 03F16403 		add	r3, r3, #100
ARM GAS  C:\Users\Mattia\AppData\Local\Temp\ccnjK3ek.s 			page 46


 2135 03f2 1868     		ldr	r0, [r3]
 2136 03f4 FFF7FEFF 		bl	FS_CloseDir
 413:..\src/SD_RTC_functions.c ****                               
 414:..\src/SD_RTC_functions.c ****                     char str[100] = "";
 2137              		.loc 1 414 0 discriminator 3
 2138 03f8 07F50473 		add	r3, r7, #528
 2139 03fc 743B     		subs	r3, r3, #116
 2140 03fe 0022     		movs	r2, #0
 2141 0400 1A60     		str	r2, [r3]
 2142 0402 0433     		adds	r3, r3, #4
 2143 0404 6022     		movs	r2, #96
 2144 0406 0021     		movs	r1, #0
 2145 0408 1846     		mov	r0, r3
 2146 040a FFF7FEFF 		bl	memset
 415:..\src/SD_RTC_functions.c ****                     sprintf(str, "\\%s\\%s\\%s\\%s,%d\r\n", found_users[i], folder_tree_data[n_idx+
 2147              		.loc 1 415 0 discriminator 3
 2148 040e 07F5BF42 		add	r2, r7, #24448
 2149 0412 02F14002 		add	r2, r2, #64
 2150 0416 07F5C143 		add	r3, r7, #24704
 2151 041a 03F10403 		add	r3, r3, #4
 2152 041e 1B68     		ldr	r3, [r3]
 2153 0420 DB00     		lsls	r3, r3, #3
 2154 0422 D418     		adds	r4, r2, r3
 2155 0424 07F5C143 		add	r3, r7, #24704
 2156 0428 03F10803 		add	r3, r3, #8
 2157 042c 1A68     		ldr	r2, [r3]
 2158 042e 07F5C043 		add	r3, r7, #24576
 2159 0432 03F17803 		add	r3, r3, #120
 2160 0436 1B68     		ldr	r3, [r3]
 2161 0438 1A44     		add	r2, r2, r3
 2162 043a 07F50473 		add	r3, r7, #528
 2163 043e 103B     		subs	r3, r3, #16
 2164 0440 D200     		lsls	r2, r2, #3
 2165 0442 9D18     		adds	r5, r3, r2
 416:..\src/SD_RTC_functions.c ****                             folder_tree_data[n_idx+nyears+k], folder_tree_data[n_idx+nyears+nmonths
 2166              		.loc 1 416 0 discriminator 3
 2167 0444 07F5C143 		add	r3, r7, #24704
 2168 0448 03F10803 		add	r3, r3, #8
 2169 044c 1A68     		ldr	r2, [r3]
 2170 044e 07F5C043 		add	r3, r7, #24576
 2171 0452 03F16803 		add	r3, r3, #104
 2172 0456 1B68     		ldr	r3, [r3]
 2173 0458 1A44     		add	r2, r2, r3
 2174 045a 07F5C043 		add	r3, r7, #24576
 2175 045e 03F17403 		add	r3, r3, #116
 2176 0462 1B68     		ldr	r3, [r3]
 2177 0464 1A44     		add	r2, r2, r3
 2178 0466 07F50473 		add	r3, r7, #528
 2179 046a 103B     		subs	r3, r3, #16
 2180 046c D200     		lsls	r2, r2, #3
 2181 046e 1A44     		add	r2, r2, r3
 2182 0470 07F5C143 		add	r3, r7, #24704
 2183 0474 03F10803 		add	r3, r3, #8
 2184 0478 1968     		ldr	r1, [r3]
 2185 047a 07F5C043 		add	r3, r7, #24576
 2186 047e 03F16803 		add	r3, r3, #104
 2187 0482 1B68     		ldr	r3, [r3]
ARM GAS  C:\Users\Mattia\AppData\Local\Temp\ccnjK3ek.s 			page 47


 2188 0484 1944     		add	r1, r1, r3
 2189 0486 07F5C143 		add	r3, r7, #24704
 2190 048a 1B68     		ldr	r3, [r3]
 2191 048c 1944     		add	r1, r1, r3
 2192 048e 07F5C043 		add	r3, r7, #24576
 2193 0492 03F17003 		add	r3, r3, #112
 2194 0496 1B68     		ldr	r3, [r3]
 2195 0498 1944     		add	r1, r1, r3
 2196 049a 07F50473 		add	r3, r7, #528
 2197 049e 103B     		subs	r3, r3, #16
 2198 04a0 C900     		lsls	r1, r1, #3
 2199 04a2 0B44     		add	r3, r3, r1
 415:..\src/SD_RTC_functions.c ****                     sprintf(str, "\\%s\\%s\\%s\\%s,%d\r\n", found_users[i], folder_tree_data[n_idx+
 2200              		.loc 1 415 0 discriminator 3
 2201 04a4 07F50470 		add	r0, r7, #528
 2202 04a8 7438     		subs	r0, r0, #116
 2203 04aa 07F5C041 		add	r1, r7, #24576
 2204 04ae 01F16001 		add	r1, r1, #96
 2205 04b2 0968     		ldr	r1, [r1]
 2206 04b4 0291     		str	r1, [sp, #8]
 2207 04b6 0193     		str	r3, [sp, #4]
 2208 04b8 0092     		str	r2, [sp]
 2209 04ba 2B46     		mov	r3, r5
 2210 04bc 2246     		mov	r2, r4
 2211 04be 4649     		ldr	r1, .L67+4
 2212 04c0 FFF7FEFF 		bl	sprintf
 417:..\src/SD_RTC_functions.c ****                     strcat(info_data, str);
 2213              		.loc 1 417 0 discriminator 3
 2214 04c4 07F50472 		add	r2, r7, #528
 2215 04c8 743A     		subs	r2, r2, #116
 2216 04ca 07F11003 		add	r3, r7, #16
 2217 04ce 0C3B     		subs	r3, r3, #12
 2218 04d0 1146     		mov	r1, r2
 2219 04d2 1868     		ldr	r0, [r3]
 2220 04d4 FFF7FEFF 		bl	strcat
 2221              	.LBE11:
 402:..\src/SD_RTC_functions.c ****                     
 2222              		.loc 1 402 0 discriminator 3
 2223 04d8 07F5C043 		add	r3, r7, #24576
 2224 04dc 03F17003 		add	r3, r3, #112
 2225 04e0 1B68     		ldr	r3, [r3]
 2226 04e2 0133     		adds	r3, r3, #1
 2227 04e4 07F5C042 		add	r2, r7, #24576
 2228 04e8 02F17002 		add	r2, r2, #112
 2229 04ec 1360     		str	r3, [r2]
 2230              	.L60:
 402:..\src/SD_RTC_functions.c ****                     
 2231              		.loc 1 402 0 is_stmt 0 discriminator 1
 2232 04ee 07F5C043 		add	r3, r7, #24576
 2233 04f2 03F17003 		add	r3, r3, #112
 2234 04f6 1A68     		ldr	r2, [r3]
 2235 04f8 07F5C043 		add	r3, r7, #24576
 2236 04fc 03F17C03 		add	r3, r3, #124
 2237 0500 1B68     		ldr	r3, [r3]
 2238 0502 9A42     		cmp	r2, r3
 2239 0504 FFF612AF 		blt	.L61
 2240              	.LBE10:
ARM GAS  C:\Users\Mattia\AppData\Local\Temp\ccnjK3ek.s 			page 48


 2241              	.LBE9:
 396:..\src/SD_RTC_functions.c ****                 char d_path[100] = "\\";
 2242              		.loc 1 396 0 is_stmt 1 discriminator 2
 2243 0508 07F5C043 		add	r3, r7, #24576
 2244 050c 03F17403 		add	r3, r3, #116
 2245 0510 1B68     		ldr	r3, [r3]
 2246 0512 0133     		adds	r3, r3, #1
 2247 0514 07F5C042 		add	r2, r7, #24576
 2248 0518 02F17402 		add	r2, r2, #116
 2249 051c 1360     		str	r3, [r2]
 2250              	.L59:
 396:..\src/SD_RTC_functions.c ****                 char d_path[100] = "\\";
 2251              		.loc 1 396 0 is_stmt 0 discriminator 1
 2252 051e 07F5C043 		add	r3, r7, #24576
 2253 0522 03F17403 		add	r3, r3, #116
 2254 0526 1A68     		ldr	r2, [r3]
 2255 0528 07F5C143 		add	r3, r7, #24704
 2256 052c 1B68     		ldr	r3, [r3]
 2257 052e 9A42     		cmp	r2, r3
 2258 0530 FFF693AE 		blt	.L62
 2259              	.LBE8:
 2260              	.LBE7:
 390:..\src/SD_RTC_functions.c ****             char m_path[100] = "\\";
 2261              		.loc 1 390 0 is_stmt 1 discriminator 2
 2262 0534 07F5C043 		add	r3, r7, #24576
 2263 0538 03F17803 		add	r3, r3, #120
 2264 053c 1B68     		ldr	r3, [r3]
 2265 053e 0133     		adds	r3, r3, #1
 2266 0540 07F5C042 		add	r2, r7, #24576
 2267 0544 02F17802 		add	r2, r2, #120
 2268 0548 1360     		str	r3, [r2]
 2269              	.L58:
 390:..\src/SD_RTC_functions.c ****             char m_path[100] = "\\";
 2270              		.loc 1 390 0 is_stmt 0 discriminator 1
 2271 054a 07F5C043 		add	r3, r7, #24576
 2272 054e 03F17803 		add	r3, r3, #120
 2273 0552 1A68     		ldr	r2, [r3]
 2274 0554 07F5C043 		add	r3, r7, #24576
 2275 0558 03F16803 		add	r3, r3, #104
 2276 055c 1B68     		ldr	r3, [r3]
 2277 055e 9A42     		cmp	r2, r3
 2278 0560 FFF620AE 		blt	.L63
 2279              	.LBE6:
 418:..\src/SD_RTC_functions.c ****                 }
 419:..\src/SD_RTC_functions.c ****             }
 420:..\src/SD_RTC_functions.c ****         }
 421:..\src/SD_RTC_functions.c ****         n_idx += nyears + nmonths + ndays;
 2280              		.loc 1 421 0 is_stmt 1 discriminator 2
 2281 0564 07F5C043 		add	r3, r7, #24576
 2282 0568 03F16803 		add	r3, r3, #104
 2283 056c 1A68     		ldr	r2, [r3]
 2284 056e 07F5C143 		add	r3, r7, #24704
 2285 0572 1B68     		ldr	r3, [r3]
 2286 0574 1A44     		add	r2, r2, r3
 2287 0576 07F5C043 		add	r3, r7, #24576
 2288 057a 03F17C03 		add	r3, r3, #124
 2289 057e 1B68     		ldr	r3, [r3]
ARM GAS  C:\Users\Mattia\AppData\Local\Temp\ccnjK3ek.s 			page 49


 2290 0580 1344     		add	r3, r3, r2
 2291 0582 07F5C142 		add	r2, r7, #24704
 2292 0586 02F10802 		add	r2, r2, #8
 2293 058a 1268     		ldr	r2, [r2]
 2294 058c 1344     		add	r3, r3, r2
 2295 058e 07F5C142 		add	r2, r7, #24704
 2296 0592 02F10802 		add	r2, r2, #8
 2297 0596 1360     		str	r3, [r2]
 2298              	.LBE5:
 383:..\src/SD_RTC_functions.c ****         char y_path[100] = "\\";
 2299              		.loc 1 383 0 discriminator 2
 2300 0598 07F5C143 		add	r3, r7, #24704
 2301 059c 03F10403 		add	r3, r3, #4
 2302 05a0 1B68     		ldr	r3, [r3]
 2303 05a2 0133     		adds	r3, r3, #1
 2304 05a4 07F5C142 		add	r2, r7, #24704
 2305 05a8 02F10402 		add	r2, r2, #4
 2306 05ac 1360     		str	r3, [r2]
 2307              	.L57:
 383:..\src/SD_RTC_functions.c ****         char y_path[100] = "\\";
 2308              		.loc 1 383 0 is_stmt 0 discriminator 1
 2309 05ae 07F5C143 		add	r3, r7, #24704
 2310 05b2 03F10403 		add	r3, r3, #4
 2311 05b6 1A68     		ldr	r2, [r3]
 2312 05b8 07F5C043 		add	r3, r7, #24576
 2313 05bc 03F16C03 		add	r3, r3, #108
 2314 05c0 1B68     		ldr	r3, [r3]
 2315 05c2 9A42     		cmp	r2, r3
 2316 05c4 FFF69CAD 		blt	.L64
 2317              	.LBE4:
 422:..\src/SD_RTC_functions.c ****     }    
 423:..\src/SD_RTC_functions.c **** }...
 2318              		.loc 1 423 0 is_stmt 1
 2319 05c8 00BF     		nop
 2320 05ca 07F5C147 		add	r7, r7, #24704
 2321 05ce 1037     		adds	r7, r7, #16
 2322              		.cfi_def_cfa_offset 16
 2323 05d0 BD46     		mov	sp, r7
 2324              		.cfi_def_cfa_register 13
 2325              		@ sp needed
 2326 05d2 B0BD     		pop	{r4, r5, r7, pc}
 2327              	.L68:
 2328              		.align	2
 2329              	.L67:
 2330 05d4 48000000 		.word	.LC9
 2331 05d8 54000000 		.word	.LC12
 2332              		.cfi_endproc
 2333              	.LFE78:
 2334              		.size	Get_SD_FS, .-Get_SD_FS
 2335              		.text
 2336              	.Letext0:
 2337              		.file 2 "c:\\program files (x86)\\cypress\\psoc creator\\4.4\\psoc creator\\import\\gnu\\arm\\5.4.
 2338              		.file 3 "c:\\program files (x86)\\cypress\\psoc creator\\4.4\\psoc creator\\import\\gnu\\arm\\5.4.
 2339              		.file 4 "Generated_Source\\PSoC5/cytypes.h"
 2340              		.file 5 "..\\src\\emFile_V322c\\Code\\Include\\PSoC5/FS_Types.h"
 2341              		.file 6 "..\\src\\emFile_V322c\\Code\\Include\\PSoC5/FS.h"
 2342              		.file 7 "..\\src\\globals.h"
ARM GAS  C:\Users\Mattia\AppData\Local\Temp\ccnjK3ek.s 			page 50


 2343              		.file 8 "Generated_Source\\PSoC5/core_cm3.h"