ARM GAS  C:\Users\Mattia\AppData\Local\Temp\ccnjK3ek.s 			page 1


   1              		.syntax unified
   2              		.cpu cortex-m3
   3              		.fpu softvfp
   4              		.eabi_attribute 20, 1
   5              		.eabi_attribute 21, 1
   6              		.eabi_attribute 23, 3
   7              		.eabi_attribute 24, 1
   8              		.eabi_attribute 25, 1
   9              		.eabi_attribute 26, 1
  10              		.eabi_attribute 30, 6
  11              		.eabi_attribute 34, 1
  12              		.eabi_attribute 18, 4
  13              		.thumb
  14              		.syntax unified
  15              		.file	"SD_RTC_functions.c"
  16              		.text
  17              	.Ltext0:
  18              		.cfi_sections	.debug_frame
  19              		.section	.text.DS1302_write,"ax",%progbits
  20              		.align	2
  21              		.global	DS1302_write
  22              		.thumb
  23              		.thumb_func
  24              		.type	DS1302_write, %function
  25              	DS1302_write:
  26              	.LFB64:
  27              		.file 1 "..\\src\\SD_RTC_functions.c"
   1:..\src/SD_RTC_functions.c **** // ----------------------------------------------------------------------------
   2:..\src/SD_RTC_functions.c **** // BSD 3-Clause License
   3:..\src/SD_RTC_functions.c **** 
   4:..\src/SD_RTC_functions.c **** // Copyright (c) 2016, qbrobotics
   5:..\src/SD_RTC_functions.c **** // Copyright (c) 2017-2020, Centro "E.Piaggio"
   6:..\src/SD_RTC_functions.c **** // All rights reserved.
   7:..\src/SD_RTC_functions.c **** 
   8:..\src/SD_RTC_functions.c **** // Redistribution and use in source and binary forms, with or without
   9:..\src/SD_RTC_functions.c **** // modification, are permitted provided that the following conditions are met:
  10:..\src/SD_RTC_functions.c **** 
  11:..\src/SD_RTC_functions.c **** // * Redistributions of source code must retain the above copyright notice, this
  12:..\src/SD_RTC_functions.c **** //   list of conditions and the following disclaimer.
  13:..\src/SD_RTC_functions.c **** 
  14:..\src/SD_RTC_functions.c **** // * Redistributions in binary form must reproduce the above copyright notice,
  15:..\src/SD_RTC_functions.c **** //   this list of conditions and the following disclaimer in the documentation
  16:..\src/SD_RTC_functions.c **** //   and/or other materials provided with the distribution.
  17:..\src/SD_RTC_functions.c **** 
  18:..\src/SD_RTC_functions.c **** // * Neither the name of the copyright holder nor the names of its
  19:..\src/SD_RTC_functions.c **** //   contributors may be used to endorse or promote products derived from
  20:..\src/SD_RTC_functions.c **** //   this software without specific prior written permission.
  21:..\src/SD_RTC_functions.c **** 
  22:..\src/SD_RTC_functions.c **** // THIS SOFTWARE IS PROVIDED BY THE COPYRIGHT HOLDERS AND CONTRIBUTORS "AS IS"
  23:..\src/SD_RTC_functions.c **** // AND ANY EXPRESS OR IMPLIED WARRANTIES, INCLUDING, BUT NOT LIMITED TO, THE
  24:..\src/SD_RTC_functions.c **** // IMPLIED WARRANTIES OF MERCHANTABILITY AND FITNESS FOR A PARTICULAR PURPOSE ARE
  25:..\src/SD_RTC_functions.c **** // DISCLAIMED. IN NO EVENT SHALL THE COPYRIGHT HOLDER OR CONTRIBUTORS BE LIABLE
  26:..\src/SD_RTC_functions.c **** // FOR ANY DIRECT, INDIRECT, INCIDENTAL, SPECIAL, EXEMPLARY, OR CONSEQUENTIAL
  27:..\src/SD_RTC_functions.c **** // DAMAGES (INCLUDING, BUT NOT LIMITED TO, PROCUREMENT OF SUBSTITUTE GOODS OR
  28:..\src/SD_RTC_functions.c **** // SERVICES; LOSS OF USE, DATA, OR PROFITS; OR BUSINESS INTERRUPTION) HOWEVER
  29:..\src/SD_RTC_functions.c **** // CAUSED AND ON ANY THEORY OF LIABILITY, WHETHER IN CONTRACT, STRICT LIABILITY,
  30:..\src/SD_RTC_functions.c **** // OR TORT (INCLUDING NEGLIGENCE OR OTHERWISE) ARISING IN ANY WAY OUT OF THE USE
ARM GAS  C:\Users\Mattia\AppData\Local\Temp\ccnjK3ek.s 			page 2


  31:..\src/SD_RTC_functions.c **** // OF THIS SOFTWARE, EVEN IF ADVISED OF THE POSSIBILITY OF SUCH DAMAGE.
  32:..\src/SD_RTC_functions.c **** // POSSIBILITY OF SUCH DAMAGE.
  33:..\src/SD_RTC_functions.c **** // ----------------------------------------------------------------------------
  34:..\src/SD_RTC_functions.c **** 
  35:..\src/SD_RTC_functions.c **** /**
  36:..\src/SD_RTC_functions.c **** * \file         SD_RTC_functions.c
  37:..\src/SD_RTC_functions.c **** *
  38:..\src/SD_RTC_functions.c **** * \brief        Implementation of SD and RTC module functions.
  39:..\src/SD_RTC_functions.c **** * \date         March 20th, 2020
  40:..\src/SD_RTC_functions.c **** * \author       _Centro "E.Piaggio"_
  41:..\src/SD_RTC_functions.c **** * \copyright    (C) 2012-2016 qbrobotics. All rights reserved.
  42:..\src/SD_RTC_functions.c **** * \copyright    (C) 2017-2020 Centro "E.Piaggio". All rights reserved.
  43:..\src/SD_RTC_functions.c **** */
  44:..\src/SD_RTC_functions.c **** 
  45:..\src/SD_RTC_functions.c **** #include "SD_RTC_functions.h"
  46:..\src/SD_RTC_functions.c **** 
  47:..\src/SD_RTC_functions.c **** // --------------------------------------------------------
  48:..\src/SD_RTC_functions.c **** // DS1302_write
  49:..\src/SD_RTC_functions.c **** void DS1302_write(uint8 address, uint8 data_wr) {
  28              		.loc 1 49 0
  29              		.cfi_startproc
  30              		@ args = 0, pretend = 0, frame = 8
  31              		@ frame_needed = 1, uses_anonymous_args = 0
  32 0000 80B5     		push	{r7, lr}
  33              		.cfi_def_cfa_offset 8
  34              		.cfi_offset 7, -8
  35              		.cfi_offset 14, -4
  36 0002 82B0     		sub	sp, sp, #8
  37              		.cfi_def_cfa_offset 16
  38 0004 00AF     		add	r7, sp, #0
  39              		.cfi_def_cfa_register 7
  40 0006 0346     		mov	r3, r0
  41 0008 0A46     		mov	r2, r1
  42 000a FB71     		strb	r3, [r7, #7]
  43 000c 1346     		mov	r3, r2
  44 000e BB71     		strb	r3, [r7, #6]
  50:..\src/SD_RTC_functions.c **** 
  51:..\src/SD_RTC_functions.c ****   CLK_RTC_Write(0);  
  45              		.loc 1 51 0
  46 0010 0020     		movs	r0, #0
  47 0012 FFF7FEFF 		bl	CLK_RTC_Write
  52:..\src/SD_RTC_functions.c ****   CS_RTC_Write(1);
  48              		.loc 1 52 0
  49 0016 0120     		movs	r0, #1
  50 0018 FFF7FEFF 		bl	CS_RTC_Write
  53:..\src/SD_RTC_functions.c ****   CyDelayUs(5);
  51              		.loc 1 53 0
  52 001c 0520     		movs	r0, #5
  53 001e FFF7FEFF 		bl	CyDelayUs
  54:..\src/SD_RTC_functions.c ****   DS1302_writeByte(address);
  54              		.loc 1 54 0
  55 0022 FB79     		ldrb	r3, [r7, #7]	@ zero_extendqisi2
  56 0024 1846     		mov	r0, r3
  57 0026 FFF7FEFF 		bl	DS1302_writeByte
  55:..\src/SD_RTC_functions.c ****   DS1302_writeByte(data_wr);
  58              		.loc 1 55 0
  59 002a BB79     		ldrb	r3, [r7, #6]	@ zero_extendqisi2
ARM GAS  C:\Users\Mattia\AppData\Local\Temp\ccnjK3ek.s 			page 3


  60 002c 1846     		mov	r0, r3
  61 002e FFF7FEFF 		bl	DS1302_writeByte
  56:..\src/SD_RTC_functions.c ****   
  57:..\src/SD_RTC_functions.c ****   CS_RTC_Write(0);
  62              		.loc 1 57 0
  63 0032 0020     		movs	r0, #0
  64 0034 FFF7FEFF 		bl	CS_RTC_Write
  58:..\src/SD_RTC_functions.c ****   CyDelayUs(5);
  65              		.loc 1 58 0
  66 0038 0520     		movs	r0, #5
  67 003a FFF7FEFF 		bl	CyDelayUs
  59:..\src/SD_RTC_functions.c **** }
  68              		.loc 1 59 0
  69 003e 00BF     		nop
  70 0040 0837     		adds	r7, r7, #8
  71              		.cfi_def_cfa_offset 8
  72 0042 BD46     		mov	sp, r7
  73              		.cfi_def_cfa_register 13
  74              		@ sp needed
  75 0044 80BD     		pop	{r7, pc}
  76              		.cfi_endproc
  77              	.LFE64:
  78              		.size	DS1302_write, .-DS1302_write
  79 0046 00BF     		.section	.text.DS1302_writeByte,"ax",%progbits
  80              		.align	2
  81              		.global	DS1302_writeByte
  82              		.thumb
  83              		.thumb_func
  84              		.type	DS1302_writeByte, %function
  85              	DS1302_writeByte:
  86              	.LFB65:
  60:..\src/SD_RTC_functions.c **** 
  61:..\src/SD_RTC_functions.c **** void DS1302_writeByte(uint8 data_wr) {
  87              		.loc 1 61 0
  88              		.cfi_startproc
  89              		@ args = 0, pretend = 0, frame = 8
  90              		@ frame_needed = 1, uses_anonymous_args = 0
  91 0000 80B5     		push	{r7, lr}
  92              		.cfi_def_cfa_offset 8
  93              		.cfi_offset 7, -8
  94              		.cfi_offset 14, -4
  95 0002 82B0     		sub	sp, sp, #8
  96              		.cfi_def_cfa_offset 16
  97 0004 00AF     		add	r7, sp, #0
  98              		.cfi_def_cfa_register 7
  99 0006 0346     		mov	r3, r0
 100 0008 FB71     		strb	r3, [r7, #7]
  62:..\src/SD_RTC_functions.c ****   
  63:..\src/SD_RTC_functions.c ****   shiftOut_RTC(data_wr);
 101              		.loc 1 63 0
 102 000a FB79     		ldrb	r3, [r7, #7]	@ zero_extendqisi2
 103 000c 1846     		mov	r0, r3
 104 000e FFF7FEFF 		bl	shiftOut_RTC
  64:..\src/SD_RTC_functions.c **** 
  65:..\src/SD_RTC_functions.c **** }
 105              		.loc 1 65 0
 106 0012 00BF     		nop
ARM GAS  C:\Users\Mattia\AppData\Local\Temp\ccnjK3ek.s 			page 4


 107 0014 0837     		adds	r7, r7, #8
 108              		.cfi_def_cfa_offset 8
 109 0016 BD46     		mov	sp, r7
 110              		.cfi_def_cfa_register 13
 111              		@ sp needed
 112 0018 80BD     		pop	{r7, pc}
 113              		.cfi_endproc
 114              	.LFE65:
 115              		.size	DS1302_writeByte, .-DS1302_writeByte
 116 001a 00BF     		.section	.text.DS1302_read,"ax",%progbits
 117              		.align	2
 118              		.global	DS1302_read
 119              		.thumb
 120              		.thumb_func
 121              		.type	DS1302_read, %function
 122              	DS1302_read:
 123              	.LFB66:
  66:..\src/SD_RTC_functions.c **** 
  67:..\src/SD_RTC_functions.c **** uint8 DS1302_read(uint8 address) {
 124              		.loc 1 67 0
 125              		.cfi_startproc
 126              		@ args = 0, pretend = 0, frame = 16
 127              		@ frame_needed = 1, uses_anonymous_args = 0
 128 0000 80B5     		push	{r7, lr}
 129              		.cfi_def_cfa_offset 8
 130              		.cfi_offset 7, -8
 131              		.cfi_offset 14, -4
 132 0002 84B0     		sub	sp, sp, #16
 133              		.cfi_def_cfa_offset 24
 134 0004 00AF     		add	r7, sp, #0
 135              		.cfi_def_cfa_register 7
 136 0006 0346     		mov	r3, r0
 137 0008 FB71     		strb	r3, [r7, #7]
  68:..\src/SD_RTC_functions.c **** 
  69:..\src/SD_RTC_functions.c ****   uint8 readValue;
  70:..\src/SD_RTC_functions.c ****   CLK_RTC_Write(0); 
 138              		.loc 1 70 0
 139 000a 0020     		movs	r0, #0
 140 000c FFF7FEFF 		bl	CLK_RTC_Write
  71:..\src/SD_RTC_functions.c ****   CS_RTC_Write(1);
 141              		.loc 1 71 0
 142 0010 0120     		movs	r0, #1
 143 0012 FFF7FEFF 		bl	CS_RTC_Write
  72:..\src/SD_RTC_functions.c ****   CyDelayUs(5);
 144              		.loc 1 72 0
 145 0016 0520     		movs	r0, #5
 146 0018 FFF7FEFF 		bl	CyDelayUs
  73:..\src/SD_RTC_functions.c ****   DS1302_writeByte(address);
 147              		.loc 1 73 0
 148 001c FB79     		ldrb	r3, [r7, #7]	@ zero_extendqisi2
 149 001e 1846     		mov	r0, r3
 150 0020 FFF7FEFF 		bl	DS1302_writeByte
  74:..\src/SD_RTC_functions.c ****   readValue = DS1302_readByte();
 151              		.loc 1 74 0
 152 0024 FFF7FEFF 		bl	DS1302_readByte
 153 0028 0346     		mov	r3, r0
 154 002a FB73     		strb	r3, [r7, #15]
ARM GAS  C:\Users\Mattia\AppData\Local\Temp\ccnjK3ek.s 			page 5


  75:..\src/SD_RTC_functions.c ****   CS_RTC_Write(0);
 155              		.loc 1 75 0
 156 002c 0020     		movs	r0, #0
 157 002e FFF7FEFF 		bl	CS_RTC_Write
  76:..\src/SD_RTC_functions.c ****   CyDelayUs(5);
 158              		.loc 1 76 0
 159 0032 0520     		movs	r0, #5
 160 0034 FFF7FEFF 		bl	CyDelayUs
  77:..\src/SD_RTC_functions.c ****   return readValue;
 161              		.loc 1 77 0
 162 0038 FB7B     		ldrb	r3, [r7, #15]	@ zero_extendqisi2
  78:..\src/SD_RTC_functions.c ****   
  79:..\src/SD_RTC_functions.c **** }
 163              		.loc 1 79 0
 164 003a 1846     		mov	r0, r3
 165 003c 1037     		adds	r7, r7, #16
 166              		.cfi_def_cfa_offset 8
 167 003e BD46     		mov	sp, r7
 168              		.cfi_def_cfa_register 13
 169              		@ sp needed
 170 0040 80BD     		pop	{r7, pc}
 171              		.cfi_endproc
 172              	.LFE66:
 173              		.size	DS1302_read, .-DS1302_read
 174 0042 00BF     		.section	.text.DS1302_readByte,"ax",%progbits
 175              		.align	2
 176              		.global	DS1302_readByte
 177              		.thumb
 178              		.thumb_func
 179              		.type	DS1302_readByte, %function
 180              	DS1302_readByte:
 181              	.LFB67:
  80:..\src/SD_RTC_functions.c **** 
  81:..\src/SD_RTC_functions.c **** uint8 DS1302_readByte() {
 182              		.loc 1 81 0
 183              		.cfi_startproc
 184              		@ args = 0, pretend = 0, frame = 16
 185              		@ frame_needed = 1, uses_anonymous_args = 0
 186 0000 80B5     		push	{r7, lr}
 187              		.cfi_def_cfa_offset 8
 188              		.cfi_offset 7, -8
 189              		.cfi_offset 14, -4
 190 0002 84B0     		sub	sp, sp, #16
 191              		.cfi_def_cfa_offset 24
 192 0004 00AF     		add	r7, sp, #0
 193              		.cfi_def_cfa_register 7
  82:..\src/SD_RTC_functions.c **** 
  83:..\src/SD_RTC_functions.c ****   uint8 value = 0;
 194              		.loc 1 83 0
 195 0006 0023     		movs	r3, #0
 196 0008 FB73     		strb	r3, [r7, #15]
  84:..\src/SD_RTC_functions.c ****   uint8 currentBit = 0;
 197              		.loc 1 84 0
 198 000a 0023     		movs	r3, #0
 199 000c FB71     		strb	r3, [r7, #7]
  85:..\src/SD_RTC_functions.c ****   int i=0;
 200              		.loc 1 85 0
ARM GAS  C:\Users\Mattia\AppData\Local\Temp\ccnjK3ek.s 			page 6


 201 000e 0023     		movs	r3, #0
 202 0010 BB60     		str	r3, [r7, #8]
  86:..\src/SD_RTC_functions.c ****   for (i = 0; i < 8; ++i)
 203              		.loc 1 86 0
 204 0012 0023     		movs	r3, #0
 205 0014 BB60     		str	r3, [r7, #8]
 206 0016 19E0     		b	.L6
 207              	.L7:
  87:..\src/SD_RTC_functions.c ****   {
  88:..\src/SD_RTC_functions.c ****     currentBit = MISO_RTC_Read();
 208              		.loc 1 88 0 discriminator 3
 209 0018 FFF7FEFF 		bl	MISO_RTC_Read
 210 001c 0346     		mov	r3, r0
 211 001e FB71     		strb	r3, [r7, #7]
  89:..\src/SD_RTC_functions.c ****     value |= (currentBit << i);
 212              		.loc 1 89 0 discriminator 3
 213 0020 FA79     		ldrb	r2, [r7, #7]	@ zero_extendqisi2
 214 0022 BB68     		ldr	r3, [r7, #8]
 215 0024 02FA03F3 		lsl	r3, r2, r3
 216 0028 5AB2     		sxtb	r2, r3
 217 002a 97F90F30 		ldrsb	r3, [r7, #15]
 218 002e 1343     		orrs	r3, r3, r2
 219 0030 5BB2     		sxtb	r3, r3
 220 0032 FB73     		strb	r3, [r7, #15]
  90:..\src/SD_RTC_functions.c ****     CLK_RTC_Write(1);
 221              		.loc 1 90 0 discriminator 3
 222 0034 0120     		movs	r0, #1
 223 0036 FFF7FEFF 		bl	CLK_RTC_Write
  91:..\src/SD_RTC_functions.c ****     CyDelayUs(1);
 224              		.loc 1 91 0 discriminator 3
 225 003a 0120     		movs	r0, #1
 226 003c FFF7FEFF 		bl	CyDelayUs
  92:..\src/SD_RTC_functions.c ****     CLK_RTC_Write(0);
 227              		.loc 1 92 0 discriminator 3
 228 0040 0020     		movs	r0, #0
 229 0042 FFF7FEFF 		bl	CLK_RTC_Write
  86:..\src/SD_RTC_functions.c ****   {
 230              		.loc 1 86 0 discriminator 3
 231 0046 BB68     		ldr	r3, [r7, #8]
 232 0048 0133     		adds	r3, r3, #1
 233 004a BB60     		str	r3, [r7, #8]
 234              	.L6:
  86:..\src/SD_RTC_functions.c ****   {
 235              		.loc 1 86 0 is_stmt 0 discriminator 1
 236 004c BB68     		ldr	r3, [r7, #8]
 237 004e 072B     		cmp	r3, #7
 238 0050 E2DD     		ble	.L7
  93:..\src/SD_RTC_functions.c ****   }
  94:..\src/SD_RTC_functions.c ****   return value;
 239              		.loc 1 94 0 is_stmt 1
 240 0052 FB7B     		ldrb	r3, [r7, #15]	@ zero_extendqisi2
  95:..\src/SD_RTC_functions.c **** }
 241              		.loc 1 95 0
 242 0054 1846     		mov	r0, r3
 243 0056 1037     		adds	r7, r7, #16
 244              		.cfi_def_cfa_offset 8
 245 0058 BD46     		mov	sp, r7
ARM GAS  C:\Users\Mattia\AppData\Local\Temp\ccnjK3ek.s 			page 7


 246              		.cfi_def_cfa_register 13
 247              		@ sp needed
 248 005a 80BD     		pop	{r7, pc}
 249              		.cfi_endproc
 250              	.LFE67:
 251              		.size	DS1302_readByte, .-DS1302_readByte
 252              		.section	.text.shiftOut_RTC,"ax",%progbits
 253              		.align	2
 254              		.global	shiftOut_RTC
 255              		.thumb
 256              		.thumb_func
 257              		.type	shiftOut_RTC, %function
 258              	shiftOut_RTC:
 259              	.LFB68:
  96:..\src/SD_RTC_functions.c **** 
  97:..\src/SD_RTC_functions.c **** void shiftOut_RTC(uint8 val)
  98:..\src/SD_RTC_functions.c **** {
 260              		.loc 1 98 0
 261              		.cfi_startproc
 262              		@ args = 0, pretend = 0, frame = 16
 263              		@ frame_needed = 1, uses_anonymous_args = 0
 264 0000 80B5     		push	{r7, lr}
 265              		.cfi_def_cfa_offset 8
 266              		.cfi_offset 7, -8
 267              		.cfi_offset 14, -4
 268 0002 84B0     		sub	sp, sp, #16
 269              		.cfi_def_cfa_offset 24
 270 0004 00AF     		add	r7, sp, #0
 271              		.cfi_def_cfa_register 7
 272 0006 0346     		mov	r3, r0
 273 0008 FB71     		strb	r3, [r7, #7]
  99:..\src/SD_RTC_functions.c ****     uint8 i;
 100:..\src/SD_RTC_functions.c ****     for (i = 0; i < 8; i++)  {
 274              		.loc 1 100 0
 275 000a 0023     		movs	r3, #0
 276 000c FB73     		strb	r3, [r7, #15]
 277 000e 16E0     		b	.L10
 278              	.L11:
 101:..\src/SD_RTC_functions.c ****         MOSI_RTC_Write(!!(val & (1 << i)));
 279              		.loc 1 101 0 discriminator 3
 280 0010 FA79     		ldrb	r2, [r7, #7]	@ zero_extendqisi2
 281 0012 FB7B     		ldrb	r3, [r7, #15]	@ zero_extendqisi2
 282 0014 42FA03F3 		asr	r3, r2, r3
 283 0018 03F00103 		and	r3, r3, #1
 284 001c 002B     		cmp	r3, #0
 285 001e 14BF     		ite	ne
 286 0020 0123     		movne	r3, #1
 287 0022 0023     		moveq	r3, #0
 288 0024 DBB2     		uxtb	r3, r3
 289 0026 1846     		mov	r0, r3
 290 0028 FFF7FEFF 		bl	MOSI_RTC_Write
 102:..\src/SD_RTC_functions.c ****         CLK_RTC_Write(1);
 291              		.loc 1 102 0 discriminator 3
 292 002c 0120     		movs	r0, #1
 293 002e FFF7FEFF 		bl	CLK_RTC_Write
 103:..\src/SD_RTC_functions.c ****         CLK_RTC_Write(0);
 294              		.loc 1 103 0 discriminator 3
ARM GAS  C:\Users\Mattia\AppData\Local\Temp\ccnjK3ek.s 			page 8


 295 0032 0020     		movs	r0, #0
 296 0034 FFF7FEFF 		bl	CLK_RTC_Write
 100:..\src/SD_RTC_functions.c ****         MOSI_RTC_Write(!!(val & (1 << i)));
 297              		.loc 1 100 0 discriminator 3
 298 0038 FB7B     		ldrb	r3, [r7, #15]	@ zero_extendqisi2
 299 003a 0133     		adds	r3, r3, #1
 300 003c FB73     		strb	r3, [r7, #15]
 301              	.L10:
 100:..\src/SD_RTC_functions.c ****         MOSI_RTC_Write(!!(val & (1 << i)));
 302              		.loc 1 100 0 is_stmt 0 discriminator 1
 303 003e FB7B     		ldrb	r3, [r7, #15]	@ zero_extendqisi2
 304 0040 072B     		cmp	r3, #7
 305 0042 E5D9     		bls	.L11
 104:..\src/SD_RTC_functions.c ****     }
 105:..\src/SD_RTC_functions.c **** }
 306              		.loc 1 105 0 is_stmt 1
 307 0044 00BF     		nop
 308 0046 1037     		adds	r7, r7, #16
 309              		.cfi_def_cfa_offset 8
 310 0048 BD46     		mov	sp, r7
 311              		.cfi_def_cfa_register 13
 312              		@ sp needed
 313 004a 80BD     		pop	{r7, pc}
 314              		.cfi_endproc
 315              	.LFE68:
 316              		.size	shiftOut_RTC, .-shiftOut_RTC
 317              		.section	.text.store_RTC_current_time,"ax",%progbits
 318              		.align	2
 319              		.global	store_RTC_current_time
 320              		.thumb
 321              		.thumb_func
 322              		.type	store_RTC_current_time, %function
 323              	store_RTC_current_time:
 324              	.LFB69:
 106:..\src/SD_RTC_functions.c **** 
 107:..\src/SD_RTC_functions.c **** void store_RTC_current_time(){
 325              		.loc 1 107 0
 326              		.cfi_startproc
 327              		@ args = 0, pretend = 0, frame = 8
 328              		@ frame_needed = 1, uses_anonymous_args = 0
 329 0000 80B5     		push	{r7, lr}
 330              		.cfi_def_cfa_offset 8
 331              		.cfi_offset 7, -8
 332              		.cfi_offset 14, -4
 333 0002 82B0     		sub	sp, sp, #8
 334              		.cfi_def_cfa_offset 16
 335 0004 00AF     		add	r7, sp, #0
 336              		.cfi_def_cfa_register 7
 108:..\src/SD_RTC_functions.c ****     uint8 rtc_data;
 109:..\src/SD_RTC_functions.c ****     
 110:..\src/SD_RTC_functions.c ****     // Update current time
 111:..\src/SD_RTC_functions.c ****     rtc_data = DS1302_read(DS1302_DATE_RD);
 337              		.loc 1 111 0
 338 0006 8720     		movs	r0, #135
 339 0008 FFF7FEFF 		bl	DS1302_read
 340 000c 0346     		mov	r3, r0
 341 000e FB71     		strb	r3, [r7, #7]
ARM GAS  C:\Users\Mattia\AppData\Local\Temp\ccnjK3ek.s 			page 9


 112:..\src/SD_RTC_functions.c ****     g_mem.exp.curr_time[0] = (rtc_data/16) * 10 + rtc_data%16;
 342              		.loc 1 112 0
 343 0010 FB79     		ldrb	r3, [r7, #7]	@ zero_extendqisi2
 344 0012 1B09     		lsrs	r3, r3, #4
 345 0014 DBB2     		uxtb	r3, r3
 346 0016 1A46     		mov	r2, r3
 347 0018 9200     		lsls	r2, r2, #2
 348 001a 1344     		add	r3, r3, r2
 349 001c 5B00     		lsls	r3, r3, #1
 350 001e DAB2     		uxtb	r2, r3
 351 0020 FB79     		ldrb	r3, [r7, #7]
 352 0022 03F00F03 		and	r3, r3, #15
 353 0026 DBB2     		uxtb	r3, r3
 354 0028 1344     		add	r3, r3, r2
 355 002a DAB2     		uxtb	r2, r3
 356 002c 3A4B     		ldr	r3, .L13
 357 002e 83F82022 		strb	r2, [r3, #544]
 113:..\src/SD_RTC_functions.c ****     rtc_data = DS1302_read(DS1302_MONTH_RD);
 358              		.loc 1 113 0
 359 0032 8920     		movs	r0, #137
 360 0034 FFF7FEFF 		bl	DS1302_read
 361 0038 0346     		mov	r3, r0
 362 003a FB71     		strb	r3, [r7, #7]
 114:..\src/SD_RTC_functions.c ****     g_mem.exp.curr_time[1] = (rtc_data/16) * 10 + rtc_data%16;
 363              		.loc 1 114 0
 364 003c FB79     		ldrb	r3, [r7, #7]	@ zero_extendqisi2
 365 003e 1B09     		lsrs	r3, r3, #4
 366 0040 DBB2     		uxtb	r3, r3
 367 0042 1A46     		mov	r2, r3
 368 0044 9200     		lsls	r2, r2, #2
 369 0046 1344     		add	r3, r3, r2
 370 0048 5B00     		lsls	r3, r3, #1
 371 004a DAB2     		uxtb	r2, r3
 372 004c FB79     		ldrb	r3, [r7, #7]
 373 004e 03F00F03 		and	r3, r3, #15
 374 0052 DBB2     		uxtb	r3, r3
 375 0054 1344     		add	r3, r3, r2
 376 0056 DAB2     		uxtb	r2, r3
 377 0058 2F4B     		ldr	r3, .L13
 378 005a 83F82122 		strb	r2, [r3, #545]
 115:..\src/SD_RTC_functions.c ****     rtc_data = DS1302_read(DS1302_YEAR_RD);
 379              		.loc 1 115 0
 380 005e 8D20     		movs	r0, #141
 381 0060 FFF7FEFF 		bl	DS1302_read
 382 0064 0346     		mov	r3, r0
 383 0066 FB71     		strb	r3, [r7, #7]
 116:..\src/SD_RTC_functions.c ****     g_mem.exp.curr_time[2] = (rtc_data/16) * 10 + rtc_data%16;
 384              		.loc 1 116 0
 385 0068 FB79     		ldrb	r3, [r7, #7]	@ zero_extendqisi2
 386 006a 1B09     		lsrs	r3, r3, #4
 387 006c DBB2     		uxtb	r3, r3
 388 006e 1A46     		mov	r2, r3
 389 0070 9200     		lsls	r2, r2, #2
 390 0072 1344     		add	r3, r3, r2
 391 0074 5B00     		lsls	r3, r3, #1
 392 0076 DAB2     		uxtb	r2, r3
 393 0078 FB79     		ldrb	r3, [r7, #7]
ARM GAS  C:\Users\Mattia\AppData\Local\Temp\ccnjK3ek.s 			page 10


 394 007a 03F00F03 		and	r3, r3, #15
 395 007e DBB2     		uxtb	r3, r3
 396 0080 1344     		add	r3, r3, r2
 397 0082 DAB2     		uxtb	r2, r3
 398 0084 244B     		ldr	r3, .L13
 399 0086 83F82222 		strb	r2, [r3, #546]
 117:..\src/SD_RTC_functions.c **** 
 118:..\src/SD_RTC_functions.c **** 
 119:..\src/SD_RTC_functions.c ****     rtc_data = DS1302_read(DS1302_HOUR_RD);
 400              		.loc 1 119 0
 401 008a 8520     		movs	r0, #133
 402 008c FFF7FEFF 		bl	DS1302_read
 403 0090 0346     		mov	r3, r0
 404 0092 FB71     		strb	r3, [r7, #7]
 120:..\src/SD_RTC_functions.c ****     g_mem.exp.curr_time[3] = (rtc_data/16) * 10 + rtc_data%16;
 405              		.loc 1 120 0
 406 0094 FB79     		ldrb	r3, [r7, #7]	@ zero_extendqisi2
 407 0096 1B09     		lsrs	r3, r3, #4
 408 0098 DBB2     		uxtb	r3, r3
 409 009a 1A46     		mov	r2, r3
 410 009c 9200     		lsls	r2, r2, #2
 411 009e 1344     		add	r3, r3, r2
 412 00a0 5B00     		lsls	r3, r3, #1
 413 00a2 DAB2     		uxtb	r2, r3
 414 00a4 FB79     		ldrb	r3, [r7, #7]
 415 00a6 03F00F03 		and	r3, r3, #15
 416 00aa DBB2     		uxtb	r3, r3
 417 00ac 1344     		add	r3, r3, r2
 418 00ae DAB2     		uxtb	r2, r3
 419 00b0 194B     		ldr	r3, .L13
 420 00b2 83F82322 		strb	r2, [r3, #547]
 121:..\src/SD_RTC_functions.c ****     rtc_data = DS1302_read(DS1302_MINUTES_RD);
 421              		.loc 1 121 0
 422 00b6 8320     		movs	r0, #131
 423 00b8 FFF7FEFF 		bl	DS1302_read
 424 00bc 0346     		mov	r3, r0
 425 00be FB71     		strb	r3, [r7, #7]
 122:..\src/SD_RTC_functions.c ****     g_mem.exp.curr_time[4] = (rtc_data/16) * 10 + rtc_data%16;
 426              		.loc 1 122 0
 427 00c0 FB79     		ldrb	r3, [r7, #7]	@ zero_extendqisi2
 428 00c2 1B09     		lsrs	r3, r3, #4
 429 00c4 DBB2     		uxtb	r3, r3
 430 00c6 1A46     		mov	r2, r3
 431 00c8 9200     		lsls	r2, r2, #2
 432 00ca 1344     		add	r3, r3, r2
 433 00cc 5B00     		lsls	r3, r3, #1
 434 00ce DAB2     		uxtb	r2, r3
 435 00d0 FB79     		ldrb	r3, [r7, #7]
 436 00d2 03F00F03 		and	r3, r3, #15
 437 00d6 DBB2     		uxtb	r3, r3
 438 00d8 1344     		add	r3, r3, r2
 439 00da DAB2     		uxtb	r2, r3
 440 00dc 0E4B     		ldr	r3, .L13
 441 00de 83F82422 		strb	r2, [r3, #548]
 123:..\src/SD_RTC_functions.c ****     rtc_data = DS1302_read(DS1302_SECONDS_RD);
 442              		.loc 1 123 0
 443 00e2 8120     		movs	r0, #129
ARM GAS  C:\Users\Mattia\AppData\Local\Temp\ccnjK3ek.s 			page 11


 444 00e4 FFF7FEFF 		bl	DS1302_read
 445 00e8 0346     		mov	r3, r0
 446 00ea FB71     		strb	r3, [r7, #7]
 124:..\src/SD_RTC_functions.c ****     g_mem.exp.curr_time[5] = (rtc_data/16) * 10 + rtc_data%16;
 447              		.loc 1 124 0
 448 00ec FB79     		ldrb	r3, [r7, #7]	@ zero_extendqisi2
 449 00ee 1B09     		lsrs	r3, r3, #4
 450 00f0 DBB2     		uxtb	r3, r3
 451 00f2 1A46     		mov	r2, r3
 452 00f4 9200     		lsls	r2, r2, #2
 453 00f6 1344     		add	r3, r3, r2
 454 00f8 5B00     		lsls	r3, r3, #1
 455 00fa DAB2     		uxtb	r2, r3
 456 00fc FB79     		ldrb	r3, [r7, #7]
 457 00fe 03F00F03 		and	r3, r3, #15
 458 0102 DBB2     		uxtb	r3, r3
 459 0104 1344     		add	r3, r3, r2
 460 0106 DAB2     		uxtb	r2, r3
 461 0108 034B     		ldr	r3, .L13
 462 010a 83F82522 		strb	r2, [r3, #549]
 125:..\src/SD_RTC_functions.c **** }
 463              		.loc 1 125 0
 464 010e 00BF     		nop
 465 0110 0837     		adds	r7, r7, #8
 466              		.cfi_def_cfa_offset 8
 467 0112 BD46     		mov	sp, r7
 468              		.cfi_def_cfa_register 13
 469              		@ sp needed
 470 0114 80BD     		pop	{r7, pc}
 471              	.L14:
 472 0116 00BF     		.align	2
 473              	.L13:
 474 0118 00000000 		.word	g_mem
 475              		.cfi_endproc
 476              	.LFE69:
 477              		.size	store_RTC_current_time, .-store_RTC_current_time
 478              		.section	.text.set_RTC_time,"ax",%progbits
 479              		.align	2
 480              		.global	set_RTC_time
 481              		.thumb
 482              		.thumb_func
 483              		.type	set_RTC_time, %function
 484              	set_RTC_time:
 485              	.LFB70:
 126:..\src/SD_RTC_functions.c **** 
 127:..\src/SD_RTC_functions.c **** void set_RTC_time(){
 486              		.loc 1 127 0
 487              		.cfi_startproc
 488              		@ args = 0, pretend = 0, frame = 0
 489              		@ frame_needed = 1, uses_anonymous_args = 0
 490 0000 80B5     		push	{r7, lr}
 491              		.cfi_def_cfa_offset 8
 492              		.cfi_offset 7, -8
 493              		.cfi_offset 14, -4
 494 0002 00AF     		add	r7, sp, #0
 495              		.cfi_def_cfa_register 7
 128:..\src/SD_RTC_functions.c ****     DS1302_write(DS1302_DATE_WR, (((g_mem.exp.curr_time[0] / 10)*16) + (g_mem.exp.curr_time[0] % 10
ARM GAS  C:\Users\Mattia\AppData\Local\Temp\ccnjK3ek.s 			page 12


 496              		.loc 1 128 0
 497 0004 574B     		ldr	r3, .L16
 498 0006 93F82032 		ldrb	r3, [r3, #544]	@ zero_extendqisi2
 499 000a 574A     		ldr	r2, .L16+4
 500 000c A2FB0323 		umull	r2, r3, r2, r3
 501 0010 DB08     		lsrs	r3, r3, #3
 502 0012 DBB2     		uxtb	r3, r3
 503 0014 1B01     		lsls	r3, r3, #4
 504 0016 D8B2     		uxtb	r0, r3
 505 0018 524B     		ldr	r3, .L16
 506 001a 93F82022 		ldrb	r2, [r3, #544]	@ zero_extendqisi2
 507 001e 524B     		ldr	r3, .L16+4
 508 0020 A3FB0213 		umull	r1, r3, r3, r2
 509 0024 D908     		lsrs	r1, r3, #3
 510 0026 0B46     		mov	r3, r1
 511 0028 9B00     		lsls	r3, r3, #2
 512 002a 0B44     		add	r3, r3, r1
 513 002c 5B00     		lsls	r3, r3, #1
 514 002e D31A     		subs	r3, r2, r3
 515 0030 DBB2     		uxtb	r3, r3
 516 0032 0344     		add	r3, r3, r0
 517 0034 DBB2     		uxtb	r3, r3
 518 0036 1946     		mov	r1, r3
 519 0038 8620     		movs	r0, #134
 520 003a FFF7FEFF 		bl	DS1302_write
 129:..\src/SD_RTC_functions.c ****     DS1302_write(DS1302_MONTH_WR, (((g_mem.exp.curr_time[1] / 10)*16) + (g_mem.exp.curr_time[1] % 1
 521              		.loc 1 129 0
 522 003e 494B     		ldr	r3, .L16
 523 0040 93F82132 		ldrb	r3, [r3, #545]	@ zero_extendqisi2
 524 0044 484A     		ldr	r2, .L16+4
 525 0046 A2FB0323 		umull	r2, r3, r2, r3
 526 004a DB08     		lsrs	r3, r3, #3
 527 004c DBB2     		uxtb	r3, r3
 528 004e 1B01     		lsls	r3, r3, #4
 529 0050 D8B2     		uxtb	r0, r3
 530 0052 444B     		ldr	r3, .L16
 531 0054 93F82122 		ldrb	r2, [r3, #545]	@ zero_extendqisi2
 532 0058 434B     		ldr	r3, .L16+4
 533 005a A3FB0213 		umull	r1, r3, r3, r2
 534 005e D908     		lsrs	r1, r3, #3
 535 0060 0B46     		mov	r3, r1
 536 0062 9B00     		lsls	r3, r3, #2
 537 0064 0B44     		add	r3, r3, r1
 538 0066 5B00     		lsls	r3, r3, #1
 539 0068 D31A     		subs	r3, r2, r3
 540 006a DBB2     		uxtb	r3, r3
 541 006c 0344     		add	r3, r3, r0
 542 006e DBB2     		uxtb	r3, r3
 543 0070 1946     		mov	r1, r3
 544 0072 8820     		movs	r0, #136
 545 0074 FFF7FEFF 		bl	DS1302_write
 130:..\src/SD_RTC_functions.c ****     DS1302_write(DS1302_YEAR_WR, (((g_mem.exp.curr_time[2] / 10)*16) + (g_mem.exp.curr_time[2] % 10
 546              		.loc 1 130 0
 547 0078 3A4B     		ldr	r3, .L16
 548 007a 93F82232 		ldrb	r3, [r3, #546]	@ zero_extendqisi2
 549 007e 3A4A     		ldr	r2, .L16+4
 550 0080 A2FB0323 		umull	r2, r3, r2, r3
ARM GAS  C:\Users\Mattia\AppData\Local\Temp\ccnjK3ek.s 			page 13


 551 0084 DB08     		lsrs	r3, r3, #3
 552 0086 DBB2     		uxtb	r3, r3
 553 0088 1B01     		lsls	r3, r3, #4
 554 008a D8B2     		uxtb	r0, r3
 555 008c 354B     		ldr	r3, .L16
 556 008e 93F82222 		ldrb	r2, [r3, #546]	@ zero_extendqisi2
 557 0092 354B     		ldr	r3, .L16+4
 558 0094 A3FB0213 		umull	r1, r3, r3, r2
 559 0098 D908     		lsrs	r1, r3, #3
 560 009a 0B46     		mov	r3, r1
 561 009c 9B00     		lsls	r3, r3, #2
 562 009e 0B44     		add	r3, r3, r1
 563 00a0 5B00     		lsls	r3, r3, #1
 564 00a2 D31A     		subs	r3, r2, r3
 565 00a4 DBB2     		uxtb	r3, r3
 566 00a6 0344     		add	r3, r3, r0
 567 00a8 DBB2     		uxtb	r3, r3
 568 00aa 1946     		mov	r1, r3
 569 00ac 8C20     		movs	r0, #140
 570 00ae FFF7FEFF 		bl	DS1302_write
 131:..\src/SD_RTC_functions.c ****     DS1302_write(DS1302_HOUR_WR, (((g_mem.exp.curr_time[3] / 10)*16) + (g_mem.exp.curr_time[3] % 10
 571              		.loc 1 131 0
 572 00b2 2C4B     		ldr	r3, .L16
 573 00b4 93F82332 		ldrb	r3, [r3, #547]	@ zero_extendqisi2
 574 00b8 2B4A     		ldr	r2, .L16+4
 575 00ba A2FB0323 		umull	r2, r3, r2, r3
 576 00be DB08     		lsrs	r3, r3, #3
 577 00c0 DBB2     		uxtb	r3, r3
 578 00c2 1B01     		lsls	r3, r3, #4
 579 00c4 D8B2     		uxtb	r0, r3
 580 00c6 274B     		ldr	r3, .L16
 581 00c8 93F82322 		ldrb	r2, [r3, #547]	@ zero_extendqisi2
 582 00cc 264B     		ldr	r3, .L16+4
 583 00ce A3FB0213 		umull	r1, r3, r3, r2
 584 00d2 D908     		lsrs	r1, r3, #3
 585 00d4 0B46     		mov	r3, r1
 586 00d6 9B00     		lsls	r3, r3, #2
 587 00d8 0B44     		add	r3, r3, r1
 588 00da 5B00     		lsls	r3, r3, #1
 589 00dc D31A     		subs	r3, r2, r3
 590 00de DBB2     		uxtb	r3, r3
 591 00e0 0344     		add	r3, r3, r0
 592 00e2 DBB2     		uxtb	r3, r3
 593 00e4 1946     		mov	r1, r3
 594 00e6 8420     		movs	r0, #132
 595 00e8 FFF7FEFF 		bl	DS1302_write
 132:..\src/SD_RTC_functions.c ****     DS1302_write(DS1302_MINUTES_WR, (((g_mem.exp.curr_time[4] / 10)*16) + (g_mem.exp.curr_time[4] %
 596              		.loc 1 132 0
 597 00ec 1D4B     		ldr	r3, .L16
 598 00ee 93F82432 		ldrb	r3, [r3, #548]	@ zero_extendqisi2
 599 00f2 1D4A     		ldr	r2, .L16+4
 600 00f4 A2FB0323 		umull	r2, r3, r2, r3
 601 00f8 DB08     		lsrs	r3, r3, #3
 602 00fa DBB2     		uxtb	r3, r3
 603 00fc 1B01     		lsls	r3, r3, #4
 604 00fe D8B2     		uxtb	r0, r3
 605 0100 184B     		ldr	r3, .L16
ARM GAS  C:\Users\Mattia\AppData\Local\Temp\ccnjK3ek.s 			page 14


 606 0102 93F82422 		ldrb	r2, [r3, #548]	@ zero_extendqisi2
 607 0106 184B     		ldr	r3, .L16+4
 608 0108 A3FB0213 		umull	r1, r3, r3, r2
 609 010c D908     		lsrs	r1, r3, #3
 610 010e 0B46     		mov	r3, r1
 611 0110 9B00     		lsls	r3, r3, #2
 612 0112 0B44     		add	r3, r3, r1
 613 0114 5B00     		lsls	r3, r3, #1
 614 0116 D31A     		subs	r3, r2, r3
 615 0118 DBB2     		uxtb	r3, r3
 616 011a 0344     		add	r3, r3, r0
 617 011c DBB2     		uxtb	r3, r3
 618 011e 1946     		mov	r1, r3
 619 0120 8220     		movs	r0, #130
 620 0122 FFF7FEFF 		bl	DS1302_write
 133:..\src/SD_RTC_functions.c ****     DS1302_write(DS1302_SECONDS_WR, (((g_mem.exp.curr_time[5] / 10)*16) + (g_mem.exp.curr_time[5] %
 621              		.loc 1 133 0
 622 0126 0F4B     		ldr	r3, .L16
 623 0128 93F82532 		ldrb	r3, [r3, #549]	@ zero_extendqisi2
 624 012c 0E4A     		ldr	r2, .L16+4
 625 012e A2FB0323 		umull	r2, r3, r2, r3
 626 0132 DB08     		lsrs	r3, r3, #3
 627 0134 DBB2     		uxtb	r3, r3
 628 0136 1B01     		lsls	r3, r3, #4
 629 0138 D8B2     		uxtb	r0, r3
 630 013a 0A4B     		ldr	r3, .L16
 631 013c 93F82522 		ldrb	r2, [r3, #549]	@ zero_extendqisi2
 632 0140 094B     		ldr	r3, .L16+4
 633 0142 A3FB0213 		umull	r1, r3, r3, r2
 634 0146 D908     		lsrs	r1, r3, #3
 635 0148 0B46     		mov	r3, r1
 636 014a 9B00     		lsls	r3, r3, #2
 637 014c 0B44     		add	r3, r3, r1
 638 014e 5B00     		lsls	r3, r3, #1
 639 0150 D31A     		subs	r3, r2, r3
 640 0152 DBB2     		uxtb	r3, r3
 641 0154 0344     		add	r3, r3, r0
 642 0156 DBB2     		uxtb	r3, r3
 643 0158 1946     		mov	r1, r3
 644 015a 8020     		movs	r0, #128
 645 015c FFF7FEFF 		bl	DS1302_write
 134:..\src/SD_RTC_functions.c **** }
 646              		.loc 1 134 0
 647 0160 00BF     		nop
 648 0162 80BD     		pop	{r7, pc}
 649              	.L17:
 650              		.align	2
 651              	.L16:
 652 0164 00000000 		.word	g_mem
 653 0168 CDCCCCCC 		.word	-858993459
 654              		.cfi_endproc
 655              	.LFE70:
 656              		.size	set_RTC_time, .-set_RTC_time
 657              		.section	.rodata
 658              		.align	2
 659              	.LC2:
 660 0000 5C257300 		.ascii	"\\%s\000"
ARM GAS  C:\Users\Mattia\AppData\Local\Temp\ccnjK3ek.s 			page 15


 661              		.align	2
 662              	.LC3:
 663 0004 25735C32 		.ascii	"%s\\20%02d\000"
 663      30253032 
 663      6400
 664 000e 0000     		.align	2
 665              	.LC4:
 666 0010 25735C25 		.ascii	"%s\\%02d\000"
 666      30326400 
 667              		.align	2
 668              	.LC5:
 669 0018 25735C25 		.ascii	"%s\\%s_%d.csv\000"
 669      735F2564 
 669      2E637376 
 669      00
 670 0025 000000   		.align	2
 671              	.LC6:
 672 0028 7200     		.ascii	"r\000"
 673 002a 0000     		.align	2
 674              	.LC7:
 675 002c 6100     		.ascii	"a\000"
 676 002e 0000     		.align	2
 677              	.LC8:
 678 0030 7700     		.ascii	"w\000"
 679 0032 0000     		.align	2
 680              	.LC0:
 681 0034 55736553 		.ascii	"UseStats\000"
 681      74617473 
 681      00
 682 003d 00       		.space	1
 683 003e 0000     		.align	2
 684              	.LC1:
 685 0040 50617261 		.ascii	"Param\000"
 685      6D00
 686 0046 00       		.space	1
 687              		.section	.text.InitSD_FS,"ax",%progbits
 688              		.align	2
 689              		.global	InitSD_FS
 690              		.thumb
 691              		.thumb_func
 692              		.type	InitSD_FS, %function
 693              	InitSD_FS:
 694              	.LFB71:
 135:..\src/SD_RTC_functions.c **** 
 136:..\src/SD_RTC_functions.c **** /*******************************************************************************
 137:..\src/SD_RTC_functions.c **** * Function Name: Init SD Filesystem
 138:..\src/SD_RTC_functions.c **** *********************************************************************************/
 139:..\src/SD_RTC_functions.c **** void InitSD_FS()
 140:..\src/SD_RTC_functions.c **** {
 695              		.loc 1 140 0
 696              		.cfi_startproc
 697              		@ args = 0, pretend = 0, frame = 5248
 698              		@ frame_needed = 1, uses_anonymous_args = 0
 699 0000 90B5     		push	{r4, r7, lr}
 700              		.cfi_def_cfa_offset 12
 701              		.cfi_offset 4, -12
 702              		.cfi_offset 7, -8
ARM GAS  C:\Users\Mattia\AppData\Local\Temp\ccnjK3ek.s 			page 16


 703              		.cfi_offset 14, -4
 704 0002 ADF5A45D 		sub	sp, sp, #5248
 705              		.cfi_def_cfa_offset 5260
 706 0006 83B0     		sub	sp, sp, #12
 707              		.cfi_def_cfa_offset 5272
 708 0008 02AF     		add	r7, sp, #8
 709              		.cfi_def_cfa 7, 5264
 141:..\src/SD_RTC_functions.c ****     //char sdFile[12] = "";              // No long file name (LFN) support enabled. Max 12 chars f
 142:..\src/SD_RTC_functions.c **** 
 143:..\src/SD_RTC_functions.c ****     char sdDir[100] = "";
 710              		.loc 1 143 0
 711 000a 0023     		movs	r3, #0
 712 000c 07F5A052 		add	r2, r7, #5120
 713 0010 02F10402 		add	r2, r2, #4
 714 0014 1360     		str	r3, [r2]
 715 0016 07F5A053 		add	r3, r7, #5120
 716 001a 03F10803 		add	r3, r3, #8
 717 001e 6022     		movs	r2, #96
 718 0020 0021     		movs	r1, #0
 719 0022 1846     		mov	r0, r3
 720 0024 FFF7FEFF 		bl	memset
 144:..\src/SD_RTC_functions.c ****     char lastsdParam[100] = "";
 721              		.loc 1 144 0
 722 0028 0023     		movs	r3, #0
 723 002a 07F59D52 		add	r2, r7, #5024
 724 002e 1360     		str	r3, [r2]
 725 0030 07F59D53 		add	r3, r7, #5024
 726 0034 03F10403 		add	r3, r3, #4
 727 0038 6022     		movs	r2, #96
 728 003a 0021     		movs	r1, #0
 729 003c 1846     		mov	r0, r3
 730 003e FFF7FEFF 		bl	memset
 145:..\src/SD_RTC_functions.c ****     char info_[2500] = "";
 731              		.loc 1 145 0
 732 0042 07F6DC13 		addw	r3, r7, #2524
 733 0046 0022     		movs	r2, #0
 734 0048 1A60     		str	r2, [r3]
 735 004a 0433     		adds	r3, r3, #4
 736 004c 4FF41C62 		mov	r2, #2496
 737 0050 0021     		movs	r1, #0
 738 0052 1846     		mov	r0, r3
 739 0054 FFF7FEFF 		bl	memset
 146:..\src/SD_RTC_functions.c ****     char info_read_[2500] = "";
 740              		.loc 1 146 0
 741 0058 07F12003 		add	r3, r7, #32
 742 005c 083B     		subs	r3, r3, #8
 743 005e 0022     		movs	r2, #0
 744 0060 1A60     		str	r2, [r3]
 745 0062 0433     		adds	r3, r3, #4
 746 0064 4FF41C62 		mov	r2, #2496
 747 0068 0021     		movs	r1, #0
 748 006a 1846     		mov	r0, r3
 749 006c FFF7FEFF 		bl	memset
 147:..\src/SD_RTC_functions.c ****     char Data_filename[10] = "UseStats";
 750              		.loc 1 147 0
 751 0070 07F12004 		add	r4, r7, #32
 752 0074 143C     		subs	r4, r4, #20
ARM GAS  C:\Users\Mattia\AppData\Local\Temp\ccnjK3ek.s 			page 17


 753 0076 AE4A     		ldr	r2, .L26
 754 0078 2346     		mov	r3, r4
 755 007a 07CA     		ldmia	r2, {r0, r1, r2}
 756 007c 03C3     		stmia	r3!, {r0, r1}
 757 007e 1A70     		strb	r2, [r3]
 758 0080 0023     		movs	r3, #0
 759 0082 6372     		strb	r3, [r4, #9]
 148:..\src/SD_RTC_functions.c ****     char Param_filename[7] = "Param";
 760              		.loc 1 148 0
 761 0084 07F12003 		add	r3, r7, #32
 762 0088 1C3B     		subs	r3, r3, #28
 763 008a AA49     		ldr	r1, .L26+4
 764 008c 1A46     		mov	r2, r3
 765 008e 03C9     		ldmia	r1, {r0, r1}
 766 0090 1060     		str	r0, [r2]
 767 0092 0432     		adds	r2, r2, #4
 768 0094 1180     		strh	r1, [r2]	@ movhi
 769 0096 0022     		movs	r2, #0
 770 0098 9A71     		strb	r2, [r3, #6]
 149:..\src/SD_RTC_functions.c ****     uint8 Write_new_info = TRUE;
 771              		.loc 1 149 0
 772 009a 0123     		movs	r3, #1
 773 009c 07F5A352 		add	r2, r7, #5216
 774 00a0 02F11F02 		add	r2, r2, #31
 775 00a4 1370     		strb	r3, [r2]
 150:..\src/SD_RTC_functions.c ****     uint8 num_files = 0;
 776              		.loc 1 150 0
 777 00a6 0023     		movs	r3, #0
 778 00a8 07F5A352 		add	r2, r7, #5216
 779 00ac 02F11E02 		add	r2, r2, #30
 780 00b0 1370     		strb	r3, [r2]
 151:..\src/SD_RTC_functions.c ****     FS_FILE* pParam;
 152:..\src/SD_RTC_functions.c ****     FS_FILE* pFile_read;
 153:..\src/SD_RTC_functions.c ****     FS_DIR *pDir;
 154:..\src/SD_RTC_functions.c ****     uint32 i = 0;
 781              		.loc 1 154 0
 782 00b2 0023     		movs	r3, #0
 783 00b4 07F5A352 		add	r2, r7, #5216
 784 00b8 02F11802 		add	r2, r2, #24
 785 00bc 1360     		str	r3, [r2]
 155:..\src/SD_RTC_functions.c ****     
 156:..\src/SD_RTC_functions.c ****     FS_Init();
 786              		.loc 1 156 0
 787 00be FFF7FEFF 		bl	FS_Init
 157:..\src/SD_RTC_functions.c ****     FS_FAT_SupportLFN();
 788              		.loc 1 157 0
 789 00c2 FFF7FEFF 		bl	FS_FAT_SupportLFN
 158:..\src/SD_RTC_functions.c ****         
 159:..\src/SD_RTC_functions.c ****     // Create Filesystem with USER\YYYY\MM\DD folder
 160:..\src/SD_RTC_functions.c ****     sprintf(sdDir, "\\%s", g_mem.user[g_mem.dev.user_id].user_code_string); 
 790              		.loc 1 160 0
 791 00c6 9C4B     		ldr	r3, .L26+8
 792 00c8 93F8AB30 		ldrb	r3, [r3, #171]	@ zero_extendqisi2
 793 00cc 1233     		adds	r3, r3, #18
 794 00ce 5B01     		lsls	r3, r3, #5
 795 00d0 994A     		ldr	r2, .L26+8
 796 00d2 1A44     		add	r2, r2, r3
ARM GAS  C:\Users\Mattia\AppData\Local\Temp\ccnjK3ek.s 			page 18


 797 00d4 07F5A053 		add	r3, r7, #5120
 798 00d8 03F10403 		add	r3, r3, #4
 799 00dc 9749     		ldr	r1, .L26+12
 800 00de 1846     		mov	r0, r3
 801 00e0 FFF7FEFF 		bl	sprintf
 161:..\src/SD_RTC_functions.c ****     FS_MkDir(sdDir);
 802              		.loc 1 161 0
 803 00e4 07F5A053 		add	r3, r7, #5120
 804 00e8 03F10403 		add	r3, r3, #4
 805 00ec 1846     		mov	r0, r3
 806 00ee FFF7FEFF 		bl	FS_MkDir
 162:..\src/SD_RTC_functions.c ****     sprintf(sdDir, "%s\\20%02d", sdDir, g_mem.exp.curr_time[2]); 
 807              		.loc 1 162 0
 808 00f2 914B     		ldr	r3, .L26+8
 809 00f4 93F82232 		ldrb	r3, [r3, #546]	@ zero_extendqisi2
 810 00f8 07F5A052 		add	r2, r7, #5120
 811 00fc 02F10402 		add	r2, r2, #4
 812 0100 07F5A050 		add	r0, r7, #5120
 813 0104 00F10400 		add	r0, r0, #4
 814 0108 8D49     		ldr	r1, .L26+16
 815 010a FFF7FEFF 		bl	sprintf
 163:..\src/SD_RTC_functions.c ****     FS_MkDir(sdDir);
 816              		.loc 1 163 0
 817 010e 07F5A053 		add	r3, r7, #5120
 818 0112 03F10403 		add	r3, r3, #4
 819 0116 1846     		mov	r0, r3
 820 0118 FFF7FEFF 		bl	FS_MkDir
 164:..\src/SD_RTC_functions.c ****     sprintf(sdDir, "%s\\%02d", sdDir, g_mem.exp.curr_time[1]);
 821              		.loc 1 164 0
 822 011c 864B     		ldr	r3, .L26+8
 823 011e 93F82132 		ldrb	r3, [r3, #545]	@ zero_extendqisi2
 824 0122 07F5A052 		add	r2, r7, #5120
 825 0126 02F10402 		add	r2, r2, #4
 826 012a 07F5A050 		add	r0, r7, #5120
 827 012e 00F10400 		add	r0, r0, #4
 828 0132 8449     		ldr	r1, .L26+20
 829 0134 FFF7FEFF 		bl	sprintf
 165:..\src/SD_RTC_functions.c ****     FS_MkDir(sdDir);
 830              		.loc 1 165 0
 831 0138 07F5A053 		add	r3, r7, #5120
 832 013c 03F10403 		add	r3, r3, #4
 833 0140 1846     		mov	r0, r3
 834 0142 FFF7FEFF 		bl	FS_MkDir
 166:..\src/SD_RTC_functions.c ****     sprintf(sdDir, "%s\\%02d", sdDir, g_mem.exp.curr_time[0]);
 835              		.loc 1 166 0
 836 0146 7C4B     		ldr	r3, .L26+8
 837 0148 93F82032 		ldrb	r3, [r3, #544]	@ zero_extendqisi2
 838 014c 07F5A052 		add	r2, r7, #5120
 839 0150 02F10402 		add	r2, r2, #4
 840 0154 07F5A050 		add	r0, r7, #5120
 841 0158 00F10400 		add	r0, r0, #4
 842 015c 7949     		ldr	r1, .L26+20
 843 015e FFF7FEFF 		bl	sprintf
 167:..\src/SD_RTC_functions.c ****     FS_MkDir(sdDir);
 844              		.loc 1 167 0
 845 0162 07F5A053 		add	r3, r7, #5120
 846 0166 03F10403 		add	r3, r3, #4
ARM GAS  C:\Users\Mattia\AppData\Local\Temp\ccnjK3ek.s 			page 19


 847 016a 1846     		mov	r0, r3
 848 016c FFF7FEFF 		bl	FS_MkDir
 168:..\src/SD_RTC_functions.c ****     
 169:..\src/SD_RTC_functions.c ****     // Create param info
 170:..\src/SD_RTC_functions.c ****     prepare_SD_param_info(info_);
 849              		.loc 1 170 0
 850 0170 07F6DC13 		addw	r3, r7, #2524
 851 0174 1846     		mov	r0, r3
 852 0176 FFF7FEFF 		bl	prepare_SD_param_info
 171:..\src/SD_RTC_functions.c ****             
 172:..\src/SD_RTC_functions.c ****     // Open folder and count the number of files, it should be even (1 param and 1 data file)
 173:..\src/SD_RTC_functions.c ****     pDir = FS_OpenDir(sdDir);
 853              		.loc 1 173 0
 854 017a 07F5A053 		add	r3, r7, #5120
 855 017e 03F10403 		add	r3, r3, #4
 856 0182 1846     		mov	r0, r3
 857 0184 FFF7FEFF 		bl	FS_OpenDir
 858 0188 07F5A353 		add	r3, r7, #5216
 859 018c 03F11403 		add	r3, r3, #20
 860 0190 1860     		str	r0, [r3]
 174:..\src/SD_RTC_functions.c ****     num_files = FS_GetNumFiles(pDir);    
 861              		.loc 1 174 0
 862 0192 07F5A353 		add	r3, r7, #5216
 863 0196 03F11403 		add	r3, r3, #20
 864 019a 1868     		ldr	r0, [r3]
 865 019c FFF7FEFF 		bl	FS_GetNumFiles
 866 01a0 0346     		mov	r3, r0
 867 01a2 07F5A352 		add	r2, r7, #5216
 868 01a6 02F11E02 		add	r2, r2, #30
 869 01aa 1370     		strb	r3, [r2]
 175:..\src/SD_RTC_functions.c **** 
 176:..\src/SD_RTC_functions.c ****     // Prepare filenames
 177:..\src/SD_RTC_functions.c **** 
 178:..\src/SD_RTC_functions.c ****     if (num_files != 0) {
 870              		.loc 1 178 0
 871 01ac 07F5A353 		add	r3, r7, #5216
 872 01b0 03F11E03 		add	r3, r3, #30
 873 01b4 1B78     		ldrb	r3, [r3]	@ zero_extendqisi2
 874 01b6 002B     		cmp	r3, #0
 875 01b8 00F0CE80 		beq	.L19
 179:..\src/SD_RTC_functions.c ****         // The directory is not empty
 180:..\src/SD_RTC_functions.c ****          
 181:..\src/SD_RTC_functions.c ****         // Decide whether to create new param and data files or not
 182:..\src/SD_RTC_functions.c ****         sprintf(lastsdParam, "%s\\%s_%d.csv", sdDir, Param_filename, (num_files/2) - 1);
 876              		.loc 1 182 0
 877 01bc 07F5A353 		add	r3, r7, #5216
 878 01c0 03F11E03 		add	r3, r3, #30
 879 01c4 1B78     		ldrb	r3, [r3]	@ zero_extendqisi2
 880 01c6 5B08     		lsrs	r3, r3, #1
 881 01c8 DBB2     		uxtb	r3, r3
 882 01ca 5A1E     		subs	r2, r3, #1
 883 01cc 07F12003 		add	r3, r7, #32
 884 01d0 1C3B     		subs	r3, r3, #28
 885 01d2 07F5A051 		add	r1, r7, #5120
 886 01d6 01F10401 		add	r1, r1, #4
 887 01da 07F59D50 		add	r0, r7, #5024
 888 01de 0092     		str	r2, [sp]
ARM GAS  C:\Users\Mattia\AppData\Local\Temp\ccnjK3ek.s 			page 20


 889 01e0 0A46     		mov	r2, r1
 890 01e2 5949     		ldr	r1, .L26+24
 891 01e4 FFF7FEFF 		bl	sprintf
 183:..\src/SD_RTC_functions.c **** 
 184:..\src/SD_RTC_functions.c ****         pFile_read = FS_FOpen(lastsdParam, "r"); 
 892              		.loc 1 184 0
 893 01e8 07F59D53 		add	r3, r7, #5024
 894 01ec 5749     		ldr	r1, .L26+28
 895 01ee 1846     		mov	r0, r3
 896 01f0 FFF7FEFF 		bl	FS_FOpen
 897 01f4 07F5A353 		add	r3, r7, #5216
 898 01f8 03F11003 		add	r3, r3, #16
 899 01fc 1860     		str	r0, [r3]
 185:..\src/SD_RTC_functions.c ****         if (pFile_read != 0) {
 900              		.loc 1 185 0
 901 01fe 07F5A353 		add	r3, r7, #5216
 902 0202 03F11003 		add	r3, r3, #16
 903 0206 1B68     		ldr	r3, [r3]
 904 0208 002B     		cmp	r3, #0
 905 020a 00F08880 		beq	.L20
 186:..\src/SD_RTC_functions.c ****             i = FS_FRead(info_read_, 1, sizeof(info_read_) - 1, pFile_read);
 906              		.loc 1 186 0
 907 020e 07F12000 		add	r0, r7, #32
 908 0212 0838     		subs	r0, r0, #8
 909 0214 07F5A353 		add	r3, r7, #5216
 910 0218 03F11003 		add	r3, r3, #16
 911 021c 1B68     		ldr	r3, [r3]
 912 021e 40F6C312 		movw	r2, #2499
 913 0222 0121     		movs	r1, #1
 914 0224 FFF7FEFF 		bl	FS_FRead
 915 0228 07F5A353 		add	r3, r7, #5216
 916 022c 03F11803 		add	r3, r3, #24
 917 0230 1860     		str	r0, [r3]
 187:..\src/SD_RTC_functions.c ****             info_read_[i] = 0;
 918              		.loc 1 187 0
 919 0232 07F12003 		add	r3, r7, #32
 920 0236 083B     		subs	r3, r3, #8
 921 0238 07F5A352 		add	r2, r7, #5216
 922 023c 02F11802 		add	r2, r2, #24
 923 0240 1268     		ldr	r2, [r2]
 924 0242 1344     		add	r3, r3, r2
 925 0244 0022     		movs	r2, #0
 926 0246 1A70     		strb	r2, [r3]
 188:..\src/SD_RTC_functions.c ****             if (strcmp(info_, info_read_)) {    // if different
 927              		.loc 1 188 0
 928 0248 07F12003 		add	r3, r7, #32
 929 024c 083B     		subs	r3, r3, #8
 930 024e 07F6DC12 		addw	r2, r7, #2524
 931 0252 1946     		mov	r1, r3
 932 0254 1046     		mov	r0, r2
 933 0256 FFF7FEFF 		bl	strcmp
 934 025a 0346     		mov	r3, r0
 935 025c 002B     		cmp	r3, #0
 936 025e 2ED0     		beq	.L21
 189:..\src/SD_RTC_functions.c ****                 Write_new_info = TRUE;
 937              		.loc 1 189 0
 938 0260 0123     		movs	r3, #1
ARM GAS  C:\Users\Mattia\AppData\Local\Temp\ccnjK3ek.s 			page 21


 939 0262 07F5A352 		add	r2, r7, #5216
 940 0266 02F11F02 		add	r2, r2, #31
 941 026a 1370     		strb	r3, [r2]
 190:..\src/SD_RTC_functions.c ****                 sprintf(sdParam, "%s\\%s_%d.csv", sdDir, Param_filename, num_files/2);  // new para
 942              		.loc 1 190 0
 943 026c 07F5A353 		add	r3, r7, #5216
 944 0270 03F11E03 		add	r3, r3, #30
 945 0274 1B78     		ldrb	r3, [r3]	@ zero_extendqisi2
 946 0276 5B08     		lsrs	r3, r3, #1
 947 0278 DBB2     		uxtb	r3, r3
 948 027a 1946     		mov	r1, r3
 949 027c 07F12003 		add	r3, r7, #32
 950 0280 1C3B     		subs	r3, r3, #28
 951 0282 07F5A052 		add	r2, r7, #5120
 952 0286 02F10402 		add	r2, r2, #4
 953 028a 0091     		str	r1, [sp]
 954 028c 2E49     		ldr	r1, .L26+24
 955 028e 3048     		ldr	r0, .L26+32
 956 0290 FFF7FEFF 		bl	sprintf
 191:..\src/SD_RTC_functions.c ****                 sprintf(sdFile, "%s\\%s_%d.csv", sdDir, Data_filename, num_files/2);    // new data
 957              		.loc 1 191 0
 958 0294 07F5A353 		add	r3, r7, #5216
 959 0298 03F11E03 		add	r3, r3, #30
 960 029c 1B78     		ldrb	r3, [r3]	@ zero_extendqisi2
 961 029e 5B08     		lsrs	r3, r3, #1
 962 02a0 DBB2     		uxtb	r3, r3
 963 02a2 1946     		mov	r1, r3
 964 02a4 07F12003 		add	r3, r7, #32
 965 02a8 143B     		subs	r3, r3, #20
 966 02aa 07F5A052 		add	r2, r7, #5120
 967 02ae 02F10402 		add	r2, r2, #4
 968 02b2 0091     		str	r1, [sp]
 969 02b4 2449     		ldr	r1, .L26+24
 970 02b6 2748     		ldr	r0, .L26+36
 971 02b8 FFF7FEFF 		bl	sprintf
 972 02bc 2FE0     		b	.L20
 973              	.L21:
 192:..\src/SD_RTC_functions.c ****             }
 193:..\src/SD_RTC_functions.c ****             else {
 194:..\src/SD_RTC_functions.c ****                 sprintf(sdParam, "%s\\%s_%d.csv", sdDir, Param_filename, (num_files/2)-1);  // last
 974              		.loc 1 194 0
 975 02be 07F5A353 		add	r3, r7, #5216
 976 02c2 03F11E03 		add	r3, r3, #30
 977 02c6 1B78     		ldrb	r3, [r3]	@ zero_extendqisi2
 978 02c8 5B08     		lsrs	r3, r3, #1
 979 02ca DBB2     		uxtb	r3, r3
 980 02cc 5A1E     		subs	r2, r3, #1
 981 02ce 07F12003 		add	r3, r7, #32
 982 02d2 1C3B     		subs	r3, r3, #28
 983 02d4 07F5A051 		add	r1, r7, #5120
 984 02d8 01F10401 		add	r1, r1, #4
 985 02dc 0092     		str	r2, [sp]
 986 02de 0A46     		mov	r2, r1
 987 02e0 1949     		ldr	r1, .L26+24
 988 02e2 1B48     		ldr	r0, .L26+32
 989 02e4 FFF7FEFF 		bl	sprintf
 195:..\src/SD_RTC_functions.c ****                 sprintf(sdFile, "%s\\%s_%d.csv", sdDir, Data_filename, (num_files/2)-1);    // last
ARM GAS  C:\Users\Mattia\AppData\Local\Temp\ccnjK3ek.s 			page 22


 990              		.loc 1 195 0
 991 02e8 07F5A353 		add	r3, r7, #5216
 992 02ec 03F11E03 		add	r3, r3, #30
 993 02f0 1B78     		ldrb	r3, [r3]	@ zero_extendqisi2
 994 02f2 5B08     		lsrs	r3, r3, #1
 995 02f4 DBB2     		uxtb	r3, r3
 996 02f6 5A1E     		subs	r2, r3, #1
 997 02f8 07F12003 		add	r3, r7, #32
 998 02fc 143B     		subs	r3, r3, #20
 999 02fe 07F5A051 		add	r1, r7, #5120
 1000 0302 01F10401 		add	r1, r1, #4
 1001 0306 0092     		str	r2, [sp]
 1002 0308 0A46     		mov	r2, r1
 1003 030a 0F49     		ldr	r1, .L26+24
 1004 030c 1148     		ldr	r0, .L26+36
 1005 030e FFF7FEFF 		bl	sprintf
 196:..\src/SD_RTC_functions.c ****                 Write_new_info = FALSE;
 1006              		.loc 1 196 0
 1007 0312 0023     		movs	r3, #0
 1008 0314 07F5A352 		add	r2, r7, #5216
 1009 0318 02F11F02 		add	r2, r2, #31
 1010 031c 1370     		strb	r3, [r2]
 1011              	.L20:
 197:..\src/SD_RTC_functions.c ****             }
 198:..\src/SD_RTC_functions.c ****         }
 199:..\src/SD_RTC_functions.c ****         FS_FClose(pFile_read);
 1012              		.loc 1 199 0
 1013 031e 07F5A353 		add	r3, r7, #5216
 1014 0322 03F11003 		add	r3, r3, #16
 1015 0326 1868     		ldr	r0, [r3]
 1016 0328 FFF7FEFF 		bl	FS_FClose
 1017 032c 36E0     		b	.L22
 1018              	.L27:
 1019 032e 00BF     		.align	2
 1020              	.L26:
 1021 0330 34000000 		.word	.LC0
 1022 0334 40000000 		.word	.LC1
 1023 0338 00000000 		.word	g_mem
 1024 033c 00000000 		.word	.LC2
 1025 0340 04000000 		.word	.LC3
 1026 0344 10000000 		.word	.LC4
 1027 0348 18000000 		.word	.LC5
 1028 034c 28000000 		.word	.LC6
 1029 0350 00000000 		.word	sdParam
 1030 0354 00000000 		.word	sdFile
 1031              	.L19:
 200:..\src/SD_RTC_functions.c ****     } 
 201:..\src/SD_RTC_functions.c ****     else {
 202:..\src/SD_RTC_functions.c ****         // The directory is empty
 203:..\src/SD_RTC_functions.c ****         sprintf(sdParam, "%s\\%s_%d.csv", sdDir, Param_filename, 0);  // first param filename
 1032              		.loc 1 203 0
 1033 0358 07F12003 		add	r3, r7, #32
 1034 035c 1C3B     		subs	r3, r3, #28
 1035 035e 07F5A051 		add	r1, r7, #5120
 1036 0362 01F10401 		add	r1, r1, #4
 1037 0366 0022     		movs	r2, #0
 1038 0368 0092     		str	r2, [sp]
ARM GAS  C:\Users\Mattia\AppData\Local\Temp\ccnjK3ek.s 			page 23


 1039 036a 0A46     		mov	r2, r1
 1040 036c 5849     		ldr	r1, .L28
 1041 036e 5948     		ldr	r0, .L28+4
 1042 0370 FFF7FEFF 		bl	sprintf
 204:..\src/SD_RTC_functions.c ****         sprintf(sdFile, "%s\\%s_%d.csv", sdDir, Data_filename, 0);    //first data filename
 1043              		.loc 1 204 0
 1044 0374 07F12003 		add	r3, r7, #32
 1045 0378 143B     		subs	r3, r3, #20
 1046 037a 07F5A051 		add	r1, r7, #5120
 1047 037e 01F10401 		add	r1, r1, #4
 1048 0382 0022     		movs	r2, #0
 1049 0384 0092     		str	r2, [sp]
 1050 0386 0A46     		mov	r2, r1
 1051 0388 5149     		ldr	r1, .L28
 1052 038a 5348     		ldr	r0, .L28+8
 1053 038c FFF7FEFF 		bl	sprintf
 205:..\src/SD_RTC_functions.c ****         Write_new_info = TRUE;
 1054              		.loc 1 205 0
 1055 0390 0123     		movs	r3, #1
 1056 0392 07F5A352 		add	r2, r7, #5216
 1057 0396 02F11F02 		add	r2, r2, #31
 1058 039a 1370     		strb	r3, [r2]
 1059              	.L22:
 206:..\src/SD_RTC_functions.c ****     } 
 207:..\src/SD_RTC_functions.c ****     FS_CloseDir(pDir);
 1060              		.loc 1 207 0
 1061 039c 07F5A353 		add	r3, r7, #5216
 1062 03a0 03F11403 		add	r3, r3, #20
 1063 03a4 1868     		ldr	r0, [r3]
 1064 03a6 FFF7FEFF 		bl	FS_CloseDir
 208:..\src/SD_RTC_functions.c ****     
 209:..\src/SD_RTC_functions.c ****     // Write chosen data in SD card        
 210:..\src/SD_RTC_functions.c ****     if (Write_new_info) {            
 1065              		.loc 1 210 0
 1066 03aa 07F5A353 		add	r3, r7, #5216
 1067 03ae 03F11F03 		add	r3, r3, #31
 1068 03b2 1B78     		ldrb	r3, [r3]	@ zero_extendqisi2
 1069 03b4 002B     		cmp	r3, #0
 1070 03b6 1FD0     		beq	.L23
 211:..\src/SD_RTC_functions.c ****         pParam = FS_FOpen(sdParam, "a");
 1071              		.loc 1 211 0
 1072 03b8 4849     		ldr	r1, .L28+12
 1073 03ba 4648     		ldr	r0, .L28+4
 1074 03bc FFF7FEFF 		bl	FS_FOpen
 1075 03c0 07F5A353 		add	r3, r7, #5216
 1076 03c4 03F10C03 		add	r3, r3, #12
 1077 03c8 1860     		str	r0, [r3]
 212:..\src/SD_RTC_functions.c ****         //info_ string has been already created
 213:..\src/SD_RTC_functions.c ****         FS_Write(pParam, info_, strlen(info_));
 1078              		.loc 1 213 0
 1079 03ca 07F6DC13 		addw	r3, r7, #2524
 1080 03ce 1846     		mov	r0, r3
 1081 03d0 FFF7FEFF 		bl	strlen
 1082 03d4 0246     		mov	r2, r0
 1083 03d6 07F6DC13 		addw	r3, r7, #2524
 1084 03da 1946     		mov	r1, r3
 1085 03dc 07F5A353 		add	r3, r7, #5216
ARM GAS  C:\Users\Mattia\AppData\Local\Temp\ccnjK3ek.s 			page 24


 1086 03e0 03F10C03 		add	r3, r3, #12
 1087 03e4 1868     		ldr	r0, [r3]
 1088 03e6 FFF7FEFF 		bl	FS_Write
 214:..\src/SD_RTC_functions.c ****         FS_FClose(pParam);
 1089              		.loc 1 214 0
 1090 03ea 07F5A353 		add	r3, r7, #5216
 1091 03ee 03F10C03 		add	r3, r3, #12
 1092 03f2 1868     		ldr	r0, [r3]
 1093 03f4 FFF7FEFF 		bl	FS_FClose
 1094              	.L23:
 215:..\src/SD_RTC_functions.c ****     }
 216:..\src/SD_RTC_functions.c ****     
 217:..\src/SD_RTC_functions.c ****     // Open chosen data file in append mode
 218:..\src/SD_RTC_functions.c ****     pFile = FS_FOpen(sdFile, "a");
 1095              		.loc 1 218 0
 1096 03f8 3849     		ldr	r1, .L28+12
 1097 03fa 3748     		ldr	r0, .L28+8
 1098 03fc FFF7FEFF 		bl	FS_FOpen
 1099 0400 0246     		mov	r2, r0
 1100 0402 374B     		ldr	r3, .L28+16
 1101 0404 1A60     		str	r2, [r3]
 219:..\src/SD_RTC_functions.c ****     if (Write_new_info) { 
 1102              		.loc 1 219 0
 1103 0406 07F5A353 		add	r3, r7, #5216
 1104 040a 03F11F03 		add	r3, r3, #31
 1105 040e 1B78     		ldrb	r3, [r3]	@ zero_extendqisi2
 1106 0410 002B     		cmp	r3, #0
 1107 0412 12D0     		beq	.L24
 220:..\src/SD_RTC_functions.c ****         // The file doesn't exist, so write legend info inside
 221:..\src/SD_RTC_functions.c ****         prepare_SD_legend(info_);
 1108              		.loc 1 221 0
 1109 0414 07F6DC13 		addw	r3, r7, #2524
 1110 0418 1846     		mov	r0, r3
 1111 041a FFF7FEFF 		bl	prepare_SD_legend
 222:..\src/SD_RTC_functions.c ****         FS_Write(pFile, info_, strlen(info_));
 1112              		.loc 1 222 0
 1113 041e 304B     		ldr	r3, .L28+16
 1114 0420 1C68     		ldr	r4, [r3]
 1115 0422 07F6DC13 		addw	r3, r7, #2524
 1116 0426 1846     		mov	r0, r3
 1117 0428 FFF7FEFF 		bl	strlen
 1118 042c 0246     		mov	r2, r0
 1119 042e 07F6DC13 		addw	r3, r7, #2524
 1120 0432 1946     		mov	r1, r3
 1121 0434 2046     		mov	r0, r4
 1122 0436 FFF7FEFF 		bl	FS_Write
 1123              	.L24:
 223:..\src/SD_RTC_functions.c ****     }
 224:..\src/SD_RTC_functions.c ****     //FS_FClose(pFile); 
 225:..\src/SD_RTC_functions.c ****      
 226:..\src/SD_RTC_functions.c ****     // Open file for EMG History in write mode (create it if it does not exist)
 227:..\src/SD_RTC_functions.c ****     if (c_mem.exp.record_EMG_history_on_SD){
 1124              		.loc 1 227 0
 1125 043a 2A4B     		ldr	r3, .L28+20
 1126 043c 93F83432 		ldrb	r3, [r3, #564]	@ zero_extendqisi2
 1127 0440 002B     		cmp	r3, #0
 1128 0442 19D0     		beq	.L25
ARM GAS  C:\Users\Mattia\AppData\Local\Temp\ccnjK3ek.s 			page 25


 228:..\src/SD_RTC_functions.c ****         pEMGHFile = FS_FOpen(sdEMGHFile, "w");
 1129              		.loc 1 228 0
 1130 0444 2849     		ldr	r1, .L28+24
 1131 0446 2948     		ldr	r0, .L28+28
 1132 0448 FFF7FEFF 		bl	FS_FOpen
 1133 044c 0246     		mov	r2, r0
 1134 044e 284B     		ldr	r3, .L28+32
 1135 0450 1A60     		str	r2, [r3]
 229:..\src/SD_RTC_functions.c ****         prepare_SD_EMG_History_legend(info_);
 1136              		.loc 1 229 0
 1137 0452 07F6DC13 		addw	r3, r7, #2524
 1138 0456 1846     		mov	r0, r3
 1139 0458 FFF7FEFF 		bl	prepare_SD_EMG_History_legend
 230:..\src/SD_RTC_functions.c ****         FS_Write(pEMGHFile, info_, strlen(info_));
 1140              		.loc 1 230 0
 1141 045c 244B     		ldr	r3, .L28+32
 1142 045e 1C68     		ldr	r4, [r3]
 1143 0460 07F6DC13 		addw	r3, r7, #2524
 1144 0464 1846     		mov	r0, r3
 1145 0466 FFF7FEFF 		bl	strlen
 1146 046a 0246     		mov	r2, r0
 1147 046c 07F6DC13 		addw	r3, r7, #2524
 1148 0470 1946     		mov	r1, r3
 1149 0472 2046     		mov	r0, r4
 1150 0474 FFF7FEFF 		bl	FS_Write
 1151              	.L25:
 231:..\src/SD_RTC_functions.c ****     }
 232:..\src/SD_RTC_functions.c ****     
 233:..\src/SD_RTC_functions.c ****     //Write updated data on R01 project
 234:..\src/SD_RTC_functions.c ****     FS_FILE* pR01File = FS_FOpen(sdR01File, "w");
 1152              		.loc 1 234 0
 1153 0478 1B49     		ldr	r1, .L28+24
 1154 047a 1E48     		ldr	r0, .L28+36
 1155 047c FFF7FEFF 		bl	FS_FOpen
 1156 0480 07F5A353 		add	r3, r7, #5216
 1157 0484 03F10803 		add	r3, r3, #8
 1158 0488 1860     		str	r0, [r3]
 235:..\src/SD_RTC_functions.c ****     prepare_R01_info(info_);
 1159              		.loc 1 235 0
 1160 048a 07F6DC13 		addw	r3, r7, #2524
 1161 048e 1846     		mov	r0, r3
 1162 0490 FFF7FEFF 		bl	prepare_R01_info
 236:..\src/SD_RTC_functions.c ****     FS_Write(pR01File, info_, strlen(info_));
 1163              		.loc 1 236 0
 1164 0494 07F6DC13 		addw	r3, r7, #2524
 1165 0498 1846     		mov	r0, r3
 1166 049a FFF7FEFF 		bl	strlen
 1167 049e 0246     		mov	r2, r0
 1168 04a0 07F6DC13 		addw	r3, r7, #2524
 1169 04a4 1946     		mov	r1, r3
 1170 04a6 07F5A353 		add	r3, r7, #5216
 1171 04aa 03F10803 		add	r3, r3, #8
 1172 04ae 1868     		ldr	r0, [r3]
 1173 04b0 FFF7FEFF 		bl	FS_Write
 237:..\src/SD_RTC_functions.c ****     FS_FClose(pR01File);
 1174              		.loc 1 237 0
 1175 04b4 07F5A353 		add	r3, r7, #5216
ARM GAS  C:\Users\Mattia\AppData\Local\Temp\ccnjK3ek.s 			page 26


 1176 04b8 03F10803 		add	r3, r3, #8
 1177 04bc 1868     		ldr	r0, [r3]
 1178 04be FFF7FEFF 		bl	FS_FClose
 238:..\src/SD_RTC_functions.c **** }
 1179              		.loc 1 238 0
 1180 04c2 00BF     		nop
 1181 04c4 07F5A457 		add	r7, r7, #5248
 1182 04c8 0437     		adds	r7, r7, #4
 1183              		.cfi_def_cfa_offset 12
 1184 04ca BD46     		mov	sp, r7
 1185              		.cfi_def_cfa_register 13
 1186              		@ sp needed
 1187 04cc 90BD     		pop	{r4, r7, pc}
 1188              	.L29:
 1189 04ce 00BF     		.align	2
 1190              	.L28:
 1191 04d0 18000000 		.word	.LC5
 1192 04d4 00000000 		.word	sdParam
 1193 04d8 00000000 		.word	sdFile
 1194 04dc 2C000000 		.word	.LC7
 1195 04e0 00000000 		.word	pFile
 1196 04e4 00000000 		.word	c_mem
 1197 04e8 30000000 		.word	.LC8
 1198 04ec 00000000 		.word	sdEMGHFile
 1199 04f0 00000000 		.word	pEMGHFile
 1200 04f4 00000000 		.word	sdR01File
 1201              		.cfi_endproc
 1202              	.LFE71:
 1203              		.size	InitSD_FS, .-InitSD_FS
 1204              		.section	.text.Write_SD_Param_file,"ax",%progbits
 1205              		.align	2
 1206              		.global	Write_SD_Param_file
 1207              		.thumb
 1208              		.thumb_func
 1209              		.type	Write_SD_Param_file, %function
 1210              	Write_SD_Param_file:
 1211              	.LFB72:
 239:..\src/SD_RTC_functions.c **** 
 240:..\src/SD_RTC_functions.c **** /*******************************************************************************
 241:..\src/SD_RTC_functions.c **** * Function Name: Write SD Param File
 242:..\src/SD_RTC_functions.c **** *********************************************************************************/
 243:..\src/SD_RTC_functions.c **** void Write_SD_Param_file(){
 1212              		.loc 1 243 0
 1213              		.cfi_startproc
 1214              		@ args = 0, pretend = 0, frame = 2504
 1215              		@ frame_needed = 1, uses_anonymous_args = 0
 1216 0000 90B5     		push	{r4, r7, lr}
 1217              		.cfi_def_cfa_offset 12
 1218              		.cfi_offset 4, -12
 1219              		.cfi_offset 7, -8
 1220              		.cfi_offset 14, -4
 1221 0002 ADF6CC1D 		subw	sp, sp, #2508
 1222              		.cfi_def_cfa_offset 2520
 1223 0006 00AF     		add	r7, sp, #0
 1224              		.cfi_def_cfa_register 7
 244:..\src/SD_RTC_functions.c ****     char info_[2500] = "";
 1225              		.loc 1 244 0
ARM GAS  C:\Users\Mattia\AppData\Local\Temp\ccnjK3ek.s 			page 27


 1226 0008 3B1D     		adds	r3, r7, #4
 1227 000a 0022     		movs	r2, #0
 1228 000c 1A60     		str	r2, [r3]
 1229 000e 0433     		adds	r3, r3, #4
 1230 0010 4FF41C62 		mov	r2, #2496
 1231 0014 0021     		movs	r1, #0
 1232 0016 1846     		mov	r0, r3
 1233 0018 FFF7FEFF 		bl	memset
 245:..\src/SD_RTC_functions.c ****     
 246:..\src/SD_RTC_functions.c ****     prepare_SD_param_info(info_);
 1234              		.loc 1 246 0
 1235 001c 3B1D     		adds	r3, r7, #4
 1236 001e 1846     		mov	r0, r3
 1237 0020 FFF7FEFF 		bl	prepare_SD_param_info
 247:..\src/SD_RTC_functions.c ****     FS_Write(pFile, info_, strlen(info_));
 1238              		.loc 1 247 0
 1239 0024 084B     		ldr	r3, .L31
 1240 0026 1C68     		ldr	r4, [r3]
 1241 0028 3B1D     		adds	r3, r7, #4
 1242 002a 1846     		mov	r0, r3
 1243 002c FFF7FEFF 		bl	strlen
 1244 0030 0246     		mov	r2, r0
 1245 0032 3B1D     		adds	r3, r7, #4
 1246 0034 1946     		mov	r1, r3
 1247 0036 2046     		mov	r0, r4
 1248 0038 FFF7FEFF 		bl	FS_Write
 248:..\src/SD_RTC_functions.c **** }
 1249              		.loc 1 248 0
 1250 003c 00BF     		nop
 1251 003e 07F6CC17 		addw	r7, r7, #2508
 1252              		.cfi_def_cfa_offset 12
 1253 0042 BD46     		mov	sp, r7
 1254              		.cfi_def_cfa_register 13
 1255              		@ sp needed
 1256 0044 90BD     		pop	{r4, r7, pc}
 1257              	.L32:
 1258 0046 00BF     		.align	2
 1259              	.L31:
 1260 0048 00000000 		.word	pFile
 1261              		.cfi_endproc
 1262              	.LFE72:
 1263              		.size	Write_SD_Param_file, .-Write_SD_Param_file
 1264              		.section	.text.Read_SD_Closed_File,"ax",%progbits
 1265              		.align	2
 1266              		.global	Read_SD_Closed_File
 1267              		.thumb
 1268              		.thumb_func
 1269              		.type	Read_SD_Closed_File, %function
 1270              	Read_SD_Closed_File:
 1271              	.LFB73:
 249:..\src/SD_RTC_functions.c **** 
 250:..\src/SD_RTC_functions.c **** /*******************************************************************************
 251:..\src/SD_RTC_functions.c **** * Function Name: Read SD Closed File (Param or closed Data files)
 252:..\src/SD_RTC_functions.c **** *********************************************************************************/
 253:..\src/SD_RTC_functions.c **** void Read_SD_Closed_File(char* src_file, char* info_file, int n_p){
 1272              		.loc 1 253 0
 1273              		.cfi_startproc
ARM GAS  C:\Users\Mattia\AppData\Local\Temp\ccnjK3ek.s 			page 28


 1274              		@ args = 0, pretend = 0, frame = 24
 1275              		@ frame_needed = 1, uses_anonymous_args = 0
 1276 0000 80B5     		push	{r7, lr}
 1277              		.cfi_def_cfa_offset 8
 1278              		.cfi_offset 7, -8
 1279              		.cfi_offset 14, -4
 1280 0002 86B0     		sub	sp, sp, #24
 1281              		.cfi_def_cfa_offset 32
 1282 0004 00AF     		add	r7, sp, #0
 1283              		.cfi_def_cfa_register 7
 1284 0006 F860     		str	r0, [r7, #12]
 1285 0008 B960     		str	r1, [r7, #8]
 1286 000a 7A60     		str	r2, [r7, #4]
 254:..\src/SD_RTC_functions.c ****     int i;
 255:..\src/SD_RTC_functions.c ****     FS_FILE* pF;
 256:..\src/SD_RTC_functions.c ****     
 257:..\src/SD_RTC_functions.c ****     // Open param file in read mode
 258:..\src/SD_RTC_functions.c ****     pF = FS_FOpen(src_file, "r");
 1287              		.loc 1 258 0
 1288 000c 0D49     		ldr	r1, .L35
 1289 000e F868     		ldr	r0, [r7, #12]
 1290 0010 FFF7FEFF 		bl	FS_FOpen
 1291 0014 7861     		str	r0, [r7, #20]
 259:..\src/SD_RTC_functions.c ****     if (pF != 0) {
 1292              		.loc 1 259 0
 1293 0016 7B69     		ldr	r3, [r7, #20]
 1294 0018 002B     		cmp	r3, #0
 1295 001a 0CD0     		beq	.L34
 260:..\src/SD_RTC_functions.c ****         i = FS_FRead(info_file, 1, n_p, pF);
 1296              		.loc 1 260 0
 1297 001c 7A68     		ldr	r2, [r7, #4]
 1298 001e 7B69     		ldr	r3, [r7, #20]
 1299 0020 0121     		movs	r1, #1
 1300 0022 B868     		ldr	r0, [r7, #8]
 1301 0024 FFF7FEFF 		bl	FS_FRead
 1302 0028 0346     		mov	r3, r0
 1303 002a 3B61     		str	r3, [r7, #16]
 261:..\src/SD_RTC_functions.c ****         info_file[i] = 0;
 1304              		.loc 1 261 0
 1305 002c 3B69     		ldr	r3, [r7, #16]
 1306 002e BA68     		ldr	r2, [r7, #8]
 1307 0030 1344     		add	r3, r3, r2
 1308 0032 0022     		movs	r2, #0
 1309 0034 1A70     		strb	r2, [r3]
 1310              	.L34:
 262:..\src/SD_RTC_functions.c ****     }
 263:..\src/SD_RTC_functions.c ****     FS_FClose(pF);
 1311              		.loc 1 263 0
 1312 0036 7869     		ldr	r0, [r7, #20]
 1313 0038 FFF7FEFF 		bl	FS_FClose
 264:..\src/SD_RTC_functions.c **** }
 1314              		.loc 1 264 0
 1315 003c 00BF     		nop
 1316 003e 1837     		adds	r7, r7, #24
 1317              		.cfi_def_cfa_offset 8
 1318 0040 BD46     		mov	sp, r7
 1319              		.cfi_def_cfa_register 13
ARM GAS  C:\Users\Mattia\AppData\Local\Temp\ccnjK3ek.s 			page 29


 1320              		@ sp needed
 1321 0042 80BD     		pop	{r7, pc}
 1322              	.L36:
 1323              		.align	2
 1324              	.L35:
 1325 0044 28000000 		.word	.LC6
 1326              		.cfi_endproc
 1327              	.LFE73:
 1328              		.size	Read_SD_Closed_File, .-Read_SD_Closed_File
 1329              		.section	.text.Remove_SD_File,"ax",%progbits
 1330              		.align	2
 1331              		.global	Remove_SD_File
 1332              		.thumb
 1333              		.thumb_func
 1334              		.type	Remove_SD_File, %function
 1335              	Remove_SD_File:
 1336              	.LFB74:
 265:..\src/SD_RTC_functions.c **** 
 266:..\src/SD_RTC_functions.c **** /*******************************************************************************
 267:..\src/SD_RTC_functions.c **** * Function Name: Remove SD File
 268:..\src/SD_RTC_functions.c **** *********************************************************************************/
 269:..\src/SD_RTC_functions.c **** int Remove_SD_File(char* src_file){     
 1337              		.loc 1 269 0
 1338              		.cfi_startproc
 1339              		@ args = 0, pretend = 0, frame = 8
 1340              		@ frame_needed = 1, uses_anonymous_args = 0
 1341 0000 80B5     		push	{r7, lr}
 1342              		.cfi_def_cfa_offset 8
 1343              		.cfi_offset 7, -8
 1344              		.cfi_offset 14, -4
 1345 0002 82B0     		sub	sp, sp, #8
 1346              		.cfi_def_cfa_offset 16
 1347 0004 00AF     		add	r7, sp, #0
 1348              		.cfi_def_cfa_register 7
 1349 0006 7860     		str	r0, [r7, #4]
 270:..\src/SD_RTC_functions.c ****     return FS_Remove(src_file);  
 1350              		.loc 1 270 0
 1351 0008 7868     		ldr	r0, [r7, #4]
 1352 000a FFF7FEFF 		bl	FS_Remove
 1353 000e 0346     		mov	r3, r0
 271:..\src/SD_RTC_functions.c **** }
 1354              		.loc 1 271 0
 1355 0010 1846     		mov	r0, r3
 1356 0012 0837     		adds	r7, r7, #8
 1357              		.cfi_def_cfa_offset 8
 1358 0014 BD46     		mov	sp, r7
 1359              		.cfi_def_cfa_register 13
 1360              		@ sp needed
 1361 0016 80BD     		pop	{r7, pc}
 1362              		.cfi_endproc
 1363              	.LFE74:
 1364              		.size	Remove_SD_File, .-Remove_SD_File
 1365              		.section	.text.Read_SD_Current_Data,"ax",%progbits
 1366              		.align	2
 1367              		.global	Read_SD_Current_Data
 1368              		.thumb
 1369              		.thumb_func
ARM GAS  C:\Users\Mattia\AppData\Local\Temp\ccnjK3ek.s 			page 30


 1370              		.type	Read_SD_Current_Data, %function
 1371              	Read_SD_Current_Data:
 1372              	.LFB75:
 272:..\src/SD_RTC_functions.c **** 
 273:..\src/SD_RTC_functions.c **** /*******************************************************************************
 274:..\src/SD_RTC_functions.c **** * Function Name: Read SD Current Open Data File
 275:..\src/SD_RTC_functions.c **** *********************************************************************************/
 276:..\src/SD_RTC_functions.c **** void Read_SD_Current_Data(char* info_data, int n_d){
 1373              		.loc 1 276 0
 1374              		.cfi_startproc
 1375              		@ args = 0, pretend = 0, frame = 16
 1376              		@ frame_needed = 1, uses_anonymous_args = 0
 1377 0000 80B5     		push	{r7, lr}
 1378              		.cfi_def_cfa_offset 8
 1379              		.cfi_offset 7, -8
 1380              		.cfi_offset 14, -4
 1381 0002 84B0     		sub	sp, sp, #16
 1382              		.cfi_def_cfa_offset 24
 1383 0004 00AF     		add	r7, sp, #0
 1384              		.cfi_def_cfa_register 7
 1385 0006 7860     		str	r0, [r7, #4]
 1386 0008 3960     		str	r1, [r7]
 277:..\src/SD_RTC_functions.c ****     int i;
 278:..\src/SD_RTC_functions.c ****     FS_FILE* pData;
 279:..\src/SD_RTC_functions.c ****     
 280:..\src/SD_RTC_functions.c ****     FS_FClose(pFile);
 1387              		.loc 1 280 0
 1388 000a 144B     		ldr	r3, .L41
 1389 000c 1B68     		ldr	r3, [r3]
 1390 000e 1846     		mov	r0, r3
 1391 0010 FFF7FEFF 		bl	FS_FClose
 281:..\src/SD_RTC_functions.c ****     
 282:..\src/SD_RTC_functions.c ****     // Open data file in read mode    
 283:..\src/SD_RTC_functions.c ****     pData = FS_FOpen(sdFile, "r");
 1392              		.loc 1 283 0
 1393 0014 1249     		ldr	r1, .L41+4
 1394 0016 1348     		ldr	r0, .L41+8
 1395 0018 FFF7FEFF 		bl	FS_FOpen
 1396 001c F860     		str	r0, [r7, #12]
 284:..\src/SD_RTC_functions.c ****     if (pData != 0) {
 1397              		.loc 1 284 0
 1398 001e FB68     		ldr	r3, [r7, #12]
 1399 0020 002B     		cmp	r3, #0
 1400 0022 0CD0     		beq	.L40
 285:..\src/SD_RTC_functions.c ****         i = FS_FRead(info_data, 1, n_d, pData);
 1401              		.loc 1 285 0
 1402 0024 3A68     		ldr	r2, [r7]
 1403 0026 FB68     		ldr	r3, [r7, #12]
 1404 0028 0121     		movs	r1, #1
 1405 002a 7868     		ldr	r0, [r7, #4]
 1406 002c FFF7FEFF 		bl	FS_FRead
 1407 0030 0346     		mov	r3, r0
 1408 0032 BB60     		str	r3, [r7, #8]
 286:..\src/SD_RTC_functions.c ****         info_data[i] = 0;  
 1409              		.loc 1 286 0
 1410 0034 BB68     		ldr	r3, [r7, #8]
 1411 0036 7A68     		ldr	r2, [r7, #4]
ARM GAS  C:\Users\Mattia\AppData\Local\Temp\ccnjK3ek.s 			page 31


 1412 0038 1344     		add	r3, r3, r2
 1413 003a 0022     		movs	r2, #0
 1414 003c 1A70     		strb	r2, [r3]
 1415              	.L40:
 287:..\src/SD_RTC_functions.c ****     }
 288:..\src/SD_RTC_functions.c ****     FS_FClose(pData);
 1416              		.loc 1 288 0
 1417 003e F868     		ldr	r0, [r7, #12]
 1418 0040 FFF7FEFF 		bl	FS_FClose
 289:..\src/SD_RTC_functions.c ****     
 290:..\src/SD_RTC_functions.c ****     // Before exiting, reopen data file in append mode
 291:..\src/SD_RTC_functions.c ****     pFile = FS_FOpen(sdFile, "a");
 1419              		.loc 1 291 0
 1420 0044 0849     		ldr	r1, .L41+12
 1421 0046 0748     		ldr	r0, .L41+8
 1422 0048 FFF7FEFF 		bl	FS_FOpen
 1423 004c 0246     		mov	r2, r0
 1424 004e 034B     		ldr	r3, .L41
 1425 0050 1A60     		str	r2, [r3]
 292:..\src/SD_RTC_functions.c **** }
 1426              		.loc 1 292 0
 1427 0052 00BF     		nop
 1428 0054 1037     		adds	r7, r7, #16
 1429              		.cfi_def_cfa_offset 8
 1430 0056 BD46     		mov	sp, r7
 1431              		.cfi_def_cfa_register 13
 1432              		@ sp needed
 1433 0058 80BD     		pop	{r7, pc}
 1434              	.L42:
 1435 005a 00BF     		.align	2
 1436              	.L41:
 1437 005c 00000000 		.word	pFile
 1438 0060 28000000 		.word	.LC6
 1439 0064 00000000 		.word	sdFile
 1440 0068 2C000000 		.word	.LC7
 1441              		.cfi_endproc
 1442              	.LFE75:
 1443              		.size	Read_SD_Current_Data, .-Read_SD_Current_Data
 1444              		.section	.text.Read_SD_EMG_History_Data,"ax",%progbits
 1445              		.align	2
 1446              		.global	Read_SD_EMG_History_Data
 1447              		.thumb
 1448              		.thumb_func
 1449              		.type	Read_SD_EMG_History_Data, %function
 1450              	Read_SD_EMG_History_Data:
 1451              	.LFB76:
 293:..\src/SD_RTC_functions.c **** 
 294:..\src/SD_RTC_functions.c **** /*******************************************************************************
 295:..\src/SD_RTC_functions.c **** * Function Name: Read SD Current Open EMG History File
 296:..\src/SD_RTC_functions.c **** *********************************************************************************/
 297:..\src/SD_RTC_functions.c **** void Read_SD_EMG_History_Data(){
 1452              		.loc 1 297 0
 1453              		.cfi_startproc
 1454              		@ args = 0, pretend = 0, frame = 24
 1455              		@ frame_needed = 1, uses_anonymous_args = 0
 1456 0000 80B5     		push	{r7, lr}
 1457              		.cfi_def_cfa_offset 8
ARM GAS  C:\Users\Mattia\AppData\Local\Temp\ccnjK3ek.s 			page 32


 1458              		.cfi_offset 7, -8
 1459              		.cfi_offset 14, -4
 1460 0002 86B0     		sub	sp, sp, #24
 1461              		.cfi_def_cfa_offset 32
 1462 0004 00AF     		add	r7, sp, #0
 1463              		.cfi_def_cfa_register 7
 298:..\src/SD_RTC_functions.c ****     int i;
 299:..\src/SD_RTC_functions.c ****     FS_FILE* pData;
 300:..\src/SD_RTC_functions.c ****     char iData[10];
 301:..\src/SD_RTC_functions.c ****     
 302:..\src/SD_RTC_functions.c ****     FS_FClose(pEMGHFile);
 1464              		.loc 1 302 0
 1465 0006 164B     		ldr	r3, .L45
 1466 0008 1B68     		ldr	r3, [r3]
 1467 000a 1846     		mov	r0, r3
 1468 000c FFF7FEFF 		bl	FS_FClose
 303:..\src/SD_RTC_functions.c ****     
 304:..\src/SD_RTC_functions.c ****     // Open data file in read mode    
 305:..\src/SD_RTC_functions.c ****     pData = FS_FOpen(sdEMGHFile, "r");
 1469              		.loc 1 305 0
 1470 0010 1449     		ldr	r1, .L45+4
 1471 0012 1548     		ldr	r0, .L45+8
 1472 0014 FFF7FEFF 		bl	FS_FOpen
 1473 0018 7861     		str	r0, [r7, #20]
 306:..\src/SD_RTC_functions.c ****     
 307:..\src/SD_RTC_functions.c ****     UART_RS485_ClearTxBuffer();
 1474              		.loc 1 307 0
 1475 001a FFF7FEFF 		bl	UART_RS485_ClearTxBuffer
 1476              	.L44:
 308:..\src/SD_RTC_functions.c ****     do {
 309:..\src/SD_RTC_functions.c ****         i = FS_FRead(iData, 1, 1, pData);
 1477              		.loc 1 309 0 discriminator 1
 1478 001e 381D     		adds	r0, r7, #4
 1479 0020 7B69     		ldr	r3, [r7, #20]
 1480 0022 0122     		movs	r2, #1
 1481 0024 0121     		movs	r1, #1
 1482 0026 FFF7FEFF 		bl	FS_FRead
 1483 002a 0346     		mov	r3, r0
 1484 002c 3B61     		str	r3, [r7, #16]
 310:..\src/SD_RTC_functions.c ****         UART_RS485_PutChar((uint8)iData[0]);
 1485              		.loc 1 310 0 discriminator 1
 1486 002e 3B79     		ldrb	r3, [r7, #4]	@ zero_extendqisi2
 1487 0030 1846     		mov	r0, r3
 1488 0032 FFF7FEFF 		bl	UART_RS485_PutChar
 311:..\src/SD_RTC_functions.c ****     }
 312:..\src/SD_RTC_functions.c ****     while(i);
 1489              		.loc 1 312 0 discriminator 1
 1490 0036 3B69     		ldr	r3, [r7, #16]
 1491 0038 002B     		cmp	r3, #0
 1492 003a F0D1     		bne	.L44
 313:..\src/SD_RTC_functions.c ****     UART_RS485_PutChar((uint8)0);
 1493              		.loc 1 313 0
 1494 003c 0020     		movs	r0, #0
 1495 003e FFF7FEFF 		bl	UART_RS485_PutChar
 314:..\src/SD_RTC_functions.c ****     
 315:..\src/SD_RTC_functions.c ****     FS_FClose(pData);
 1496              		.loc 1 315 0
ARM GAS  C:\Users\Mattia\AppData\Local\Temp\ccnjK3ek.s 			page 33


 1497 0042 7869     		ldr	r0, [r7, #20]
 1498 0044 FFF7FEFF 		bl	FS_FClose
 316:..\src/SD_RTC_functions.c ****     
 317:..\src/SD_RTC_functions.c ****     // Before exiting, reopen file in append mode
 318:..\src/SD_RTC_functions.c ****     pEMGHFile = FS_FOpen(sdEMGHFile, "a");
 1499              		.loc 1 318 0
 1500 0048 0849     		ldr	r1, .L45+12
 1501 004a 0748     		ldr	r0, .L45+8
 1502 004c FFF7FEFF 		bl	FS_FOpen
 1503 0050 0246     		mov	r2, r0
 1504 0052 034B     		ldr	r3, .L45
 1505 0054 1A60     		str	r2, [r3]
 319:..\src/SD_RTC_functions.c **** }
 1506              		.loc 1 319 0
 1507 0056 00BF     		nop
 1508 0058 1837     		adds	r7, r7, #24
 1509              		.cfi_def_cfa_offset 8
 1510 005a BD46     		mov	sp, r7
 1511              		.cfi_def_cfa_register 13
 1512              		@ sp needed
 1513 005c 80BD     		pop	{r7, pc}
 1514              	.L46:
 1515 005e 00BF     		.align	2
 1516              	.L45:
 1517 0060 00000000 		.word	pEMGHFile
 1518 0064 28000000 		.word	.LC6
 1519 0068 00000000 		.word	sdEMGHFile
 1520 006c 2C000000 		.word	.LC7
 1521              		.cfi_endproc
 1522              	.LFE76:
 1523              		.size	Read_SD_EMG_History_Data, .-Read_SD_EMG_History_Data
 1524              		.section	.rodata
 1525 0047 00       		.align	2
 1526              	.LC9:
 1527 0048 5C00     		.ascii	"\\\000"
 1528 004a 0000     		.align	2
 1529              	.LC10:
 1530 004c 2E00     		.ascii	".\000"
 1531 004e 0000     		.align	2
 1532              	.LC11:
 1533 0050 2E2E00   		.ascii	"..\000"
 1534              		.section	.text.Get_DirectoriesList,"ax",%progbits
 1535              		.align	2
 1536              		.global	Get_DirectoriesList
 1537              		.thumb
 1538              		.thumb_func
 1539              		.type	Get_DirectoriesList, %function
 1540              	Get_DirectoriesList:
 1541              	.LFB77:
 320:..\src/SD_RTC_functions.c **** 
 321:..\src/SD_RTC_functions.c **** /*******************************************************************************
 322:..\src/SD_RTC_functions.c **** * Function Name: Get SD Directories List
 323:..\src/SD_RTC_functions.c **** *********************************************************************************/
 324:..\src/SD_RTC_functions.c **** int Get_DirectoriesList(char* path, char directories_list[3000][8], int first_idx){
 1542              		.loc 1 324 0
 1543              		.cfi_startproc
 1544              		@ args = 0, pretend = 0, frame = 208
ARM GAS  C:\Users\Mattia\AppData\Local\Temp\ccnjK3ek.s 			page 34


 1545              		@ frame_needed = 1, uses_anonymous_args = 0
 1546 0000 80B5     		push	{r7, lr}
 1547              		.cfi_def_cfa_offset 8
 1548              		.cfi_offset 7, -8
 1549              		.cfi_offset 14, -4
 1550 0002 B4B0     		sub	sp, sp, #208
 1551              		.cfi_def_cfa_offset 216
 1552 0004 00AF     		add	r7, sp, #0
 1553              		.cfi_def_cfa_register 7
 1554 0006 F860     		str	r0, [r7, #12]
 1555 0008 B960     		str	r1, [r7, #8]
 1556 000a 7A60     		str	r2, [r7, #4]
 325:..\src/SD_RTC_functions.c ****     
 326:..\src/SD_RTC_functions.c ****     FS_FIND_DATA fd;
 327:..\src/SD_RTC_functions.c ****     int num_found_dirs = 0;
 1557              		.loc 1 327 0
 1558 000c 0023     		movs	r3, #0
 1559 000e C7F8CC30 		str	r3, [r7, #204]
 328:..\src/SD_RTC_functions.c ****     char acDirname[20];    
 329:..\src/SD_RTC_functions.c ****     
 330:..\src/SD_RTC_functions.c ****     if (FS_FindFirstFile(&fd, path, acDirname, sizeof(acDirname)) == 0) {
 1560              		.loc 1 330 0
 1561 0012 07F17402 		add	r2, r7, #116
 1562 0016 07F18800 		add	r0, r7, #136
 1563 001a 1423     		movs	r3, #20
 1564 001c F968     		ldr	r1, [r7, #12]
 1565 001e FFF7FEFF 		bl	FS_FindFirstFile
 1566 0022 0346     		mov	r3, r0
 1567 0024 002B     		cmp	r3, #0
 1568 0026 77D1     		bne	.L48
 1569              	.L50:
 1570              	.LBB2:
 331:..\src/SD_RTC_functions.c ****         do {
 332:..\src/SD_RTC_functions.c ****             FS_DIR *pDir;
 333:..\src/SD_RTC_functions.c ****             char curr_path[100] = "";
 1571              		.loc 1 333 0
 1572 0028 0023     		movs	r3, #0
 1573 002a 3B61     		str	r3, [r7, #16]
 1574 002c 07F11403 		add	r3, r7, #20
 1575 0030 6022     		movs	r2, #96
 1576 0032 0021     		movs	r1, #0
 1577 0034 1846     		mov	r0, r3
 1578 0036 FFF7FEFF 		bl	memset
 334:..\src/SD_RTC_functions.c ****             strcpy(curr_path, path);
 1579              		.loc 1 334 0
 1580 003a 07F11003 		add	r3, r7, #16
 1581 003e F968     		ldr	r1, [r7, #12]
 1582 0040 1846     		mov	r0, r3
 1583 0042 FFF7FEFF 		bl	strcpy
 335:..\src/SD_RTC_functions.c ****             strcat(curr_path, "\\");
 1584              		.loc 1 335 0
 1585 0046 07F11003 		add	r3, r7, #16
 1586 004a 1846     		mov	r0, r3
 1587 004c FFF7FEFF 		bl	strlen
 1588 0050 0346     		mov	r3, r0
 1589 0052 1A46     		mov	r2, r3
 1590 0054 07F11003 		add	r3, r7, #16
ARM GAS  C:\Users\Mattia\AppData\Local\Temp\ccnjK3ek.s 			page 35


 1591 0058 1344     		add	r3, r3, r2
 1592 005a 3549     		ldr	r1, .L52
 1593 005c 1A46     		mov	r2, r3
 1594 005e 0B46     		mov	r3, r1
 1595 0060 1B88     		ldrh	r3, [r3]	@ unaligned
 1596 0062 1380     		strh	r3, [r2]	@ unaligned
 336:..\src/SD_RTC_functions.c ****             strcat(curr_path, acDirname);
 1597              		.loc 1 336 0
 1598 0064 07F17402 		add	r2, r7, #116
 1599 0068 07F11003 		add	r3, r7, #16
 1600 006c 1146     		mov	r1, r2
 1601 006e 1846     		mov	r0, r3
 1602 0070 FFF7FEFF 		bl	strcat
 337:..\src/SD_RTC_functions.c ****             strcat(curr_path, "\\");
 1603              		.loc 1 337 0
 1604 0074 07F11003 		add	r3, r7, #16
 1605 0078 1846     		mov	r0, r3
 1606 007a FFF7FEFF 		bl	strlen
 1607 007e 0346     		mov	r3, r0
 1608 0080 1A46     		mov	r2, r3
 1609 0082 07F11003 		add	r3, r7, #16
 1610 0086 1344     		add	r3, r3, r2
 1611 0088 2949     		ldr	r1, .L52
 1612 008a 1A46     		mov	r2, r3
 1613 008c 0B46     		mov	r3, r1
 1614 008e 1B88     		ldrh	r3, [r3]	@ unaligned
 1615 0090 1380     		strh	r3, [r2]	@ unaligned
 338:..\src/SD_RTC_functions.c ****             pDir = FS_OpenDir(curr_path);
 1616              		.loc 1 338 0
 1617 0092 07F11003 		add	r3, r7, #16
 1618 0096 1846     		mov	r0, r3
 1619 0098 FFF7FEFF 		bl	FS_OpenDir
 1620 009c C7F8C800 		str	r0, [r7, #200]
 339:..\src/SD_RTC_functions.c ****             int num_files_dir = FS_GetNumFiles(pDir);
 1621              		.loc 1 339 0
 1622 00a0 D7F8C800 		ldr	r0, [r7, #200]
 1623 00a4 FFF7FEFF 		bl	FS_GetNumFiles
 1624 00a8 0346     		mov	r3, r0
 1625 00aa C7F8C430 		str	r3, [r7, #196]
 340:..\src/SD_RTC_functions.c ****             FS_CloseDir(pDir);
 1626              		.loc 1 340 0
 1627 00ae D7F8C800 		ldr	r0, [r7, #200]
 1628 00b2 FFF7FEFF 		bl	FS_CloseDir
 341:..\src/SD_RTC_functions.c ****             if (num_files_dir != -1){
 1629              		.loc 1 341 0
 1630 00b6 D7F8C430 		ldr	r3, [r7, #196]
 1631 00ba B3F1FF3F 		cmp	r3, #-1
 1632 00be 23D0     		beq	.L49
 342:..\src/SD_RTC_functions.c ****   
 343:..\src/SD_RTC_functions.c ****                 if (strcmp(acDirname, ".") && strcmp(acDirname, "..")){
 1633              		.loc 1 343 0
 1634 00c0 07F17403 		add	r3, r7, #116
 1635 00c4 1B49     		ldr	r1, .L52+4
 1636 00c6 1846     		mov	r0, r3
 1637 00c8 FFF7FEFF 		bl	strcmp
 1638 00cc 0346     		mov	r3, r0
 1639 00ce 002B     		cmp	r3, #0
ARM GAS  C:\Users\Mattia\AppData\Local\Temp\ccnjK3ek.s 			page 36


 1640 00d0 1AD0     		beq	.L49
 1641              		.loc 1 343 0 is_stmt 0 discriminator 1
 1642 00d2 07F17403 		add	r3, r7, #116
 1643 00d6 1849     		ldr	r1, .L52+8
 1644 00d8 1846     		mov	r0, r3
 1645 00da FFF7FEFF 		bl	strcmp
 1646 00de 0346     		mov	r3, r0
 1647 00e0 002B     		cmp	r3, #0
 1648 00e2 11D0     		beq	.L49
 344:..\src/SD_RTC_functions.c ****                     strcpy(directories_list[first_idx + num_found_dirs], acDirname);               
 1649              		.loc 1 344 0 is_stmt 1
 1650 00e4 7A68     		ldr	r2, [r7, #4]
 1651 00e6 D7F8CC30 		ldr	r3, [r7, #204]
 1652 00ea 1344     		add	r3, r3, r2
 1653 00ec DB00     		lsls	r3, r3, #3
 1654 00ee BA68     		ldr	r2, [r7, #8]
 1655 00f0 1344     		add	r3, r3, r2
 1656 00f2 07F17402 		add	r2, r7, #116
 1657 00f6 1146     		mov	r1, r2
 1658 00f8 1846     		mov	r0, r3
 1659 00fa FFF7FEFF 		bl	strcpy
 345:..\src/SD_RTC_functions.c ****                     num_found_dirs++;
 1660              		.loc 1 345 0
 1661 00fe D7F8CC30 		ldr	r3, [r7, #204]
 1662 0102 0133     		adds	r3, r3, #1
 1663 0104 C7F8CC30 		str	r3, [r7, #204]
 1664              	.L49:
 1665              	.LBE2:
 346:..\src/SD_RTC_functions.c ****                 }
 347:..\src/SD_RTC_functions.c ****             }    
 348:..\src/SD_RTC_functions.c ****  
 349:..\src/SD_RTC_functions.c ****         } while (FS_FindNextFile (&fd));
 1666              		.loc 1 349 0
 1667 0108 07F18803 		add	r3, r7, #136
 1668 010c 1846     		mov	r0, r3
 1669 010e FFF7FEFF 		bl	FS_FindNextFile
 1670 0112 0346     		mov	r3, r0
 1671 0114 002B     		cmp	r3, #0
 1672 0116 87D1     		bne	.L50
 1673              	.L48:
 350:..\src/SD_RTC_functions.c ****     }
 351:..\src/SD_RTC_functions.c ****     FS_FindClose(&fd);
 1674              		.loc 1 351 0
 1675 0118 07F18803 		add	r3, r7, #136
 1676 011c 1846     		mov	r0, r3
 1677 011e FFF7FEFF 		bl	FS_FindClose
 352:..\src/SD_RTC_functions.c ****     
 353:..\src/SD_RTC_functions.c ****     return num_found_dirs;
 1678              		.loc 1 353 0
 1679 0122 D7F8CC30 		ldr	r3, [r7, #204]
 354:..\src/SD_RTC_functions.c **** }
 1680              		.loc 1 354 0
 1681 0126 1846     		mov	r0, r3
 1682 0128 D037     		adds	r7, r7, #208
 1683              		.cfi_def_cfa_offset 8
 1684 012a BD46     		mov	sp, r7
 1685              		.cfi_def_cfa_register 13
ARM GAS  C:\Users\Mattia\AppData\Local\Temp\ccnjK3ek.s 			page 37


 1686              		@ sp needed
 1687 012c 80BD     		pop	{r7, pc}
 1688              	.L53:
 1689 012e 00BF     		.align	2
 1690              	.L52:
 1691 0130 48000000 		.word	.LC9
 1692 0134 4C000000 		.word	.LC10
 1693 0138 50000000 		.word	.LC11
 1694              		.cfi_endproc
 1695              	.LFE77:
 1696              		.size	Get_DirectoriesList, .-Get_DirectoriesList
 1697              		.section	.rodata
 1698 0053 00       		.align	2
 1699              	.LC12:
 1700 0054 5C25735C 		.ascii	"\\%s\\%s\\%s\\%s,%d\015\012\000"
 1700      25735C25 
 1700      735C2573 
 1700      2C25640D 
 1700      0A00
 1701              		.section	.text.Get_SD_FS,"ax",%progbits
 1702              		.align	2
 1703              		.global	Get_SD_FS
 1704              		.thumb
 1705              		.thumb_func
 1706              		.type	Get_SD_FS, %function
 1707              	Get_SD_FS:
 1708              	.LFB78:
 355:..\src/SD_RTC_functions.c **** 
 356:..\src/SD_RTC_functions.c **** /*******************************************************************************
 357:..\src/SD_RTC_functions.c **** * Function Name: Get SD Filesystem
 358:..\src/SD_RTC_functions.c **** *********************************************************************************/
 359:..\src/SD_RTC_functions.c **** void Get_SD_FS(char* info_data){
 1709              		.loc 1 359 0
 1710              		.cfi_startproc
 1711              		@ args = 0, pretend = 0, frame = 24720
 1712              		@ frame_needed = 1, uses_anonymous_args = 0
 1713 0000 B0B5     		push	{r4, r5, r7, lr}
 1714              		.cfi_def_cfa_offset 16
 1715              		.cfi_offset 4, -16
 1716              		.cfi_offset 5, -12
 1717              		.cfi_offset 7, -8
 1718              		.cfi_offset 14, -4
 1719 0002 ADF5C14D 		sub	sp, sp, #24704
 1720              		.cfi_def_cfa_offset 24720
 1721 0006 88B0     		sub	sp, sp, #32
 1722              		.cfi_def_cfa_offset 24752
 1723 0008 04AF     		add	r7, sp, #16
 1724              		.cfi_def_cfa 7, 24736
 1725 000a 07F11003 		add	r3, r7, #16
 1726 000e 0C3B     		subs	r3, r3, #12
 1727 0010 1860     		str	r0, [r3]
 360:..\src/SD_RTC_functions.c ****         
 361:..\src/SD_RTC_functions.c ****     // Called with PING command
 362:..\src/SD_RTC_functions.c ****     // Get all the folders with path and contained files number in the CSV-like format
 363:..\src/SD_RTC_functions.c ****     // and send to API through info_data string
 364:..\src/SD_RTC_functions.c ****     // USER\YYYY\MM\DD, number_of_files
 365:..\src/SD_RTC_functions.c ****     
ARM GAS  C:\Users\Mattia\AppData\Local\Temp\ccnjK3ek.s 			page 38


 366:..\src/SD_RTC_functions.c ****     
 367:..\src/SD_RTC_functions.c ****     strcpy(info_data, "");
 1728              		.loc 1 367 0
 1729 0012 07F11003 		add	r3, r7, #16
 1730 0016 0C3B     		subs	r3, r3, #12
 1731 0018 1B68     		ldr	r3, [r3]
 1732 001a 0022     		movs	r2, #0
 1733 001c 1A70     		strb	r2, [r3]
 368:..\src/SD_RTC_functions.c ****     
 369:..\src/SD_RTC_functions.c ****     // Get users folders   
 370:..\src/SD_RTC_functions.c ****     int num_found_users = 0;
 1734              		.loc 1 370 0
 1735 001e 0023     		movs	r3, #0
 1736 0020 07F5C042 		add	r2, r7, #24576
 1737 0024 02F16C02 		add	r2, r2, #108
 1738 0028 1360     		str	r3, [r2]
 371:..\src/SD_RTC_functions.c ****     char CYDATA found_users[20][8];         // Max. 20 users (each with 8 max. characters)
 372:..\src/SD_RTC_functions.c ****     char CYDATA folder_tree_data[3000][8];  //3000 days (>8 yrs) of everyday folders for each users
 373:..\src/SD_RTC_functions.c ****     memset(&found_users, 0, 20*8);
 1739              		.loc 1 373 0
 1740 002a 07F5BF43 		add	r3, r7, #24448
 1741 002e 03F14003 		add	r3, r3, #64
 1742 0032 A022     		movs	r2, #160
 1743 0034 0021     		movs	r1, #0
 1744 0036 1846     		mov	r0, r3
 1745 0038 FFF7FEFF 		bl	memset
 374:..\src/SD_RTC_functions.c ****     memset(&folder_tree_data, 0, 3000*8);
 1746              		.loc 1 374 0
 1747 003c 07F50473 		add	r3, r7, #528
 1748 0040 103B     		subs	r3, r3, #16
 1749 0042 45F6C052 		movw	r2, #24000
 1750 0046 0021     		movs	r1, #0
 1751 0048 1846     		mov	r0, r3
 1752 004a FFF7FEFF 		bl	memset
 375:..\src/SD_RTC_functions.c ****    
 376:..\src/SD_RTC_functions.c ****     num_found_users = Get_DirectoriesList("\\", folder_tree_data, 0);
 1753              		.loc 1 376 0
 1754 004e 07F50473 		add	r3, r7, #528
 1755 0052 103B     		subs	r3, r3, #16
 1756 0054 0022     		movs	r2, #0
 1757 0056 1946     		mov	r1, r3
 1758 0058 B348     		ldr	r0, .L65
 1759 005a FFF7FEFF 		bl	Get_DirectoriesList
 1760 005e 07F5C043 		add	r3, r7, #24576
 1761 0062 03F16C03 		add	r3, r3, #108
 1762 0066 1860     		str	r0, [r3]
 1763              	.LBB3:
 377:..\src/SD_RTC_functions.c ****     for (int i=0; i< num_found_users; i++){ // Copy user folders and free the tree structure
 1764              		.loc 1 377 0
 1765 0068 0023     		movs	r3, #0
 1766 006a 07F5C142 		add	r2, r7, #24704
 1767 006e 02F10C02 		add	r2, r2, #12
 1768 0072 1360     		str	r3, [r2]
 1769 0074 22E0     		b	.L55
 1770              	.L56:
 378:..\src/SD_RTC_functions.c ****         strcpy(found_users[i], folder_tree_data[i]);
 1771              		.loc 1 378 0 discriminator 3
ARM GAS  C:\Users\Mattia\AppData\Local\Temp\ccnjK3ek.s 			page 39


 1772 0076 07F5BF42 		add	r2, r7, #24448
 1773 007a 02F14002 		add	r2, r2, #64
 1774 007e 07F5C143 		add	r3, r7, #24704
 1775 0082 03F10C03 		add	r3, r3, #12
 1776 0086 1B68     		ldr	r3, [r3]
 1777 0088 DB00     		lsls	r3, r3, #3
 1778 008a D018     		adds	r0, r2, r3
 1779 008c 07F50473 		add	r3, r7, #528
 1780 0090 103B     		subs	r3, r3, #16
 1781 0092 07F5C142 		add	r2, r7, #24704
 1782 0096 02F10C02 		add	r2, r2, #12
 1783 009a 1268     		ldr	r2, [r2]
 1784 009c D200     		lsls	r2, r2, #3
 1785 009e 1344     		add	r3, r3, r2
 1786 00a0 1946     		mov	r1, r3
 1787 00a2 FFF7FEFF 		bl	strcpy
 377:..\src/SD_RTC_functions.c ****     for (int i=0; i< num_found_users; i++){ // Copy user folders and free the tree structure
 1788              		.loc 1 377 0 discriminator 3
 1789 00a6 07F5C143 		add	r3, r7, #24704
 1790 00aa 03F10C03 		add	r3, r3, #12
 1791 00ae 1B68     		ldr	r3, [r3]
 1792 00b0 0133     		adds	r3, r3, #1
 1793 00b2 07F5C142 		add	r2, r7, #24704
 1794 00b6 02F10C02 		add	r2, r2, #12
 1795 00ba 1360     		str	r3, [r2]
 1796              	.L55:
 377:..\src/SD_RTC_functions.c ****     for (int i=0; i< num_found_users; i++){ // Copy user folders and free the tree structure
 1797              		.loc 1 377 0 is_stmt 0 discriminator 1
 1798 00bc 07F5C143 		add	r3, r7, #24704
 1799 00c0 03F10C03 		add	r3, r3, #12
 1800 00c4 1A68     		ldr	r2, [r3]
 1801 00c6 07F5C043 		add	r3, r7, #24576
 1802 00ca 03F16C03 		add	r3, r3, #108
 1803 00ce 1B68     		ldr	r3, [r3]
 1804 00d0 9A42     		cmp	r2, r3
 1805 00d2 D0DB     		blt	.L56
 1806              	.LBE3:
 379:..\src/SD_RTC_functions.c ****     }
 380:..\src/SD_RTC_functions.c ****     memset(&folder_tree_data, 0, 3000*8);
 1807              		.loc 1 380 0 is_stmt 1
 1808 00d4 07F50473 		add	r3, r7, #528
 1809 00d8 103B     		subs	r3, r3, #16
 1810 00da 45F6C052 		movw	r2, #24000
 1811 00de 0021     		movs	r1, #0
 1812 00e0 1846     		mov	r0, r3
 1813 00e2 FFF7FEFF 		bl	memset
 381:..\src/SD_RTC_functions.c ****     
 382:..\src/SD_RTC_functions.c ****     int n_idx = 0;
 1814              		.loc 1 382 0
 1815 00e6 0023     		movs	r3, #0
 1816 00e8 07F5C142 		add	r2, r7, #24704
 1817 00ec 02F10802 		add	r2, r2, #8
 1818 00f0 1360     		str	r3, [r2]
 1819              	.LBB4:
 383:..\src/SD_RTC_functions.c ****     for (int i=0; i< num_found_users; i++){
 1820              		.loc 1 383 0
 1821 00f2 0023     		movs	r3, #0
ARM GAS  C:\Users\Mattia\AppData\Local\Temp\ccnjK3ek.s 			page 40


 1822 00f4 07F5C142 		add	r2, r7, #24704
 1823 00f8 02F10402 		add	r2, r2, #4
 1824 00fc 1360     		str	r3, [r2]
 1825 00fe 56E2     		b	.L57
 1826              	.L64:
 1827              	.LBB5:
 384:..\src/SD_RTC_functions.c ****         char y_path[100] = "\\";
 1828              		.loc 1 384 0
 1829 0100 07F11003 		add	r3, r7, #16
 1830 0104 043B     		subs	r3, r3, #4
 1831 0106 5C22     		movs	r2, #92
 1832 0108 1A60     		str	r2, [r3]
 1833 010a 0433     		adds	r3, r3, #4
 1834 010c 6022     		movs	r2, #96
 1835 010e 0021     		movs	r1, #0
 1836 0110 1846     		mov	r0, r3
 1837 0112 FFF7FEFF 		bl	memset
 385:..\src/SD_RTC_functions.c ****         strcat(y_path, found_users[i]);
 1838              		.loc 1 385 0
 1839 0116 07F5BF42 		add	r2, r7, #24448
 1840 011a 02F14002 		add	r2, r2, #64
 1841 011e 07F5C143 		add	r3, r7, #24704
 1842 0122 03F10403 		add	r3, r3, #4
 1843 0126 1B68     		ldr	r3, [r3]
 1844 0128 DB00     		lsls	r3, r3, #3
 1845 012a 1A44     		add	r2, r2, r3
 1846 012c 07F11003 		add	r3, r7, #16
 1847 0130 043B     		subs	r3, r3, #4
 1848 0132 1146     		mov	r1, r2
 1849 0134 1846     		mov	r0, r3
 1850 0136 FFF7FEFF 		bl	strcat
 386:..\src/SD_RTC_functions.c ****         strcat(y_path, "\\");
 1851              		.loc 1 386 0
 1852 013a 07F11003 		add	r3, r7, #16
 1853 013e 043B     		subs	r3, r3, #4
 1854 0140 1846     		mov	r0, r3
 1855 0142 FFF7FEFF 		bl	strlen
 1856 0146 0346     		mov	r3, r0
 1857 0148 1A46     		mov	r2, r3
 1858 014a 07F11003 		add	r3, r7, #16
 1859 014e 043B     		subs	r3, r3, #4
 1860 0150 1344     		add	r3, r3, r2
 1861 0152 7549     		ldr	r1, .L65
 1862 0154 1A46     		mov	r2, r3
 1863 0156 0B46     		mov	r3, r1
 1864 0158 1B88     		ldrh	r3, [r3]	@ unaligned
 1865 015a 1380     		strh	r3, [r2]	@ unaligned
 387:..\src/SD_RTC_functions.c ****         
 388:..\src/SD_RTC_functions.c ****         int nyears = Get_DirectoriesList(y_path, folder_tree_data, n_idx);
 1866              		.loc 1 388 0
 1867 015c 07F50471 		add	r1, r7, #528
 1868 0160 1039     		subs	r1, r1, #16
 1869 0162 07F11003 		add	r3, r7, #16
 1870 0166 043B     		subs	r3, r3, #4
 1871 0168 07F5C142 		add	r2, r7, #24704
 1872 016c 02F10802 		add	r2, r2, #8
 1873 0170 1268     		ldr	r2, [r2]
ARM GAS  C:\Users\Mattia\AppData\Local\Temp\ccnjK3ek.s 			page 41


 1874 0172 1846     		mov	r0, r3
 1875 0174 FFF7FEFF 		bl	Get_DirectoriesList
 1876 0178 07F5C043 		add	r3, r7, #24576
 1877 017c 03F16803 		add	r3, r3, #104
 1878 0180 1860     		str	r0, [r3]
 389:..\src/SD_RTC_functions.c ****         int nmonths = 0, ndays = 0;
 1879              		.loc 1 389 0
 1880 0182 0023     		movs	r3, #0
 1881 0184 07F5C142 		add	r2, r7, #24704
 1882 0188 1360     		str	r3, [r2]
 1883 018a 0023     		movs	r3, #0
 1884 018c 07F5C042 		add	r2, r7, #24576
 1885 0190 02F17C02 		add	r2, r2, #124
 1886 0194 1360     		str	r3, [r2]
 1887              	.LBB6:
 390:..\src/SD_RTC_functions.c ****         for (int j=0; j< nyears; j++){
 1888              		.loc 1 390 0
 1889 0196 0023     		movs	r3, #0
 1890 0198 07F5C042 		add	r2, r7, #24576
 1891 019c 02F17802 		add	r2, r2, #120
 1892 01a0 1360     		str	r3, [r2]
 1893 01a2 D2E1     		b	.L58
 1894              	.L63:
 1895              	.LBB7:
 391:..\src/SD_RTC_functions.c ****             char m_path[100] = "\\";
 1896              		.loc 1 391 0
 1897 01a4 07F19003 		add	r3, r7, #144
 1898 01a8 203B     		subs	r3, r3, #32
 1899 01aa 5C22     		movs	r2, #92
 1900 01ac 1A60     		str	r2, [r3]
 1901 01ae 0433     		adds	r3, r3, #4
 1902 01b0 6022     		movs	r2, #96
 1903 01b2 0021     		movs	r1, #0
 1904 01b4 1846     		mov	r0, r3
 1905 01b6 FFF7FEFF 		bl	memset
 392:..\src/SD_RTC_functions.c ****             strcpy(m_path, y_path);
 1906              		.loc 1 392 0
 1907 01ba 07F11002 		add	r2, r7, #16
 1908 01be 043A     		subs	r2, r2, #4
 1909 01c0 07F19003 		add	r3, r7, #144
 1910 01c4 203B     		subs	r3, r3, #32
 1911 01c6 1146     		mov	r1, r2
 1912 01c8 1846     		mov	r0, r3
 1913 01ca FFF7FEFF 		bl	strcpy
 393:..\src/SD_RTC_functions.c ****             strcat(m_path, folder_tree_data[n_idx + j]);
 1914              		.loc 1 393 0
 1915 01ce 07F5C143 		add	r3, r7, #24704
 1916 01d2 03F10803 		add	r3, r3, #8
 1917 01d6 1A68     		ldr	r2, [r3]
 1918 01d8 07F5C043 		add	r3, r7, #24576
 1919 01dc 03F17803 		add	r3, r3, #120
 1920 01e0 1B68     		ldr	r3, [r3]
 1921 01e2 1A44     		add	r2, r2, r3
 1922 01e4 07F50473 		add	r3, r7, #528
 1923 01e8 103B     		subs	r3, r3, #16
 1924 01ea D200     		lsls	r2, r2, #3
 1925 01ec 1A44     		add	r2, r2, r3
ARM GAS  C:\Users\Mattia\AppData\Local\Temp\ccnjK3ek.s 			page 42


 1926 01ee 07F19003 		add	r3, r7, #144
 1927 01f2 203B     		subs	r3, r3, #32
 1928 01f4 1146     		mov	r1, r2
 1929 01f6 1846     		mov	r0, r3
 1930 01f8 FFF7FEFF 		bl	strcat
 394:..\src/SD_RTC_functions.c ****             strcat(m_path, "\\");
 1931              		.loc 1 394 0
 1932 01fc 07F19003 		add	r3, r7, #144
 1933 0200 203B     		subs	r3, r3, #32
 1934 0202 1846     		mov	r0, r3
 1935 0204 FFF7FEFF 		bl	strlen
 1936 0208 0346     		mov	r3, r0
 1937 020a 1A46     		mov	r2, r3
 1938 020c 07F19003 		add	r3, r7, #144
 1939 0210 203B     		subs	r3, r3, #32
 1940 0212 1344     		add	r3, r3, r2
 1941 0214 4449     		ldr	r1, .L65
 1942 0216 1A46     		mov	r2, r3
 1943 0218 0B46     		mov	r3, r1
 1944 021a 1B88     		ldrh	r3, [r3]	@ unaligned
 1945 021c 1380     		strh	r3, [r2]	@ unaligned
 395:..\src/SD_RTC_functions.c ****             nmonths = Get_DirectoriesList(m_path, folder_tree_data, n_idx + nyears);
 1946              		.loc 1 395 0
 1947 021e 07F5C143 		add	r3, r7, #24704
 1948 0222 03F10803 		add	r3, r3, #8
 1949 0226 1A68     		ldr	r2, [r3]
 1950 0228 07F5C043 		add	r3, r7, #24576
 1951 022c 03F16803 		add	r3, r3, #104
 1952 0230 1B68     		ldr	r3, [r3]
 1953 0232 1A44     		add	r2, r2, r3
 1954 0234 07F50471 		add	r1, r7, #528
 1955 0238 1039     		subs	r1, r1, #16
 1956 023a 07F19003 		add	r3, r7, #144
 1957 023e 203B     		subs	r3, r3, #32
 1958 0240 1846     		mov	r0, r3
 1959 0242 FFF7FEFF 		bl	Get_DirectoriesList
 1960 0246 07F5C143 		add	r3, r7, #24704
 1961 024a 1860     		str	r0, [r3]
 1962              	.LBB8:
 396:..\src/SD_RTC_functions.c ****             for (int k=0; k< nmonths; k++){
 1963              		.loc 1 396 0
 1964 024c 0023     		movs	r3, #0
 1965 024e 07F5C042 		add	r2, r7, #24576
 1966 0252 02F17402 		add	r2, r2, #116
 1967 0256 1360     		str	r3, [r2]
 1968 0258 61E1     		b	.L59
 1969              	.L62:
 1970              	.LBB9:
 397:..\src/SD_RTC_functions.c ****                 char d_path[100] = "\\";
 1971              		.loc 1 397 0
 1972 025a 07F58873 		add	r3, r7, #272
 1973 025e 3C3B     		subs	r3, r3, #60
 1974 0260 5C22     		movs	r2, #92
 1975 0262 1A60     		str	r2, [r3]
 1976 0264 0433     		adds	r3, r3, #4
 1977 0266 6022     		movs	r2, #96
 1978 0268 0021     		movs	r1, #0
ARM GAS  C:\Users\Mattia\AppData\Local\Temp\ccnjK3ek.s 			page 43


 1979 026a 1846     		mov	r0, r3
 1980 026c FFF7FEFF 		bl	memset
 398:..\src/SD_RTC_functions.c ****                 strcpy(d_path, m_path);
 1981              		.loc 1 398 0
 1982 0270 07F19002 		add	r2, r7, #144
 1983 0274 203A     		subs	r2, r2, #32
 1984 0276 07F58873 		add	r3, r7, #272
 1985 027a 3C3B     		subs	r3, r3, #60
 1986 027c 1146     		mov	r1, r2
 1987 027e 1846     		mov	r0, r3
 1988 0280 FFF7FEFF 		bl	strcpy
 399:..\src/SD_RTC_functions.c ****                 strcat(d_path, folder_tree_data[n_idx + nyears + k]);
 1989              		.loc 1 399 0
 1990 0284 07F5C143 		add	r3, r7, #24704
 1991 0288 03F10803 		add	r3, r3, #8
 1992 028c 1A68     		ldr	r2, [r3]
 1993 028e 07F5C043 		add	r3, r7, #24576
 1994 0292 03F16803 		add	r3, r3, #104
 1995 0296 1B68     		ldr	r3, [r3]
 1996 0298 1A44     		add	r2, r2, r3
 1997 029a 07F5C043 		add	r3, r7, #24576
 1998 029e 03F17403 		add	r3, r3, #116
 1999 02a2 1B68     		ldr	r3, [r3]
 2000 02a4 1A44     		add	r2, r2, r3
 2001 02a6 07F50473 		add	r3, r7, #528
 2002 02aa 103B     		subs	r3, r3, #16
 2003 02ac D200     		lsls	r2, r2, #3
 2004 02ae 1A44     		add	r2, r2, r3
 2005 02b0 07F58873 		add	r3, r7, #272
 2006 02b4 3C3B     		subs	r3, r3, #60
 2007 02b6 1146     		mov	r1, r2
 2008 02b8 1846     		mov	r0, r3
 2009 02ba FFF7FEFF 		bl	strcat
 400:..\src/SD_RTC_functions.c ****                 strcat(d_path, "\\");
 2010              		.loc 1 400 0
 2011 02be 07F58873 		add	r3, r7, #272
 2012 02c2 3C3B     		subs	r3, r3, #60
 2013 02c4 1846     		mov	r0, r3
 2014 02c6 FFF7FEFF 		bl	strlen
 2015 02ca 0346     		mov	r3, r0
 2016 02cc 1A46     		mov	r2, r3
 2017 02ce 07F58873 		add	r3, r7, #272
 2018 02d2 3C3B     		subs	r3, r3, #60
 2019 02d4 1344     		add	r3, r3, r2
 2020 02d6 1449     		ldr	r1, .L65
 2021 02d8 1A46     		mov	r2, r3
 2022 02da 0B46     		mov	r3, r1
 2023 02dc 1B88     		ldrh	r3, [r3]	@ unaligned
 2024 02de 1380     		strh	r3, [r2]	@ unaligned
 401:..\src/SD_RTC_functions.c ****                 ndays = Get_DirectoriesList(d_path, folder_tree_data, n_idx + nyears + nmonths);
 2025              		.loc 1 401 0
 2026 02e0 07F5C143 		add	r3, r7, #24704
 2027 02e4 03F10803 		add	r3, r3, #8
 2028 02e8 1A68     		ldr	r2, [r3]
 2029 02ea 07F5C043 		add	r3, r7, #24576
 2030 02ee 03F16803 		add	r3, r3, #104
 2031 02f2 1B68     		ldr	r3, [r3]
ARM GAS  C:\Users\Mattia\AppData\Local\Temp\ccnjK3ek.s 			page 44


 2032 02f4 1A44     		add	r2, r2, r3
 2033 02f6 07F5C143 		add	r3, r7, #24704
 2034 02fa 1B68     		ldr	r3, [r3]
 2035 02fc 1A44     		add	r2, r2, r3
 2036 02fe 07F50471 		add	r1, r7, #528
 2037 0302 1039     		subs	r1, r1, #16
 2038 0304 07F58873 		add	r3, r7, #272
 2039 0308 3C3B     		subs	r3, r3, #60
 2040 030a 1846     		mov	r0, r3
 2041 030c FFF7FEFF 		bl	Get_DirectoriesList
 2042 0310 07F5C043 		add	r3, r7, #24576
 2043 0314 03F17C03 		add	r3, r3, #124
 2044 0318 1860     		str	r0, [r3]
 2045              	.LBB10:
 402:..\src/SD_RTC_functions.c ****                 for (int h=0; h< ndays; h++){
 2046              		.loc 1 402 0
 2047 031a 0023     		movs	r3, #0
 2048 031c 07F5C042 		add	r2, r7, #24576
 2049 0320 02F17002 		add	r2, r2, #112
 2050 0324 1360     		str	r3, [r2]
 2051 0326 E2E0     		b	.L60
 2052              	.L66:
 2053              		.align	2
 2054              	.L65:
 2055 0328 48000000 		.word	.LC9
 2056              	.L61:
 2057              	.LBB11:
 403:..\src/SD_RTC_functions.c ****                     
 404:..\src/SD_RTC_functions.c ****                     char f_path[100] = "\\";
 2058              		.loc 1 404 0 discriminator 3
 2059 032c 07F5C873 		add	r3, r7, #400
 2060 0330 583B     		subs	r3, r3, #88
 2061 0332 5C22     		movs	r2, #92
 2062 0334 1A60     		str	r2, [r3]
 2063 0336 0433     		adds	r3, r3, #4
 2064 0338 6022     		movs	r2, #96
 2065 033a 0021     		movs	r1, #0
 2066 033c 1846     		mov	r0, r3
 2067 033e FFF7FEFF 		bl	memset
 405:..\src/SD_RTC_functions.c ****                     strcpy(f_path, d_path);
 2068              		.loc 1 405 0 discriminator 3
 2069 0342 07F58872 		add	r2, r7, #272
 2070 0346 3C3A     		subs	r2, r2, #60
 2071 0348 07F5C873 		add	r3, r7, #400
 2072 034c 583B     		subs	r3, r3, #88
 2073 034e 1146     		mov	r1, r2
 2074 0350 1846     		mov	r0, r3
 2075 0352 FFF7FEFF 		bl	strcpy
 406:..\src/SD_RTC_functions.c ****                     strcat(f_path, folder_tree_data[n_idx + nyears + nmonths + h]);
 2076              		.loc 1 406 0 discriminator 3
 2077 0356 07F5C143 		add	r3, r7, #24704
 2078 035a 03F10803 		add	r3, r3, #8
 2079 035e 1A68     		ldr	r2, [r3]
 2080 0360 07F5C043 		add	r3, r7, #24576
 2081 0364 03F16803 		add	r3, r3, #104
 2082 0368 1B68     		ldr	r3, [r3]
 2083 036a 1A44     		add	r2, r2, r3
ARM GAS  C:\Users\Mattia\AppData\Local\Temp\ccnjK3ek.s 			page 45


 2084 036c 07F5C143 		add	r3, r7, #24704
 2085 0370 1B68     		ldr	r3, [r3]
 2086 0372 1A44     		add	r2, r2, r3
 2087 0374 07F5C043 		add	r3, r7, #24576
 2088 0378 03F17003 		add	r3, r3, #112
 2089 037c 1B68     		ldr	r3, [r3]
 2090 037e 1A44     		add	r2, r2, r3
 2091 0380 07F50473 		add	r3, r7, #528
 2092 0384 103B     		subs	r3, r3, #16
 2093 0386 D200     		lsls	r2, r2, #3
 2094 0388 1A44     		add	r2, r2, r3
 2095 038a 07F5C873 		add	r3, r7, #400
 2096 038e 583B     		subs	r3, r3, #88
 2097 0390 1146     		mov	r1, r2
 2098 0392 1846     		mov	r0, r3
 2099 0394 FFF7FEFF 		bl	strcat
 407:..\src/SD_RTC_functions.c ****                     strcat(f_path, "\\");
 2100              		.loc 1 407 0 discriminator 3
 2101 0398 07F5C873 		add	r3, r7, #400
 2102 039c 583B     		subs	r3, r3, #88
 2103 039e 1846     		mov	r0, r3
 2104 03a0 FFF7FEFF 		bl	strlen
 2105 03a4 0346     		mov	r3, r0
 2106 03a6 1A46     		mov	r2, r3
 2107 03a8 07F5C873 		add	r3, r7, #400
 2108 03ac 583B     		subs	r3, r3, #88
 2109 03ae 1344     		add	r3, r3, r2
 2110 03b0 8849     		ldr	r1, .L67
 2111 03b2 1A46     		mov	r2, r3
 2112 03b4 0B46     		mov	r3, r1
 2113 03b6 1B88     		ldrh	r3, [r3]	@ unaligned
 2114 03b8 1380     		strh	r3, [r2]	@ unaligned
 408:..\src/SD_RTC_functions.c ****                     
 409:..\src/SD_RTC_functions.c ****                     // A directory with data files cannot be empty
 410:..\src/SD_RTC_functions.c ****                     FS_DIR* pDir = FS_OpenDir(f_path);
 2115              		.loc 1 410 0 discriminator 3
 2116 03ba 07F5C873 		add	r3, r7, #400
 2117 03be 583B     		subs	r3, r3, #88
 2118 03c0 1846     		mov	r0, r3
 2119 03c2 FFF7FEFF 		bl	FS_OpenDir
 2120 03c6 07F5C043 		add	r3, r7, #24576
 2121 03ca 03F16403 		add	r3, r3, #100
 2122 03ce 1860     		str	r0, [r3]
 411:..\src/SD_RTC_functions.c ****                     int nfiles = FS_GetNumFiles(pDir);
 2123              		.loc 1 411 0 discriminator 3
 2124 03d0 07F5C043 		add	r3, r7, #24576
 2125 03d4 03F16403 		add	r3, r3, #100
 2126 03d8 1868     		ldr	r0, [r3]
 2127 03da FFF7FEFF 		bl	FS_GetNumFiles
 2128 03de 0346     		mov	r3, r0
 2129 03e0 07F5C042 		add	r2, r7, #24576
 2130 03e4 02F16002 		add	r2, r2, #96
 2131 03e8 1360     		str	r3, [r2]
 412:..\src/SD_RTC_functions.c ****                     FS_CloseDir(pDir);
 2132              		.loc 1 412 0 discriminator 3
 2133 03ea 07F5C043 		add	r3, r7, #24576
 2134 03ee 03F16403 		add	r3, r3, #100
ARM GAS  C:\Users\Mattia\AppData\Local\Temp\ccnjK3ek.s 			page 46


 2135 03f2 1868     		ldr	r0, [r3]
 2136 03f4 FFF7FEFF 		bl	FS_CloseDir
 413:..\src/SD_RTC_functions.c ****                               
 414:..\src/SD_RTC_functions.c ****                     char str[100] = "";
 2137              		.loc 1 414 0 discriminator 3
 2138 03f8 07F50473 		add	r3, r7, #528
 2139 03fc 743B     		subs	r3, r3, #116
 2140 03fe 0022     		movs	r2, #0
 2141 0400 1A60     		str	r2, [r3]
 2142 0402 0433     		adds	r3, r3, #4
 2143 0404 6022     		movs	r2, #96
 2144 0406 0021     		movs	r1, #0
 2145 0408 1846     		mov	r0, r3
 2146 040a FFF7FEFF 		bl	memset
 415:..\src/SD_RTC_functions.c ****                     sprintf(str, "\\%s\\%s\\%s\\%s,%d\r\n", found_users[i], folder_tree_data[n_idx+
 2147              		.loc 1 415 0 discriminator 3
 2148 040e 07F5BF42 		add	r2, r7, #24448
 2149 0412 02F14002 		add	r2, r2, #64
 2150 0416 07F5C143 		add	r3, r7, #24704
 2151 041a 03F10403 		add	r3, r3, #4
 2152 041e 1B68     		ldr	r3, [r3]
 2153 0420 DB00     		lsls	r3, r3, #3
 2154 0422 D418     		adds	r4, r2, r3
 2155 0424 07F5C143 		add	r3, r7, #24704
 2156 0428 03F10803 		add	r3, r3, #8
 2157 042c 1A68     		ldr	r2, [r3]
 2158 042e 07F5C043 		add	r3, r7, #24576
 2159 0432 03F17803 		add	r3, r3, #120
 2160 0436 1B68     		ldr	r3, [r3]
 2161 0438 1A44     		add	r2, r2, r3
 2162 043a 07F50473 		add	r3, r7, #528
 2163 043e 103B     		subs	r3, r3, #16
 2164 0440 D200     		lsls	r2, r2, #3
 2165 0442 9D18     		adds	r5, r3, r2
 416:..\src/SD_RTC_functions.c ****                             folder_tree_data[n_idx+nyears+k], folder_tree_data[n_idx+nyears+nmonths
 2166              		.loc 1 416 0 discriminator 3
 2167 0444 07F5C143 		add	r3, r7, #24704
 2168 0448 03F10803 		add	r3, r3, #8
 2169 044c 1A68     		ldr	r2, [r3]
 2170 044e 07F5C043 		add	r3, r7, #24576
 2171 0452 03F16803 		add	r3, r3, #104
 2172 0456 1B68     		ldr	r3, [r3]
 2173 0458 1A44     		add	r2, r2, r3
 2174 045a 07F5C043 		add	r3, r7, #24576
 2175 045e 03F17403 		add	r3, r3, #116
 2176 0462 1B68     		ldr	r3, [r3]
 2177 0464 1A44     		add	r2, r2, r3
 2178 0466 07F50473 		add	r3, r7, #528
 2179 046a 103B     		subs	r3, r3, #16
 2180 046c D200     		lsls	r2, r2, #3
 2181 046e 1A44     		add	r2, r2, r3
 2182 0470 07F5C143 		add	r3, r7, #24704
 2183 0474 03F10803 		add	r3, r3, #8
 2184 0478 1968     		ldr	r1, [r3]
 2185 047a 07F5C043 		add	r3, r7, #24576
 2186 047e 03F16803 		add	r3, r3, #104
 2187 0482 1B68     		ldr	r3, [r3]
ARM GAS  C:\Users\Mattia\AppData\Local\Temp\ccnjK3ek.s 			page 47


 2188 0484 1944     		add	r1, r1, r3
 2189 0486 07F5C143 		add	r3, r7, #24704
 2190 048a 1B68     		ldr	r3, [r3]
 2191 048c 1944     		add	r1, r1, r3
 2192 048e 07F5C043 		add	r3, r7, #24576
 2193 0492 03F17003 		add	r3, r3, #112
 2194 0496 1B68     		ldr	r3, [r3]
 2195 0498 1944     		add	r1, r1, r3
 2196 049a 07F50473 		add	r3, r7, #528
 2197 049e 103B     		subs	r3, r3, #16
 2198 04a0 C900     		lsls	r1, r1, #3
 2199 04a2 0B44     		add	r3, r3, r1
 415:..\src/SD_RTC_functions.c ****                     sprintf(str, "\\%s\\%s\\%s\\%s,%d\r\n", found_users[i], folder_tree_data[n_idx+
 2200              		.loc 1 415 0 discriminator 3
 2201 04a4 07F50470 		add	r0, r7, #528
 2202 04a8 7438     		subs	r0, r0, #116
 2203 04aa 07F5C041 		add	r1, r7, #24576
 2204 04ae 01F16001 		add	r1, r1, #96
 2205 04b2 0968     		ldr	r1, [r1]
 2206 04b4 0291     		str	r1, [sp, #8]
 2207 04b6 0193     		str	r3, [sp, #4]
 2208 04b8 0092     		str	r2, [sp]
 2209 04ba 2B46     		mov	r3, r5
 2210 04bc 2246     		mov	r2, r4
 2211 04be 4649     		ldr	r1, .L67+4
 2212 04c0 FFF7FEFF 		bl	sprintf
 417:..\src/SD_RTC_functions.c ****                     strcat(info_data, str);
 2213              		.loc 1 417 0 discriminator 3
 2214 04c4 07F50472 		add	r2, r7, #528
 2215 04c8 743A     		subs	r2, r2, #116
 2216 04ca 07F11003 		add	r3, r7, #16
 2217 04ce 0C3B     		subs	r3, r3, #12
 2218 04d0 1146     		mov	r1, r2
 2219 04d2 1868     		ldr	r0, [r3]
 2220 04d4 FFF7FEFF 		bl	strcat
 2221              	.LBE11:
 402:..\src/SD_RTC_functions.c ****                     
 2222              		.loc 1 402 0 discriminator 3
 2223 04d8 07F5C043 		add	r3, r7, #24576
 2224 04dc 03F17003 		add	r3, r3, #112
 2225 04e0 1B68     		ldr	r3, [r3]
 2226 04e2 0133     		adds	r3, r3, #1
 2227 04e4 07F5C042 		add	r2, r7, #24576
 2228 04e8 02F17002 		add	r2, r2, #112
 2229 04ec 1360     		str	r3, [r2]
 2230              	.L60:
 402:..\src/SD_RTC_functions.c ****                     
 2231              		.loc 1 402 0 is_stmt 0 discriminator 1
 2232 04ee 07F5C043 		add	r3, r7, #24576
 2233 04f2 03F17003 		add	r3, r3, #112
 2234 04f6 1A68     		ldr	r2, [r3]
 2235 04f8 07F5C043 		add	r3, r7, #24576
 2236 04fc 03F17C03 		add	r3, r3, #124
 2237 0500 1B68     		ldr	r3, [r3]
 2238 0502 9A42     		cmp	r2, r3
 2239 0504 FFF612AF 		blt	.L61
 2240              	.LBE10:
ARM GAS  C:\Users\Mattia\AppData\Local\Temp\ccnjK3ek.s 			page 48


 2241              	.LBE9:
 396:..\src/SD_RTC_functions.c ****                 char d_path[100] = "\\";
 2242              		.loc 1 396 0 is_stmt 1 discriminator 2
 2243 0508 07F5C043 		add	r3, r7, #24576
 2244 050c 03F17403 		add	r3, r3, #116
 2245 0510 1B68     		ldr	r3, [r3]
 2246 0512 0133     		adds	r3, r3, #1
 2247 0514 07F5C042 		add	r2, r7, #24576
 2248 0518 02F17402 		add	r2, r2, #116
 2249 051c 1360     		str	r3, [r2]
 2250              	.L59:
 396:..\src/SD_RTC_functions.c ****                 char d_path[100] = "\\";
 2251              		.loc 1 396 0 is_stmt 0 discriminator 1
 2252 051e 07F5C043 		add	r3, r7, #24576
 2253 0522 03F17403 		add	r3, r3, #116
 2254 0526 1A68     		ldr	r2, [r3]
 2255 0528 07F5C143 		add	r3, r7, #24704
 2256 052c 1B68     		ldr	r3, [r3]
 2257 052e 9A42     		cmp	r2, r3
 2258 0530 FFF693AE 		blt	.L62
 2259              	.LBE8:
 2260              	.LBE7:
 390:..\src/SD_RTC_functions.c ****             char m_path[100] = "\\";
 2261              		.loc 1 390 0 is_stmt 1 discriminator 2
 2262 0534 07F5C043 		add	r3, r7, #24576
 2263 0538 03F17803 		add	r3, r3, #120
 2264 053c 1B68     		ldr	r3, [r3]
 2265 053e 0133     		adds	r3, r3, #1
 2266 0540 07F5C042 		add	r2, r7, #24576
 2267 0544 02F17802 		add	r2, r2, #120
 2268 0548 1360     		str	r3, [r2]
 2269              	.L58:
 390:..\src/SD_RTC_functions.c ****             char m_path[100] = "\\";
 2270              		.loc 1 390 0 is_stmt 0 discriminator 1
 2271 054a 07F5C043 		add	r3, r7, #24576
 2272 054e 03F17803 		add	r3, r3, #120
 2273 0552 1A68     		ldr	r2, [r3]
 2274 0554 07F5C043 		add	r3, r7, #24576
 2275 0558 03F16803 		add	r3, r3, #104
 2276 055c 1B68     		ldr	r3, [r3]
 2277 055e 9A42     		cmp	r2, r3
 2278 0560 FFF620AE 		blt	.L63
 2279              	.LBE6:
 418:..\src/SD_RTC_functions.c ****                 }
 419:..\src/SD_RTC_functions.c ****             }
 420:..\src/SD_RTC_functions.c ****         }
 421:..\src/SD_RTC_functions.c ****         n_idx += nyears + nmonths + ndays;
 2280              		.loc 1 421 0 is_stmt 1 discriminator 2
 2281 0564 07F5C043 		add	r3, r7, #24576
 2282 0568 03F16803 		add	r3, r3, #104
 2283 056c 1A68     		ldr	r2, [r3]
 2284 056e 07F5C143 		add	r3, r7, #24704
 2285 0572 1B68     		ldr	r3, [r3]
 2286 0574 1A44     		add	r2, r2, r3
 2287 0576 07F5C043 		add	r3, r7, #24576
 2288 057a 03F17C03 		add	r3, r3, #124
 2289 057e 1B68     		ldr	r3, [r3]
ARM GAS  C:\Users\Mattia\AppData\Local\Temp\ccnjK3ek.s 			page 49


 2290 0580 1344     		add	r3, r3, r2
 2291 0582 07F5C142 		add	r2, r7, #24704
 2292 0586 02F10802 		add	r2, r2, #8
 2293 058a 1268     		ldr	r2, [r2]
 2294 058c 1344     		add	r3, r3, r2
 2295 058e 07F5C142 		add	r2, r7, #24704
 2296 0592 02F10802 		add	r2, r2, #8
 2297 0596 1360     		str	r3, [r2]
 2298              	.LBE5:
 383:..\src/SD_RTC_functions.c ****         char y_path[100] = "\\";
 2299              		.loc 1 383 0 discriminator 2
 2300 0598 07F5C143 		add	r3, r7, #24704
 2301 059c 03F10403 		add	r3, r3, #4
 2302 05a0 1B68     		ldr	r3, [r3]
 2303 05a2 0133     		adds	r3, r3, #1
 2304 05a4 07F5C142 		add	r2, r7, #24704
 2305 05a8 02F10402 		add	r2, r2, #4
 2306 05ac 1360     		str	r3, [r2]
 2307              	.L57:
 383:..\src/SD_RTC_functions.c ****         char y_path[100] = "\\";
 2308              		.loc 1 383 0 is_stmt 0 discriminator 1
 2309 05ae 07F5C143 		add	r3, r7, #24704
 2310 05b2 03F10403 		add	r3, r3, #4
 2311 05b6 1A68     		ldr	r2, [r3]
 2312 05b8 07F5C043 		add	r3, r7, #24576
 2313 05bc 03F16C03 		add	r3, r3, #108
 2314 05c0 1B68     		ldr	r3, [r3]
 2315 05c2 9A42     		cmp	r2, r3
 2316 05c4 FFF69CAD 		blt	.L64
 2317              	.LBE4:
 422:..\src/SD_RTC_functions.c ****     }    
 423:..\src/SD_RTC_functions.c **** }...
 2318              		.loc 1 423 0 is_stmt 1
 2319 05c8 00BF     		nop
 2320 05ca 07F5C147 		add	r7, r7, #24704
 2321 05ce 1037     		adds	r7, r7, #16
 2322              		.cfi_def_cfa_offset 16
 2323 05d0 BD46     		mov	sp, r7
 2324              		.cfi_def_cfa_register 13
 2325              		@ sp needed
 2326 05d2 B0BD     		pop	{r4, r5, r7, pc}
 2327              	.L68:
 2328              		.align	2
 2329              	.L67:
 2330 05d4 48000000 		.word	.LC9
 2331 05d8 54000000 		.word	.LC12
 2332              		.cfi_endproc
 2333              	.LFE78:
 2334              		.size	Get_SD_FS, .-Get_SD_FS
 2335              		.text
 2336              	.Letext0:
 2337              		.file 2 "c:\\program files (x86)\\cypress\\psoc creator\\4.4\\psoc creator\\import\\gnu\\arm\\5.4.
 2338              		.file 3 "c:\\program files (x86)\\cypress\\psoc creator\\4.4\\psoc creator\\import\\gnu\\arm\\5.4.
 2339              		.file 4 "Generated_Source\\PSoC5/cytypes.h"
 2340              		.file 5 "..\\src\\emFile_V322c\\Code\\Include\\PSoC5/FS_Types.h"
 2341              		.file 6 "..\\src\\emFile_V322c\\Code\\Include\\PSoC5/FS.h"
 2342              		.file 7 "..\\src\\globals.h"
ARM GAS  C:\Users\Mattia\AppData\Local\Temp\ccnjK3ek.s 			page 50


 2343              		.file 8 "Generated_Source\\PSoC5/core_cm3.h"
 2344              		.section	.debug_info,"",%progbits
 2345              	.Ldebug_info0:
 2346 0000 EE100000 		.4byte	0x10ee
 2347 0004 0400     		.2byte	0x4
 2348 0006 00000000 		.4byte	.Ldebug_abbrev0
 2349 000a 04       		.byte	0x4
 2350 000b 01       		.uleb128 0x1
 2351 000c DD000000 		.4byte	.LASF207
 2352 0010 0C       		.byte	0xc
 2353 0011 AE090000 		.4byte	.LASF208
 2354 0015 0D030000 		.4byte	.LASF209
 2355 0019 00000000 		.4byte	.Ldebug_ranges0+0
 2356 001d 00000000 		.4byte	0
 2357 0021 00000000 		.4byte	.Ldebug_line0
 2358 0025 02       		.uleb128 0x2
 2359 0026 01       		.byte	0x1
 2360 0027 06       		.byte	0x6
 2361 0028 17020000 		.4byte	.LASF0
 2362 002c 02       		.uleb128 0x2
 2363 002d 01       		.byte	0x1
 2364 002e 08       		.byte	0x8
 2365 002f 44070000 		.4byte	.LASF1
 2366 0033 02       		.uleb128 0x2
 2367 0034 02       		.byte	0x2
 2368 0035 05       		.byte	0x5
 2369 0036 7E070000 		.4byte	.LASF2
 2370 003a 02       		.uleb128 0x2
 2371 003b 02       		.byte	0x2
 2372 003c 07       		.byte	0x7
 2373 003d C3040000 		.4byte	.LASF3
 2374 0041 03       		.uleb128 0x3
 2375 0042 6A050000 		.4byte	.LASF9
 2376 0046 02       		.byte	0x2
 2377 0047 3F       		.byte	0x3f
 2378 0048 4C000000 		.4byte	0x4c
 2379 004c 02       		.uleb128 0x2
 2380 004d 04       		.byte	0x4
 2381 004e 05       		.byte	0x5
 2382 004f 3C020000 		.4byte	.LASF4
 2383 0053 02       		.uleb128 0x2
 2384 0054 04       		.byte	0x4
 2385 0055 07       		.byte	0x7
 2386 0056 40040000 		.4byte	.LASF5
 2387 005a 02       		.uleb128 0x2
 2388 005b 08       		.byte	0x8
 2389 005c 05       		.byte	0x5
 2390 005d 09020000 		.4byte	.LASF6
 2391 0061 02       		.uleb128 0x2
 2392 0062 08       		.byte	0x8
 2393 0063 07       		.byte	0x7
 2394 0064 70010000 		.4byte	.LASF7
 2395 0068 04       		.uleb128 0x4
 2396 0069 04       		.byte	0x4
 2397 006a 05       		.byte	0x5
 2398 006b 696E7400 		.ascii	"int\000"
 2399 006f 02       		.uleb128 0x2
ARM GAS  C:\Users\Mattia\AppData\Local\Temp\ccnjK3ek.s 			page 51


 2400 0070 04       		.byte	0x4
 2401 0071 07       		.byte	0x7
 2402 0072 19040000 		.4byte	.LASF8
 2403 0076 03       		.uleb128 0x3
 2404 0077 3C070000 		.4byte	.LASF10
 2405 007b 03       		.byte	0x3
 2406 007c 2C       		.byte	0x2c
 2407 007d 41000000 		.4byte	0x41
 2408 0081 05       		.uleb128 0x5
 2409 0082 87020000 		.4byte	.LASF11
 2410 0086 04       		.byte	0x4
 2411 0087 E401     		.2byte	0x1e4
 2412 0089 2C000000 		.4byte	0x2c
 2413 008d 05       		.uleb128 0x5
 2414 008e 52070000 		.4byte	.LASF12
 2415 0092 04       		.byte	0x4
 2416 0093 E501     		.2byte	0x1e5
 2417 0095 3A000000 		.4byte	0x3a
 2418 0099 05       		.uleb128 0x5
 2419 009a 7C030000 		.4byte	.LASF13
 2420 009e 04       		.byte	0x4
 2421 009f E601     		.2byte	0x1e6
 2422 00a1 53000000 		.4byte	0x53
 2423 00a5 05       		.uleb128 0x5
 2424 00a6 F5040000 		.4byte	.LASF14
 2425 00aa 04       		.byte	0x4
 2426 00ab E701     		.2byte	0x1e7
 2427 00ad 25000000 		.4byte	0x25
 2428 00b1 05       		.uleb128 0x5
 2429 00b2 090A0000 		.4byte	.LASF15
 2430 00b6 04       		.byte	0x4
 2431 00b7 E801     		.2byte	0x1e8
 2432 00b9 33000000 		.4byte	0x33
 2433 00bd 05       		.uleb128 0x5
 2434 00be 2A020000 		.4byte	.LASF16
 2435 00c2 04       		.byte	0x4
 2436 00c3 E901     		.2byte	0x1e9
 2437 00c5 4C000000 		.4byte	0x4c
 2438 00c9 05       		.uleb128 0x5
 2439 00ca CE050000 		.4byte	.LASF17
 2440 00ce 04       		.byte	0x4
 2441 00cf EA01     		.2byte	0x1ea
 2442 00d1 D5000000 		.4byte	0xd5
 2443 00d5 02       		.uleb128 0x2
 2444 00d6 04       		.byte	0x4
 2445 00d7 04       		.byte	0x4
 2446 00d8 52080000 		.4byte	.LASF18
 2447 00dc 02       		.uleb128 0x2
 2448 00dd 08       		.byte	0x8
 2449 00de 04       		.byte	0x4
 2450 00df 970A0000 		.4byte	.LASF19
 2451 00e3 02       		.uleb128 0x2
 2452 00e4 01       		.byte	0x1
 2453 00e5 08       		.byte	0x8
 2454 00e6 7C080000 		.4byte	.LASF20
 2455 00ea 02       		.uleb128 0x2
 2456 00eb 08       		.byte	0x8
ARM GAS  C:\Users\Mattia\AppData\Local\Temp\ccnjK3ek.s 			page 52


 2457 00ec 04       		.byte	0x4
 2458 00ed 8D030000 		.4byte	.LASF21
 2459 00f1 02       		.uleb128 0x2
 2460 00f2 04       		.byte	0x4
 2461 00f3 07       		.byte	0x7
 2462 00f4 D6050000 		.4byte	.LASF22
 2463 00f8 06       		.uleb128 0x6
 2464 00f9 04       		.byte	0x4
 2465 00fa E3000000 		.4byte	0xe3
 2466 00fe 07       		.uleb128 0x7
 2467 00ff E3000000 		.4byte	0xe3
 2468 0103 0E010000 		.4byte	0x10e
 2469 0107 08       		.uleb128 0x8
 2470 0108 F1000000 		.4byte	0xf1
 2471 010c 07       		.byte	0x7
 2472 010d 00       		.byte	0
 2473 010e 03       		.uleb128 0x3
 2474 010f 74050000 		.4byte	.LASF23
 2475 0113 05       		.byte	0x5
 2476 0114 7D       		.byte	0x7d
 2477 0115 19010000 		.4byte	0x119
 2478 0119 09       		.uleb128 0x9
 2479 011a 74050000 		.4byte	.LASF23
 2480 011e 03       		.uleb128 0x3
 2481 011f 92090000 		.4byte	.LASF24
 2482 0123 05       		.byte	0x5
 2483 0124 7E       		.byte	0x7e
 2484 0125 29010000 		.4byte	0x129
 2485 0129 09       		.uleb128 0x9
 2486 012a 92090000 		.4byte	.LASF24
 2487 012e 03       		.uleb128 0x3
 2488 012f D9080000 		.4byte	.LASF25
 2489 0133 05       		.byte	0x5
 2490 0134 80       		.byte	0x80
 2491 0135 39010000 		.4byte	0x139
 2492 0139 09       		.uleb128 0x9
 2493 013a D9080000 		.4byte	.LASF25
 2494 013e 0A       		.uleb128 0xa
 2495 013f 10       		.byte	0x10
 2496 0140 06       		.byte	0x6
 2497 0141 C2       		.byte	0xc2
 2498 0142 77010000 		.4byte	0x177
 2499 0146 0B       		.uleb128 0xb
 2500 0147 91040000 		.4byte	.LASF26
 2501 014b 06       		.byte	0x6
 2502 014c C3       		.byte	0xc3
 2503 014d 53000000 		.4byte	0x53
 2504 0151 00       		.byte	0
 2505 0152 0B       		.uleb128 0xb
 2506 0153 30080000 		.4byte	.LASF27
 2507 0157 06       		.byte	0x6
 2508 0158 C4       		.byte	0xc4
 2509 0159 53000000 		.4byte	0x53
 2510 015d 04       		.byte	0x4
 2511 015e 0B       		.uleb128 0xb
 2512 015f 99030000 		.4byte	.LASF28
 2513 0163 06       		.byte	0x6
ARM GAS  C:\Users\Mattia\AppData\Local\Temp\ccnjK3ek.s 			page 53


 2514 0164 C5       		.byte	0xc5
 2515 0165 53000000 		.4byte	0x53
 2516 0169 08       		.byte	0x8
 2517 016a 0B       		.uleb128 0xb
 2518 016b B6040000 		.4byte	.LASF29
 2519 016f 06       		.byte	0x6
 2520 0170 C6       		.byte	0xc6
 2521 0171 53000000 		.4byte	0x53
 2522 0175 0C       		.byte	0xc
 2523 0176 00       		.byte	0
 2524 0177 03       		.uleb128 0x3
 2525 0178 5F050000 		.4byte	.LASF30
 2526 017c 06       		.byte	0x6
 2527 017d C7       		.byte	0xc7
 2528 017e 3E010000 		.4byte	0x13e
 2529 0182 0A       		.uleb128 0xa
 2530 0183 20       		.byte	0x20
 2531 0184 06       		.byte	0x6
 2532 0185 C9       		.byte	0xc9
 2533 0186 D3010000 		.4byte	0x1d3
 2534 018a 0B       		.uleb128 0xb
 2535 018b 49060000 		.4byte	.LASF31
 2536 018f 06       		.byte	0x6
 2537 0190 CA       		.byte	0xca
 2538 0191 77010000 		.4byte	0x177
 2539 0195 00       		.byte	0
 2540 0196 0B       		.uleb128 0xb
 2541 0197 99030000 		.4byte	.LASF28
 2542 019b 06       		.byte	0x6
 2543 019c CB       		.byte	0xcb
 2544 019d 3A000000 		.4byte	0x3a
 2545 01a1 10       		.byte	0x10
 2546 01a2 0B       		.uleb128 0xb
 2547 01a3 30080000 		.4byte	.LASF27
 2548 01a7 06       		.byte	0x6
 2549 01a8 CC       		.byte	0xcc
 2550 01a9 53000000 		.4byte	0x53
 2551 01ad 14       		.byte	0x14
 2552 01ae 0B       		.uleb128 0xb
 2553 01af 700A0000 		.4byte	.LASF32
 2554 01b3 06       		.byte	0x6
 2555 01b4 CD       		.byte	0xcd
 2556 01b5 D3010000 		.4byte	0x1d3
 2557 01b9 18       		.byte	0x18
 2558 01ba 0B       		.uleb128 0xb
 2559 01bb DD060000 		.4byte	.LASF33
 2560 01bf 06       		.byte	0x6
 2561 01c0 CE       		.byte	0xce
 2562 01c1 33000000 		.4byte	0x33
 2563 01c5 1C       		.byte	0x1c
 2564 01c6 0B       		.uleb128 0xb
 2565 01c7 30020000 		.4byte	.LASF34
 2566 01cb 06       		.byte	0x6
 2567 01cc CF       		.byte	0xcf
 2568 01cd 2C000000 		.4byte	0x2c
 2569 01d1 1E       		.byte	0x1e
 2570 01d2 00       		.byte	0
ARM GAS  C:\Users\Mattia\AppData\Local\Temp\ccnjK3ek.s 			page 54


 2571 01d3 06       		.uleb128 0x6
 2572 01d4 04       		.byte	0x4
 2573 01d5 2E010000 		.4byte	0x12e
 2574 01d9 03       		.uleb128 0x3
 2575 01da 4A080000 		.4byte	.LASF35
 2576 01de 06       		.byte	0x6
 2577 01df D0       		.byte	0xd0
 2578 01e0 82010000 		.4byte	0x182
 2579 01e4 0A       		.uleb128 0xa
 2580 01e5 3C       		.byte	0x3c
 2581 01e6 06       		.byte	0x6
 2582 01e7 DC       		.byte	0xdc
 2583 01e8 4D020000 		.4byte	0x24d
 2584 01ec 0B       		.uleb128 0xb
 2585 01ed 45020000 		.4byte	.LASF36
 2586 01f1 06       		.byte	0x6
 2587 01f2 DD       		.byte	0xdd
 2588 01f3 2C000000 		.4byte	0x2c
 2589 01f7 00       		.byte	0
 2590 01f8 0B       		.uleb128 0xb
 2591 01f9 D6010000 		.4byte	.LASF37
 2592 01fd 06       		.byte	0x6
 2593 01fe DE       		.byte	0xde
 2594 01ff 53000000 		.4byte	0x53
 2595 0203 04       		.byte	0x4
 2596 0204 0B       		.uleb128 0xb
 2597 0205 5F040000 		.4byte	.LASF38
 2598 0209 06       		.byte	0x6
 2599 020a DF       		.byte	0xdf
 2600 020b 53000000 		.4byte	0x53
 2601 020f 08       		.byte	0x8
 2602 0210 0B       		.uleb128 0xb
 2603 0211 A4080000 		.4byte	.LASF39
 2604 0215 06       		.byte	0x6
 2605 0216 E0       		.byte	0xe0
 2606 0217 53000000 		.4byte	0x53
 2607 021b 0C       		.byte	0xc
 2608 021c 0B       		.uleb128 0xb
 2609 021d 29060000 		.4byte	.LASF40
 2610 0221 06       		.byte	0x6
 2611 0222 E1       		.byte	0xe1
 2612 0223 53000000 		.4byte	0x53
 2613 0227 10       		.byte	0x10
 2614 0228 0B       		.uleb128 0xb
 2615 0229 FC080000 		.4byte	.LASF41
 2616 022d 06       		.byte	0x6
 2617 022e E2       		.byte	0xe2
 2618 022f F8000000 		.4byte	0xf8
 2619 0233 14       		.byte	0x14
 2620 0234 0B       		.uleb128 0xb
 2621 0235 B2080000 		.4byte	.LASF42
 2622 0239 06       		.byte	0x6
 2623 023a E4       		.byte	0xe4
 2624 023b 68000000 		.4byte	0x68
 2625 023f 18       		.byte	0x18
 2626 0240 0C       		.uleb128 0xc
 2627 0241 44697200 		.ascii	"Dir\000"
ARM GAS  C:\Users\Mattia\AppData\Local\Temp\ccnjK3ek.s 			page 55


 2628 0245 06       		.byte	0x6
 2629 0246 E5       		.byte	0xe5
 2630 0247 D9010000 		.4byte	0x1d9
 2631 024b 1C       		.byte	0x1c
 2632 024c 00       		.byte	0
 2633 024d 03       		.uleb128 0x3
 2634 024e 9A050000 		.4byte	.LASF43
 2635 0252 06       		.byte	0x6
 2636 0253 E6       		.byte	0xe6
 2637 0254 E4010000 		.4byte	0x1e4
 2638 0258 06       		.uleb128 0x6
 2639 0259 04       		.byte	0x4
 2640 025a 1E010000 		.4byte	0x11e
 2641 025e 07       		.uleb128 0x7
 2642 025f BD000000 		.4byte	0xbd
 2643 0263 6E020000 		.4byte	0x26e
 2644 0267 08       		.uleb128 0x8
 2645 0268 F1000000 		.4byte	0xf1
 2646 026c 02       		.byte	0x2
 2647 026d 00       		.byte	0
 2648 026e 07       		.uleb128 0x7
 2649 026f A5000000 		.4byte	0xa5
 2650 0273 7E020000 		.4byte	0x27e
 2651 0277 08       		.uleb128 0x8
 2652 0278 F1000000 		.4byte	0xf1
 2653 027c 02       		.byte	0x2
 2654 027d 00       		.byte	0
 2655 027e 0D       		.uleb128 0xd
 2656 027f C2070000 		.4byte	.LASF54
 2657 0283 60       		.byte	0x60
 2658 0284 07       		.byte	0x7
 2659 0285 1501     		.2byte	0x115
 2660 0287 0E030000 		.4byte	0x30e
 2661 028b 0E       		.uleb128 0xe
 2662 028c F9090000 		.4byte	.LASF44
 2663 0290 07       		.byte	0x7
 2664 0291 1601     		.2byte	0x116
 2665 0293 0E030000 		.4byte	0x30e
 2666 0297 00       		.byte	0
 2667 0298 0E       		.uleb128 0xe
 2668 0299 51050000 		.4byte	.LASF45
 2669 029d 07       		.byte	0x7
 2670 029e 1701     		.2byte	0x117
 2671 02a0 1E030000 		.4byte	0x31e
 2672 02a4 08       		.byte	0x8
 2673 02a5 0E       		.uleb128 0xe
 2674 02a6 86060000 		.4byte	.LASF46
 2675 02aa 07       		.byte	0x7
 2676 02ab 1801     		.2byte	0x118
 2677 02ad 2E030000 		.4byte	0x32e
 2678 02b1 30       		.byte	0x30
 2679 02b2 0E       		.uleb128 0xe
 2680 02b3 3D080000 		.4byte	.LASF47
 2681 02b7 07       		.byte	0x7
 2682 02b8 1901     		.2byte	0x119
 2683 02ba 99000000 		.4byte	0x99
 2684 02be 40       		.byte	0x40
ARM GAS  C:\Users\Mattia\AppData\Local\Temp\ccnjK3ek.s 			page 56


 2685 02bf 0E       		.uleb128 0xe
 2686 02c0 9A080000 		.4byte	.LASF48
 2687 02c4 07       		.byte	0x7
 2688 02c5 1A01     		.2byte	0x11a
 2689 02c7 99000000 		.4byte	0x99
 2690 02cb 44       		.byte	0x44
 2691 02cc 0E       		.uleb128 0xe
 2692 02cd B6030000 		.4byte	.LASF49
 2693 02d1 07       		.byte	0x7
 2694 02d2 1B01     		.2byte	0x11b
 2695 02d4 99000000 		.4byte	0x99
 2696 02d8 48       		.byte	0x48
 2697 02d9 0E       		.uleb128 0xe
 2698 02da 20080000 		.4byte	.LASF50
 2699 02de 07       		.byte	0x7
 2700 02df 1C01     		.2byte	0x11c
 2701 02e1 99000000 		.4byte	0x99
 2702 02e5 4C       		.byte	0x4c
 2703 02e6 0E       		.uleb128 0xe
 2704 02e7 A7050000 		.4byte	.LASF51
 2705 02eb 07       		.byte	0x7
 2706 02ec 1D01     		.2byte	0x11d
 2707 02ee 99000000 		.4byte	0x99
 2708 02f2 50       		.byte	0x50
 2709 02f3 0E       		.uleb128 0xe
 2710 02f4 AD060000 		.4byte	.LASF52
 2711 02f8 07       		.byte	0x7
 2712 02f9 1E01     		.2byte	0x11e
 2713 02fb 0E030000 		.4byte	0x30e
 2714 02ff 54       		.byte	0x54
 2715 0300 0E       		.uleb128 0xe
 2716 0301 18050000 		.4byte	.LASF53
 2717 0305 07       		.byte	0x7
 2718 0306 1F01     		.2byte	0x11f
 2719 0308 3E030000 		.4byte	0x33e
 2720 030c 5C       		.byte	0x5c
 2721 030d 00       		.byte	0
 2722 030e 07       		.uleb128 0x7
 2723 030f 99000000 		.4byte	0x99
 2724 0313 1E030000 		.4byte	0x31e
 2725 0317 08       		.uleb128 0x8
 2726 0318 F1000000 		.4byte	0xf1
 2727 031c 01       		.byte	0x1
 2728 031d 00       		.byte	0
 2729 031e 07       		.uleb128 0x7
 2730 031f 99000000 		.4byte	0x99
 2731 0323 2E030000 		.4byte	0x32e
 2732 0327 08       		.uleb128 0x8
 2733 0328 F1000000 		.4byte	0xf1
 2734 032c 09       		.byte	0x9
 2735 032d 00       		.byte	0
 2736 032e 07       		.uleb128 0x7
 2737 032f 99000000 		.4byte	0x99
 2738 0333 3E030000 		.4byte	0x33e
 2739 0337 08       		.uleb128 0x8
 2740 0338 F1000000 		.4byte	0xf1
 2741 033c 03       		.byte	0x3
ARM GAS  C:\Users\Mattia\AppData\Local\Temp\ccnjK3ek.s 			page 57


 2742 033d 00       		.byte	0
 2743 033e 07       		.uleb128 0x7
 2744 033f 81000000 		.4byte	0x81
 2745 0343 4E030000 		.4byte	0x34e
 2746 0347 08       		.uleb128 0x8
 2747 0348 F1000000 		.4byte	0xf1
 2748 034c 03       		.byte	0x3
 2749 034d 00       		.byte	0
 2750 034e 0D       		.uleb128 0xd
 2751 034f 05060000 		.4byte	.LASF55
 2752 0353 10       		.byte	0x10
 2753 0354 07       		.byte	0x7
 2754 0355 2601     		.2byte	0x126
 2755 0357 DD030000 		.4byte	0x3dd
 2756 035b 0F       		.uleb128 0xf
 2757 035c 696400   		.ascii	"id\000"
 2758 035f 07       		.byte	0x7
 2759 0360 2701     		.2byte	0x127
 2760 0362 81000000 		.4byte	0x81
 2761 0366 00       		.byte	0
 2762 0367 0E       		.uleb128 0xe
 2763 0368 8C050000 		.4byte	.LASF56
 2764 036c 07       		.byte	0x7
 2765 036d 2801     		.2byte	0x128
 2766 036f DD030000 		.4byte	0x3dd
 2767 0373 01       		.byte	0x1
 2768 0374 0E       		.uleb128 0xe
 2769 0375 7F0A0000 		.4byte	.LASF57
 2770 0379 07       		.byte	0x7
 2771 037a 2901     		.2byte	0x129
 2772 037c DD030000 		.4byte	0x3dd
 2773 0380 04       		.byte	0x4
 2774 0381 0E       		.uleb128 0xe
 2775 0382 A3020000 		.4byte	.LASF58
 2776 0386 07       		.byte	0x7
 2777 0387 2A01     		.2byte	0x12a
 2778 0389 81000000 		.4byte	0x81
 2779 038d 07       		.byte	0x7
 2780 038e 0E       		.uleb128 0xe
 2781 038f E7030000 		.4byte	.LASF59
 2782 0393 07       		.byte	0x7
 2783 0394 2B01     		.2byte	0x12b
 2784 0396 81000000 		.4byte	0x81
 2785 039a 08       		.byte	0x8
 2786 039b 0E       		.uleb128 0xe
 2787 039c 15000000 		.4byte	.LASF60
 2788 03a0 07       		.byte	0x7
 2789 03a1 2C01     		.2byte	0x12c
 2790 03a3 81000000 		.4byte	0x81
 2791 03a7 09       		.byte	0x9
 2792 03a8 0E       		.uleb128 0xe
 2793 03a9 87010000 		.4byte	.LASF61
 2794 03ad 07       		.byte	0x7
 2795 03ae 2D01     		.2byte	0x12d
 2796 03b0 81000000 		.4byte	0x81
 2797 03b4 0A       		.byte	0xa
 2798 03b5 0E       		.uleb128 0xe
ARM GAS  C:\Users\Mattia\AppData\Local\Temp\ccnjK3ek.s 			page 58


 2799 03b6 18090000 		.4byte	.LASF62
 2800 03ba 07       		.byte	0x7
 2801 03bb 2E01     		.2byte	0x12e
 2802 03bd 81000000 		.4byte	0x81
 2803 03c1 0B       		.byte	0xb
 2804 03c2 0E       		.uleb128 0xe
 2805 03c3 06090000 		.4byte	.LASF63
 2806 03c7 07       		.byte	0x7
 2807 03c8 2F01     		.2byte	0x12f
 2808 03ca 81000000 		.4byte	0x81
 2809 03ce 0C       		.byte	0xc
 2810 03cf 0E       		.uleb128 0xe
 2811 03d0 18050000 		.4byte	.LASF53
 2812 03d4 07       		.byte	0x7
 2813 03d5 3001     		.2byte	0x130
 2814 03d7 DD030000 		.4byte	0x3dd
 2815 03db 0D       		.byte	0xd
 2816 03dc 00       		.byte	0
 2817 03dd 07       		.uleb128 0x7
 2818 03de 81000000 		.4byte	0x81
 2819 03e2 ED030000 		.4byte	0x3ed
 2820 03e6 08       		.uleb128 0x8
 2821 03e7 F1000000 		.4byte	0xf1
 2822 03eb 02       		.byte	0x2
 2823 03ec 00       		.byte	0
 2824 03ed 0D       		.uleb128 0xd
 2825 03ee 32090000 		.4byte	.LASF64
 2826 03f2 70       		.byte	0x70
 2827 03f3 07       		.byte	0x7
 2828 03f4 3701     		.2byte	0x137
 2829 03f6 67050000 		.4byte	0x567
 2830 03fa 0F       		.uleb128 0xf
 2831 03fb 6B5F7000 		.ascii	"k_p\000"
 2832 03ff 07       		.byte	0x7
 2833 0400 3801     		.2byte	0x138
 2834 0402 BD000000 		.4byte	0xbd
 2835 0406 00       		.byte	0
 2836 0407 0F       		.uleb128 0xf
 2837 0408 6B5F6900 		.ascii	"k_i\000"
 2838 040c 07       		.byte	0x7
 2839 040d 3901     		.2byte	0x139
 2840 040f BD000000 		.4byte	0xbd
 2841 0413 04       		.byte	0x4
 2842 0414 0F       		.uleb128 0xf
 2843 0415 6B5F6400 		.ascii	"k_d\000"
 2844 0419 07       		.byte	0x7
 2845 041a 3A01     		.2byte	0x13a
 2846 041c BD000000 		.4byte	0xbd
 2847 0420 08       		.byte	0x8
 2848 0421 0E       		.uleb128 0xe
 2849 0422 32060000 		.4byte	.LASF65
 2850 0426 07       		.byte	0x7
 2851 0427 3B01     		.2byte	0x13b
 2852 0429 BD000000 		.4byte	0xbd
 2853 042d 0C       		.byte	0xc
 2854 042e 0E       		.uleb128 0xe
 2855 042f 570A0000 		.4byte	.LASF66
ARM GAS  C:\Users\Mattia\AppData\Local\Temp\ccnjK3ek.s 			page 59


 2856 0433 07       		.byte	0x7
 2857 0434 3C01     		.2byte	0x13c
 2858 0436 BD000000 		.4byte	0xbd
 2859 043a 10       		.byte	0x10
 2860 043b 0E       		.uleb128 0xe
 2861 043c 82090000 		.4byte	.LASF67
 2862 0440 07       		.byte	0x7
 2863 0441 3D01     		.2byte	0x13d
 2864 0443 BD000000 		.4byte	0xbd
 2865 0447 14       		.byte	0x14
 2866 0448 0E       		.uleb128 0xe
 2867 0449 9E0A0000 		.4byte	.LASF68
 2868 044d 07       		.byte	0x7
 2869 044e 3E01     		.2byte	0x13e
 2870 0450 BD000000 		.4byte	0xbd
 2871 0454 18       		.byte	0x18
 2872 0455 0E       		.uleb128 0xe
 2873 0456 39040000 		.4byte	.LASF69
 2874 045a 07       		.byte	0x7
 2875 045b 3F01     		.2byte	0x13f
 2876 045d BD000000 		.4byte	0xbd
 2877 0461 1C       		.byte	0x1c
 2878 0462 0E       		.uleb128 0xe
 2879 0463 75030000 		.4byte	.LASF70
 2880 0467 07       		.byte	0x7
 2881 0468 4001     		.2byte	0x140
 2882 046a BD000000 		.4byte	0xbd
 2883 046e 20       		.byte	0x20
 2884 046f 0E       		.uleb128 0xe
 2885 0470 AD030000 		.4byte	.LASF71
 2886 0474 07       		.byte	0x7
 2887 0475 4101     		.2byte	0x141
 2888 0477 BD000000 		.4byte	0xbd
 2889 047b 24       		.byte	0x24
 2890 047c 0E       		.uleb128 0xe
 2891 047d 0F090000 		.4byte	.LASF72
 2892 0481 07       		.byte	0x7
 2893 0482 4201     		.2byte	0x142
 2894 0484 BD000000 		.4byte	0xbd
 2895 0488 28       		.byte	0x28
 2896 0489 0E       		.uleb128 0xe
 2897 048a F0090000 		.4byte	.LASF73
 2898 048e 07       		.byte	0x7
 2899 048f 4301     		.2byte	0x143
 2900 0491 BD000000 		.4byte	0xbd
 2901 0495 2C       		.byte	0x2c
 2902 0496 0E       		.uleb128 0xe
 2903 0497 C7060000 		.4byte	.LASF74
 2904 049b 07       		.byte	0x7
 2905 049c 4401     		.2byte	0x144
 2906 049e 81000000 		.4byte	0x81
 2907 04a2 30       		.byte	0x30
 2908 04a3 0E       		.uleb128 0xe
 2909 04a4 58080000 		.4byte	.LASF75
 2910 04a8 07       		.byte	0x7
 2911 04a9 4501     		.2byte	0x145
 2912 04ab 81000000 		.4byte	0x81
ARM GAS  C:\Users\Mattia\AppData\Local\Temp\ccnjK3ek.s 			page 60


 2913 04af 31       		.byte	0x31
 2914 04b0 0E       		.uleb128 0xe
 2915 04b1 FA040000 		.4byte	.LASF76
 2916 04b5 07       		.byte	0x7
 2917 04b6 4601     		.2byte	0x146
 2918 04b8 81000000 		.4byte	0x81
 2919 04bc 32       		.byte	0x32
 2920 04bd 0E       		.uleb128 0xe
 2921 04be FF070000 		.4byte	.LASF77
 2922 04c2 07       		.byte	0x7
 2923 04c3 4701     		.2byte	0x147
 2924 04c5 81000000 		.4byte	0x81
 2925 04c9 33       		.byte	0x33
 2926 04ca 0E       		.uleb128 0xe
 2927 04cb 0C050000 		.4byte	.LASF78
 2928 04cf 07       		.byte	0x7
 2929 04d0 4801     		.2byte	0x148
 2930 04d2 BD000000 		.4byte	0xbd
 2931 04d6 34       		.byte	0x34
 2932 04d7 0E       		.uleb128 0xe
 2933 04d8 59060000 		.4byte	.LASF79
 2934 04dc 07       		.byte	0x7
 2935 04dd 4901     		.2byte	0x149
 2936 04df BD000000 		.4byte	0xbd
 2937 04e3 38       		.byte	0x38
 2938 04e4 0E       		.uleb128 0xe
 2939 04e5 52040000 		.4byte	.LASF80
 2940 04e9 07       		.byte	0x7
 2941 04ea 4A01     		.2byte	0x14a
 2942 04ec BD000000 		.4byte	0xbd
 2943 04f0 3C       		.byte	0x3c
 2944 04f1 0E       		.uleb128 0xe
 2945 04f2 13080000 		.4byte	.LASF81
 2946 04f6 07       		.byte	0x7
 2947 04f7 4B01     		.2byte	0x14b
 2948 04f9 BD000000 		.4byte	0xbd
 2949 04fd 40       		.byte	0x40
 2950 04fe 0E       		.uleb128 0xe
 2951 04ff 0D040000 		.4byte	.LASF82
 2952 0503 07       		.byte	0x7
 2953 0504 4C01     		.2byte	0x14c
 2954 0506 67050000 		.4byte	0x567
 2955 050a 44       		.byte	0x44
 2956 050b 0E       		.uleb128 0xe
 2957 050c B4070000 		.4byte	.LASF83
 2958 0510 07       		.byte	0x7
 2959 0511 4D01     		.2byte	0x14d
 2960 0513 B1000000 		.4byte	0xb1
 2961 0517 5C       		.byte	0x5c
 2962 0518 0E       		.uleb128 0xe
 2963 0519 D6030000 		.4byte	.LASF84
 2964 051d 07       		.byte	0x7
 2965 051e 4E01     		.2byte	0x14e
 2966 0520 81000000 		.4byte	0x81
 2967 0524 5E       		.byte	0x5e
 2968 0525 0E       		.uleb128 0xe
 2969 0526 CD020000 		.4byte	.LASF85
ARM GAS  C:\Users\Mattia\AppData\Local\Temp\ccnjK3ek.s 			page 61


 2970 052a 07       		.byte	0x7
 2971 052b 4F01     		.2byte	0x14f
 2972 052d 81000000 		.4byte	0x81
 2973 0531 5F       		.byte	0x5f
 2974 0532 0E       		.uleb128 0xe
 2975 0533 94000000 		.4byte	.LASF86
 2976 0537 07       		.byte	0x7
 2977 0538 5001     		.2byte	0x150
 2978 053a 81000000 		.4byte	0x81
 2979 053e 60       		.byte	0x60
 2980 053f 0E       		.uleb128 0xe
 2981 0540 A50A0000 		.4byte	.LASF87
 2982 0544 07       		.byte	0x7
 2983 0545 5101     		.2byte	0x151
 2984 0547 81000000 		.4byte	0x81
 2985 054b 61       		.byte	0x61
 2986 054c 0E       		.uleb128 0xe
 2987 054d 8D020000 		.4byte	.LASF88
 2988 0551 07       		.byte	0x7
 2989 0552 5201     		.2byte	0x152
 2990 0554 81000000 		.4byte	0x81
 2991 0558 62       		.byte	0x62
 2992 0559 0E       		.uleb128 0xe
 2993 055a 18050000 		.4byte	.LASF53
 2994 055e 07       		.byte	0x7
 2995 055f 5301     		.2byte	0x153
 2996 0561 77050000 		.4byte	0x577
 2997 0565 63       		.byte	0x63
 2998 0566 00       		.byte	0
 2999 0567 07       		.uleb128 0x7
 3000 0568 D5000000 		.4byte	0xd5
 3001 056c 77050000 		.4byte	0x577
 3002 0570 08       		.uleb128 0x8
 3003 0571 F1000000 		.4byte	0xf1
 3004 0575 05       		.byte	0x5
 3005 0576 00       		.byte	0
 3006 0577 07       		.uleb128 0x7
 3007 0578 81000000 		.4byte	0x81
 3008 057c 87050000 		.4byte	0x587
 3009 0580 08       		.uleb128 0x8
 3010 0581 F1000000 		.4byte	0xf1
 3011 0585 0C       		.byte	0xc
 3012 0586 00       		.byte	0
 3013 0587 0D       		.uleb128 0xd
 3014 0588 88070000 		.4byte	.LASF89
 3015 058c 30       		.byte	0x30
 3016 058d 07       		.byte	0x7
 3017 058e 5A01     		.2byte	0x15a
 3018 0590 0A060000 		.4byte	0x60a
 3019 0594 0E       		.uleb128 0xe
 3020 0595 20090000 		.4byte	.LASF90
 3021 0599 07       		.byte	0x7
 3022 059a 5B01     		.2byte	0x15b
 3023 059c 0A060000 		.4byte	0x60a
 3024 05a0 00       		.byte	0
 3025 05a1 0F       		.uleb128 0xf
 3026 05a2 72657300 		.ascii	"res\000"
ARM GAS  C:\Users\Mattia\AppData\Local\Temp\ccnjK3ek.s 			page 62


 3027 05a6 07       		.byte	0x7
 3028 05a7 5C01     		.2byte	0x15c
 3029 05a9 DD030000 		.4byte	0x3dd
 3030 05ad 05       		.byte	0x5
 3031 05ae 0E       		.uleb128 0xe
 3032 05af 8E000000 		.4byte	.LASF91
 3033 05b3 07       		.byte	0x7
 3034 05b4 5D01     		.2byte	0x15d
 3035 05b6 5E020000 		.4byte	0x25e
 3036 05ba 08       		.byte	0x8
 3037 05bb 0E       		.uleb128 0xe
 3038 05bc 61070000 		.4byte	.LASF92
 3039 05c0 07       		.byte	0x7
 3040 05c1 5E01     		.2byte	0x15e
 3041 05c3 1A060000 		.4byte	0x61a
 3042 05c7 14       		.byte	0x14
 3043 05c8 0E       		.uleb128 0xe
 3044 05c9 410A0000 		.4byte	.LASF93
 3045 05cd 07       		.byte	0x7
 3046 05ce 5F01     		.2byte	0x15f
 3047 05d0 81000000 		.4byte	0x81
 3048 05d4 20       		.byte	0x20
 3049 05d5 0E       		.uleb128 0xe
 3050 05d6 EE060000 		.4byte	.LASF94
 3051 05da 07       		.byte	0x7
 3052 05db 6001     		.2byte	0x160
 3053 05dd DD030000 		.4byte	0x3dd
 3054 05e1 21       		.byte	0x21
 3055 05e2 0E       		.uleb128 0xe
 3056 05e3 26040000 		.4byte	.LASF95
 3057 05e7 07       		.byte	0x7
 3058 05e8 6101     		.2byte	0x161
 3059 05ea A5000000 		.4byte	0xa5
 3060 05ee 24       		.byte	0x24
 3061 05ef 0E       		.uleb128 0xe
 3062 05f0 68070000 		.4byte	.LASF96
 3063 05f4 07       		.byte	0x7
 3064 05f5 6201     		.2byte	0x162
 3065 05f7 6E020000 		.4byte	0x26e
 3066 05fb 25       		.byte	0x25
 3067 05fc 0E       		.uleb128 0xe
 3068 05fd 18050000 		.4byte	.LASF53
 3069 0601 07       		.byte	0x7
 3070 0602 6301     		.2byte	0x163
 3071 0604 2A060000 		.4byte	0x62a
 3072 0608 28       		.byte	0x28
 3073 0609 00       		.byte	0
 3074 060a 07       		.uleb128 0x7
 3075 060b 81000000 		.4byte	0x81
 3076 060f 1A060000 		.4byte	0x61a
 3077 0613 08       		.uleb128 0x8
 3078 0614 F1000000 		.4byte	0xf1
 3079 0618 04       		.byte	0x4
 3080 0619 00       		.byte	0
 3081 061a 07       		.uleb128 0x7
 3082 061b C9000000 		.4byte	0xc9
 3083 061f 2A060000 		.4byte	0x62a
ARM GAS  C:\Users\Mattia\AppData\Local\Temp\ccnjK3ek.s 			page 63


 3084 0623 08       		.uleb128 0x8
 3085 0624 F1000000 		.4byte	0xf1
 3086 0628 02       		.byte	0x2
 3087 0629 00       		.byte	0
 3088 062a 07       		.uleb128 0x7
 3089 062b 81000000 		.4byte	0x81
 3090 062f 3A060000 		.4byte	0x63a
 3091 0633 08       		.uleb128 0x8
 3092 0634 F1000000 		.4byte	0xf1
 3093 0638 07       		.byte	0x7
 3094 0639 00       		.byte	0
 3095 063a 0D       		.uleb128 0xd
 3096 063b 0C080000 		.4byte	.LASF97
 3097 063f 10       		.byte	0x10
 3098 0640 07       		.byte	0x7
 3099 0641 6A01     		.2byte	0x16a
 3100 0643 89060000 		.4byte	0x689
 3101 0647 0E       		.uleb128 0xe
 3102 0648 FB010000 		.4byte	.LASF98
 3103 064c 07       		.byte	0x7
 3104 064d 6B01     		.2byte	0x16b
 3105 064f 89060000 		.4byte	0x689
 3106 0653 00       		.byte	0
 3107 0654 0E       		.uleb128 0xe
 3108 0655 76000000 		.4byte	.LASF99
 3109 0659 07       		.byte	0x7
 3110 065a 6C01     		.2byte	0x16c
 3111 065c 0E030000 		.4byte	0x30e
 3112 0660 04       		.byte	0x4
 3113 0661 0E       		.uleb128 0xe
 3114 0662 CD060000 		.4byte	.LASF100
 3115 0666 07       		.byte	0x7
 3116 0667 6D01     		.2byte	0x16d
 3117 0669 99060000 		.4byte	0x699
 3118 066d 0C       		.byte	0xc
 3119 066e 0E       		.uleb128 0xe
 3120 066f 54090000 		.4byte	.LASF101
 3121 0673 07       		.byte	0x7
 3122 0674 6E01     		.2byte	0x16e
 3123 0676 81000000 		.4byte	0x81
 3124 067a 0E       		.byte	0xe
 3125 067b 0E       		.uleb128 0xe
 3126 067c C4030000 		.4byte	.LASF102
 3127 0680 07       		.byte	0x7
 3128 0681 6F01     		.2byte	0x16f
 3129 0683 81000000 		.4byte	0x81
 3130 0687 0F       		.byte	0xf
 3131 0688 00       		.byte	0
 3132 0689 07       		.uleb128 0x7
 3133 068a 8D000000 		.4byte	0x8d
 3134 068e 99060000 		.4byte	0x699
 3135 0692 08       		.uleb128 0x8
 3136 0693 F1000000 		.4byte	0xf1
 3137 0697 01       		.byte	0x1
 3138 0698 00       		.byte	0
 3139 0699 07       		.uleb128 0x7
 3140 069a 81000000 		.4byte	0x81
ARM GAS  C:\Users\Mattia\AppData\Local\Temp\ccnjK3ek.s 			page 64


 3141 069e A9060000 		.4byte	0x6a9
 3142 06a2 08       		.uleb128 0x8
 3143 06a3 F1000000 		.4byte	0xf1
 3144 06a7 01       		.byte	0x1
 3145 06a8 00       		.byte	0
 3146 06a9 0D       		.uleb128 0xd
 3147 06aa 63000000 		.4byte	.LASF103
 3148 06ae 20       		.byte	0x20
 3149 06af 07       		.byte	0x7
 3150 06b0 7601     		.2byte	0x176
 3151 06b2 EB060000 		.4byte	0x6eb
 3152 06b6 0E       		.uleb128 0xe
 3153 06b7 9A090000 		.4byte	.LASF104
 3154 06bb 07       		.byte	0x7
 3155 06bc 7701     		.2byte	0x177
 3156 06be 81000000 		.4byte	0x81
 3157 06c2 00       		.byte	0
 3158 06c3 0E       		.uleb128 0xe
 3159 06c4 BE020000 		.4byte	.LASF105
 3160 06c8 07       		.byte	0x7
 3161 06c9 7801     		.2byte	0x178
 3162 06cb 81000000 		.4byte	0x81
 3163 06cf 01       		.byte	0x1
 3164 06d0 0E       		.uleb128 0xe
 3165 06d1 B4050000 		.4byte	.LASF106
 3166 06d5 07       		.byte	0x7
 3167 06d6 7901     		.2byte	0x179
 3168 06d8 EB060000 		.4byte	0x6eb
 3169 06dc 02       		.byte	0x2
 3170 06dd 0E       		.uleb128 0xe
 3171 06de 18050000 		.4byte	.LASF53
 3172 06e2 07       		.byte	0x7
 3173 06e3 7A01     		.2byte	0x17a
 3174 06e5 0A060000 		.4byte	0x60a
 3175 06e9 1B       		.byte	0x1b
 3176 06ea 00       		.byte	0
 3177 06eb 07       		.uleb128 0x7
 3178 06ec 81000000 		.4byte	0x81
 3179 06f0 01070000 		.4byte	0x701
 3180 06f4 08       		.uleb128 0x8
 3181 06f5 F1000000 		.4byte	0xf1
 3182 06f9 04       		.byte	0x4
 3183 06fa 08       		.uleb128 0x8
 3184 06fb F1000000 		.4byte	0xf1
 3185 06ff 04       		.byte	0x4
 3186 0700 00       		.byte	0
 3187 0701 0D       		.uleb128 0xd
 3188 0702 C1080000 		.4byte	.LASF107
 3189 0706 20       		.byte	0x20
 3190 0707 07       		.byte	0x7
 3191 0708 8101     		.2byte	0x181
 3192 070a 5D070000 		.4byte	0x75d
 3193 070e 0E       		.uleb128 0xe
 3194 070f 93060000 		.4byte	.LASF108
 3195 0713 07       		.byte	0x7
 3196 0714 8201     		.2byte	0x182
 3197 0716 5D070000 		.4byte	0x75d
ARM GAS  C:\Users\Mattia\AppData\Local\Temp\ccnjK3ek.s 			page 65


 3198 071a 00       		.byte	0
 3199 071b 0E       		.uleb128 0xe
 3200 071c 0F0A0000 		.4byte	.LASF109
 3201 0720 07       		.byte	0x7
 3202 0721 8301     		.2byte	0x183
 3203 0723 81000000 		.4byte	0x81
 3204 0727 06       		.byte	0x6
 3205 0728 0E       		.uleb128 0xe
 3206 0729 6E040000 		.4byte	.LASF110
 3207 072d 07       		.byte	0x7
 3208 072e 8401     		.2byte	0x184
 3209 0730 81000000 		.4byte	0x81
 3210 0734 07       		.byte	0x7
 3211 0735 0E       		.uleb128 0xe
 3212 0736 75070000 		.4byte	.LASF111
 3213 073a 07       		.byte	0x7
 3214 073b 8501     		.2byte	0x185
 3215 073d 6D070000 		.4byte	0x76d
 3216 0741 08       		.byte	0x8
 3217 0742 0E       		.uleb128 0xe
 3218 0743 E3080000 		.4byte	.LASF112
 3219 0747 07       		.byte	0x7
 3220 0748 8601     		.2byte	0x186
 3221 074a 81000000 		.4byte	0x81
 3222 074e 14       		.byte	0x14
 3223 074f 0E       		.uleb128 0xe
 3224 0750 18050000 		.4byte	.LASF53
 3225 0754 07       		.byte	0x7
 3226 0755 8701     		.2byte	0x187
 3227 0757 7D070000 		.4byte	0x77d
 3228 075b 15       		.byte	0x15
 3229 075c 00       		.byte	0
 3230 075d 07       		.uleb128 0x7
 3231 075e 81000000 		.4byte	0x81
 3232 0762 6D070000 		.4byte	0x76d
 3233 0766 08       		.uleb128 0x8
 3234 0767 F1000000 		.4byte	0xf1
 3235 076b 05       		.byte	0x5
 3236 076c 00       		.byte	0
 3237 076d 07       		.uleb128 0x7
 3238 076e 81000000 		.4byte	0x81
 3239 0772 7D070000 		.4byte	0x77d
 3240 0776 08       		.uleb128 0x8
 3241 0777 F1000000 		.4byte	0xf1
 3242 077b 0B       		.byte	0xb
 3243 077c 00       		.byte	0
 3244 077d 07       		.uleb128 0x7
 3245 077e 81000000 		.4byte	0x81
 3246 0782 8D070000 		.4byte	0x78d
 3247 0786 08       		.uleb128 0x8
 3248 0787 F1000000 		.4byte	0xf1
 3249 078b 0A       		.byte	0xa
 3250 078c 00       		.byte	0
 3251 078d 0D       		.uleb128 0xd
 3252 078e 89040000 		.4byte	.LASF113
 3253 0792 20       		.byte	0x20
 3254 0793 07       		.byte	0x7
ARM GAS  C:\Users\Mattia\AppData\Local\Temp\ccnjK3ek.s 			page 66


 3255 0794 8E01     		.2byte	0x18e
 3256 0796 C2070000 		.4byte	0x7c2
 3257 079a 0E       		.uleb128 0xe
 3258 079b BD050000 		.4byte	.LASF114
 3259 079f 07       		.byte	0x7
 3260 07a0 8F01     		.2byte	0x18f
 3261 07a2 FE000000 		.4byte	0xfe
 3262 07a6 00       		.byte	0
 3263 07a7 0E       		.uleb128 0xe
 3264 07a8 99040000 		.4byte	.LASF115
 3265 07ac 07       		.byte	0x7
 3266 07ad 9001     		.2byte	0x190
 3267 07af 3A060000 		.4byte	0x63a
 3268 07b3 08       		.byte	0x8
 3269 07b4 0E       		.uleb128 0xe
 3270 07b5 18050000 		.4byte	.LASF53
 3271 07b9 07       		.byte	0x7
 3272 07ba 9101     		.2byte	0x191
 3273 07bc 2A060000 		.4byte	0x62a
 3274 07c0 18       		.byte	0x18
 3275 07c1 00       		.byte	0
 3276 07c2 0D       		.uleb128 0xd
 3277 07c3 220A0000 		.4byte	.LASF116
 3278 07c7 10       		.byte	0x10
 3279 07c8 07       		.byte	0x7
 3280 07c9 9801     		.2byte	0x198
 3281 07cb 11080000 		.4byte	0x811
 3282 07cf 0E       		.uleb128 0xe
 3283 07d0 50060000 		.4byte	.LASF117
 3284 07d4 07       		.byte	0x7
 3285 07d5 9901     		.2byte	0x199
 3286 07d7 BD000000 		.4byte	0xbd
 3287 07db 00       		.byte	0
 3288 07dc 0E       		.uleb128 0xe
 3289 07dd 9F010000 		.4byte	.LASF118
 3290 07e1 07       		.byte	0x7
 3291 07e2 9A01     		.2byte	0x19a
 3292 07e4 BD000000 		.4byte	0xbd
 3293 07e8 04       		.byte	0x4
 3294 07e9 0E       		.uleb128 0xe
 3295 07ea F2010000 		.4byte	.LASF119
 3296 07ee 07       		.byte	0x7
 3297 07ef 9B01     		.2byte	0x19b
 3298 07f1 BD000000 		.4byte	0xbd
 3299 07f5 08       		.byte	0x8
 3300 07f6 0E       		.uleb128 0xe
 3301 07f7 81080000 		.4byte	.LASF120
 3302 07fb 07       		.byte	0x7
 3303 07fc 9C01     		.2byte	0x19c
 3304 07fe 81000000 		.4byte	0x81
 3305 0802 0C       		.byte	0xc
 3306 0803 0E       		.uleb128 0xe
 3307 0804 18050000 		.4byte	.LASF53
 3308 0808 07       		.byte	0x7
 3309 0809 9D01     		.2byte	0x19d
 3310 080b DD030000 		.4byte	0x3dd
 3311 080f 0D       		.byte	0xd
ARM GAS  C:\Users\Mattia\AppData\Local\Temp\ccnjK3ek.s 			page 67


 3312 0810 00       		.byte	0
 3313 0811 0D       		.uleb128 0xd
 3314 0812 0F060000 		.4byte	.LASF121
 3315 0816 10       		.byte	0x10
 3316 0817 07       		.byte	0x7
 3317 0818 A401     		.2byte	0x1a4
 3318 081a 53080000 		.4byte	0x853
 3319 081e 0E       		.uleb128 0xe
 3320 081f F6030000 		.4byte	.LASF122
 3321 0823 07       		.byte	0x7
 3322 0824 A501     		.2byte	0x1a5
 3323 0826 8D000000 		.4byte	0x8d
 3324 082a 00       		.byte	0
 3325 082b 0E       		.uleb128 0xe
 3326 082c 50000000 		.4byte	.LASF123
 3327 0830 07       		.byte	0x7
 3328 0831 A601     		.2byte	0x1a6
 3329 0833 B1000000 		.4byte	0xb1
 3330 0837 02       		.byte	0x2
 3331 0838 0E       		.uleb128 0xe
 3332 0839 3B090000 		.4byte	.LASF124
 3333 083d 07       		.byte	0x7
 3334 083e A701     		.2byte	0x1a7
 3335 0840 89060000 		.4byte	0x689
 3336 0844 04       		.byte	0x4
 3337 0845 0E       		.uleb128 0xe
 3338 0846 18050000 		.4byte	.LASF53
 3339 084a 07       		.byte	0x7
 3340 084b A801     		.2byte	0x1a8
 3341 084d 2A060000 		.4byte	0x62a
 3342 0851 08       		.byte	0x8
 3343 0852 00       		.byte	0
 3344 0853 0D       		.uleb128 0xd
 3345 0854 CE070000 		.4byte	.LASF125
 3346 0858 10       		.byte	0x10
 3347 0859 07       		.byte	0x7
 3348 085a AF01     		.2byte	0x1af
 3349 085c 88080000 		.4byte	0x888
 3350 0860 0E       		.uleb128 0xe
 3351 0861 25050000 		.4byte	.LASF126
 3352 0865 07       		.byte	0x7
 3353 0866 B001     		.2byte	0x1b0
 3354 0868 81000000 		.4byte	0x81
 3355 086c 00       		.byte	0
 3356 086d 0E       		.uleb128 0xe
 3357 086e AB070000 		.4byte	.LASF127
 3358 0872 07       		.byte	0x7
 3359 0873 B101     		.2byte	0x1b1
 3360 0875 81000000 		.4byte	0x81
 3361 0879 01       		.byte	0x1
 3362 087a 0E       		.uleb128 0xe
 3363 087b 18050000 		.4byte	.LASF53
 3364 087f 07       		.byte	0x7
 3365 0880 B201     		.2byte	0x1b2
 3366 0882 88080000 		.4byte	0x888
 3367 0886 02       		.byte	0x2
 3368 0887 00       		.byte	0
ARM GAS  C:\Users\Mattia\AppData\Local\Temp\ccnjK3ek.s 			page 68


 3369 0888 07       		.uleb128 0x7
 3370 0889 81000000 		.4byte	0x81
 3371 088d 98080000 		.4byte	0x898
 3372 0891 08       		.uleb128 0x8
 3373 0892 F1000000 		.4byte	0xf1
 3374 0896 0D       		.byte	0xd
 3375 0897 00       		.byte	0
 3376 0898 0D       		.uleb128 0xd
 3377 0899 3C000000 		.4byte	.LASF128
 3378 089d 10       		.byte	0x10
 3379 089e 07       		.byte	0x7
 3380 089f B901     		.2byte	0x1b9
 3381 08a1 DA080000 		.4byte	0x8da
 3382 08a5 0E       		.uleb128 0xe
 3383 08a6 00000000 		.4byte	.LASF129
 3384 08aa 07       		.byte	0x7
 3385 08ab BA01     		.2byte	0x1ba
 3386 08ad BD000000 		.4byte	0xbd
 3387 08b1 00       		.byte	0
 3388 08b2 0E       		.uleb128 0xe
 3389 08b3 E9050000 		.4byte	.LASF130
 3390 08b7 07       		.byte	0x7
 3391 08b8 BB01     		.2byte	0x1bb
 3392 08ba D5000000 		.4byte	0xd5
 3393 08be 04       		.byte	0x4
 3394 08bf 0E       		.uleb128 0xe
 3395 08c0 40050000 		.4byte	.LASF131
 3396 08c4 07       		.byte	0x7
 3397 08c5 BC01     		.2byte	0x1bc
 3398 08c7 D5000000 		.4byte	0xd5
 3399 08cb 08       		.byte	0x8
 3400 08cc 0E       		.uleb128 0xe
 3401 08cd 18050000 		.4byte	.LASF53
 3402 08d1 07       		.byte	0x7
 3403 08d2 BD01     		.2byte	0x1bd
 3404 08d4 3E030000 		.4byte	0x33e
 3405 08d8 0C       		.byte	0xc
 3406 08d9 00       		.byte	0
 3407 08da 0D       		.uleb128 0xd
 3408 08db 3E060000 		.4byte	.LASF132
 3409 08df 12       		.byte	0x12
 3410 08e0 07       		.byte	0x7
 3411 08e1 C401     		.2byte	0x1c4
 3412 08e3 1C090000 		.4byte	0x91c
 3413 08e7 0E       		.uleb128 0xe
 3414 08e8 AA010000 		.4byte	.LASF133
 3415 08ec 07       		.byte	0x7
 3416 08ed C501     		.2byte	0x1c5
 3417 08ef 81000000 		.4byte	0x81
 3418 08f3 00       		.byte	0
 3419 08f4 0E       		.uleb128 0xe
 3420 08f5 62030000 		.4byte	.LASF134
 3421 08f9 07       		.byte	0x7
 3422 08fa C601     		.2byte	0x1c6
 3423 08fc 89060000 		.4byte	0x689
 3424 0900 02       		.byte	0x2
 3425 0901 0E       		.uleb128 0xe
ARM GAS  C:\Users\Mattia\AppData\Local\Temp\ccnjK3ek.s 			page 69


 3426 0902 C1000000 		.4byte	.LASF135
 3427 0906 07       		.byte	0x7
 3428 0907 C701     		.2byte	0x1c7
 3429 0909 81000000 		.4byte	0x81
 3430 090d 06       		.byte	0x6
 3431 090e 0E       		.uleb128 0xe
 3432 090f 18050000 		.4byte	.LASF53
 3433 0913 07       		.byte	0x7
 3434 0914 C801     		.2byte	0x1c8
 3435 0916 1C090000 		.4byte	0x91c
 3436 091a 07       		.byte	0x7
 3437 091b 00       		.byte	0
 3438 091c 07       		.uleb128 0x7
 3439 091d 81000000 		.4byte	0x81
 3440 0921 2C090000 		.4byte	0x92c
 3441 0925 08       		.uleb128 0x8
 3442 0926 F1000000 		.4byte	0xf1
 3443 092a 09       		.byte	0x9
 3444 092b 00       		.byte	0
 3445 092c 10       		.uleb128 0x10
 3446 092d 83030000 		.4byte	.LASF136
 3447 0931 F402     		.2byte	0x2f4
 3448 0933 07       		.byte	0x7
 3449 0934 D101     		.2byte	0x1d1
 3450 0936 110A0000 		.4byte	0xa11
 3451 093a 0E       		.uleb128 0xe
 3452 093b A0070000 		.4byte	.LASF137
 3453 093f 07       		.byte	0x7
 3454 0940 D301     		.2byte	0x1d3
 3455 0942 81000000 		.4byte	0x81
 3456 0946 00       		.byte	0
 3457 0947 0E       		.uleb128 0xe
 3458 0948 18050000 		.4byte	.LASF53
 3459 094c 07       		.byte	0x7
 3460 094d D401     		.2byte	0x1d4
 3461 094f 110A0000 		.4byte	0xa11
 3462 0953 01       		.byte	0x1
 3463 0954 0F       		.uleb128 0xf
 3464 0955 636E7400 		.ascii	"cnt\000"
 3465 0959 07       		.byte	0x7
 3466 095a D501     		.2byte	0x1d5
 3467 095c 7E020000 		.4byte	0x27e
 3468 0960 10       		.byte	0x10
 3469 0961 0E       		.uleb128 0xe
 3470 0962 DA020000 		.4byte	.LASF138
 3471 0966 07       		.byte	0x7
 3472 0967 D601     		.2byte	0x1d6
 3473 0969 210A0000 		.4byte	0xa21
 3474 096d 70       		.byte	0x70
 3475 096e 0F       		.uleb128 0xf
 3476 096f 64657600 		.ascii	"dev\000"
 3477 0973 07       		.byte	0x7
 3478 0974 D701     		.2byte	0x1d7
 3479 0976 4E030000 		.4byte	0x34e
 3480 097a A0       		.byte	0xa0
 3481 097b 0E       		.uleb128 0xe
 3482 097c D7060000 		.4byte	.LASF139
ARM GAS  C:\Users\Mattia\AppData\Local\Temp\ccnjK3ek.s 			page 70


 3483 0980 07       		.byte	0x7
 3484 0981 D801     		.2byte	0x1d8
 3485 0983 310A0000 		.4byte	0xa31
 3486 0987 B0       		.byte	0xb0
 3487 0988 11       		.uleb128 0x11
 3488 0989 656E6300 		.ascii	"enc\000"
 3489 098d 07       		.byte	0x7
 3490 098e D901     		.2byte	0x1d9
 3491 0990 410A0000 		.4byte	0xa41
 3492 0994 9001     		.2byte	0x190
 3493 0996 11       		.uleb128 0x11
 3494 0997 656D6700 		.ascii	"emg\000"
 3495 099b 07       		.byte	0x7
 3496 099c DA01     		.2byte	0x1da
 3497 099e 3A060000 		.4byte	0x63a
 3498 09a2 F001     		.2byte	0x1f0
 3499 09a4 11       		.uleb128 0x11
 3500 09a5 696D7500 		.ascii	"imu\000"
 3501 09a9 07       		.byte	0x7
 3502 09aa DB01     		.2byte	0x1db
 3503 09ac A9060000 		.4byte	0x6a9
 3504 09b0 0002     		.2byte	0x200
 3505 09b2 11       		.uleb128 0x11
 3506 09b3 65787000 		.ascii	"exp\000"
 3507 09b7 07       		.byte	0x7
 3508 09b8 DC01     		.2byte	0x1dc
 3509 09ba 01070000 		.4byte	0x701
 3510 09be 2002     		.2byte	0x220
 3511 09c0 12       		.uleb128 0x12
 3512 09c1 28070000 		.4byte	.LASF140
 3513 09c5 07       		.byte	0x7
 3514 09c6 DD01     		.2byte	0x1dd
 3515 09c8 510A0000 		.4byte	0xa51
 3516 09cc 4002     		.2byte	0x240
 3517 09ce 11       		.uleb128 0x11
 3518 09cf 534800   		.ascii	"SH\000"
 3519 09d2 07       		.byte	0x7
 3520 09d3 DF01     		.2byte	0x1df
 3521 09d5 C2070000 		.4byte	0x7c2
 3522 09d9 A002     		.2byte	0x2a0
 3523 09db 12       		.uleb128 0x12
 3524 09dc 47000000 		.4byte	.LASF141
 3525 09e0 07       		.byte	0x7
 3526 09e1 E001     		.2byte	0x1e0
 3527 09e3 11080000 		.4byte	0x811
 3528 09e7 B002     		.2byte	0x2b0
 3529 09e9 11       		.uleb128 0x11
 3530 09ea 4D5300   		.ascii	"MS\000"
 3531 09ed 07       		.byte	0x7
 3532 09ee E101     		.2byte	0x1e1
 3533 09f0 53080000 		.4byte	0x853
 3534 09f4 C002     		.2byte	0x2c0
 3535 09f6 11       		.uleb128 0x11
 3536 09f7 464200   		.ascii	"FB\000"
 3537 09fa 07       		.byte	0x7
 3538 09fb E201     		.2byte	0x1e2
 3539 09fd 98080000 		.4byte	0x898
ARM GAS  C:\Users\Mattia\AppData\Local\Temp\ccnjK3ek.s 			page 71


 3540 0a01 D002     		.2byte	0x2d0
 3541 0a03 11       		.uleb128 0x11
 3542 0a04 575200   		.ascii	"WR\000"
 3543 0a07 07       		.byte	0x7
 3544 0a08 E301     		.2byte	0x1e3
 3545 0a0a DA080000 		.4byte	0x8da
 3546 0a0e E002     		.2byte	0x2e0
 3547 0a10 00       		.byte	0
 3548 0a11 07       		.uleb128 0x7
 3549 0a12 81000000 		.4byte	0x81
 3550 0a16 210A0000 		.4byte	0xa21
 3551 0a1a 08       		.uleb128 0x8
 3552 0a1b F1000000 		.4byte	0xf1
 3553 0a1f 0E       		.byte	0xe
 3554 0a20 00       		.byte	0
 3555 0a21 07       		.uleb128 0x7
 3556 0a22 81000000 		.4byte	0x81
 3557 0a26 310A0000 		.4byte	0xa31
 3558 0a2a 08       		.uleb128 0x8
 3559 0a2b F1000000 		.4byte	0xf1
 3560 0a2f 2F       		.byte	0x2f
 3561 0a30 00       		.byte	0
 3562 0a31 07       		.uleb128 0x7
 3563 0a32 ED030000 		.4byte	0x3ed
 3564 0a36 410A0000 		.4byte	0xa41
 3565 0a3a 08       		.uleb128 0x8
 3566 0a3b F1000000 		.4byte	0xf1
 3567 0a3f 01       		.byte	0x1
 3568 0a40 00       		.byte	0
 3569 0a41 07       		.uleb128 0x7
 3570 0a42 87050000 		.4byte	0x587
 3571 0a46 510A0000 		.4byte	0xa51
 3572 0a4a 08       		.uleb128 0x8
 3573 0a4b F1000000 		.4byte	0xf1
 3574 0a4f 01       		.byte	0x1
 3575 0a50 00       		.byte	0
 3576 0a51 07       		.uleb128 0x7
 3577 0a52 8D070000 		.4byte	0x78d
 3578 0a56 610A0000 		.4byte	0xa61
 3579 0a5a 08       		.uleb128 0x8
 3580 0a5b F1000000 		.4byte	0xf1
 3581 0a5f 02       		.byte	0x2
 3582 0a60 00       		.byte	0
 3583 0a61 13       		.uleb128 0x13
 3584 0a62 93070000 		.4byte	.LASF144
 3585 0a66 01       		.byte	0x1
 3586 0a67 31       		.byte	0x31
 3587 0a68 00000000 		.4byte	.LFB64
 3588 0a6c 46000000 		.4byte	.LFE64-.LFB64
 3589 0a70 01       		.uleb128 0x1
 3590 0a71 9C       		.byte	0x9c
 3591 0a72 930A0000 		.4byte	0xa93
 3592 0a76 14       		.uleb128 0x14
 3593 0a77 1B060000 		.4byte	.LASF142
 3594 0a7b 01       		.byte	0x1
 3595 0a7c 31       		.byte	0x31
 3596 0a7d 81000000 		.4byte	0x81
ARM GAS  C:\Users\Mattia\AppData\Local\Temp\ccnjK3ek.s 			page 72


 3597 0a81 02       		.uleb128 0x2
 3598 0a82 91       		.byte	0x91
 3599 0a83 77       		.sleb128 -9
 3600 0a84 14       		.uleb128 0x14
 3601 0a85 2D070000 		.4byte	.LASF143
 3602 0a89 01       		.byte	0x1
 3603 0a8a 31       		.byte	0x31
 3604 0a8b 81000000 		.4byte	0x81
 3605 0a8f 02       		.uleb128 0x2
 3606 0a90 91       		.byte	0x91
 3607 0a91 76       		.sleb128 -10
 3608 0a92 00       		.byte	0
 3609 0a93 13       		.uleb128 0x13
 3610 0a94 7B050000 		.4byte	.LASF145
 3611 0a98 01       		.byte	0x1
 3612 0a99 3D       		.byte	0x3d
 3613 0a9a 00000000 		.4byte	.LFB65
 3614 0a9e 1A000000 		.4byte	.LFE65-.LFB65
 3615 0aa2 01       		.uleb128 0x1
 3616 0aa3 9C       		.byte	0x9c
 3617 0aa4 B70A0000 		.4byte	0xab7
 3618 0aa8 14       		.uleb128 0x14
 3619 0aa9 2D070000 		.4byte	.LASF143
 3620 0aad 01       		.byte	0x1
 3621 0aae 3D       		.byte	0x3d
 3622 0aaf 81000000 		.4byte	0x81
 3623 0ab3 02       		.uleb128 0x2
 3624 0ab4 91       		.byte	0x91
 3625 0ab5 77       		.sleb128 -9
 3626 0ab6 00       		.byte	0
 3627 0ab7 15       		.uleb128 0x15
 3628 0ab8 DF040000 		.4byte	.LASF170
 3629 0abc 01       		.byte	0x1
 3630 0abd 43       		.byte	0x43
 3631 0abe 81000000 		.4byte	0x81
 3632 0ac2 00000000 		.4byte	.LFB66
 3633 0ac6 42000000 		.4byte	.LFE66-.LFB66
 3634 0aca 01       		.uleb128 0x1
 3635 0acb 9C       		.byte	0x9c
 3636 0acc ED0A0000 		.4byte	0xaed
 3637 0ad0 14       		.uleb128 0x14
 3638 0ad1 1B060000 		.4byte	.LASF142
 3639 0ad5 01       		.byte	0x1
 3640 0ad6 43       		.byte	0x43
 3641 0ad7 81000000 		.4byte	0x81
 3642 0adb 02       		.uleb128 0x2
 3643 0adc 91       		.byte	0x91
 3644 0add 6F       		.sleb128 -17
 3645 0ade 16       		.uleb128 0x16
 3646 0adf EC070000 		.4byte	.LASF147
 3647 0ae3 01       		.byte	0x1
 3648 0ae4 45       		.byte	0x45
 3649 0ae5 81000000 		.4byte	0x81
 3650 0ae9 02       		.uleb128 0x2
 3651 0aea 91       		.byte	0x91
 3652 0aeb 77       		.sleb128 -9
 3653 0aec 00       		.byte	0
ARM GAS  C:\Users\Mattia\AppData\Local\Temp\ccnjK3ek.s 			page 73


 3654 0aed 17       		.uleb128 0x17
 3655 0aee AE020000 		.4byte	.LASF146
 3656 0af2 01       		.byte	0x1
 3657 0af3 51       		.byte	0x51
 3658 0af4 81000000 		.4byte	0x81
 3659 0af8 00000000 		.4byte	.LFB67
 3660 0afc 5C000000 		.4byte	.LFE67-.LFB67
 3661 0b00 01       		.uleb128 0x1
 3662 0b01 9C       		.byte	0x9c
 3663 0b02 2F0B0000 		.4byte	0xb2f
 3664 0b06 16       		.uleb128 0x16
 3665 0b07 E1030000 		.4byte	.LASF148
 3666 0b0b 01       		.byte	0x1
 3667 0b0c 53       		.byte	0x53
 3668 0b0d 81000000 		.4byte	0x81
 3669 0b11 02       		.uleb128 0x2
 3670 0b12 91       		.byte	0x91
 3671 0b13 77       		.sleb128 -9
 3672 0b14 16       		.uleb128 0x16
 3673 0b15 1D070000 		.4byte	.LASF149
 3674 0b19 01       		.byte	0x1
 3675 0b1a 54       		.byte	0x54
 3676 0b1b 81000000 		.4byte	0x81
 3677 0b1f 02       		.uleb128 0x2
 3678 0b20 91       		.byte	0x91
 3679 0b21 6F       		.sleb128 -17
 3680 0b22 18       		.uleb128 0x18
 3681 0b23 6900     		.ascii	"i\000"
 3682 0b25 01       		.byte	0x1
 3683 0b26 55       		.byte	0x55
 3684 0b27 68000000 		.4byte	0x68
 3685 0b2b 02       		.uleb128 0x2
 3686 0b2c 91       		.byte	0x91
 3687 0b2d 70       		.sleb128 -16
 3688 0b2e 00       		.byte	0
 3689 0b2f 13       		.uleb128 0x13
 3690 0b30 6F080000 		.4byte	.LASF150
 3691 0b34 01       		.byte	0x1
 3692 0b35 61       		.byte	0x61
 3693 0b36 00000000 		.4byte	.LFB68
 3694 0b3a 4C000000 		.4byte	.LFE68-.LFB68
 3695 0b3e 01       		.uleb128 0x1
 3696 0b3f 9C       		.byte	0x9c
 3697 0b40 5F0B0000 		.4byte	0xb5f
 3698 0b44 19       		.uleb128 0x19
 3699 0b45 76616C00 		.ascii	"val\000"
 3700 0b49 01       		.byte	0x1
 3701 0b4a 61       		.byte	0x61
 3702 0b4b 81000000 		.4byte	0x81
 3703 0b4f 02       		.uleb128 0x2
 3704 0b50 91       		.byte	0x91
 3705 0b51 6F       		.sleb128 -17
 3706 0b52 18       		.uleb128 0x18
 3707 0b53 6900     		.ascii	"i\000"
 3708 0b55 01       		.byte	0x1
 3709 0b56 63       		.byte	0x63
 3710 0b57 81000000 		.4byte	0x81
ARM GAS  C:\Users\Mattia\AppData\Local\Temp\ccnjK3ek.s 			page 74


 3711 0b5b 02       		.uleb128 0x2
 3712 0b5c 91       		.byte	0x91
 3713 0b5d 77       		.sleb128 -9
 3714 0b5e 00       		.byte	0
 3715 0b5f 1A       		.uleb128 0x1a
 3716 0b60 06070000 		.4byte	.LASF152
 3717 0b64 01       		.byte	0x1
 3718 0b65 6B       		.byte	0x6b
 3719 0b66 00000000 		.4byte	.LFB69
 3720 0b6a 1C010000 		.4byte	.LFE69-.LFB69
 3721 0b6e 01       		.uleb128 0x1
 3722 0b6f 9C       		.byte	0x9c
 3723 0b70 830B0000 		.4byte	0xb83
 3724 0b74 16       		.uleb128 0x16
 3725 0b75 D6040000 		.4byte	.LASF151
 3726 0b79 01       		.byte	0x1
 3727 0b7a 6C       		.byte	0x6c
 3728 0b7b 81000000 		.4byte	0x81
 3729 0b7f 02       		.uleb128 0x2
 3730 0b80 91       		.byte	0x91
 3731 0b81 77       		.sleb128 -9
 3732 0b82 00       		.byte	0
 3733 0b83 1B       		.uleb128 0x1b
 3734 0b84 70020000 		.4byte	.LASF210
 3735 0b88 01       		.byte	0x1
 3736 0b89 7F       		.byte	0x7f
 3737 0b8a 00000000 		.4byte	.LFB70
 3738 0b8e 6C010000 		.4byte	.LFE70-.LFB70
 3739 0b92 01       		.uleb128 0x1
 3740 0b93 9C       		.byte	0x9c
 3741 0b94 1A       		.uleb128 0x1a
 3742 0b95 DF050000 		.4byte	.LASF153
 3743 0b99 01       		.byte	0x1
 3744 0b9a 8B       		.byte	0x8b
 3745 0b9b 00000000 		.4byte	.LFB71
 3746 0b9f F8040000 		.4byte	.LFE71-.LFB71
 3747 0ba3 01       		.uleb128 0x1
 3748 0ba4 9C       		.byte	0x9c
 3749 0ba5 640C0000 		.4byte	0xc64
 3750 0ba9 16       		.uleb128 0x16
 3751 0baa 94080000 		.4byte	.LASF154
 3752 0bae 01       		.byte	0x1
 3753 0baf 8F       		.byte	0x8f
 3754 0bb0 640C0000 		.4byte	0xc64
 3755 0bb4 03       		.uleb128 0x3
 3756 0bb5 91       		.byte	0x91
 3757 0bb6 F47E     		.sleb128 -140
 3758 0bb8 16       		.uleb128 0x16
 3759 0bb9 6A000000 		.4byte	.LASF155
 3760 0bbd 01       		.byte	0x1
 3761 0bbe 90       		.byte	0x90
 3762 0bbf 640C0000 		.4byte	0xc64
 3763 0bc3 03       		.uleb128 0x3
 3764 0bc4 91       		.byte	0x91
 3765 0bc5 907E     		.sleb128 -240
 3766 0bc7 16       		.uleb128 0x16
 3767 0bc8 A5070000 		.4byte	.LASF156
ARM GAS  C:\Users\Mattia\AppData\Local\Temp\ccnjK3ek.s 			page 75


 3768 0bcc 01       		.byte	0x1
 3769 0bcd 91       		.byte	0x91
 3770 0bce 740C0000 		.4byte	0xc74
 3771 0bd2 03       		.uleb128 0x3
 3772 0bd3 91       		.byte	0x91
 3773 0bd4 CC6A     		.sleb128 -2740
 3774 0bd6 16       		.uleb128 0x16
 3775 0bd7 E3060000 		.4byte	.LASF157
 3776 0bdb 01       		.byte	0x1
 3777 0bdc 92       		.byte	0x92
 3778 0bdd 740C0000 		.4byte	0xc74
 3779 0be1 03       		.uleb128 0x3
 3780 0be2 91       		.byte	0x91
 3781 0be3 8857     		.sleb128 -5240
 3782 0be5 16       		.uleb128 0x16
 3783 0be6 91010000 		.4byte	.LASF158
 3784 0bea 01       		.byte	0x1
 3785 0beb 93       		.byte	0x93
 3786 0bec 850C0000 		.4byte	0xc85
 3787 0bf0 03       		.uleb128 0x3
 3788 0bf1 91       		.byte	0x91
 3789 0bf2 FC56     		.sleb128 -5252
 3790 0bf4 16       		.uleb128 0x16
 3791 0bf5 E1090000 		.4byte	.LASF159
 3792 0bf9 01       		.byte	0x1
 3793 0bfa 94       		.byte	0x94
 3794 0bfb 950C0000 		.4byte	0xc95
 3795 0bff 03       		.uleb128 0x3
 3796 0c00 91       		.byte	0x91
 3797 0c01 F456     		.sleb128 -5260
 3798 0c03 16       		.uleb128 0x16
 3799 0c04 E3010000 		.4byte	.LASF160
 3800 0c08 01       		.byte	0x1
 3801 0c09 95       		.byte	0x95
 3802 0c0a 81000000 		.4byte	0x81
 3803 0c0e 02       		.uleb128 0x2
 3804 0c0f 91       		.byte	0x91
 3805 0c10 6F       		.sleb128 -17
 3806 0c11 16       		.uleb128 0x16
 3807 0c12 72060000 		.4byte	.LASF161
 3808 0c16 01       		.byte	0x1
 3809 0c17 96       		.byte	0x96
 3810 0c18 81000000 		.4byte	0x81
 3811 0c1c 02       		.uleb128 0x2
 3812 0c1d 91       		.byte	0x91
 3813 0c1e 6E       		.sleb128 -18
 3814 0c1f 16       		.uleb128 0x16
 3815 0c20 CF030000 		.4byte	.LASF162
 3816 0c24 01       		.byte	0x1
 3817 0c25 97       		.byte	0x97
 3818 0c26 58020000 		.4byte	0x258
 3819 0c2a 02       		.uleb128 0x2
 3820 0c2b 91       		.byte	0x91
 3821 0c2c 5C       		.sleb128 -36
 3822 0c2d 16       		.uleb128 0x16
 3823 0c2e A1000000 		.4byte	.LASF163
 3824 0c32 01       		.byte	0x1
ARM GAS  C:\Users\Mattia\AppData\Local\Temp\ccnjK3ek.s 			page 76


 3825 0c33 98       		.byte	0x98
 3826 0c34 58020000 		.4byte	0x258
 3827 0c38 02       		.uleb128 0x2
 3828 0c39 91       		.byte	0x91
 3829 0c3a 60       		.sleb128 -32
 3830 0c3b 16       		.uleb128 0x16
 3831 0c3c D2090000 		.4byte	.LASF164
 3832 0c40 01       		.byte	0x1
 3833 0c41 99       		.byte	0x99
 3834 0c42 A50C0000 		.4byte	0xca5
 3835 0c46 02       		.uleb128 0x2
 3836 0c47 91       		.byte	0x91
 3837 0c48 64       		.sleb128 -28
 3838 0c49 18       		.uleb128 0x18
 3839 0c4a 6900     		.ascii	"i\000"
 3840 0c4c 01       		.byte	0x1
 3841 0c4d 9A       		.byte	0x9a
 3842 0c4e 99000000 		.4byte	0x99
 3843 0c52 02       		.uleb128 0x2
 3844 0c53 91       		.byte	0x91
 3845 0c54 68       		.sleb128 -24
 3846 0c55 16       		.uleb128 0x16
 3847 0c56 F6070000 		.4byte	.LASF165
 3848 0c5a 01       		.byte	0x1
 3849 0c5b EA       		.byte	0xea
 3850 0c5c 58020000 		.4byte	0x258
 3851 0c60 02       		.uleb128 0x2
 3852 0c61 91       		.byte	0x91
 3853 0c62 58       		.sleb128 -40
 3854 0c63 00       		.byte	0
 3855 0c64 07       		.uleb128 0x7
 3856 0c65 E3000000 		.4byte	0xe3
 3857 0c69 740C0000 		.4byte	0xc74
 3858 0c6d 08       		.uleb128 0x8
 3859 0c6e F1000000 		.4byte	0xf1
 3860 0c72 63       		.byte	0x63
 3861 0c73 00       		.byte	0
 3862 0c74 07       		.uleb128 0x7
 3863 0c75 E3000000 		.4byte	0xe3
 3864 0c79 850C0000 		.4byte	0xc85
 3865 0c7d 1C       		.uleb128 0x1c
 3866 0c7e F1000000 		.4byte	0xf1
 3867 0c82 C309     		.2byte	0x9c3
 3868 0c84 00       		.byte	0
 3869 0c85 07       		.uleb128 0x7
 3870 0c86 E3000000 		.4byte	0xe3
 3871 0c8a 950C0000 		.4byte	0xc95
 3872 0c8e 08       		.uleb128 0x8
 3873 0c8f F1000000 		.4byte	0xf1
 3874 0c93 09       		.byte	0x9
 3875 0c94 00       		.byte	0
 3876 0c95 07       		.uleb128 0x7
 3877 0c96 E3000000 		.4byte	0xe3
 3878 0c9a A50C0000 		.4byte	0xca5
 3879 0c9e 08       		.uleb128 0x8
 3880 0c9f F1000000 		.4byte	0xf1
 3881 0ca3 06       		.byte	0x6
ARM GAS  C:\Users\Mattia\AppData\Local\Temp\ccnjK3ek.s 			page 77


 3882 0ca4 00       		.byte	0
 3883 0ca5 06       		.uleb128 0x6
 3884 0ca6 04       		.byte	0x4
 3885 0ca7 0E010000 		.4byte	0x10e
 3886 0cab 1A       		.uleb128 0x1a
 3887 0cac 2D0A0000 		.4byte	.LASF166
 3888 0cb0 01       		.byte	0x1
 3889 0cb1 F3       		.byte	0xf3
 3890 0cb2 00000000 		.4byte	.LFB72
 3891 0cb6 4C000000 		.4byte	.LFE72-.LFB72
 3892 0cba 01       		.uleb128 0x1
 3893 0cbb 9C       		.byte	0x9c
 3894 0cbc D00C0000 		.4byte	0xcd0
 3895 0cc0 16       		.uleb128 0x16
 3896 0cc1 A5070000 		.4byte	.LASF156
 3897 0cc5 01       		.byte	0x1
 3898 0cc6 F4       		.byte	0xf4
 3899 0cc7 740C0000 		.4byte	0xc74
 3900 0ccb 03       		.uleb128 0x3
 3901 0ccc 91       		.byte	0x91
 3902 0ccd AC6C     		.sleb128 -2516
 3903 0ccf 00       		.byte	0
 3904 0cd0 13       		.uleb128 0x13
 3905 0cd1 E8020000 		.4byte	.LASF167
 3906 0cd5 01       		.byte	0x1
 3907 0cd6 FD       		.byte	0xfd
 3908 0cd7 00000000 		.4byte	.LFB73
 3909 0cdb 48000000 		.4byte	.LFE73-.LFB73
 3910 0cdf 01       		.uleb128 0x1
 3911 0ce0 9C       		.byte	0x9c
 3912 0ce1 290D0000 		.4byte	0xd29
 3913 0ce5 14       		.uleb128 0x14
 3914 0ce6 37050000 		.4byte	.LASF168
 3915 0cea 01       		.byte	0x1
 3916 0ceb FD       		.byte	0xfd
 3917 0cec F8000000 		.4byte	0xf8
 3918 0cf0 02       		.uleb128 0x2
 3919 0cf1 91       		.byte	0x91
 3920 0cf2 6C       		.sleb128 -20
 3921 0cf3 14       		.uleb128 0x14
 3922 0cf4 88090000 		.4byte	.LASF169
 3923 0cf8 01       		.byte	0x1
 3924 0cf9 FD       		.byte	0xfd
 3925 0cfa F8000000 		.4byte	0xf8
 3926 0cfe 02       		.uleb128 0x2
 3927 0cff 91       		.byte	0x91
 3928 0d00 68       		.sleb128 -24
 3929 0d01 19       		.uleb128 0x19
 3930 0d02 6E5F7000 		.ascii	"n_p\000"
 3931 0d06 01       		.byte	0x1
 3932 0d07 FD       		.byte	0xfd
 3933 0d08 68000000 		.4byte	0x68
 3934 0d0c 02       		.uleb128 0x2
 3935 0d0d 91       		.byte	0x91
 3936 0d0e 64       		.sleb128 -28
 3937 0d0f 18       		.uleb128 0x18
 3938 0d10 6900     		.ascii	"i\000"
ARM GAS  C:\Users\Mattia\AppData\Local\Temp\ccnjK3ek.s 			page 78


 3939 0d12 01       		.byte	0x1
 3940 0d13 FE       		.byte	0xfe
 3941 0d14 68000000 		.4byte	0x68
 3942 0d18 02       		.uleb128 0x2
 3943 0d19 91       		.byte	0x91
 3944 0d1a 70       		.sleb128 -16
 3945 0d1b 18       		.uleb128 0x18
 3946 0d1c 704600   		.ascii	"pF\000"
 3947 0d1f 01       		.byte	0x1
 3948 0d20 FF       		.byte	0xff
 3949 0d21 58020000 		.4byte	0x258
 3950 0d25 02       		.uleb128 0x2
 3951 0d26 91       		.byte	0x91
 3952 0d27 74       		.sleb128 -12
 3953 0d28 00       		.byte	0
 3954 0d29 1D       		.uleb128 0x1d
 3955 0d2a 50020000 		.4byte	.LASF171
 3956 0d2e 01       		.byte	0x1
 3957 0d2f 0D01     		.2byte	0x10d
 3958 0d31 68000000 		.4byte	0x68
 3959 0d35 00000000 		.4byte	.LFB74
 3960 0d39 18000000 		.4byte	.LFE74-.LFB74
 3961 0d3d 01       		.uleb128 0x1
 3962 0d3e 9C       		.byte	0x9c
 3963 0d3f 530D0000 		.4byte	0xd53
 3964 0d43 1E       		.uleb128 0x1e
 3965 0d44 37050000 		.4byte	.LASF168
 3966 0d48 01       		.byte	0x1
 3967 0d49 0D01     		.2byte	0x10d
 3968 0d4b F8000000 		.4byte	0xf8
 3969 0d4f 02       		.uleb128 0x2
 3970 0d50 91       		.byte	0x91
 3971 0d51 74       		.sleb128 -12
 3972 0d52 00       		.byte	0
 3973 0d53 1F       		.uleb128 0x1f
 3974 0d54 AC000000 		.4byte	.LASF172
 3975 0d58 01       		.byte	0x1
 3976 0d59 1401     		.2byte	0x114
 3977 0d5b 00000000 		.4byte	.LFB75
 3978 0d5f 6C000000 		.4byte	.LFE75-.LFB75
 3979 0d63 01       		.uleb128 0x1
 3980 0d64 9C       		.byte	0x9c
 3981 0d65 A40D0000 		.4byte	0xda4
 3982 0d69 1E       		.uleb128 0x1e
 3983 0d6a 7C060000 		.4byte	.LASF173
 3984 0d6e 01       		.byte	0x1
 3985 0d6f 1401     		.2byte	0x114
 3986 0d71 F8000000 		.4byte	0xf8
 3987 0d75 02       		.uleb128 0x2
 3988 0d76 91       		.byte	0x91
 3989 0d77 6C       		.sleb128 -20
 3990 0d78 20       		.uleb128 0x20
 3991 0d79 6E5F6400 		.ascii	"n_d\000"
 3992 0d7d 01       		.byte	0x1
 3993 0d7e 1401     		.2byte	0x114
 3994 0d80 68000000 		.4byte	0x68
 3995 0d84 02       		.uleb128 0x2
ARM GAS  C:\Users\Mattia\AppData\Local\Temp\ccnjK3ek.s 			page 79


 3996 0d85 91       		.byte	0x91
 3997 0d86 68       		.sleb128 -24
 3998 0d87 21       		.uleb128 0x21
 3999 0d88 6900     		.ascii	"i\000"
 4000 0d8a 01       		.byte	0x1
 4001 0d8b 1501     		.2byte	0x115
 4002 0d8d 68000000 		.4byte	0x68
 4003 0d91 02       		.uleb128 0x2
 4004 0d92 91       		.byte	0x91
 4005 0d93 70       		.sleb128 -16
 4006 0d94 22       		.uleb128 0x22
 4007 0d95 A7030000 		.4byte	.LASF174
 4008 0d99 01       		.byte	0x1
 4009 0d9a 1601     		.2byte	0x116
 4010 0d9c 58020000 		.4byte	0x258
 4011 0da0 02       		.uleb128 0x2
 4012 0da1 91       		.byte	0x91
 4013 0da2 74       		.sleb128 -12
 4014 0da3 00       		.byte	0
 4015 0da4 23       		.uleb128 0x23
 4016 0da5 69090000 		.4byte	.LASF175
 4017 0da9 01       		.byte	0x1
 4018 0daa 2901     		.2byte	0x129
 4019 0dac 00000000 		.4byte	.LFB76
 4020 0db0 70000000 		.4byte	.LFE76-.LFB76
 4021 0db4 01       		.uleb128 0x1
 4022 0db5 9C       		.byte	0x9c
 4023 0db6 E60D0000 		.4byte	0xde6
 4024 0dba 21       		.uleb128 0x21
 4025 0dbb 6900     		.ascii	"i\000"
 4026 0dbd 01       		.byte	0x1
 4027 0dbe 2A01     		.2byte	0x12a
 4028 0dc0 68000000 		.4byte	0x68
 4029 0dc4 02       		.uleb128 0x2
 4030 0dc5 91       		.byte	0x91
 4031 0dc6 70       		.sleb128 -16
 4032 0dc7 22       		.uleb128 0x22
 4033 0dc8 A7030000 		.4byte	.LASF174
 4034 0dcc 01       		.byte	0x1
 4035 0dcd 2B01     		.2byte	0x12b
 4036 0dcf 58020000 		.4byte	0x258
 4037 0dd3 02       		.uleb128 0x2
 4038 0dd4 91       		.byte	0x91
 4039 0dd5 74       		.sleb128 -12
 4040 0dd6 22       		.uleb128 0x22
 4041 0dd7 A8090000 		.4byte	.LASF176
 4042 0ddb 01       		.byte	0x1
 4043 0ddc 2C01     		.2byte	0x12c
 4044 0dde 850C0000 		.4byte	0xc85
 4045 0de2 02       		.uleb128 0x2
 4046 0de3 91       		.byte	0x91
 4047 0de4 64       		.sleb128 -28
 4048 0de5 00       		.byte	0
 4049 0de6 1D       		.uleb128 0x1d
 4050 0de7 A2040000 		.4byte	.LASF177
 4051 0deb 01       		.byte	0x1
 4052 0dec 4401     		.2byte	0x144
ARM GAS  C:\Users\Mattia\AppData\Local\Temp\ccnjK3ek.s 			page 80


 4053 0dee 68000000 		.4byte	0x68
 4054 0df2 00000000 		.4byte	.LFB77
 4055 0df6 3C010000 		.4byte	.LFE77-.LFB77
 4056 0dfa 01       		.uleb128 0x1
 4057 0dfb 9C       		.byte	0x9c
 4058 0dfc 970E0000 		.4byte	0xe97
 4059 0e00 1E       		.uleb128 0x1e
 4060 0e01 6B010000 		.4byte	.LASF178
 4061 0e05 01       		.byte	0x1
 4062 0e06 4401     		.2byte	0x144
 4063 0e08 F8000000 		.4byte	0xf8
 4064 0e0c 03       		.uleb128 0x3
 4065 0e0d 91       		.byte	0x91
 4066 0e0e B47E     		.sleb128 -204
 4067 0e10 1E       		.uleb128 0x1e
 4068 0e11 FC020000 		.4byte	.LASF179
 4069 0e15 01       		.byte	0x1
 4070 0e16 4401     		.2byte	0x144
 4071 0e18 970E0000 		.4byte	0xe97
 4072 0e1c 03       		.uleb128 0x3
 4073 0e1d 91       		.byte	0x91
 4074 0e1e B07E     		.sleb128 -208
 4075 0e20 1E       		.uleb128 0x1e
 4076 0e21 4A090000 		.4byte	.LASF180
 4077 0e25 01       		.byte	0x1
 4078 0e26 4401     		.2byte	0x144
 4079 0e28 68000000 		.4byte	0x68
 4080 0e2c 03       		.uleb128 0x3
 4081 0e2d 91       		.byte	0x91
 4082 0e2e AC7E     		.sleb128 -212
 4083 0e30 21       		.uleb128 0x21
 4084 0e31 666400   		.ascii	"fd\000"
 4085 0e34 01       		.byte	0x1
 4086 0e35 4601     		.2byte	0x146
 4087 0e37 4D020000 		.4byte	0x24d
 4088 0e3b 03       		.uleb128 0x3
 4089 0e3c 91       		.byte	0x91
 4090 0e3d B07F     		.sleb128 -80
 4091 0e3f 22       		.uleb128 0x22
 4092 0e40 C7010000 		.4byte	.LASF181
 4093 0e44 01       		.byte	0x1
 4094 0e45 4701     		.2byte	0x147
 4095 0e47 68000000 		.4byte	0x68
 4096 0e4b 02       		.uleb128 0x2
 4097 0e4c 91       		.byte	0x91
 4098 0e4d 74       		.sleb128 -12
 4099 0e4e 22       		.uleb128 0x22
 4100 0e4f D7090000 		.4byte	.LASF182
 4101 0e53 01       		.byte	0x1
 4102 0e54 4801     		.2byte	0x148
 4103 0e56 9D0E0000 		.4byte	0xe9d
 4104 0e5a 03       		.uleb128 0x3
 4105 0e5b 91       		.byte	0x91
 4106 0e5c 9C7F     		.sleb128 -100
 4107 0e5e 24       		.uleb128 0x24
 4108 0e5f 28000000 		.4byte	.LBB2
 4109 0e63 E0000000 		.4byte	.LBE2-.LBB2
ARM GAS  C:\Users\Mattia\AppData\Local\Temp\ccnjK3ek.s 			page 81


 4110 0e67 22       		.uleb128 0x22
 4111 0e68 D2090000 		.4byte	.LASF164
 4112 0e6c 01       		.byte	0x1
 4113 0e6d 4C01     		.2byte	0x14c
 4114 0e6f A50C0000 		.4byte	0xca5
 4115 0e73 02       		.uleb128 0x2
 4116 0e74 91       		.byte	0x91
 4117 0e75 70       		.sleb128 -16
 4118 0e76 22       		.uleb128 0x22
 4119 0e77 EB040000 		.4byte	.LASF183
 4120 0e7b 01       		.byte	0x1
 4121 0e7c 4D01     		.2byte	0x14d
 4122 0e7e 640C0000 		.4byte	0xc64
 4123 0e82 03       		.uleb128 0x3
 4124 0e83 91       		.byte	0x91
 4125 0e84 B87E     		.sleb128 -200
 4126 0e86 22       		.uleb128 0x22
 4127 0e87 2E000000 		.4byte	.LASF184
 4128 0e8b 01       		.byte	0x1
 4129 0e8c 5301     		.2byte	0x153
 4130 0e8e 68000000 		.4byte	0x68
 4131 0e92 02       		.uleb128 0x2
 4132 0e93 91       		.byte	0x91
 4133 0e94 6C       		.sleb128 -20
 4134 0e95 00       		.byte	0
 4135 0e96 00       		.byte	0
 4136 0e97 06       		.uleb128 0x6
 4137 0e98 04       		.byte	0x4
 4138 0e99 FE000000 		.4byte	0xfe
 4139 0e9d 07       		.uleb128 0x7
 4140 0e9e E3000000 		.4byte	0xe3
 4141 0ea2 AD0E0000 		.4byte	0xead
 4142 0ea6 08       		.uleb128 0x8
 4143 0ea7 F1000000 		.4byte	0xf1
 4144 0eab 13       		.byte	0x13
 4145 0eac 00       		.byte	0
 4146 0ead 1F       		.uleb128 0x1f
 4147 0eae 7D020000 		.4byte	.LASF185
 4148 0eb2 01       		.byte	0x1
 4149 0eb3 6701     		.2byte	0x167
 4150 0eb5 00000000 		.4byte	.LFB78
 4151 0eb9 DC050000 		.4byte	.LFE78-.LFB78
 4152 0ebd 01       		.uleb128 0x1
 4153 0ebe 9C       		.byte	0x9c
 4154 0ebf 53100000 		.4byte	0x1053
 4155 0ec3 1E       		.uleb128 0x1e
 4156 0ec4 7C060000 		.4byte	.LASF173
 4157 0ec8 01       		.byte	0x1
 4158 0ec9 6701     		.2byte	0x167
 4159 0ecb F8000000 		.4byte	0xf8
 4160 0ecf 04       		.uleb128 0x4
 4161 0ed0 91       		.byte	0x91
 4162 0ed1 E4BE7E   		.sleb128 -24732
 4163 0ed4 22       		.uleb128 0x22
 4164 0ed5 9D060000 		.4byte	.LASF186
 4165 0ed9 01       		.byte	0x1
 4166 0eda 7201     		.2byte	0x172
ARM GAS  C:\Users\Mattia\AppData\Local\Temp\ccnjK3ek.s 			page 82


 4167 0edc 68000000 		.4byte	0x68
 4168 0ee0 02       		.uleb128 0x2
 4169 0ee1 91       		.byte	0x91
 4170 0ee2 4C       		.sleb128 -52
 4171 0ee3 22       		.uleb128 0x22
 4172 0ee4 5D0A0000 		.4byte	.LASF187
 4173 0ee8 01       		.byte	0x1
 4174 0ee9 7301     		.2byte	0x173
 4175 0eeb 53100000 		.4byte	0x1053
 4176 0eef 03       		.uleb128 0x3
 4177 0ef0 91       		.byte	0x91
 4178 0ef1 A07E     		.sleb128 -224
 4179 0ef3 22       		.uleb128 0x22
 4180 0ef4 5F020000 		.4byte	.LASF188
 4181 0ef8 01       		.byte	0x1
 4182 0ef9 7401     		.2byte	0x174
 4183 0efb 69100000 		.4byte	0x1069
 4184 0eff 04       		.uleb128 0x4
 4185 0f00 91       		.byte	0x91
 4186 0f01 E0C27E   		.sleb128 -24224
 4187 0f04 22       		.uleb128 0x22
 4188 0f05 38060000 		.4byte	.LASF189
 4189 0f09 01       		.byte	0x1
 4190 0f0a 7E01     		.2byte	0x17e
 4191 0f0c 68000000 		.4byte	0x68
 4192 0f10 02       		.uleb128 0x2
 4193 0f11 91       		.byte	0x91
 4194 0f12 68       		.sleb128 -24
 4195 0f13 25       		.uleb128 0x25
 4196 0f14 68000000 		.4byte	.LBB3
 4197 0f18 6C000000 		.4byte	.LBE3-.LBB3
 4198 0f1c 2E0F0000 		.4byte	0xf2e
 4199 0f20 21       		.uleb128 0x21
 4200 0f21 6900     		.ascii	"i\000"
 4201 0f23 01       		.byte	0x1
 4202 0f24 7901     		.2byte	0x179
 4203 0f26 68000000 		.4byte	0x68
 4204 0f2a 02       		.uleb128 0x2
 4205 0f2b 91       		.byte	0x91
 4206 0f2c 6C       		.sleb128 -20
 4207 0f2d 00       		.byte	0
 4208 0f2e 24       		.uleb128 0x24
 4209 0f2f F2000000 		.4byte	.LBB4
 4210 0f33 D6040000 		.4byte	.LBE4-.LBB4
 4211 0f37 21       		.uleb128 0x21
 4212 0f38 6900     		.ascii	"i\000"
 4213 0f3a 01       		.byte	0x1
 4214 0f3b 7F01     		.2byte	0x17f
 4215 0f3d 68000000 		.4byte	0x68
 4216 0f41 02       		.uleb128 0x2
 4217 0f42 91       		.byte	0x91
 4218 0f43 64       		.sleb128 -28
 4219 0f44 24       		.uleb128 0x24
 4220 0f45 00010000 		.4byte	.LBB5
 4221 0f49 98040000 		.4byte	.LBE5-.LBB5
 4222 0f4d 22       		.uleb128 0x22
 4223 0f4e 23020000 		.4byte	.LASF190
ARM GAS  C:\Users\Mattia\AppData\Local\Temp\ccnjK3ek.s 			page 83


 4224 0f52 01       		.byte	0x1
 4225 0f53 8001     		.2byte	0x180
 4226 0f55 640C0000 		.4byte	0xc64
 4227 0f59 04       		.uleb128 0x4
 4228 0f5a 91       		.byte	0x91
 4229 0f5b ECBE7E   		.sleb128 -24724
 4230 0f5e 22       		.uleb128 0x22
 4231 0f5f DD070000 		.4byte	.LASF191
 4232 0f63 01       		.byte	0x1
 4233 0f64 8401     		.2byte	0x184
 4234 0f66 68000000 		.4byte	0x68
 4235 0f6a 02       		.uleb128 0x2
 4236 0f6b 91       		.byte	0x91
 4237 0f6c 48       		.sleb128 -56
 4238 0f6d 22       		.uleb128 0x22
 4239 0f6e E4070000 		.4byte	.LASF192
 4240 0f72 01       		.byte	0x1
 4241 0f73 8501     		.2byte	0x185
 4242 0f75 68000000 		.4byte	0x68
 4243 0f79 02       		.uleb128 0x2
 4244 0f7a 91       		.byte	0x91
 4245 0f7b 60       		.sleb128 -32
 4246 0f7c 22       		.uleb128 0x22
 4247 0f7d 36020000 		.4byte	.LASF193
 4248 0f81 01       		.byte	0x1
 4249 0f82 8501     		.2byte	0x185
 4250 0f84 68000000 		.4byte	0x68
 4251 0f88 02       		.uleb128 0x2
 4252 0f89 91       		.byte	0x91
 4253 0f8a 5C       		.sleb128 -36
 4254 0f8b 24       		.uleb128 0x24
 4255 0f8c 96010000 		.4byte	.LBB6
 4256 0f90 CE030000 		.4byte	.LBE6-.LBB6
 4257 0f94 21       		.uleb128 0x21
 4258 0f95 6A00     		.ascii	"j\000"
 4259 0f97 01       		.byte	0x1
 4260 0f98 8601     		.2byte	0x186
 4261 0f9a 68000000 		.4byte	0x68
 4262 0f9e 02       		.uleb128 0x2
 4263 0f9f 91       		.byte	0x91
 4264 0fa0 58       		.sleb128 -40
 4265 0fa1 24       		.uleb128 0x24
 4266 0fa2 A4010000 		.4byte	.LBB7
 4267 0fa6 90030000 		.4byte	.LBE7-.LBB7
 4268 0faa 22       		.uleb128 0x22
 4269 0fab 780A0000 		.4byte	.LASF194
 4270 0faf 01       		.byte	0x1
 4271 0fb0 8701     		.2byte	0x187
 4272 0fb2 640C0000 		.4byte	0xc64
 4273 0fb6 04       		.uleb128 0x4
 4274 0fb7 91       		.byte	0x91
 4275 0fb8 D0BF7E   		.sleb128 -24624
 4276 0fbb 24       		.uleb128 0x24
 4277 0fbc 4C020000 		.4byte	.LBB8
 4278 0fc0 E8020000 		.4byte	.LBE8-.LBB8
 4279 0fc4 21       		.uleb128 0x21
 4280 0fc5 6B00     		.ascii	"k\000"
ARM GAS  C:\Users\Mattia\AppData\Local\Temp\ccnjK3ek.s 			page 84


 4281 0fc7 01       		.byte	0x1
 4282 0fc8 8C01     		.2byte	0x18c
 4283 0fca 68000000 		.4byte	0x68
 4284 0fce 02       		.uleb128 0x2
 4285 0fcf 91       		.byte	0x91
 4286 0fd0 54       		.sleb128 -44
 4287 0fd1 24       		.uleb128 0x24
 4288 0fd2 5A020000 		.4byte	.LBB9
 4289 0fd6 AE020000 		.4byte	.LBE9-.LBB9
 4290 0fda 22       		.uleb128 0x22
 4291 0fdb 690A0000 		.4byte	.LASF195
 4292 0fdf 01       		.byte	0x1
 4293 0fe0 8D01     		.2byte	0x18d
 4294 0fe2 640C0000 		.4byte	0xc64
 4295 0fe6 04       		.uleb128 0x4
 4296 0fe7 91       		.byte	0x91
 4297 0fe8 B4C07E   		.sleb128 -24524
 4298 0feb 24       		.uleb128 0x24
 4299 0fec 1A030000 		.4byte	.LBB10
 4300 0ff0 EE010000 		.4byte	.LBE10-.LBB10
 4301 0ff4 21       		.uleb128 0x21
 4302 0ff5 6800     		.ascii	"h\000"
 4303 0ff7 01       		.byte	0x1
 4304 0ff8 9201     		.2byte	0x192
 4305 0ffa 68000000 		.4byte	0x68
 4306 0ffe 02       		.uleb128 0x2
 4307 0fff 91       		.byte	0x91
 4308 1000 50       		.sleb128 -48
 4309 1001 24       		.uleb128 0x24
 4310 1002 2C030000 		.4byte	.LBB11
 4311 1006 AC010000 		.4byte	.LBE11-.LBB11
 4312 100a 22       		.uleb128 0x22
 4313 100b FE050000 		.4byte	.LASF196
 4314 100f 01       		.byte	0x1
 4315 1010 9401     		.2byte	0x194
 4316 1012 640C0000 		.4byte	0xc64
 4317 1016 04       		.uleb128 0x4
 4318 1017 91       		.byte	0x91
 4319 1018 98C17E   		.sleb128 -24424
 4320 101b 22       		.uleb128 0x22
 4321 101c D2090000 		.4byte	.LASF164
 4322 1020 01       		.byte	0x1
 4323 1021 9A01     		.2byte	0x19a
 4324 1023 A50C0000 		.4byte	0xca5
 4325 1027 02       		.uleb128 0x2
 4326 1028 91       		.byte	0x91
 4327 1029 44       		.sleb128 -60
 4328 102a 22       		.uleb128 0x22
 4329 102b 35070000 		.4byte	.LASF197
 4330 102f 01       		.byte	0x1
 4331 1030 9B01     		.2byte	0x19b
 4332 1032 68000000 		.4byte	0x68
 4333 1036 02       		.uleb128 0x2
 4334 1037 91       		.byte	0x91
 4335 1038 40       		.sleb128 -64
 4336 1039 21       		.uleb128 0x21
 4337 103a 73747200 		.ascii	"str\000"
ARM GAS  C:\Users\Mattia\AppData\Local\Temp\ccnjK3ek.s 			page 85


 4338 103e 01       		.byte	0x1
 4339 103f 9E01     		.2byte	0x19e
 4340 1041 640C0000 		.4byte	0xc64
 4341 1045 04       		.uleb128 0x4
 4342 1046 91       		.byte	0x91
 4343 1047 FCC17E   		.sleb128 -24324
 4344 104a 00       		.byte	0
 4345 104b 00       		.byte	0
 4346 104c 00       		.byte	0
 4347 104d 00       		.byte	0
 4348 104e 00       		.byte	0
 4349 104f 00       		.byte	0
 4350 1050 00       		.byte	0
 4351 1051 00       		.byte	0
 4352 1052 00       		.byte	0
 4353 1053 07       		.uleb128 0x7
 4354 1054 E3000000 		.4byte	0xe3
 4355 1058 69100000 		.4byte	0x1069
 4356 105c 08       		.uleb128 0x8
 4357 105d F1000000 		.4byte	0xf1
 4358 1061 13       		.byte	0x13
 4359 1062 08       		.uleb128 0x8
 4360 1063 F1000000 		.4byte	0xf1
 4361 1067 07       		.byte	0x7
 4362 1068 00       		.byte	0
 4363 1069 07       		.uleb128 0x7
 4364 106a E3000000 		.4byte	0xe3
 4365 106e 80100000 		.4byte	0x1080
 4366 1072 1C       		.uleb128 0x1c
 4367 1073 F1000000 		.4byte	0xf1
 4368 1077 B70B     		.2byte	0xbb7
 4369 1079 08       		.uleb128 0x8
 4370 107a F1000000 		.4byte	0xf1
 4371 107e 07       		.byte	0x7
 4372 107f 00       		.byte	0
 4373 1080 26       		.uleb128 0x26
 4374 1081 BA010000 		.4byte	.LASF198
 4375 1085 08       		.byte	0x8
 4376 1086 1207     		.2byte	0x712
 4377 1088 8C100000 		.4byte	0x108c
 4378 108c 27       		.uleb128 0x27
 4379 108d 76000000 		.4byte	0x76
 4380 1091 26       		.uleb128 0x26
 4381 1092 23060000 		.4byte	.LASF199
 4382 1096 07       		.byte	0x7
 4383 1097 2602     		.2byte	0x226
 4384 1099 2C090000 		.4byte	0x92c
 4385 109d 26       		.uleb128 0x26
 4386 109e 28000000 		.4byte	.LASF200
 4387 10a2 07       		.byte	0x7
 4388 10a3 2602     		.2byte	0x226
 4389 10a5 2C090000 		.4byte	0x92c
 4390 10a9 26       		.uleb128 0x26
 4391 10aa 65060000 		.4byte	.LASF201
 4392 10ae 07       		.byte	0x7
 4393 10af 5D02     		.2byte	0x25d
 4394 10b1 58020000 		.4byte	0x258
ARM GAS  C:\Users\Mattia\AppData\Local\Temp\ccnjK3ek.s 			page 86


 4395 10b5 26       		.uleb128 0x26
 4396 10b6 6B060000 		.4byte	.LASF202
 4397 10ba 07       		.byte	0x7
 4398 10bb 5E02     		.2byte	0x25e
 4399 10bd 640C0000 		.4byte	0xc64
 4400 10c1 26       		.uleb128 0x26
 4401 10c2 59070000 		.4byte	.LASF203
 4402 10c6 07       		.byte	0x7
 4403 10c7 5F02     		.2byte	0x25f
 4404 10c9 640C0000 		.4byte	0xc64
 4405 10cd 26       		.uleb128 0x26
 4406 10ce C8090000 		.4byte	.LASF204
 4407 10d2 07       		.byte	0x7
 4408 10d3 6002     		.2byte	0x260
 4409 10d5 58020000 		.4byte	0x258
 4410 10d9 26       		.uleb128 0x26
 4411 10da CE080000 		.4byte	.LASF205
 4412 10de 07       		.byte	0x7
 4413 10df 6102     		.2byte	0x261
 4414 10e1 640C0000 		.4byte	0xc64
 4415 10e5 26       		.uleb128 0x26
 4416 10e6 84000000 		.4byte	.LASF206
 4417 10ea 07       		.byte	0x7
 4418 10eb 6202     		.2byte	0x262
 4419 10ed 640C0000 		.4byte	0xc64
 4420 10f1 00       		.byte	0
 4421              		.section	.debug_abbrev,"",%progbits
 4422              	.Ldebug_abbrev0:
 4423 0000 01       		.uleb128 0x1
 4424 0001 11       		.uleb128 0x11
 4425 0002 01       		.byte	0x1
 4426 0003 25       		.uleb128 0x25
 4427 0004 0E       		.uleb128 0xe
 4428 0005 13       		.uleb128 0x13
 4429 0006 0B       		.uleb128 0xb
 4430 0007 03       		.uleb128 0x3
 4431 0008 0E       		.uleb128 0xe
 4432 0009 1B       		.uleb128 0x1b
 4433 000a 0E       		.uleb128 0xe
 4434 000b 55       		.uleb128 0x55
 4435 000c 17       		.uleb128 0x17
 4436 000d 11       		.uleb128 0x11
 4437 000e 01       		.uleb128 0x1
 4438 000f 10       		.uleb128 0x10
 4439 0010 17       		.uleb128 0x17
 4440 0011 00       		.byte	0
 4441 0012 00       		.byte	0
 4442 0013 02       		.uleb128 0x2
 4443 0014 24       		.uleb128 0x24
 4444 0015 00       		.byte	0
 4445 0016 0B       		.uleb128 0xb
 4446 0017 0B       		.uleb128 0xb
 4447 0018 3E       		.uleb128 0x3e
 4448 0019 0B       		.uleb128 0xb
 4449 001a 03       		.uleb128 0x3
 4450 001b 0E       		.uleb128 0xe
 4451 001c 00       		.byte	0
ARM GAS  C:\Users\Mattia\AppData\Local\Temp\ccnjK3ek.s 			page 87


 4452 001d 00       		.byte	0
 4453 001e 03       		.uleb128 0x3
 4454 001f 16       		.uleb128 0x16
 4455 0020 00       		.byte	0
 4456 0021 03       		.uleb128 0x3
 4457 0022 0E       		.uleb128 0xe
 4458 0023 3A       		.uleb128 0x3a
 4459 0024 0B       		.uleb128 0xb
 4460 0025 3B       		.uleb128 0x3b
 4461 0026 0B       		.uleb128 0xb
 4462 0027 49       		.uleb128 0x49
 4463 0028 13       		.uleb128 0x13
 4464 0029 00       		.byte	0
 4465 002a 00       		.byte	0
 4466 002b 04       		.uleb128 0x4
 4467 002c 24       		.uleb128 0x24
 4468 002d 00       		.byte	0
 4469 002e 0B       		.uleb128 0xb
 4470 002f 0B       		.uleb128 0xb
 4471 0030 3E       		.uleb128 0x3e
 4472 0031 0B       		.uleb128 0xb
 4473 0032 03       		.uleb128 0x3
 4474 0033 08       		.uleb128 0x8
 4475 0034 00       		.byte	0
 4476 0035 00       		.byte	0
 4477 0036 05       		.uleb128 0x5
 4478 0037 16       		.uleb128 0x16
 4479 0038 00       		.byte	0
 4480 0039 03       		.uleb128 0x3
 4481 003a 0E       		.uleb128 0xe
 4482 003b 3A       		.uleb128 0x3a
 4483 003c 0B       		.uleb128 0xb
 4484 003d 3B       		.uleb128 0x3b
 4485 003e 05       		.uleb128 0x5
 4486 003f 49       		.uleb128 0x49
 4487 0040 13       		.uleb128 0x13
 4488 0041 00       		.byte	0
 4489 0042 00       		.byte	0
 4490 0043 06       		.uleb128 0x6
 4491 0044 0F       		.uleb128 0xf
 4492 0045 00       		.byte	0
 4493 0046 0B       		.uleb128 0xb
 4494 0047 0B       		.uleb128 0xb
 4495 0048 49       		.uleb128 0x49
 4496 0049 13       		.uleb128 0x13
 4497 004a 00       		.byte	0
 4498 004b 00       		.byte	0
 4499 004c 07       		.uleb128 0x7
 4500 004d 01       		.uleb128 0x1
 4501 004e 01       		.byte	0x1
 4502 004f 49       		.uleb128 0x49
 4503 0050 13       		.uleb128 0x13
 4504 0051 01       		.uleb128 0x1
 4505 0052 13       		.uleb128 0x13
 4506 0053 00       		.byte	0
 4507 0054 00       		.byte	0
 4508 0055 08       		.uleb128 0x8
ARM GAS  C:\Users\Mattia\AppData\Local\Temp\ccnjK3ek.s 			page 88


 4509 0056 21       		.uleb128 0x21
 4510 0057 00       		.byte	0
 4511 0058 49       		.uleb128 0x49
 4512 0059 13       		.uleb128 0x13
 4513 005a 2F       		.uleb128 0x2f
 4514 005b 0B       		.uleb128 0xb
 4515 005c 00       		.byte	0
 4516 005d 00       		.byte	0
 4517 005e 09       		.uleb128 0x9
 4518 005f 13       		.uleb128 0x13
 4519 0060 00       		.byte	0
 4520 0061 03       		.uleb128 0x3
 4521 0062 0E       		.uleb128 0xe
 4522 0063 3C       		.uleb128 0x3c
 4523 0064 19       		.uleb128 0x19
 4524 0065 00       		.byte	0
 4525 0066 00       		.byte	0
 4526 0067 0A       		.uleb128 0xa
 4527 0068 13       		.uleb128 0x13
 4528 0069 01       		.byte	0x1
 4529 006a 0B       		.uleb128 0xb
 4530 006b 0B       		.uleb128 0xb
 4531 006c 3A       		.uleb128 0x3a
 4532 006d 0B       		.uleb128 0xb
 4533 006e 3B       		.uleb128 0x3b
 4534 006f 0B       		.uleb128 0xb
 4535 0070 01       		.uleb128 0x1
 4536 0071 13       		.uleb128 0x13
 4537 0072 00       		.byte	0
 4538 0073 00       		.byte	0
 4539 0074 0B       		.uleb128 0xb
 4540 0075 0D       		.uleb128 0xd
 4541 0076 00       		.byte	0
 4542 0077 03       		.uleb128 0x3
 4543 0078 0E       		.uleb128 0xe
 4544 0079 3A       		.uleb128 0x3a
 4545 007a 0B       		.uleb128 0xb
 4546 007b 3B       		.uleb128 0x3b
 4547 007c 0B       		.uleb128 0xb
 4548 007d 49       		.uleb128 0x49
 4549 007e 13       		.uleb128 0x13
 4550 007f 38       		.uleb128 0x38
 4551 0080 0B       		.uleb128 0xb
 4552 0081 00       		.byte	0
 4553 0082 00       		.byte	0
 4554 0083 0C       		.uleb128 0xc
 4555 0084 0D       		.uleb128 0xd
 4556 0085 00       		.byte	0
 4557 0086 03       		.uleb128 0x3
 4558 0087 08       		.uleb128 0x8
 4559 0088 3A       		.uleb128 0x3a
 4560 0089 0B       		.uleb128 0xb
 4561 008a 3B       		.uleb128 0x3b
 4562 008b 0B       		.uleb128 0xb
 4563 008c 49       		.uleb128 0x49
 4564 008d 13       		.uleb128 0x13
 4565 008e 38       		.uleb128 0x38
ARM GAS  C:\Users\Mattia\AppData\Local\Temp\ccnjK3ek.s 			page 89


 4566 008f 0B       		.uleb128 0xb
 4567 0090 00       		.byte	0
 4568 0091 00       		.byte	0
 4569 0092 0D       		.uleb128 0xd
 4570 0093 13       		.uleb128 0x13
 4571 0094 01       		.byte	0x1
 4572 0095 03       		.uleb128 0x3
 4573 0096 0E       		.uleb128 0xe
 4574 0097 0B       		.uleb128 0xb
 4575 0098 0B       		.uleb128 0xb
 4576 0099 3A       		.uleb128 0x3a
 4577 009a 0B       		.uleb128 0xb
 4578 009b 3B       		.uleb128 0x3b
 4579 009c 05       		.uleb128 0x5
 4580 009d 01       		.uleb128 0x1
 4581 009e 13       		.uleb128 0x13
 4582 009f 00       		.byte	0
 4583 00a0 00       		.byte	0
 4584 00a1 0E       		.uleb128 0xe
 4585 00a2 0D       		.uleb128 0xd
 4586 00a3 00       		.byte	0
 4587 00a4 03       		.uleb128 0x3
 4588 00a5 0E       		.uleb128 0xe
 4589 00a6 3A       		.uleb128 0x3a
 4590 00a7 0B       		.uleb128 0xb
 4591 00a8 3B       		.uleb128 0x3b
 4592 00a9 05       		.uleb128 0x5
 4593 00aa 49       		.uleb128 0x49
 4594 00ab 13       		.uleb128 0x13
 4595 00ac 38       		.uleb128 0x38
 4596 00ad 0B       		.uleb128 0xb
 4597 00ae 00       		.byte	0
 4598 00af 00       		.byte	0
 4599 00b0 0F       		.uleb128 0xf
 4600 00b1 0D       		.uleb128 0xd
 4601 00b2 00       		.byte	0
 4602 00b3 03       		.uleb128 0x3
 4603 00b4 08       		.uleb128 0x8
 4604 00b5 3A       		.uleb128 0x3a
 4605 00b6 0B       		.uleb128 0xb
 4606 00b7 3B       		.uleb128 0x3b
 4607 00b8 05       		.uleb128 0x5
 4608 00b9 49       		.uleb128 0x49
 4609 00ba 13       		.uleb128 0x13
 4610 00bb 38       		.uleb128 0x38
 4611 00bc 0B       		.uleb128 0xb
 4612 00bd 00       		.byte	0
 4613 00be 00       		.byte	0
 4614 00bf 10       		.uleb128 0x10
 4615 00c0 13       		.uleb128 0x13
 4616 00c1 01       		.byte	0x1
 4617 00c2 03       		.uleb128 0x3
 4618 00c3 0E       		.uleb128 0xe
 4619 00c4 0B       		.uleb128 0xb
 4620 00c5 05       		.uleb128 0x5
 4621 00c6 3A       		.uleb128 0x3a
 4622 00c7 0B       		.uleb128 0xb
ARM GAS  C:\Users\Mattia\AppData\Local\Temp\ccnjK3ek.s 			page 90


 4623 00c8 3B       		.uleb128 0x3b
 4624 00c9 05       		.uleb128 0x5
 4625 00ca 01       		.uleb128 0x1
 4626 00cb 13       		.uleb128 0x13
 4627 00cc 00       		.byte	0
 4628 00cd 00       		.byte	0
 4629 00ce 11       		.uleb128 0x11
 4630 00cf 0D       		.uleb128 0xd
 4631 00d0 00       		.byte	0
 4632 00d1 03       		.uleb128 0x3
 4633 00d2 08       		.uleb128 0x8
 4634 00d3 3A       		.uleb128 0x3a
 4635 00d4 0B       		.uleb128 0xb
 4636 00d5 3B       		.uleb128 0x3b
 4637 00d6 05       		.uleb128 0x5
 4638 00d7 49       		.uleb128 0x49
 4639 00d8 13       		.uleb128 0x13
 4640 00d9 38       		.uleb128 0x38
 4641 00da 05       		.uleb128 0x5
 4642 00db 00       		.byte	0
 4643 00dc 00       		.byte	0
 4644 00dd 12       		.uleb128 0x12
 4645 00de 0D       		.uleb128 0xd
 4646 00df 00       		.byte	0
 4647 00e0 03       		.uleb128 0x3
 4648 00e1 0E       		.uleb128 0xe
 4649 00e2 3A       		.uleb128 0x3a
 4650 00e3 0B       		.uleb128 0xb
 4651 00e4 3B       		.uleb128 0x3b
 4652 00e5 05       		.uleb128 0x5
 4653 00e6 49       		.uleb128 0x49
 4654 00e7 13       		.uleb128 0x13
 4655 00e8 38       		.uleb128 0x38
 4656 00e9 05       		.uleb128 0x5
 4657 00ea 00       		.byte	0
 4658 00eb 00       		.byte	0
 4659 00ec 13       		.uleb128 0x13
 4660 00ed 2E       		.uleb128 0x2e
 4661 00ee 01       		.byte	0x1
 4662 00ef 3F       		.uleb128 0x3f
 4663 00f0 19       		.uleb128 0x19
 4664 00f1 03       		.uleb128 0x3
 4665 00f2 0E       		.uleb128 0xe
 4666 00f3 3A       		.uleb128 0x3a
 4667 00f4 0B       		.uleb128 0xb
 4668 00f5 3B       		.uleb128 0x3b
 4669 00f6 0B       		.uleb128 0xb
 4670 00f7 27       		.uleb128 0x27
 4671 00f8 19       		.uleb128 0x19
 4672 00f9 11       		.uleb128 0x11
 4673 00fa 01       		.uleb128 0x1
 4674 00fb 12       		.uleb128 0x12
 4675 00fc 06       		.uleb128 0x6
 4676 00fd 40       		.uleb128 0x40
 4677 00fe 18       		.uleb128 0x18
 4678 00ff 9642     		.uleb128 0x2116
 4679 0101 19       		.uleb128 0x19
ARM GAS  C:\Users\Mattia\AppData\Local\Temp\ccnjK3ek.s 			page 91


 4680 0102 01       		.uleb128 0x1
 4681 0103 13       		.uleb128 0x13
 4682 0104 00       		.byte	0
 4683 0105 00       		.byte	0
 4684 0106 14       		.uleb128 0x14
 4685 0107 05       		.uleb128 0x5
 4686 0108 00       		.byte	0
 4687 0109 03       		.uleb128 0x3
 4688 010a 0E       		.uleb128 0xe
 4689 010b 3A       		.uleb128 0x3a
 4690 010c 0B       		.uleb128 0xb
 4691 010d 3B       		.uleb128 0x3b
 4692 010e 0B       		.uleb128 0xb
 4693 010f 49       		.uleb128 0x49
 4694 0110 13       		.uleb128 0x13
 4695 0111 02       		.uleb128 0x2
 4696 0112 18       		.uleb128 0x18
 4697 0113 00       		.byte	0
 4698 0114 00       		.byte	0
 4699 0115 15       		.uleb128 0x15
 4700 0116 2E       		.uleb128 0x2e
 4701 0117 01       		.byte	0x1
 4702 0118 3F       		.uleb128 0x3f
 4703 0119 19       		.uleb128 0x19
 4704 011a 03       		.uleb128 0x3
 4705 011b 0E       		.uleb128 0xe
 4706 011c 3A       		.uleb128 0x3a
 4707 011d 0B       		.uleb128 0xb
 4708 011e 3B       		.uleb128 0x3b
 4709 011f 0B       		.uleb128 0xb
 4710 0120 27       		.uleb128 0x27
 4711 0121 19       		.uleb128 0x19
 4712 0122 49       		.uleb128 0x49
 4713 0123 13       		.uleb128 0x13
 4714 0124 11       		.uleb128 0x11
 4715 0125 01       		.uleb128 0x1
 4716 0126 12       		.uleb128 0x12
 4717 0127 06       		.uleb128 0x6
 4718 0128 40       		.uleb128 0x40
 4719 0129 18       		.uleb128 0x18
 4720 012a 9642     		.uleb128 0x2116
 4721 012c 19       		.uleb128 0x19
 4722 012d 01       		.uleb128 0x1
 4723 012e 13       		.uleb128 0x13
 4724 012f 00       		.byte	0
 4725 0130 00       		.byte	0
 4726 0131 16       		.uleb128 0x16
 4727 0132 34       		.uleb128 0x34
 4728 0133 00       		.byte	0
 4729 0134 03       		.uleb128 0x3
 4730 0135 0E       		.uleb128 0xe
 4731 0136 3A       		.uleb128 0x3a
 4732 0137 0B       		.uleb128 0xb
 4733 0138 3B       		.uleb128 0x3b
 4734 0139 0B       		.uleb128 0xb
 4735 013a 49       		.uleb128 0x49
 4736 013b 13       		.uleb128 0x13
ARM GAS  C:\Users\Mattia\AppData\Local\Temp\ccnjK3ek.s 			page 92


 4737 013c 02       		.uleb128 0x2
 4738 013d 18       		.uleb128 0x18
 4739 013e 00       		.byte	0
 4740 013f 00       		.byte	0
 4741 0140 17       		.uleb128 0x17
 4742 0141 2E       		.uleb128 0x2e
 4743 0142 01       		.byte	0x1
 4744 0143 3F       		.uleb128 0x3f
 4745 0144 19       		.uleb128 0x19
 4746 0145 03       		.uleb128 0x3
 4747 0146 0E       		.uleb128 0xe
 4748 0147 3A       		.uleb128 0x3a
 4749 0148 0B       		.uleb128 0xb
 4750 0149 3B       		.uleb128 0x3b
 4751 014a 0B       		.uleb128 0xb
 4752 014b 49       		.uleb128 0x49
 4753 014c 13       		.uleb128 0x13
 4754 014d 11       		.uleb128 0x11
 4755 014e 01       		.uleb128 0x1
 4756 014f 12       		.uleb128 0x12
 4757 0150 06       		.uleb128 0x6
 4758 0151 40       		.uleb128 0x40
 4759 0152 18       		.uleb128 0x18
 4760 0153 9642     		.uleb128 0x2116
 4761 0155 19       		.uleb128 0x19
 4762 0156 01       		.uleb128 0x1
 4763 0157 13       		.uleb128 0x13
 4764 0158 00       		.byte	0
 4765 0159 00       		.byte	0
 4766 015a 18       		.uleb128 0x18
 4767 015b 34       		.uleb128 0x34
 4768 015c 00       		.byte	0
 4769 015d 03       		.uleb128 0x3
 4770 015e 08       		.uleb128 0x8
 4771 015f 3A       		.uleb128 0x3a
 4772 0160 0B       		.uleb128 0xb
 4773 0161 3B       		.uleb128 0x3b
 4774 0162 0B       		.uleb128 0xb
 4775 0163 49       		.uleb128 0x49
 4776 0164 13       		.uleb128 0x13
 4777 0165 02       		.uleb128 0x2
 4778 0166 18       		.uleb128 0x18
 4779 0167 00       		.byte	0
 4780 0168 00       		.byte	0
 4781 0169 19       		.uleb128 0x19
 4782 016a 05       		.uleb128 0x5
 4783 016b 00       		.byte	0
 4784 016c 03       		.uleb128 0x3
 4785 016d 08       		.uleb128 0x8
 4786 016e 3A       		.uleb128 0x3a
 4787 016f 0B       		.uleb128 0xb
 4788 0170 3B       		.uleb128 0x3b
 4789 0171 0B       		.uleb128 0xb
 4790 0172 49       		.uleb128 0x49
 4791 0173 13       		.uleb128 0x13
 4792 0174 02       		.uleb128 0x2
 4793 0175 18       		.uleb128 0x18
ARM GAS  C:\Users\Mattia\AppData\Local\Temp\ccnjK3ek.s 			page 93


 4794 0176 00       		.byte	0
 4795 0177 00       		.byte	0
 4796 0178 1A       		.uleb128 0x1a
 4797 0179 2E       		.uleb128 0x2e
 4798 017a 01       		.byte	0x1
 4799 017b 3F       		.uleb128 0x3f
 4800 017c 19       		.uleb128 0x19
 4801 017d 03       		.uleb128 0x3
 4802 017e 0E       		.uleb128 0xe
 4803 017f 3A       		.uleb128 0x3a
 4804 0180 0B       		.uleb128 0xb
 4805 0181 3B       		.uleb128 0x3b
 4806 0182 0B       		.uleb128 0xb
 4807 0183 11       		.uleb128 0x11
 4808 0184 01       		.uleb128 0x1
 4809 0185 12       		.uleb128 0x12
 4810 0186 06       		.uleb128 0x6
 4811 0187 40       		.uleb128 0x40
 4812 0188 18       		.uleb128 0x18
 4813 0189 9642     		.uleb128 0x2116
 4814 018b 19       		.uleb128 0x19
 4815 018c 01       		.uleb128 0x1
 4816 018d 13       		.uleb128 0x13
 4817 018e 00       		.byte	0
 4818 018f 00       		.byte	0
 4819 0190 1B       		.uleb128 0x1b
 4820 0191 2E       		.uleb128 0x2e
 4821 0192 00       		.byte	0
 4822 0193 3F       		.uleb128 0x3f
 4823 0194 19       		.uleb128 0x19
 4824 0195 03       		.uleb128 0x3
 4825 0196 0E       		.uleb128 0xe
 4826 0197 3A       		.uleb128 0x3a
 4827 0198 0B       		.uleb128 0xb
 4828 0199 3B       		.uleb128 0x3b
 4829 019a 0B       		.uleb128 0xb
 4830 019b 11       		.uleb128 0x11
 4831 019c 01       		.uleb128 0x1
 4832 019d 12       		.uleb128 0x12
 4833 019e 06       		.uleb128 0x6
 4834 019f 40       		.uleb128 0x40
 4835 01a0 18       		.uleb128 0x18
 4836 01a1 9642     		.uleb128 0x2116
 4837 01a3 19       		.uleb128 0x19
 4838 01a4 00       		.byte	0
 4839 01a5 00       		.byte	0
 4840 01a6 1C       		.uleb128 0x1c
 4841 01a7 21       		.uleb128 0x21
 4842 01a8 00       		.byte	0
 4843 01a9 49       		.uleb128 0x49
 4844 01aa 13       		.uleb128 0x13
 4845 01ab 2F       		.uleb128 0x2f
 4846 01ac 05       		.uleb128 0x5
 4847 01ad 00       		.byte	0
 4848 01ae 00       		.byte	0
 4849 01af 1D       		.uleb128 0x1d
 4850 01b0 2E       		.uleb128 0x2e
ARM GAS  C:\Users\Mattia\AppData\Local\Temp\ccnjK3ek.s 			page 94


 4851 01b1 01       		.byte	0x1
 4852 01b2 3F       		.uleb128 0x3f
 4853 01b3 19       		.uleb128 0x19
 4854 01b4 03       		.uleb128 0x3
 4855 01b5 0E       		.uleb128 0xe
 4856 01b6 3A       		.uleb128 0x3a
 4857 01b7 0B       		.uleb128 0xb
 4858 01b8 3B       		.uleb128 0x3b
 4859 01b9 05       		.uleb128 0x5
 4860 01ba 27       		.uleb128 0x27
 4861 01bb 19       		.uleb128 0x19
 4862 01bc 49       		.uleb128 0x49
 4863 01bd 13       		.uleb128 0x13
 4864 01be 11       		.uleb128 0x11
 4865 01bf 01       		.uleb128 0x1
 4866 01c0 12       		.uleb128 0x12
 4867 01c1 06       		.uleb128 0x6
 4868 01c2 40       		.uleb128 0x40
 4869 01c3 18       		.uleb128 0x18
 4870 01c4 9642     		.uleb128 0x2116
 4871 01c6 19       		.uleb128 0x19
 4872 01c7 01       		.uleb128 0x1
 4873 01c8 13       		.uleb128 0x13
 4874 01c9 00       		.byte	0
 4875 01ca 00       		.byte	0
 4876 01cb 1E       		.uleb128 0x1e
 4877 01cc 05       		.uleb128 0x5
 4878 01cd 00       		.byte	0
 4879 01ce 03       		.uleb128 0x3
 4880 01cf 0E       		.uleb128 0xe
 4881 01d0 3A       		.uleb128 0x3a
 4882 01d1 0B       		.uleb128 0xb
 4883 01d2 3B       		.uleb128 0x3b
 4884 01d3 05       		.uleb128 0x5
 4885 01d4 49       		.uleb128 0x49
 4886 01d5 13       		.uleb128 0x13
 4887 01d6 02       		.uleb128 0x2
 4888 01d7 18       		.uleb128 0x18
 4889 01d8 00       		.byte	0
 4890 01d9 00       		.byte	0
 4891 01da 1F       		.uleb128 0x1f
 4892 01db 2E       		.uleb128 0x2e
 4893 01dc 01       		.byte	0x1
 4894 01dd 3F       		.uleb128 0x3f
 4895 01de 19       		.uleb128 0x19
 4896 01df 03       		.uleb128 0x3
 4897 01e0 0E       		.uleb128 0xe
 4898 01e1 3A       		.uleb128 0x3a
 4899 01e2 0B       		.uleb128 0xb
 4900 01e3 3B       		.uleb128 0x3b
 4901 01e4 05       		.uleb128 0x5
 4902 01e5 27       		.uleb128 0x27
 4903 01e6 19       		.uleb128 0x19
 4904 01e7 11       		.uleb128 0x11
 4905 01e8 01       		.uleb128 0x1
 4906 01e9 12       		.uleb128 0x12
 4907 01ea 06       		.uleb128 0x6
ARM GAS  C:\Users\Mattia\AppData\Local\Temp\ccnjK3ek.s 			page 95


 4908 01eb 40       		.uleb128 0x40
 4909 01ec 18       		.uleb128 0x18
 4910 01ed 9642     		.uleb128 0x2116
 4911 01ef 19       		.uleb128 0x19
 4912 01f0 01       		.uleb128 0x1
 4913 01f1 13       		.uleb128 0x13
 4914 01f2 00       		.byte	0
 4915 01f3 00       		.byte	0
 4916 01f4 20       		.uleb128 0x20
 4917 01f5 05       		.uleb128 0x5
 4918 01f6 00       		.byte	0
 4919 01f7 03       		.uleb128 0x3
 4920 01f8 08       		.uleb128 0x8
 4921 01f9 3A       		.uleb128 0x3a
 4922 01fa 0B       		.uleb128 0xb
 4923 01fb 3B       		.uleb128 0x3b
 4924 01fc 05       		.uleb128 0x5
 4925 01fd 49       		.uleb128 0x49
 4926 01fe 13       		.uleb128 0x13
 4927 01ff 02       		.uleb128 0x2
 4928 0200 18       		.uleb128 0x18
 4929 0201 00       		.byte	0
 4930 0202 00       		.byte	0
 4931 0203 21       		.uleb128 0x21
 4932 0204 34       		.uleb128 0x34
 4933 0205 00       		.byte	0
 4934 0206 03       		.uleb128 0x3
 4935 0207 08       		.uleb128 0x8
 4936 0208 3A       		.uleb128 0x3a
 4937 0209 0B       		.uleb128 0xb
 4938 020a 3B       		.uleb128 0x3b
 4939 020b 05       		.uleb128 0x5
 4940 020c 49       		.uleb128 0x49
 4941 020d 13       		.uleb128 0x13
 4942 020e 02       		.uleb128 0x2
 4943 020f 18       		.uleb128 0x18
 4944 0210 00       		.byte	0
 4945 0211 00       		.byte	0
 4946 0212 22       		.uleb128 0x22
 4947 0213 34       		.uleb128 0x34
 4948 0214 00       		.byte	0
 4949 0215 03       		.uleb128 0x3
 4950 0216 0E       		.uleb128 0xe
 4951 0217 3A       		.uleb128 0x3a
 4952 0218 0B       		.uleb128 0xb
 4953 0219 3B       		.uleb128 0x3b
 4954 021a 05       		.uleb128 0x5
 4955 021b 49       		.uleb128 0x49
 4956 021c 13       		.uleb128 0x13
 4957 021d 02       		.uleb128 0x2
 4958 021e 18       		.uleb128 0x18
 4959 021f 00       		.byte	0
 4960 0220 00       		.byte	0
 4961 0221 23       		.uleb128 0x23
 4962 0222 2E       		.uleb128 0x2e
 4963 0223 01       		.byte	0x1
 4964 0224 3F       		.uleb128 0x3f
ARM GAS  C:\Users\Mattia\AppData\Local\Temp\ccnjK3ek.s 			page 96


 4965 0225 19       		.uleb128 0x19
 4966 0226 03       		.uleb128 0x3
 4967 0227 0E       		.uleb128 0xe
 4968 0228 3A       		.uleb128 0x3a
 4969 0229 0B       		.uleb128 0xb
 4970 022a 3B       		.uleb128 0x3b
 4971 022b 05       		.uleb128 0x5
 4972 022c 11       		.uleb128 0x11
 4973 022d 01       		.uleb128 0x1
 4974 022e 12       		.uleb128 0x12
 4975 022f 06       		.uleb128 0x6
 4976 0230 40       		.uleb128 0x40
 4977 0231 18       		.uleb128 0x18
 4978 0232 9642     		.uleb128 0x2116
 4979 0234 19       		.uleb128 0x19
 4980 0235 01       		.uleb128 0x1
 4981 0236 13       		.uleb128 0x13
 4982 0237 00       		.byte	0
 4983 0238 00       		.byte	0
 4984 0239 24       		.uleb128 0x24
 4985 023a 0B       		.uleb128 0xb
 4986 023b 01       		.byte	0x1
 4987 023c 11       		.uleb128 0x11
 4988 023d 01       		.uleb128 0x1
 4989 023e 12       		.uleb128 0x12
 4990 023f 06       		.uleb128 0x6
 4991 0240 00       		.byte	0
 4992 0241 00       		.byte	0
 4993 0242 25       		.uleb128 0x25
 4994 0243 0B       		.uleb128 0xb
 4995 0244 01       		.byte	0x1
 4996 0245 11       		.uleb128 0x11
 4997 0246 01       		.uleb128 0x1
 4998 0247 12       		.uleb128 0x12
 4999 0248 06       		.uleb128 0x6
 5000 0249 01       		.uleb128 0x1
 5001 024a 13       		.uleb128 0x13
 5002 024b 00       		.byte	0
 5003 024c 00       		.byte	0
 5004 024d 26       		.uleb128 0x26
 5005 024e 34       		.uleb128 0x34
 5006 024f 00       		.byte	0
 5007 0250 03       		.uleb128 0x3
 5008 0251 0E       		.uleb128 0xe
 5009 0252 3A       		.uleb128 0x3a
 5010 0253 0B       		.uleb128 0xb
 5011 0254 3B       		.uleb128 0x3b
 5012 0255 05       		.uleb128 0x5
 5013 0256 49       		.uleb128 0x49
 5014 0257 13       		.uleb128 0x13
 5015 0258 3F       		.uleb128 0x3f
 5016 0259 19       		.uleb128 0x19
 5017 025a 3C       		.uleb128 0x3c
 5018 025b 19       		.uleb128 0x19
 5019 025c 00       		.byte	0
 5020 025d 00       		.byte	0
 5021 025e 27       		.uleb128 0x27
ARM GAS  C:\Users\Mattia\AppData\Local\Temp\ccnjK3ek.s 			page 97


 5022 025f 35       		.uleb128 0x35
 5023 0260 00       		.byte	0
 5024 0261 49       		.uleb128 0x49
 5025 0262 13       		.uleb128 0x13
 5026 0263 00       		.byte	0
 5027 0264 00       		.byte	0
 5028 0265 00       		.byte	0
 5029              		.section	.debug_aranges,"",%progbits
 5030 0000 8C000000 		.4byte	0x8c
 5031 0004 0200     		.2byte	0x2
 5032 0006 00000000 		.4byte	.Ldebug_info0
 5033 000a 04       		.byte	0x4
 5034 000b 00       		.byte	0
 5035 000c 0000     		.2byte	0
 5036 000e 0000     		.2byte	0
 5037 0010 00000000 		.4byte	.LFB64
 5038 0014 46000000 		.4byte	.LFE64-.LFB64
 5039 0018 00000000 		.4byte	.LFB65
 5040 001c 1A000000 		.4byte	.LFE65-.LFB65
 5041 0020 00000000 		.4byte	.LFB66
 5042 0024 42000000 		.4byte	.LFE66-.LFB66
 5043 0028 00000000 		.4byte	.LFB67
 5044 002c 5C000000 		.4byte	.LFE67-.LFB67
 5045 0030 00000000 		.4byte	.LFB68
 5046 0034 4C000000 		.4byte	.LFE68-.LFB68
 5047 0038 00000000 		.4byte	.LFB69
 5048 003c 1C010000 		.4byte	.LFE69-.LFB69
 5049 0040 00000000 		.4byte	.LFB70
 5050 0044 6C010000 		.4byte	.LFE70-.LFB70
 5051 0048 00000000 		.4byte	.LFB71
 5052 004c F8040000 		.4byte	.LFE71-.LFB71
 5053 0050 00000000 		.4byte	.LFB72
 5054 0054 4C000000 		.4byte	.LFE72-.LFB72
 5055 0058 00000000 		.4byte	.LFB73
 5056 005c 48000000 		.4byte	.LFE73-.LFB73
 5057 0060 00000000 		.4byte	.LFB74
 5058 0064 18000000 		.4byte	.LFE74-.LFB74
 5059 0068 00000000 		.4byte	.LFB75
 5060 006c 6C000000 		.4byte	.LFE75-.LFB75
 5061 0070 00000000 		.4byte	.LFB76
 5062 0074 70000000 		.4byte	.LFE76-.LFB76
 5063 0078 00000000 		.4byte	.LFB77
 5064 007c 3C010000 		.4byte	.LFE77-.LFB77
 5065 0080 00000000 		.4byte	.LFB78
 5066 0084 DC050000 		.4byte	.LFE78-.LFB78
 5067 0088 00000000 		.4byte	0
 5068 008c 00000000 		.4byte	0
 5069              		.section	.debug_ranges,"",%progbits
 5070              	.Ldebug_ranges0:
 5071 0000 00000000 		.4byte	.LFB64
 5072 0004 46000000 		.4byte	.LFE64
 5073 0008 00000000 		.4byte	.LFB65
 5074 000c 1A000000 		.4byte	.LFE65
 5075 0010 00000000 		.4byte	.LFB66
 5076 0014 42000000 		.4byte	.LFE66
 5077 0018 00000000 		.4byte	.LFB67
 5078 001c 5C000000 		.4byte	.LFE67
ARM GAS  C:\Users\Mattia\AppData\Local\Temp\ccnjK3ek.s 			page 98


 5079 0020 00000000 		.4byte	.LFB68
 5080 0024 4C000000 		.4byte	.LFE68
 5081 0028 00000000 		.4byte	.LFB69
 5082 002c 1C010000 		.4byte	.LFE69
 5083 0030 00000000 		.4byte	.LFB70
 5084 0034 6C010000 		.4byte	.LFE70
 5085 0038 00000000 		.4byte	.LFB71
 5086 003c F8040000 		.4byte	.LFE71
 5087 0040 00000000 		.4byte	.LFB72
 5088 0044 4C000000 		.4byte	.LFE72
 5089 0048 00000000 		.4byte	.LFB73
 5090 004c 48000000 		.4byte	.LFE73
 5091 0050 00000000 		.4byte	.LFB74
 5092 0054 18000000 		.4byte	.LFE74
 5093 0058 00000000 		.4byte	.LFB75
 5094 005c 6C000000 		.4byte	.LFE75
 5095 0060 00000000 		.4byte	.LFB76
 5096 0064 70000000 		.4byte	.LFE76
 5097 0068 00000000 		.4byte	.LFB77
 5098 006c 3C010000 		.4byte	.LFE77
 5099 0070 00000000 		.4byte	.LFB78
 5100 0074 DC050000 		.4byte	.LFE78
 5101 0078 00000000 		.4byte	0
 5102 007c 00000000 		.4byte	0
 5103              		.section	.debug_line,"",%progbits
 5104              	.Ldebug_line0:
 5105 0000 57040000 		.section	.debug_str,"MS",%progbits,1
 5105      0200A901 
 5105      00000201 
 5105      FB0E0D00 
 5105      01010101 
 5106              	.LASF129:
 5107 0000 6D61785F 		.ascii	"max_residual_current\000"
 5107      72657369 
 5107      6475616C 
 5107      5F637572 
 5107      72656E74 
 5108              	.LASF60:
 5109 0015 7573655F 		.ascii	"use_2nd_motor_flag\000"
 5109      326E645F 
 5109      6D6F746F 
 5109      725F666C 
 5109      616700
 5110              	.LASF200:
 5111 0028 635F6D65 		.ascii	"c_mem\000"
 5111      6D00
 5112              	.LASF184:
 5113 002e 6E756D5F 		.ascii	"num_files_dir\000"
 5113      66696C65 
 5113      735F6469 
 5113      7200
 5114              	.LASF128:
 5115 003c 73745F46 		.ascii	"st_FB_spec\000"
 5115      425F7370 
 5115      656300
 5116              	.LASF141:
 5117 0047 4A4F595F 		.ascii	"JOY_spec\000"
ARM GAS  C:\Users\Mattia\AppData\Local\Temp\ccnjK3ek.s 			page 99


 5117      73706563 
 5117      00
 5118              	.LASF123:
 5119 0050 6A6F7973 		.ascii	"joystick_threshold\000"
 5119      7469636B 
 5119      5F746872 
 5119      6573686F 
 5119      6C6400
 5120              	.LASF103:
 5121 0063 73745F69 		.ascii	"st_imu\000"
 5121      6D7500
 5122              	.LASF155:
 5123 006a 6C617374 		.ascii	"lastsdParam\000"
 5123      73645061 
 5123      72616D00 
 5124              	.LASF99:
 5125 0076 656D675F 		.ascii	"emg_max_value\000"
 5125      6D61785F 
 5125      76616C75 
 5125      6500
 5126              	.LASF206:
 5127 0084 73645230 		.ascii	"sdR01File\000"
 5127      3146696C 
 5127      6500
 5128              	.LASF91:
 5129 008e 6D5F6F66 		.ascii	"m_off\000"
 5129      6600
 5130              	.LASF86:
 5131 0094 656E636F 		.ascii	"encoder_line\000"
 5131      6465725F 
 5131      6C696E65 
 5131      00
 5132              	.LASF163:
 5133 00a1 7046696C 		.ascii	"pFile_read\000"
 5133      655F7265 
 5133      616400
 5134              	.LASF172:
 5135 00ac 52656164 		.ascii	"Read_SD_Current_Data\000"
 5135      5F53445F 
 5135      43757272 
 5135      656E745F 
 5135      44617461 
 5136              	.LASF135:
 5137 00c1 77726973 		.ascii	"wrist_direction_association\000"
 5137      745F6469 
 5137      72656374 
 5137      696F6E5F 
 5137      6173736F 
 5138              	.LASF207:
 5139 00dd 474E5520 		.ascii	"GNU C11 5.4.1 20160609 (release) [ARM/embedded-5-br"
 5139      43313120 
 5139      352E342E 
 5139      31203230 
 5139      31363036 
 5140 0110 616E6368 		.ascii	"anch revision 237715] -mcpu=cortex-m3 -mthumb -g -O"
 5140      20726576 
 5140      6973696F 
ARM GAS  C:\Users\Mattia\AppData\Local\Temp\ccnjK3ek.s 			page 100


 5140      6E203233 
 5140      37373135 
 5141 0143 30202D66 		.ascii	"0 -ffunction-sections -ffat-lto-objects\000"
 5141      66756E63 
 5141      74696F6E 
 5141      2D736563 
 5141      74696F6E 
 5142              	.LASF178:
 5143 016b 70617468 		.ascii	"path\000"
 5143      00
 5144              	.LASF7:
 5145 0170 6C6F6E67 		.ascii	"long long unsigned int\000"
 5145      206C6F6E 
 5145      6720756E 
 5145      7369676E 
 5145      65642069 
 5146              	.LASF61:
 5147 0187 62617564 		.ascii	"baud_rate\000"
 5147      5F726174 
 5147      6500
 5148              	.LASF158:
 5149 0191 44617461 		.ascii	"Data_filename\000"
 5149      5F66696C 
 5149      656E616D 
 5149      6500
 5150              	.LASF118:
 5151 019f 72657374 		.ascii	"rest_delay\000"
 5151      5F64656C 
 5151      617900
 5152              	.LASF133:
 5153 01aa 61637469 		.ascii	"activation_mode\000"
 5153      76617469 
 5153      6F6E5F6D 
 5153      6F646500 
 5154              	.LASF198:
 5155 01ba 49544D5F 		.ascii	"ITM_RxBuffer\000"
 5155      52784275 
 5155      66666572 
 5155      00
 5156              	.LASF181:
 5157 01c7 6E756D5F 		.ascii	"num_found_dirs\000"
 5157      666F756E 
 5157      645F6469 
 5157      727300
 5158              	.LASF37:
 5159 01d6 43726561 		.ascii	"CreationTime\000"
 5159      74696F6E 
 5159      54696D65 
 5159      00
 5160              	.LASF160:
 5161 01e3 57726974 		.ascii	"Write_new_info\000"
 5161      655F6E65 
 5161      775F696E 
 5161      666F00
 5162              	.LASF119:
 5163 01f2 72657374 		.ascii	"rest_vel\000"
 5163      5F76656C 
ARM GAS  C:\Users\Mattia\AppData\Local\Temp\ccnjK3ek.s 			page 101


 5163      00
 5164              	.LASF98:
 5165 01fb 656D675F 		.ascii	"emg_threshold\000"
 5165      74687265 
 5165      73686F6C 
 5165      6400
 5166              	.LASF6:
 5167 0209 6C6F6E67 		.ascii	"long long int\000"
 5167      206C6F6E 
 5167      6720696E 
 5167      7400
 5168              	.LASF0:
 5169 0217 7369676E 		.ascii	"signed char\000"
 5169      65642063 
 5169      68617200 
 5170              	.LASF190:
 5171 0223 795F7061 		.ascii	"y_path\000"
 5171      746800
 5172              	.LASF16:
 5173 022a 696E7433 		.ascii	"int32\000"
 5173      3200
 5174              	.LASF34:
 5175 0230 496E5573 		.ascii	"InUse\000"
 5175      6500
 5176              	.LASF193:
 5177 0236 6E646179 		.ascii	"ndays\000"
 5177      7300
 5178              	.LASF4:
 5179 023c 6C6F6E67 		.ascii	"long int\000"
 5179      20696E74 
 5179      00
 5180              	.LASF36:
 5181 0245 41747472 		.ascii	"Attributes\000"
 5181      69627574 
 5181      657300
 5182              	.LASF171:
 5183 0250 52656D6F 		.ascii	"Remove_SD_File\000"
 5183      76655F53 
 5183      445F4669 
 5183      6C6500
 5184              	.LASF188:
 5185 025f 666F6C64 		.ascii	"folder_tree_data\000"
 5185      65725F74 
 5185      7265655F 
 5185      64617461 
 5185      00
 5186              	.LASF210:
 5187 0270 7365745F 		.ascii	"set_RTC_time\000"
 5187      5254435F 
 5187      74696D65 
 5187      00
 5188              	.LASF185:
 5189 027d 4765745F 		.ascii	"Get_SD_FS\000"
 5189      53445F46 
 5189      5300
 5190              	.LASF11:
 5191 0287 75696E74 		.ascii	"uint8\000"
ARM GAS  C:\Users\Mattia\AppData\Local\Temp\ccnjK3ek.s 			page 102


 5191      3800
 5192              	.LASF88:
 5193 028d 6E6F745F 		.ascii	"not_revers_motor_flag\000"
 5193      72657665 
 5193      72735F6D 
 5193      6F746F72 
 5193      5F666C61 
 5194              	.LASF58:
 5195 02a3 72696768 		.ascii	"right_left\000"
 5195      745F6C65 
 5195      667400
 5196              	.LASF146:
 5197 02ae 44533133 		.ascii	"DS1302_readByte\000"
 5197      30325F72 
 5197      65616442 
 5197      79746500 
 5198              	.LASF105:
 5199 02be 5350495F 		.ascii	"SPI_read_delay\000"
 5199      72656164 
 5199      5F64656C 
 5199      617900
 5200              	.LASF85:
 5201 02cd 636F6E74 		.ascii	"control_mode\000"
 5201      726F6C5F 
 5201      6D6F6465 
 5201      00
 5202              	.LASF138:
 5203 02da 756E7573 		.ascii	"unused_bytes1\000"
 5203      65645F62 
 5203      79746573 
 5203      3100
 5204              	.LASF167:
 5205 02e8 52656164 		.ascii	"Read_SD_Closed_File\000"
 5205      5F53445F 
 5205      436C6F73 
 5205      65645F46 
 5205      696C6500 
 5206              	.LASF179:
 5207 02fc 64697265 		.ascii	"directories_list\000"
 5207      63746F72 
 5207      6965735F 
 5207      6C697374 
 5207      00
 5208              	.LASF209:
 5209 030d 433A5C55 		.ascii	"C:\\Users\\Mattia\\Documents\\GitHub\\SoftHandPRO-a"
 5209      73657273 
 5209      5C4D6174 
 5209      7469615C 
 5209      446F6375 
 5210 033b 6E642D47 		.ascii	"nd-Generic-FW-PSoC5\\SoftHand_Pro.cydsn\000"
 5210      656E6572 
 5210      69632D46 
 5210      572D5053 
 5210      6F43355C 
 5211              	.LASF134:
 5212 0362 66617374 		.ascii	"fast_act_threshold\000"
 5212      5F616374 
ARM GAS  C:\Users\Mattia\AppData\Local\Temp\ccnjK3ek.s 			page 103


 5212      5F746872 
 5212      6573686F 
 5212      6C6400
 5213              	.LASF70:
 5214 0375 6B5F645F 		.ascii	"k_d_dl\000"
 5214      646C00
 5215              	.LASF13:
 5216 037c 75696E74 		.ascii	"uint32\000"
 5216      333200
 5217              	.LASF136:
 5218 0383 73745F65 		.ascii	"st_eeprom\000"
 5218      6570726F 
 5218      6D00
 5219              	.LASF21:
 5220 038d 6C6F6E67 		.ascii	"long double\000"
 5220      20646F75 
 5220      626C6500 
 5221              	.LASF28:
 5222 0399 44697245 		.ascii	"DirEntryIndex\000"
 5222      6E747279 
 5222      496E6465 
 5222      7800
 5223              	.LASF174:
 5224 03a7 70446174 		.ascii	"pData\000"
 5224      6100
 5225              	.LASF71:
 5226 03ad 6B5F705F 		.ascii	"k_p_c_dl\000"
 5226      635F646C 
 5226      00
 5227              	.LASF49:
 5228 03b6 746F7461 		.ascii	"total_runtime\000"
 5228      6C5F7275 
 5228      6E74696D 
 5228      6500
 5229              	.LASF102:
 5230 03c4 73776974 		.ascii	"switch_emg\000"
 5230      63685F65 
 5230      6D6700
 5231              	.LASF162:
 5232 03cf 70506172 		.ascii	"pParam\000"
 5232      616D00
 5233              	.LASF84:
 5234 03d6 696E7075 		.ascii	"input_mode\000"
 5234      745F6D6F 
 5234      646500
 5235              	.LASF148:
 5236 03e1 76616C75 		.ascii	"value\000"
 5236      6500
 5237              	.LASF59:
 5238 03e7 72657365 		.ascii	"reset_counters\000"
 5238      745F636F 
 5238      756E7465 
 5238      727300
 5239              	.LASF122:
 5240 03f6 6A6F7973 		.ascii	"joystick_closure_speed\000"
 5240      7469636B 
 5240      5F636C6F 
ARM GAS  C:\Users\Mattia\AppData\Local\Temp\ccnjK3ek.s 			page 104


 5240      73757265 
 5240      5F737065 
 5241              	.LASF82:
 5242 040d 63757272 		.ascii	"curr_lookup\000"
 5242      5F6C6F6F 
 5242      6B757000 
 5243              	.LASF8:
 5244 0419 756E7369 		.ascii	"unsigned int\000"
 5244      676E6564 
 5244      20696E74 
 5244      00
 5245              	.LASF95:
 5246 0426 6D6F746F 		.ascii	"motor_handle_ratio\000"
 5246      725F6861 
 5246      6E646C65 
 5246      5F726174 
 5246      696F00
 5247              	.LASF69:
 5248 0439 6B5F695F 		.ascii	"k_i_dl\000"
 5248      646C00
 5249              	.LASF5:
 5250 0440 6C6F6E67 		.ascii	"long unsigned int\000"
 5250      20756E73 
 5250      69676E65 
 5250      6420696E 
 5250      7400
 5251              	.LASF80:
 5252 0452 6D61785F 		.ascii	"max_step_neg\000"
 5252      73746570 
 5252      5F6E6567 
 5252      00
 5253              	.LASF38:
 5254 045f 4C617374 		.ascii	"LastAccessTime\000"
 5254      41636365 
 5254      73735469 
 5254      6D6500
 5255              	.LASF110:
 5256 046e 72656164 		.ascii	"read_ADC_sensors_port_flag\000"
 5256      5F414443 
 5256      5F73656E 
 5256      736F7273 
 5256      5F706F72 
 5257              	.LASF113:
 5258 0489 73745F75 		.ascii	"st_user\000"
 5258      73657200 
 5259              	.LASF26:
 5260 0491 436C7573 		.ascii	"Cluster\000"
 5260      74657200 
 5261              	.LASF115:
 5262 0499 75736572 		.ascii	"user_emg\000"
 5262      5F656D67 
 5262      00
 5263              	.LASF177:
 5264 04a2 4765745F 		.ascii	"Get_DirectoriesList\000"
 5264      44697265 
 5264      63746F72 
 5264      6965734C 
ARM GAS  C:\Users\Mattia\AppData\Local\Temp\ccnjK3ek.s 			page 105


 5264      69737400 
 5265              	.LASF29:
 5266 04b6 436C7573 		.ascii	"ClusterIndex\000"
 5266      74657249 
 5266      6E646578 
 5266      00
 5267              	.LASF3:
 5268 04c3 73686F72 		.ascii	"short unsigned int\000"
 5268      7420756E 
 5268      7369676E 
 5268      65642069 
 5268      6E7400
 5269              	.LASF151:
 5270 04d6 7274635F 		.ascii	"rtc_data\000"
 5270      64617461 
 5270      00
 5271              	.LASF170:
 5272 04df 44533133 		.ascii	"DS1302_read\000"
 5272      30325F72 
 5272      65616400 
 5273              	.LASF183:
 5274 04eb 63757272 		.ascii	"curr_path\000"
 5274      5F706174 
 5274      6800
 5275              	.LASF14:
 5276 04f5 696E7438 		.ascii	"int8\000"
 5276      00
 5277              	.LASF76:
 5278 04fa 6D6F746F 		.ascii	"motor_driver_type\000"
 5278      725F6472 
 5278      69766572 
 5278      5F747970 
 5278      6500
 5279              	.LASF78:
 5280 050c 706F735F 		.ascii	"pos_lim_inf\000"
 5280      6C696D5F 
 5280      696E6600 
 5281              	.LASF53:
 5282 0518 756E7573 		.ascii	"unused_bytes\000"
 5282      65645F62 
 5282      79746573 
 5282      00
 5283              	.LASF126:
 5284 0525 736C6176 		.ascii	"slave_comm_active\000"
 5284      655F636F 
 5284      6D6D5F61 
 5284      63746976 
 5284      6500
 5285              	.LASF168:
 5286 0537 7372635F 		.ascii	"src_file\000"
 5286      66696C65 
 5286      00
 5287              	.LASF131:
 5288 0540 70726F70 		.ascii	"prop_err_fb_gain\000"
 5288      5F657272 
 5288      5F66625F 
 5288      6761696E 
ARM GAS  C:\Users\Mattia\AppData\Local\Temp\ccnjK3ek.s 			page 106


 5288      00
 5289              	.LASF45:
 5290 0551 706F7369 		.ascii	"position_hist\000"
 5290      74696F6E 
 5290      5F686973 
 5290      7400
 5291              	.LASF30:
 5292 055f 46535F44 		.ascii	"FS_DIR_POS\000"
 5292      49525F50 
 5292      4F5300
 5293              	.LASF9:
 5294 056a 5F5F696E 		.ascii	"__int32_t\000"
 5294      7433325F 
 5294      7400
 5295              	.LASF23:
 5296 0574 46535F44 		.ascii	"FS_DIR\000"
 5296      495200
 5297              	.LASF145:
 5298 057b 44533133 		.ascii	"DS1302_writeByte\000"
 5298      30325F77 
 5298      72697465 
 5298      42797465 
 5298      00
 5299              	.LASF56:
 5300 058c 68775F6D 		.ascii	"hw_maint_date\000"
 5300      61696E74 
 5300      5F646174 
 5300      6500
 5301              	.LASF43:
 5302 059a 46535F46 		.ascii	"FS_FIND_DATA\000"
 5302      494E445F 
 5302      44415441 
 5302      00
 5303              	.LASF51:
 5304 05a7 706F7765 		.ascii	"power_cycles\000"
 5304      725F6379 
 5304      636C6573 
 5304      00
 5305              	.LASF106:
 5306 05b4 494D555F 		.ascii	"IMU_conf\000"
 5306      636F6E66 
 5306      00
 5307              	.LASF114:
 5308 05bd 75736572 		.ascii	"user_code_string\000"
 5308      5F636F64 
 5308      655F7374 
 5308      72696E67 
 5308      00
 5309              	.LASF17:
 5310 05ce 666C6F61 		.ascii	"float32\000"
 5310      74333200 
 5311              	.LASF22:
 5312 05d6 73697A65 		.ascii	"sizetype\000"
 5312      74797065 
 5312      00
 5313              	.LASF153:
 5314 05df 496E6974 		.ascii	"InitSD_FS\000"
ARM GAS  C:\Users\Mattia\AppData\Local\Temp\ccnjK3ek.s 			page 107


 5314      53445F46 
 5314      5300
 5315              	.LASF130:
 5316 05e9 6D617869 		.ascii	"maximum_pressure_kPa\000"
 5316      6D756D5F 
 5316      70726573 
 5316      73757265 
 5316      5F6B5061 
 5317              	.LASF196:
 5318 05fe 665F7061 		.ascii	"f_path\000"
 5318      746800
 5319              	.LASF55:
 5320 0605 73745F64 		.ascii	"st_device\000"
 5320      65766963 
 5320      6500
 5321              	.LASF121:
 5322 060f 73745F4A 		.ascii	"st_JOY_spec\000"
 5322      4F595F73 
 5322      70656300 
 5323              	.LASF142:
 5324 061b 61646472 		.ascii	"address\000"
 5324      65737300 
 5325              	.LASF199:
 5326 0623 675F6D65 		.ascii	"g_mem\000"
 5326      6D00
 5327              	.LASF40:
 5328 0629 46696C65 		.ascii	"FileSize\000"
 5328      53697A65 
 5328      00
 5329              	.LASF65:
 5330 0632 6B5F705F 		.ascii	"k_p_c\000"
 5330      6300
 5331              	.LASF189:
 5332 0638 6E5F6964 		.ascii	"n_idx\000"
 5332      7800
 5333              	.LASF132:
 5334 063e 73745F57 		.ascii	"st_WR_spec\000"
 5334      525F7370 
 5334      656300
 5335              	.LASF31:
 5336 0649 44697250 		.ascii	"DirPos\000"
 5336      6F7300
 5337              	.LASF117:
 5338 0650 72657374 		.ascii	"rest_pos\000"
 5338      5F706F73 
 5338      00
 5339              	.LASF79:
 5340 0659 706F735F 		.ascii	"pos_lim_sup\000"
 5340      6C696D5F 
 5340      73757000 
 5341              	.LASF201:
 5342 0665 7046696C 		.ascii	"pFile\000"
 5342      6500
 5343              	.LASF202:
 5344 066b 73644669 		.ascii	"sdFile\000"
 5344      6C6500
 5345              	.LASF161:
ARM GAS  C:\Users\Mattia\AppData\Local\Temp\ccnjK3ek.s 			page 108


 5346 0672 6E756D5F 		.ascii	"num_files\000"
 5346      66696C65 
 5346      7300
 5347              	.LASF173:
 5348 067c 696E666F 		.ascii	"info_data\000"
 5348      5F646174 
 5348      6100
 5349              	.LASF46:
 5350 0686 63757272 		.ascii	"current_hist\000"
 5350      656E745F 
 5350      68697374 
 5350      00
 5351              	.LASF108:
 5352 0693 63757272 		.ascii	"curr_time\000"
 5352      5F74696D 
 5352      6500
 5353              	.LASF186:
 5354 069d 6E756D5F 		.ascii	"num_found_users\000"
 5354      666F756E 
 5354      645F7573 
 5354      65727300 
 5355              	.LASF52:
 5356 06ad 65786365 		.ascii	"excessive_signal_activity\000"
 5356      73736976 
 5356      655F7369 
 5356      676E616C 
 5356      5F616374 
 5357              	.LASF74:
 5358 06c7 61637469 		.ascii	"activ\000"
 5358      7600
 5359              	.LASF100:
 5360 06cd 656D675F 		.ascii	"emg_speed\000"
 5360      73706565 
 5360      6400
 5361              	.LASF139:
 5362 06d7 6D6F746F 		.ascii	"motor\000"
 5362      7200
 5363              	.LASF33:
 5364 06dd 6572726F 		.ascii	"error\000"
 5364      7200
 5365              	.LASF157:
 5366 06e3 696E666F 		.ascii	"info_read_\000"
 5366      5F726561 
 5366      645F00
 5367              	.LASF94:
 5368 06ee 456E635F 		.ascii	"Enc_idx_use_for_control\000"
 5368      6964785F 
 5368      7573655F 
 5368      666F725F 
 5368      636F6E74 
 5369              	.LASF152:
 5370 0706 73746F72 		.ascii	"store_RTC_current_time\000"
 5370      655F5254 
 5370      435F6375 
 5370      7272656E 
 5370      745F7469 
 5371              	.LASF149:
ARM GAS  C:\Users\Mattia\AppData\Local\Temp\ccnjK3ek.s 			page 109


 5372 071d 63757272 		.ascii	"currentBit\000"
 5372      656E7442 
 5372      697400
 5373              	.LASF140:
 5374 0728 75736572 		.ascii	"user\000"
 5374      00
 5375              	.LASF143:
 5376 072d 64617461 		.ascii	"data_wr\000"
 5376      5F777200 
 5377              	.LASF197:
 5378 0735 6E66696C 		.ascii	"nfiles\000"
 5378      657300
 5379              	.LASF10:
 5380 073c 696E7433 		.ascii	"int32_t\000"
 5380      325F7400 
 5381              	.LASF1:
 5382 0744 756E7369 		.ascii	"unsigned char\000"
 5382      676E6564 
 5382      20636861 
 5382      7200
 5383              	.LASF12:
 5384 0752 75696E74 		.ascii	"uint16\000"
 5384      313600
 5385              	.LASF203:
 5386 0759 73645061 		.ascii	"sdParam\000"
 5386      72616D00 
 5387              	.LASF92:
 5388 0761 6D5F6D75 		.ascii	"m_mult\000"
 5388      6C7400
 5389              	.LASF96:
 5390 0768 67656172 		.ascii	"gears_params\000"
 5390      735F7061 
 5390      72616D73 
 5390      00
 5391              	.LASF111:
 5392 0775 4144435F 		.ascii	"ADC_conf\000"
 5392      636F6E66 
 5392      00
 5393              	.LASF2:
 5394 077e 73686F72 		.ascii	"short int\000"
 5394      7420696E 
 5394      7400
 5395              	.LASF89:
 5396 0788 73745F65 		.ascii	"st_encoder\000"
 5396      6E636F64 
 5396      657200
 5397              	.LASF144:
 5398 0793 44533133 		.ascii	"DS1302_write\000"
 5398      30325F77 
 5398      72697465 
 5398      00
 5399              	.LASF137:
 5400 07a0 666C6167 		.ascii	"flag\000"
 5400      00
 5401              	.LASF156:
 5402 07a5 696E666F 		.ascii	"info_\000"
 5402      5F00
ARM GAS  C:\Users\Mattia\AppData\Local\Temp\ccnjK3ek.s 			page 110


 5403              	.LASF127:
 5404 07ab 736C6176 		.ascii	"slave_ID\000"
 5404      655F4944 
 5404      00
 5405              	.LASF83:
 5406 07b4 63757272 		.ascii	"current_limit\000"
 5406      656E745F 
 5406      6C696D69 
 5406      7400
 5407              	.LASF54:
 5408 07c2 73745F63 		.ascii	"st_counters\000"
 5408      6F756E74 
 5408      65727300 
 5409              	.LASF125:
 5410 07ce 73745F4D 		.ascii	"st_MASTER_spec\000"
 5410      41535445 
 5410      525F7370 
 5410      656300
 5411              	.LASF191:
 5412 07dd 6E796561 		.ascii	"nyears\000"
 5412      727300
 5413              	.LASF192:
 5414 07e4 6E6D6F6E 		.ascii	"nmonths\000"
 5414      74687300 
 5415              	.LASF147:
 5416 07ec 72656164 		.ascii	"readValue\000"
 5416      56616C75 
 5416      6500
 5417              	.LASF165:
 5418 07f6 70523031 		.ascii	"pR01File\000"
 5418      46696C65 
 5418      00
 5419              	.LASF77:
 5420 07ff 706F735F 		.ascii	"pos_lim_flag\000"
 5420      6C696D5F 
 5420      666C6167 
 5420      00
 5421              	.LASF97:
 5422 080c 73745F65 		.ascii	"st_emg\000"
 5422      6D6700
 5423              	.LASF81:
 5424 0813 6D61785F 		.ascii	"max_step_pos\000"
 5424      73746570 
 5424      5F706F73 
 5424      00
 5425              	.LASF50:
 5426 0820 746F7461 		.ascii	"total_time_rest\000"
 5426      6C5F7469 
 5426      6D655F72 
 5426      65737400 
 5427              	.LASF27:
 5428 0830 46697273 		.ascii	"FirstCluster\000"
 5428      74436C75 
 5428      73746572 
 5428      00
 5429              	.LASF47:
 5430 083d 72657374 		.ascii	"rest_counter\000"
ARM GAS  C:\Users\Mattia\AppData\Local\Temp\ccnjK3ek.s 			page 111


 5430      5F636F75 
 5430      6E746572 
 5430      00
 5431              	.LASF35:
 5432 084a 46535F5F 		.ascii	"FS__DIR\000"
 5432      44495200 
 5433              	.LASF18:
 5434 0852 666C6F61 		.ascii	"float\000"
 5434      7400
 5435              	.LASF75:
 5436 0858 61637469 		.ascii	"activate_pwm_rescaling\000"
 5436      76617465 
 5436      5F70776D 
 5436      5F726573 
 5436      63616C69 
 5437              	.LASF150:
 5438 086f 73686966 		.ascii	"shiftOut_RTC\000"
 5438      744F7574 
 5438      5F525443 
 5438      00
 5439              	.LASF20:
 5440 087c 63686172 		.ascii	"char\000"
 5440      00
 5441              	.LASF120:
 5442 0881 72657374 		.ascii	"rest_position_flag\000"
 5442      5F706F73 
 5442      6974696F 
 5442      6E5F666C 
 5442      616700
 5443              	.LASF154:
 5444 0894 73644469 		.ascii	"sdDir\000"
 5444      7200
 5445              	.LASF48:
 5446 089a 77697265 		.ascii	"wire_disp\000"
 5446      5F646973 
 5446      7000
 5447              	.LASF39:
 5448 08a4 4C617374 		.ascii	"LastWriteTime\000"
 5448      57726974 
 5448      6554696D 
 5448      6500
 5449              	.LASF42:
 5450 08b2 53697A65 		.ascii	"SizeofFileName\000"
 5450      6F664669 
 5450      6C654E61 
 5450      6D6500
 5451              	.LASF107:
 5452 08c1 73745F65 		.ascii	"st_expansion\000"
 5452      7870616E 
 5452      73696F6E 
 5452      00
 5453              	.LASF205:
 5454 08ce 7364454D 		.ascii	"sdEMGHFile\000"
 5454      47484669 
 5454      6C6500
 5455              	.LASF25:
 5456 08d9 46535F56 		.ascii	"FS_VOLUME\000"
ARM GAS  C:\Users\Mattia\AppData\Local\Temp\ccnjK3ek.s 			page 112


 5456      4F4C554D 
 5456      4500
 5457              	.LASF112:
 5458 08e3 7265636F 		.ascii	"record_EMG_history_on_SD\000"
 5458      72645F45 
 5458      4D475F68 
 5458      6973746F 
 5458      72795F6F 
 5459              	.LASF41:
 5460 08fc 7346696C 		.ascii	"sFileName\000"
 5460      654E616D 
 5460      6500
 5461              	.LASF63:
 5462 0906 6465765F 		.ascii	"dev_type\000"
 5462      74797065 
 5462      00
 5463              	.LASF72:
 5464 090f 6B5F695F 		.ascii	"k_i_c_dl\000"
 5464      635F646C 
 5464      00
 5465              	.LASF62:
 5466 0918 75736572 		.ascii	"user_id\000"
 5466      5F696400 
 5467              	.LASF90:
 5468 0920 456E635F 		.ascii	"Enc_raw_read_conf\000"
 5468      7261775F 
 5468      72656164 
 5468      5F636F6E 
 5468      6600
 5469              	.LASF64:
 5470 0932 73745F6D 		.ascii	"st_motor\000"
 5470      6F746F72 
 5470      00
 5471              	.LASF124:
 5472 093b 6A6F7973 		.ascii	"joystick_gains\000"
 5472      7469636B 
 5472      5F676169 
 5472      6E7300
 5473              	.LASF180:
 5474 094a 66697273 		.ascii	"first_idx\000"
 5474      745F6964 
 5474      7800
 5475              	.LASF101:
 5476 0954 656D675F 		.ascii	"emg_calibration_flag\000"
 5476      63616C69 
 5476      62726174 
 5476      696F6E5F 
 5476      666C6167 
 5477              	.LASF175:
 5478 0969 52656164 		.ascii	"Read_SD_EMG_History_Data\000"
 5478      5F53445F 
 5478      454D475F 
 5478      48697374 
 5478      6F72795F 
 5479              	.LASF67:
 5480 0982 6B5F645F 		.ascii	"k_d_c\000"
 5480      6300
ARM GAS  C:\Users\Mattia\AppData\Local\Temp\ccnjK3ek.s 			page 113


 5481              	.LASF169:
 5482 0988 696E666F 		.ascii	"info_file\000"
 5482      5F66696C 
 5482      6500
 5483              	.LASF24:
 5484 0992 46535F46 		.ascii	"FS_FILE\000"
 5484      494C4500 
 5485              	.LASF104:
 5486 099a 72656164 		.ascii	"read_imu_flag\000"
 5486      5F696D75 
 5486      5F666C61 
 5486      6700
 5487              	.LASF176:
 5488 09a8 69446174 		.ascii	"iData\000"
 5488      6100
 5489              	.LASF208:
 5490 09ae 2E2E5C73 		.ascii	"..\\src\\SD_RTC_functions.c\000"
 5490      72635C53 
 5490      445F5254 
 5490      435F6675 
 5490      6E637469 
 5491              	.LASF204:
 5492 09c8 70454D47 		.ascii	"pEMGHFile\000"
 5492      4846696C 
 5492      6500
 5493              	.LASF164:
 5494 09d2 70446972 		.ascii	"pDir\000"
 5494      00
 5495              	.LASF182:
 5496 09d7 61634469 		.ascii	"acDirname\000"
 5496      726E616D 
 5496      6500
 5497              	.LASF159:
 5498 09e1 50617261 		.ascii	"Param_filename\000"
 5498      6D5F6669 
 5498      6C656E61 
 5498      6D6500
 5499              	.LASF73:
 5500 09f0 6B5F645F 		.ascii	"k_d_c_dl\000"
 5500      635F646C 
 5500      00
 5501              	.LASF44:
 5502 09f9 656D675F 		.ascii	"emg_act_counter\000"
 5502      6163745F 
 5502      636F756E 
 5502      74657200 
 5503              	.LASF15:
 5504 0a09 696E7431 		.ascii	"int16\000"
 5504      3600
 5505              	.LASF109:
 5506 0a0f 72656164 		.ascii	"read_exp_port_flag\000"
 5506      5F657870 
 5506      5F706F72 
 5506      745F666C 
 5506      616700
 5507              	.LASF116:
 5508 0a22 73745F53 		.ascii	"st_SH_spec\000"
ARM GAS  C:\Users\Mattia\AppData\Local\Temp\ccnjK3ek.s 			page 114


 5508      485F7370 
 5508      656300
 5509              	.LASF166:
 5510 0a2d 57726974 		.ascii	"Write_SD_Param_file\000"
 5510      655F5344 
 5510      5F506172 
 5510      616D5F66 
 5510      696C6500 
 5511              	.LASF93:
 5512 0a41 646F7562 		.ascii	"double_encoder_on_off\000"
 5512      6C655F65 
 5512      6E636F64 
 5512      65725F6F 
 5512      6E5F6F66 
 5513              	.LASF66:
 5514 0a57 6B5F695F 		.ascii	"k_i_c\000"
 5514      6300
 5515              	.LASF187:
 5516 0a5d 666F756E 		.ascii	"found_users\000"
 5516      645F7573 
 5516      65727300 
 5517              	.LASF195:
 5518 0a69 645F7061 		.ascii	"d_path\000"
 5518      746800
 5519              	.LASF32:
 5520 0a70 70566F6C 		.ascii	"pVolume\000"
 5520      756D6500 
 5521              	.LASF194:
 5522 0a78 6D5F7061 		.ascii	"m_path\000"
 5522      746800
 5523              	.LASF57:
 5524 0a7f 73746174 		.ascii	"stats_period_begin_date\000"
 5524      735F7065 
 5524      72696F64 
 5524      5F626567 
 5524      696E5F64 
 5525              	.LASF19:
 5526 0a97 646F7562 		.ascii	"double\000"
 5526      6C6500
 5527              	.LASF68:
 5528 0a9e 6B5F705F 		.ascii	"k_p_dl\000"
 5528      646C00
 5529              	.LASF87:
 5530 0aa5 70776D5F 		.ascii	"pwm_rate_limiter\000"
 5530      72617465 
 5530      5F6C696D 
 5530      69746572 
 5530      00
 5531              		.ident	"GCC: (GNU Tools for ARM Embedded Processors) 5.4.1 20160609 (release) [ARM/embedded-5-bran
