ARM GAS  C:\Users\Mattia\AppData\Local\Temp\ccYxBDtg.s 			page 1


   1              		.syntax unified
   2              		.cpu cortex-m3
   3              		.fpu softvfp
   4              		.eabi_attribute 20, 1
   5              		.eabi_attribute 21, 1
   6              		.eabi_attribute 23, 3
   7              		.eabi_attribute 24, 1
   8              		.eabi_attribute 25, 1
   9              		.eabi_attribute 26, 1
  10              		.eabi_attribute 30, 6
  11              		.eabi_attribute 34, 1
  12              		.eabi_attribute 18, 4
  13              		.thumb
  14              		.syntax unified
  15              		.file	"SHIFTREG_ENC_2.c"
  16              		.text
  17              	.Ltext0:
  18              		.cfi_sections	.debug_frame
  19              		.global	SHIFTREG_ENC_2_initVar
  20              		.bss
  21              		.type	SHIFTREG_ENC_2_initVar, %object
  22              		.size	SHIFTREG_ENC_2_initVar, 1
  23              	SHIFTREG_ENC_2_initVar:
  24 0000 00       		.space	1
  25              		.section	.text.SHIFTREG_ENC_2_Start,"ax",%progbits
  26              		.align	2
  27              		.global	SHIFTREG_ENC_2_Start
  28              		.thumb
  29              		.thumb_func
  30              		.type	SHIFTREG_ENC_2_Start, %function
  31              	SHIFTREG_ENC_2_Start:
  32              	.LFB0:
  33              		.file 1 "Generated_Source\\PSoC5\\SHIFTREG_ENC_2.c"
   1:Generated_Source\PSoC5/SHIFTREG_ENC_2.c **** /*******************************************************************************
   2:Generated_Source\PSoC5/SHIFTREG_ENC_2.c **** * File Name: SHIFTREG_ENC_2.c
   3:Generated_Source\PSoC5/SHIFTREG_ENC_2.c **** * Version 2.30
   4:Generated_Source\PSoC5/SHIFTREG_ENC_2.c **** *
   5:Generated_Source\PSoC5/SHIFTREG_ENC_2.c **** * Description:
   6:Generated_Source\PSoC5/SHIFTREG_ENC_2.c **** *  This file provides the API source code for the Shift Register component.
   7:Generated_Source\PSoC5/SHIFTREG_ENC_2.c **** *
   8:Generated_Source\PSoC5/SHIFTREG_ENC_2.c **** * Note: none
   9:Generated_Source\PSoC5/SHIFTREG_ENC_2.c **** *
  10:Generated_Source\PSoC5/SHIFTREG_ENC_2.c **** ********************************************************************************
  11:Generated_Source\PSoC5/SHIFTREG_ENC_2.c **** * Copyright 2008-2013, Cypress Semiconductor Corporation.  All rights reserved.
  12:Generated_Source\PSoC5/SHIFTREG_ENC_2.c **** * You may use this file only in accordance with the license, terms, conditions,
  13:Generated_Source\PSoC5/SHIFTREG_ENC_2.c **** * disclaimers, and limitations in the end user license agreement accompanying
  14:Generated_Source\PSoC5/SHIFTREG_ENC_2.c **** * the software package with which this file was provided.
  15:Generated_Source\PSoC5/SHIFTREG_ENC_2.c **** ********************************************************************************/
  16:Generated_Source\PSoC5/SHIFTREG_ENC_2.c **** 
  17:Generated_Source\PSoC5/SHIFTREG_ENC_2.c **** #include "SHIFTREG_ENC_2.h"
  18:Generated_Source\PSoC5/SHIFTREG_ENC_2.c **** 
  19:Generated_Source\PSoC5/SHIFTREG_ENC_2.c **** uint8 SHIFTREG_ENC_2_initVar = 0u;
  20:Generated_Source\PSoC5/SHIFTREG_ENC_2.c **** 
  21:Generated_Source\PSoC5/SHIFTREG_ENC_2.c **** 
  22:Generated_Source\PSoC5/SHIFTREG_ENC_2.c **** /*******************************************************************************
  23:Generated_Source\PSoC5/SHIFTREG_ENC_2.c **** * Function Name: SHIFTREG_ENC_2_Start
  24:Generated_Source\PSoC5/SHIFTREG_ENC_2.c **** ********************************************************************************
ARM GAS  C:\Users\Mattia\AppData\Local\Temp\ccYxBDtg.s 			page 2


  25:Generated_Source\PSoC5/SHIFTREG_ENC_2.c **** *
  26:Generated_Source\PSoC5/SHIFTREG_ENC_2.c **** * Summary:
  27:Generated_Source\PSoC5/SHIFTREG_ENC_2.c **** *  Starts the Shift Register.
  28:Generated_Source\PSoC5/SHIFTREG_ENC_2.c **** *
  29:Generated_Source\PSoC5/SHIFTREG_ENC_2.c **** * Parameters:
  30:Generated_Source\PSoC5/SHIFTREG_ENC_2.c **** *  None.
  31:Generated_Source\PSoC5/SHIFTREG_ENC_2.c **** *
  32:Generated_Source\PSoC5/SHIFTREG_ENC_2.c **** * Return:
  33:Generated_Source\PSoC5/SHIFTREG_ENC_2.c **** *  None.
  34:Generated_Source\PSoC5/SHIFTREG_ENC_2.c **** *
  35:Generated_Source\PSoC5/SHIFTREG_ENC_2.c **** * Global Variables:
  36:Generated_Source\PSoC5/SHIFTREG_ENC_2.c **** *  SHIFTREG_ENC_2_initVar - used to check initial configuration, modified on
  37:Generated_Source\PSoC5/SHIFTREG_ENC_2.c **** *  first function call.
  38:Generated_Source\PSoC5/SHIFTREG_ENC_2.c **** *
  39:Generated_Source\PSoC5/SHIFTREG_ENC_2.c **** * Reentrant:
  40:Generated_Source\PSoC5/SHIFTREG_ENC_2.c **** *  No.
  41:Generated_Source\PSoC5/SHIFTREG_ENC_2.c **** *
  42:Generated_Source\PSoC5/SHIFTREG_ENC_2.c **** *******************************************************************************/
  43:Generated_Source\PSoC5/SHIFTREG_ENC_2.c **** void SHIFTREG_ENC_2_Start(void) 
  44:Generated_Source\PSoC5/SHIFTREG_ENC_2.c **** {
  34              		.loc 1 44 0
  35              		.cfi_startproc
  36              		@ args = 0, pretend = 0, frame = 0
  37              		@ frame_needed = 1, uses_anonymous_args = 0
  38 0000 80B5     		push	{r7, lr}
  39              		.cfi_def_cfa_offset 8
  40              		.cfi_offset 7, -8
  41              		.cfi_offset 14, -4
  42 0002 00AF     		add	r7, sp, #0
  43              		.cfi_def_cfa_register 7
  45:Generated_Source\PSoC5/SHIFTREG_ENC_2.c ****     if(0u == SHIFTREG_ENC_2_initVar)
  44              		.loc 1 45 0
  45 0004 064B     		ldr	r3, .L3
  46 0006 1B78     		ldrb	r3, [r3]	@ zero_extendqisi2
  47 0008 002B     		cmp	r3, #0
  48 000a 04D1     		bne	.L2
  46:Generated_Source\PSoC5/SHIFTREG_ENC_2.c ****     {
  47:Generated_Source\PSoC5/SHIFTREG_ENC_2.c ****         SHIFTREG_ENC_2_Init();
  49              		.loc 1 47 0
  50 000c FFF7FEFF 		bl	SHIFTREG_ENC_2_Init
  48:Generated_Source\PSoC5/SHIFTREG_ENC_2.c ****         SHIFTREG_ENC_2_initVar = 1u; /* Component initialized */
  51              		.loc 1 48 0
  52 0010 034B     		ldr	r3, .L3
  53 0012 0122     		movs	r2, #1
  54 0014 1A70     		strb	r2, [r3]
  55              	.L2:
  49:Generated_Source\PSoC5/SHIFTREG_ENC_2.c ****     }
  50:Generated_Source\PSoC5/SHIFTREG_ENC_2.c **** 
  51:Generated_Source\PSoC5/SHIFTREG_ENC_2.c ****     SHIFTREG_ENC_2_Enable();
  56              		.loc 1 51 0
  57 0016 FFF7FEFF 		bl	SHIFTREG_ENC_2_Enable
  52:Generated_Source\PSoC5/SHIFTREG_ENC_2.c **** }
  58              		.loc 1 52 0
  59 001a 00BF     		nop
  60 001c 80BD     		pop	{r7, pc}
  61              	.L4:
  62 001e 00BF     		.align	2
ARM GAS  C:\Users\Mattia\AppData\Local\Temp\ccYxBDtg.s 			page 3


  63              	.L3:
  64 0020 00000000 		.word	SHIFTREG_ENC_2_initVar
  65              		.cfi_endproc
  66              	.LFE0:
  67              		.size	SHIFTREG_ENC_2_Start, .-SHIFTREG_ENC_2_Start
  68              		.section	.text.SHIFTREG_ENC_2_Enable,"ax",%progbits
  69              		.align	2
  70              		.global	SHIFTREG_ENC_2_Enable
  71              		.thumb
  72              		.thumb_func
  73              		.type	SHIFTREG_ENC_2_Enable, %function
  74              	SHIFTREG_ENC_2_Enable:
  75              	.LFB1:
  53:Generated_Source\PSoC5/SHIFTREG_ENC_2.c **** 
  54:Generated_Source\PSoC5/SHIFTREG_ENC_2.c **** 
  55:Generated_Source\PSoC5/SHIFTREG_ENC_2.c **** /*******************************************************************************
  56:Generated_Source\PSoC5/SHIFTREG_ENC_2.c **** * Function Name: SHIFTREG_ENC_2_Enable
  57:Generated_Source\PSoC5/SHIFTREG_ENC_2.c **** ********************************************************************************
  58:Generated_Source\PSoC5/SHIFTREG_ENC_2.c **** *
  59:Generated_Source\PSoC5/SHIFTREG_ENC_2.c **** * Summary:
  60:Generated_Source\PSoC5/SHIFTREG_ENC_2.c **** *  Enables the Shift Register.
  61:Generated_Source\PSoC5/SHIFTREG_ENC_2.c **** *
  62:Generated_Source\PSoC5/SHIFTREG_ENC_2.c **** * Parameters:
  63:Generated_Source\PSoC5/SHIFTREG_ENC_2.c **** *  void.
  64:Generated_Source\PSoC5/SHIFTREG_ENC_2.c **** *
  65:Generated_Source\PSoC5/SHIFTREG_ENC_2.c **** * Return:
  66:Generated_Source\PSoC5/SHIFTREG_ENC_2.c **** *  void.
  67:Generated_Source\PSoC5/SHIFTREG_ENC_2.c **** *
  68:Generated_Source\PSoC5/SHIFTREG_ENC_2.c **** *******************************************************************************/
  69:Generated_Source\PSoC5/SHIFTREG_ENC_2.c **** void SHIFTREG_ENC_2_Enable(void) 
  70:Generated_Source\PSoC5/SHIFTREG_ENC_2.c **** {
  76              		.loc 1 70 0
  77              		.cfi_startproc
  78              		@ args = 0, pretend = 0, frame = 0
  79              		@ frame_needed = 1, uses_anonymous_args = 0
  80 0000 80B5     		push	{r7, lr}
  81              		.cfi_def_cfa_offset 8
  82              		.cfi_offset 7, -8
  83              		.cfi_offset 14, -4
  84 0002 00AF     		add	r7, sp, #0
  85              		.cfi_def_cfa_register 7
  71:Generated_Source\PSoC5/SHIFTREG_ENC_2.c ****     /* Changing address in Datapath Control Store
  72:Generated_Source\PSoC5/SHIFTREG_ENC_2.c ****        from NOP to component state machine commands space */
  73:Generated_Source\PSoC5/SHIFTREG_ENC_2.c ****     SHIFTREG_ENC_2_SR_CONTROL |= SHIFTREG_ENC_2_CLK_EN;
  86              		.loc 1 73 0
  87 0004 054A     		ldr	r2, .L6
  88 0006 054B     		ldr	r3, .L6
  89 0008 1B78     		ldrb	r3, [r3]
  90 000a DBB2     		uxtb	r3, r3
  91 000c 43F00103 		orr	r3, r3, #1
  92 0010 DBB2     		uxtb	r3, r3
  93 0012 1370     		strb	r3, [r2]
  74:Generated_Source\PSoC5/SHIFTREG_ENC_2.c **** 
  75:Generated_Source\PSoC5/SHIFTREG_ENC_2.c ****     SHIFTREG_ENC_2_EnableInt();
  94              		.loc 1 75 0
  95 0014 FFF7FEFF 		bl	SHIFTREG_ENC_2_EnableInt
  76:Generated_Source\PSoC5/SHIFTREG_ENC_2.c **** }
ARM GAS  C:\Users\Mattia\AppData\Local\Temp\ccYxBDtg.s 			page 4


  96              		.loc 1 76 0
  97 0018 00BF     		nop
  98 001a 80BD     		pop	{r7, pc}
  99              	.L7:
 100              		.align	2
 101              	.L6:
 102 001c 7F640040 		.word	1073767551
 103              		.cfi_endproc
 104              	.LFE1:
 105              		.size	SHIFTREG_ENC_2_Enable, .-SHIFTREG_ENC_2_Enable
 106              		.section	.text.SHIFTREG_ENC_2_Init,"ax",%progbits
 107              		.align	2
 108              		.global	SHIFTREG_ENC_2_Init
 109              		.thumb
 110              		.thumb_func
 111              		.type	SHIFTREG_ENC_2_Init, %function
 112              	SHIFTREG_ENC_2_Init:
 113              	.LFB2:
  77:Generated_Source\PSoC5/SHIFTREG_ENC_2.c **** 
  78:Generated_Source\PSoC5/SHIFTREG_ENC_2.c **** 
  79:Generated_Source\PSoC5/SHIFTREG_ENC_2.c **** /*******************************************************************************
  80:Generated_Source\PSoC5/SHIFTREG_ENC_2.c **** * Function Name: SHIFTREG_ENC_2_Init
  81:Generated_Source\PSoC5/SHIFTREG_ENC_2.c **** ********************************************************************************
  82:Generated_Source\PSoC5/SHIFTREG_ENC_2.c **** *
  83:Generated_Source\PSoC5/SHIFTREG_ENC_2.c **** * Summary:
  84:Generated_Source\PSoC5/SHIFTREG_ENC_2.c **** *  Initializes Tx and/or Rx interrupt sources with initial values.
  85:Generated_Source\PSoC5/SHIFTREG_ENC_2.c **** *
  86:Generated_Source\PSoC5/SHIFTREG_ENC_2.c **** * Parameters:
  87:Generated_Source\PSoC5/SHIFTREG_ENC_2.c **** *  void.
  88:Generated_Source\PSoC5/SHIFTREG_ENC_2.c **** *
  89:Generated_Source\PSoC5/SHIFTREG_ENC_2.c **** * Return:
  90:Generated_Source\PSoC5/SHIFTREG_ENC_2.c **** *  void.
  91:Generated_Source\PSoC5/SHIFTREG_ENC_2.c **** *
  92:Generated_Source\PSoC5/SHIFTREG_ENC_2.c **** *******************************************************************************/
  93:Generated_Source\PSoC5/SHIFTREG_ENC_2.c **** void SHIFTREG_ENC_2_Init(void) 
  94:Generated_Source\PSoC5/SHIFTREG_ENC_2.c **** {
 114              		.loc 1 94 0
 115              		.cfi_startproc
 116              		@ args = 0, pretend = 0, frame = 0
 117              		@ frame_needed = 1, uses_anonymous_args = 0
 118 0000 80B5     		push	{r7, lr}
 119              		.cfi_def_cfa_offset 8
 120              		.cfi_offset 7, -8
 121              		.cfi_offset 14, -4
 122 0002 00AF     		add	r7, sp, #0
 123              		.cfi_def_cfa_register 7
  95:Generated_Source\PSoC5/SHIFTREG_ENC_2.c ****     SHIFTREG_ENC_2_SetIntMode(SHIFTREG_ENC_2_INT_SRC);
 124              		.loc 1 95 0
 125 0004 0220     		movs	r0, #2
 126 0006 FFF7FEFF 		bl	SHIFTREG_ENC_2_SetIntMode
  96:Generated_Source\PSoC5/SHIFTREG_ENC_2.c **** }
 127              		.loc 1 96 0
 128 000a 00BF     		nop
 129 000c 80BD     		pop	{r7, pc}
 130              		.cfi_endproc
 131              	.LFE2:
 132              		.size	SHIFTREG_ENC_2_Init, .-SHIFTREG_ENC_2_Init
ARM GAS  C:\Users\Mattia\AppData\Local\Temp\ccYxBDtg.s 			page 5


 133 000e 00BF     		.section	.text.SHIFTREG_ENC_2_Stop,"ax",%progbits
 134              		.align	2
 135              		.global	SHIFTREG_ENC_2_Stop
 136              		.thumb
 137              		.thumb_func
 138              		.type	SHIFTREG_ENC_2_Stop, %function
 139              	SHIFTREG_ENC_2_Stop:
 140              	.LFB3:
  97:Generated_Source\PSoC5/SHIFTREG_ENC_2.c **** 
  98:Generated_Source\PSoC5/SHIFTREG_ENC_2.c **** 
  99:Generated_Source\PSoC5/SHIFTREG_ENC_2.c **** /*******************************************************************************
 100:Generated_Source\PSoC5/SHIFTREG_ENC_2.c **** * Function Name: SHIFTREG_ENC_2_Stop
 101:Generated_Source\PSoC5/SHIFTREG_ENC_2.c **** ********************************************************************************
 102:Generated_Source\PSoC5/SHIFTREG_ENC_2.c **** *
 103:Generated_Source\PSoC5/SHIFTREG_ENC_2.c **** * Summary:
 104:Generated_Source\PSoC5/SHIFTREG_ENC_2.c **** *  Disables the Shift Register
 105:Generated_Source\PSoC5/SHIFTREG_ENC_2.c **** *
 106:Generated_Source\PSoC5/SHIFTREG_ENC_2.c **** * Parameters:
 107:Generated_Source\PSoC5/SHIFTREG_ENC_2.c **** *  None.
 108:Generated_Source\PSoC5/SHIFTREG_ENC_2.c **** *
 109:Generated_Source\PSoC5/SHIFTREG_ENC_2.c **** * Return:
 110:Generated_Source\PSoC5/SHIFTREG_ENC_2.c **** *  None.
 111:Generated_Source\PSoC5/SHIFTREG_ENC_2.c **** *
 112:Generated_Source\PSoC5/SHIFTREG_ENC_2.c **** *******************************************************************************/
 113:Generated_Source\PSoC5/SHIFTREG_ENC_2.c **** void SHIFTREG_ENC_2_Stop(void) 
 114:Generated_Source\PSoC5/SHIFTREG_ENC_2.c **** {
 141              		.loc 1 114 0
 142              		.cfi_startproc
 143              		@ args = 0, pretend = 0, frame = 0
 144              		@ frame_needed = 1, uses_anonymous_args = 0
 145 0000 80B5     		push	{r7, lr}
 146              		.cfi_def_cfa_offset 8
 147              		.cfi_offset 7, -8
 148              		.cfi_offset 14, -4
 149 0002 00AF     		add	r7, sp, #0
 150              		.cfi_def_cfa_register 7
 115:Generated_Source\PSoC5/SHIFTREG_ENC_2.c ****     /*changing Datapath Control Store address to NOP space*/
 116:Generated_Source\PSoC5/SHIFTREG_ENC_2.c ****     SHIFTREG_ENC_2_SR_CONTROL &= ((uint8) ~SHIFTREG_ENC_2_CLK_EN);
 151              		.loc 1 116 0
 152 0004 054A     		ldr	r2, .L10
 153 0006 054B     		ldr	r3, .L10
 154 0008 1B78     		ldrb	r3, [r3]
 155 000a DBB2     		uxtb	r3, r3
 156 000c 23F00103 		bic	r3, r3, #1
 157 0010 DBB2     		uxtb	r3, r3
 158 0012 1370     		strb	r3, [r2]
 117:Generated_Source\PSoC5/SHIFTREG_ENC_2.c ****     SHIFTREG_ENC_2_DisableInt();
 159              		.loc 1 117 0
 160 0014 FFF7FEFF 		bl	SHIFTREG_ENC_2_DisableInt
 118:Generated_Source\PSoC5/SHIFTREG_ENC_2.c **** }
 161              		.loc 1 118 0
 162 0018 00BF     		nop
 163 001a 80BD     		pop	{r7, pc}
 164              	.L11:
 165              		.align	2
 166              	.L10:
 167 001c 7F640040 		.word	1073767551
ARM GAS  C:\Users\Mattia\AppData\Local\Temp\ccYxBDtg.s 			page 6


 168              		.cfi_endproc
 169              	.LFE3:
 170              		.size	SHIFTREG_ENC_2_Stop, .-SHIFTREG_ENC_2_Stop
 171              		.section	.text.SHIFTREG_ENC_2_EnableInt,"ax",%progbits
 172              		.align	2
 173              		.global	SHIFTREG_ENC_2_EnableInt
 174              		.thumb
 175              		.thumb_func
 176              		.type	SHIFTREG_ENC_2_EnableInt, %function
 177              	SHIFTREG_ENC_2_EnableInt:
 178              	.LFB4:
 119:Generated_Source\PSoC5/SHIFTREG_ENC_2.c **** 
 120:Generated_Source\PSoC5/SHIFTREG_ENC_2.c **** 
 121:Generated_Source\PSoC5/SHIFTREG_ENC_2.c **** /*******************************************************************************
 122:Generated_Source\PSoC5/SHIFTREG_ENC_2.c **** * Function Name: SHIFTREG_ENC_2_EnableInt
 123:Generated_Source\PSoC5/SHIFTREG_ENC_2.c **** ********************************************************************************
 124:Generated_Source\PSoC5/SHIFTREG_ENC_2.c **** *
 125:Generated_Source\PSoC5/SHIFTREG_ENC_2.c **** * Summary:
 126:Generated_Source\PSoC5/SHIFTREG_ENC_2.c **** *  Enables the Shift Register interrupt.
 127:Generated_Source\PSoC5/SHIFTREG_ENC_2.c **** *
 128:Generated_Source\PSoC5/SHIFTREG_ENC_2.c **** * Parameters:
 129:Generated_Source\PSoC5/SHIFTREG_ENC_2.c **** *  None.
 130:Generated_Source\PSoC5/SHIFTREG_ENC_2.c **** *
 131:Generated_Source\PSoC5/SHIFTREG_ENC_2.c **** * Return:
 132:Generated_Source\PSoC5/SHIFTREG_ENC_2.c **** *  None.
 133:Generated_Source\PSoC5/SHIFTREG_ENC_2.c **** *
 134:Generated_Source\PSoC5/SHIFTREG_ENC_2.c **** *******************************************************************************/
 135:Generated_Source\PSoC5/SHIFTREG_ENC_2.c **** void SHIFTREG_ENC_2_EnableInt(void) 
 136:Generated_Source\PSoC5/SHIFTREG_ENC_2.c **** {
 179              		.loc 1 136 0
 180              		.cfi_startproc
 181              		@ args = 0, pretend = 0, frame = 8
 182              		@ frame_needed = 1, uses_anonymous_args = 0
 183 0000 80B5     		push	{r7, lr}
 184              		.cfi_def_cfa_offset 8
 185              		.cfi_offset 7, -8
 186              		.cfi_offset 14, -4
 187 0002 82B0     		sub	sp, sp, #8
 188              		.cfi_def_cfa_offset 16
 189 0004 00AF     		add	r7, sp, #0
 190              		.cfi_def_cfa_register 7
 137:Generated_Source\PSoC5/SHIFTREG_ENC_2.c ****     uint8 interruptState;
 138:Generated_Source\PSoC5/SHIFTREG_ENC_2.c **** 
 139:Generated_Source\PSoC5/SHIFTREG_ENC_2.c ****     interruptState = CyEnterCriticalSection();
 191              		.loc 1 139 0
 192 0006 FFF7FEFF 		bl	CyEnterCriticalSection
 193 000a 0346     		mov	r3, r0
 194 000c FB71     		strb	r3, [r7, #7]
 140:Generated_Source\PSoC5/SHIFTREG_ENC_2.c ****     SHIFTREG_ENC_2_SR_AUX_CONTROL |= SHIFTREG_ENC_2_INTERRUPTS_ENABLE;
 195              		.loc 1 140 0
 196 000e 084A     		ldr	r2, .L13
 197 0010 074B     		ldr	r3, .L13
 198 0012 1B78     		ldrb	r3, [r3]
 199 0014 DBB2     		uxtb	r3, r3
 200 0016 43F01003 		orr	r3, r3, #16
 201 001a DBB2     		uxtb	r3, r3
 202 001c 1370     		strb	r3, [r2]
ARM GAS  C:\Users\Mattia\AppData\Local\Temp\ccYxBDtg.s 			page 7


 141:Generated_Source\PSoC5/SHIFTREG_ENC_2.c ****     CyExitCriticalSection(interruptState);
 203              		.loc 1 141 0
 204 001e FB79     		ldrb	r3, [r7, #7]	@ zero_extendqisi2
 205 0020 1846     		mov	r0, r3
 206 0022 FFF7FEFF 		bl	CyExitCriticalSection
 142:Generated_Source\PSoC5/SHIFTREG_ENC_2.c **** }
 207              		.loc 1 142 0
 208 0026 00BF     		nop
 209 0028 0837     		adds	r7, r7, #8
 210              		.cfi_def_cfa_offset 8
 211 002a BD46     		mov	sp, r7
 212              		.cfi_def_cfa_register 13
 213              		@ sp needed
 214 002c 80BD     		pop	{r7, pc}
 215              	.L14:
 216 002e 00BF     		.align	2
 217              	.L13:
 218 0030 97650040 		.word	1073767831
 219              		.cfi_endproc
 220              	.LFE4:
 221              		.size	SHIFTREG_ENC_2_EnableInt, .-SHIFTREG_ENC_2_EnableInt
 222              		.section	.text.SHIFTREG_ENC_2_DisableInt,"ax",%progbits
 223              		.align	2
 224              		.global	SHIFTREG_ENC_2_DisableInt
 225              		.thumb
 226              		.thumb_func
 227              		.type	SHIFTREG_ENC_2_DisableInt, %function
 228              	SHIFTREG_ENC_2_DisableInt:
 229              	.LFB5:
 143:Generated_Source\PSoC5/SHIFTREG_ENC_2.c **** 
 144:Generated_Source\PSoC5/SHIFTREG_ENC_2.c **** 
 145:Generated_Source\PSoC5/SHIFTREG_ENC_2.c **** /*******************************************************************************
 146:Generated_Source\PSoC5/SHIFTREG_ENC_2.c **** * Function Name: SHIFTREG_ENC_2_DisableInt
 147:Generated_Source\PSoC5/SHIFTREG_ENC_2.c **** ********************************************************************************
 148:Generated_Source\PSoC5/SHIFTREG_ENC_2.c **** *
 149:Generated_Source\PSoC5/SHIFTREG_ENC_2.c **** * Summary:
 150:Generated_Source\PSoC5/SHIFTREG_ENC_2.c **** *  Disables the Shift Register interrupt.
 151:Generated_Source\PSoC5/SHIFTREG_ENC_2.c **** *
 152:Generated_Source\PSoC5/SHIFTREG_ENC_2.c **** * Parameters:
 153:Generated_Source\PSoC5/SHIFTREG_ENC_2.c **** *  None.
 154:Generated_Source\PSoC5/SHIFTREG_ENC_2.c **** *
 155:Generated_Source\PSoC5/SHIFTREG_ENC_2.c **** * Return:
 156:Generated_Source\PSoC5/SHIFTREG_ENC_2.c **** *  None.
 157:Generated_Source\PSoC5/SHIFTREG_ENC_2.c **** *
 158:Generated_Source\PSoC5/SHIFTREG_ENC_2.c **** *******************************************************************************/
 159:Generated_Source\PSoC5/SHIFTREG_ENC_2.c **** void SHIFTREG_ENC_2_DisableInt(void) 
 160:Generated_Source\PSoC5/SHIFTREG_ENC_2.c **** {
 230              		.loc 1 160 0
 231              		.cfi_startproc
 232              		@ args = 0, pretend = 0, frame = 8
 233              		@ frame_needed = 1, uses_anonymous_args = 0
 234 0000 80B5     		push	{r7, lr}
 235              		.cfi_def_cfa_offset 8
 236              		.cfi_offset 7, -8
 237              		.cfi_offset 14, -4
 238 0002 82B0     		sub	sp, sp, #8
 239              		.cfi_def_cfa_offset 16
ARM GAS  C:\Users\Mattia\AppData\Local\Temp\ccYxBDtg.s 			page 8


 240 0004 00AF     		add	r7, sp, #0
 241              		.cfi_def_cfa_register 7
 161:Generated_Source\PSoC5/SHIFTREG_ENC_2.c ****     uint8 interruptState;
 162:Generated_Source\PSoC5/SHIFTREG_ENC_2.c **** 
 163:Generated_Source\PSoC5/SHIFTREG_ENC_2.c ****     interruptState = CyEnterCriticalSection();
 242              		.loc 1 163 0
 243 0006 FFF7FEFF 		bl	CyEnterCriticalSection
 244 000a 0346     		mov	r3, r0
 245 000c FB71     		strb	r3, [r7, #7]
 164:Generated_Source\PSoC5/SHIFTREG_ENC_2.c ****     SHIFTREG_ENC_2_SR_AUX_CONTROL &= ((uint8) ~SHIFTREG_ENC_2_INTERRUPTS_ENABLE);
 246              		.loc 1 164 0
 247 000e 084A     		ldr	r2, .L16
 248 0010 074B     		ldr	r3, .L16
 249 0012 1B78     		ldrb	r3, [r3]
 250 0014 DBB2     		uxtb	r3, r3
 251 0016 23F01003 		bic	r3, r3, #16
 252 001a DBB2     		uxtb	r3, r3
 253 001c 1370     		strb	r3, [r2]
 165:Generated_Source\PSoC5/SHIFTREG_ENC_2.c ****     CyExitCriticalSection(interruptState);
 254              		.loc 1 165 0
 255 001e FB79     		ldrb	r3, [r7, #7]	@ zero_extendqisi2
 256 0020 1846     		mov	r0, r3
 257 0022 FFF7FEFF 		bl	CyExitCriticalSection
 166:Generated_Source\PSoC5/SHIFTREG_ENC_2.c **** }
 258              		.loc 1 166 0
 259 0026 00BF     		nop
 260 0028 0837     		adds	r7, r7, #8
 261              		.cfi_def_cfa_offset 8
 262 002a BD46     		mov	sp, r7
 263              		.cfi_def_cfa_register 13
 264              		@ sp needed
 265 002c 80BD     		pop	{r7, pc}
 266              	.L17:
 267 002e 00BF     		.align	2
 268              	.L16:
 269 0030 97650040 		.word	1073767831
 270              		.cfi_endproc
 271              	.LFE5:
 272              		.size	SHIFTREG_ENC_2_DisableInt, .-SHIFTREG_ENC_2_DisableInt
 273              		.section	.text.SHIFTREG_ENC_2_GetFIFOStatus,"ax",%progbits
 274              		.align	2
 275              		.global	SHIFTREG_ENC_2_GetFIFOStatus
 276              		.thumb
 277              		.thumb_func
 278              		.type	SHIFTREG_ENC_2_GetFIFOStatus, %function
 279              	SHIFTREG_ENC_2_GetFIFOStatus:
 280              	.LFB6:
 167:Generated_Source\PSoC5/SHIFTREG_ENC_2.c **** 
 168:Generated_Source\PSoC5/SHIFTREG_ENC_2.c **** 
 169:Generated_Source\PSoC5/SHIFTREG_ENC_2.c **** /*******************************************************************************
 170:Generated_Source\PSoC5/SHIFTREG_ENC_2.c **** * Function Name: SHIFTREG_ENC_2_GetFIFOStatus
 171:Generated_Source\PSoC5/SHIFTREG_ENC_2.c **** ********************************************************************************
 172:Generated_Source\PSoC5/SHIFTREG_ENC_2.c **** *
 173:Generated_Source\PSoC5/SHIFTREG_ENC_2.c **** * Summary:
 174:Generated_Source\PSoC5/SHIFTREG_ENC_2.c **** *  Returns current status of input or output FIFO.
 175:Generated_Source\PSoC5/SHIFTREG_ENC_2.c **** *
 176:Generated_Source\PSoC5/SHIFTREG_ENC_2.c **** * Parameters:
ARM GAS  C:\Users\Mattia\AppData\Local\Temp\ccYxBDtg.s 			page 9


 177:Generated_Source\PSoC5/SHIFTREG_ENC_2.c **** *  fifoId.
 178:Generated_Source\PSoC5/SHIFTREG_ENC_2.c **** *
 179:Generated_Source\PSoC5/SHIFTREG_ENC_2.c **** * Return:
 180:Generated_Source\PSoC5/SHIFTREG_ENC_2.c **** *  FIFO status.
 181:Generated_Source\PSoC5/SHIFTREG_ENC_2.c **** *
 182:Generated_Source\PSoC5/SHIFTREG_ENC_2.c **** *******************************************************************************/
 183:Generated_Source\PSoC5/SHIFTREG_ENC_2.c **** uint8 SHIFTREG_ENC_2_GetFIFOStatus(uint8 fifoId) 
 184:Generated_Source\PSoC5/SHIFTREG_ENC_2.c **** {
 281              		.loc 1 184 0
 282              		.cfi_startproc
 283              		@ args = 0, pretend = 0, frame = 16
 284              		@ frame_needed = 1, uses_anonymous_args = 0
 285              		@ link register save eliminated.
 286 0000 80B4     		push	{r7}
 287              		.cfi_def_cfa_offset 4
 288              		.cfi_offset 7, -4
 289 0002 85B0     		sub	sp, sp, #20
 290              		.cfi_def_cfa_offset 24
 291 0004 00AF     		add	r7, sp, #0
 292              		.cfi_def_cfa_register 7
 293 0006 0346     		mov	r3, r0
 294 0008 FB71     		strb	r3, [r7, #7]
 185:Generated_Source\PSoC5/SHIFTREG_ENC_2.c ****     uint8 result;
 186:Generated_Source\PSoC5/SHIFTREG_ENC_2.c **** 
 187:Generated_Source\PSoC5/SHIFTREG_ENC_2.c ****     result = SHIFTREG_ENC_2_RET_FIFO_NOT_DEFINED;
 295              		.loc 1 187 0
 296 000a FE23     		movs	r3, #254
 297 000c FB73     		strb	r3, [r7, #15]
 188:Generated_Source\PSoC5/SHIFTREG_ENC_2.c **** 
 189:Generated_Source\PSoC5/SHIFTREG_ENC_2.c ****     #if(0u != SHIFTREG_ENC_2_USE_INPUT_FIFO)
 190:Generated_Source\PSoC5/SHIFTREG_ENC_2.c ****         if(SHIFTREG_ENC_2_IN_FIFO == fifoId)
 191:Generated_Source\PSoC5/SHIFTREG_ENC_2.c ****         {
 192:Generated_Source\PSoC5/SHIFTREG_ENC_2.c ****             switch(SHIFTREG_ENC_2_GET_IN_FIFO_STS)
 193:Generated_Source\PSoC5/SHIFTREG_ENC_2.c ****             {
 194:Generated_Source\PSoC5/SHIFTREG_ENC_2.c ****                 case SHIFTREG_ENC_2_IN_FIFO_FULL :
 195:Generated_Source\PSoC5/SHIFTREG_ENC_2.c ****                     result = SHIFTREG_ENC_2_RET_FIFO_FULL;
 196:Generated_Source\PSoC5/SHIFTREG_ENC_2.c ****                     break;
 197:Generated_Source\PSoC5/SHIFTREG_ENC_2.c **** 
 198:Generated_Source\PSoC5/SHIFTREG_ENC_2.c ****                 case SHIFTREG_ENC_2_IN_FIFO_EMPTY :
 199:Generated_Source\PSoC5/SHIFTREG_ENC_2.c ****                     result = SHIFTREG_ENC_2_RET_FIFO_EMPTY;
 200:Generated_Source\PSoC5/SHIFTREG_ENC_2.c ****                     break;
 201:Generated_Source\PSoC5/SHIFTREG_ENC_2.c **** 
 202:Generated_Source\PSoC5/SHIFTREG_ENC_2.c ****                 case SHIFTREG_ENC_2_IN_FIFO_PARTIAL:
 203:Generated_Source\PSoC5/SHIFTREG_ENC_2.c ****                     result = SHIFTREG_ENC_2_RET_FIFO_PARTIAL;
 204:Generated_Source\PSoC5/SHIFTREG_ENC_2.c ****                     break;
 205:Generated_Source\PSoC5/SHIFTREG_ENC_2.c ****                     
 206:Generated_Source\PSoC5/SHIFTREG_ENC_2.c ****                 default:
 207:Generated_Source\PSoC5/SHIFTREG_ENC_2.c ****                     /* Initial result value, while 
 208:Generated_Source\PSoC5/SHIFTREG_ENC_2.c ****                        IN_FIFO_EMPTY case is false 
 209:Generated_Source\PSoC5/SHIFTREG_ENC_2.c ****                      */
 210:Generated_Source\PSoC5/SHIFTREG_ENC_2.c ****                     result = SHIFTREG_ENC_2_RET_FIFO_EMPTY;
 211:Generated_Source\PSoC5/SHIFTREG_ENC_2.c ****                     break;
 212:Generated_Source\PSoC5/SHIFTREG_ENC_2.c ****             }   
 213:Generated_Source\PSoC5/SHIFTREG_ENC_2.c ****         }
 214:Generated_Source\PSoC5/SHIFTREG_ENC_2.c ****     #endif /* (0u != SHIFTREG_ENC_2_USE_INPUT_FIFO) */
 215:Generated_Source\PSoC5/SHIFTREG_ENC_2.c **** 
 216:Generated_Source\PSoC5/SHIFTREG_ENC_2.c ****     if(SHIFTREG_ENC_2_OUT_FIFO == fifoId)
ARM GAS  C:\Users\Mattia\AppData\Local\Temp\ccYxBDtg.s 			page 10


 298              		.loc 1 216 0
 299 000e FB79     		ldrb	r3, [r7, #7]	@ zero_extendqisi2
 300 0010 022B     		cmp	r3, #2
 301 0012 18D1     		bne	.L19
 217:Generated_Source\PSoC5/SHIFTREG_ENC_2.c ****     {
 218:Generated_Source\PSoC5/SHIFTREG_ENC_2.c ****         switch(SHIFTREG_ENC_2_GET_OUT_FIFO_STS)
 302              		.loc 1 218 0
 303 0014 0F4B     		ldr	r3, .L26
 304 0016 1B78     		ldrb	r3, [r3]
 305 0018 DBB2     		uxtb	r3, r3
 306 001a 03F06003 		and	r3, r3, #96
 307 001e 5B09     		lsrs	r3, r3, #5
 308 0020 012B     		cmp	r3, #1
 309 0022 04D0     		beq	.L21
 310 0024 012B     		cmp	r3, #1
 311 0026 05D3     		bcc	.L22
 312 0028 022B     		cmp	r3, #2
 313 002a 06D0     		beq	.L23
 314 002c 08E0     		b	.L25
 315              	.L21:
 219:Generated_Source\PSoC5/SHIFTREG_ENC_2.c ****         {
 220:Generated_Source\PSoC5/SHIFTREG_ENC_2.c ****             case SHIFTREG_ENC_2_OUT_FIFO_FULL :
 221:Generated_Source\PSoC5/SHIFTREG_ENC_2.c ****                 result = SHIFTREG_ENC_2_RET_FIFO_FULL;
 316              		.loc 1 221 0
 317 002e 0023     		movs	r3, #0
 318 0030 FB73     		strb	r3, [r7, #15]
 222:Generated_Source\PSoC5/SHIFTREG_ENC_2.c ****                 break;
 319              		.loc 1 222 0
 320 0032 08E0     		b	.L19
 321              	.L22:
 223:Generated_Source\PSoC5/SHIFTREG_ENC_2.c **** 
 224:Generated_Source\PSoC5/SHIFTREG_ENC_2.c ****             case SHIFTREG_ENC_2_OUT_FIFO_EMPTY :
 225:Generated_Source\PSoC5/SHIFTREG_ENC_2.c ****                 result = SHIFTREG_ENC_2_RET_FIFO_EMPTY;
 322              		.loc 1 225 0
 323 0034 0223     		movs	r3, #2
 324 0036 FB73     		strb	r3, [r7, #15]
 226:Generated_Source\PSoC5/SHIFTREG_ENC_2.c ****                 break;
 325              		.loc 1 226 0
 326 0038 05E0     		b	.L19
 327              	.L23:
 227:Generated_Source\PSoC5/SHIFTREG_ENC_2.c **** 
 228:Generated_Source\PSoC5/SHIFTREG_ENC_2.c ****             case SHIFTREG_ENC_2_OUT_FIFO_PARTIAL :
 229:Generated_Source\PSoC5/SHIFTREG_ENC_2.c ****                 result = SHIFTREG_ENC_2_RET_FIFO_PARTIAL;
 328              		.loc 1 229 0
 329 003a 0123     		movs	r3, #1
 330 003c FB73     		strb	r3, [r7, #15]
 230:Generated_Source\PSoC5/SHIFTREG_ENC_2.c ****                 break;
 331              		.loc 1 230 0
 332 003e 02E0     		b	.L19
 333              	.L25:
 231:Generated_Source\PSoC5/SHIFTREG_ENC_2.c **** 
 232:Generated_Source\PSoC5/SHIFTREG_ENC_2.c ****             default:
 233:Generated_Source\PSoC5/SHIFTREG_ENC_2.c ****                 /* Initial result value, while 
 234:Generated_Source\PSoC5/SHIFTREG_ENC_2.c ****                    OUT_FIFO_FULL case is false 
 235:Generated_Source\PSoC5/SHIFTREG_ENC_2.c ****                  */
 236:Generated_Source\PSoC5/SHIFTREG_ENC_2.c ****                 result = SHIFTREG_ENC_2_RET_FIFO_FULL;
 334              		.loc 1 236 0
ARM GAS  C:\Users\Mattia\AppData\Local\Temp\ccYxBDtg.s 			page 11


 335 0040 0023     		movs	r3, #0
 336 0042 FB73     		strb	r3, [r7, #15]
 237:Generated_Source\PSoC5/SHIFTREG_ENC_2.c ****                 break;
 337              		.loc 1 237 0
 338 0044 00BF     		nop
 339              	.L19:
 238:Generated_Source\PSoC5/SHIFTREG_ENC_2.c ****         }
 239:Generated_Source\PSoC5/SHIFTREG_ENC_2.c ****     }
 240:Generated_Source\PSoC5/SHIFTREG_ENC_2.c **** 
 241:Generated_Source\PSoC5/SHIFTREG_ENC_2.c ****     return(result);
 340              		.loc 1 241 0
 341 0046 FB7B     		ldrb	r3, [r7, #15]	@ zero_extendqisi2
 242:Generated_Source\PSoC5/SHIFTREG_ENC_2.c **** }
 342              		.loc 1 242 0
 343 0048 1846     		mov	r0, r3
 344 004a 1437     		adds	r7, r7, #20
 345              		.cfi_def_cfa_offset 4
 346 004c BD46     		mov	sp, r7
 347              		.cfi_def_cfa_register 13
 348              		@ sp needed
 349 004e 80BC     		pop	{r7}
 350              		.cfi_restore 7
 351              		.cfi_def_cfa_offset 0
 352 0050 7047     		bx	lr
 353              	.L27:
 354 0052 00BF     		.align	2
 355              	.L26:
 356 0054 67650040 		.word	1073767783
 357              		.cfi_endproc
 358              	.LFE6:
 359              		.size	SHIFTREG_ENC_2_GetFIFOStatus, .-SHIFTREG_ENC_2_GetFIFOStatus
 360              		.section	.text.SHIFTREG_ENC_2_SetIntMode,"ax",%progbits
 361              		.align	2
 362              		.global	SHIFTREG_ENC_2_SetIntMode
 363              		.thumb
 364              		.thumb_func
 365              		.type	SHIFTREG_ENC_2_SetIntMode, %function
 366              	SHIFTREG_ENC_2_SetIntMode:
 367              	.LFB7:
 243:Generated_Source\PSoC5/SHIFTREG_ENC_2.c **** 
 244:Generated_Source\PSoC5/SHIFTREG_ENC_2.c **** 
 245:Generated_Source\PSoC5/SHIFTREG_ENC_2.c **** /*******************************************************************************
 246:Generated_Source\PSoC5/SHIFTREG_ENC_2.c **** * Function Name: SHIFTREG_ENC_2_SetIntMode
 247:Generated_Source\PSoC5/SHIFTREG_ENC_2.c **** ********************************************************************************
 248:Generated_Source\PSoC5/SHIFTREG_ENC_2.c **** *
 249:Generated_Source\PSoC5/SHIFTREG_ENC_2.c **** * Summary:
 250:Generated_Source\PSoC5/SHIFTREG_ENC_2.c **** *  Sets the Interrupt Source for the Shift Register interrupt. Multiple
 251:Generated_Source\PSoC5/SHIFTREG_ENC_2.c **** *  sources may be ORed together
 252:Generated_Source\PSoC5/SHIFTREG_ENC_2.c **** *
 253:Generated_Source\PSoC5/SHIFTREG_ENC_2.c **** * Parameters:
 254:Generated_Source\PSoC5/SHIFTREG_ENC_2.c **** *  interruptSource: Byte containing the constant for the selected interrupt
 255:Generated_Source\PSoC5/SHIFTREG_ENC_2.c **** *  source/s.
 256:Generated_Source\PSoC5/SHIFTREG_ENC_2.c **** *
 257:Generated_Source\PSoC5/SHIFTREG_ENC_2.c **** * Return:
 258:Generated_Source\PSoC5/SHIFTREG_ENC_2.c **** *  None.
 259:Generated_Source\PSoC5/SHIFTREG_ENC_2.c **** *
 260:Generated_Source\PSoC5/SHIFTREG_ENC_2.c **** *******************************************************************************/
ARM GAS  C:\Users\Mattia\AppData\Local\Temp\ccYxBDtg.s 			page 12


 261:Generated_Source\PSoC5/SHIFTREG_ENC_2.c **** void SHIFTREG_ENC_2_SetIntMode(uint8 interruptSource) 
 262:Generated_Source\PSoC5/SHIFTREG_ENC_2.c **** {
 368              		.loc 1 262 0
 369              		.cfi_startproc
 370              		@ args = 0, pretend = 0, frame = 8
 371              		@ frame_needed = 1, uses_anonymous_args = 0
 372              		@ link register save eliminated.
 373 0000 80B4     		push	{r7}
 374              		.cfi_def_cfa_offset 4
 375              		.cfi_offset 7, -4
 376 0002 83B0     		sub	sp, sp, #12
 377              		.cfi_def_cfa_offset 16
 378 0004 00AF     		add	r7, sp, #0
 379              		.cfi_def_cfa_register 7
 380 0006 0346     		mov	r3, r0
 381 0008 FB71     		strb	r3, [r7, #7]
 263:Generated_Source\PSoC5/SHIFTREG_ENC_2.c ****     SHIFTREG_ENC_2_SR_STATUS_MASK &= ((uint8) ~SHIFTREG_ENC_2_INTS_EN_MASK);          /* Clear exis
 382              		.loc 1 263 0
 383 000a 0C4A     		ldr	r2, .L29
 384 000c 0B4B     		ldr	r3, .L29
 385 000e 1B78     		ldrb	r3, [r3]
 386 0010 DBB2     		uxtb	r3, r3
 387 0012 23F00703 		bic	r3, r3, #7
 388 0016 DBB2     		uxtb	r3, r3
 389 0018 1370     		strb	r3, [r2]
 264:Generated_Source\PSoC5/SHIFTREG_ENC_2.c ****     SHIFTREG_ENC_2_SR_STATUS_MASK |= (interruptSource & SHIFTREG_ENC_2_INTS_EN_MASK); /* Set int */
 390              		.loc 1 264 0
 391 001a 0849     		ldr	r1, .L29
 392 001c 074B     		ldr	r3, .L29
 393 001e 1B78     		ldrb	r3, [r3]
 394 0020 DAB2     		uxtb	r2, r3
 395 0022 FB79     		ldrb	r3, [r7, #7]
 396 0024 03F00703 		and	r3, r3, #7
 397 0028 DBB2     		uxtb	r3, r3
 398 002a 1343     		orrs	r3, r3, r2
 399 002c DBB2     		uxtb	r3, r3
 400 002e 0B70     		strb	r3, [r1]
 265:Generated_Source\PSoC5/SHIFTREG_ENC_2.c **** }
 401              		.loc 1 265 0
 402 0030 00BF     		nop
 403 0032 0C37     		adds	r7, r7, #12
 404              		.cfi_def_cfa_offset 4
 405 0034 BD46     		mov	sp, r7
 406              		.cfi_def_cfa_register 13
 407              		@ sp needed
 408 0036 80BC     		pop	{r7}
 409              		.cfi_restore 7
 410              		.cfi_def_cfa_offset 0
 411 0038 7047     		bx	lr
 412              	.L30:
 413 003a 00BF     		.align	2
 414              	.L29:
 415 003c 87650040 		.word	1073767815
 416              		.cfi_endproc
 417              	.LFE7:
 418              		.size	SHIFTREG_ENC_2_SetIntMode, .-SHIFTREG_ENC_2_SetIntMode
 419              		.section	.text.SHIFTREG_ENC_2_GetIntStatus,"ax",%progbits
ARM GAS  C:\Users\Mattia\AppData\Local\Temp\ccYxBDtg.s 			page 13


 420              		.align	2
 421              		.global	SHIFTREG_ENC_2_GetIntStatus
 422              		.thumb
 423              		.thumb_func
 424              		.type	SHIFTREG_ENC_2_GetIntStatus, %function
 425              	SHIFTREG_ENC_2_GetIntStatus:
 426              	.LFB8:
 266:Generated_Source\PSoC5/SHIFTREG_ENC_2.c **** 
 267:Generated_Source\PSoC5/SHIFTREG_ENC_2.c **** 
 268:Generated_Source\PSoC5/SHIFTREG_ENC_2.c **** /*******************************************************************************
 269:Generated_Source\PSoC5/SHIFTREG_ENC_2.c **** * Function Name: SHIFTREG_ENC_2_GetIntStatus
 270:Generated_Source\PSoC5/SHIFTREG_ENC_2.c **** ********************************************************************************
 271:Generated_Source\PSoC5/SHIFTREG_ENC_2.c **** *
 272:Generated_Source\PSoC5/SHIFTREG_ENC_2.c **** * Summary:
 273:Generated_Source\PSoC5/SHIFTREG_ENC_2.c **** *  Gets the Shift Register Interrupt status.
 274:Generated_Source\PSoC5/SHIFTREG_ENC_2.c **** *
 275:Generated_Source\PSoC5/SHIFTREG_ENC_2.c **** * Parameters:
 276:Generated_Source\PSoC5/SHIFTREG_ENC_2.c **** *  None.
 277:Generated_Source\PSoC5/SHIFTREG_ENC_2.c **** *
 278:Generated_Source\PSoC5/SHIFTREG_ENC_2.c **** * Return:
 279:Generated_Source\PSoC5/SHIFTREG_ENC_2.c **** *  Byte containing the constant for the selected interrupt source/s.
 280:Generated_Source\PSoC5/SHIFTREG_ENC_2.c **** *
 281:Generated_Source\PSoC5/SHIFTREG_ENC_2.c **** *******************************************************************************/
 282:Generated_Source\PSoC5/SHIFTREG_ENC_2.c **** uint8 SHIFTREG_ENC_2_GetIntStatus(void) 
 283:Generated_Source\PSoC5/SHIFTREG_ENC_2.c **** {
 427              		.loc 1 283 0
 428              		.cfi_startproc
 429              		@ args = 0, pretend = 0, frame = 0
 430              		@ frame_needed = 1, uses_anonymous_args = 0
 431              		@ link register save eliminated.
 432 0000 80B4     		push	{r7}
 433              		.cfi_def_cfa_offset 4
 434              		.cfi_offset 7, -4
 435 0002 00AF     		add	r7, sp, #0
 436              		.cfi_def_cfa_register 7
 284:Generated_Source\PSoC5/SHIFTREG_ENC_2.c ****     return(SHIFTREG_ENC_2_SR_STATUS & SHIFTREG_ENC_2_INTS_EN_MASK);
 437              		.loc 1 284 0
 438 0004 044B     		ldr	r3, .L33
 439 0006 1B78     		ldrb	r3, [r3]
 440 0008 DBB2     		uxtb	r3, r3
 441 000a 03F00703 		and	r3, r3, #7
 442 000e DBB2     		uxtb	r3, r3
 285:Generated_Source\PSoC5/SHIFTREG_ENC_2.c **** }
 443              		.loc 1 285 0
 444 0010 1846     		mov	r0, r3
 445 0012 BD46     		mov	sp, r7
 446              		.cfi_def_cfa_register 13
 447              		@ sp needed
 448 0014 80BC     		pop	{r7}
 449              		.cfi_restore 7
 450              		.cfi_def_cfa_offset 0
 451 0016 7047     		bx	lr
 452              	.L34:
 453              		.align	2
 454              	.L33:
 455 0018 67650040 		.word	1073767783
 456              		.cfi_endproc
ARM GAS  C:\Users\Mattia\AppData\Local\Temp\ccYxBDtg.s 			page 14


 457              	.LFE8:
 458              		.size	SHIFTREG_ENC_2_GetIntStatus, .-SHIFTREG_ENC_2_GetIntStatus
 459              		.section	.text.SHIFTREG_ENC_2_WriteRegValue,"ax",%progbits
 460              		.align	2
 461              		.global	SHIFTREG_ENC_2_WriteRegValue
 462              		.thumb
 463              		.thumb_func
 464              		.type	SHIFTREG_ENC_2_WriteRegValue, %function
 465              	SHIFTREG_ENC_2_WriteRegValue:
 466              	.LFB9:
 286:Generated_Source\PSoC5/SHIFTREG_ENC_2.c **** 
 287:Generated_Source\PSoC5/SHIFTREG_ENC_2.c **** 
 288:Generated_Source\PSoC5/SHIFTREG_ENC_2.c **** /*******************************************************************************
 289:Generated_Source\PSoC5/SHIFTREG_ENC_2.c **** * Function Name: SHIFTREG_ENC_2_WriteRegValue
 290:Generated_Source\PSoC5/SHIFTREG_ENC_2.c **** ********************************************************************************
 291:Generated_Source\PSoC5/SHIFTREG_ENC_2.c **** *
 292:Generated_Source\PSoC5/SHIFTREG_ENC_2.c **** * Summary:
 293:Generated_Source\PSoC5/SHIFTREG_ENC_2.c **** *  Send state directly to shift register
 294:Generated_Source\PSoC5/SHIFTREG_ENC_2.c **** *
 295:Generated_Source\PSoC5/SHIFTREG_ENC_2.c **** * Parameters:
 296:Generated_Source\PSoC5/SHIFTREG_ENC_2.c **** *  shiftData: containing shift register state.
 297:Generated_Source\PSoC5/SHIFTREG_ENC_2.c **** *
 298:Generated_Source\PSoC5/SHIFTREG_ENC_2.c **** * Return:
 299:Generated_Source\PSoC5/SHIFTREG_ENC_2.c **** *  None.
 300:Generated_Source\PSoC5/SHIFTREG_ENC_2.c **** *
 301:Generated_Source\PSoC5/SHIFTREG_ENC_2.c **** *******************************************************************************/
 302:Generated_Source\PSoC5/SHIFTREG_ENC_2.c **** void SHIFTREG_ENC_2_WriteRegValue(uint32 shiftData)
 303:Generated_Source\PSoC5/SHIFTREG_ENC_2.c ****                                                                      
 304:Generated_Source\PSoC5/SHIFTREG_ENC_2.c **** {
 467              		.loc 1 304 0
 468              		.cfi_startproc
 469              		@ args = 0, pretend = 0, frame = 8
 470              		@ frame_needed = 1, uses_anonymous_args = 0
 471              		@ link register save eliminated.
 472 0000 80B4     		push	{r7}
 473              		.cfi_def_cfa_offset 4
 474              		.cfi_offset 7, -4
 475 0002 83B0     		sub	sp, sp, #12
 476              		.cfi_def_cfa_offset 16
 477 0004 00AF     		add	r7, sp, #0
 478              		.cfi_def_cfa_register 7
 479 0006 7860     		str	r0, [r7, #4]
 305:Generated_Source\PSoC5/SHIFTREG_ENC_2.c ****     CY_SET_REG32(SHIFTREG_ENC_2_SHIFT_REG_LSB_PTR, shiftData);
 480              		.loc 1 305 0
 481 0008 034A     		ldr	r2, .L36
 482 000a 7B68     		ldr	r3, [r7, #4]
 483 000c 1360     		str	r3, [r2]
 306:Generated_Source\PSoC5/SHIFTREG_ENC_2.c **** }
 484              		.loc 1 306 0
 485 000e 00BF     		nop
 486 0010 0C37     		adds	r7, r7, #12
 487              		.cfi_def_cfa_offset 4
 488 0012 BD46     		mov	sp, r7
 489              		.cfi_def_cfa_register 13
 490              		@ sp needed
 491 0014 80BC     		pop	{r7}
 492              		.cfi_restore 7
ARM GAS  C:\Users\Mattia\AppData\Local\Temp\ccYxBDtg.s 			page 15


 493              		.cfi_def_cfa_offset 0
 494 0016 7047     		bx	lr
 495              	.L37:
 496              		.align	2
 497              	.L36:
 498 0018 04650040 		.word	1073767684
 499              		.cfi_endproc
 500              	.LFE9:
 501              		.size	SHIFTREG_ENC_2_WriteRegValue, .-SHIFTREG_ENC_2_WriteRegValue
 502              		.section	.text.SHIFTREG_ENC_2_ReadData,"ax",%progbits
 503              		.align	2
 504              		.global	SHIFTREG_ENC_2_ReadData
 505              		.thumb
 506              		.thumb_func
 507              		.type	SHIFTREG_ENC_2_ReadData, %function
 508              	SHIFTREG_ENC_2_ReadData:
 509              	.LFB10:
 307:Generated_Source\PSoC5/SHIFTREG_ENC_2.c **** 
 308:Generated_Source\PSoC5/SHIFTREG_ENC_2.c **** 
 309:Generated_Source\PSoC5/SHIFTREG_ENC_2.c **** #if(0u != SHIFTREG_ENC_2_USE_INPUT_FIFO)
 310:Generated_Source\PSoC5/SHIFTREG_ENC_2.c ****     /*******************************************************************************
 311:Generated_Source\PSoC5/SHIFTREG_ENC_2.c ****     * Function Name: SHIFTREG_ENC_2_WriteData
 312:Generated_Source\PSoC5/SHIFTREG_ENC_2.c ****     ********************************************************************************
 313:Generated_Source\PSoC5/SHIFTREG_ENC_2.c ****     *
 314:Generated_Source\PSoC5/SHIFTREG_ENC_2.c ****     * Summary:
 315:Generated_Source\PSoC5/SHIFTREG_ENC_2.c ****     *  Send state to FIFO for later transfer to shift register based on the Load
 316:Generated_Source\PSoC5/SHIFTREG_ENC_2.c ****     *  input
 317:Generated_Source\PSoC5/SHIFTREG_ENC_2.c ****     *
 318:Generated_Source\PSoC5/SHIFTREG_ENC_2.c ****     * Parameters:
 319:Generated_Source\PSoC5/SHIFTREG_ENC_2.c ****     *  shiftData: containing shift register state.
 320:Generated_Source\PSoC5/SHIFTREG_ENC_2.c ****     *
 321:Generated_Source\PSoC5/SHIFTREG_ENC_2.c ****     * Return:
 322:Generated_Source\PSoC5/SHIFTREG_ENC_2.c ****     *  Indicates: successful execution of function
 323:Generated_Source\PSoC5/SHIFTREG_ENC_2.c ****     *  when FIFO is empty; and error when FIFO is full.
 324:Generated_Source\PSoC5/SHIFTREG_ENC_2.c ****     *
 325:Generated_Source\PSoC5/SHIFTREG_ENC_2.c ****     * Reentrant:
 326:Generated_Source\PSoC5/SHIFTREG_ENC_2.c ****     *  No.
 327:Generated_Source\PSoC5/SHIFTREG_ENC_2.c ****     *
 328:Generated_Source\PSoC5/SHIFTREG_ENC_2.c ****     *******************************************************************************/
 329:Generated_Source\PSoC5/SHIFTREG_ENC_2.c ****     cystatus SHIFTREG_ENC_2_WriteData(uint32 shiftData)
 330:Generated_Source\PSoC5/SHIFTREG_ENC_2.c ****                                                                          
 331:Generated_Source\PSoC5/SHIFTREG_ENC_2.c ****     {
 332:Generated_Source\PSoC5/SHIFTREG_ENC_2.c ****         cystatus result;
 333:Generated_Source\PSoC5/SHIFTREG_ENC_2.c **** 
 334:Generated_Source\PSoC5/SHIFTREG_ENC_2.c ****         result = CYRET_INVALID_STATE;
 335:Generated_Source\PSoC5/SHIFTREG_ENC_2.c **** 
 336:Generated_Source\PSoC5/SHIFTREG_ENC_2.c ****         /* Writes data into the input FIFO if it is not FULL */
 337:Generated_Source\PSoC5/SHIFTREG_ENC_2.c ****         if(SHIFTREG_ENC_2_RET_FIFO_FULL != (SHIFTREG_ENC_2_GetFIFOStatus(SHIFTREG_ENC_2_IN_FIFO)))
 338:Generated_Source\PSoC5/SHIFTREG_ENC_2.c ****         {
 339:Generated_Source\PSoC5/SHIFTREG_ENC_2.c ****             CY_SET_REG32(SHIFTREG_ENC_2_IN_FIFO_VAL_LSB_PTR, shiftData);
 340:Generated_Source\PSoC5/SHIFTREG_ENC_2.c ****             result = CYRET_SUCCESS;
 341:Generated_Source\PSoC5/SHIFTREG_ENC_2.c ****         }
 342:Generated_Source\PSoC5/SHIFTREG_ENC_2.c **** 
 343:Generated_Source\PSoC5/SHIFTREG_ENC_2.c ****         return(result);
 344:Generated_Source\PSoC5/SHIFTREG_ENC_2.c ****     }
 345:Generated_Source\PSoC5/SHIFTREG_ENC_2.c **** #endif /* (0u != SHIFTREG_ENC_2_USE_INPUT_FIFO) */
 346:Generated_Source\PSoC5/SHIFTREG_ENC_2.c **** 
ARM GAS  C:\Users\Mattia\AppData\Local\Temp\ccYxBDtg.s 			page 16


 347:Generated_Source\PSoC5/SHIFTREG_ENC_2.c **** 
 348:Generated_Source\PSoC5/SHIFTREG_ENC_2.c **** #if(0u != SHIFTREG_ENC_2_USE_OUTPUT_FIFO)
 349:Generated_Source\PSoC5/SHIFTREG_ENC_2.c ****     /*******************************************************************************
 350:Generated_Source\PSoC5/SHIFTREG_ENC_2.c ****     * Function Name: SHIFTREG_ENC_2_ReadData
 351:Generated_Source\PSoC5/SHIFTREG_ENC_2.c ****     ********************************************************************************
 352:Generated_Source\PSoC5/SHIFTREG_ENC_2.c ****     *
 353:Generated_Source\PSoC5/SHIFTREG_ENC_2.c ****     * Summary:
 354:Generated_Source\PSoC5/SHIFTREG_ENC_2.c ****     *  Returns state in FIFO due to Store input.
 355:Generated_Source\PSoC5/SHIFTREG_ENC_2.c ****     *
 356:Generated_Source\PSoC5/SHIFTREG_ENC_2.c ****     * Parameters:
 357:Generated_Source\PSoC5/SHIFTREG_ENC_2.c ****     *  None.
 358:Generated_Source\PSoC5/SHIFTREG_ENC_2.c ****     *
 359:Generated_Source\PSoC5/SHIFTREG_ENC_2.c ****     * Return:
 360:Generated_Source\PSoC5/SHIFTREG_ENC_2.c ****     *  Shift Register state
 361:Generated_Source\PSoC5/SHIFTREG_ENC_2.c ****     *
 362:Generated_Source\PSoC5/SHIFTREG_ENC_2.c ****     * Reentrant:
 363:Generated_Source\PSoC5/SHIFTREG_ENC_2.c ****     *  No.
 364:Generated_Source\PSoC5/SHIFTREG_ENC_2.c ****     *
 365:Generated_Source\PSoC5/SHIFTREG_ENC_2.c ****     *******************************************************************************/
 366:Generated_Source\PSoC5/SHIFTREG_ENC_2.c ****     uint32 SHIFTREG_ENC_2_ReadData(void) 
 367:Generated_Source\PSoC5/SHIFTREG_ENC_2.c ****     {
 510              		.loc 1 367 0
 511              		.cfi_startproc
 512              		@ args = 0, pretend = 0, frame = 0
 513              		@ frame_needed = 1, uses_anonymous_args = 0
 514              		@ link register save eliminated.
 515 0000 80B4     		push	{r7}
 516              		.cfi_def_cfa_offset 4
 517              		.cfi_offset 7, -4
 518 0002 00AF     		add	r7, sp, #0
 519              		.cfi_def_cfa_register 7
 368:Generated_Source\PSoC5/SHIFTREG_ENC_2.c ****         return(CY_GET_REG32(SHIFTREG_ENC_2_OUT_FIFO_VAL_LSB_PTR));
 520              		.loc 1 368 0
 521 0004 024B     		ldr	r3, .L40
 522 0006 1B68     		ldr	r3, [r3]
 369:Generated_Source\PSoC5/SHIFTREG_ENC_2.c ****     }
 523              		.loc 1 369 0
 524 0008 1846     		mov	r0, r3
 525 000a BD46     		mov	sp, r7
 526              		.cfi_def_cfa_register 13
 527              		@ sp needed
 528 000c 80BC     		pop	{r7}
 529              		.cfi_restore 7
 530              		.cfi_def_cfa_offset 0
 531 000e 7047     		bx	lr
 532              	.L41:
 533              		.align	2
 534              	.L40:
 535 0010 54650040 		.word	1073767764
 536              		.cfi_endproc
 537              	.LFE10:
 538              		.size	SHIFTREG_ENC_2_ReadData, .-SHIFTREG_ENC_2_ReadData
 539              		.section	.text.SHIFTREG_ENC_2_ReadRegValue,"ax",%progbits
 540              		.align	2
 541              		.global	SHIFTREG_ENC_2_ReadRegValue
 542              		.thumb
 543              		.thumb_func
ARM GAS  C:\Users\Mattia\AppData\Local\Temp\ccYxBDtg.s 			page 17


 544              		.type	SHIFTREG_ENC_2_ReadRegValue, %function
 545              	SHIFTREG_ENC_2_ReadRegValue:
 546              	.LFB11:
 370:Generated_Source\PSoC5/SHIFTREG_ENC_2.c **** #endif /* (0u != SHIFTREG_ENC_2_USE_OUTPUT_FIFO) */
 371:Generated_Source\PSoC5/SHIFTREG_ENC_2.c **** 
 372:Generated_Source\PSoC5/SHIFTREG_ENC_2.c **** 
 373:Generated_Source\PSoC5/SHIFTREG_ENC_2.c **** /*******************************************************************************
 374:Generated_Source\PSoC5/SHIFTREG_ENC_2.c **** * Function Name: SHIFTREG_ENC_2_ReadRegValue
 375:Generated_Source\PSoC5/SHIFTREG_ENC_2.c **** ********************************************************************************
 376:Generated_Source\PSoC5/SHIFTREG_ENC_2.c **** *
 377:Generated_Source\PSoC5/SHIFTREG_ENC_2.c **** * Summary:
 378:Generated_Source\PSoC5/SHIFTREG_ENC_2.c **** *  Directly returns current state in shift register, not data in FIFO due
 379:Generated_Source\PSoC5/SHIFTREG_ENC_2.c **** *  to Store input.
 380:Generated_Source\PSoC5/SHIFTREG_ENC_2.c **** *
 381:Generated_Source\PSoC5/SHIFTREG_ENC_2.c **** * Parameters:
 382:Generated_Source\PSoC5/SHIFTREG_ENC_2.c **** *  None.
 383:Generated_Source\PSoC5/SHIFTREG_ENC_2.c **** *
 384:Generated_Source\PSoC5/SHIFTREG_ENC_2.c **** * Return:
 385:Generated_Source\PSoC5/SHIFTREG_ENC_2.c **** *  Shift Register state. Clears output FIFO.
 386:Generated_Source\PSoC5/SHIFTREG_ENC_2.c **** *
 387:Generated_Source\PSoC5/SHIFTREG_ENC_2.c **** * Reentrant:
 388:Generated_Source\PSoC5/SHIFTREG_ENC_2.c **** *  No.
 389:Generated_Source\PSoC5/SHIFTREG_ENC_2.c **** *
 390:Generated_Source\PSoC5/SHIFTREG_ENC_2.c **** *******************************************************************************/
 391:Generated_Source\PSoC5/SHIFTREG_ENC_2.c **** uint32 SHIFTREG_ENC_2_ReadRegValue(void) 
 392:Generated_Source\PSoC5/SHIFTREG_ENC_2.c **** {
 547              		.loc 1 392 0
 548              		.cfi_startproc
 549              		@ args = 0, pretend = 0, frame = 8
 550              		@ frame_needed = 1, uses_anonymous_args = 0
 551 0000 80B5     		push	{r7, lr}
 552              		.cfi_def_cfa_offset 8
 553              		.cfi_offset 7, -8
 554              		.cfi_offset 14, -4
 555 0002 82B0     		sub	sp, sp, #8
 556              		.cfi_def_cfa_offset 16
 557 0004 00AF     		add	r7, sp, #0
 558              		.cfi_def_cfa_register 7
 393:Generated_Source\PSoC5/SHIFTREG_ENC_2.c ****     uint32 result;
 394:Generated_Source\PSoC5/SHIFTREG_ENC_2.c **** 
 395:Generated_Source\PSoC5/SHIFTREG_ENC_2.c ****     /* Clear FIFO before software capture */
 396:Generated_Source\PSoC5/SHIFTREG_ENC_2.c ****     while(SHIFTREG_ENC_2_RET_FIFO_EMPTY != SHIFTREG_ENC_2_GetFIFOStatus(SHIFTREG_ENC_2_OUT_FIFO))
 559              		.loc 1 396 0
 560 0006 01E0     		b	.L43
 561              	.L44:
 397:Generated_Source\PSoC5/SHIFTREG_ENC_2.c ****     {
 398:Generated_Source\PSoC5/SHIFTREG_ENC_2.c ****         (void) CY_GET_REG32(SHIFTREG_ENC_2_OUT_FIFO_VAL_LSB_PTR);
 562              		.loc 1 398 0
 563 0008 084B     		ldr	r3, .L46
 564 000a 1B68     		ldr	r3, [r3]
 565              	.L43:
 396:Generated_Source\PSoC5/SHIFTREG_ENC_2.c ****     {
 566              		.loc 1 396 0
 567 000c 0220     		movs	r0, #2
 568 000e FFF7FEFF 		bl	SHIFTREG_ENC_2_GetFIFOStatus
 569 0012 0346     		mov	r3, r0
 570 0014 022B     		cmp	r3, #2
ARM GAS  C:\Users\Mattia\AppData\Local\Temp\ccYxBDtg.s 			page 18


 571 0016 F7D1     		bne	.L44
 399:Generated_Source\PSoC5/SHIFTREG_ENC_2.c ****     }
 400:Generated_Source\PSoC5/SHIFTREG_ENC_2.c **** 
 401:Generated_Source\PSoC5/SHIFTREG_ENC_2.c ****     /* Read of 8 bits from A1 causes capture to output FIFO */
 402:Generated_Source\PSoC5/SHIFTREG_ENC_2.c ****     (void) CY_GET_REG8(SHIFTREG_ENC_2_SHIFT_REG_CAPTURE_PTR);
 572              		.loc 1 402 0
 573 0018 054B     		ldr	r3, .L46+4
 574 001a 1B78     		ldrb	r3, [r3]
 403:Generated_Source\PSoC5/SHIFTREG_ENC_2.c **** 
 404:Generated_Source\PSoC5/SHIFTREG_ENC_2.c ****     /* Read output FIFO */
 405:Generated_Source\PSoC5/SHIFTREG_ENC_2.c ****     result  = CY_GET_REG32(SHIFTREG_ENC_2_OUT_FIFO_VAL_LSB_PTR);
 575              		.loc 1 405 0
 576 001c 034B     		ldr	r3, .L46
 577 001e 1B68     		ldr	r3, [r3]
 578 0020 7B60     		str	r3, [r7, #4]
 406:Generated_Source\PSoC5/SHIFTREG_ENC_2.c ****     
 407:Generated_Source\PSoC5/SHIFTREG_ENC_2.c ****     #if(0u != (SHIFTREG_ENC_2_SR_SIZE % 8u))
 408:Generated_Source\PSoC5/SHIFTREG_ENC_2.c ****         result &= ((uint32) SHIFTREG_ENC_2_SR_MASK);
 409:Generated_Source\PSoC5/SHIFTREG_ENC_2.c ****     #endif /* (0u != (SHIFTREG_ENC_2_SR_SIZE % 8u)) */
 410:Generated_Source\PSoC5/SHIFTREG_ENC_2.c ****     
 411:Generated_Source\PSoC5/SHIFTREG_ENC_2.c ****     return(result);
 579              		.loc 1 411 0
 580 0022 7B68     		ldr	r3, [r7, #4]
 412:Generated_Source\PSoC5/SHIFTREG_ENC_2.c **** }
 581              		.loc 1 412 0
 582 0024 1846     		mov	r0, r3
 583 0026 0837     		adds	r7, r7, #8
 584              		.cfi_def_cfa_offset 8
 585 0028 BD46     		mov	sp, r7
 586              		.cfi_def_cfa_register 13
 587              		@ sp needed
 588 002a 80BD     		pop	{r7, pc}
 589              	.L47:
 590              		.align	2
 591              	.L46:
 592 002c 54650040 		.word	1073767764
 593 0030 14650040 		.word	1073767700
 594              		.cfi_endproc
 595              	.LFE11:
 596              		.size	SHIFTREG_ENC_2_ReadRegValue, .-SHIFTREG_ENC_2_ReadRegValue
 597              		.text
 598              	.Letext0:
 599              		.file 2 "Generated_Source\\PSoC5\\cytypes.h"