ARM GAS  C:\Users\MattiaCP\AppData\Local\Temp\ccAkBnvC.s 			page 1


   1              		.syntax unified
   2              		.cpu cortex-m3
   3              		.fpu softvfp
   4              		.eabi_attribute 20, 1
   5              		.eabi_attribute 21, 1
   6              		.eabi_attribute 23, 3
   7              		.eabi_attribute 24, 1
   8              		.eabi_attribute 25, 1
   9              		.eabi_attribute 26, 1
  10              		.eabi_attribute 30, 6
  11              		.eabi_attribute 34, 1
  12              		.eabi_attribute 18, 4
  13              		.thumb
  14              		.syntax unified
  15              		.file	"SPI_ENCODER_INT.c"
  16              		.text
  17              	.Ltext0:
  18              		.cfi_sections	.debug_frame
  19              		.section	.text.SPI_ENCODER_TX_ISR,"ax",%progbits
  20              		.align	2
  21              		.global	SPI_ENCODER_TX_ISR
  22              		.thumb
  23              		.thumb_func
  24              		.type	SPI_ENCODER_TX_ISR, %function
  25              	SPI_ENCODER_TX_ISR:
  26              	.LFB0:
  27              		.file 1 "Generated_Source\\PSoC5\\SPI_ENCODER_INT.c"
   1:Generated_Source\PSoC5/SPI_ENCODER_INT.c **** /*******************************************************************************
   2:Generated_Source\PSoC5/SPI_ENCODER_INT.c **** * File Name: SPI_ENCODER_INT.c
   3:Generated_Source\PSoC5/SPI_ENCODER_INT.c **** * Version 2.50
   4:Generated_Source\PSoC5/SPI_ENCODER_INT.c **** *
   5:Generated_Source\PSoC5/SPI_ENCODER_INT.c **** * Description:
   6:Generated_Source\PSoC5/SPI_ENCODER_INT.c **** *  This file provides all Interrupt Service Routine (ISR) for the SPI Master
   7:Generated_Source\PSoC5/SPI_ENCODER_INT.c **** *  component.
   8:Generated_Source\PSoC5/SPI_ENCODER_INT.c **** *
   9:Generated_Source\PSoC5/SPI_ENCODER_INT.c **** * Note:
  10:Generated_Source\PSoC5/SPI_ENCODER_INT.c **** *  None.
  11:Generated_Source\PSoC5/SPI_ENCODER_INT.c **** *
  12:Generated_Source\PSoC5/SPI_ENCODER_INT.c **** ********************************************************************************
  13:Generated_Source\PSoC5/SPI_ENCODER_INT.c **** * Copyright 2008-2015, Cypress Semiconductor Corporation.  All rights reserved.
  14:Generated_Source\PSoC5/SPI_ENCODER_INT.c **** * You may use this file only in accordance with the license, terms, conditions,
  15:Generated_Source\PSoC5/SPI_ENCODER_INT.c **** * disclaimers, and limitations in the end user license agreement accompanying
  16:Generated_Source\PSoC5/SPI_ENCODER_INT.c **** * the software package with which this file was provided.
  17:Generated_Source\PSoC5/SPI_ENCODER_INT.c **** *******************************************************************************/
  18:Generated_Source\PSoC5/SPI_ENCODER_INT.c **** 
  19:Generated_Source\PSoC5/SPI_ENCODER_INT.c **** #include "SPI_ENCODER_PVT.h"
  20:Generated_Source\PSoC5/SPI_ENCODER_INT.c **** #include "cyapicallbacks.h"
  21:Generated_Source\PSoC5/SPI_ENCODER_INT.c **** 
  22:Generated_Source\PSoC5/SPI_ENCODER_INT.c **** /* User code required at start of ISR */
  23:Generated_Source\PSoC5/SPI_ENCODER_INT.c **** /* `#START SPI_ENCODER_ISR_START_DEF` */
  24:Generated_Source\PSoC5/SPI_ENCODER_INT.c **** 
  25:Generated_Source\PSoC5/SPI_ENCODER_INT.c **** /* `#END` */
  26:Generated_Source\PSoC5/SPI_ENCODER_INT.c **** 
  27:Generated_Source\PSoC5/SPI_ENCODER_INT.c **** 
  28:Generated_Source\PSoC5/SPI_ENCODER_INT.c **** /*******************************************************************************
  29:Generated_Source\PSoC5/SPI_ENCODER_INT.c **** * Function Name: SPI_ENCODER_TX_ISR
  30:Generated_Source\PSoC5/SPI_ENCODER_INT.c **** ********************************************************************************
ARM GAS  C:\Users\MattiaCP\AppData\Local\Temp\ccAkBnvC.s 			page 2


  31:Generated_Source\PSoC5/SPI_ENCODER_INT.c **** *
  32:Generated_Source\PSoC5/SPI_ENCODER_INT.c **** * Summary:
  33:Generated_Source\PSoC5/SPI_ENCODER_INT.c **** *  Interrupt Service Routine for TX portion of the SPI Master.
  34:Generated_Source\PSoC5/SPI_ENCODER_INT.c **** *
  35:Generated_Source\PSoC5/SPI_ENCODER_INT.c **** * Parameters:
  36:Generated_Source\PSoC5/SPI_ENCODER_INT.c **** *  None.
  37:Generated_Source\PSoC5/SPI_ENCODER_INT.c **** *
  38:Generated_Source\PSoC5/SPI_ENCODER_INT.c **** * Return:
  39:Generated_Source\PSoC5/SPI_ENCODER_INT.c **** *  None.
  40:Generated_Source\PSoC5/SPI_ENCODER_INT.c **** *
  41:Generated_Source\PSoC5/SPI_ENCODER_INT.c **** * Global variables:
  42:Generated_Source\PSoC5/SPI_ENCODER_INT.c **** *  SPI_ENCODER_txBufferWrite - used for the account of the bytes which
  43:Generated_Source\PSoC5/SPI_ENCODER_INT.c **** *  have been written down in the TX software buffer.
  44:Generated_Source\PSoC5/SPI_ENCODER_INT.c **** *  SPI_ENCODER_txBufferRead - used for the account of the bytes which
  45:Generated_Source\PSoC5/SPI_ENCODER_INT.c **** *  have been read from the TX software buffer, modified when exist data to
  46:Generated_Source\PSoC5/SPI_ENCODER_INT.c **** *  sending and FIFO Not Full.
  47:Generated_Source\PSoC5/SPI_ENCODER_INT.c **** *  SPI_ENCODER_txBuffer[SPI_ENCODER_TX_BUFFER_SIZE] - used to store
  48:Generated_Source\PSoC5/SPI_ENCODER_INT.c **** *  data to sending.
  49:Generated_Source\PSoC5/SPI_ENCODER_INT.c **** *  All described above Global variables are used when Software Buffer is used.
  50:Generated_Source\PSoC5/SPI_ENCODER_INT.c **** *
  51:Generated_Source\PSoC5/SPI_ENCODER_INT.c **** *******************************************************************************/
  52:Generated_Source\PSoC5/SPI_ENCODER_INT.c **** CY_ISR(SPI_ENCODER_TX_ISR)
  53:Generated_Source\PSoC5/SPI_ENCODER_INT.c **** {
  28              		.loc 1 53 0
  29              		.cfi_startproc
  30              		@ args = 0, pretend = 0, frame = 0
  31              		@ frame_needed = 1, uses_anonymous_args = 0
  32              		@ link register save eliminated.
  33 0000 80B4     		push	{r7}
  34              		.cfi_def_cfa_offset 4
  35              		.cfi_offset 7, -4
  36 0002 00AF     		add	r7, sp, #0
  37              		.cfi_def_cfa_register 7
  54:Generated_Source\PSoC5/SPI_ENCODER_INT.c ****     #if(SPI_ENCODER_TX_SOFTWARE_BUF_ENABLED)
  55:Generated_Source\PSoC5/SPI_ENCODER_INT.c ****         uint8 tmpStatus;
  56:Generated_Source\PSoC5/SPI_ENCODER_INT.c ****     #endif /* (SPI_ENCODER_TX_SOFTWARE_BUF_ENABLED) */
  57:Generated_Source\PSoC5/SPI_ENCODER_INT.c **** 
  58:Generated_Source\PSoC5/SPI_ENCODER_INT.c ****     #ifdef SPI_ENCODER_TX_ISR_ENTRY_CALLBACK
  59:Generated_Source\PSoC5/SPI_ENCODER_INT.c ****         SPI_ENCODER_TX_ISR_EntryCallback();
  60:Generated_Source\PSoC5/SPI_ENCODER_INT.c ****     #endif /* SPI_ENCODER_TX_ISR_ENTRY_CALLBACK */
  61:Generated_Source\PSoC5/SPI_ENCODER_INT.c **** 
  62:Generated_Source\PSoC5/SPI_ENCODER_INT.c ****     /* User code required at start of ISR */
  63:Generated_Source\PSoC5/SPI_ENCODER_INT.c ****     /* `#START SPI_ENCODER_TX_ISR_START` */
  64:Generated_Source\PSoC5/SPI_ENCODER_INT.c **** 
  65:Generated_Source\PSoC5/SPI_ENCODER_INT.c ****     /* `#END` */
  66:Generated_Source\PSoC5/SPI_ENCODER_INT.c ****     
  67:Generated_Source\PSoC5/SPI_ENCODER_INT.c ****     #if(SPI_ENCODER_TX_SOFTWARE_BUF_ENABLED)
  68:Generated_Source\PSoC5/SPI_ENCODER_INT.c ****         /* Check if TX data buffer is not empty and there is space in TX FIFO */
  69:Generated_Source\PSoC5/SPI_ENCODER_INT.c ****         while(SPI_ENCODER_txBufferRead != SPI_ENCODER_txBufferWrite)
  70:Generated_Source\PSoC5/SPI_ENCODER_INT.c ****         {
  71:Generated_Source\PSoC5/SPI_ENCODER_INT.c ****             tmpStatus = SPI_ENCODER_GET_STATUS_TX(SPI_ENCODER_swStatusTx);
  72:Generated_Source\PSoC5/SPI_ENCODER_INT.c ****             SPI_ENCODER_swStatusTx = tmpStatus;
  73:Generated_Source\PSoC5/SPI_ENCODER_INT.c **** 
  74:Generated_Source\PSoC5/SPI_ENCODER_INT.c ****             if(0u != (SPI_ENCODER_swStatusTx & SPI_ENCODER_STS_TX_FIFO_NOT_FULL))
  75:Generated_Source\PSoC5/SPI_ENCODER_INT.c ****             {
  76:Generated_Source\PSoC5/SPI_ENCODER_INT.c ****                 if(0u == SPI_ENCODER_txBufferFull)
  77:Generated_Source\PSoC5/SPI_ENCODER_INT.c ****                 {
ARM GAS  C:\Users\MattiaCP\AppData\Local\Temp\ccAkBnvC.s 			page 3


  78:Generated_Source\PSoC5/SPI_ENCODER_INT.c ****                    SPI_ENCODER_txBufferRead++;
  79:Generated_Source\PSoC5/SPI_ENCODER_INT.c **** 
  80:Generated_Source\PSoC5/SPI_ENCODER_INT.c ****                     if(SPI_ENCODER_txBufferRead >= SPI_ENCODER_TX_BUFFER_SIZE)
  81:Generated_Source\PSoC5/SPI_ENCODER_INT.c ****                     {
  82:Generated_Source\PSoC5/SPI_ENCODER_INT.c ****                         SPI_ENCODER_txBufferRead = 0u;
  83:Generated_Source\PSoC5/SPI_ENCODER_INT.c ****                     }
  84:Generated_Source\PSoC5/SPI_ENCODER_INT.c ****                 }
  85:Generated_Source\PSoC5/SPI_ENCODER_INT.c ****                 else
  86:Generated_Source\PSoC5/SPI_ENCODER_INT.c ****                 {
  87:Generated_Source\PSoC5/SPI_ENCODER_INT.c ****                     SPI_ENCODER_txBufferFull = 0u;
  88:Generated_Source\PSoC5/SPI_ENCODER_INT.c ****                 }
  89:Generated_Source\PSoC5/SPI_ENCODER_INT.c **** 
  90:Generated_Source\PSoC5/SPI_ENCODER_INT.c ****                 /* Put data element into the TX FIFO */
  91:Generated_Source\PSoC5/SPI_ENCODER_INT.c ****                 CY_SET_REG16(SPI_ENCODER_TXDATA_PTR, 
  92:Generated_Source\PSoC5/SPI_ENCODER_INT.c ****                                              SPI_ENCODER_txBuffer[SPI_ENCODER_txBufferRead]);
  93:Generated_Source\PSoC5/SPI_ENCODER_INT.c ****             }
  94:Generated_Source\PSoC5/SPI_ENCODER_INT.c ****             else
  95:Generated_Source\PSoC5/SPI_ENCODER_INT.c ****             {
  96:Generated_Source\PSoC5/SPI_ENCODER_INT.c ****                 break;
  97:Generated_Source\PSoC5/SPI_ENCODER_INT.c ****             }
  98:Generated_Source\PSoC5/SPI_ENCODER_INT.c ****         }
  99:Generated_Source\PSoC5/SPI_ENCODER_INT.c **** 
 100:Generated_Source\PSoC5/SPI_ENCODER_INT.c ****         if(SPI_ENCODER_txBufferRead == SPI_ENCODER_txBufferWrite)
 101:Generated_Source\PSoC5/SPI_ENCODER_INT.c ****         {
 102:Generated_Source\PSoC5/SPI_ENCODER_INT.c ****             /* TX Buffer is EMPTY: disable interrupt on TX NOT FULL */
 103:Generated_Source\PSoC5/SPI_ENCODER_INT.c ****             SPI_ENCODER_TX_STATUS_MASK_REG &= ((uint8) ~SPI_ENCODER_STS_TX_FIFO_NOT_FULL);
 104:Generated_Source\PSoC5/SPI_ENCODER_INT.c ****         }
 105:Generated_Source\PSoC5/SPI_ENCODER_INT.c **** 
 106:Generated_Source\PSoC5/SPI_ENCODER_INT.c ****     #endif /* (SPI_ENCODER_TX_SOFTWARE_BUF_ENABLED) */
 107:Generated_Source\PSoC5/SPI_ENCODER_INT.c **** 
 108:Generated_Source\PSoC5/SPI_ENCODER_INT.c ****     /* User code required at end of ISR (Optional) */
 109:Generated_Source\PSoC5/SPI_ENCODER_INT.c ****     /* `#START SPI_ENCODER_TX_ISR_END` */
 110:Generated_Source\PSoC5/SPI_ENCODER_INT.c **** 
 111:Generated_Source\PSoC5/SPI_ENCODER_INT.c ****     /* `#END` */
 112:Generated_Source\PSoC5/SPI_ENCODER_INT.c ****     
 113:Generated_Source\PSoC5/SPI_ENCODER_INT.c ****     #ifdef SPI_ENCODER_TX_ISR_EXIT_CALLBACK
 114:Generated_Source\PSoC5/SPI_ENCODER_INT.c ****         SPI_ENCODER_TX_ISR_ExitCallback();
 115:Generated_Source\PSoC5/SPI_ENCODER_INT.c ****     #endif /* SPI_ENCODER_TX_ISR_EXIT_CALLBACK */
 116:Generated_Source\PSoC5/SPI_ENCODER_INT.c **** }
  38              		.loc 1 116 0
  39 0004 00BF     		nop
  40 0006 BD46     		mov	sp, r7
  41              		.cfi_def_cfa_register 13
  42              		@ sp needed
  43 0008 80BC     		pop	{r7}
  44              		.cfi_restore 7
  45              		.cfi_def_cfa_offset 0
  46 000a 7047     		bx	lr
  47              		.cfi_endproc
  48              	.LFE0:
  49              		.size	SPI_ENCODER_TX_ISR, .-SPI_ENCODER_TX_ISR
  50              		.section	.text.SPI_ENCODER_RX_ISR,"ax",%progbits
  51              		.align	2
  52              		.global	SPI_ENCODER_RX_ISR
  53              		.thumb
  54              		.thumb_func
  55              		.type	SPI_ENCODER_RX_ISR, %function
ARM GAS  C:\Users\MattiaCP\AppData\Local\Temp\ccAkBnvC.s 			page 4


  56              	SPI_ENCODER_RX_ISR:
  57              	.LFB1:
 117:Generated_Source\PSoC5/SPI_ENCODER_INT.c **** 
 118:Generated_Source\PSoC5/SPI_ENCODER_INT.c **** 
 119:Generated_Source\PSoC5/SPI_ENCODER_INT.c **** /*******************************************************************************
 120:Generated_Source\PSoC5/SPI_ENCODER_INT.c **** * Function Name: SPI_ENCODER_RX_ISR
 121:Generated_Source\PSoC5/SPI_ENCODER_INT.c **** ********************************************************************************
 122:Generated_Source\PSoC5/SPI_ENCODER_INT.c **** *
 123:Generated_Source\PSoC5/SPI_ENCODER_INT.c **** * Summary:
 124:Generated_Source\PSoC5/SPI_ENCODER_INT.c **** *  Interrupt Service Routine for RX portion of the SPI Master.
 125:Generated_Source\PSoC5/SPI_ENCODER_INT.c **** *
 126:Generated_Source\PSoC5/SPI_ENCODER_INT.c **** * Parameters:
 127:Generated_Source\PSoC5/SPI_ENCODER_INT.c **** *  None.
 128:Generated_Source\PSoC5/SPI_ENCODER_INT.c **** *
 129:Generated_Source\PSoC5/SPI_ENCODER_INT.c **** * Return:
 130:Generated_Source\PSoC5/SPI_ENCODER_INT.c **** *  None.
 131:Generated_Source\PSoC5/SPI_ENCODER_INT.c **** *
 132:Generated_Source\PSoC5/SPI_ENCODER_INT.c **** * Global variables:
 133:Generated_Source\PSoC5/SPI_ENCODER_INT.c **** *  SPI_ENCODER_rxBufferWrite - used for the account of the bytes which
 134:Generated_Source\PSoC5/SPI_ENCODER_INT.c **** *  have been written down in the RX software buffer modified when FIFO contains
 135:Generated_Source\PSoC5/SPI_ENCODER_INT.c **** *  new data.
 136:Generated_Source\PSoC5/SPI_ENCODER_INT.c **** *  SPI_ENCODER_rxBufferRead - used for the account of the bytes which
 137:Generated_Source\PSoC5/SPI_ENCODER_INT.c **** *  have been read from the RX software buffer, modified when overflow occurred.
 138:Generated_Source\PSoC5/SPI_ENCODER_INT.c **** *  SPI_ENCODER_rxBuffer[SPI_ENCODER_RX_BUFFER_SIZE] - used to store
 139:Generated_Source\PSoC5/SPI_ENCODER_INT.c **** *  received data, modified when FIFO contains new data.
 140:Generated_Source\PSoC5/SPI_ENCODER_INT.c **** *  All described above Global variables are used when Software Buffer is used.
 141:Generated_Source\PSoC5/SPI_ENCODER_INT.c **** *
 142:Generated_Source\PSoC5/SPI_ENCODER_INT.c **** *******************************************************************************/
 143:Generated_Source\PSoC5/SPI_ENCODER_INT.c **** CY_ISR(SPI_ENCODER_RX_ISR)
 144:Generated_Source\PSoC5/SPI_ENCODER_INT.c **** {
  58              		.loc 1 144 0
  59              		.cfi_startproc
  60              		@ args = 0, pretend = 0, frame = 8
  61              		@ frame_needed = 1, uses_anonymous_args = 0
  62              		@ link register save eliminated.
  63 0000 80B4     		push	{r7}
  64              		.cfi_def_cfa_offset 4
  65              		.cfi_offset 7, -4
  66 0002 83B0     		sub	sp, sp, #12
  67              		.cfi_def_cfa_offset 16
  68 0004 00AF     		add	r7, sp, #0
  69              		.cfi_def_cfa_register 7
 145:Generated_Source\PSoC5/SPI_ENCODER_INT.c ****     #if(SPI_ENCODER_RX_SOFTWARE_BUF_ENABLED)
 146:Generated_Source\PSoC5/SPI_ENCODER_INT.c ****         uint8 tmpStatus;
 147:Generated_Source\PSoC5/SPI_ENCODER_INT.c ****         uint16 rxData;
 148:Generated_Source\PSoC5/SPI_ENCODER_INT.c ****     #endif /* (SPI_ENCODER_RX_SOFTWARE_BUF_ENABLED) */
 149:Generated_Source\PSoC5/SPI_ENCODER_INT.c **** 
 150:Generated_Source\PSoC5/SPI_ENCODER_INT.c ****     #ifdef SPI_ENCODER_RX_ISR_ENTRY_CALLBACK
 151:Generated_Source\PSoC5/SPI_ENCODER_INT.c ****         SPI_ENCODER_RX_ISR_EntryCallback();
 152:Generated_Source\PSoC5/SPI_ENCODER_INT.c ****     #endif /* SPI_ENCODER_RX_ISR_ENTRY_CALLBACK */
 153:Generated_Source\PSoC5/SPI_ENCODER_INT.c **** 
 154:Generated_Source\PSoC5/SPI_ENCODER_INT.c ****     /* User code required at start of ISR */
 155:Generated_Source\PSoC5/SPI_ENCODER_INT.c ****     /* `#START SPI_ENCODER_RX_ISR_START` */
 156:Generated_Source\PSoC5/SPI_ENCODER_INT.c **** 
 157:Generated_Source\PSoC5/SPI_ENCODER_INT.c ****     /* `#END` */
 158:Generated_Source\PSoC5/SPI_ENCODER_INT.c ****     
 159:Generated_Source\PSoC5/SPI_ENCODER_INT.c ****     #if(SPI_ENCODER_RX_SOFTWARE_BUF_ENABLED)
ARM GAS  C:\Users\MattiaCP\AppData\Local\Temp\ccAkBnvC.s 			page 5


 160:Generated_Source\PSoC5/SPI_ENCODER_INT.c **** 
 161:Generated_Source\PSoC5/SPI_ENCODER_INT.c ****         tmpStatus = SPI_ENCODER_GET_STATUS_RX(SPI_ENCODER_swStatusRx);
  70              		.loc 1 161 0
  71 0006 2E4B     		ldr	r3, .L8
  72 0008 1B78     		ldrb	r3, [r3]
  73 000a DAB2     		uxtb	r2, r3
  74 000c 2D4B     		ldr	r3, .L8+4
  75 000e 1B78     		ldrb	r3, [r3]
  76 0010 DBB2     		uxtb	r3, r3
  77 0012 03F04003 		and	r3, r3, #64
  78 0016 DBB2     		uxtb	r3, r3
  79 0018 1343     		orrs	r3, r3, r2
  80 001a FB71     		strb	r3, [r7, #7]
 162:Generated_Source\PSoC5/SPI_ENCODER_INT.c ****         SPI_ENCODER_swStatusRx = tmpStatus;
  81              		.loc 1 162 0
  82 001c 294A     		ldr	r2, .L8+4
  83 001e FB79     		ldrb	r3, [r7, #7]
  84 0020 1370     		strb	r3, [r2]
 163:Generated_Source\PSoC5/SPI_ENCODER_INT.c **** 
 164:Generated_Source\PSoC5/SPI_ENCODER_INT.c ****         /* Check if RX data FIFO has some data to be moved into the RX Buffer */
 165:Generated_Source\PSoC5/SPI_ENCODER_INT.c ****         while(0u != (SPI_ENCODER_swStatusRx & SPI_ENCODER_STS_RX_FIFO_NOT_EMPTY))
  85              		.loc 1 165 0
  86 0022 41E0     		b	.L3
  87              	.L7:
 166:Generated_Source\PSoC5/SPI_ENCODER_INT.c ****         {
 167:Generated_Source\PSoC5/SPI_ENCODER_INT.c ****             rxData = CY_GET_REG16(SPI_ENCODER_RXDATA_PTR);
  88              		.loc 1 167 0
  89 0024 284B     		ldr	r3, .L8+8
  90 0026 1B88     		ldrh	r3, [r3]	@ movhi
  91 0028 BB80     		strh	r3, [r7, #4]	@ movhi
 168:Generated_Source\PSoC5/SPI_ENCODER_INT.c **** 
 169:Generated_Source\PSoC5/SPI_ENCODER_INT.c ****             /* Set next pointer. */
 170:Generated_Source\PSoC5/SPI_ENCODER_INT.c ****             SPI_ENCODER_rxBufferWrite++;
  92              		.loc 1 170 0
  93 002a 284B     		ldr	r3, .L8+12
  94 002c 1B78     		ldrb	r3, [r3]
  95 002e DBB2     		uxtb	r3, r3
  96 0030 0133     		adds	r3, r3, #1
  97 0032 DAB2     		uxtb	r2, r3
  98 0034 254B     		ldr	r3, .L8+12
  99 0036 1A70     		strb	r2, [r3]
 171:Generated_Source\PSoC5/SPI_ENCODER_INT.c ****             if(SPI_ENCODER_rxBufferWrite >= SPI_ENCODER_RX_BUFFER_SIZE)
 100              		.loc 1 171 0
 101 0038 244B     		ldr	r3, .L8+12
 102 003a 1B78     		ldrb	r3, [r3]
 103 003c DBB2     		uxtb	r3, r3
 104 003e 092B     		cmp	r3, #9
 105 0040 02D9     		bls	.L4
 172:Generated_Source\PSoC5/SPI_ENCODER_INT.c ****             {
 173:Generated_Source\PSoC5/SPI_ENCODER_INT.c ****                 SPI_ENCODER_rxBufferWrite = 0u;
 106              		.loc 1 173 0
 107 0042 224B     		ldr	r3, .L8+12
 108 0044 0022     		movs	r2, #0
 109 0046 1A70     		strb	r2, [r3]
 110              	.L4:
 174:Generated_Source\PSoC5/SPI_ENCODER_INT.c ****             }
 175:Generated_Source\PSoC5/SPI_ENCODER_INT.c **** 
ARM GAS  C:\Users\MattiaCP\AppData\Local\Temp\ccAkBnvC.s 			page 6


 176:Generated_Source\PSoC5/SPI_ENCODER_INT.c ****             if(SPI_ENCODER_rxBufferWrite == SPI_ENCODER_rxBufferRead)
 111              		.loc 1 176 0
 112 0048 204B     		ldr	r3, .L8+12
 113 004a 1B78     		ldrb	r3, [r3]
 114 004c DAB2     		uxtb	r2, r3
 115 004e 204B     		ldr	r3, .L8+16
 116 0050 1B78     		ldrb	r3, [r3]
 117 0052 DBB2     		uxtb	r3, r3
 118 0054 9A42     		cmp	r2, r3
 119 0056 11D1     		bne	.L5
 177:Generated_Source\PSoC5/SPI_ENCODER_INT.c ****             {
 178:Generated_Source\PSoC5/SPI_ENCODER_INT.c ****                 SPI_ENCODER_rxBufferRead++;
 120              		.loc 1 178 0
 121 0058 1D4B     		ldr	r3, .L8+16
 122 005a 1B78     		ldrb	r3, [r3]
 123 005c DBB2     		uxtb	r3, r3
 124 005e 0133     		adds	r3, r3, #1
 125 0060 DAB2     		uxtb	r2, r3
 126 0062 1B4B     		ldr	r3, .L8+16
 127 0064 1A70     		strb	r2, [r3]
 179:Generated_Source\PSoC5/SPI_ENCODER_INT.c ****                 if(SPI_ENCODER_rxBufferRead >= SPI_ENCODER_RX_BUFFER_SIZE)
 128              		.loc 1 179 0
 129 0066 1A4B     		ldr	r3, .L8+16
 130 0068 1B78     		ldrb	r3, [r3]
 131 006a DBB2     		uxtb	r3, r3
 132 006c 092B     		cmp	r3, #9
 133 006e 02D9     		bls	.L6
 180:Generated_Source\PSoC5/SPI_ENCODER_INT.c ****                 {
 181:Generated_Source\PSoC5/SPI_ENCODER_INT.c ****                     SPI_ENCODER_rxBufferRead = 0u;
 134              		.loc 1 181 0
 135 0070 174B     		ldr	r3, .L8+16
 136 0072 0022     		movs	r2, #0
 137 0074 1A70     		strb	r2, [r3]
 138              	.L6:
 182:Generated_Source\PSoC5/SPI_ENCODER_INT.c ****                 }
 183:Generated_Source\PSoC5/SPI_ENCODER_INT.c **** 
 184:Generated_Source\PSoC5/SPI_ENCODER_INT.c ****                 SPI_ENCODER_rxBufferFull = 1u;
 139              		.loc 1 184 0
 140 0076 174B     		ldr	r3, .L8+20
 141 0078 0122     		movs	r2, #1
 142 007a 1A70     		strb	r2, [r3]
 143              	.L5:
 185:Generated_Source\PSoC5/SPI_ENCODER_INT.c ****             }
 186:Generated_Source\PSoC5/SPI_ENCODER_INT.c **** 
 187:Generated_Source\PSoC5/SPI_ENCODER_INT.c ****             /* Move data from the FIFO to the Buffer */
 188:Generated_Source\PSoC5/SPI_ENCODER_INT.c ****             SPI_ENCODER_rxBuffer[SPI_ENCODER_rxBufferWrite] = rxData;
 144              		.loc 1 188 0
 145 007c 134B     		ldr	r3, .L8+12
 146 007e 1B78     		ldrb	r3, [r3]
 147 0080 DBB2     		uxtb	r3, r3
 148 0082 1946     		mov	r1, r3
 149 0084 144A     		ldr	r2, .L8+24
 150 0086 BB88     		ldrh	r3, [r7, #4]	@ movhi
 151 0088 22F81130 		strh	r3, [r2, r1, lsl #1]	@ movhi
 189:Generated_Source\PSoC5/SPI_ENCODER_INT.c **** 
 190:Generated_Source\PSoC5/SPI_ENCODER_INT.c ****             tmpStatus = SPI_ENCODER_GET_STATUS_RX(SPI_ENCODER_swStatusRx);
 152              		.loc 1 190 0
ARM GAS  C:\Users\MattiaCP\AppData\Local\Temp\ccAkBnvC.s 			page 7


 153 008c 0C4B     		ldr	r3, .L8
 154 008e 1B78     		ldrb	r3, [r3]
 155 0090 DAB2     		uxtb	r2, r3
 156 0092 0C4B     		ldr	r3, .L8+4
 157 0094 1B78     		ldrb	r3, [r3]
 158 0096 DBB2     		uxtb	r3, r3
 159 0098 03F04003 		and	r3, r3, #64
 160 009c DBB2     		uxtb	r3, r3
 161 009e 1343     		orrs	r3, r3, r2
 162 00a0 FB71     		strb	r3, [r7, #7]
 191:Generated_Source\PSoC5/SPI_ENCODER_INT.c ****             SPI_ENCODER_swStatusRx = tmpStatus;
 163              		.loc 1 191 0
 164 00a2 084A     		ldr	r2, .L8+4
 165 00a4 FB79     		ldrb	r3, [r7, #7]
 166 00a6 1370     		strb	r3, [r2]
 167              	.L3:
 165:Generated_Source\PSoC5/SPI_ENCODER_INT.c ****         {
 168              		.loc 1 165 0
 169 00a8 064B     		ldr	r3, .L8+4
 170 00aa 1B78     		ldrb	r3, [r3]
 171 00ac DBB2     		uxtb	r3, r3
 172 00ae 03F02003 		and	r3, r3, #32
 173 00b2 002B     		cmp	r3, #0
 174 00b4 B6D1     		bne	.L7
 192:Generated_Source\PSoC5/SPI_ENCODER_INT.c ****         }
 193:Generated_Source\PSoC5/SPI_ENCODER_INT.c **** 
 194:Generated_Source\PSoC5/SPI_ENCODER_INT.c ****     #endif /* (SPI_ENCODER_RX_SOFTWARE_BUF_ENABLED) */
 195:Generated_Source\PSoC5/SPI_ENCODER_INT.c **** 
 196:Generated_Source\PSoC5/SPI_ENCODER_INT.c ****     /* User code required at end of ISR (Optional) */
 197:Generated_Source\PSoC5/SPI_ENCODER_INT.c ****     /* `#START SPI_ENCODER_RX_ISR_END` */
 198:Generated_Source\PSoC5/SPI_ENCODER_INT.c **** 
 199:Generated_Source\PSoC5/SPI_ENCODER_INT.c ****     /* `#END` */
 200:Generated_Source\PSoC5/SPI_ENCODER_INT.c ****     
 201:Generated_Source\PSoC5/SPI_ENCODER_INT.c ****     #ifdef SPI_ENCODER_RX_ISR_EXIT_CALLBACK
 202:Generated_Source\PSoC5/SPI_ENCODER_INT.c ****         SPI_ENCODER_RX_ISR_ExitCallback();
 203:Generated_Source\PSoC5/SPI_ENCODER_INT.c ****     #endif /* SPI_ENCODER_RX_ISR_EXIT_CALLBACK */
 204:Generated_Source\PSoC5/SPI_ENCODER_INT.c **** }
 175              		.loc 1 204 0
 176 00b6 00BF     		nop
 177 00b8 0C37     		adds	r7, r7, #12
 178              		.cfi_def_cfa_offset 4
 179 00ba BD46     		mov	sp, r7
 180              		.cfi_def_cfa_register 13
 181              		@ sp needed
 182 00bc 80BC     		pop	{r7}
 183              		.cfi_restore 7
 184              		.cfi_def_cfa_offset 0
 185 00be 7047     		bx	lr
 186              	.L9:
 187              		.align	2
 188              	.L8:
 189 00c0 6C640040 		.word	1073767532
 190 00c4 00000000 		.word	SPI_ENCODER_swStatusRx
 191 00c8 52640040 		.word	1073767506
 192 00cc 00000000 		.word	SPI_ENCODER_rxBufferWrite
 193 00d0 00000000 		.word	SPI_ENCODER_rxBufferRead
 194 00d4 00000000 		.word	SPI_ENCODER_rxBufferFull
ARM GAS  C:\Users\MattiaCP\AppData\Local\Temp\ccAkBnvC.s 			page 8


 195 00d8 00000000 		.word	SPI_ENCODER_rxBuffer
 196              		.cfi_endproc
 197              	.LFE1:
 198              		.size	SPI_ENCODER_RX_ISR, .-SPI_ENCODER_RX_ISR
 199              		.text
 200              	.Letext0:
 201              		.file 2 "Generated_Source\\PSoC5\\cytypes.h"
 202              		.file 3 "Generated_Source\\PSoC5\\SPI_ENCODER_PVT.h"