ARM GAS  C:\Users\MattiaCP\AppData\Local\Temp\ccH4xQQo.s 			page 1


   1              		.syntax unified
   2              		.cpu cortex-m3
   3              		.fpu softvfp
   4              		.eabi_attribute 20, 1
   5              		.eabi_attribute 21, 1
   6              		.eabi_attribute 23, 3
   7              		.eabi_attribute 24, 1
   8              		.eabi_attribute 25, 1
   9              		.eabi_attribute 26, 1
  10              		.eabi_attribute 30, 6
  11              		.eabi_attribute 34, 1
  12              		.eabi_attribute 18, 4
  13              		.thumb
  14              		.syntax unified
  15              		.file	"command_processing.c"
  16              		.text
  17              	.Ltext0:
  18              		.cfi_sections	.debug_frame
  19              		.global	EEPROM_ADDR
  20              		.data
  21              		.align	2
  22              		.type	EEPROM_ADDR, %object
  23              		.size	EEPROM_ADDR, 4
  24              	EEPROM_ADDR:
  25 0000 00800040 		.word	1073774592
  26              		.section	.text.commProcess,"ax",%progbits
  27              		.align	2
  28              		.global	commProcess
  29              		.thumb
  30              		.thumb_func
  31              		.type	commProcess, %function
  32              	commProcess:
  33              	.LFB64:
  34              		.file 1 "..\\src\\command_processing.c"
   1:..\src/command_processing.c **** // ----------------------------------------------------------------------------
   2:..\src/command_processing.c **** // BSD 3-Clause License
   3:..\src/command_processing.c **** 
   4:..\src/command_processing.c **** // Copyright (c) 2016, qbrobotics
   5:..\src/command_processing.c **** // Copyright (c) 2017-2019, Centro "E.Piaggio"
   6:..\src/command_processing.c **** // All rights reserved.
   7:..\src/command_processing.c **** 
   8:..\src/command_processing.c **** // Redistribution and use in source and binary forms, with or without
   9:..\src/command_processing.c **** // modification, are permitted provided that the following conditions are met:
  10:..\src/command_processing.c **** 
  11:..\src/command_processing.c **** // * Redistributions of source code must retain the above copyright notice, this
  12:..\src/command_processing.c **** //   list of conditions and the following disclaimer.
  13:..\src/command_processing.c **** 
  14:..\src/command_processing.c **** // * Redistributions in binary form must reproduce the above copyright notice,
  15:..\src/command_processing.c **** //   this list of conditions and the following disclaimer in the documentation
  16:..\src/command_processing.c **** //   and/or other materials provided with the distribution.
  17:..\src/command_processing.c **** 
  18:..\src/command_processing.c **** // * Neither the name of the copyright holder nor the names of its
  19:..\src/command_processing.c **** //   contributors may be used to endorse or promote products derived from
  20:..\src/command_processing.c **** //   this software without specific prior written permission.
  21:..\src/command_processing.c **** 
  22:..\src/command_processing.c **** // THIS SOFTWARE IS PROVIDED BY THE COPYRIGHT HOLDERS AND CONTRIBUTORS "AS IS"
  23:..\src/command_processing.c **** // AND ANY EXPRESS OR IMPLIED WARRANTIES, INCLUDING, BUT NOT LIMITED TO, THE
ARM GAS  C:\Users\MattiaCP\AppData\Local\Temp\ccH4xQQo.s 			page 2


  24:..\src/command_processing.c **** // IMPLIED WARRANTIES OF MERCHANTABILITY AND FITNESS FOR A PARTICULAR PURPOSE ARE
  25:..\src/command_processing.c **** // DISCLAIMED. IN NO EVENT SHALL THE COPYRIGHT HOLDER OR CONTRIBUTORS BE LIABLE
  26:..\src/command_processing.c **** // FOR ANY DIRECT, INDIRECT, INCIDENTAL, SPECIAL, EXEMPLARY, OR CONSEQUENTIAL
  27:..\src/command_processing.c **** // DAMAGES (INCLUDING, BUT NOT LIMITED TO, PROCUREMENT OF SUBSTITUTE GOODS OR
  28:..\src/command_processing.c **** // SERVICES; LOSS OF USE, DATA, OR PROFITS; OR BUSINESS INTERRUPTION) HOWEVER
  29:..\src/command_processing.c **** // CAUSED AND ON ANY THEORY OF LIABILITY, WHETHER IN CONTRACT, STRICT LIABILITY,
  30:..\src/command_processing.c **** // OR TORT (INCLUDING NEGLIGENCE OR OTHERWISE) ARISING IN ANY WAY OUT OF THE USE
  31:..\src/command_processing.c **** // OF THIS SOFTWARE, EVEN IF ADVISED OF THE POSSIBILITY OF SUCH DAMAGE.
  32:..\src/command_processing.c **** // POSSIBILITY OF SUCH DAMAGE.
  33:..\src/command_processing.c **** // ----------------------------------------------------------------------------
  34:..\src/command_processing.c **** 
  35:..\src/command_processing.c **** 
  36:..\src/command_processing.c **** /**
  37:..\src/command_processing.c **** * \file         command_processing.c
  38:..\src/command_processing.c **** *
  39:..\src/command_processing.c **** 
  40:..\src/command_processing.c **** * \brief        Command processing functions.
  41:..\src/command_processing.c **** * \date         October 01, 2017
  42:..\src/command_processing.c **** * \author       _Centro "E.Piaggio"_
  43:..\src/command_processing.c **** * \copyright    (C) 2012-2016 qbrobotics. All rights reserved.
  44:..\src/command_processing.c **** * \copyright    (C) 2017-2019 Centro "E.Piaggio". All rights reserved.
  45:..\src/command_processing.c **** */
  46:..\src/command_processing.c **** //=================================================================     includes
  47:..\src/command_processing.c **** #include "command_processing.h"
  48:..\src/command_processing.c **** 
  49:..\src/command_processing.c **** //================================================================     variables
  50:..\src/command_processing.c **** 
  51:..\src/command_processing.c **** reg8 * EEPROM_ADDR = (reg8 *) CYDEV_EE_BASE;
  52:..\src/command_processing.c **** 
  53:..\src/command_processing.c **** //==============================================================================
  54:..\src/command_processing.c **** //                                                            RX DATA PROCESSING
  55:..\src/command_processing.c **** //==============================================================================
  56:..\src/command_processing.c **** //  This function checks for the availability of a data packet and process it:
  57:..\src/command_processing.c **** //      - Verify checksum;
  58:..\src/command_processing.c **** //      - Process commands;
  59:..\src/command_processing.c **** //==============================================================================
  60:..\src/command_processing.c **** 
  61:..\src/command_processing.c **** void commProcess(void){
  35              		.loc 1 61 0
  36              		.cfi_startproc
  37              		@ args = 0, pretend = 0, frame = 32
  38              		@ frame_needed = 1, uses_anonymous_args = 0
  39 0000 80B5     		push	{r7, lr}
  40              		.cfi_def_cfa_offset 8
  41              		.cfi_offset 7, -8
  42              		.cfi_offset 14, -4
  43 0002 88B0     		sub	sp, sp, #32
  44              		.cfi_def_cfa_offset 40
  45 0004 00AF     		add	r7, sp, #0
  46              		.cfi_def_cfa_register 7
  62:..\src/command_processing.c **** 
  63:..\src/command_processing.c ****     uint8 CYDATA rx_cmd;
  64:..\src/command_processing.c ****     rx_cmd = g_rx.buffer[0];
  47              		.loc 1 64 0
  48 0006 E24B     		ldr	r3, .L48
  49 0008 1B78     		ldrb	r3, [r3]
  50 000a FB77     		strb	r3, [r7, #31]
ARM GAS  C:\Users\MattiaCP\AppData\Local\Temp\ccH4xQQo.s 			page 3


  65:..\src/command_processing.c **** 
  66:..\src/command_processing.c **** //==========================================================     verify checksum
  67:..\src/command_processing.c **** 
  68:..\src/command_processing.c ****     if (!(LCRChecksum(g_rx.buffer, g_rx.length - 1) == g_rx.buffer[g_rx.length - 1])){
  51              		.loc 1 68 0
  52 000c E04B     		ldr	r3, .L48
  53 000e B3F98030 		ldrsh	r3, [r3, #128]
  54 0012 DBB2     		uxtb	r3, r3
  55 0014 013B     		subs	r3, r3, #1
  56 0016 DBB2     		uxtb	r3, r3
  57 0018 1946     		mov	r1, r3
  58 001a DD48     		ldr	r0, .L48
  59 001c FFF7FEFF 		bl	LCRChecksum
  60 0020 0346     		mov	r3, r0
  61 0022 1946     		mov	r1, r3
  62 0024 DA4B     		ldr	r3, .L48
  63 0026 B3F98030 		ldrsh	r3, [r3, #128]
  64 002a 013B     		subs	r3, r3, #1
  65 002c D84A     		ldr	r2, .L48
  66 002e D35C     		ldrb	r3, [r2, r3]	@ zero_extendqisi2
  67 0030 9942     		cmp	r1, r3
  68 0032 04D0     		beq	.L2
  69:..\src/command_processing.c ****         // Wrong checksum
  70:..\src/command_processing.c ****         g_rx.ready = 0;
  69              		.loc 1 70 0
  70 0034 D64B     		ldr	r3, .L48
  71 0036 0022     		movs	r2, #0
  72 0038 83F88420 		strb	r2, [r3, #132]
  71:..\src/command_processing.c ****         return;
  73              		.loc 1 71 0
  74 003c 42E2     		b	.L1
  75              	.L2:
  72:..\src/command_processing.c ****     }
  73:..\src/command_processing.c **** 
  74:..\src/command_processing.c ****     switch(rx_cmd) {
  76              		.loc 1 74 0
  77 003e FB7F     		ldrb	r3, [r7, #31]	@ zero_extendqisi2
  78 0040 A62B     		cmp	r3, #166
  79 0042 00F23E82 		bhi	.L47
  80 0046 01A2     		adr	r2, .L6
  81 0048 52F823F0 		ldr	pc, [r2, r3, lsl #2]
  82              		.p2align 2
  83              	.L6:
  84 004c 67030000 		.word	.L5+1
  85 0050 49030000 		.word	.L7+1
  86 0054 C3040000 		.word	.L47+1
  87 0058 6D030000 		.word	.L8+1
  88 005c 73030000 		.word	.L9+1
  89 0060 99030000 		.word	.L10+1
  90 0064 31030000 		.word	.L11+1
  91 0068 C3040000 		.word	.L47+1
  92 006c C3040000 		.word	.L47+1
  93 0070 CD030000 		.word	.L12+1
  94 0074 B3030000 		.word	.L13+1
  95 0078 C3040000 		.word	.L47+1
  96 007c 4F030000 		.word	.L14+1
  97 0080 EF030000 		.word	.L15+1
ARM GAS  C:\Users\MattiaCP\AppData\Local\Temp\ccH4xQQo.s 			page 4


  98 0084 C3040000 		.word	.L47+1
  99 0088 C3040000 		.word	.L47+1
 100 008c C3040000 		.word	.L47+1
 101 0090 C3040000 		.word	.L47+1
 102 0094 C3040000 		.word	.L47+1
 103 0098 C3040000 		.word	.L47+1
 104 009c C3040000 		.word	.L47+1
 105 00a0 C3040000 		.word	.L47+1
 106 00a4 C3040000 		.word	.L47+1
 107 00a8 C3040000 		.word	.L47+1
 108 00ac C3040000 		.word	.L47+1
 109 00b0 C3040000 		.word	.L47+1
 110 00b4 C3040000 		.word	.L47+1
 111 00b8 C3040000 		.word	.L47+1
 112 00bc C3040000 		.word	.L47+1
 113 00c0 C3040000 		.word	.L47+1
 114 00c4 C3040000 		.word	.L47+1
 115 00c8 C3040000 		.word	.L47+1
 116 00cc C3040000 		.word	.L47+1
 117 00d0 C3040000 		.word	.L47+1
 118 00d4 C3040000 		.word	.L47+1
 119 00d8 C3040000 		.word	.L47+1
 120 00dc C3040000 		.word	.L47+1
 121 00e0 C3040000 		.word	.L47+1
 122 00e4 C3040000 		.word	.L47+1
 123 00e8 C3040000 		.word	.L47+1
 124 00ec C3040000 		.word	.L47+1
 125 00f0 C3040000 		.word	.L47+1
 126 00f4 C3040000 		.word	.L47+1
 127 00f8 C3040000 		.word	.L47+1
 128 00fc C3040000 		.word	.L47+1
 129 0100 C3040000 		.word	.L47+1
 130 0104 C3040000 		.word	.L47+1
 131 0108 C3040000 		.word	.L47+1
 132 010c C3040000 		.word	.L47+1
 133 0110 C3040000 		.word	.L47+1
 134 0114 C3040000 		.word	.L47+1
 135 0118 C3040000 		.word	.L47+1
 136 011c C3040000 		.word	.L47+1
 137 0120 C3040000 		.word	.L47+1
 138 0124 C3040000 		.word	.L47+1
 139 0128 C3040000 		.word	.L47+1
 140 012c C3040000 		.word	.L47+1
 141 0130 C3040000 		.word	.L47+1
 142 0134 C3040000 		.word	.L47+1
 143 0138 C3040000 		.word	.L47+1
 144 013c C3040000 		.word	.L47+1
 145 0140 C3040000 		.word	.L47+1
 146 0144 C3040000 		.word	.L47+1
 147 0148 C3040000 		.word	.L47+1
 148 014c C3040000 		.word	.L47+1
 149 0150 C3040000 		.word	.L47+1
 150 0154 C3040000 		.word	.L47+1
 151 0158 C3040000 		.word	.L47+1
 152 015c C3040000 		.word	.L47+1
 153 0160 C3040000 		.word	.L47+1
 154 0164 C3040000 		.word	.L47+1
ARM GAS  C:\Users\MattiaCP\AppData\Local\Temp\ccH4xQQo.s 			page 5


 155 0168 C3040000 		.word	.L47+1
 156 016c C3040000 		.word	.L47+1
 157 0170 C3040000 		.word	.L47+1
 158 0174 C3040000 		.word	.L47+1
 159 0178 C3040000 		.word	.L47+1
 160 017c C3040000 		.word	.L47+1
 161 0180 C3040000 		.word	.L47+1
 162 0184 C3040000 		.word	.L47+1
 163 0188 C3040000 		.word	.L47+1
 164 018c C3040000 		.word	.L47+1
 165 0190 C3040000 		.word	.L47+1
 166 0194 C3040000 		.word	.L47+1
 167 0198 C3040000 		.word	.L47+1
 168 019c C3040000 		.word	.L47+1
 169 01a0 C3040000 		.word	.L47+1
 170 01a4 C3040000 		.word	.L47+1
 171 01a8 C3040000 		.word	.L47+1
 172 01ac C3040000 		.word	.L47+1
 173 01b0 C3040000 		.word	.L47+1
 174 01b4 C3040000 		.word	.L47+1
 175 01b8 C3040000 		.word	.L47+1
 176 01bc C3040000 		.word	.L47+1
 177 01c0 C3040000 		.word	.L47+1
 178 01c4 C3040000 		.word	.L47+1
 179 01c8 C3040000 		.word	.L47+1
 180 01cc C3040000 		.word	.L47+1
 181 01d0 C3040000 		.word	.L47+1
 182 01d4 C3040000 		.word	.L47+1
 183 01d8 C3040000 		.word	.L47+1
 184 01dc C3040000 		.word	.L47+1
 185 01e0 C3040000 		.word	.L47+1
 186 01e4 C3040000 		.word	.L47+1
 187 01e8 C3040000 		.word	.L47+1
 188 01ec C3040000 		.word	.L47+1
 189 01f0 C3040000 		.word	.L47+1
 190 01f4 C3040000 		.word	.L47+1
 191 01f8 C3040000 		.word	.L47+1
 192 01fc C3040000 		.word	.L47+1
 193 0200 C3040000 		.word	.L47+1
 194 0204 C3040000 		.word	.L47+1
 195 0208 C3040000 		.word	.L47+1
 196 020c C3040000 		.word	.L47+1
 197 0210 C3040000 		.word	.L47+1
 198 0214 C3040000 		.word	.L47+1
 199 0218 C3040000 		.word	.L47+1
 200 021c C3040000 		.word	.L47+1
 201 0220 C3040000 		.word	.L47+1
 202 0224 C3040000 		.word	.L47+1
 203 0228 C3040000 		.word	.L47+1
 204 022c C3040000 		.word	.L47+1
 205 0230 C3040000 		.word	.L47+1
 206 0234 C3040000 		.word	.L47+1
 207 0238 C3040000 		.word	.L47+1
 208 023c C3040000 		.word	.L47+1
 209 0240 C3040000 		.word	.L47+1
 210 0244 C3040000 		.word	.L47+1
 211 0248 C3040000 		.word	.L47+1
ARM GAS  C:\Users\MattiaCP\AppData\Local\Temp\ccH4xQQo.s 			page 6


 212 024c E9020000 		.word	.L16+1
 213 0250 1F030000 		.word	.L17+1
 214 0254 EF020000 		.word	.L18+1
 215 0258 2B030000 		.word	.L19+1
 216 025c F5020000 		.word	.L20+1
 217 0260 01030000 		.word	.L21+1
 218 0264 FB020000 		.word	.L22+1
 219 0268 C3040000 		.word	.L47+1
 220 026c 19030000 		.word	.L23+1
 221 0270 0D030000 		.word	.L24+1
 222 0274 C3040000 		.word	.L47+1
 223 0278 13030000 		.word	.L25+1
 224 027c 07030000 		.word	.L26+1
 225 0280 C3040000 		.word	.L47+1
 226 0284 C3040000 		.word	.L47+1
 227 0288 C3040000 		.word	.L47+1
 228 028c 25030000 		.word	.L27+1
 229 0290 C3040000 		.word	.L47+1
 230 0294 C3040000 		.word	.L47+1
 231 0298 C3040000 		.word	.L47+1
 232 029c C3040000 		.word	.L47+1
 233 02a0 C3040000 		.word	.L47+1
 234 02a4 C3040000 		.word	.L47+1
 235 02a8 C3040000 		.word	.L47+1
 236 02ac C3040000 		.word	.L47+1
 237 02b0 C3040000 		.word	.L47+1
 238 02b4 C3040000 		.word	.L47+1
 239 02b8 C3040000 		.word	.L47+1
 240 02bc C3040000 		.word	.L47+1
 241 02c0 C3040000 		.word	.L47+1
 242 02c4 C3040000 		.word	.L47+1
 243 02c8 C3040000 		.word	.L47+1
 244 02cc C3040000 		.word	.L47+1
 245 02d0 8D040000 		.word	.L28+1
 246 02d4 93040000 		.word	.L29+1
 247 02d8 AB040000 		.word	.L30+1
 248 02dc B1040000 		.word	.L31+1
 249 02e0 B7040000 		.word	.L32+1
 250 02e4 BD040000 		.word	.L33+1
 251              		.p2align 1
 252              	.L16:
  75:..\src/command_processing.c **** 
  76:..\src/command_processing.c **** //=============================================================     CMD_ACTIVATE
  77:..\src/command_processing.c ****         case CMD_ACTIVATE:
  78:..\src/command_processing.c ****             cmd_activate();
 253              		.loc 1 78 0
 254 02e8 FFF7FEFF 		bl	cmd_activate
  79:..\src/command_processing.c ****             break;
 255              		.loc 1 79 0
 256 02ec EAE0     		b	.L1
 257              	.L18:
  80:..\src/command_processing.c **** 
  81:..\src/command_processing.c **** //===========================================================     CMD_SET_INPUTS
  82:..\src/command_processing.c **** 
  83:..\src/command_processing.c ****         case CMD_SET_INPUTS:
  84:..\src/command_processing.c ****             cmd_set_inputs();
 258              		.loc 1 84 0
ARM GAS  C:\Users\MattiaCP\AppData\Local\Temp\ccH4xQQo.s 			page 7


 259 02ee FFF7FEFF 		bl	cmd_set_inputs
  85:..\src/command_processing.c ****             break;
 260              		.loc 1 85 0
 261 02f2 E7E0     		b	.L1
 262              	.L20:
  86:..\src/command_processing.c **** 
  87:..\src/command_processing.c **** //=====================================================     CMD_GET_MEASUREMENTS
  88:..\src/command_processing.c **** 
  89:..\src/command_processing.c ****         case CMD_GET_MEASUREMENTS:
  90:..\src/command_processing.c ****             cmd_get_measurements();
 263              		.loc 1 90 0
 264 02f4 FFF7FEFF 		bl	cmd_get_measurements
  91:..\src/command_processing.c ****             break;
 265              		.loc 1 91 0
 266 02f8 E4E0     		b	.L1
 267              	.L22:
  92:..\src/command_processing.c **** 
  93:..\src/command_processing.c **** //=====================================================     CMD_GET_CURR_AND_MEAS
  94:..\src/command_processing.c **** 
  95:..\src/command_processing.c ****         case CMD_GET_CURR_AND_MEAS:
  96:..\src/command_processing.c ****             cmd_get_curr_and_meas();
 268              		.loc 1 96 0
 269 02fa FFF7FEFF 		bl	cmd_get_curr_and_meas
  97:..\src/command_processing.c ****             break;
 270              		.loc 1 97 0
 271 02fe E1E0     		b	.L1
 272              	.L21:
  98:..\src/command_processing.c ****             
  99:..\src/command_processing.c **** //=========================================================     CMD_GET_CURRENTS
 100:..\src/command_processing.c **** 
 101:..\src/command_processing.c ****         case CMD_GET_CURRENTS:
 102:..\src/command_processing.c ****             cmd_get_currents();
 273              		.loc 1 102 0
 274 0300 FFF7FEFF 		bl	cmd_get_currents
 103:..\src/command_processing.c ****             break;
 275              		.loc 1 103 0
 276 0304 DEE0     		b	.L1
 277              	.L26:
 104:..\src/command_processing.c **** 
 105:..\src/command_processing.c **** //=========================================================     CMD_GET_CURR_DIFF
 106:..\src/command_processing.c ****          
 107:..\src/command_processing.c ****         case CMD_GET_CURR_DIFF:
 108:..\src/command_processing.c ****             cmd_get_currents_for_cuff();
 278              		.loc 1 108 0
 279 0306 FFF7FEFF 		bl	cmd_get_currents_for_cuff
 109:..\src/command_processing.c ****             break;
 280              		.loc 1 109 0
 281 030a DBE0     		b	.L1
 282              	.L24:
 110:..\src/command_processing.c ****             
 111:..\src/command_processing.c **** //=========================================================     CMD_GET_CURR_DIFF
 112:..\src/command_processing.c ****         
 113:..\src/command_processing.c ****         case CMD_GET_VELOCITIES:
 114:..\src/command_processing.c ****             cmd_get_velocities();
 283              		.loc 1 114 0
 284 030c FFF7FEFF 		bl	cmd_get_velocities
 115:..\src/command_processing.c ****             break;
ARM GAS  C:\Users\MattiaCP\AppData\Local\Temp\ccH4xQQo.s 			page 8


 285              		.loc 1 115 0
 286 0310 D8E0     		b	.L1
 287              	.L25:
 116:..\src/command_processing.c ****             
 117:..\src/command_processing.c **** //=========================================================     CMD_GET_CURR_DIFF
 118:..\src/command_processing.c **** 
 119:..\src/command_processing.c ****         case CMD_GET_ACCEL:
 120:..\src/command_processing.c ****             cmd_get_accelerations();
 288              		.loc 1 120 0
 289 0312 FFF7FEFF 		bl	cmd_get_accelerations
 121:..\src/command_processing.c ****             break;
 290              		.loc 1 121 0
 291 0316 D5E0     		b	.L1
 292              	.L23:
 122:..\src/command_processing.c ****             
 123:..\src/command_processing.c **** //=========================================================     CMD_GET_EMG
 124:..\src/command_processing.c **** 
 125:..\src/command_processing.c ****         case CMD_GET_EMG:
 126:..\src/command_processing.c ****             cmd_get_emg();
 293              		.loc 1 126 0
 294 0318 FFF7FEFF 		bl	cmd_get_emg
 127:..\src/command_processing.c ****             break;
 295              		.loc 1 127 0
 296 031c D2E0     		b	.L1
 297              	.L17:
 128:..\src/command_processing.c ****             
 129:..\src/command_processing.c **** //=========================================================     CMD_GET_ACTIVATE
 130:..\src/command_processing.c ****             
 131:..\src/command_processing.c ****         case CMD_GET_ACTIVATE:
 132:..\src/command_processing.c ****             cmd_get_activate();
 298              		.loc 1 132 0
 299 031e FFF7FEFF 		bl	cmd_get_activate
 133:..\src/command_processing.c ****             break;
 300              		.loc 1 133 0
 301 0322 CFE0     		b	.L1
 302              	.L27:
 134:..\src/command_processing.c ****             
 135:..\src/command_processing.c **** //=========================================================     CMD_SET_BAUDRATE
 136:..\src/command_processing.c ****             
 137:..\src/command_processing.c ****         case CMD_SET_BAUDRATE:
 138:..\src/command_processing.c ****             cmd_set_baudrate();
 303              		.loc 1 138 0
 304 0324 FFF7FEFF 		bl	cmd_set_baudrate
 139:..\src/command_processing.c ****             break;  
 305              		.loc 1 139 0
 306 0328 CCE0     		b	.L1
 307              	.L19:
 140:..\src/command_processing.c ****             
 141:..\src/command_processing.c **** //============================================================     CMD_GET_INPUT
 142:..\src/command_processing.c **** 
 143:..\src/command_processing.c ****         case CMD_GET_INPUTS:
 144:..\src/command_processing.c ****             cmd_get_inputs();
 308              		.loc 1 144 0
 309 032a FFF7FEFF 		bl	cmd_get_inputs
 145:..\src/command_processing.c ****             break;
 310              		.loc 1 145 0
 311 032e C9E0     		b	.L1
ARM GAS  C:\Users\MattiaCP\AppData\Local\Temp\ccH4xQQo.s 			page 9


 312              	.L11:
 146:..\src/command_processing.c **** 
 147:..\src/command_processing.c **** //=============================================================     CMD_GET_INFO
 148:..\src/command_processing.c **** 
 149:..\src/command_processing.c ****         case CMD_GET_INFO:
 150:..\src/command_processing.c ****             infoGet(  __REV16(*((uint16 *) &g_rx.buffer[1])) );
 313              		.loc 1 150 0
 314 0330 184B     		ldr	r3, .L48+4
 315 0332 1B88     		ldrh	r3, [r3]
 316 0334 3B61     		str	r3, [r7, #16]
 317              	.LBB8:
 318              	.LBB9:
 319              		.file 2 "Generated_Source\\PSoC5/cmsis_gcc.h"
   1:Generated_Source\PSoC5/cmsis_gcc.h **** /**************************************************************************//**
   2:Generated_Source\PSoC5/cmsis_gcc.h ****  * @file     cmsis_gcc.h
   3:Generated_Source\PSoC5/cmsis_gcc.h ****  * @brief    CMSIS Cortex-M Core Function/Instruction Header File
   4:Generated_Source\PSoC5/cmsis_gcc.h ****  * @version  V5.00
   5:Generated_Source\PSoC5/cmsis_gcc.h ****  * @date     28. October 2016
   6:Generated_Source\PSoC5/cmsis_gcc.h ****  ******************************************************************************/
   7:Generated_Source\PSoC5/cmsis_gcc.h **** /*
   8:Generated_Source\PSoC5/cmsis_gcc.h ****  * Copyright (c) 2009-2016 ARM Limited. All rights reserved.
   9:Generated_Source\PSoC5/cmsis_gcc.h ****  *
  10:Generated_Source\PSoC5/cmsis_gcc.h ****  * SPDX-License-Identifier: Apache-2.0
  11:Generated_Source\PSoC5/cmsis_gcc.h ****  *
  12:Generated_Source\PSoC5/cmsis_gcc.h ****  * Licensed under the Apache License, Version 2.0 (the License); you may
  13:Generated_Source\PSoC5/cmsis_gcc.h ****  * not use this file except in compliance with the License.
  14:Generated_Source\PSoC5/cmsis_gcc.h ****  * You may obtain a copy of the License at
  15:Generated_Source\PSoC5/cmsis_gcc.h ****  *
  16:Generated_Source\PSoC5/cmsis_gcc.h ****  * http://www.apache.org/licenses/LICENSE-2.0
  17:Generated_Source\PSoC5/cmsis_gcc.h ****  *
  18:Generated_Source\PSoC5/cmsis_gcc.h ****  * Unless required by applicable law or agreed to in writing, software
  19:Generated_Source\PSoC5/cmsis_gcc.h ****  * distributed under the License is distributed on an AS IS BASIS, WITHOUT
  20:Generated_Source\PSoC5/cmsis_gcc.h ****  * WARRANTIES OR CONDITIONS OF ANY KIND, either express or implied.
  21:Generated_Source\PSoC5/cmsis_gcc.h ****  * See the License for the specific language governing permissions and
  22:Generated_Source\PSoC5/cmsis_gcc.h ****  * limitations under the License.
  23:Generated_Source\PSoC5/cmsis_gcc.h ****  */
  24:Generated_Source\PSoC5/cmsis_gcc.h **** 
  25:Generated_Source\PSoC5/cmsis_gcc.h **** #ifndef __CMSIS_GCC_H
  26:Generated_Source\PSoC5/cmsis_gcc.h **** #define __CMSIS_GCC_H
  27:Generated_Source\PSoC5/cmsis_gcc.h **** 
  28:Generated_Source\PSoC5/cmsis_gcc.h **** /* ignore some GCC warnings */
  29:Generated_Source\PSoC5/cmsis_gcc.h **** #pragma GCC diagnostic push
  30:Generated_Source\PSoC5/cmsis_gcc.h **** #pragma GCC diagnostic ignored "-Wsign-conversion"
  31:Generated_Source\PSoC5/cmsis_gcc.h **** #pragma GCC diagnostic ignored "-Wconversion"
  32:Generated_Source\PSoC5/cmsis_gcc.h **** #pragma GCC diagnostic ignored "-Wunused-parameter"
  33:Generated_Source\PSoC5/cmsis_gcc.h **** 
  34:Generated_Source\PSoC5/cmsis_gcc.h **** /* CMSIS compiler specific defines */
  35:Generated_Source\PSoC5/cmsis_gcc.h **** #ifndef   __ASM
  36:Generated_Source\PSoC5/cmsis_gcc.h ****   #define __ASM                     __asm
  37:Generated_Source\PSoC5/cmsis_gcc.h **** #endif
  38:Generated_Source\PSoC5/cmsis_gcc.h **** #ifndef   __INLINE
  39:Generated_Source\PSoC5/cmsis_gcc.h ****   #define __INLINE                  inline
  40:Generated_Source\PSoC5/cmsis_gcc.h **** #endif
  41:Generated_Source\PSoC5/cmsis_gcc.h **** #ifndef   __STATIC_INLINE
  42:Generated_Source\PSoC5/cmsis_gcc.h ****   #define __STATIC_INLINE           static inline
  43:Generated_Source\PSoC5/cmsis_gcc.h **** #endif
  44:Generated_Source\PSoC5/cmsis_gcc.h **** #ifndef   __NO_RETURN
ARM GAS  C:\Users\MattiaCP\AppData\Local\Temp\ccH4xQQo.s 			page 10


  45:Generated_Source\PSoC5/cmsis_gcc.h ****   #define __NO_RETURN               __attribute__((noreturn))
  46:Generated_Source\PSoC5/cmsis_gcc.h **** #endif
  47:Generated_Source\PSoC5/cmsis_gcc.h **** #ifndef   __USED
  48:Generated_Source\PSoC5/cmsis_gcc.h ****   #define __USED                    __attribute__((used))
  49:Generated_Source\PSoC5/cmsis_gcc.h **** #endif
  50:Generated_Source\PSoC5/cmsis_gcc.h **** #ifndef   _WEAK
  51:Generated_Source\PSoC5/cmsis_gcc.h ****   #define __WEAK                    __attribute__((weak))
  52:Generated_Source\PSoC5/cmsis_gcc.h **** #endif
  53:Generated_Source\PSoC5/cmsis_gcc.h **** #ifndef   __UNALIGNED_UINT32
  54:Generated_Source\PSoC5/cmsis_gcc.h ****   struct __attribute__((packed)) T_UINT32 { uint32_t v; };
  55:Generated_Source\PSoC5/cmsis_gcc.h ****   #define __UNALIGNED_UINT32(x)     (((struct T_UINT32 *)(x))->v)
  56:Generated_Source\PSoC5/cmsis_gcc.h **** #endif
  57:Generated_Source\PSoC5/cmsis_gcc.h **** #ifndef   __ALIGNED
  58:Generated_Source\PSoC5/cmsis_gcc.h ****   #define __ALIGNED(x)              __attribute__((aligned(x)))
  59:Generated_Source\PSoC5/cmsis_gcc.h **** #endif
  60:Generated_Source\PSoC5/cmsis_gcc.h **** #ifndef   __PACKED
  61:Generated_Source\PSoC5/cmsis_gcc.h ****   #define __PACKED                  __attribute__((packed, aligned(1)))
  62:Generated_Source\PSoC5/cmsis_gcc.h **** #endif
  63:Generated_Source\PSoC5/cmsis_gcc.h **** 
  64:Generated_Source\PSoC5/cmsis_gcc.h **** 
  65:Generated_Source\PSoC5/cmsis_gcc.h **** /* ###########################  Core Function Access  ########################### */
  66:Generated_Source\PSoC5/cmsis_gcc.h **** /** \ingroup  CMSIS_Core_FunctionInterface
  67:Generated_Source\PSoC5/cmsis_gcc.h ****     \defgroup CMSIS_Core_RegAccFunctions CMSIS Core Register Access Functions
  68:Generated_Source\PSoC5/cmsis_gcc.h ****   @{
  69:Generated_Source\PSoC5/cmsis_gcc.h ****  */
  70:Generated_Source\PSoC5/cmsis_gcc.h **** 
  71:Generated_Source\PSoC5/cmsis_gcc.h **** /**
  72:Generated_Source\PSoC5/cmsis_gcc.h ****   \brief   Enable IRQ Interrupts
  73:Generated_Source\PSoC5/cmsis_gcc.h ****   \details Enables IRQ interrupts by clearing the I-bit in the CPSR.
  74:Generated_Source\PSoC5/cmsis_gcc.h ****            Can only be executed in Privileged modes.
  75:Generated_Source\PSoC5/cmsis_gcc.h ****  */
  76:Generated_Source\PSoC5/cmsis_gcc.h **** __attribute__((always_inline)) __STATIC_INLINE void __enable_irq(void)
  77:Generated_Source\PSoC5/cmsis_gcc.h **** {
  78:Generated_Source\PSoC5/cmsis_gcc.h ****   __ASM volatile ("cpsie i" : : : "memory");
  79:Generated_Source\PSoC5/cmsis_gcc.h **** }
  80:Generated_Source\PSoC5/cmsis_gcc.h **** 
  81:Generated_Source\PSoC5/cmsis_gcc.h **** 
  82:Generated_Source\PSoC5/cmsis_gcc.h **** /**
  83:Generated_Source\PSoC5/cmsis_gcc.h ****   \brief   Disable IRQ Interrupts
  84:Generated_Source\PSoC5/cmsis_gcc.h ****   \details Disables IRQ interrupts by setting the I-bit in the CPSR.
  85:Generated_Source\PSoC5/cmsis_gcc.h ****            Can only be executed in Privileged modes.
  86:Generated_Source\PSoC5/cmsis_gcc.h ****  */
  87:Generated_Source\PSoC5/cmsis_gcc.h **** __attribute__((always_inline)) __STATIC_INLINE void __disable_irq(void)
  88:Generated_Source\PSoC5/cmsis_gcc.h **** {
  89:Generated_Source\PSoC5/cmsis_gcc.h ****   __ASM volatile ("cpsid i" : : : "memory");
  90:Generated_Source\PSoC5/cmsis_gcc.h **** }
  91:Generated_Source\PSoC5/cmsis_gcc.h **** 
  92:Generated_Source\PSoC5/cmsis_gcc.h **** 
  93:Generated_Source\PSoC5/cmsis_gcc.h **** /**
  94:Generated_Source\PSoC5/cmsis_gcc.h ****   \brief   Get Control Register
  95:Generated_Source\PSoC5/cmsis_gcc.h ****   \details Returns the content of the Control Register.
  96:Generated_Source\PSoC5/cmsis_gcc.h ****   \return               Control Register value
  97:Generated_Source\PSoC5/cmsis_gcc.h ****  */
  98:Generated_Source\PSoC5/cmsis_gcc.h **** __attribute__((always_inline)) __STATIC_INLINE uint32_t __get_CONTROL(void)
  99:Generated_Source\PSoC5/cmsis_gcc.h **** {
 100:Generated_Source\PSoC5/cmsis_gcc.h ****   uint32_t result;
 101:Generated_Source\PSoC5/cmsis_gcc.h **** 
ARM GAS  C:\Users\MattiaCP\AppData\Local\Temp\ccH4xQQo.s 			page 11


 102:Generated_Source\PSoC5/cmsis_gcc.h ****   __ASM volatile ("MRS %0, control" : "=r" (result) );
 103:Generated_Source\PSoC5/cmsis_gcc.h ****   return(result);
 104:Generated_Source\PSoC5/cmsis_gcc.h **** }
 105:Generated_Source\PSoC5/cmsis_gcc.h **** 
 106:Generated_Source\PSoC5/cmsis_gcc.h **** 
 107:Generated_Source\PSoC5/cmsis_gcc.h **** #if (defined (__ARM_FEATURE_CMSE ) && (__ARM_FEATURE_CMSE == 3))
 108:Generated_Source\PSoC5/cmsis_gcc.h **** /**
 109:Generated_Source\PSoC5/cmsis_gcc.h ****   \brief   Get Control Register (non-secure)
 110:Generated_Source\PSoC5/cmsis_gcc.h ****   \details Returns the content of the non-secure Control Register when in secure mode.
 111:Generated_Source\PSoC5/cmsis_gcc.h ****   \return               non-secure Control Register value
 112:Generated_Source\PSoC5/cmsis_gcc.h ****  */
 113:Generated_Source\PSoC5/cmsis_gcc.h **** __attribute__((always_inline)) __STATIC_INLINE uint32_t __TZ_get_CONTROL_NS(void)
 114:Generated_Source\PSoC5/cmsis_gcc.h **** {
 115:Generated_Source\PSoC5/cmsis_gcc.h ****   uint32_t result;
 116:Generated_Source\PSoC5/cmsis_gcc.h **** 
 117:Generated_Source\PSoC5/cmsis_gcc.h ****   __ASM volatile ("MRS %0, control_ns" : "=r" (result) );
 118:Generated_Source\PSoC5/cmsis_gcc.h ****   return(result);
 119:Generated_Source\PSoC5/cmsis_gcc.h **** }
 120:Generated_Source\PSoC5/cmsis_gcc.h **** #endif
 121:Generated_Source\PSoC5/cmsis_gcc.h **** 
 122:Generated_Source\PSoC5/cmsis_gcc.h **** 
 123:Generated_Source\PSoC5/cmsis_gcc.h **** /**
 124:Generated_Source\PSoC5/cmsis_gcc.h ****   \brief   Set Control Register
 125:Generated_Source\PSoC5/cmsis_gcc.h ****   \details Writes the given value to the Control Register.
 126:Generated_Source\PSoC5/cmsis_gcc.h ****   \param [in]    control  Control Register value to set
 127:Generated_Source\PSoC5/cmsis_gcc.h ****  */
 128:Generated_Source\PSoC5/cmsis_gcc.h **** __attribute__((always_inline)) __STATIC_INLINE void __set_CONTROL(uint32_t control)
 129:Generated_Source\PSoC5/cmsis_gcc.h **** {
 130:Generated_Source\PSoC5/cmsis_gcc.h ****   __ASM volatile ("MSR control, %0" : : "r" (control) : "memory");
 131:Generated_Source\PSoC5/cmsis_gcc.h **** }
 132:Generated_Source\PSoC5/cmsis_gcc.h **** 
 133:Generated_Source\PSoC5/cmsis_gcc.h **** 
 134:Generated_Source\PSoC5/cmsis_gcc.h **** #if (defined (__ARM_FEATURE_CMSE ) && (__ARM_FEATURE_CMSE == 3))
 135:Generated_Source\PSoC5/cmsis_gcc.h **** /**
 136:Generated_Source\PSoC5/cmsis_gcc.h ****   \brief   Set Control Register (non-secure)
 137:Generated_Source\PSoC5/cmsis_gcc.h ****   \details Writes the given value to the non-secure Control Register when in secure state.
 138:Generated_Source\PSoC5/cmsis_gcc.h ****   \param [in]    control  Control Register value to set
 139:Generated_Source\PSoC5/cmsis_gcc.h ****  */
 140:Generated_Source\PSoC5/cmsis_gcc.h **** __attribute__((always_inline)) __STATIC_INLINE void __TZ_set_CONTROL_NS(uint32_t control)
 141:Generated_Source\PSoC5/cmsis_gcc.h **** {
 142:Generated_Source\PSoC5/cmsis_gcc.h ****   __ASM volatile ("MSR control_ns, %0" : : "r" (control) : "memory");
 143:Generated_Source\PSoC5/cmsis_gcc.h **** }
 144:Generated_Source\PSoC5/cmsis_gcc.h **** #endif
 145:Generated_Source\PSoC5/cmsis_gcc.h **** 
 146:Generated_Source\PSoC5/cmsis_gcc.h **** 
 147:Generated_Source\PSoC5/cmsis_gcc.h **** /**
 148:Generated_Source\PSoC5/cmsis_gcc.h ****   \brief   Get IPSR Register
 149:Generated_Source\PSoC5/cmsis_gcc.h ****   \details Returns the content of the IPSR Register.
 150:Generated_Source\PSoC5/cmsis_gcc.h ****   \return               IPSR Register value
 151:Generated_Source\PSoC5/cmsis_gcc.h ****  */
 152:Generated_Source\PSoC5/cmsis_gcc.h **** __attribute__((always_inline)) __STATIC_INLINE uint32_t __get_IPSR(void)
 153:Generated_Source\PSoC5/cmsis_gcc.h **** {
 154:Generated_Source\PSoC5/cmsis_gcc.h ****   uint32_t result;
 155:Generated_Source\PSoC5/cmsis_gcc.h **** 
 156:Generated_Source\PSoC5/cmsis_gcc.h ****   __ASM volatile ("MRS %0, ipsr" : "=r" (result) );
 157:Generated_Source\PSoC5/cmsis_gcc.h ****   return(result);
 158:Generated_Source\PSoC5/cmsis_gcc.h **** }
ARM GAS  C:\Users\MattiaCP\AppData\Local\Temp\ccH4xQQo.s 			page 12


 159:Generated_Source\PSoC5/cmsis_gcc.h **** 
 160:Generated_Source\PSoC5/cmsis_gcc.h **** 
 161:Generated_Source\PSoC5/cmsis_gcc.h **** /**
 162:Generated_Source\PSoC5/cmsis_gcc.h ****   \brief   Get APSR Register
 163:Generated_Source\PSoC5/cmsis_gcc.h ****   \details Returns the content of the APSR Register.
 164:Generated_Source\PSoC5/cmsis_gcc.h ****   \return               APSR Register value
 165:Generated_Source\PSoC5/cmsis_gcc.h ****  */
 166:Generated_Source\PSoC5/cmsis_gcc.h **** __attribute__((always_inline)) __STATIC_INLINE uint32_t __get_APSR(void)
 167:Generated_Source\PSoC5/cmsis_gcc.h **** {
 168:Generated_Source\PSoC5/cmsis_gcc.h ****   uint32_t result;
 169:Generated_Source\PSoC5/cmsis_gcc.h **** 
 170:Generated_Source\PSoC5/cmsis_gcc.h ****   __ASM volatile ("MRS %0, apsr" : "=r" (result) );
 171:Generated_Source\PSoC5/cmsis_gcc.h ****   return(result);
 172:Generated_Source\PSoC5/cmsis_gcc.h **** }
 173:Generated_Source\PSoC5/cmsis_gcc.h **** 
 174:Generated_Source\PSoC5/cmsis_gcc.h **** 
 175:Generated_Source\PSoC5/cmsis_gcc.h **** /**
 176:Generated_Source\PSoC5/cmsis_gcc.h ****   \brief   Get xPSR Register
 177:Generated_Source\PSoC5/cmsis_gcc.h ****   \details Returns the content of the xPSR Register.
 178:Generated_Source\PSoC5/cmsis_gcc.h ****   \return               xPSR Register value
 179:Generated_Source\PSoC5/cmsis_gcc.h ****  */
 180:Generated_Source\PSoC5/cmsis_gcc.h **** __attribute__((always_inline)) __STATIC_INLINE uint32_t __get_xPSR(void)
 181:Generated_Source\PSoC5/cmsis_gcc.h **** {
 182:Generated_Source\PSoC5/cmsis_gcc.h ****   uint32_t result;
 183:Generated_Source\PSoC5/cmsis_gcc.h **** 
 184:Generated_Source\PSoC5/cmsis_gcc.h ****   __ASM volatile ("MRS %0, xpsr" : "=r" (result) );
 185:Generated_Source\PSoC5/cmsis_gcc.h ****   return(result);
 186:Generated_Source\PSoC5/cmsis_gcc.h **** }
 187:Generated_Source\PSoC5/cmsis_gcc.h **** 
 188:Generated_Source\PSoC5/cmsis_gcc.h **** 
 189:Generated_Source\PSoC5/cmsis_gcc.h **** /**
 190:Generated_Source\PSoC5/cmsis_gcc.h ****   \brief   Get Process Stack Pointer
 191:Generated_Source\PSoC5/cmsis_gcc.h ****   \details Returns the current value of the Process Stack Pointer (PSP).
 192:Generated_Source\PSoC5/cmsis_gcc.h ****   \return               PSP Register value
 193:Generated_Source\PSoC5/cmsis_gcc.h ****  */
 194:Generated_Source\PSoC5/cmsis_gcc.h **** __attribute__((always_inline)) __STATIC_INLINE uint32_t __get_PSP(void)
 195:Generated_Source\PSoC5/cmsis_gcc.h **** {
 196:Generated_Source\PSoC5/cmsis_gcc.h ****   register uint32_t result;
 197:Generated_Source\PSoC5/cmsis_gcc.h **** 
 198:Generated_Source\PSoC5/cmsis_gcc.h ****   __ASM volatile ("MRS %0, psp"  : "=r" (result) );
 199:Generated_Source\PSoC5/cmsis_gcc.h ****   return(result);
 200:Generated_Source\PSoC5/cmsis_gcc.h **** }
 201:Generated_Source\PSoC5/cmsis_gcc.h **** 
 202:Generated_Source\PSoC5/cmsis_gcc.h **** 
 203:Generated_Source\PSoC5/cmsis_gcc.h **** #if (defined (__ARM_FEATURE_CMSE ) && (__ARM_FEATURE_CMSE == 3))
 204:Generated_Source\PSoC5/cmsis_gcc.h **** /**
 205:Generated_Source\PSoC5/cmsis_gcc.h ****   \brief   Get Process Stack Pointer (non-secure)
 206:Generated_Source\PSoC5/cmsis_gcc.h ****   \details Returns the current value of the non-secure Process Stack Pointer (PSP) when in secure s
 207:Generated_Source\PSoC5/cmsis_gcc.h ****   \return               PSP Register value
 208:Generated_Source\PSoC5/cmsis_gcc.h ****  */
 209:Generated_Source\PSoC5/cmsis_gcc.h **** __attribute__((always_inline)) __STATIC_INLINE uint32_t __TZ_get_PSP_NS(void)
 210:Generated_Source\PSoC5/cmsis_gcc.h **** {
 211:Generated_Source\PSoC5/cmsis_gcc.h ****   register uint32_t result;
 212:Generated_Source\PSoC5/cmsis_gcc.h **** 
 213:Generated_Source\PSoC5/cmsis_gcc.h ****   __ASM volatile ("MRS %0, psp_ns"  : "=r" (result) );
 214:Generated_Source\PSoC5/cmsis_gcc.h ****   return(result);
 215:Generated_Source\PSoC5/cmsis_gcc.h **** }
ARM GAS  C:\Users\MattiaCP\AppData\Local\Temp\ccH4xQQo.s 			page 13


 216:Generated_Source\PSoC5/cmsis_gcc.h **** #endif
 217:Generated_Source\PSoC5/cmsis_gcc.h **** 
 218:Generated_Source\PSoC5/cmsis_gcc.h **** 
 219:Generated_Source\PSoC5/cmsis_gcc.h **** /**
 220:Generated_Source\PSoC5/cmsis_gcc.h ****   \brief   Set Process Stack Pointer
 221:Generated_Source\PSoC5/cmsis_gcc.h ****   \details Assigns the given value to the Process Stack Pointer (PSP).
 222:Generated_Source\PSoC5/cmsis_gcc.h ****   \param [in]    topOfProcStack  Process Stack Pointer value to set
 223:Generated_Source\PSoC5/cmsis_gcc.h ****  */
 224:Generated_Source\PSoC5/cmsis_gcc.h **** __attribute__((always_inline)) __STATIC_INLINE void __set_PSP(uint32_t topOfProcStack)
 225:Generated_Source\PSoC5/cmsis_gcc.h **** {
 226:Generated_Source\PSoC5/cmsis_gcc.h ****   __ASM volatile ("MSR psp, %0" : : "r" (topOfProcStack) : "sp");
 227:Generated_Source\PSoC5/cmsis_gcc.h **** }
 228:Generated_Source\PSoC5/cmsis_gcc.h **** 
 229:Generated_Source\PSoC5/cmsis_gcc.h **** 
 230:Generated_Source\PSoC5/cmsis_gcc.h **** #if (defined (__ARM_FEATURE_CMSE ) && (__ARM_FEATURE_CMSE == 3))
 231:Generated_Source\PSoC5/cmsis_gcc.h **** /**
 232:Generated_Source\PSoC5/cmsis_gcc.h ****   \brief   Set Process Stack Pointer (non-secure)
 233:Generated_Source\PSoC5/cmsis_gcc.h ****   \details Assigns the given value to the non-secure Process Stack Pointer (PSP) when in secure sta
 234:Generated_Source\PSoC5/cmsis_gcc.h ****   \param [in]    topOfProcStack  Process Stack Pointer value to set
 235:Generated_Source\PSoC5/cmsis_gcc.h ****  */
 236:Generated_Source\PSoC5/cmsis_gcc.h **** __attribute__((always_inline)) __STATIC_INLINE void __TZ_set_PSP_NS(uint32_t topOfProcStack)
 237:Generated_Source\PSoC5/cmsis_gcc.h **** {
 238:Generated_Source\PSoC5/cmsis_gcc.h ****   __ASM volatile ("MSR psp_ns, %0" : : "r" (topOfProcStack) : "sp");
 239:Generated_Source\PSoC5/cmsis_gcc.h **** }
 240:Generated_Source\PSoC5/cmsis_gcc.h **** #endif
 241:Generated_Source\PSoC5/cmsis_gcc.h **** 
 242:Generated_Source\PSoC5/cmsis_gcc.h **** 
 243:Generated_Source\PSoC5/cmsis_gcc.h **** /**
 244:Generated_Source\PSoC5/cmsis_gcc.h ****   \brief   Get Main Stack Pointer
 245:Generated_Source\PSoC5/cmsis_gcc.h ****   \details Returns the current value of the Main Stack Pointer (MSP).
 246:Generated_Source\PSoC5/cmsis_gcc.h ****   \return               MSP Register value
 247:Generated_Source\PSoC5/cmsis_gcc.h ****  */
 248:Generated_Source\PSoC5/cmsis_gcc.h **** __attribute__((always_inline)) __STATIC_INLINE uint32_t __get_MSP(void)
 249:Generated_Source\PSoC5/cmsis_gcc.h **** {
 250:Generated_Source\PSoC5/cmsis_gcc.h ****   register uint32_t result;
 251:Generated_Source\PSoC5/cmsis_gcc.h **** 
 252:Generated_Source\PSoC5/cmsis_gcc.h ****   __ASM volatile ("MRS %0, msp" : "=r" (result) );
 253:Generated_Source\PSoC5/cmsis_gcc.h ****   return(result);
 254:Generated_Source\PSoC5/cmsis_gcc.h **** }
 255:Generated_Source\PSoC5/cmsis_gcc.h **** 
 256:Generated_Source\PSoC5/cmsis_gcc.h **** 
 257:Generated_Source\PSoC5/cmsis_gcc.h **** #if (defined (__ARM_FEATURE_CMSE ) && (__ARM_FEATURE_CMSE == 3))
 258:Generated_Source\PSoC5/cmsis_gcc.h **** /**
 259:Generated_Source\PSoC5/cmsis_gcc.h ****   \brief   Get Main Stack Pointer (non-secure)
 260:Generated_Source\PSoC5/cmsis_gcc.h ****   \details Returns the current value of the non-secure Main Stack Pointer (MSP) when in secure stat
 261:Generated_Source\PSoC5/cmsis_gcc.h ****   \return               MSP Register value
 262:Generated_Source\PSoC5/cmsis_gcc.h ****  */
 263:Generated_Source\PSoC5/cmsis_gcc.h **** __attribute__((always_inline)) __STATIC_INLINE uint32_t __TZ_get_MSP_NS(void)
 264:Generated_Source\PSoC5/cmsis_gcc.h **** {
 265:Generated_Source\PSoC5/cmsis_gcc.h ****   register uint32_t result;
 266:Generated_Source\PSoC5/cmsis_gcc.h **** 
 267:Generated_Source\PSoC5/cmsis_gcc.h ****   __ASM volatile ("MRS %0, msp_ns" : "=r" (result) );
 268:Generated_Source\PSoC5/cmsis_gcc.h ****   return(result);
 269:Generated_Source\PSoC5/cmsis_gcc.h **** }
 270:Generated_Source\PSoC5/cmsis_gcc.h **** #endif
 271:Generated_Source\PSoC5/cmsis_gcc.h **** 
 272:Generated_Source\PSoC5/cmsis_gcc.h **** 
ARM GAS  C:\Users\MattiaCP\AppData\Local\Temp\ccH4xQQo.s 			page 14


 273:Generated_Source\PSoC5/cmsis_gcc.h **** /**
 274:Generated_Source\PSoC5/cmsis_gcc.h ****   \brief   Set Main Stack Pointer
 275:Generated_Source\PSoC5/cmsis_gcc.h ****   \details Assigns the given value to the Main Stack Pointer (MSP).
 276:Generated_Source\PSoC5/cmsis_gcc.h ****   \param [in]    topOfMainStack  Main Stack Pointer value to set
 277:Generated_Source\PSoC5/cmsis_gcc.h ****  */
 278:Generated_Source\PSoC5/cmsis_gcc.h **** __attribute__((always_inline)) __STATIC_INLINE void __set_MSP(uint32_t topOfMainStack)
 279:Generated_Source\PSoC5/cmsis_gcc.h **** {
 280:Generated_Source\PSoC5/cmsis_gcc.h ****   __ASM volatile ("MSR msp, %0" : : "r" (topOfMainStack) : "sp");
 281:Generated_Source\PSoC5/cmsis_gcc.h **** }
 282:Generated_Source\PSoC5/cmsis_gcc.h **** 
 283:Generated_Source\PSoC5/cmsis_gcc.h **** 
 284:Generated_Source\PSoC5/cmsis_gcc.h **** #if (defined (__ARM_FEATURE_CMSE ) && (__ARM_FEATURE_CMSE == 3))
 285:Generated_Source\PSoC5/cmsis_gcc.h **** /**
 286:Generated_Source\PSoC5/cmsis_gcc.h ****   \brief   Set Main Stack Pointer (non-secure)
 287:Generated_Source\PSoC5/cmsis_gcc.h ****   \details Assigns the given value to the non-secure Main Stack Pointer (MSP) when in secure state.
 288:Generated_Source\PSoC5/cmsis_gcc.h ****   \param [in]    topOfMainStack  Main Stack Pointer value to set
 289:Generated_Source\PSoC5/cmsis_gcc.h ****  */
 290:Generated_Source\PSoC5/cmsis_gcc.h **** __attribute__((always_inline)) __STATIC_INLINE void __TZ_set_MSP_NS(uint32_t topOfMainStack)
 291:Generated_Source\PSoC5/cmsis_gcc.h **** {
 292:Generated_Source\PSoC5/cmsis_gcc.h ****   __ASM volatile ("MSR msp_ns, %0" : : "r" (topOfMainStack) : "sp");
 293:Generated_Source\PSoC5/cmsis_gcc.h **** }
 294:Generated_Source\PSoC5/cmsis_gcc.h **** #endif
 295:Generated_Source\PSoC5/cmsis_gcc.h **** 
 296:Generated_Source\PSoC5/cmsis_gcc.h **** 
 297:Generated_Source\PSoC5/cmsis_gcc.h **** /**
 298:Generated_Source\PSoC5/cmsis_gcc.h ****   \brief   Get Priority Mask
 299:Generated_Source\PSoC5/cmsis_gcc.h ****   \details Returns the current state of the priority mask bit from the Priority Mask Register.
 300:Generated_Source\PSoC5/cmsis_gcc.h ****   \return               Priority Mask value
 301:Generated_Source\PSoC5/cmsis_gcc.h ****  */
 302:Generated_Source\PSoC5/cmsis_gcc.h **** __attribute__((always_inline)) __STATIC_INLINE uint32_t __get_PRIMASK(void)
 303:Generated_Source\PSoC5/cmsis_gcc.h **** {
 304:Generated_Source\PSoC5/cmsis_gcc.h ****   uint32_t result;
 305:Generated_Source\PSoC5/cmsis_gcc.h **** 
 306:Generated_Source\PSoC5/cmsis_gcc.h ****   __ASM volatile ("MRS %0, primask" : "=r" (result) );
 307:Generated_Source\PSoC5/cmsis_gcc.h ****   return(result);
 308:Generated_Source\PSoC5/cmsis_gcc.h **** }
 309:Generated_Source\PSoC5/cmsis_gcc.h **** 
 310:Generated_Source\PSoC5/cmsis_gcc.h **** 
 311:Generated_Source\PSoC5/cmsis_gcc.h **** #if (defined (__ARM_FEATURE_CMSE ) && (__ARM_FEATURE_CMSE == 3))
 312:Generated_Source\PSoC5/cmsis_gcc.h **** /**
 313:Generated_Source\PSoC5/cmsis_gcc.h ****   \brief   Get Priority Mask (non-secure)
 314:Generated_Source\PSoC5/cmsis_gcc.h ****   \details Returns the current state of the non-secure priority mask bit from the Priority Mask Reg
 315:Generated_Source\PSoC5/cmsis_gcc.h ****   \return               Priority Mask value
 316:Generated_Source\PSoC5/cmsis_gcc.h ****  */
 317:Generated_Source\PSoC5/cmsis_gcc.h **** __attribute__((always_inline)) __STATIC_INLINE uint32_t __TZ_get_PRIMASK_NS(void)
 318:Generated_Source\PSoC5/cmsis_gcc.h **** {
 319:Generated_Source\PSoC5/cmsis_gcc.h ****   uint32_t result;
 320:Generated_Source\PSoC5/cmsis_gcc.h **** 
 321:Generated_Source\PSoC5/cmsis_gcc.h ****   __ASM volatile ("MRS %0, primask_ns" : "=r" (result) );
 322:Generated_Source\PSoC5/cmsis_gcc.h ****   return(result);
 323:Generated_Source\PSoC5/cmsis_gcc.h **** }
 324:Generated_Source\PSoC5/cmsis_gcc.h **** #endif
 325:Generated_Source\PSoC5/cmsis_gcc.h **** 
 326:Generated_Source\PSoC5/cmsis_gcc.h **** 
 327:Generated_Source\PSoC5/cmsis_gcc.h **** /**
 328:Generated_Source\PSoC5/cmsis_gcc.h ****   \brief   Set Priority Mask
 329:Generated_Source\PSoC5/cmsis_gcc.h ****   \details Assigns the given value to the Priority Mask Register.
ARM GAS  C:\Users\MattiaCP\AppData\Local\Temp\ccH4xQQo.s 			page 15


 330:Generated_Source\PSoC5/cmsis_gcc.h ****   \param [in]    priMask  Priority Mask
 331:Generated_Source\PSoC5/cmsis_gcc.h ****  */
 332:Generated_Source\PSoC5/cmsis_gcc.h **** __attribute__((always_inline)) __STATIC_INLINE void __set_PRIMASK(uint32_t priMask)
 333:Generated_Source\PSoC5/cmsis_gcc.h **** {
 334:Generated_Source\PSoC5/cmsis_gcc.h ****   __ASM volatile ("MSR primask, %0" : : "r" (priMask) : "memory");
 335:Generated_Source\PSoC5/cmsis_gcc.h **** }
 336:Generated_Source\PSoC5/cmsis_gcc.h **** 
 337:Generated_Source\PSoC5/cmsis_gcc.h **** 
 338:Generated_Source\PSoC5/cmsis_gcc.h **** #if (defined (__ARM_FEATURE_CMSE ) && (__ARM_FEATURE_CMSE == 3))
 339:Generated_Source\PSoC5/cmsis_gcc.h **** /**
 340:Generated_Source\PSoC5/cmsis_gcc.h ****   \brief   Set Priority Mask (non-secure)
 341:Generated_Source\PSoC5/cmsis_gcc.h ****   \details Assigns the given value to the non-secure Priority Mask Register when in secure state.
 342:Generated_Source\PSoC5/cmsis_gcc.h ****   \param [in]    priMask  Priority Mask
 343:Generated_Source\PSoC5/cmsis_gcc.h ****  */
 344:Generated_Source\PSoC5/cmsis_gcc.h **** __attribute__((always_inline)) __STATIC_INLINE void __TZ_set_PRIMASK_NS(uint32_t priMask)
 345:Generated_Source\PSoC5/cmsis_gcc.h **** {
 346:Generated_Source\PSoC5/cmsis_gcc.h ****   __ASM volatile ("MSR primask_ns, %0" : : "r" (priMask) : "memory");
 347:Generated_Source\PSoC5/cmsis_gcc.h **** }
 348:Generated_Source\PSoC5/cmsis_gcc.h **** #endif
 349:Generated_Source\PSoC5/cmsis_gcc.h **** 
 350:Generated_Source\PSoC5/cmsis_gcc.h **** 
 351:Generated_Source\PSoC5/cmsis_gcc.h **** #if ((defined (__ARM_ARCH_7M__      ) && (__ARM_ARCH_7M__      == 1)) || \
 352:Generated_Source\PSoC5/cmsis_gcc.h ****      (defined (__ARM_ARCH_7EM__     ) && (__ARM_ARCH_7EM__     == 1)) || \
 353:Generated_Source\PSoC5/cmsis_gcc.h ****      (defined (__ARM_ARCH_8M_MAIN__ ) && (__ARM_ARCH_8M_MAIN__ == 1))    )
 354:Generated_Source\PSoC5/cmsis_gcc.h **** /**
 355:Generated_Source\PSoC5/cmsis_gcc.h ****   \brief   Enable FIQ
 356:Generated_Source\PSoC5/cmsis_gcc.h ****   \details Enables FIQ interrupts by clearing the F-bit in the CPSR.
 357:Generated_Source\PSoC5/cmsis_gcc.h ****            Can only be executed in Privileged modes.
 358:Generated_Source\PSoC5/cmsis_gcc.h ****  */
 359:Generated_Source\PSoC5/cmsis_gcc.h **** __attribute__((always_inline)) __STATIC_INLINE void __enable_fault_irq(void)
 360:Generated_Source\PSoC5/cmsis_gcc.h **** {
 361:Generated_Source\PSoC5/cmsis_gcc.h ****   __ASM volatile ("cpsie f" : : : "memory");
 362:Generated_Source\PSoC5/cmsis_gcc.h **** }
 363:Generated_Source\PSoC5/cmsis_gcc.h **** 
 364:Generated_Source\PSoC5/cmsis_gcc.h **** 
 365:Generated_Source\PSoC5/cmsis_gcc.h **** /**
 366:Generated_Source\PSoC5/cmsis_gcc.h ****   \brief   Disable FIQ
 367:Generated_Source\PSoC5/cmsis_gcc.h ****   \details Disables FIQ interrupts by setting the F-bit in the CPSR.
 368:Generated_Source\PSoC5/cmsis_gcc.h ****            Can only be executed in Privileged modes.
 369:Generated_Source\PSoC5/cmsis_gcc.h ****  */
 370:Generated_Source\PSoC5/cmsis_gcc.h **** __attribute__((always_inline)) __STATIC_INLINE void __disable_fault_irq(void)
 371:Generated_Source\PSoC5/cmsis_gcc.h **** {
 372:Generated_Source\PSoC5/cmsis_gcc.h ****   __ASM volatile ("cpsid f" : : : "memory");
 373:Generated_Source\PSoC5/cmsis_gcc.h **** }
 374:Generated_Source\PSoC5/cmsis_gcc.h **** 
 375:Generated_Source\PSoC5/cmsis_gcc.h **** 
 376:Generated_Source\PSoC5/cmsis_gcc.h **** /**
 377:Generated_Source\PSoC5/cmsis_gcc.h ****   \brief   Get Base Priority
 378:Generated_Source\PSoC5/cmsis_gcc.h ****   \details Returns the current value of the Base Priority register.
 379:Generated_Source\PSoC5/cmsis_gcc.h ****   \return               Base Priority register value
 380:Generated_Source\PSoC5/cmsis_gcc.h ****  */
 381:Generated_Source\PSoC5/cmsis_gcc.h **** __attribute__((always_inline)) __STATIC_INLINE uint32_t __get_BASEPRI(void)
 382:Generated_Source\PSoC5/cmsis_gcc.h **** {
 383:Generated_Source\PSoC5/cmsis_gcc.h ****   uint32_t result;
 384:Generated_Source\PSoC5/cmsis_gcc.h **** 
 385:Generated_Source\PSoC5/cmsis_gcc.h ****   __ASM volatile ("MRS %0, basepri" : "=r" (result) );
 386:Generated_Source\PSoC5/cmsis_gcc.h ****   return(result);
ARM GAS  C:\Users\MattiaCP\AppData\Local\Temp\ccH4xQQo.s 			page 16


 387:Generated_Source\PSoC5/cmsis_gcc.h **** }
 388:Generated_Source\PSoC5/cmsis_gcc.h **** 
 389:Generated_Source\PSoC5/cmsis_gcc.h **** 
 390:Generated_Source\PSoC5/cmsis_gcc.h **** #if (defined (__ARM_FEATURE_CMSE ) && (__ARM_FEATURE_CMSE == 3))
 391:Generated_Source\PSoC5/cmsis_gcc.h **** /**
 392:Generated_Source\PSoC5/cmsis_gcc.h ****   \brief   Get Base Priority (non-secure)
 393:Generated_Source\PSoC5/cmsis_gcc.h ****   \details Returns the current value of the non-secure Base Priority register when in secure state.
 394:Generated_Source\PSoC5/cmsis_gcc.h ****   \return               Base Priority register value
 395:Generated_Source\PSoC5/cmsis_gcc.h ****  */
 396:Generated_Source\PSoC5/cmsis_gcc.h **** __attribute__((always_inline)) __STATIC_INLINE uint32_t __TZ_get_BASEPRI_NS(void)
 397:Generated_Source\PSoC5/cmsis_gcc.h **** {
 398:Generated_Source\PSoC5/cmsis_gcc.h ****   uint32_t result;
 399:Generated_Source\PSoC5/cmsis_gcc.h **** 
 400:Generated_Source\PSoC5/cmsis_gcc.h ****   __ASM volatile ("MRS %0, basepri_ns" : "=r" (result) );
 401:Generated_Source\PSoC5/cmsis_gcc.h ****   return(result);
 402:Generated_Source\PSoC5/cmsis_gcc.h **** }
 403:Generated_Source\PSoC5/cmsis_gcc.h **** #endif
 404:Generated_Source\PSoC5/cmsis_gcc.h **** 
 405:Generated_Source\PSoC5/cmsis_gcc.h **** 
 406:Generated_Source\PSoC5/cmsis_gcc.h **** /**
 407:Generated_Source\PSoC5/cmsis_gcc.h ****   \brief   Set Base Priority
 408:Generated_Source\PSoC5/cmsis_gcc.h ****   \details Assigns the given value to the Base Priority register.
 409:Generated_Source\PSoC5/cmsis_gcc.h ****   \param [in]    basePri  Base Priority value to set
 410:Generated_Source\PSoC5/cmsis_gcc.h ****  */
 411:Generated_Source\PSoC5/cmsis_gcc.h **** __attribute__((always_inline)) __STATIC_INLINE void __set_BASEPRI(uint32_t basePri)
 412:Generated_Source\PSoC5/cmsis_gcc.h **** {
 413:Generated_Source\PSoC5/cmsis_gcc.h ****   __ASM volatile ("MSR basepri, %0" : : "r" (basePri) : "memory");
 414:Generated_Source\PSoC5/cmsis_gcc.h **** }
 415:Generated_Source\PSoC5/cmsis_gcc.h **** 
 416:Generated_Source\PSoC5/cmsis_gcc.h **** 
 417:Generated_Source\PSoC5/cmsis_gcc.h **** #if (defined (__ARM_FEATURE_CMSE ) && (__ARM_FEATURE_CMSE == 3))
 418:Generated_Source\PSoC5/cmsis_gcc.h **** /**
 419:Generated_Source\PSoC5/cmsis_gcc.h ****   \brief   Set Base Priority (non-secure)
 420:Generated_Source\PSoC5/cmsis_gcc.h ****   \details Assigns the given value to the non-secure Base Priority register when in secure state.
 421:Generated_Source\PSoC5/cmsis_gcc.h ****   \param [in]    basePri  Base Priority value to set
 422:Generated_Source\PSoC5/cmsis_gcc.h ****  */
 423:Generated_Source\PSoC5/cmsis_gcc.h **** __attribute__((always_inline)) __STATIC_INLINE void __TZ_set_BASEPRI_NS(uint32_t basePri)
 424:Generated_Source\PSoC5/cmsis_gcc.h **** {
 425:Generated_Source\PSoC5/cmsis_gcc.h ****   __ASM volatile ("MSR basepri_ns, %0" : : "r" (basePri) : "memory");
 426:Generated_Source\PSoC5/cmsis_gcc.h **** }
 427:Generated_Source\PSoC5/cmsis_gcc.h **** #endif
 428:Generated_Source\PSoC5/cmsis_gcc.h **** 
 429:Generated_Source\PSoC5/cmsis_gcc.h **** 
 430:Generated_Source\PSoC5/cmsis_gcc.h **** /**
 431:Generated_Source\PSoC5/cmsis_gcc.h ****   \brief   Set Base Priority with condition
 432:Generated_Source\PSoC5/cmsis_gcc.h ****   \details Assigns the given value to the Base Priority register only if BASEPRI masking is disable
 433:Generated_Source\PSoC5/cmsis_gcc.h ****            or the new value increases the BASEPRI priority level.
 434:Generated_Source\PSoC5/cmsis_gcc.h ****   \param [in]    basePri  Base Priority value to set
 435:Generated_Source\PSoC5/cmsis_gcc.h ****  */
 436:Generated_Source\PSoC5/cmsis_gcc.h **** __attribute__((always_inline)) __STATIC_INLINE void __set_BASEPRI_MAX(uint32_t basePri)
 437:Generated_Source\PSoC5/cmsis_gcc.h **** {
 438:Generated_Source\PSoC5/cmsis_gcc.h ****   __ASM volatile ("MSR basepri_max, %0" : : "r" (basePri) : "memory");
 439:Generated_Source\PSoC5/cmsis_gcc.h **** }
 440:Generated_Source\PSoC5/cmsis_gcc.h **** 
 441:Generated_Source\PSoC5/cmsis_gcc.h **** 
 442:Generated_Source\PSoC5/cmsis_gcc.h **** /**
 443:Generated_Source\PSoC5/cmsis_gcc.h ****   \brief   Get Fault Mask
ARM GAS  C:\Users\MattiaCP\AppData\Local\Temp\ccH4xQQo.s 			page 17


 444:Generated_Source\PSoC5/cmsis_gcc.h ****   \details Returns the current value of the Fault Mask register.
 445:Generated_Source\PSoC5/cmsis_gcc.h ****   \return               Fault Mask register value
 446:Generated_Source\PSoC5/cmsis_gcc.h ****  */
 447:Generated_Source\PSoC5/cmsis_gcc.h **** __attribute__((always_inline)) __STATIC_INLINE uint32_t __get_FAULTMASK(void)
 448:Generated_Source\PSoC5/cmsis_gcc.h **** {
 449:Generated_Source\PSoC5/cmsis_gcc.h ****   uint32_t result;
 450:Generated_Source\PSoC5/cmsis_gcc.h **** 
 451:Generated_Source\PSoC5/cmsis_gcc.h ****   __ASM volatile ("MRS %0, faultmask" : "=r" (result) );
 452:Generated_Source\PSoC5/cmsis_gcc.h ****   return(result);
 453:Generated_Source\PSoC5/cmsis_gcc.h **** }
 454:Generated_Source\PSoC5/cmsis_gcc.h **** 
 455:Generated_Source\PSoC5/cmsis_gcc.h **** 
 456:Generated_Source\PSoC5/cmsis_gcc.h **** #if (defined (__ARM_FEATURE_CMSE ) && (__ARM_FEATURE_CMSE == 3))
 457:Generated_Source\PSoC5/cmsis_gcc.h **** /**
 458:Generated_Source\PSoC5/cmsis_gcc.h ****   \brief   Get Fault Mask (non-secure)
 459:Generated_Source\PSoC5/cmsis_gcc.h ****   \details Returns the current value of the non-secure Fault Mask register when in secure state.
 460:Generated_Source\PSoC5/cmsis_gcc.h ****   \return               Fault Mask register value
 461:Generated_Source\PSoC5/cmsis_gcc.h ****  */
 462:Generated_Source\PSoC5/cmsis_gcc.h **** __attribute__((always_inline)) __STATIC_INLINE uint32_t __TZ_get_FAULTMASK_NS(void)
 463:Generated_Source\PSoC5/cmsis_gcc.h **** {
 464:Generated_Source\PSoC5/cmsis_gcc.h ****   uint32_t result;
 465:Generated_Source\PSoC5/cmsis_gcc.h **** 
 466:Generated_Source\PSoC5/cmsis_gcc.h ****   __ASM volatile ("MRS %0, faultmask_ns" : "=r" (result) );
 467:Generated_Source\PSoC5/cmsis_gcc.h ****   return(result);
 468:Generated_Source\PSoC5/cmsis_gcc.h **** }
 469:Generated_Source\PSoC5/cmsis_gcc.h **** #endif
 470:Generated_Source\PSoC5/cmsis_gcc.h **** 
 471:Generated_Source\PSoC5/cmsis_gcc.h **** 
 472:Generated_Source\PSoC5/cmsis_gcc.h **** /**
 473:Generated_Source\PSoC5/cmsis_gcc.h ****   \brief   Set Fault Mask
 474:Generated_Source\PSoC5/cmsis_gcc.h ****   \details Assigns the given value to the Fault Mask register.
 475:Generated_Source\PSoC5/cmsis_gcc.h ****   \param [in]    faultMask  Fault Mask value to set
 476:Generated_Source\PSoC5/cmsis_gcc.h ****  */
 477:Generated_Source\PSoC5/cmsis_gcc.h **** __attribute__((always_inline)) __STATIC_INLINE void __set_FAULTMASK(uint32_t faultMask)
 478:Generated_Source\PSoC5/cmsis_gcc.h **** {
 479:Generated_Source\PSoC5/cmsis_gcc.h ****   __ASM volatile ("MSR faultmask, %0" : : "r" (faultMask) : "memory");
 480:Generated_Source\PSoC5/cmsis_gcc.h **** }
 481:Generated_Source\PSoC5/cmsis_gcc.h **** 
 482:Generated_Source\PSoC5/cmsis_gcc.h **** 
 483:Generated_Source\PSoC5/cmsis_gcc.h **** #if (defined (__ARM_FEATURE_CMSE ) && (__ARM_FEATURE_CMSE == 3))
 484:Generated_Source\PSoC5/cmsis_gcc.h **** /**
 485:Generated_Source\PSoC5/cmsis_gcc.h ****   \brief   Set Fault Mask (non-secure)
 486:Generated_Source\PSoC5/cmsis_gcc.h ****   \details Assigns the given value to the non-secure Fault Mask register when in secure state.
 487:Generated_Source\PSoC5/cmsis_gcc.h ****   \param [in]    faultMask  Fault Mask value to set
 488:Generated_Source\PSoC5/cmsis_gcc.h ****  */
 489:Generated_Source\PSoC5/cmsis_gcc.h **** __attribute__((always_inline)) __STATIC_INLINE void __TZ_set_FAULTMASK_NS(uint32_t faultMask)
 490:Generated_Source\PSoC5/cmsis_gcc.h **** {
 491:Generated_Source\PSoC5/cmsis_gcc.h ****   __ASM volatile ("MSR faultmask_ns, %0" : : "r" (faultMask) : "memory");
 492:Generated_Source\PSoC5/cmsis_gcc.h **** }
 493:Generated_Source\PSoC5/cmsis_gcc.h **** #endif
 494:Generated_Source\PSoC5/cmsis_gcc.h **** 
 495:Generated_Source\PSoC5/cmsis_gcc.h **** #endif /* ((defined (__ARM_ARCH_7M__      ) && (__ARM_ARCH_7M__      == 1)) || \
 496:Generated_Source\PSoC5/cmsis_gcc.h ****            (defined (__ARM_ARCH_7EM__     ) && (__ARM_ARCH_7EM__     == 1)) || \
 497:Generated_Source\PSoC5/cmsis_gcc.h ****            (defined (__ARM_ARCH_8M_MAIN__ ) && (__ARM_ARCH_8M_MAIN__ == 1))    ) */
 498:Generated_Source\PSoC5/cmsis_gcc.h **** 
 499:Generated_Source\PSoC5/cmsis_gcc.h **** 
 500:Generated_Source\PSoC5/cmsis_gcc.h **** #if ((defined (__ARM_ARCH_8M_MAIN__ ) && (__ARM_ARCH_8M_MAIN__ == 1U)) || \
ARM GAS  C:\Users\MattiaCP\AppData\Local\Temp\ccH4xQQo.s 			page 18


 501:Generated_Source\PSoC5/cmsis_gcc.h ****      (defined (__ARM_ARCH_8M_BASE__ ) && (__ARM_ARCH_8M_BASE__ == 1U))    )
 502:Generated_Source\PSoC5/cmsis_gcc.h **** 
 503:Generated_Source\PSoC5/cmsis_gcc.h **** /**
 504:Generated_Source\PSoC5/cmsis_gcc.h ****   \brief   Get Process Stack Pointer Limit
 505:Generated_Source\PSoC5/cmsis_gcc.h ****   \details Returns the current value of the Process Stack Pointer Limit (PSPLIM).
 506:Generated_Source\PSoC5/cmsis_gcc.h ****   \return               PSPLIM Register value
 507:Generated_Source\PSoC5/cmsis_gcc.h ****  */
 508:Generated_Source\PSoC5/cmsis_gcc.h **** __attribute__((always_inline)) __STATIC_INLINE uint32_t __get_PSPLIM(void)
 509:Generated_Source\PSoC5/cmsis_gcc.h **** {
 510:Generated_Source\PSoC5/cmsis_gcc.h ****   register uint32_t result;
 511:Generated_Source\PSoC5/cmsis_gcc.h **** 
 512:Generated_Source\PSoC5/cmsis_gcc.h ****   __ASM volatile ("MRS %0, psplim"  : "=r" (result) );
 513:Generated_Source\PSoC5/cmsis_gcc.h ****   return(result);
 514:Generated_Source\PSoC5/cmsis_gcc.h **** }
 515:Generated_Source\PSoC5/cmsis_gcc.h **** 
 516:Generated_Source\PSoC5/cmsis_gcc.h **** 
 517:Generated_Source\PSoC5/cmsis_gcc.h **** #if ((defined (__ARM_FEATURE_CMSE  ) && (__ARM_FEATURE_CMSE   == 3)) && \
 518:Generated_Source\PSoC5/cmsis_gcc.h ****      (defined (__ARM_ARCH_8M_MAIN__) && (__ARM_ARCH_8M_MAIN__ == 1))    )
 519:Generated_Source\PSoC5/cmsis_gcc.h **** /**
 520:Generated_Source\PSoC5/cmsis_gcc.h ****   \brief   Get Process Stack Pointer Limit (non-secure)
 521:Generated_Source\PSoC5/cmsis_gcc.h ****   \details Returns the current value of the non-secure Process Stack Pointer Limit (PSPLIM) when in
 522:Generated_Source\PSoC5/cmsis_gcc.h ****   \return               PSPLIM Register value
 523:Generated_Source\PSoC5/cmsis_gcc.h ****  */
 524:Generated_Source\PSoC5/cmsis_gcc.h **** __attribute__((always_inline)) __STATIC_INLINE uint32_t __TZ_get_PSPLIM_NS(void)
 525:Generated_Source\PSoC5/cmsis_gcc.h **** {
 526:Generated_Source\PSoC5/cmsis_gcc.h ****   register uint32_t result;
 527:Generated_Source\PSoC5/cmsis_gcc.h **** 
 528:Generated_Source\PSoC5/cmsis_gcc.h ****   __ASM volatile ("MRS %0, psplim_ns"  : "=r" (result) );
 529:Generated_Source\PSoC5/cmsis_gcc.h ****   return(result);
 530:Generated_Source\PSoC5/cmsis_gcc.h **** }
 531:Generated_Source\PSoC5/cmsis_gcc.h **** #endif
 532:Generated_Source\PSoC5/cmsis_gcc.h **** 
 533:Generated_Source\PSoC5/cmsis_gcc.h **** 
 534:Generated_Source\PSoC5/cmsis_gcc.h **** /**
 535:Generated_Source\PSoC5/cmsis_gcc.h ****   \brief   Set Process Stack Pointer Limit
 536:Generated_Source\PSoC5/cmsis_gcc.h ****   \details Assigns the given value to the Process Stack Pointer Limit (PSPLIM).
 537:Generated_Source\PSoC5/cmsis_gcc.h ****   \param [in]    ProcStackPtrLimit  Process Stack Pointer Limit value to set
 538:Generated_Source\PSoC5/cmsis_gcc.h ****  */
 539:Generated_Source\PSoC5/cmsis_gcc.h **** __attribute__((always_inline)) __STATIC_INLINE void __set_PSPLIM(uint32_t ProcStackPtrLimit)
 540:Generated_Source\PSoC5/cmsis_gcc.h **** {
 541:Generated_Source\PSoC5/cmsis_gcc.h ****   __ASM volatile ("MSR psplim, %0" : : "r" (ProcStackPtrLimit));
 542:Generated_Source\PSoC5/cmsis_gcc.h **** }
 543:Generated_Source\PSoC5/cmsis_gcc.h **** 
 544:Generated_Source\PSoC5/cmsis_gcc.h **** 
 545:Generated_Source\PSoC5/cmsis_gcc.h **** #if ((defined (__ARM_FEATURE_CMSE  ) && (__ARM_FEATURE_CMSE   == 3)) && \
 546:Generated_Source\PSoC5/cmsis_gcc.h ****      (defined (__ARM_ARCH_8M_MAIN__) && (__ARM_ARCH_8M_MAIN__ == 1))    )
 547:Generated_Source\PSoC5/cmsis_gcc.h **** /**
 548:Generated_Source\PSoC5/cmsis_gcc.h ****   \brief   Set Process Stack Pointer (non-secure)
 549:Generated_Source\PSoC5/cmsis_gcc.h ****   \details Assigns the given value to the non-secure Process Stack Pointer Limit (PSPLIM) when in s
 550:Generated_Source\PSoC5/cmsis_gcc.h ****   \param [in]    ProcStackPtrLimit  Process Stack Pointer Limit value to set
 551:Generated_Source\PSoC5/cmsis_gcc.h ****  */
 552:Generated_Source\PSoC5/cmsis_gcc.h **** __attribute__((always_inline)) __STATIC_INLINE void __TZ_set_PSPLIM_NS(uint32_t ProcStackPtrLimit)
 553:Generated_Source\PSoC5/cmsis_gcc.h **** {
 554:Generated_Source\PSoC5/cmsis_gcc.h ****   __ASM volatile ("MSR psplim_ns, %0\n" : : "r" (ProcStackPtrLimit));
 555:Generated_Source\PSoC5/cmsis_gcc.h **** }
 556:Generated_Source\PSoC5/cmsis_gcc.h **** #endif
 557:Generated_Source\PSoC5/cmsis_gcc.h **** 
ARM GAS  C:\Users\MattiaCP\AppData\Local\Temp\ccH4xQQo.s 			page 19


 558:Generated_Source\PSoC5/cmsis_gcc.h **** 
 559:Generated_Source\PSoC5/cmsis_gcc.h **** /**
 560:Generated_Source\PSoC5/cmsis_gcc.h ****   \brief   Get Main Stack Pointer Limit
 561:Generated_Source\PSoC5/cmsis_gcc.h ****   \details Returns the current value of the Main Stack Pointer Limit (MSPLIM).
 562:Generated_Source\PSoC5/cmsis_gcc.h ****   \return               MSPLIM Register value
 563:Generated_Source\PSoC5/cmsis_gcc.h ****  */
 564:Generated_Source\PSoC5/cmsis_gcc.h **** __attribute__((always_inline)) __STATIC_INLINE uint32_t __get_MSPLIM(void)
 565:Generated_Source\PSoC5/cmsis_gcc.h **** {
 566:Generated_Source\PSoC5/cmsis_gcc.h ****   register uint32_t result;
 567:Generated_Source\PSoC5/cmsis_gcc.h **** 
 568:Generated_Source\PSoC5/cmsis_gcc.h ****   __ASM volatile ("MRS %0, msplim" : "=r" (result) );
 569:Generated_Source\PSoC5/cmsis_gcc.h **** 
 570:Generated_Source\PSoC5/cmsis_gcc.h ****   return(result);
 571:Generated_Source\PSoC5/cmsis_gcc.h **** }
 572:Generated_Source\PSoC5/cmsis_gcc.h **** 
 573:Generated_Source\PSoC5/cmsis_gcc.h **** 
 574:Generated_Source\PSoC5/cmsis_gcc.h **** #if ((defined (__ARM_FEATURE_CMSE  ) && (__ARM_FEATURE_CMSE   == 3)) && \
 575:Generated_Source\PSoC5/cmsis_gcc.h ****      (defined (__ARM_ARCH_8M_MAIN__) && (__ARM_ARCH_8M_MAIN__ == 1))    )
 576:Generated_Source\PSoC5/cmsis_gcc.h **** /**
 577:Generated_Source\PSoC5/cmsis_gcc.h ****   \brief   Get Main Stack Pointer Limit (non-secure)
 578:Generated_Source\PSoC5/cmsis_gcc.h ****   \details Returns the current value of the non-secure Main Stack Pointer Limit(MSPLIM) when in sec
 579:Generated_Source\PSoC5/cmsis_gcc.h ****   \return               MSPLIM Register value
 580:Generated_Source\PSoC5/cmsis_gcc.h ****  */
 581:Generated_Source\PSoC5/cmsis_gcc.h **** __attribute__((always_inline)) __STATIC_INLINE uint32_t __TZ_get_MSPLIM_NS(void)
 582:Generated_Source\PSoC5/cmsis_gcc.h **** {
 583:Generated_Source\PSoC5/cmsis_gcc.h ****   register uint32_t result;
 584:Generated_Source\PSoC5/cmsis_gcc.h **** 
 585:Generated_Source\PSoC5/cmsis_gcc.h ****   __ASM volatile ("MRS %0, msplim_ns" : "=r" (result) );
 586:Generated_Source\PSoC5/cmsis_gcc.h ****   return(result);
 587:Generated_Source\PSoC5/cmsis_gcc.h **** }
 588:Generated_Source\PSoC5/cmsis_gcc.h **** #endif
 589:Generated_Source\PSoC5/cmsis_gcc.h **** 
 590:Generated_Source\PSoC5/cmsis_gcc.h **** 
 591:Generated_Source\PSoC5/cmsis_gcc.h **** /**
 592:Generated_Source\PSoC5/cmsis_gcc.h ****   \brief   Set Main Stack Pointer Limit
 593:Generated_Source\PSoC5/cmsis_gcc.h ****   \details Assigns the given value to the Main Stack Pointer Limit (MSPLIM).
 594:Generated_Source\PSoC5/cmsis_gcc.h ****   \param [in]    MainStackPtrLimit  Main Stack Pointer Limit value to set
 595:Generated_Source\PSoC5/cmsis_gcc.h ****  */
 596:Generated_Source\PSoC5/cmsis_gcc.h **** __attribute__((always_inline)) __STATIC_INLINE void __set_MSPLIM(uint32_t MainStackPtrLimit)
 597:Generated_Source\PSoC5/cmsis_gcc.h **** {
 598:Generated_Source\PSoC5/cmsis_gcc.h ****   __ASM volatile ("MSR msplim, %0" : : "r" (MainStackPtrLimit));
 599:Generated_Source\PSoC5/cmsis_gcc.h **** }
 600:Generated_Source\PSoC5/cmsis_gcc.h **** 
 601:Generated_Source\PSoC5/cmsis_gcc.h **** 
 602:Generated_Source\PSoC5/cmsis_gcc.h **** #if ((defined (__ARM_FEATURE_CMSE  ) && (__ARM_FEATURE_CMSE   == 3)) && \
 603:Generated_Source\PSoC5/cmsis_gcc.h ****      (defined (__ARM_ARCH_8M_MAIN__) && (__ARM_ARCH_8M_MAIN__ == 1))    )
 604:Generated_Source\PSoC5/cmsis_gcc.h **** /**
 605:Generated_Source\PSoC5/cmsis_gcc.h ****   \brief   Set Main Stack Pointer Limit (non-secure)
 606:Generated_Source\PSoC5/cmsis_gcc.h ****   \details Assigns the given value to the non-secure Main Stack Pointer Limit (MSPLIM) when in secu
 607:Generated_Source\PSoC5/cmsis_gcc.h ****   \param [in]    MainStackPtrLimit  Main Stack Pointer value to set
 608:Generated_Source\PSoC5/cmsis_gcc.h ****  */
 609:Generated_Source\PSoC5/cmsis_gcc.h **** __attribute__((always_inline)) __STATIC_INLINE void __TZ_set_MSPLIM_NS(uint32_t MainStackPtrLimit)
 610:Generated_Source\PSoC5/cmsis_gcc.h **** {
 611:Generated_Source\PSoC5/cmsis_gcc.h ****   __ASM volatile ("MSR msplim_ns, %0" : : "r" (MainStackPtrLimit));
 612:Generated_Source\PSoC5/cmsis_gcc.h **** }
 613:Generated_Source\PSoC5/cmsis_gcc.h **** #endif
 614:Generated_Source\PSoC5/cmsis_gcc.h **** 
ARM GAS  C:\Users\MattiaCP\AppData\Local\Temp\ccH4xQQo.s 			page 20


 615:Generated_Source\PSoC5/cmsis_gcc.h **** #endif /* ((defined (__ARM_ARCH_8M_MAIN__ ) && (__ARM_ARCH_8M_MAIN__ == 1U)) || \
 616:Generated_Source\PSoC5/cmsis_gcc.h ****            (defined (__ARM_ARCH_8M_BASE__ ) && (__ARM_ARCH_8M_BASE__ == 1U))    ) */
 617:Generated_Source\PSoC5/cmsis_gcc.h **** 
 618:Generated_Source\PSoC5/cmsis_gcc.h **** 
 619:Generated_Source\PSoC5/cmsis_gcc.h **** #if ((defined (__ARM_ARCH_7EM__     ) && (__ARM_ARCH_7EM__     == 1)) || \
 620:Generated_Source\PSoC5/cmsis_gcc.h ****      (defined (__ARM_ARCH_8M_MAIN__ ) && (__ARM_ARCH_8M_MAIN__ == 1))    )
 621:Generated_Source\PSoC5/cmsis_gcc.h **** 
 622:Generated_Source\PSoC5/cmsis_gcc.h **** /**
 623:Generated_Source\PSoC5/cmsis_gcc.h ****   \brief   Get FPSCR
 624:Generated_Source\PSoC5/cmsis_gcc.h ****   \details Returns the current value of the Floating Point Status/Control register.
 625:Generated_Source\PSoC5/cmsis_gcc.h ****   \return               Floating Point Status/Control register value
 626:Generated_Source\PSoC5/cmsis_gcc.h ****  */
 627:Generated_Source\PSoC5/cmsis_gcc.h **** __attribute__((always_inline)) __STATIC_INLINE uint32_t __get_FPSCR(void)
 628:Generated_Source\PSoC5/cmsis_gcc.h **** {
 629:Generated_Source\PSoC5/cmsis_gcc.h **** #if ((defined (__FPU_PRESENT) && (__FPU_PRESENT == 1U)) && \
 630:Generated_Source\PSoC5/cmsis_gcc.h ****      (defined (__FPU_USED   ) && (__FPU_USED    == 1U))     )
 631:Generated_Source\PSoC5/cmsis_gcc.h ****   uint32_t result;
 632:Generated_Source\PSoC5/cmsis_gcc.h **** 
 633:Generated_Source\PSoC5/cmsis_gcc.h ****   __ASM volatile ("");                                 /* Empty asm statement works as a scheduling
 634:Generated_Source\PSoC5/cmsis_gcc.h ****   __ASM volatile ("VMRS %0, fpscr" : "=r" (result) );
 635:Generated_Source\PSoC5/cmsis_gcc.h ****   __ASM volatile ("");
 636:Generated_Source\PSoC5/cmsis_gcc.h ****   return(result);
 637:Generated_Source\PSoC5/cmsis_gcc.h **** #else
 638:Generated_Source\PSoC5/cmsis_gcc.h ****    return(0U);
 639:Generated_Source\PSoC5/cmsis_gcc.h **** #endif
 640:Generated_Source\PSoC5/cmsis_gcc.h **** }
 641:Generated_Source\PSoC5/cmsis_gcc.h **** 
 642:Generated_Source\PSoC5/cmsis_gcc.h **** 
 643:Generated_Source\PSoC5/cmsis_gcc.h **** /**
 644:Generated_Source\PSoC5/cmsis_gcc.h ****   \brief   Set FPSCR
 645:Generated_Source\PSoC5/cmsis_gcc.h ****   \details Assigns the given value to the Floating Point Status/Control register.
 646:Generated_Source\PSoC5/cmsis_gcc.h ****   \param [in]    fpscr  Floating Point Status/Control value to set
 647:Generated_Source\PSoC5/cmsis_gcc.h ****  */
 648:Generated_Source\PSoC5/cmsis_gcc.h **** __attribute__((always_inline)) __STATIC_INLINE void __set_FPSCR(uint32_t fpscr)
 649:Generated_Source\PSoC5/cmsis_gcc.h **** {
 650:Generated_Source\PSoC5/cmsis_gcc.h **** #if ((defined (__FPU_PRESENT) && (__FPU_PRESENT == 1U)) && \
 651:Generated_Source\PSoC5/cmsis_gcc.h ****      (defined (__FPU_USED   ) && (__FPU_USED    == 1U))     )
 652:Generated_Source\PSoC5/cmsis_gcc.h ****   __ASM volatile ("");                                           /* Empty asm statement works as a 
 653:Generated_Source\PSoC5/cmsis_gcc.h ****   __ASM volatile ("VMSR fpscr, %0" : : "r" (fpscr) : "vfpcc");
 654:Generated_Source\PSoC5/cmsis_gcc.h ****   __ASM volatile ("");
 655:Generated_Source\PSoC5/cmsis_gcc.h **** #endif
 656:Generated_Source\PSoC5/cmsis_gcc.h **** }
 657:Generated_Source\PSoC5/cmsis_gcc.h **** 
 658:Generated_Source\PSoC5/cmsis_gcc.h **** #endif /* ((defined (__ARM_ARCH_7EM__     ) && (__ARM_ARCH_7EM__     == 1)) || \
 659:Generated_Source\PSoC5/cmsis_gcc.h ****            (defined (__ARM_ARCH_8M_MAIN__ ) && (__ARM_ARCH_8M_MAIN__ == 1))    ) */
 660:Generated_Source\PSoC5/cmsis_gcc.h **** 
 661:Generated_Source\PSoC5/cmsis_gcc.h **** 
 662:Generated_Source\PSoC5/cmsis_gcc.h **** 
 663:Generated_Source\PSoC5/cmsis_gcc.h **** /*@} end of CMSIS_Core_RegAccFunctions */
 664:Generated_Source\PSoC5/cmsis_gcc.h **** 
 665:Generated_Source\PSoC5/cmsis_gcc.h **** 
 666:Generated_Source\PSoC5/cmsis_gcc.h **** /* ##########################  Core Instruction Access  ######################### */
 667:Generated_Source\PSoC5/cmsis_gcc.h **** /** \defgroup CMSIS_Core_InstructionInterface CMSIS Core Instruction Interface
 668:Generated_Source\PSoC5/cmsis_gcc.h ****   Access to dedicated instructions
 669:Generated_Source\PSoC5/cmsis_gcc.h ****   @{
 670:Generated_Source\PSoC5/cmsis_gcc.h **** */
 671:Generated_Source\PSoC5/cmsis_gcc.h **** 
ARM GAS  C:\Users\MattiaCP\AppData\Local\Temp\ccH4xQQo.s 			page 21


 672:Generated_Source\PSoC5/cmsis_gcc.h **** /* Define macros for porting to both thumb1 and thumb2.
 673:Generated_Source\PSoC5/cmsis_gcc.h ****  * For thumb1, use low register (r0-r7), specified by constraint "l"
 674:Generated_Source\PSoC5/cmsis_gcc.h ****  * Otherwise, use general registers, specified by constraint "r" */
 675:Generated_Source\PSoC5/cmsis_gcc.h **** #if defined (__thumb__) && !defined (__thumb2__)
 676:Generated_Source\PSoC5/cmsis_gcc.h **** #define __CMSIS_GCC_OUT_REG(r) "=l" (r)
 677:Generated_Source\PSoC5/cmsis_gcc.h **** #define __CMSIS_GCC_RW_REG(r) "+l" (r)
 678:Generated_Source\PSoC5/cmsis_gcc.h **** #define __CMSIS_GCC_USE_REG(r) "l" (r)
 679:Generated_Source\PSoC5/cmsis_gcc.h **** #else
 680:Generated_Source\PSoC5/cmsis_gcc.h **** #define __CMSIS_GCC_OUT_REG(r) "=r" (r)
 681:Generated_Source\PSoC5/cmsis_gcc.h **** #define __CMSIS_GCC_RW_REG(r) "+r" (r)
 682:Generated_Source\PSoC5/cmsis_gcc.h **** #define __CMSIS_GCC_USE_REG(r) "r" (r)
 683:Generated_Source\PSoC5/cmsis_gcc.h **** #endif
 684:Generated_Source\PSoC5/cmsis_gcc.h **** 
 685:Generated_Source\PSoC5/cmsis_gcc.h **** /**
 686:Generated_Source\PSoC5/cmsis_gcc.h ****   \brief   No Operation
 687:Generated_Source\PSoC5/cmsis_gcc.h ****   \details No Operation does nothing. This instruction can be used for code alignment purposes.
 688:Generated_Source\PSoC5/cmsis_gcc.h ****  */
 689:Generated_Source\PSoC5/cmsis_gcc.h **** //__attribute__((always_inline)) __STATIC_INLINE void __NOP(void)
 690:Generated_Source\PSoC5/cmsis_gcc.h **** //{
 691:Generated_Source\PSoC5/cmsis_gcc.h **** //  __ASM volatile ("nop");
 692:Generated_Source\PSoC5/cmsis_gcc.h **** //}
 693:Generated_Source\PSoC5/cmsis_gcc.h **** #define __NOP()                             __ASM volatile ("nop")       /* This implementation gen
 694:Generated_Source\PSoC5/cmsis_gcc.h **** 
 695:Generated_Source\PSoC5/cmsis_gcc.h **** /**
 696:Generated_Source\PSoC5/cmsis_gcc.h ****   \brief   Wait For Interrupt
 697:Generated_Source\PSoC5/cmsis_gcc.h ****   \details Wait For Interrupt is a hint instruction that suspends execution until one of a number o
 698:Generated_Source\PSoC5/cmsis_gcc.h ****  */
 699:Generated_Source\PSoC5/cmsis_gcc.h **** //__attribute__((always_inline)) __STATIC_INLINE void __WFI(void)
 700:Generated_Source\PSoC5/cmsis_gcc.h **** //{
 701:Generated_Source\PSoC5/cmsis_gcc.h **** //  __ASM volatile ("wfi");
 702:Generated_Source\PSoC5/cmsis_gcc.h **** //}
 703:Generated_Source\PSoC5/cmsis_gcc.h **** #define __WFI()                             __ASM volatile ("wfi")       /* This implementation gen
 704:Generated_Source\PSoC5/cmsis_gcc.h **** 
 705:Generated_Source\PSoC5/cmsis_gcc.h **** 
 706:Generated_Source\PSoC5/cmsis_gcc.h **** /**
 707:Generated_Source\PSoC5/cmsis_gcc.h ****   \brief   Wait For Event
 708:Generated_Source\PSoC5/cmsis_gcc.h ****   \details Wait For Event is a hint instruction that permits the processor to enter
 709:Generated_Source\PSoC5/cmsis_gcc.h ****            a low-power state until one of a number of events occurs.
 710:Generated_Source\PSoC5/cmsis_gcc.h ****  */
 711:Generated_Source\PSoC5/cmsis_gcc.h **** //__attribute__((always_inline)) __STATIC_INLINE void __WFE(void)
 712:Generated_Source\PSoC5/cmsis_gcc.h **** //{
 713:Generated_Source\PSoC5/cmsis_gcc.h **** //  __ASM volatile ("wfe");
 714:Generated_Source\PSoC5/cmsis_gcc.h **** //}
 715:Generated_Source\PSoC5/cmsis_gcc.h **** #define __WFE()                             __ASM volatile ("wfe")       /* This implementation gen
 716:Generated_Source\PSoC5/cmsis_gcc.h **** 
 717:Generated_Source\PSoC5/cmsis_gcc.h **** 
 718:Generated_Source\PSoC5/cmsis_gcc.h **** /**
 719:Generated_Source\PSoC5/cmsis_gcc.h ****   \brief   Send Event
 720:Generated_Source\PSoC5/cmsis_gcc.h ****   \details Send Event is a hint instruction. It causes an event to be signaled to the CPU.
 721:Generated_Source\PSoC5/cmsis_gcc.h ****  */
 722:Generated_Source\PSoC5/cmsis_gcc.h **** //__attribute__((always_inline)) __STATIC_INLINE void __SEV(void)
 723:Generated_Source\PSoC5/cmsis_gcc.h **** //{
 724:Generated_Source\PSoC5/cmsis_gcc.h **** //  __ASM volatile ("sev");
 725:Generated_Source\PSoC5/cmsis_gcc.h **** //}
 726:Generated_Source\PSoC5/cmsis_gcc.h **** #define __SEV()                             __ASM volatile ("sev")       /* This implementation gen
 727:Generated_Source\PSoC5/cmsis_gcc.h **** 
 728:Generated_Source\PSoC5/cmsis_gcc.h **** 
ARM GAS  C:\Users\MattiaCP\AppData\Local\Temp\ccH4xQQo.s 			page 22


 729:Generated_Source\PSoC5/cmsis_gcc.h **** /**
 730:Generated_Source\PSoC5/cmsis_gcc.h ****   \brief   Instruction Synchronization Barrier
 731:Generated_Source\PSoC5/cmsis_gcc.h ****   \details Instruction Synchronization Barrier flushes the pipeline in the processor,
 732:Generated_Source\PSoC5/cmsis_gcc.h ****            so that all instructions following the ISB are fetched from cache or memory,
 733:Generated_Source\PSoC5/cmsis_gcc.h ****            after the instruction has been completed.
 734:Generated_Source\PSoC5/cmsis_gcc.h ****  */
 735:Generated_Source\PSoC5/cmsis_gcc.h **** __attribute__((always_inline)) __STATIC_INLINE void __ISB(void)
 736:Generated_Source\PSoC5/cmsis_gcc.h **** {
 737:Generated_Source\PSoC5/cmsis_gcc.h ****   __ASM volatile ("isb 0xF":::"memory");
 738:Generated_Source\PSoC5/cmsis_gcc.h **** }
 739:Generated_Source\PSoC5/cmsis_gcc.h **** 
 740:Generated_Source\PSoC5/cmsis_gcc.h **** 
 741:Generated_Source\PSoC5/cmsis_gcc.h **** /**
 742:Generated_Source\PSoC5/cmsis_gcc.h ****   \brief   Data Synchronization Barrier
 743:Generated_Source\PSoC5/cmsis_gcc.h ****   \details Acts as a special kind of Data Memory Barrier.
 744:Generated_Source\PSoC5/cmsis_gcc.h ****            It completes when all explicit memory accesses before this instruction complete.
 745:Generated_Source\PSoC5/cmsis_gcc.h ****  */
 746:Generated_Source\PSoC5/cmsis_gcc.h **** __attribute__((always_inline)) __STATIC_INLINE void __DSB(void)
 747:Generated_Source\PSoC5/cmsis_gcc.h **** {
 748:Generated_Source\PSoC5/cmsis_gcc.h ****   __ASM volatile ("dsb 0xF":::"memory");
 749:Generated_Source\PSoC5/cmsis_gcc.h **** }
 750:Generated_Source\PSoC5/cmsis_gcc.h **** 
 751:Generated_Source\PSoC5/cmsis_gcc.h **** 
 752:Generated_Source\PSoC5/cmsis_gcc.h **** /**
 753:Generated_Source\PSoC5/cmsis_gcc.h ****   \brief   Data Memory Barrier
 754:Generated_Source\PSoC5/cmsis_gcc.h ****   \details Ensures the apparent order of the explicit memory operations before
 755:Generated_Source\PSoC5/cmsis_gcc.h ****            and after the instruction, without ensuring their completion.
 756:Generated_Source\PSoC5/cmsis_gcc.h ****  */
 757:Generated_Source\PSoC5/cmsis_gcc.h **** __attribute__((always_inline)) __STATIC_INLINE void __DMB(void)
 758:Generated_Source\PSoC5/cmsis_gcc.h **** {
 759:Generated_Source\PSoC5/cmsis_gcc.h ****   __ASM volatile ("dmb 0xF":::"memory");
 760:Generated_Source\PSoC5/cmsis_gcc.h **** }
 761:Generated_Source\PSoC5/cmsis_gcc.h **** 
 762:Generated_Source\PSoC5/cmsis_gcc.h **** 
 763:Generated_Source\PSoC5/cmsis_gcc.h **** /**
 764:Generated_Source\PSoC5/cmsis_gcc.h ****   \brief   Reverse byte order (32 bit)
 765:Generated_Source\PSoC5/cmsis_gcc.h ****   \details Reverses the byte order in integer value.
 766:Generated_Source\PSoC5/cmsis_gcc.h ****   \param [in]    value  Value to reverse
 767:Generated_Source\PSoC5/cmsis_gcc.h ****   \return               Reversed value
 768:Generated_Source\PSoC5/cmsis_gcc.h ****  */
 769:Generated_Source\PSoC5/cmsis_gcc.h **** __attribute__((always_inline)) __STATIC_INLINE uint32_t __REV(uint32_t value)
 770:Generated_Source\PSoC5/cmsis_gcc.h **** {
 771:Generated_Source\PSoC5/cmsis_gcc.h **** #if (__GNUC__ > 4) || (__GNUC__ == 4 && __GNUC_MINOR__ >= 5)
 772:Generated_Source\PSoC5/cmsis_gcc.h ****   return __builtin_bswap32(value);
 773:Generated_Source\PSoC5/cmsis_gcc.h **** #else
 774:Generated_Source\PSoC5/cmsis_gcc.h ****   uint32_t result;
 775:Generated_Source\PSoC5/cmsis_gcc.h **** 
 776:Generated_Source\PSoC5/cmsis_gcc.h ****   __ASM volatile ("rev %0, %1" : __CMSIS_GCC_OUT_REG (result) : __CMSIS_GCC_USE_REG (value) );
 777:Generated_Source\PSoC5/cmsis_gcc.h ****   return(result);
 778:Generated_Source\PSoC5/cmsis_gcc.h **** #endif
 779:Generated_Source\PSoC5/cmsis_gcc.h **** }
 780:Generated_Source\PSoC5/cmsis_gcc.h **** 
 781:Generated_Source\PSoC5/cmsis_gcc.h **** 
 782:Generated_Source\PSoC5/cmsis_gcc.h **** /**
 783:Generated_Source\PSoC5/cmsis_gcc.h ****   \brief   Reverse byte order (16 bit)
 784:Generated_Source\PSoC5/cmsis_gcc.h ****   \details Reverses the byte order in two unsigned short values.
 785:Generated_Source\PSoC5/cmsis_gcc.h ****   \param [in]    value  Value to reverse
ARM GAS  C:\Users\MattiaCP\AppData\Local\Temp\ccH4xQQo.s 			page 23


 786:Generated_Source\PSoC5/cmsis_gcc.h ****   \return               Reversed value
 787:Generated_Source\PSoC5/cmsis_gcc.h ****  */
 788:Generated_Source\PSoC5/cmsis_gcc.h **** __attribute__((always_inline)) __STATIC_INLINE uint32_t __REV16(uint32_t value)
 789:Generated_Source\PSoC5/cmsis_gcc.h **** {
 790:Generated_Source\PSoC5/cmsis_gcc.h ****   uint32_t result;
 791:Generated_Source\PSoC5/cmsis_gcc.h **** 
 792:Generated_Source\PSoC5/cmsis_gcc.h ****   __ASM volatile ("rev16 %0, %1" : __CMSIS_GCC_OUT_REG (result) : __CMSIS_GCC_USE_REG (value) );
 320              		.loc 2 792 0
 321 0336 3B69     		ldr	r3, [r7, #16]
 322              		.syntax unified
 323              	@ 792 "Generated_Source\PSoC5/cmsis_gcc.h" 1
 324 0338 5BBA     		rev16 r3, r3
 325              	@ 0 "" 2
 326              		.thumb
 327              		.syntax unified
 328 033a FB60     		str	r3, [r7, #12]
 793:Generated_Source\PSoC5/cmsis_gcc.h ****   return(result);
 329              		.loc 2 793 0
 330 033c FB68     		ldr	r3, [r7, #12]
 331              	.LBE9:
 332              	.LBE8:
 333              		.loc 1 150 0
 334 033e 9BB2     		uxth	r3, r3
 335 0340 1846     		mov	r0, r3
 336 0342 FFF7FEFF 		bl	infoGet
 151:..\src/command_processing.c ****             break;
 337              		.loc 1 151 0
 338 0346 BDE0     		b	.L1
 339              	.L7:
 152:..\src/command_processing.c **** 
 153:..\src/command_processing.c **** //============================================================     CMD_SET_PARAM
 154:..\src/command_processing.c **** 
 155:..\src/command_processing.c ****         case CMD_SET_ZEROS:
 156:..\src/command_processing.c ****             setZeros();
 340              		.loc 1 156 0
 341 0348 FFF7FEFF 		bl	setZeros
 157:..\src/command_processing.c ****             break;
 342              		.loc 1 157 0
 343 034c BAE0     		b	.L1
 344              	.L14:
 158:..\src/command_processing.c **** 
 159:..\src/command_processing.c **** //============================================================     CMD_GET_PARAM
 160:..\src/command_processing.c **** 
 161:..\src/command_processing.c ****         case CMD_GET_PARAM_LIST:
 162:..\src/command_processing.c ****             manage_param_list( __REV16(*((uint16 *) &g_rx.buffer[1])) );
 345              		.loc 1 162 0
 346 034e 114B     		ldr	r3, .L48+4
 347 0350 1B88     		ldrh	r3, [r3]
 348 0352 BB61     		str	r3, [r7, #24]
 349              	.LBB10:
 350              	.LBB11:
 792:Generated_Source\PSoC5/cmsis_gcc.h ****   return(result);
 351              		.loc 2 792 0
 352 0354 BB69     		ldr	r3, [r7, #24]
 353              		.syntax unified
 354              	@ 792 "Generated_Source\PSoC5/cmsis_gcc.h" 1
 355 0356 5BBA     		rev16 r3, r3
ARM GAS  C:\Users\MattiaCP\AppData\Local\Temp\ccH4xQQo.s 			page 24


 356              	@ 0 "" 2
 357              		.thumb
 358              		.syntax unified
 359 0358 BB60     		str	r3, [r7, #8]
 360              		.loc 2 793 0
 361 035a BB68     		ldr	r3, [r7, #8]
 362              	.LBE11:
 363              	.LBE10:
 364              		.loc 1 162 0
 365 035c 9BB2     		uxth	r3, r3
 366 035e 1846     		mov	r0, r3
 367 0360 FFF7FEFF 		bl	manage_param_list
 163:..\src/command_processing.c ****             break;
 368              		.loc 1 163 0
 369 0364 AEE0     		b	.L1
 370              	.L5:
 164:..\src/command_processing.c **** 
 165:..\src/command_processing.c **** //=================================================================     CMD_PING
 166:..\src/command_processing.c ****             
 167:..\src/command_processing.c ****         case CMD_PING:
 168:..\src/command_processing.c ****             cmd_ping();
 371              		.loc 1 168 0
 372 0366 FFF7FEFF 		bl	cmd_ping
 169:..\src/command_processing.c ****             break;
 373              		.loc 1 169 0
 374 036a ABE0     		b	.L1
 375              	.L8:
 170:..\src/command_processing.c **** 
 171:..\src/command_processing.c **** //=========================================================     CMD_STORE_PARAMS
 172:..\src/command_processing.c ****             
 173:..\src/command_processing.c ****         case CMD_STORE_PARAMS:
 174:..\src/command_processing.c ****             cmd_store_params();
 376              		.loc 1 174 0
 377 036c FFF7FEFF 		bl	cmd_store_params
 175:..\src/command_processing.c ****             break;
 378              		.loc 1 175 0
 379 0370 A8E0     		b	.L1
 380              	.L9:
 176:..\src/command_processing.c **** 
 177:..\src/command_processing.c **** //=================================================     CMD_STORE_DEFAULT_PARAMS
 178:..\src/command_processing.c **** 
 179:..\src/command_processing.c ****         case CMD_STORE_DEFAULT_PARAMS:
 180:..\src/command_processing.c ****             if(memStore(DEFAULT_EEPROM_DISPLACEMENT))
 381              		.loc 1 180 0
 382 0372 3220     		movs	r0, #50
 383 0374 FFF7FEFF 		bl	memStore
 384 0378 0346     		mov	r3, r0
 385 037a 002B     		cmp	r3, #0
 386 037c 03D0     		beq	.L36
 181:..\src/command_processing.c ****                 sendAcknowledgment(ACK_OK);
 387              		.loc 1 181 0
 388 037e 0120     		movs	r0, #1
 389 0380 FFF7FEFF 		bl	sendAcknowledgment
 182:..\src/command_processing.c ****             else
 183:..\src/command_processing.c ****                 sendAcknowledgment(ACK_ERROR);
 184:..\src/command_processing.c ****             break;
 390              		.loc 1 184 0
ARM GAS  C:\Users\MattiaCP\AppData\Local\Temp\ccH4xQQo.s 			page 25


 391 0384 9EE0     		b	.L1
 392              	.L36:
 183:..\src/command_processing.c ****             break;
 393              		.loc 1 183 0
 394 0386 0020     		movs	r0, #0
 395 0388 FFF7FEFF 		bl	sendAcknowledgment
 396              		.loc 1 184 0
 397 038c 9AE0     		b	.L1
 398              	.L49:
 399 038e 00BF     		.align	2
 400              	.L48:
 401 0390 00000000 		.word	g_rx
 402 0394 01000000 		.word	g_rx+1
 403              	.L10:
 185:..\src/command_processing.c **** 
 186:..\src/command_processing.c **** //=======================================================     CMD_RESTORE_PARAMS
 187:..\src/command_processing.c **** 
 188:..\src/command_processing.c ****         case CMD_RESTORE_PARAMS:
 189:..\src/command_processing.c ****             if(memRestore())
 404              		.loc 1 189 0
 405 0398 FFF7FEFF 		bl	memRestore
 406 039c 0346     		mov	r3, r0
 407 039e 002B     		cmp	r3, #0
 408 03a0 03D0     		beq	.L38
 190:..\src/command_processing.c ****                 sendAcknowledgment(ACK_OK);
 409              		.loc 1 190 0
 410 03a2 0120     		movs	r0, #1
 411 03a4 FFF7FEFF 		bl	sendAcknowledgment
 191:..\src/command_processing.c ****             else
 192:..\src/command_processing.c ****                 sendAcknowledgment(ACK_ERROR);
 193:..\src/command_processing.c ****             break;
 412              		.loc 1 193 0
 413 03a8 8CE0     		b	.L1
 414              	.L38:
 192:..\src/command_processing.c ****             break;
 415              		.loc 1 192 0
 416 03aa 0020     		movs	r0, #0
 417 03ac FFF7FEFF 		bl	sendAcknowledgment
 418              		.loc 1 193 0
 419 03b0 88E0     		b	.L1
 420              	.L13:
 194:..\src/command_processing.c **** 
 195:..\src/command_processing.c **** //=============================================================     CMD_INIT_MEM
 196:..\src/command_processing.c **** 
 197:..\src/command_processing.c ****         case CMD_INIT_MEM:            
 198:..\src/command_processing.c ****             if(memInit())
 421              		.loc 1 198 0
 422 03b2 FFF7FEFF 		bl	memInit
 423 03b6 0346     		mov	r3, r0
 424 03b8 002B     		cmp	r3, #0
 425 03ba 03D0     		beq	.L40
 199:..\src/command_processing.c ****                 sendAcknowledgment(ACK_OK);
 426              		.loc 1 199 0
 427 03bc 0120     		movs	r0, #1
 428 03be FFF7FEFF 		bl	sendAcknowledgment
 200:..\src/command_processing.c ****             else
 201:..\src/command_processing.c ****                 sendAcknowledgment(ACK_ERROR);
ARM GAS  C:\Users\MattiaCP\AppData\Local\Temp\ccH4xQQo.s 			page 26


 202:..\src/command_processing.c ****             break;
 429              		.loc 1 202 0
 430 03c2 7FE0     		b	.L1
 431              	.L40:
 201:..\src/command_processing.c ****             break;
 432              		.loc 1 201 0
 433 03c4 0020     		movs	r0, #0
 434 03c6 FFF7FEFF 		bl	sendAcknowledgment
 435              		.loc 1 202 0
 436 03ca 7BE0     		b	.L1
 437              	.L12:
 203:..\src/command_processing.c **** 
 204:..\src/command_processing.c **** //===========================================================     CMD_BOOTLOADER
 205:..\src/command_processing.c **** 
 206:..\src/command_processing.c ****         case CMD_BOOTLOADER:
 207:..\src/command_processing.c ****             //Not sure if ACK_OK is correct, should check
 208:..\src/command_processing.c ****             sendAcknowledgment(ACK_OK);
 438              		.loc 1 208 0
 439 03cc 0120     		movs	r0, #1
 440 03ce FFF7FEFF 		bl	sendAcknowledgment
 209:..\src/command_processing.c ****             CyDelay(1000);
 441              		.loc 1 209 0
 442 03d2 4FF47A70 		mov	r0, #1000
 443 03d6 FFF7FEFF 		bl	CyDelay
 210:..\src/command_processing.c ****             FTDI_ENABLE_Write(0x00);
 444              		.loc 1 210 0
 445 03da 0020     		movs	r0, #0
 446 03dc FFF7FEFF 		bl	FTDI_ENABLE_Write
 211:..\src/command_processing.c ****             CyDelay(1000);
 447              		.loc 1 211 0
 448 03e0 4FF47A70 		mov	r0, #1000
 449 03e4 FFF7FEFF 		bl	CyDelay
 212:..\src/command_processing.c ****             Bootloadable_Load();
 450              		.loc 1 212 0
 451 03e8 FFF7FEFF 		bl	Bootloadable_Load
 213:..\src/command_processing.c ****             break;
 452              		.loc 1 213 0
 453 03ec 6AE0     		b	.L1
 454              	.L15:
 214:..\src/command_processing.c **** 
 215:..\src/command_processing.c **** //============================================================     CMD_HAND_CALIBRATE
 216:..\src/command_processing.c **** 
 217:..\src/command_processing.c ****         case CMD_HAND_CALIBRATE:
 218:..\src/command_processing.c ****             calib.speed = (int16)(g_rx.buffer[1]<<8 | g_rx.buffer[2]);
 455              		.loc 1 218 0
 456 03ee 374B     		ldr	r3, .L50
 457 03f0 5B78     		ldrb	r3, [r3, #1]	@ zero_extendqisi2
 458 03f2 1B02     		lsls	r3, r3, #8
 459 03f4 1AB2     		sxth	r2, r3
 460 03f6 354B     		ldr	r3, .L50
 461 03f8 9B78     		ldrb	r3, [r3, #2]	@ zero_extendqisi2
 462 03fa 1BB2     		sxth	r3, r3
 463 03fc 1343     		orrs	r3, r3, r2
 464 03fe 1AB2     		sxth	r2, r3
 465 0400 334B     		ldr	r3, .L50+4
 466 0402 5A80     		strh	r2, [r3, #2]	@ movhi
 219:..\src/command_processing.c ****             calib.repetitions = (int16)(g_rx.buffer[3]<<8 | g_rx.buffer[4]);
ARM GAS  C:\Users\MattiaCP\AppData\Local\Temp\ccH4xQQo.s 			page 27


 467              		.loc 1 219 0
 468 0404 314B     		ldr	r3, .L50
 469 0406 DB78     		ldrb	r3, [r3, #3]	@ zero_extendqisi2
 470 0408 1B02     		lsls	r3, r3, #8
 471 040a 1AB2     		sxth	r2, r3
 472 040c 2F4B     		ldr	r3, .L50
 473 040e 1B79     		ldrb	r3, [r3, #4]	@ zero_extendqisi2
 474 0410 1BB2     		sxth	r3, r3
 475 0412 1343     		orrs	r3, r3, r2
 476 0414 1AB2     		sxth	r2, r3
 477 0416 2E4B     		ldr	r3, .L50+4
 478 0418 9A80     		strh	r2, [r3, #4]	@ movhi
 220:..\src/command_processing.c ****             //calib.speed = *((int16 *) &g_rx.buffer[1]);
 221:..\src/command_processing.c ****             //calib.repetitions = *((int16 *) &g_rx.buffer[3]);
 222:..\src/command_processing.c ****             
 223:..\src/command_processing.c ****             if(calib.speed == -1 && calib.repetitions == -1) {
 479              		.loc 1 223 0
 480 041a 2D4B     		ldr	r3, .L50+4
 481 041c B3F90230 		ldrsh	r3, [r3, #2]
 482 0420 B3F1FF3F 		cmp	r3, #-1
 483 0424 0FD1     		bne	.L42
 484              		.loc 1 223 0 is_stmt 0 discriminator 1
 485 0426 2A4B     		ldr	r3, .L50+4
 486 0428 B3F90430 		ldrsh	r3, [r3, #4]
 487 042c B3F1FF3F 		cmp	r3, #-1
 488 0430 09D1     		bne	.L42
 224:..\src/command_processing.c ****                 calib.enabled = FALSE;
 489              		.loc 1 224 0 is_stmt 1
 490 0432 274B     		ldr	r3, .L50+4
 491 0434 0022     		movs	r2, #0
 492 0436 1A70     		strb	r2, [r3]
 225:..\src/command_processing.c ****                 calib.speed = 0;
 493              		.loc 1 225 0
 494 0438 254B     		ldr	r3, .L50+4
 495 043a 0022     		movs	r2, #0
 496 043c 5A80     		strh	r2, [r3, #2]	@ movhi
 226:..\src/command_processing.c ****                 calib.repetitions = 0;
 497              		.loc 1 226 0
 498 043e 244B     		ldr	r3, .L50+4
 499 0440 0022     		movs	r2, #0
 500 0442 9A80     		strh	r2, [r3, #4]	@ movhi
 227:..\src/command_processing.c ****                 break;
 501              		.loc 1 227 0
 502 0444 3EE0     		b	.L1
 503              	.L42:
 228:..\src/command_processing.c ****             }
 229:..\src/command_processing.c ****             // Speed & repetitions saturations
 230:..\src/command_processing.c ****             if (calib.speed < 0) {
 504              		.loc 1 230 0
 505 0446 224B     		ldr	r3, .L50+4
 506 0448 B3F90230 		ldrsh	r3, [r3, #2]
 507 044c 002B     		cmp	r3, #0
 508 044e 03DA     		bge	.L43
 231:..\src/command_processing.c ****                 calib.speed = 0;
 509              		.loc 1 231 0
 510 0450 1F4B     		ldr	r3, .L50+4
 511 0452 0022     		movs	r2, #0
ARM GAS  C:\Users\MattiaCP\AppData\Local\Temp\ccH4xQQo.s 			page 28


 512 0454 5A80     		strh	r2, [r3, #2]	@ movhi
 513 0456 07E0     		b	.L44
 514              	.L43:
 232:..\src/command_processing.c ****             } else if (calib.speed > 200) {
 515              		.loc 1 232 0
 516 0458 1D4B     		ldr	r3, .L50+4
 517 045a B3F90230 		ldrsh	r3, [r3, #2]
 518 045e C82B     		cmp	r3, #200
 519 0460 02DD     		ble	.L44
 233:..\src/command_processing.c ****                 calib.speed = 200;
 520              		.loc 1 233 0
 521 0462 1B4B     		ldr	r3, .L50+4
 522 0464 C822     		movs	r2, #200
 523 0466 5A80     		strh	r2, [r3, #2]	@ movhi
 524              	.L44:
 234:..\src/command_processing.c ****             }
 235:..\src/command_processing.c ****             if (calib.repetitions < 0) {
 525              		.loc 1 235 0
 526 0468 194B     		ldr	r3, .L50+4
 527 046a B3F90430 		ldrsh	r3, [r3, #4]
 528 046e 002B     		cmp	r3, #0
 529 0470 02DA     		bge	.L45
 236:..\src/command_processing.c ****                 calib.repetitions = 0;
 530              		.loc 1 236 0
 531 0472 174B     		ldr	r3, .L50+4
 532 0474 0022     		movs	r2, #0
 533 0476 9A80     		strh	r2, [r3, #4]	@ movhi
 534              	.L45:
 237:..\src/command_processing.c ****             } else if (calib.repetitions > 32767) {
 238:..\src/command_processing.c ****                 calib.repetitions = 32767;
 239:..\src/command_processing.c ****             }
 240:..\src/command_processing.c ****             
 241:..\src/command_processing.c ****             g_refNew.pos = 0;
 535              		.loc 1 241 0
 536 0478 164B     		ldr	r3, .L50+8
 537 047a 0022     		movs	r2, #0
 538 047c 1A60     		str	r2, [r3]
 242:..\src/command_processing.c ****             calib.enabled = TRUE;
 539              		.loc 1 242 0
 540 047e 144B     		ldr	r3, .L50+4
 541 0480 0122     		movs	r2, #1
 542 0482 1A70     		strb	r2, [r3]
 243:..\src/command_processing.c ****          
 244:..\src/command_processing.c ****             sendAcknowledgment(ACK_OK);
 543              		.loc 1 244 0
 544 0484 0120     		movs	r0, #1
 545 0486 FFF7FEFF 		bl	sendAcknowledgment
 245:..\src/command_processing.c ****             break;
 546              		.loc 1 245 0
 547 048a 1BE0     		b	.L1
 548              	.L28:
 246:..\src/command_processing.c ****             
 247:..\src/command_processing.c **** //=====================================================     CMD_GET_IMU_READINGS
 248:..\src/command_processing.c **** 
 249:..\src/command_processing.c ****         case CMD_GET_IMU_READINGS:
 250:..\src/command_processing.c ****             cmd_get_imu_readings();
 549              		.loc 1 250 0
ARM GAS  C:\Users\MattiaCP\AppData\Local\Temp\ccH4xQQo.s 			page 29


 550 048c FFF7FEFF 		bl	cmd_get_imu_readings
 251:..\src/command_processing.c ****             break; 
 551              		.loc 1 251 0
 552 0490 18E0     		b	.L1
 553              	.L29:
 252:..\src/command_processing.c ****             
 253:..\src/command_processing.c **** //=====================================================     CMD_GET_IMU_PARAM
 254:..\src/command_processing.c **** 
 255:..\src/command_processing.c ****         case CMD_GET_IMU_PARAM:
 256:..\src/command_processing.c ****             get_IMU_param_list( __REV16(*((uint16 *) &g_rx.buffer[1])) );
 554              		.loc 1 256 0
 555 0492 114B     		ldr	r3, .L50+12
 556 0494 1B88     		ldrh	r3, [r3]
 557 0496 7B61     		str	r3, [r7, #20]
 558              	.LBB12:
 559              	.LBB13:
 792:Generated_Source\PSoC5/cmsis_gcc.h ****   return(result);
 560              		.loc 2 792 0
 561 0498 7B69     		ldr	r3, [r7, #20]
 562              		.syntax unified
 563              	@ 792 "Generated_Source\PSoC5/cmsis_gcc.h" 1
 564 049a 5BBA     		rev16 r3, r3
 565              	@ 0 "" 2
 566              		.thumb
 567              		.syntax unified
 568 049c 7B60     		str	r3, [r7, #4]
 569              		.loc 2 793 0
 570 049e 7B68     		ldr	r3, [r7, #4]
 571              	.LBE13:
 572              	.LBE12:
 573              		.loc 1 256 0
 574 04a0 9BB2     		uxth	r3, r3
 575 04a2 1846     		mov	r0, r3
 576 04a4 FFF7FEFF 		bl	get_IMU_param_list
 257:..\src/command_processing.c ****             break;             
 577              		.loc 1 257 0
 578 04a8 0CE0     		b	.L1
 579              	.L30:
 258:..\src/command_processing.c ****             
 259:..\src/command_processing.c **** //=====================================================     CMD_GET_ENCODER_CONF
 260:..\src/command_processing.c **** 
 261:..\src/command_processing.c ****         case CMD_GET_ENCODER_CONF:
 262:..\src/command_processing.c ****             cmd_get_encoder_map();
 580              		.loc 1 262 0
 581 04aa FFF7FEFF 		bl	cmd_get_encoder_map
 263:..\src/command_processing.c ****             break; 
 582              		.loc 1 263 0
 583 04ae 09E0     		b	.L1
 584              	.L31:
 264:..\src/command_processing.c **** 
 265:..\src/command_processing.c **** //=====================================================     CMD_GET_ENCODER_RAW
 266:..\src/command_processing.c **** 
 267:..\src/command_processing.c ****         case CMD_GET_ENCODER_RAW:
 268:..\src/command_processing.c ****             cmd_get_encoder_raw();
 585              		.loc 1 268 0
 586 04b0 FFF7FEFF 		bl	cmd_get_encoder_raw
 269:..\src/command_processing.c ****             break; 
ARM GAS  C:\Users\MattiaCP\AppData\Local\Temp\ccH4xQQo.s 			page 30


 587              		.loc 1 269 0
 588 04b4 06E0     		b	.L1
 589              	.L32:
 270:..\src/command_processing.c **** 
 271:..\src/command_processing.c **** //=====================================================     CMD_GET_ADC_CONF
 272:..\src/command_processing.c **** 
 273:..\src/command_processing.c ****         case CMD_GET_ADC_CONF:
 274:..\src/command_processing.c ****             cmd_get_ADC_map();
 590              		.loc 1 274 0
 591 04b6 FFF7FEFF 		bl	cmd_get_ADC_map
 275:..\src/command_processing.c ****             break; 
 592              		.loc 1 275 0
 593 04ba 03E0     		b	.L1
 594              	.L33:
 276:..\src/command_processing.c ****             
 277:..\src/command_processing.c **** //=====================================================     CMD_GET_ADC_RAW
 278:..\src/command_processing.c **** 
 279:..\src/command_processing.c ****         case CMD_GET_ADC_RAW:
 280:..\src/command_processing.c ****             cmd_get_ADC_raw();
 595              		.loc 1 280 0
 596 04bc FFF7FEFF 		bl	cmd_get_ADC_raw
 281:..\src/command_processing.c ****             break; 
 597              		.loc 1 281 0
 598 04c0 00E0     		b	.L1
 599              	.L47:
 282:..\src/command_processing.c ****             
 283:..\src/command_processing.c **** //=========================================================== ALL OTHER COMMANDS
 284:..\src/command_processing.c ****         default:
 285:..\src/command_processing.c ****             break;
 600              		.loc 1 285 0
 601 04c2 00BF     		nop
 602              	.L1:
 286:..\src/command_processing.c **** 
 287:..\src/command_processing.c ****     }
 288:..\src/command_processing.c **** }  
 603              		.loc 1 288 0
 604 04c4 2037     		adds	r7, r7, #32
 605              		.cfi_def_cfa_offset 8
 606 04c6 BD46     		mov	sp, r7
 607              		.cfi_def_cfa_register 13
 608              		@ sp needed
 609 04c8 80BD     		pop	{r7, pc}
 610              	.L51:
 611 04ca 00BF     		.align	2
 612              	.L50:
 613 04cc 00000000 		.word	g_rx
 614 04d0 00000000 		.word	calib
 615 04d4 00000000 		.word	g_refNew
 616 04d8 01000000 		.word	g_rx+1
 617              		.cfi_endproc
 618              	.LFE64:
 619              		.size	commProcess, .-commProcess
 620              		.section	.text.infoSend,"ax",%progbits
 621              		.align	2
 622              		.global	infoSend
 623              		.thumb
 624              		.thumb_func
ARM GAS  C:\Users\MattiaCP\AppData\Local\Temp\ccH4xQQo.s 			page 31


 625              		.type	infoSend, %function
 626              	infoSend:
 627              	.LFB65:
 289:..\src/command_processing.c **** 
 290:..\src/command_processing.c **** //==============================================================================
 291:..\src/command_processing.c **** //                                                                     INFO SEND
 292:..\src/command_processing.c **** //==============================================================================
 293:..\src/command_processing.c **** 
 294:..\src/command_processing.c **** void infoSend(void){
 628              		.loc 1 294 0
 629              		.cfi_startproc
 630              		@ args = 0, pretend = 0, frame = 1504
 631              		@ frame_needed = 1, uses_anonymous_args = 0
 632 0000 80B5     		push	{r7, lr}
 633              		.cfi_def_cfa_offset 8
 634              		.cfi_offset 7, -8
 635              		.cfi_offset 14, -4
 636 0002 ADF5BC6D 		sub	sp, sp, #1504
 637              		.cfi_def_cfa_offset 1512
 638 0006 00AF     		add	r7, sp, #0
 639              		.cfi_def_cfa_register 7
 295:..\src/command_processing.c ****     char packet_string[1500];
 296:..\src/command_processing.c ****     
 297:..\src/command_processing.c ****     prepare_generic_info(packet_string);
 640              		.loc 1 297 0
 641 0008 3B1D     		adds	r3, r7, #4
 642 000a 1846     		mov	r0, r3
 643 000c FFF7FEFF 		bl	prepare_generic_info
 298:..\src/command_processing.c ****     UART_RS485_PutString(packet_string);
 644              		.loc 1 298 0
 645 0010 3B1D     		adds	r3, r7, #4
 646 0012 1846     		mov	r0, r3
 647 0014 FFF7FEFF 		bl	UART_RS485_PutString
 299:..\src/command_processing.c **** }
 648              		.loc 1 299 0
 649 0018 00BF     		nop
 650 001a 07F5BC67 		add	r7, r7, #1504
 651              		.cfi_def_cfa_offset 8
 652 001e BD46     		mov	sp, r7
 653              		.cfi_def_cfa_register 13
 654              		@ sp needed
 655 0020 80BD     		pop	{r7, pc}
 656              		.cfi_endproc
 657              	.LFE65:
 658              		.size	infoSend, .-infoSend
 659 0022 00BF     		.section	.text.infoGet,"ax",%progbits
 660              		.align	2
 661              		.global	infoGet
 662              		.thumb
 663              		.thumb_func
 664              		.type	infoGet, %function
 665              	infoGet:
 666              	.LFB66:
 300:..\src/command_processing.c **** 
 301:..\src/command_processing.c **** 
 302:..\src/command_processing.c **** //==============================================================================
 303:..\src/command_processing.c **** //                                                              COMMAND GET INFO
ARM GAS  C:\Users\MattiaCP\AppData\Local\Temp\ccH4xQQo.s 			page 32


 304:..\src/command_processing.c **** //==============================================================================
 305:..\src/command_processing.c **** 
 306:..\src/command_processing.c **** void infoGet(uint16 info_type) {
 667              		.loc 1 306 0
 668              		.cfi_startproc
 669              		@ args = 0, pretend = 0, frame = 4008
 670              		@ frame_needed = 1, uses_anonymous_args = 0
 671 0000 80B5     		push	{r7, lr}
 672              		.cfi_def_cfa_offset 8
 673              		.cfi_offset 7, -8
 674              		.cfi_offset 14, -4
 675 0002 ADF6A87D 		subw	sp, sp, #4008
 676              		.cfi_def_cfa_offset 4016
 677 0006 00AF     		add	r7, sp, #0
 678              		.cfi_def_cfa_register 7
 679 0008 0246     		mov	r2, r0
 680 000a BB1D     		adds	r3, r7, #6
 681 000c 1A80     		strh	r2, [r3]	@ movhi
 307:..\src/command_processing.c ****     char packet_string[4000] = "";
 682              		.loc 1 307 0
 683 000e 07F10803 		add	r3, r7, #8
 684 0012 0022     		movs	r2, #0
 685 0014 1A60     		str	r2, [r3]
 686 0016 0433     		adds	r3, r3, #4
 687 0018 40F69C72 		movw	r2, #3996
 688 001c 0021     		movs	r1, #0
 689 001e 1846     		mov	r0, r3
 690 0020 FFF7FEFF 		bl	memset
 308:..\src/command_processing.c ****     
 309:..\src/command_processing.c ****     //==================================     choose info type and prepare string
 310:..\src/command_processing.c **** 
 311:..\src/command_processing.c ****     switch (info_type) {
 691              		.loc 1 311 0
 692 0024 BB1D     		adds	r3, r7, #6
 693 0026 1B88     		ldrh	r3, [r3]
 694 0028 002B     		cmp	r3, #0
 695 002a 02D0     		beq	.L55
 696 002c 012B     		cmp	r3, #1
 697 002e 0DD0     		beq	.L56
 312:..\src/command_processing.c ****         case INFO_ALL:
 313:..\src/command_processing.c ****             prepare_generic_info(packet_string);
 314:..\src/command_processing.c ****             UART_RS485_ClearTxBuffer(); 
 315:..\src/command_processing.c ****             UART_RS485_PutString(packet_string);
 316:..\src/command_processing.c ****             break;
 317:..\src/command_processing.c ****         case CYCLES_INFO:
 318:..\src/command_processing.c ****             prepare_counter_info(packet_string);
 319:..\src/command_processing.c ****             UART_RS485_ClearTxBuffer();
 320:..\src/command_processing.c ****             UART_RS485_PutString(packet_string);
 321:..\src/command_processing.c ****             break;
 322:..\src/command_processing.c ****         default:
 323:..\src/command_processing.c ****             break;
 698              		.loc 1 323 0
 699 0030 19E0     		b	.L57
 700              	.L55:
 313:..\src/command_processing.c ****             UART_RS485_ClearTxBuffer(); 
 701              		.loc 1 313 0
 702 0032 07F10803 		add	r3, r7, #8
ARM GAS  C:\Users\MattiaCP\AppData\Local\Temp\ccH4xQQo.s 			page 33


 703 0036 1846     		mov	r0, r3
 704 0038 FFF7FEFF 		bl	prepare_generic_info
 314:..\src/command_processing.c ****             UART_RS485_PutString(packet_string);
 705              		.loc 1 314 0
 706 003c FFF7FEFF 		bl	UART_RS485_ClearTxBuffer
 315:..\src/command_processing.c ****             break;
 707              		.loc 1 315 0
 708 0040 07F10803 		add	r3, r7, #8
 709 0044 1846     		mov	r0, r3
 710 0046 FFF7FEFF 		bl	UART_RS485_PutString
 316:..\src/command_processing.c ****         case CYCLES_INFO:
 711              		.loc 1 316 0
 712 004a 0CE0     		b	.L57
 713              	.L56:
 318:..\src/command_processing.c ****             UART_RS485_ClearTxBuffer();
 714              		.loc 1 318 0
 715 004c 07F10803 		add	r3, r7, #8
 716 0050 1846     		mov	r0, r3
 717 0052 FFF7FEFF 		bl	prepare_counter_info
 319:..\src/command_processing.c ****             UART_RS485_PutString(packet_string);
 718              		.loc 1 319 0
 719 0056 FFF7FEFF 		bl	UART_RS485_ClearTxBuffer
 320:..\src/command_processing.c ****             break;
 720              		.loc 1 320 0
 721 005a 07F10803 		add	r3, r7, #8
 722 005e 1846     		mov	r0, r3
 723 0060 FFF7FEFF 		bl	UART_RS485_PutString
 321:..\src/command_processing.c ****         default:
 724              		.loc 1 321 0
 725 0064 00BF     		nop
 726              	.L57:
 324:..\src/command_processing.c ****     }
 325:..\src/command_processing.c **** }
 727              		.loc 1 325 0 discriminator 1
 728 0066 00BF     		nop
 729 0068 07F6A877 		addw	r7, r7, #4008
 730              		.cfi_def_cfa_offset 8
 731 006c BD46     		mov	sp, r7
 732              		.cfi_def_cfa_register 13
 733              		@ sp needed
 734 006e 80BD     		pop	{r7, pc}
 735              		.cfi_endproc
 736              	.LFE66:
 737              		.size	infoGet, .-infoGet
 738              		.section	.rodata
 739              		.align	2
 740              	.LC52:
 741 0000 30202D3E 		.ascii	"0 -> None\0121 -> Low (%u us delay for each 8-bit r"
 741      204E6F6E 
 741      650A3120 
 741      2D3E204C 
 741      6F772028 
 742 0030 65676973 		.ascii	"egister read)\0122 -> High (%u us delay for each 8-"
 742      74657220 
 742      72656164 
 742      290A3220 
 742      2D3E2048 
ARM GAS  C:\Users\MattiaCP\AppData\Local\Temp\ccH4xQQo.s 			page 34


 743 0060 62697420 		.ascii	"bit register read)\012\000"
 743      72656769 
 743      73746572 
 743      20726561 
 743      64290A00 
 744              		.global	__aeabi_i2f
 745              		.global	__aeabi_fdiv
 746              		.align	2
 747              	.LC54:
 748 0074 20557362 		.ascii	" Usb\000"
 748      00
 749 0079 000000   		.align	2
 750              	.LC55:
 751 007c 2048616E 		.ascii	" Handle\000"
 751      646C6500 
 752              		.align	2
 753              	.LC56:
 754 0084 20454D47 		.ascii	" EMG proportional\000"
 754      2070726F 
 754      706F7274 
 754      696F6E61 
 754      6C00
 755 0096 0000     		.align	2
 756              	.LC57:
 757 0098 20454D47 		.ascii	" EMG integral\000"
 757      20696E74 
 757      65677261 
 757      6C00
 758 00a6 0000     		.align	2
 759              	.LC58:
 760 00a8 20454D47 		.ascii	" EMG FCFS\000"
 760      20464346 
 760      5300
 761 00b2 0000     		.align	2
 762              	.LC59:
 763 00b4 20454D47 		.ascii	" EMG FCFS Advanced\000"
 763      20464346 
 763      53204164 
 763      76616E63 
 763      656400
 764 00c7 00       		.align	2
 765              	.LC60:
 766 00c8 20506F73 		.ascii	" Position\000"
 766      6974696F 
 766      6E00
 767 00d2 0000     		.align	2
 768              	.LC61:
 769 00d4 2050574D 		.ascii	" PWM\000"
 769      00
 770 00d9 000000   		.align	2
 771              	.LC62:
 772 00dc 20437572 		.ascii	" Current\000"
 772      72656E74 
 772      00
 773 00e5 000000   		.align	2
 774              	.LC63:
 775 00e8 20506F73 		.ascii	" Position and Current\000"
ARM GAS  C:\Users\MattiaCP\AppData\Local\Temp\ccH4xQQo.s 			page 35


 775      6974696F 
 775      6E20616E 
 775      64204375 
 775      7272656E 
 776 00fe 0000     		.align	2
 777              	.LC64:
 778 0100 20594553 		.ascii	" YES\000\000"
 778      0000
 779 0106 0000     		.align	2
 780              	.LC65:
 781 0108 204E4F00 		.ascii	" NO\000\000"
 781      00
 782 010d 000000   		.align	2
 783              	.LC66:
 784 0110 20526967 		.ascii	" Right\000\000"
 784      68740000 
 785              		.align	2
 786              	.LC67:
 787 0118 204C6566 		.ascii	" Left\000\000"
 787      740000
 788 011f 00       		.align	2
 789              	.LC68:
 790 0120 204F4646 		.ascii	" OFF\000\000"
 790      0000
 791 0126 0000     		.align	2
 792              	.LC69:
 793 0128 204F4E00 		.ascii	" ON\000\000"
 793      00
 794 012d 000000   		.align	2
 795              	.LC70:
 796 0130 204E6F6E 		.ascii	" None\000\000"
 796      650000
 797 0137 00       		.align	2
 798              	.LC71:
 799 0138 2053442F 		.ascii	" SD/RTC board\000\000"
 799      52544320 
 799      626F6172 
 799      640000
 800 0147 00       		.align	2
 801              	.LC72:
 802 0148 20576946 		.ascii	" WiFi board [N/A]\000\000"
 802      6920626F 
 802      61726420 
 802      5B4E2F41 
 802      5D0000
 803 015b 00       		.align	2
 804              	.LC73:
 805 015c 204F7468 		.ascii	" Other [N/A]\000\000"
 805      6572205B 
 805      4E2F415D 
 805      0000
 806 016a 0000     		.align	2
 807              	.LC74:
 808 016c 204C6F77 		.ascii	" Low\000\000"
 808      0000
 809 0172 0000     		.align	2
 810              	.LC75:
ARM GAS  C:\Users\MattiaCP\AppData\Local\Temp\ccH4xQQo.s 			page 36


 811 0174 20486967 		.ascii	" High\000\000"
 811      680000
 812 017b 00       		.align	2
 813              	.LC76:
 814 017c 204D4333 		.ascii	" MC33887 (Standard)\000\000"
 814      33383837 
 814      20285374 
 814      616E6461 
 814      72642900 
 815 0191 000000   		.align	2
 816              	.LC77:
 817 0194 20564E48 		.ascii	" VNH5019 (High power)\000\000"
 817      35303139 
 817      20284869 
 817      67682070 
 817      6F776572 
 818 01ab 00       		.align	2
 819              	.LC0:
 820 01ac 02       		.byte	2
 821 01ad 07       		.byte	7
 822 01ae 07       		.byte	7
 823 01af 00       		.byte	0
 824 01b0 00       		.byte	0
 825 01b1 00       		.byte	0
 826 01b2 02       		.byte	2
 827 01b3 03       		.byte	3
 828 01b4 07       		.byte	7
 829 01b5 00       		.byte	0
 830 01b6 05       		.byte	5
 831 01b7 05       		.byte	5
 832 01b8 03       		.byte	3
 833 01b9 04       		.byte	4
 834 01ba 00       		.byte	0
 835 01bb 06       		.byte	6
 836 01bc 02       		.byte	2
 837 01bd 00       		.byte	0
 838 01be 01       		.byte	1
 839 01bf 00       		.byte	0
 840 01c0 07       		.byte	7
 841 01c1 02       		.byte	2
 842 01c2 05       		.byte	5
 843 01c3 05       		.byte	5
 844 01c4 05       		.byte	5
 845 01c5 00       		.byte	0
 846 01c6 00       		.byte	0
 847 01c7 00       		.byte	0
 848 01c8 00       		.byte	0
 849 01c9 00       		.byte	0
 850 01ca 00       		.byte	0
 851 01cb 02       		.byte	2
 852 01cc 00       		.byte	0
 853 01cd 02       		.byte	2
 854 01ce 02       		.byte	2
 855 01cf 02       		.byte	2
 856 01d0 02       		.byte	2
 857 01d1 02       		.byte	2
 858 01d2 00       		.byte	0
ARM GAS  C:\Users\MattiaCP\AppData\Local\Temp\ccH4xQQo.s 			page 37


 859 01d3 00       		.byte	0
 860 01d4 00       		.byte	0
 861 01d5 00       		.byte	0
 862 01d6 0000     		.align	2
 863              	.LC1:
 864 01d8 03       		.byte	3
 865 01d9 01       		.byte	1
 866 01da 02       		.byte	2
 867 01db 03       		.byte	3
 868 01dc 03       		.byte	3
 869 01dd 03       		.byte	3
 870 01de 03       		.byte	3
 871 01df 03       		.byte	3
 872 01e0 03       		.byte	3
 873 01e1 04       		.byte	4
 874 01e2 05       		.byte	5
 875 01e3 06       		.byte	6
 876 01e4 03       		.byte	3
 877 01e5 07       		.byte	7
 878 01e6 05       		.byte	5
 879 01e7 05       		.byte	5
 880 01e8 08       		.byte	8
 881 01e9 08       		.byte	8
 882 01ea 0000     		.align	2
 883              	.LC2:
 884 01ec 31202D20 		.ascii	"1 - Device ID:\000"
 884      44657669 
 884      63652049 
 884      443A00
 885 01fb 00       		.align	2
 886              	.LC3:
 887 01fc 32202D20 		.ascii	"2 - Position PID [P, I, D]:\000"
 887      506F7369 
 887      74696F6E 
 887      20504944 
 887      205B502C 
 888              		.align	2
 889              	.LC4:
 890 0218 33202D20 		.ascii	"3 - Current PID [P, I, D]:\000"
 890      43757272 
 890      656E7420 
 890      50494420 
 890      5B502C20 
 891 0233 00       		.align	2
 892              	.LC5:
 893 0234 34202D20 		.ascii	"4 - Startup Activation:\000"
 893      53746172 
 893      74757020 
 893      41637469 
 893      76617469 
 894              		.align	2
 895              	.LC6:
 896 024c 35202D20 		.ascii	"5 - Input mode:\000"
 896      496E7075 
 896      74206D6F 
 896      64653A00 
 897              		.align	2
ARM GAS  C:\Users\MattiaCP\AppData\Local\Temp\ccH4xQQo.s 			page 38


 898              	.LC7:
 899 025c 36202D20 		.ascii	"6 - Control mode:\000"
 899      436F6E74 
 899      726F6C20 
 899      6D6F6465 
 899      3A00
 900 026e 0000     		.align	2
 901              	.LC8:
 902 0270 37202D20 		.ascii	"7 - Resolutions:\000"
 902      5265736F 
 902      6C757469 
 902      6F6E733A 
 902      00
 903 0281 000000   		.align	2
 904              	.LC9:
 905 0284 38202D20 		.ascii	"8 - Measurement Offsets:\000"
 905      4D656173 
 905      7572656D 
 905      656E7420 
 905      4F666673 
 906 029d 000000   		.align	2
 907              	.LC10:
 908 02a0 39202D20 		.ascii	"9 - Multipliers:\000"
 908      4D756C74 
 908      69706C69 
 908      6572733A 
 908      00
 909 02b1 000000   		.align	2
 910              	.LC11:
 911 02b4 3130202D 		.ascii	"10 - Pos. limit active:\000"
 911      20506F73 
 911      2E206C69 
 911      6D697420 
 911      61637469 
 912              		.align	2
 913              	.LC12:
 914 02cc 3131202D 		.ascii	"11 - Pos. limits [inf, sup]:\000"
 914      20506F73 
 914      2E206C69 
 914      6D697473 
 914      205B696E 
 915 02e9 000000   		.align	2
 916              	.LC13:
 917 02ec 3132202D 		.ascii	"12 - Max steps [neg, pos]:\000"
 917      204D6178 
 917      20737465 
 917      7073205B 
 917      6E65672C 
 918 0307 00       		.align	2
 919              	.LC14:
 920 0308 3133202D 		.ascii	"13 - Current limit:\000"
 920      20437572 
 920      72656E74 
 920      206C696D 
 920      69743A00 
 921              		.align	2
 922              	.LC15:
ARM GAS  C:\Users\MattiaCP\AppData\Local\Temp\ccH4xQQo.s 			page 39


 923 031c 3134202D 		.ascii	"14 - EMG thresholds:\000"
 923      20454D47 
 923      20746872 
 923      6573686F 
 923      6C64733A 
 924 0331 000000   		.align	2
 925              	.LC16:
 926 0334 3135202D 		.ascii	"15 - EMG calibration on startup:\000"
 926      20454D47 
 926      2063616C 
 926      69627261 
 926      74696F6E 
 927 0355 000000   		.align	2
 928              	.LC17:
 929 0358 3136202D 		.ascii	"16 - EMG max values:\000"
 929      20454D47 
 929      206D6178 
 929      2076616C 
 929      7565733A 
 930 036d 000000   		.align	2
 931              	.LC18:
 932 0370 3137202D 		.ascii	"17 - EMG max speed:\000"
 932      20454D47 
 932      206D6178 
 932      20737065 
 932      65643A00 
 933              		.align	2
 934              	.LC19:
 935 0384 3138202D 		.ascii	"18 - Absolute encoder position:\000"
 935      20416273 
 935      6F6C7574 
 935      6520656E 
 935      636F6465 
 936              		.align	2
 937              	.LC20:
 938 03a4 3139202D 		.ascii	"19 - Motor handle ratio:\000"
 938      204D6F74 
 938      6F722068 
 938      616E646C 
 938      65207261 
 939 03bd 000000   		.align	2
 940              	.LC21:
 941 03c0 3230202D 		.ascii	"20 - PWM rescaling:\000"
 941      2050574D 
 941      20726573 
 941      63616C69 
 941      6E673A00 
 942              		.align	2
 943              	.LC22:
 944 03d4 3231202D 		.ascii	"21 - Current lookup:\000"
 944      20437572 
 944      72656E74 
 944      206C6F6F 
 944      6B75703A 
 945 03e9 000000   		.align	2
 946              	.LC23:
 947 03ec 3232202D 		.ascii	"22 - Date of maintenance [D/M/Y]:\000"
ARM GAS  C:\Users\MattiaCP\AppData\Local\Temp\ccH4xQQo.s 			page 40


 947      20446174 
 947      65206F66 
 947      206D6169 
 947      6E74656E 
 948 040e 0000     		.align	2
 949              	.LC24:
 950 0410 3233202D 		.ascii	"23 - Rest position:\000"
 950      20526573 
 950      7420706F 
 950      73697469 
 950      6F6E3A00 
 951              		.align	2
 952              	.LC25:
 953 0424 3234202D 		.ascii	"24 - Rest position time delay (ms):\000"
 953      20526573 
 953      7420706F 
 953      73697469 
 953      6F6E2074 
 954              		.align	2
 955              	.LC26:
 956 0448 3235202D 		.ascii	"25 - Rest vel closure (ticks/sec):\000"
 956      20526573 
 956      74207665 
 956      6C20636C 
 956      6F737572 
 957 046b 00       		.align	2
 958              	.LC27:
 959 046c 3236202D 		.ascii	"26 - Rest position enabled:\000"
 959      20526573 
 959      7420706F 
 959      73697469 
 959      6F6E2065 
 960              		.align	2
 961              	.LC28:
 962 0488 3237202D 		.ascii	"27 - EMG inversion:\000"
 962      20454D47 
 962      20696E76 
 962      65727369 
 962      6F6E3A00 
 963              		.align	2
 964              	.LC29:
 965 049c 3238202D 		.ascii	"28 - Hand side:\000"
 965      2048616E 
 965      64207369 
 965      64653A00 
 966              		.align	2
 967              	.LC30:
 968 04ac 3239202D 		.ascii	"29 - Read IMUs:\000"
 968      20526561 
 968      6420494D 
 968      55733A00 
 969              		.align	2
 970              	.LC31:
 971 04bc 3330202D 		.ascii	"30 - Read Expansion port:\000"
 971      20526561 
 971      64204578 
 971      70616E73 
ARM GAS  C:\Users\MattiaCP\AppData\Local\Temp\ccH4xQQo.s 			page 41


 971      696F6E20 
 972 04d6 0000     		.align	2
 973              	.LC32:
 974 04d8 3331202D 		.ascii	"31 - Reset counters:\000"
 974      20526573 
 974      65742063 
 974      6F756E74 
 974      6572733A 
 975 04ed 000000   		.align	2
 976              	.LC33:
 977 04f0 3332202D 		.ascii	"32 - Last checked Time [D/M/Y H:M:S]:\000"
 977      204C6173 
 977      74206368 
 977      65636B65 
 977      64205469 
 978 0516 0000     		.align	2
 979              	.LC34:
 980 0518 3333202D 		.ascii	"33 - SPI read delay (IMU):\000"
 980      20535049 
 980      20726561 
 980      64206465 
 980      6C617920 
 981 0533 00       		.align	2
 982              	.LC35:
 983 0534 3334202D 		.ascii	"34 - On board IMU conf. [a,g,m,q,t]:\000"
 983      204F6E20 
 983      626F6172 
 983      6420494D 
 983      5520636F 
 984 0559 000000   		.align	2
 985              	.LC36:
 986 055c 3335202D 		.ascii	"35 - Encoder line 0:\000"
 986      20456E63 
 986      6F646572 
 986      206C696E 
 986      6520303A 
 987 0571 000000   		.align	2
 988              	.LC37:
 989 0574 3336202D 		.ascii	"36 - Encoder line 1:\000"
 989      20456E63 
 989      6F646572 
 989      206C696E 
 989      6520313A 
 990 0589 000000   		.align	2
 991              	.LC38:
 992 058c 3337202D 		.ascii	"37 - ADC channel [1-6]:\000"
 992      20414443 
 992      20636861 
 992      6E6E656C 
 992      205B312D 
 993              		.align	2
 994              	.LC39:
 995 05a4 3338202D 		.ascii	"38 - ADC channel [7-12]:\000"
 995      20414443 
 995      20636861 
 995      6E6E656C 
 995      205B372D 
ARM GAS  C:\Users\MattiaCP\AppData\Local\Temp\ccH4xQQo.s 			page 42


 996 05bd 000000   		.align	2
 997              	.LC40:
 998 05c0 3339202D 		.ascii	"39 - Read additional ADC port:\000"
 998      20526561 
 998      64206164 
 998      64697469 
 998      6F6E616C 
 999 05df 00       		.align	2
 1000              	.LC41:
 1001 05e0 3430202D 		.ascii	"40 - Use second motor:\000"
 1001      20557365 
 1001      20736563 
 1001      6F6E6420 
 1001      6D6F746F 
 1002 05f7 00       		.align	2
 1003              	.LC42:
 1004 05f8 3431202D 		.ascii	"41 - Motor 1 driver type:\000"
 1004      204D6F74 
 1004      6F722031 
 1004      20647269 
 1004      76657220 
 1005 0612 0000     		.align	2
 1006              	.LC43:
 1007 0614 3432202D 		.ascii	"42 - Motor 2 driver type:\000"
 1007      204D6F74 
 1007      6F722032 
 1007      20647269 
 1007      76657220 
 1008 062e 0000     		.align	2
 1009              	.LC45:
 1010 0630 EC010000 		.word	.LC2
 1011 0634 FC010000 		.word	.LC3
 1012 0638 18020000 		.word	.LC4
 1013 063c 34020000 		.word	.LC5
 1014 0640 4C020000 		.word	.LC6
 1015 0644 5C020000 		.word	.LC7
 1016 0648 70020000 		.word	.LC8
 1017 064c 84020000 		.word	.LC9
 1018 0650 A0020000 		.word	.LC10
 1019 0654 B4020000 		.word	.LC11
 1020 0658 CC020000 		.word	.LC12
 1021 065c EC020000 		.word	.LC13
 1022 0660 08030000 		.word	.LC14
 1023 0664 1C030000 		.word	.LC15
 1024 0668 34030000 		.word	.LC16
 1025 066c 58030000 		.word	.LC17
 1026 0670 70030000 		.word	.LC18
 1027 0674 84030000 		.word	.LC19
 1028 0678 A4030000 		.word	.LC20
 1029 067c C0030000 		.word	.LC21
 1030 0680 D4030000 		.word	.LC22
 1031 0684 EC030000 		.word	.LC23
 1032 0688 10040000 		.word	.LC24
 1033 068c 24040000 		.word	.LC25
 1034 0690 48040000 		.word	.LC26
 1035 0694 6C040000 		.word	.LC27
 1036 0698 88040000 		.word	.LC28
ARM GAS  C:\Users\MattiaCP\AppData\Local\Temp\ccH4xQQo.s 			page 43


 1037 069c 9C040000 		.word	.LC29
 1038 06a0 AC040000 		.word	.LC30
 1039 06a4 BC040000 		.word	.LC31
 1040 06a8 D8040000 		.word	.LC32
 1041 06ac F0040000 		.word	.LC33
 1042 06b0 18050000 		.word	.LC34
 1043 06b4 34050000 		.word	.LC35
 1044 06b8 5C050000 		.word	.LC36
 1045 06bc 74050000 		.word	.LC37
 1046 06c0 8C050000 		.word	.LC38
 1047 06c4 A4050000 		.word	.LC39
 1048 06c8 C0050000 		.word	.LC40
 1049 06cc E0050000 		.word	.LC41
 1050 06d0 F8050000 		.word	.LC42
 1051 06d4 14060000 		.word	.LC43
 1052              		.align	2
 1053              	.LC46:
 1054 06d8 30202D3E 		.ascii	"0 -> Usb\0121 -> Handle\0122 -> EMG proportional\012"
 1054      20557362 
 1054      0A31202D 
 1054      3E204861 
 1054      6E646C65 
 1055 0703 33202D3E 		.ascii	"3 -> EMG Integral\0124 -> EMG FCFS\0125 -> EMG FCFS"
 1055      20454D47 
 1055      20496E74 
 1055      65677261 
 1055      6C0A3420 
 1056 0730 20416476 		.ascii	" Advanced\012\000"
 1056      616E6365 
 1056      640A00
 1057 073b 00       		.align	2
 1058              	.LC47:
 1059 073c 30202D3E 		.ascii	"0 -> Position\0121 -> PWM\0122 -> Current\0123 -> P"
 1059      20506F73 
 1059      6974696F 
 1059      6E0A3120 
 1059      2D3E2050 
 1060 0766 6F736974 		.ascii	"osition and Current\012\000"
 1060      696F6E20 
 1060      616E6420 
 1060      43757272 
 1060      656E740A 
 1061 077b 00       		.space	1
 1062              		.align	2
 1063              	.LC48:
 1064 077c 30202D3E 		.ascii	"0 -> Deactivate [NO]\0121 -> Activate [YES]\012\000"
 1064      20446561 
 1064      63746976 
 1064      61746520 
 1064      5B4E4F5D 
 1065 07a6 0000     		.align	2
 1066              	.LC49:
 1067 07a8 30202D3E 		.ascii	"0 -> Right\0121 -> Left\012\000"
 1067      20526967 
 1067      68740A31 
 1067      202D3E20 
 1067      4C656674 
ARM GAS  C:\Users\MattiaCP\AppData\Local\Temp\ccH4xQQo.s 			page 44


 1068 07be 0000     		.align	2
 1069              	.LC50:
 1070 07c0 30202D3E 		.ascii	"0 -> OFF\0121 -> ON\012The board will reset\012\000"
 1070      204F4646 
 1070      0A31202D 
 1070      3E204F4E 
 1070      0A546865 
 1071 07e7 000000   		.space	3
 1072 07ea 0000     		.align	2
 1073              	.LC51:
 1074 07ec 30202D3E 		.ascii	"0 -> None\0121 -> SD/RTC board\0122 -> WiFi board ["
 1074      204E6F6E 
 1074      650A3120 
 1074      2D3E2053 
 1074      442F5254 
 1075 0819 4E2F415D 		.ascii	"N/A]\0123 -> Other [N/A]\012The board will reset\012"
 1075      0A33202D 
 1075      3E204F74 
 1075      68657220 
 1075      5B4E2F41 
 1076 0844 00       		.ascii	"\000"
 1077 0845 00       		.space	1
 1078 0846 0000     		.align	2
 1079              	.LC53:
 1080 0848 30202D3E 		.ascii	"0 -> MC33887 (Standard)\0121 -> VNH5019 (High power"
 1080      204D4333 
 1080      33383837 
 1080      20285374 
 1080      616E6461 
 1081 0878 290A5468 		.ascii	")\012The board will reset\012\000"
 1081      6520626F 
 1081      61726420 
 1081      77696C6C 
 1081      20726573 
 1082              		.section	.text.get_param_list,"ax",%progbits
 1083              		.align	2
 1084              		.global	get_param_list
 1085              		.thumb
 1086              		.thumb_func
 1087              		.type	get_param_list, %function
 1088              	get_param_list:
 1089              	.LFB67:
 326:..\src/command_processing.c **** 
 327:..\src/command_processing.c **** 
 328:..\src/command_processing.c **** //==============================================================================
 329:..\src/command_processing.c **** //                                                                GET PARAM LIST
 330:..\src/command_processing.c **** //==============================================================================
 331:..\src/command_processing.c **** 
 332:..\src/command_processing.c **** void get_param_list() {
 1090              		.loc 1 332 0
 1091              		.cfi_startproc
 1092              		@ args = 0, pretend = 0, frame = 3880
 1093              		@ frame_needed = 1, uses_anonymous_args = 0
 1094 0000 F0B5     		push	{r4, r5, r6, r7, lr}
 1095              		.cfi_def_cfa_offset 20
 1096              		.cfi_offset 4, -20
 1097              		.cfi_offset 5, -16
ARM GAS  C:\Users\MattiaCP\AppData\Local\Temp\ccH4xQQo.s 			page 45


 1098              		.cfi_offset 6, -12
 1099              		.cfi_offset 7, -8
 1100              		.cfi_offset 14, -4
 1101 0002 ADF62C7D 		subw	sp, sp, #3884
 1102              		.cfi_def_cfa_offset 3904
 1103 0006 00AF     		add	r7, sp, #0
 1104              		.cfi_def_cfa_register 7
 333:..\src/command_processing.c ****     
 334:..\src/command_processing.c ****     //Package to be sent variables
 335:..\src/command_processing.c ****     uint8 packet_data[PARAM_BYTE_SLOT*NUM_OF_DEV_PARAMS + PARAM_MENU_SLOT*8 + PARAM_BYTE_SLOT] = ""
 1105              		.loc 1 335 0
 1106 0008 07F56373 		add	r3, r7, #908
 1107 000c 0022     		movs	r2, #0
 1108 000e 1A60     		str	r2, [r3]
 1109 0010 0433     		adds	r3, r3, #4
 1110 0012 40F68232 		movw	r2, #2946
 1111 0016 0021     		movs	r1, #0
 1112 0018 1846     		mov	r0, r3
 1113 001a FFF7FEFF 		bl	memset
 336:..\src/command_processing.c ****     uint16 packet_lenght = PARAM_BYTE_SLOT*NUM_OF_DEV_PARAMS + PARAM_MENU_SLOT*8 + PARAM_BYTE_SLOT;
 1114              		.loc 1 336 0
 1115 001e 40F68633 		movw	r3, #2950
 1116 0022 A7F81A3F 		strh	r3, [r7, #3866]	@ movhi
 337:..\src/command_processing.c **** 
 338:..\src/command_processing.c ****     //Auxiliary variables
 339:..\src/command_processing.c ****     uint8 CYDATA i, j;
 340:..\src/command_processing.c ****     uint8 CYDATA idx = 0;       //Parameter number
 1117              		.loc 1 340 0
 1118 0026 0023     		movs	r3, #0
 1119 0028 87F8253F 		strb	r3, [r7, #3877]
 341:..\src/command_processing.c ****     uint8 CYDATA idx_menu = 0;
 1120              		.loc 1 341 0
 1121 002c 0023     		movs	r3, #0
 1122 002e 87F8243F 		strb	r3, [r7, #3876]
 342:..\src/command_processing.c ****     uint8 CYDATA sod = 0;       //sizeof data
 1123              		.loc 1 342 0
 1124 0032 0023     		movs	r3, #0
 1125 0034 87F8233F 		strb	r3, [r7, #3875]
 343:..\src/command_processing.c ****     uint8 CYDATA string_lenght;
 344:..\src/command_processing.c ****     char CYDATA aux_str[50] = "";
 1126              		.loc 1 344 0
 1127 0038 07F55673 		add	r3, r7, #856
 1128 003c 0022     		movs	r2, #0
 1129 003e 1A60     		str	r2, [r3]
 1130 0040 0433     		adds	r3, r3, #4
 1131 0042 2E22     		movs	r2, #46
 1132 0044 0021     		movs	r1, #0
 1133 0046 1846     		mov	r0, r3
 1134 0048 FFF7FEFF 		bl	memset
 345:..\src/command_processing.c ****     uint8* m_addr = (uint8*)&(c_mem.id);
 1135              		.loc 1 345 0
 1136 004c D24B     		ldr	r3, .L231
 1137 004e C7F81C3F 		str	r3, [r7, #3868]
 346:..\src/command_processing.c ****     uint8* m_tmp = m_addr;
 1138              		.loc 1 346 0
 1139 0052 D7F81C3F 		ldr	r3, [r7, #3868]
 1140 0056 C7F8143F 		str	r3, [r7, #3860]
ARM GAS  C:\Users\MattiaCP\AppData\Local\Temp\ccH4xQQo.s 			page 46


 347:..\src/command_processing.c ****     float aux_float;
 348:..\src/command_processing.c ****     int16 aux_int16;
 349:..\src/command_processing.c ****     uint16 aux_uint16;
 350:..\src/command_processing.c ****     int32 aux_int32;
 351:..\src/command_processing.c ****     uint32 aux_uint32;
 352:..\src/command_processing.c **** 
 353:..\src/command_processing.c ****     // Arrays
 354:..\src/command_processing.c ****     const uint8 TYPES[NUM_OF_PARAMS] = {
 1141              		.loc 1 354 0
 1142 005a 07F54773 		add	r3, r7, #796
 1143 005e CF4A     		ldr	r2, .L231+4
 1144 0060 1446     		mov	r4, r2
 1145 0062 1E46     		mov	r6, r3
 1146 0064 04F1200E 		add	lr, r4, #32
 1147              	.L59:
 1148 0068 3546     		mov	r5, r6
 1149 006a 2346     		mov	r3, r4
 1150 006c 1868     		ldr	r0, [r3]	@ unaligned
 1151 006e 5968     		ldr	r1, [r3, #4]	@ unaligned
 1152 0070 9A68     		ldr	r2, [r3, #8]	@ unaligned
 1153 0072 DB68     		ldr	r3, [r3, #12]	@ unaligned
 1154 0074 0FC5     		stmia	r5!, {r0, r1, r2, r3}
 1155 0076 1034     		adds	r4, r4, #16
 1156 0078 1036     		adds	r6, r6, #16
 1157 007a 7445     		cmp	r4, lr
 1158 007c F4D1     		bne	.L59
 1159 007e 3346     		mov	r3, r6
 1160 0080 2246     		mov	r2, r4
 1161 0082 1068     		ldr	r0, [r2]	@ unaligned
 1162 0084 5168     		ldr	r1, [r2, #4]	@ unaligned
 1163 0086 03C3     		stmia	r3!, {r0, r1}
 1164 0088 1289     		ldrh	r2, [r2, #8]	@ unaligned
 1165 008a 1A80     		strh	r2, [r3]	@ unaligned
 355:..\src/command_processing.c ****         TYPE_UINT8, TYPE_FLOAT, TYPE_FLOAT, TYPE_FLAG, TYPE_FLAG, TYPE_FLAG, TYPE_UINT8, TYPE_INT16
 356:..\src/command_processing.c ****         TYPE_FLOAT, TYPE_FLAG, TYPE_INT32, TYPE_INT32, TYPE_INT16, TYPE_UINT16, TYPE_FLAG, TYPE_UIN
 357:..\src/command_processing.c ****         TYPE_UINT8, TYPE_FLAG, TYPE_INT8, TYPE_FLAG, TYPE_FLOAT, TYPE_UINT8, TYPE_INT32, TYPE_INT32
 358:..\src/command_processing.c ****         TYPE_INT32, TYPE_FLAG, TYPE_FLAG, TYPE_FLAG, TYPE_FLAG, TYPE_FLAG, TYPE_FLAG, TYPE_UINT8, 
 359:..\src/command_processing.c ****         TYPE_FLAG, TYPE_UINT8, TYPE_UINT8, TYPE_UINT8, TYPE_UINT8, TYPE_UINT8, TYPE_FLAG, TYPE_FLAG
 360:..\src/command_processing.c ****         TYPE_FLAG, TYPE_FLAG
 361:..\src/command_processing.c ****     };
 362:..\src/command_processing.c **** 
 363:..\src/command_processing.c ****     const uint8 NUM_ITEMS[NUM_OF_PARAMS] = {
 1166              		.loc 1 363 0
 1167 008c 07F53C73 		add	r3, r7, #752
 1168 0090 0122     		movs	r2, #1
 1169 0092 1A70     		strb	r2, [r3]
 1170 0094 07F53C73 		add	r3, r7, #752
 1171 0098 0322     		movs	r2, #3
 1172 009a 5A70     		strb	r2, [r3, #1]
 1173 009c 07F53C73 		add	r3, r7, #752
 1174 00a0 0322     		movs	r2, #3
 1175 00a2 9A70     		strb	r2, [r3, #2]
 1176 00a4 07F53C73 		add	r3, r7, #752
 1177 00a8 0122     		movs	r2, #1
 1178 00aa DA70     		strb	r2, [r3, #3]
 1179 00ac 07F53C73 		add	r3, r7, #752
 1180 00b0 0122     		movs	r2, #1
ARM GAS  C:\Users\MattiaCP\AppData\Local\Temp\ccH4xQQo.s 			page 47


 1181 00b2 1A71     		strb	r2, [r3, #4]
 1182 00b4 07F53C73 		add	r3, r7, #752
 1183 00b8 0122     		movs	r2, #1
 1184 00ba 5A71     		strb	r2, [r3, #5]
 1185 00bc 07F53C73 		add	r3, r7, #752
 1186 00c0 0322     		movs	r2, #3
 1187 00c2 9A71     		strb	r2, [r3, #6]
 1188 00c4 07F53C73 		add	r3, r7, #752
 1189 00c8 0322     		movs	r2, #3
 1190 00ca DA71     		strb	r2, [r3, #7]
 1191 00cc 07F53C73 		add	r3, r7, #752
 1192 00d0 0322     		movs	r2, #3
 1193 00d2 1A72     		strb	r2, [r3, #8]
 1194 00d4 07F53C73 		add	r3, r7, #752
 1195 00d8 0122     		movs	r2, #1
 1196 00da 5A72     		strb	r2, [r3, #9]
 1197 00dc 07F53C73 		add	r3, r7, #752
 1198 00e0 0222     		movs	r2, #2
 1199 00e2 9A72     		strb	r2, [r3, #10]
 1200 00e4 07F53C73 		add	r3, r7, #752
 1201 00e8 0222     		movs	r2, #2
 1202 00ea DA72     		strb	r2, [r3, #11]
 1203 00ec 07F53C73 		add	r3, r7, #752
 1204 00f0 0122     		movs	r2, #1
 1205 00f2 1A73     		strb	r2, [r3, #12]
 1206 00f4 07F53C73 		add	r3, r7, #752
 1207 00f8 0222     		movs	r2, #2
 1208 00fa 5A73     		strb	r2, [r3, #13]
 1209 00fc 07F53C73 		add	r3, r7, #752
 1210 0100 0122     		movs	r2, #1
 1211 0102 9A73     		strb	r2, [r3, #14]
 1212 0104 07F53C73 		add	r3, r7, #752
 1213 0108 0222     		movs	r2, #2
 1214 010a DA73     		strb	r2, [r3, #15]
 1215 010c 07F53C73 		add	r3, r7, #752
 1216 0110 0122     		movs	r2, #1
 1217 0112 1A74     		strb	r2, [r3, #16]
 1218 0114 07F53C73 		add	r3, r7, #752
 1219 0118 0122     		movs	r2, #1
 1220 011a 5A74     		strb	r2, [r3, #17]
 1221 011c 07F53C73 		add	r3, r7, #752
 1222 0120 0122     		movs	r2, #1
 1223 0122 9A74     		strb	r2, [r3, #18]
 1224 0124 07F53C73 		add	r3, r7, #752
 1225 0128 0122     		movs	r2, #1
 1226 012a DA74     		strb	r2, [r3, #19]
 1227 012c 07F53C73 		add	r3, r7, #752
 1228 0130 0622     		movs	r2, #6
 1229 0132 1A75     		strb	r2, [r3, #20]
 1230 0134 07F53C73 		add	r3, r7, #752
 1231 0138 0322     		movs	r2, #3
 1232 013a 5A75     		strb	r2, [r3, #21]
 1233 013c 07F53C73 		add	r3, r7, #752
 1234 0140 0122     		movs	r2, #1
 1235 0142 9A75     		strb	r2, [r3, #22]
 1236 0144 07F53C73 		add	r3, r7, #752
 1237 0148 0122     		movs	r2, #1
ARM GAS  C:\Users\MattiaCP\AppData\Local\Temp\ccH4xQQo.s 			page 48


 1238 014a DA75     		strb	r2, [r3, #23]
 1239 014c 07F53C73 		add	r3, r7, #752
 1240 0150 0122     		movs	r2, #1
 1241 0152 1A76     		strb	r2, [r3, #24]
 1242 0154 07F53C73 		add	r3, r7, #752
 1243 0158 0122     		movs	r2, #1
 1244 015a 5A76     		strb	r2, [r3, #25]
 1245 015c 07F53C73 		add	r3, r7, #752
 1246 0160 0122     		movs	r2, #1
 1247 0162 9A76     		strb	r2, [r3, #26]
 1248 0164 07F53C73 		add	r3, r7, #752
 1249 0168 0122     		movs	r2, #1
 1250 016a DA76     		strb	r2, [r3, #27]
 1251 016c 07F53C73 		add	r3, r7, #752
 1252 0170 0122     		movs	r2, #1
 1253 0172 1A77     		strb	r2, [r3, #28]
 1254 0174 07F53C73 		add	r3, r7, #752
 1255 0178 0122     		movs	r2, #1
 1256 017a 5A77     		strb	r2, [r3, #29]
 1257 017c 07F53C73 		add	r3, r7, #752
 1258 0180 0122     		movs	r2, #1
 1259 0182 9A77     		strb	r2, [r3, #30]
 1260 0184 07F53C73 		add	r3, r7, #752
 1261 0188 0622     		movs	r2, #6
 1262 018a DA77     		strb	r2, [r3, #31]
 1263 018c 07F53C73 		add	r3, r7, #752
 1264 0190 0122     		movs	r2, #1
 1265 0192 83F82020 		strb	r2, [r3, #32]
 1266 0196 07F53C73 		add	r3, r7, #752
 1267 019a 0522     		movs	r2, #5
 1268 019c 83F82120 		strb	r2, [r3, #33]
 364:..\src/command_processing.c ****         1, 3, 3, 1, 1, 1, 3, 3,
 365:..\src/command_processing.c ****         3, 1, 2, 2, 1, 2, 1, 2,
 366:..\src/command_processing.c ****         1, 1, 1, 1, 6, 3, 1, 1,
 367:..\src/command_processing.c ****         1, 1, 1, 1, 1, 1, 1, 6,
 368:..\src/command_processing.c ****         1, 5, N_Encoder_Line_Connected[0], N_Encoder_Line_Connected[1], 6, 6, 1, 1,
 1269              		.loc 1 368 0
 1270 01a0 7F4B     		ldr	r3, .L231+8
 1271 01a2 1A78     		ldrb	r2, [r3]	@ zero_extendqisi2
 363:..\src/command_processing.c ****         1, 3, 3, 1, 1, 1, 3, 3,
 1272              		.loc 1 363 0
 1273 01a4 07F53C73 		add	r3, r7, #752
 1274 01a8 83F82220 		strb	r2, [r3, #34]
 1275              		.loc 1 368 0
 1276 01ac 7C4B     		ldr	r3, .L231+8
 1277 01ae 5A78     		ldrb	r2, [r3, #1]	@ zero_extendqisi2
 363:..\src/command_processing.c ****         1, 3, 3, 1, 1, 1, 3, 3,
 1278              		.loc 1 363 0
 1279 01b0 07F53C73 		add	r3, r7, #752
 1280 01b4 83F82320 		strb	r2, [r3, #35]
 1281 01b8 07F53C73 		add	r3, r7, #752
 1282 01bc 0622     		movs	r2, #6
 1283 01be 83F82420 		strb	r2, [r3, #36]
 1284 01c2 07F53C73 		add	r3, r7, #752
 1285 01c6 0622     		movs	r2, #6
 1286 01c8 83F82520 		strb	r2, [r3, #37]
 1287 01cc 07F53C73 		add	r3, r7, #752
ARM GAS  C:\Users\MattiaCP\AppData\Local\Temp\ccH4xQQo.s 			page 49


 1288 01d0 0122     		movs	r2, #1
 1289 01d2 83F82620 		strb	r2, [r3, #38]
 1290 01d6 07F53C73 		add	r3, r7, #752
 1291 01da 0122     		movs	r2, #1
 1292 01dc 83F82720 		strb	r2, [r3, #39]
 1293 01e0 07F53C73 		add	r3, r7, #752
 1294 01e4 0122     		movs	r2, #1
 1295 01e6 83F82820 		strb	r2, [r3, #40]
 1296 01ea 07F53C73 		add	r3, r7, #752
 1297 01ee 0122     		movs	r2, #1
 1298 01f0 83F82920 		strb	r2, [r3, #41]
 369:..\src/command_processing.c ****         1, 1
 370:..\src/command_processing.c ****     };
 371:..\src/command_processing.c **** 
 372:..\src/command_processing.c ****     const uint8 NUM_MENU[18] = {3, 1, 2, 3, 3, 3, 3, 3, 3, 4, 5, 6, 3, 7, 5, 5, 8, 8};
 1299              		.loc 1 372 0
 1300 01f4 07F53773 		add	r3, r7, #732
 1301 01f8 6A4A     		ldr	r2, .L231+12
 1302 01fa 1C46     		mov	r4, r3
 1303 01fc 1546     		mov	r5, r2
 1304 01fe 2868     		ldr	r0, [r5]	@ unaligned
 1305 0200 6968     		ldr	r1, [r5, #4]	@ unaligned
 1306 0202 AA68     		ldr	r2, [r5, #8]	@ unaligned
 1307 0204 EB68     		ldr	r3, [r5, #12]	@ unaligned
 1308 0206 0FC4     		stmia	r4!, {r0, r1, r2, r3}
 1309 0208 2B8A     		ldrh	r3, [r5, #16]	@ unaligned
 1310 020a 2380     		strh	r3, [r4]	@ unaligned
 373:..\src/command_processing.c ****     
 374:..\src/command_processing.c ****     const char* PARAMS_STR[NUM_OF_PARAMS] = {
 1311              		.loc 1 374 0
 1312 020c 07F50D73 		add	r3, r7, #564
 1313 0210 654A     		ldr	r2, .L231+16
 1314 0212 1846     		mov	r0, r3
 1315 0214 1146     		mov	r1, r2
 1316 0216 A823     		movs	r3, #168
 1317 0218 1A46     		mov	r2, r3
 1318 021a FFF7FEFF 		bl	memcpy
 375:..\src/command_processing.c ****         "1 - Device ID:", "2 - Position PID [P, I, D]:", "3 - Current PID [P, I, D]:", "4 - Startup
 376:..\src/command_processing.c ****         "5 - Input mode:", "6 - Control mode:", "7 - Resolutions:", "8 - Measurement Offsets:", 
 377:..\src/command_processing.c ****         "9 - Multipliers:", "10 - Pos. limit active:", "11 - Pos. limits [inf, sup]:", "12 - Max st
 378:..\src/command_processing.c ****         "13 - Current limit:", "14 - EMG thresholds:", "15 - EMG calibration on startup:", "16 - EM
 379:..\src/command_processing.c ****         "17 - EMG max speed:", "18 - Absolute encoder position:", "19 - Motor handle ratio:", "20 -
 380:..\src/command_processing.c ****         "21 - Current lookup:", "22 - Date of maintenance [D/M/Y]:", "23 - Rest position:", "24 - R
 381:..\src/command_processing.c ****         "25 - Rest vel closure (ticks/sec):", "26 - Rest position enabled:", "27 - EMG inversion:",
 382:..\src/command_processing.c ****         "29 - Read IMUs:", "30 - Read Expansion port:", "31 - Reset counters:", "32 - Last checked 
 383:..\src/command_processing.c ****         "33 - SPI read delay (IMU):", "34 - On board IMU conf. [a,g,m,q,t]:", "35 - Encoder line 0:
 384:..\src/command_processing.c ****         "37 - ADC channel [1-6]:", "38 - ADC channel [7-12]:", "39 - Read additional ADC port:", "4
 385:..\src/command_processing.c ****         "41 - Motor 1 driver type:", "42 - Motor 2 driver type:"
 386:..\src/command_processing.c ****     };
 387:..\src/command_processing.c **** 
 388:..\src/command_processing.c ****     //Parameters menu
 389:..\src/command_processing.c ****     const char input_mode_menu[99] = "0 -> Usb\n1 -> Handle\n2 -> EMG proportional\n3 -> EMG Integr
 1319              		.loc 1 389 0
 1320 021e 07F5E873 		add	r3, r7, #464
 1321 0222 624A     		ldr	r2, .L231+20
 1322 0224 1846     		mov	r0, r3
 1323 0226 1146     		mov	r1, r2
ARM GAS  C:\Users\MattiaCP\AppData\Local\Temp\ccH4xQQo.s 			page 50


 1324 0228 6323     		movs	r3, #99
 1325 022a 1A46     		mov	r2, r3
 1326 022c FFF7FEFF 		bl	memcpy
 390:..\src/command_processing.c ****     const char control_mode_menu[64] = "0 -> Position\n1 -> PWM\n2 -> Current\n3 -> Position and Cu
 1327              		.loc 1 390 0
 1328 0230 07F5C876 		add	r6, r7, #400
 1329 0234 5E4B     		ldr	r3, .L231+24
 1330 0236 3446     		mov	r4, r6
 1331 0238 1D46     		mov	r5, r3
 1332 023a 0FCD     		ldmia	r5!, {r0, r1, r2, r3}
 1333 023c 0FC4     		stmia	r4!, {r0, r1, r2, r3}
 1334 023e 0FCD     		ldmia	r5!, {r0, r1, r2, r3}
 1335 0240 0FC4     		stmia	r4!, {r0, r1, r2, r3}
 1336 0242 0FCD     		ldmia	r5!, {r0, r1, r2, r3}
 1337 0244 0FC4     		stmia	r4!, {r0, r1, r2, r3}
 1338 0246 95E80F00 		ldmia	r5, {r0, r1, r2, r3}
 1339 024a 07C4     		stmia	r4!, {r0, r1, r2}
 1340 024c 2380     		strh	r3, [r4]	@ movhi
 1341 024e 0234     		adds	r4, r4, #2
 1342 0250 1B0C     		lsrs	r3, r3, #16
 1343 0252 2370     		strb	r3, [r4]
 1344 0254 0023     		movs	r3, #0
 1345 0256 86F83F30 		strb	r3, [r6, #63]
 391:..\src/command_processing.c ****     const char yes_no_menu[42] = "0 -> Deactivate [NO]\n1 -> Activate [YES]\n";
 1346              		.loc 1 391 0
 1347 025a 07F5B273 		add	r3, r7, #356
 1348 025e 554A     		ldr	r2, .L231+28
 1349 0260 1C46     		mov	r4, r3
 1350 0262 1546     		mov	r5, r2
 1351 0264 0FCD     		ldmia	r5!, {r0, r1, r2, r3}
 1352 0266 0FC4     		stmia	r4!, {r0, r1, r2, r3}
 1353 0268 0FCD     		ldmia	r5!, {r0, r1, r2, r3}
 1354 026a 0FC4     		stmia	r4!, {r0, r1, r2, r3}
 1355 026c 95E80700 		ldmia	r5, {r0, r1, r2}
 1356 0270 03C4     		stmia	r4!, {r0, r1}
 1357 0272 2280     		strh	r2, [r4]	@ movhi
 392:..\src/command_processing.c ****     const char right_left_menu[22] = "0 -> Right\n1 -> Left\n";
 1358              		.loc 1 392 0
 1359 0274 07F5A673 		add	r3, r7, #332
 1360 0278 4F4A     		ldr	r2, .L231+32
 1361 027a 1C46     		mov	r4, r3
 1362 027c 1546     		mov	r5, r2
 1363 027e 0FCD     		ldmia	r5!, {r0, r1, r2, r3}
 1364 0280 0FC4     		stmia	r4!, {r0, r1, r2, r3}
 1365 0282 95E80300 		ldmia	r5, {r0, r1}
 1366 0286 2060     		str	r0, [r4]
 1367 0288 0434     		adds	r4, r4, #4
 1368 028a 2180     		strh	r1, [r4]	@ movhi
 393:..\src/command_processing.c ****     const char on_off_menu[42] = "0 -> OFF\n1 -> ON\nThe board will reset\n";
 1369              		.loc 1 393 0
 1370 028c 07F59076 		add	r6, r7, #288
 1371 0290 4A4B     		ldr	r3, .L231+36
 1372 0292 3446     		mov	r4, r6
 1373 0294 1D46     		mov	r5, r3
 1374 0296 0FCD     		ldmia	r5!, {r0, r1, r2, r3}
 1375 0298 0FC4     		stmia	r4!, {r0, r1, r2, r3}
 1376 029a 0FCD     		ldmia	r5!, {r0, r1, r2, r3}
ARM GAS  C:\Users\MattiaCP\AppData\Local\Temp\ccH4xQQo.s 			page 51


 1377 029c 0FC4     		stmia	r4!, {r0, r1, r2, r3}
 1378 029e 95E80300 		ldmia	r5, {r0, r1}
 1379 02a2 2060     		str	r0, [r4]
 1380 02a4 0434     		adds	r4, r4, #4
 1381 02a6 2180     		strh	r1, [r4]	@ movhi
 1382 02a8 0234     		adds	r4, r4, #2
 1383 02aa 0B0C     		lsrs	r3, r1, #16
 1384 02ac 2370     		strb	r3, [r4]
 1385 02ae 06F12703 		add	r3, r6, #39
 1386 02b2 0022     		movs	r2, #0
 1387 02b4 1A80     		strh	r2, [r3]	@ unaligned
 1388 02b6 9A70     		strb	r2, [r3, #2]
 394:..\src/command_processing.c ****     const char exp_port_menu[90] = "0 -> None\n1 -> SD/RTC board\n2 -> WiFi board [N/A]\n3 -> Other
 1389              		.loc 1 394 0
 1390 02b8 07F1C404 		add	r4, r7, #196
 1391 02bc 404B     		ldr	r3, .L231+40
 1392 02be 2046     		mov	r0, r4
 1393 02c0 1946     		mov	r1, r3
 1394 02c2 5923     		movs	r3, #89
 1395 02c4 1A46     		mov	r2, r3
 1396 02c6 FFF7FEFF 		bl	memcpy
 1397 02ca 0023     		movs	r3, #0
 1398 02cc 84F85930 		strb	r3, [r4, #89]
 395:..\src/command_processing.c ****     char spi_delay_menu[118]    = ""; 
 1399              		.loc 1 395 0
 1400 02d0 07F14C03 		add	r3, r7, #76
 1401 02d4 0022     		movs	r2, #0
 1402 02d6 1A60     		str	r2, [r3]
 1403 02d8 0433     		adds	r3, r3, #4
 1404 02da 7222     		movs	r2, #114
 1405 02dc 0021     		movs	r1, #0
 1406 02de 1846     		mov	r0, r3
 1407 02e0 FFF7FEFF 		bl	memset
 396:..\src/command_processing.c ****     sprintf(spi_delay_menu, "0 -> None\n1 -> Low (%u us delay for each 8-bit register read)\n2 -> H
 1408              		.loc 1 396 0
 1409 02e4 07F14C00 		add	r0, r7, #76
 1410 02e8 6423     		movs	r3, #100
 1411 02ea 0A22     		movs	r2, #10
 1412 02ec 3549     		ldr	r1, .L231+44
 1413 02ee FFF7FEFF 		bl	sprintf
 397:..\src/command_processing.c ****     const char motor_driver_type_menu[72] = "0 -> MC33887 (Standard)\n1 -> VNH5019 (High power)\nTh
 1414              		.loc 1 397 0
 1415 02f2 3B1D     		adds	r3, r7, #4
 1416 02f4 344A     		ldr	r2, .L231+48
 1417 02f6 1846     		mov	r0, r3
 1418 02f8 1146     		mov	r1, r2
 1419 02fa 4823     		movs	r3, #72
 1420 02fc 1A46     		mov	r2, r3
 1421 02fe FFF7FEFF 		bl	memcpy
 398:..\src/command_processing.c ****     
 399:..\src/command_processing.c ****     packet_data[0] = CMD_GET_PARAM_LIST;
 1422              		.loc 1 399 0
 1423 0302 07F56373 		add	r3, r7, #908
 1424 0306 0C22     		movs	r2, #12
 1425 0308 1A70     		strb	r2, [r3]
 400:..\src/command_processing.c ****     packet_data[1] = NUM_OF_DEV_PARAMS;
 1426              		.loc 1 400 0
ARM GAS  C:\Users\MattiaCP\AppData\Local\Temp\ccH4xQQo.s 			page 52


 1427 030a 07F56373 		add	r3, r7, #908
 1428 030e 2222     		movs	r2, #34
 1429 0310 5A70     		strb	r2, [r3, #1]
 401:..\src/command_processing.c ****     
 402:..\src/command_processing.c ****     for (idx = 0; idx < NUM_OF_DEV_PARAMS; idx++) {
 1430              		.loc 1 402 0
 1431 0312 0023     		movs	r3, #0
 1432 0314 87F8253F 		strb	r3, [r7, #3877]
 1433 0318 01F0AAB9 		b	.L60
 1434              	.L209:
 403:..\src/command_processing.c ****         
 404:..\src/command_processing.c ****         // Add parameter type and size to packet
 405:..\src/command_processing.c ****         packet_data[2 + PARAM_BYTE_SLOT*idx] = TYPES[idx];
 1435              		.loc 1 405 0
 1436 031c 97F8253F 		ldrb	r3, [r7, #3877]	@ zero_extendqisi2
 1437 0320 3222     		movs	r2, #50
 1438 0322 02FB03F3 		mul	r3, r2, r3
 1439 0326 0233     		adds	r3, r3, #2
 1440 0328 97F8252F 		ldrb	r2, [r7, #3877]	@ zero_extendqisi2
 1441 032c 07F54771 		add	r1, r7, #796
 1442 0330 895C     		ldrb	r1, [r1, r2]	@ zero_extendqisi2
 1443 0332 07F56372 		add	r2, r7, #908
 1444 0336 D154     		strb	r1, [r2, r3]
 406:..\src/command_processing.c ****         packet_data[3 + PARAM_BYTE_SLOT*idx] = NUM_ITEMS[idx];
 1445              		.loc 1 406 0
 1446 0338 97F8253F 		ldrb	r3, [r7, #3877]	@ zero_extendqisi2
 1447 033c 3222     		movs	r2, #50
 1448 033e 02FB03F3 		mul	r3, r2, r3
 1449 0342 0333     		adds	r3, r3, #3
 1450 0344 97F8252F 		ldrb	r2, [r7, #3877]	@ zero_extendqisi2
 1451 0348 07F53C71 		add	r1, r7, #752
 1452 034c 895C     		ldrb	r1, [r1, r2]	@ zero_extendqisi2
 1453 034e 07F56372 		add	r2, r7, #908
 1454 0352 D154     		strb	r1, [r2, r3]
 407:..\src/command_processing.c ****         
 408:..\src/command_processing.c ****         // Find size of data
 409:..\src/command_processing.c ****         switch (TYPES[idx]) {
 1455              		.loc 1 409 0
 1456 0354 97F8253F 		ldrb	r3, [r7, #3877]	@ zero_extendqisi2
 1457 0358 07F54772 		add	r2, r7, #796
 1458 035c D35C     		ldrb	r3, [r2, r3]	@ zero_extendqisi2
 1459 035e 072B     		cmp	r3, #7
 1460 0360 38D8     		bhi	.L61
 1461 0362 01A2     		adr	r2, .L63
 1462 0364 52F823F0 		ldr	pc, [r2, r3, lsl #2]
 1463              		.p2align 2
 1464              	.L63:
 1465 0368 89030000 		.word	.L62+1
 1466 036c 89030000 		.word	.L62+1
 1467 0370 89030000 		.word	.L62+1
 1468 0374 91030000 		.word	.L64+1
 1469 0378 91030000 		.word	.L64+1
 1470 037c CD030000 		.word	.L65+1
 1471 0380 CD030000 		.word	.L65+1
 1472 0384 CD030000 		.word	.L65+1
 1473              		.p2align 1
 1474              	.L62:
ARM GAS  C:\Users\MattiaCP\AppData\Local\Temp\ccH4xQQo.s 			page 53


 410:..\src/command_processing.c ****             case TYPE_FLAG: case TYPE_INT8: case TYPE_UINT8:
 411:..\src/command_processing.c ****                 sod = 1; break;
 1475              		.loc 1 411 0
 1476 0388 0123     		movs	r3, #1
 1477 038a 87F8233F 		strb	r3, [r7, #3875]
 1478 038e 21E0     		b	.L61
 1479              	.L64:
 412:..\src/command_processing.c ****             case TYPE_INT16: case TYPE_UINT16:
 413:..\src/command_processing.c ****                 sod = 2; break;
 1480              		.loc 1 413 0
 1481 0390 0223     		movs	r3, #2
 1482 0392 87F8233F 		strb	r3, [r7, #3875]
 1483 0396 1DE0     		b	.L61
 1484              	.L232:
 1485              		.align	2
 1486              	.L231:
 1487 0398 A1000000 		.word	c_mem+161
 1488 039c AC010000 		.word	.LC0
 1489 03a0 00000000 		.word	N_Encoder_Line_Connected
 1490 03a4 D8010000 		.word	.LC1
 1491 03a8 30060000 		.word	.LC45
 1492 03ac D8060000 		.word	.LC46
 1493 03b0 3C070000 		.word	.LC47
 1494 03b4 7C070000 		.word	.LC48
 1495 03b8 A8070000 		.word	.LC49
 1496 03bc C0070000 		.word	.LC50
 1497 03c0 EC070000 		.word	.LC51
 1498 03c4 00000000 		.word	.LC52
 1499 03c8 48080000 		.word	.LC53
 1500              	.L65:
 414:..\src/command_processing.c ****             case TYPE_INT32: case TYPE_UINT32: case TYPE_FLOAT:
 415:..\src/command_processing.c ****                 sod = 4; break;
 1501              		.loc 1 415 0
 1502 03cc 0423     		movs	r3, #4
 1503 03ce 87F8233F 		strb	r3, [r7, #3875]
 1504 03d2 00BF     		nop
 1505              	.L61:
 416:..\src/command_processing.c ****         }
 417:..\src/command_processing.c ****         
 418:..\src/command_processing.c ****         // Add parameter data to packet
 419:..\src/command_processing.c ****         switch (TYPES[idx]) {
 1506              		.loc 1 419 0
 1507 03d4 97F8253F 		ldrb	r3, [r7, #3877]	@ zero_extendqisi2
 1508 03d8 07F54772 		add	r2, r7, #796
 1509 03dc D35C     		ldrb	r3, [r2, r3]	@ zero_extendqisi2
 1510 03de 072B     		cmp	r3, #7
 1511 03e0 00F2B785 		bhi	.L66
 1512 03e4 01A2     		adr	r2, .L68
 1513 03e6 52F823F0 		ldr	pc, [r2, r3, lsl #2]
 1514 03ea 00BF     		.p2align 2
 1515              	.L68:
 1516 03ec 0D040000 		.word	.L67+1
 1517 03f0 73040000 		.word	.L69+1
 1518 03f4 0D040000 		.word	.L67+1
 1519 03f8 D9040000 		.word	.L70+1
 1520 03fc 07060000 		.word	.L71+1
 1521 0400 AB060000 		.word	.L72+1
ARM GAS  C:\Users\MattiaCP\AppData\Local\Temp\ccH4xQQo.s 			page 54


 1522 0404 8F080000 		.word	.L73+1
 1523 0408 31090000 		.word	.L74+1
 1524              		.p2align 1
 1525              	.L67:
 420:..\src/command_processing.c ****             case TYPE_FLAG: case TYPE_UINT8:
 421:..\src/command_processing.c ****                 for (i=0; i<NUM_ITEMS[idx]; i++){
 1526              		.loc 1 421 0
 1527 040c 0023     		movs	r3, #0
 1528 040e 87F8273F 		strb	r3, [r7, #3879]
 1529 0412 23E0     		b	.L75
 1530              	.L76:
 422:..\src/command_processing.c ****                     m_tmp = m_addr + i*sod;
 1531              		.loc 1 422 0 discriminator 3
 1532 0414 97F8273F 		ldrb	r3, [r7, #3879]	@ zero_extendqisi2
 1533 0418 97F8232F 		ldrb	r2, [r7, #3875]	@ zero_extendqisi2
 1534 041c 02FB03F3 		mul	r3, r2, r3
 1535 0420 1A46     		mov	r2, r3
 1536 0422 D7F81C3F 		ldr	r3, [r7, #3868]
 1537 0426 1344     		add	r3, r3, r2
 1538 0428 C7F8143F 		str	r3, [r7, #3860]
 423:..\src/command_processing.c ****                     packet_data[4 + PARAM_BYTE_SLOT*idx + i*sod] = *m_tmp;
 1539              		.loc 1 423 0 discriminator 3
 1540 042c 97F8253F 		ldrb	r3, [r7, #3877]	@ zero_extendqisi2
 1541 0430 3222     		movs	r2, #50
 1542 0432 02FB03F3 		mul	r3, r2, r3
 1543 0436 1A1D     		adds	r2, r3, #4
 1544 0438 97F8273F 		ldrb	r3, [r7, #3879]	@ zero_extendqisi2
 1545 043c 97F8231F 		ldrb	r1, [r7, #3875]	@ zero_extendqisi2
 1546 0440 01FB03F3 		mul	r3, r1, r3
 1547 0444 1344     		add	r3, r3, r2
 1548 0446 D7F8142F 		ldr	r2, [r7, #3860]
 1549 044a 1178     		ldrb	r1, [r2]	@ zero_extendqisi2
 1550 044c 07F56372 		add	r2, r7, #908
 1551 0450 D154     		strb	r1, [r2, r3]
 421:..\src/command_processing.c ****                     m_tmp = m_addr + i*sod;
 1552              		.loc 1 421 0 discriminator 3
 1553 0452 97F8273F 		ldrb	r3, [r7, #3879]	@ zero_extendqisi2
 1554 0456 0133     		adds	r3, r3, #1
 1555 0458 87F8273F 		strb	r3, [r7, #3879]
 1556              	.L75:
 421:..\src/command_processing.c ****                     m_tmp = m_addr + i*sod;
 1557              		.loc 1 421 0 is_stmt 0 discriminator 1
 1558 045c 97F8253F 		ldrb	r3, [r7, #3877]	@ zero_extendqisi2
 1559 0460 07F53C72 		add	r2, r7, #752
 1560 0464 D35C     		ldrb	r3, [r2, r3]	@ zero_extendqisi2
 1561 0466 97F8272F 		ldrb	r2, [r7, #3879]	@ zero_extendqisi2
 1562 046a 9A42     		cmp	r2, r3
 1563 046c D2D3     		bcc	.L76
 424:..\src/command_processing.c ****                 }
 425:..\src/command_processing.c ****                 break;                
 1564              		.loc 1 425 0 is_stmt 1
 1565 046e 00F070BD 		b	.L66
 1566              	.L69:
 426:..\src/command_processing.c ****             case TYPE_INT8:
 427:..\src/command_processing.c ****                 for (i=0; i<NUM_ITEMS[idx]; i++){
 1567              		.loc 1 427 0
 1568 0472 0023     		movs	r3, #0
ARM GAS  C:\Users\MattiaCP\AppData\Local\Temp\ccH4xQQo.s 			page 55


 1569 0474 87F8273F 		strb	r3, [r7, #3879]
 1570 0478 23E0     		b	.L77
 1571              	.L78:
 428:..\src/command_processing.c ****                     m_tmp = m_addr + i*sod;
 1572              		.loc 1 428 0 discriminator 3
 1573 047a 97F8273F 		ldrb	r3, [r7, #3879]	@ zero_extendqisi2
 1574 047e 97F8232F 		ldrb	r2, [r7, #3875]	@ zero_extendqisi2
 1575 0482 02FB03F3 		mul	r3, r2, r3
 1576 0486 1A46     		mov	r2, r3
 1577 0488 D7F81C3F 		ldr	r3, [r7, #3868]
 1578 048c 1344     		add	r3, r3, r2
 1579 048e C7F8143F 		str	r3, [r7, #3860]
 429:..\src/command_processing.c ****                     packet_data[4 + PARAM_BYTE_SLOT*idx + i*sod] = *m_tmp;
 1580              		.loc 1 429 0 discriminator 3
 1581 0492 97F8253F 		ldrb	r3, [r7, #3877]	@ zero_extendqisi2
 1582 0496 3222     		movs	r2, #50
 1583 0498 02FB03F3 		mul	r3, r2, r3
 1584 049c 1A1D     		adds	r2, r3, #4
 1585 049e 97F8273F 		ldrb	r3, [r7, #3879]	@ zero_extendqisi2
 1586 04a2 97F8231F 		ldrb	r1, [r7, #3875]	@ zero_extendqisi2
 1587 04a6 01FB03F3 		mul	r3, r1, r3
 1588 04aa 1344     		add	r3, r3, r2
 1589 04ac D7F8142F 		ldr	r2, [r7, #3860]
 1590 04b0 1178     		ldrb	r1, [r2]	@ zero_extendqisi2
 1591 04b2 07F56372 		add	r2, r7, #908
 1592 04b6 D154     		strb	r1, [r2, r3]
 427:..\src/command_processing.c ****                     m_tmp = m_addr + i*sod;
 1593              		.loc 1 427 0 discriminator 3
 1594 04b8 97F8273F 		ldrb	r3, [r7, #3879]	@ zero_extendqisi2
 1595 04bc 0133     		adds	r3, r3, #1
 1596 04be 87F8273F 		strb	r3, [r7, #3879]
 1597              	.L77:
 427:..\src/command_processing.c ****                     m_tmp = m_addr + i*sod;
 1598              		.loc 1 427 0 is_stmt 0 discriminator 1
 1599 04c2 97F8253F 		ldrb	r3, [r7, #3877]	@ zero_extendqisi2
 1600 04c6 07F53C72 		add	r2, r7, #752
 1601 04ca D35C     		ldrb	r3, [r2, r3]	@ zero_extendqisi2
 1602 04cc 97F8272F 		ldrb	r2, [r7, #3879]	@ zero_extendqisi2
 1603 04d0 9A42     		cmp	r2, r3
 1604 04d2 D2D3     		bcc	.L78
 430:..\src/command_processing.c ****                 }
 431:..\src/command_processing.c ****                 break;
 1605              		.loc 1 431 0 is_stmt 1
 1606 04d4 00F03DBD 		b	.L66
 1607              	.L70:
 432:..\src/command_processing.c ****             case TYPE_INT16:
 433:..\src/command_processing.c ****                 for (i=0; i<NUM_ITEMS[idx]; i++){
 1608              		.loc 1 433 0
 1609 04d8 0023     		movs	r3, #0
 1610 04da 87F8273F 		strb	r3, [r7, #3879]
 1611 04de 86E0     		b	.L79
 1612              	.L86:
 434:..\src/command_processing.c ****                     if (idx == 7) {     //Offset measurements
 1613              		.loc 1 434 0
 1614 04e0 97F8253F 		ldrb	r3, [r7, #3877]	@ zero_extendqisi2
 1615 04e4 072B     		cmp	r3, #7
 1616 04e6 3ED1     		bne	.L80
ARM GAS  C:\Users\MattiaCP\AppData\Local\Temp\ccH4xQQo.s 			page 56


 435:..\src/command_processing.c ****                         aux_int16 = (c_mem.m_off[i] >> c_mem.res[i]);
 1617              		.loc 1 435 0
 1618 04e8 97F8273F 		ldrb	r3, [r7, #3879]	@ zero_extendqisi2
 1619 04ec CA4A     		ldr	r2, .L233
 1620 04ee 3633     		adds	r3, r3, #54
 1621 04f0 9B00     		lsls	r3, r3, #2
 1622 04f2 1344     		add	r3, r3, r2
 1623 04f4 5B68     		ldr	r3, [r3, #4]
 1624 04f6 97F8272F 		ldrb	r2, [r7, #3879]	@ zero_extendqisi2
 1625 04fa C749     		ldr	r1, .L233
 1626 04fc 0A44     		add	r2, r2, r1
 1627 04fe 92F8D720 		ldrb	r2, [r2, #215]	@ zero_extendqisi2
 1628 0502 1341     		asrs	r3, r3, r2
 1629 0504 1AB2     		sxth	r2, r3
 1630 0506 07F25233 		addw	r3, r7, #850
 1631 050a 1A80     		strh	r2, [r3]	@ movhi
 436:..\src/command_processing.c ****                         for(j = 0; j < sod; j++) {
 1632              		.loc 1 436 0
 1633 050c 0023     		movs	r3, #0
 1634 050e 87F8263F 		strb	r3, [r7, #3878]
 1635 0512 21E0     		b	.L81
 1636              	.L82:
 437:..\src/command_processing.c ****                             packet_data[(4 + PARAM_BYTE_SLOT*idx + i*sod) + sod - j -1] = ((char*)(
 1637              		.loc 1 437 0 discriminator 3
 1638 0514 97F8253F 		ldrb	r3, [r7, #3877]	@ zero_extendqisi2
 1639 0518 3222     		movs	r2, #50
 1640 051a 02FB03F3 		mul	r3, r2, r3
 1641 051e 1A1D     		adds	r2, r3, #4
 1642 0520 97F8273F 		ldrb	r3, [r7, #3879]	@ zero_extendqisi2
 1643 0524 97F8231F 		ldrb	r1, [r7, #3875]	@ zero_extendqisi2
 1644 0528 01FB03F3 		mul	r3, r1, r3
 1645 052c 1A44     		add	r2, r2, r3
 1646 052e 97F8233F 		ldrb	r3, [r7, #3875]	@ zero_extendqisi2
 1647 0532 1A44     		add	r2, r2, r3
 1648 0534 97F8263F 		ldrb	r3, [r7, #3878]	@ zero_extendqisi2
 1649 0538 D31A     		subs	r3, r2, r3
 1650 053a 013B     		subs	r3, r3, #1
 1651 053c 97F8262F 		ldrb	r2, [r7, #3878]	@ zero_extendqisi2
 1652 0540 07F25231 		addw	r1, r7, #850
 1653 0544 0A44     		add	r2, r2, r1
 1654 0546 1178     		ldrb	r1, [r2]	@ zero_extendqisi2
 1655 0548 07F56372 		add	r2, r7, #908
 1656 054c D154     		strb	r1, [r2, r3]
 436:..\src/command_processing.c ****                         for(j = 0; j < sod; j++) {
 1657              		.loc 1 436 0 discriminator 3
 1658 054e 97F8263F 		ldrb	r3, [r7, #3878]	@ zero_extendqisi2
 1659 0552 0133     		adds	r3, r3, #1
 1660 0554 87F8263F 		strb	r3, [r7, #3878]
 1661              	.L81:
 436:..\src/command_processing.c ****                         for(j = 0; j < sod; j++) {
 1662              		.loc 1 436 0 is_stmt 0 discriminator 1
 1663 0558 97F8262F 		ldrb	r2, [r7, #3878]	@ zero_extendqisi2
 1664 055c 97F8233F 		ldrb	r3, [r7, #3875]	@ zero_extendqisi2
 1665 0560 9A42     		cmp	r2, r3
 1666 0562 D7D3     		bcc	.L82
 1667 0564 3EE0     		b	.L83
 1668              	.L80:
ARM GAS  C:\Users\MattiaCP\AppData\Local\Temp\ccH4xQQo.s 			page 57


 438:..\src/command_processing.c ****                         }
 439:..\src/command_processing.c ****                         //*((int16*)(packet_data + (4 + PARAM_BYTE_SLOT*idx) + i*sod)) = (int16) (c
 440:..\src/command_processing.c ****                     }
 441:..\src/command_processing.c ****                     else {
 442:..\src/command_processing.c ****                         m_tmp = m_addr + i*sod;
 1669              		.loc 1 442 0 is_stmt 1
 1670 0566 97F8273F 		ldrb	r3, [r7, #3879]	@ zero_extendqisi2
 1671 056a 97F8232F 		ldrb	r2, [r7, #3875]	@ zero_extendqisi2
 1672 056e 02FB03F3 		mul	r3, r2, r3
 1673 0572 1A46     		mov	r2, r3
 1674 0574 D7F81C3F 		ldr	r3, [r7, #3868]
 1675 0578 1344     		add	r3, r3, r2
 1676 057a C7F8143F 		str	r3, [r7, #3860]
 443:..\src/command_processing.c ****                         aux_int16 = *((int16*)m_tmp);
 1677              		.loc 1 443 0
 1678 057e D7F8143F 		ldr	r3, [r7, #3860]
 1679 0582 B3F90020 		ldrsh	r2, [r3]
 1680 0586 07F25233 		addw	r3, r7, #850
 1681 058a 1A80     		strh	r2, [r3]	@ movhi
 444:..\src/command_processing.c ****                         for(j = 0; j < sod; j++) {
 1682              		.loc 1 444 0
 1683 058c 0023     		movs	r3, #0
 1684 058e 87F8263F 		strb	r3, [r7, #3878]
 1685 0592 21E0     		b	.L84
 1686              	.L85:
 445:..\src/command_processing.c ****                             packet_data[(4 + PARAM_BYTE_SLOT*idx + i*sod) + sod - j -1] = ((char*)(
 1687              		.loc 1 445 0 discriminator 3
 1688 0594 97F8253F 		ldrb	r3, [r7, #3877]	@ zero_extendqisi2
 1689 0598 3222     		movs	r2, #50
 1690 059a 02FB03F3 		mul	r3, r2, r3
 1691 059e 1A1D     		adds	r2, r3, #4
 1692 05a0 97F8273F 		ldrb	r3, [r7, #3879]	@ zero_extendqisi2
 1693 05a4 97F8231F 		ldrb	r1, [r7, #3875]	@ zero_extendqisi2
 1694 05a8 01FB03F3 		mul	r3, r1, r3
 1695 05ac 1A44     		add	r2, r2, r3
 1696 05ae 97F8233F 		ldrb	r3, [r7, #3875]	@ zero_extendqisi2
 1697 05b2 1A44     		add	r2, r2, r3
 1698 05b4 97F8263F 		ldrb	r3, [r7, #3878]	@ zero_extendqisi2
 1699 05b8 D31A     		subs	r3, r2, r3
 1700 05ba 013B     		subs	r3, r3, #1
 1701 05bc 97F8262F 		ldrb	r2, [r7, #3878]	@ zero_extendqisi2
 1702 05c0 07F25231 		addw	r1, r7, #850
 1703 05c4 0A44     		add	r2, r2, r1
 1704 05c6 1178     		ldrb	r1, [r2]	@ zero_extendqisi2
 1705 05c8 07F56372 		add	r2, r7, #908
 1706 05cc D154     		strb	r1, [r2, r3]
 444:..\src/command_processing.c ****                         for(j = 0; j < sod; j++) {
 1707              		.loc 1 444 0 discriminator 3
 1708 05ce 97F8263F 		ldrb	r3, [r7, #3878]	@ zero_extendqisi2
 1709 05d2 0133     		adds	r3, r3, #1
 1710 05d4 87F8263F 		strb	r3, [r7, #3878]
 1711              	.L84:
 444:..\src/command_processing.c ****                         for(j = 0; j < sod; j++) {
 1712              		.loc 1 444 0 is_stmt 0 discriminator 1
 1713 05d8 97F8262F 		ldrb	r2, [r7, #3878]	@ zero_extendqisi2
 1714 05dc 97F8233F 		ldrb	r3, [r7, #3875]	@ zero_extendqisi2
 1715 05e0 9A42     		cmp	r2, r3
ARM GAS  C:\Users\MattiaCP\AppData\Local\Temp\ccH4xQQo.s 			page 58


 1716 05e2 D7D3     		bcc	.L85
 1717              	.L83:
 433:..\src/command_processing.c ****                     if (idx == 7) {     //Offset measurements
 1718              		.loc 1 433 0 is_stmt 1 discriminator 2
 1719 05e4 97F8273F 		ldrb	r3, [r7, #3879]	@ zero_extendqisi2
 1720 05e8 0133     		adds	r3, r3, #1
 1721 05ea 87F8273F 		strb	r3, [r7, #3879]
 1722              	.L79:
 433:..\src/command_processing.c ****                     if (idx == 7) {     //Offset measurements
 1723              		.loc 1 433 0 is_stmt 0 discriminator 1
 1724 05ee 97F8253F 		ldrb	r3, [r7, #3877]	@ zero_extendqisi2
 1725 05f2 07F53C72 		add	r2, r7, #752
 1726 05f6 D35C     		ldrb	r3, [r2, r3]	@ zero_extendqisi2
 1727 05f8 97F8272F 		ldrb	r2, [r7, #3879]	@ zero_extendqisi2
 1728 05fc 9A42     		cmp	r2, r3
 1729 05fe FFF46FAF 		bcc	.L86
 446:..\src/command_processing.c ****                         }
 447:..\src/command_processing.c ****                         //*((int16*)(packet_data + (4 + PARAM_BYTE_SLOT*idx) + i*sod)) = *((int16*)
 448:..\src/command_processing.c ****                     }
 449:..\src/command_processing.c ****                 }
 450:..\src/command_processing.c ****                 break;
 1730              		.loc 1 450 0 is_stmt 1
 1731 0602 00F0A6BC 		b	.L66
 1732              	.L71:
 451:..\src/command_processing.c ****             case TYPE_UINT16:
 452:..\src/command_processing.c ****                 for (i=0; i<NUM_ITEMS[idx]; i++){
 1733              		.loc 1 452 0
 1734 0606 0023     		movs	r3, #0
 1735 0608 87F8273F 		strb	r3, [r7, #3879]
 1736 060c 42E0     		b	.L87
 1737              	.L90:
 453:..\src/command_processing.c ****                     m_tmp = m_addr + i*sod;
 1738              		.loc 1 453 0
 1739 060e 97F8273F 		ldrb	r3, [r7, #3879]	@ zero_extendqisi2
 1740 0612 97F8232F 		ldrb	r2, [r7, #3875]	@ zero_extendqisi2
 1741 0616 02FB03F3 		mul	r3, r2, r3
 1742 061a 1A46     		mov	r2, r3
 1743 061c D7F81C3F 		ldr	r3, [r7, #3868]
 1744 0620 1344     		add	r3, r3, r2
 1745 0622 C7F8143F 		str	r3, [r7, #3860]
 454:..\src/command_processing.c ****                     aux_uint16 = *((uint16*)m_tmp);
 1746              		.loc 1 454 0
 1747 0626 D7F8143F 		ldr	r3, [r7, #3860]
 1748 062a 1A88     		ldrh	r2, [r3]
 1749 062c 07F55473 		add	r3, r7, #848
 1750 0630 1A80     		strh	r2, [r3]	@ movhi
 455:..\src/command_processing.c ****                     for(j = 0; j < sod; j++) {
 1751              		.loc 1 455 0
 1752 0632 0023     		movs	r3, #0
 1753 0634 87F8263F 		strb	r3, [r7, #3878]
 1754 0638 21E0     		b	.L88
 1755              	.L89:
 456:..\src/command_processing.c ****                         packet_data[(4 + PARAM_BYTE_SLOT*idx + i*sod) + sod - j -1] = ((char*)(&aux
 1756              		.loc 1 456 0 discriminator 3
 1757 063a 97F8253F 		ldrb	r3, [r7, #3877]	@ zero_extendqisi2
 1758 063e 3222     		movs	r2, #50
 1759 0640 02FB03F3 		mul	r3, r2, r3
ARM GAS  C:\Users\MattiaCP\AppData\Local\Temp\ccH4xQQo.s 			page 59


 1760 0644 1A1D     		adds	r2, r3, #4
 1761 0646 97F8273F 		ldrb	r3, [r7, #3879]	@ zero_extendqisi2
 1762 064a 97F8231F 		ldrb	r1, [r7, #3875]	@ zero_extendqisi2
 1763 064e 01FB03F3 		mul	r3, r1, r3
 1764 0652 1A44     		add	r2, r2, r3
 1765 0654 97F8233F 		ldrb	r3, [r7, #3875]	@ zero_extendqisi2
 1766 0658 1A44     		add	r2, r2, r3
 1767 065a 97F8263F 		ldrb	r3, [r7, #3878]	@ zero_extendqisi2
 1768 065e D31A     		subs	r3, r2, r3
 1769 0660 013B     		subs	r3, r3, #1
 1770 0662 97F8262F 		ldrb	r2, [r7, #3878]	@ zero_extendqisi2
 1771 0666 07F55471 		add	r1, r7, #848
 1772 066a 0A44     		add	r2, r2, r1
 1773 066c 1178     		ldrb	r1, [r2]	@ zero_extendqisi2
 1774 066e 07F56372 		add	r2, r7, #908
 1775 0672 D154     		strb	r1, [r2, r3]
 455:..\src/command_processing.c ****                     for(j = 0; j < sod; j++) {
 1776              		.loc 1 455 0 discriminator 3
 1777 0674 97F8263F 		ldrb	r3, [r7, #3878]	@ zero_extendqisi2
 1778 0678 0133     		adds	r3, r3, #1
 1779 067a 87F8263F 		strb	r3, [r7, #3878]
 1780              	.L88:
 455:..\src/command_processing.c ****                     for(j = 0; j < sod; j++) {
 1781              		.loc 1 455 0 is_stmt 0 discriminator 1
 1782 067e 97F8262F 		ldrb	r2, [r7, #3878]	@ zero_extendqisi2
 1783 0682 97F8233F 		ldrb	r3, [r7, #3875]	@ zero_extendqisi2
 1784 0686 9A42     		cmp	r2, r3
 1785 0688 D7D3     		bcc	.L89
 452:..\src/command_processing.c ****                     m_tmp = m_addr + i*sod;
 1786              		.loc 1 452 0 is_stmt 1 discriminator 2
 1787 068a 97F8273F 		ldrb	r3, [r7, #3879]	@ zero_extendqisi2
 1788 068e 0133     		adds	r3, r3, #1
 1789 0690 87F8273F 		strb	r3, [r7, #3879]
 1790              	.L87:
 452:..\src/command_processing.c ****                     m_tmp = m_addr + i*sod;
 1791              		.loc 1 452 0 is_stmt 0 discriminator 1
 1792 0694 97F8253F 		ldrb	r3, [r7, #3877]	@ zero_extendqisi2
 1793 0698 07F53C72 		add	r2, r7, #752
 1794 069c D35C     		ldrb	r3, [r2, r3]	@ zero_extendqisi2
 1795 069e 97F8272F 		ldrb	r2, [r7, #3879]	@ zero_extendqisi2
 1796 06a2 9A42     		cmp	r2, r3
 1797 06a4 B3D3     		bcc	.L90
 457:..\src/command_processing.c ****                     }
 458:..\src/command_processing.c ****                     //*((uint16*)(packet_data + (4 + PARAM_BYTE_SLOT*idx) + i*sod)) = *((uint16*)m_
 459:..\src/command_processing.c ****                 }
 460:..\src/command_processing.c ****                 break;
 1798              		.loc 1 460 0 is_stmt 1
 1799 06a6 00F054BC 		b	.L66
 1800              	.L72:
 461:..\src/command_processing.c ****             case TYPE_INT32: 
 462:..\src/command_processing.c ****                 for (i=0; i<NUM_ITEMS[idx]; i++){
 1801              		.loc 1 462 0
 1802 06aa 0023     		movs	r3, #0
 1803 06ac 87F8273F 		strb	r3, [r7, #3879]
 1804 06b0 E2E0     		b	.L91
 1805              	.L104:
 463:..\src/command_processing.c ****                     switch (idx){
ARM GAS  C:\Users\MattiaCP\AppData\Local\Temp\ccH4xQQo.s 			page 60


 1806              		.loc 1 463 0
 1807 06b2 97F8253F 		ldrb	r3, [r7, #3877]	@ zero_extendqisi2
 1808 06b6 0A2B     		cmp	r3, #10
 1809 06b8 02D0     		beq	.L93
 1810 06ba 162B     		cmp	r3, #22
 1811 06bc 64D0     		beq	.L94
 1812 06be 94E0     		b	.L226
 1813              	.L93:
 464:..\src/command_processing.c ****                         case 10:    // POSITION LIMITS (param 11)
 465:..\src/command_processing.c ****                             aux_int32 = (c_mem.pos_lim_inf >> c_mem.res[0]);
 1814              		.loc 1 465 0
 1815 06c0 554B     		ldr	r3, .L233
 1816 06c2 D3F8F830 		ldr	r3, [r3, #248]
 1817 06c6 544A     		ldr	r2, .L233
 1818 06c8 92F8D720 		ldrb	r2, [r2, #215]	@ zero_extendqisi2
 1819 06cc 43FA02F2 		asr	r2, r3, r2
 1820 06d0 07F55373 		add	r3, r7, #844
 1821 06d4 1A60     		str	r2, [r3]
 466:..\src/command_processing.c ****                             for(j = 0; j < sod; j++) {
 1822              		.loc 1 466 0
 1823 06d6 0023     		movs	r3, #0
 1824 06d8 87F8263F 		strb	r3, [r7, #3878]
 1825 06dc 1AE0     		b	.L95
 1826              	.L96:
 467:..\src/command_processing.c ****                                 packet_data[(4 + PARAM_BYTE_SLOT*idx) + sod - j -1] = ((char*)(&aux
 1827              		.loc 1 467 0 discriminator 3
 1828 06de 97F8253F 		ldrb	r3, [r7, #3877]	@ zero_extendqisi2
 1829 06e2 3222     		movs	r2, #50
 1830 06e4 02FB03F3 		mul	r3, r2, r3
 1831 06e8 1A1D     		adds	r2, r3, #4
 1832 06ea 97F8233F 		ldrb	r3, [r7, #3875]	@ zero_extendqisi2
 1833 06ee 1A44     		add	r2, r2, r3
 1834 06f0 97F8263F 		ldrb	r3, [r7, #3878]	@ zero_extendqisi2
 1835 06f4 D31A     		subs	r3, r2, r3
 1836 06f6 013B     		subs	r3, r3, #1
 1837 06f8 97F8262F 		ldrb	r2, [r7, #3878]	@ zero_extendqisi2
 1838 06fc 07F55371 		add	r1, r7, #844
 1839 0700 0A44     		add	r2, r2, r1
 1840 0702 1178     		ldrb	r1, [r2]	@ zero_extendqisi2
 1841 0704 07F56372 		add	r2, r7, #908
 1842 0708 D154     		strb	r1, [r2, r3]
 466:..\src/command_processing.c ****                             for(j = 0; j < sod; j++) {
 1843              		.loc 1 466 0 discriminator 3
 1844 070a 97F8263F 		ldrb	r3, [r7, #3878]	@ zero_extendqisi2
 1845 070e 0133     		adds	r3, r3, #1
 1846 0710 87F8263F 		strb	r3, [r7, #3878]
 1847              	.L95:
 466:..\src/command_processing.c ****                             for(j = 0; j < sod; j++) {
 1848              		.loc 1 466 0 is_stmt 0 discriminator 1
 1849 0714 97F8262F 		ldrb	r2, [r7, #3878]	@ zero_extendqisi2
 1850 0718 97F8233F 		ldrb	r3, [r7, #3875]	@ zero_extendqisi2
 1851 071c 9A42     		cmp	r2, r3
 1852 071e DED3     		bcc	.L96
 468:..\src/command_processing.c ****                             }
 469:..\src/command_processing.c ****                             aux_int32 = (c_mem.pos_lim_sup >> c_mem.res[0]);
 1853              		.loc 1 469 0 is_stmt 1
 1854 0720 3D4B     		ldr	r3, .L233
ARM GAS  C:\Users\MattiaCP\AppData\Local\Temp\ccH4xQQo.s 			page 61


 1855 0722 D3F8FC30 		ldr	r3, [r3, #252]
 1856 0726 3C4A     		ldr	r2, .L233
 1857 0728 92F8D720 		ldrb	r2, [r2, #215]	@ zero_extendqisi2
 1858 072c 43FA02F2 		asr	r2, r3, r2
 1859 0730 07F55373 		add	r3, r7, #844
 1860 0734 1A60     		str	r2, [r3]
 470:..\src/command_processing.c ****                             for(j = 0; j < sod; j++) {
 1861              		.loc 1 470 0
 1862 0736 0023     		movs	r3, #0
 1863 0738 87F8263F 		strb	r3, [r7, #3878]
 1864 073c 1DE0     		b	.L97
 1865              	.L98:
 471:..\src/command_processing.c ****                                 packet_data[(4 + PARAM_BYTE_SLOT*idx + sod) + sod - j -1] = ((char*
 1866              		.loc 1 471 0 discriminator 3
 1867 073e 97F8253F 		ldrb	r3, [r7, #3877]	@ zero_extendqisi2
 1868 0742 3222     		movs	r2, #50
 1869 0744 02FB03F3 		mul	r3, r2, r3
 1870 0748 1A1D     		adds	r2, r3, #4
 1871 074a 97F8233F 		ldrb	r3, [r7, #3875]	@ zero_extendqisi2
 1872 074e 1A44     		add	r2, r2, r3
 1873 0750 97F8233F 		ldrb	r3, [r7, #3875]	@ zero_extendqisi2
 1874 0754 1A44     		add	r2, r2, r3
 1875 0756 97F8263F 		ldrb	r3, [r7, #3878]	@ zero_extendqisi2
 1876 075a D31A     		subs	r3, r2, r3
 1877 075c 013B     		subs	r3, r3, #1
 1878 075e 97F8262F 		ldrb	r2, [r7, #3878]	@ zero_extendqisi2
 1879 0762 07F55371 		add	r1, r7, #844
 1880 0766 0A44     		add	r2, r2, r1
 1881 0768 1178     		ldrb	r1, [r2]	@ zero_extendqisi2
 1882 076a 07F56372 		add	r2, r7, #908
 1883 076e D154     		strb	r1, [r2, r3]
 470:..\src/command_processing.c ****                             for(j = 0; j < sod; j++) {
 1884              		.loc 1 470 0 discriminator 3
 1885 0770 97F8263F 		ldrb	r3, [r7, #3878]	@ zero_extendqisi2
 1886 0774 0133     		adds	r3, r3, #1
 1887 0776 87F8263F 		strb	r3, [r7, #3878]
 1888              	.L97:
 470:..\src/command_processing.c ****                             for(j = 0; j < sod; j++) {
 1889              		.loc 1 470 0 is_stmt 0 discriminator 1
 1890 077a 97F8262F 		ldrb	r2, [r7, #3878]	@ zero_extendqisi2
 1891 077e 97F8233F 		ldrb	r3, [r7, #3875]	@ zero_extendqisi2
 1892 0782 9A42     		cmp	r2, r3
 1893 0784 DBD3     		bcc	.L98
 472:..\src/command_processing.c ****                             }
 473:..\src/command_processing.c ****                             //*((int32 *)( packet_data + (4 + PARAM_BYTE_SLOT*idx))) = (c_mem.pos_l
 474:..\src/command_processing.c ****                             //*((int32 *)( packet_data + (4 + PARAM_BYTE_SLOT*idx) + sod)) = (c_mem
 475:..\src/command_processing.c ****                             break;
 1894              		.loc 1 475 0 is_stmt 1
 1895 0786 72E0     		b	.L99
 1896              	.L94:
 476:..\src/command_processing.c ****                         case 22:    // REST POSITION (param 22)
 477:..\src/command_processing.c ****                             aux_int32 = (c_mem.rest_pos >> c_mem.res[0]);
 1897              		.loc 1 477 0
 1898 0788 234B     		ldr	r3, .L233
 1899 078a D3F83831 		ldr	r3, [r3, #312]
 1900 078e 224A     		ldr	r2, .L233
 1901 0790 92F8D720 		ldrb	r2, [r2, #215]	@ zero_extendqisi2
ARM GAS  C:\Users\MattiaCP\AppData\Local\Temp\ccH4xQQo.s 			page 62


 1902 0794 43FA02F2 		asr	r2, r3, r2
 1903 0798 07F55373 		add	r3, r7, #844
 1904 079c 1A60     		str	r2, [r3]
 478:..\src/command_processing.c ****                             for(j = 0; j < sod; j++) {
 1905              		.loc 1 478 0
 1906 079e 0023     		movs	r3, #0
 1907 07a0 87F8263F 		strb	r3, [r7, #3878]
 1908 07a4 1AE0     		b	.L100
 1909              	.L101:
 479:..\src/command_processing.c ****                                 packet_data[(4 + PARAM_BYTE_SLOT*idx) + sod - j -1] = ((char*)(&aux
 1910              		.loc 1 479 0 discriminator 3
 1911 07a6 97F8253F 		ldrb	r3, [r7, #3877]	@ zero_extendqisi2
 1912 07aa 3222     		movs	r2, #50
 1913 07ac 02FB03F3 		mul	r3, r2, r3
 1914 07b0 1A1D     		adds	r2, r3, #4
 1915 07b2 97F8233F 		ldrb	r3, [r7, #3875]	@ zero_extendqisi2
 1916 07b6 1A44     		add	r2, r2, r3
 1917 07b8 97F8263F 		ldrb	r3, [r7, #3878]	@ zero_extendqisi2
 1918 07bc D31A     		subs	r3, r2, r3
 1919 07be 013B     		subs	r3, r3, #1
 1920 07c0 97F8262F 		ldrb	r2, [r7, #3878]	@ zero_extendqisi2
 1921 07c4 07F55371 		add	r1, r7, #844
 1922 07c8 0A44     		add	r2, r2, r1
 1923 07ca 1178     		ldrb	r1, [r2]	@ zero_extendqisi2
 1924 07cc 07F56372 		add	r2, r7, #908
 1925 07d0 D154     		strb	r1, [r2, r3]
 478:..\src/command_processing.c ****                             for(j = 0; j < sod; j++) {
 1926              		.loc 1 478 0 discriminator 3
 1927 07d2 97F8263F 		ldrb	r3, [r7, #3878]	@ zero_extendqisi2
 1928 07d6 0133     		adds	r3, r3, #1
 1929 07d8 87F8263F 		strb	r3, [r7, #3878]
 1930              	.L100:
 478:..\src/command_processing.c ****                             for(j = 0; j < sod; j++) {
 1931              		.loc 1 478 0 is_stmt 0 discriminator 1
 1932 07dc 97F8262F 		ldrb	r2, [r7, #3878]	@ zero_extendqisi2
 1933 07e0 97F8233F 		ldrb	r3, [r7, #3875]	@ zero_extendqisi2
 1934 07e4 9A42     		cmp	r2, r3
 1935 07e6 DED3     		bcc	.L101
 480:..\src/command_processing.c ****                             }
 481:..\src/command_processing.c ****                             //*((int32 *)( packet_data + (4 + PARAM_BYTE_SLOT*idx))) = (c_mem.rest_
 482:..\src/command_processing.c ****                             break;
 1936              		.loc 1 482 0 is_stmt 1
 1937 07e8 41E0     		b	.L99
 1938              	.L226:
 483:..\src/command_processing.c ****                         default:
 484:..\src/command_processing.c ****                             m_tmp = m_addr + i*sod;
 1939              		.loc 1 484 0
 1940 07ea 97F8273F 		ldrb	r3, [r7, #3879]	@ zero_extendqisi2
 1941 07ee 97F8232F 		ldrb	r2, [r7, #3875]	@ zero_extendqisi2
 1942 07f2 02FB03F3 		mul	r3, r2, r3
 1943 07f6 1A46     		mov	r2, r3
 1944 07f8 D7F81C3F 		ldr	r3, [r7, #3868]
 1945 07fc 1344     		add	r3, r3, r2
 1946 07fe C7F8143F 		str	r3, [r7, #3860]
 485:..\src/command_processing.c ****                             aux_int32 = *((int32*)m_tmp);
 1947              		.loc 1 485 0
 1948 0802 D7F8143F 		ldr	r3, [r7, #3860]
ARM GAS  C:\Users\MattiaCP\AppData\Local\Temp\ccH4xQQo.s 			page 63


 1949 0806 1A68     		ldr	r2, [r3]
 1950 0808 07F55373 		add	r3, r7, #844
 1951 080c 1A60     		str	r2, [r3]
 486:..\src/command_processing.c ****                             for(j = 0; j < sod; j++) {
 1952              		.loc 1 486 0
 1953 080e 0023     		movs	r3, #0
 1954 0810 87F8263F 		strb	r3, [r7, #3878]
 1955 0814 24E0     		b	.L102
 1956              	.L234:
 1957 0816 00BF     		.align	2
 1958              	.L233:
 1959 0818 00000000 		.word	c_mem
 1960              	.L103:
 487:..\src/command_processing.c ****                                 packet_data[(4 + PARAM_BYTE_SLOT*idx + i*sod) + sod - j -1] = ((cha
 1961              		.loc 1 487 0 discriminator 3
 1962 081c 97F8253F 		ldrb	r3, [r7, #3877]	@ zero_extendqisi2
 1963 0820 3222     		movs	r2, #50
 1964 0822 02FB03F3 		mul	r3, r2, r3
 1965 0826 1A1D     		adds	r2, r3, #4
 1966 0828 97F8273F 		ldrb	r3, [r7, #3879]	@ zero_extendqisi2
 1967 082c 97F8231F 		ldrb	r1, [r7, #3875]	@ zero_extendqisi2
 1968 0830 01FB03F3 		mul	r3, r1, r3
 1969 0834 1A44     		add	r2, r2, r3
 1970 0836 97F8233F 		ldrb	r3, [r7, #3875]	@ zero_extendqisi2
 1971 083a 1A44     		add	r2, r2, r3
 1972 083c 97F8263F 		ldrb	r3, [r7, #3878]	@ zero_extendqisi2
 1973 0840 D31A     		subs	r3, r2, r3
 1974 0842 013B     		subs	r3, r3, #1
 1975 0844 97F8262F 		ldrb	r2, [r7, #3878]	@ zero_extendqisi2
 1976 0848 07F55371 		add	r1, r7, #844
 1977 084c 0A44     		add	r2, r2, r1
 1978 084e 1178     		ldrb	r1, [r2]	@ zero_extendqisi2
 1979 0850 07F56372 		add	r2, r7, #908
 1980 0854 D154     		strb	r1, [r2, r3]
 486:..\src/command_processing.c ****                             for(j = 0; j < sod; j++) {
 1981              		.loc 1 486 0 discriminator 3
 1982 0856 97F8263F 		ldrb	r3, [r7, #3878]	@ zero_extendqisi2
 1983 085a 0133     		adds	r3, r3, #1
 1984 085c 87F8263F 		strb	r3, [r7, #3878]
 1985              	.L102:
 486:..\src/command_processing.c ****                             for(j = 0; j < sod; j++) {
 1986              		.loc 1 486 0 is_stmt 0 discriminator 1
 1987 0860 97F8262F 		ldrb	r2, [r7, #3878]	@ zero_extendqisi2
 1988 0864 97F8233F 		ldrb	r3, [r7, #3875]	@ zero_extendqisi2
 1989 0868 9A42     		cmp	r2, r3
 1990 086a D7D3     		bcc	.L103
 488:..\src/command_processing.c ****                             }
 489:..\src/command_processing.c ****                             //*((int32*)(packet_data + (4 + PARAM_BYTE_SLOT*idx) + i*sod)) = *((int
 490:..\src/command_processing.c ****                             break;
 1991              		.loc 1 490 0 is_stmt 1
 1992 086c 00BF     		nop
 1993              	.L99:
 462:..\src/command_processing.c ****                     switch (idx){
 1994              		.loc 1 462 0 discriminator 2
 1995 086e 97F8273F 		ldrb	r3, [r7, #3879]	@ zero_extendqisi2
 1996 0872 0133     		adds	r3, r3, #1
 1997 0874 87F8273F 		strb	r3, [r7, #3879]
ARM GAS  C:\Users\MattiaCP\AppData\Local\Temp\ccH4xQQo.s 			page 64


 1998              	.L91:
 462:..\src/command_processing.c ****                     switch (idx){
 1999              		.loc 1 462 0 is_stmt 0 discriminator 1
 2000 0878 97F8253F 		ldrb	r3, [r7, #3877]	@ zero_extendqisi2
 2001 087c 07F53C72 		add	r2, r7, #752
 2002 0880 D35C     		ldrb	r3, [r2, r3]	@ zero_extendqisi2
 2003 0882 97F8272F 		ldrb	r2, [r7, #3879]	@ zero_extendqisi2
 2004 0886 9A42     		cmp	r2, r3
 2005 0888 FFF413AF 		bcc	.L104
 491:..\src/command_processing.c ****                     }
 492:..\src/command_processing.c ****                 }
 493:..\src/command_processing.c ****                 break;
 2006              		.loc 1 493 0 is_stmt 1
 2007 088c 61E3     		b	.L66
 2008              	.L73:
 494:..\src/command_processing.c ****             case TYPE_UINT32: 
 495:..\src/command_processing.c ****                 for (i=0; i<NUM_ITEMS[idx]; i++){
 2009              		.loc 1 495 0
 2010 088e 0023     		movs	r3, #0
 2011 0890 87F8273F 		strb	r3, [r7, #3879]
 2012 0894 42E0     		b	.L105
 2013              	.L108:
 496:..\src/command_processing.c ****                     m_tmp = m_addr + i*sod;
 2014              		.loc 1 496 0
 2015 0896 97F8273F 		ldrb	r3, [r7, #3879]	@ zero_extendqisi2
 2016 089a 97F8232F 		ldrb	r2, [r7, #3875]	@ zero_extendqisi2
 2017 089e 02FB03F3 		mul	r3, r2, r3
 2018 08a2 1A46     		mov	r2, r3
 2019 08a4 D7F81C3F 		ldr	r3, [r7, #3868]
 2020 08a8 1344     		add	r3, r3, r2
 2021 08aa C7F8143F 		str	r3, [r7, #3860]
 497:..\src/command_processing.c ****                     aux_uint32 = *((uint32*)m_tmp);
 2022              		.loc 1 497 0
 2023 08ae D7F8143F 		ldr	r3, [r7, #3860]
 2024 08b2 1A68     		ldr	r2, [r3]
 2025 08b4 07F55273 		add	r3, r7, #840
 2026 08b8 1A60     		str	r2, [r3]
 498:..\src/command_processing.c ****                     for(j = 0; j < sod; j++) {
 2027              		.loc 1 498 0
 2028 08ba 0023     		movs	r3, #0
 2029 08bc 87F8263F 		strb	r3, [r7, #3878]
 2030 08c0 21E0     		b	.L106
 2031              	.L107:
 499:..\src/command_processing.c ****                         packet_data[(4 + PARAM_BYTE_SLOT*idx + i*sod) + sod - j -1] = ((char*)(&aux
 2032              		.loc 1 499 0 discriminator 3
 2033 08c2 97F8253F 		ldrb	r3, [r7, #3877]	@ zero_extendqisi2
 2034 08c6 3222     		movs	r2, #50
 2035 08c8 02FB03F3 		mul	r3, r2, r3
 2036 08cc 1A1D     		adds	r2, r3, #4
 2037 08ce 97F8273F 		ldrb	r3, [r7, #3879]	@ zero_extendqisi2
 2038 08d2 97F8231F 		ldrb	r1, [r7, #3875]	@ zero_extendqisi2
 2039 08d6 01FB03F3 		mul	r3, r1, r3
 2040 08da 1A44     		add	r2, r2, r3
 2041 08dc 97F8233F 		ldrb	r3, [r7, #3875]	@ zero_extendqisi2
 2042 08e0 1A44     		add	r2, r2, r3
 2043 08e2 97F8263F 		ldrb	r3, [r7, #3878]	@ zero_extendqisi2
 2044 08e6 D31A     		subs	r3, r2, r3
ARM GAS  C:\Users\MattiaCP\AppData\Local\Temp\ccH4xQQo.s 			page 65


 2045 08e8 013B     		subs	r3, r3, #1
 2046 08ea 97F8262F 		ldrb	r2, [r7, #3878]	@ zero_extendqisi2
 2047 08ee 07F55271 		add	r1, r7, #840
 2048 08f2 0A44     		add	r2, r2, r1
 2049 08f4 1178     		ldrb	r1, [r2]	@ zero_extendqisi2
 2050 08f6 07F56372 		add	r2, r7, #908
 2051 08fa D154     		strb	r1, [r2, r3]
 498:..\src/command_processing.c ****                     for(j = 0; j < sod; j++) {
 2052              		.loc 1 498 0 discriminator 3
 2053 08fc 97F8263F 		ldrb	r3, [r7, #3878]	@ zero_extendqisi2
 2054 0900 0133     		adds	r3, r3, #1
 2055 0902 87F8263F 		strb	r3, [r7, #3878]
 2056              	.L106:
 498:..\src/command_processing.c ****                     for(j = 0; j < sod; j++) {
 2057              		.loc 1 498 0 is_stmt 0 discriminator 1
 2058 0906 97F8262F 		ldrb	r2, [r7, #3878]	@ zero_extendqisi2
 2059 090a 97F8233F 		ldrb	r3, [r7, #3875]	@ zero_extendqisi2
 2060 090e 9A42     		cmp	r2, r3
 2061 0910 D7D3     		bcc	.L107
 495:..\src/command_processing.c ****                     m_tmp = m_addr + i*sod;
 2062              		.loc 1 495 0 is_stmt 1 discriminator 2
 2063 0912 97F8273F 		ldrb	r3, [r7, #3879]	@ zero_extendqisi2
 2064 0916 0133     		adds	r3, r3, #1
 2065 0918 87F8273F 		strb	r3, [r7, #3879]
 2066              	.L105:
 495:..\src/command_processing.c ****                     m_tmp = m_addr + i*sod;
 2067              		.loc 1 495 0 is_stmt 0 discriminator 1
 2068 091c 97F8253F 		ldrb	r3, [r7, #3877]	@ zero_extendqisi2
 2069 0920 07F53C72 		add	r2, r7, #752
 2070 0924 D35C     		ldrb	r3, [r2, r3]	@ zero_extendqisi2
 2071 0926 97F8272F 		ldrb	r2, [r7, #3879]	@ zero_extendqisi2
 2072 092a 9A42     		cmp	r2, r3
 2073 092c B3D3     		bcc	.L108
 500:..\src/command_processing.c ****                     }
 501:..\src/command_processing.c ****                     //*((uint32*)(packet_data + (4 + PARAM_BYTE_SLOT*idx) + i*sod)) = *((uint32*)m_
 502:..\src/command_processing.c ****                 }
 503:..\src/command_processing.c ****                 break;
 2074              		.loc 1 503 0 is_stmt 1
 2075 092e 10E3     		b	.L66
 2076              	.L74:
 504:..\src/command_processing.c ****                 
 505:..\src/command_processing.c ****             case TYPE_FLOAT:
 506:..\src/command_processing.c ****                 switch (idx) {
 2077              		.loc 1 506 0
 2078 0930 97F8253F 		ldrb	r3, [r7, #3877]	@ zero_extendqisi2
 2079 0934 012B     		cmp	r3, #1
 2080 0936 03D0     		beq	.L110
 2081 0938 022B     		cmp	r3, #2
 2082 093a 00F05B81 		beq	.L111
 2083 093e B6E2     		b	.L227
 2084              	.L110:
 507:..\src/command_processing.c ****                 
 508:..\src/command_processing.c ****                 case 1:     // POSITION PID (param 2)
 509:..\src/command_processing.c ****                     if(c_mem.control_mode != CURR_AND_POS_CONTROL) {
 2085              		.loc 1 509 0
 2086 0940 D54B     		ldr	r3, .L235
 2087 0942 93F8D630 		ldrb	r3, [r3, #214]	@ zero_extendqisi2
ARM GAS  C:\Users\MattiaCP\AppData\Local\Temp\ccH4xQQo.s 			page 66


 2088 0946 032B     		cmp	r3, #3
 2089 0948 00F0AA80 		beq	.L112
 510:..\src/command_processing.c ****                         aux_float = (float) c_mem.k_p / 65536;
 2090              		.loc 1 510 0
 2091 094c D24B     		ldr	r3, .L235
 2092 094e D3F8A430 		ldr	r3, [r3, #164]
 2093 0952 1846     		mov	r0, r3
 2094 0954 FFF7FEFF 		bl	__aeabi_i2f
 2095 0958 0346     		mov	r3, r0
 2096 095a 4FF08F41 		mov	r1, #1199570944
 2097 095e 1846     		mov	r0, r3
 2098 0960 FFF7FEFF 		bl	__aeabi_fdiv
 2099 0964 0346     		mov	r3, r0
 2100 0966 1A46     		mov	r2, r3
 2101 0968 07F55573 		add	r3, r7, #852
 2102 096c 1A60     		str	r2, [r3]	@ float
 511:..\src/command_processing.c ****                         for(i = 0; i < sod; i++) {
 2103              		.loc 1 511 0
 2104 096e 0023     		movs	r3, #0
 2105 0970 87F8273F 		strb	r3, [r7, #3879]
 2106 0974 1AE0     		b	.L113
 2107              	.L114:
 512:..\src/command_processing.c ****                             packet_data[(4 + PARAM_BYTE_SLOT*idx) + sod - i -1] = ((char*)(&aux_flo
 2108              		.loc 1 512 0 discriminator 3
 2109 0976 97F8253F 		ldrb	r3, [r7, #3877]	@ zero_extendqisi2
 2110 097a 3222     		movs	r2, #50
 2111 097c 02FB03F3 		mul	r3, r2, r3
 2112 0980 1A1D     		adds	r2, r3, #4
 2113 0982 97F8233F 		ldrb	r3, [r7, #3875]	@ zero_extendqisi2
 2114 0986 1A44     		add	r2, r2, r3
 2115 0988 97F8273F 		ldrb	r3, [r7, #3879]	@ zero_extendqisi2
 2116 098c D31A     		subs	r3, r2, r3
 2117 098e 013B     		subs	r3, r3, #1
 2118 0990 97F8272F 		ldrb	r2, [r7, #3879]	@ zero_extendqisi2
 2119 0994 07F55571 		add	r1, r7, #852
 2120 0998 0A44     		add	r2, r2, r1
 2121 099a 1178     		ldrb	r1, [r2]	@ zero_extendqisi2
 2122 099c 07F56372 		add	r2, r7, #908
 2123 09a0 D154     		strb	r1, [r2, r3]
 511:..\src/command_processing.c ****                         for(i = 0; i < sod; i++) {
 2124              		.loc 1 511 0 discriminator 3
 2125 09a2 97F8273F 		ldrb	r3, [r7, #3879]	@ zero_extendqisi2
 2126 09a6 0133     		adds	r3, r3, #1
 2127 09a8 87F8273F 		strb	r3, [r7, #3879]
 2128              	.L113:
 511:..\src/command_processing.c ****                         for(i = 0; i < sod; i++) {
 2129              		.loc 1 511 0 is_stmt 0 discriminator 1
 2130 09ac 97F8272F 		ldrb	r2, [r7, #3879]	@ zero_extendqisi2
 2131 09b0 97F8233F 		ldrb	r3, [r7, #3875]	@ zero_extendqisi2
 2132 09b4 9A42     		cmp	r2, r3
 2133 09b6 DED3     		bcc	.L114
 513:..\src/command_processing.c ****                         }
 514:..\src/command_processing.c ****                         aux_float = (float) c_mem.k_i / 65536;
 2134              		.loc 1 514 0 is_stmt 1
 2135 09b8 B74B     		ldr	r3, .L235
 2136 09ba D3F8A830 		ldr	r3, [r3, #168]
 2137 09be 1846     		mov	r0, r3
ARM GAS  C:\Users\MattiaCP\AppData\Local\Temp\ccH4xQQo.s 			page 67


 2138 09c0 FFF7FEFF 		bl	__aeabi_i2f
 2139 09c4 0346     		mov	r3, r0
 2140 09c6 4FF08F41 		mov	r1, #1199570944
 2141 09ca 1846     		mov	r0, r3
 2142 09cc FFF7FEFF 		bl	__aeabi_fdiv
 2143 09d0 0346     		mov	r3, r0
 2144 09d2 1A46     		mov	r2, r3
 2145 09d4 07F55573 		add	r3, r7, #852
 2146 09d8 1A60     		str	r2, [r3]	@ float
 515:..\src/command_processing.c ****                         for(i = 0; i < sod; i++) {
 2147              		.loc 1 515 0
 2148 09da 0023     		movs	r3, #0
 2149 09dc 87F8273F 		strb	r3, [r7, #3879]
 2150 09e0 1DE0     		b	.L115
 2151              	.L116:
 516:..\src/command_processing.c ****                             packet_data[(4 + PARAM_BYTE_SLOT*idx + sod) + sod - i -1] = ((char*)(&a
 2152              		.loc 1 516 0 discriminator 3
 2153 09e2 97F8253F 		ldrb	r3, [r7, #3877]	@ zero_extendqisi2
 2154 09e6 3222     		movs	r2, #50
 2155 09e8 02FB03F3 		mul	r3, r2, r3
 2156 09ec 1A1D     		adds	r2, r3, #4
 2157 09ee 97F8233F 		ldrb	r3, [r7, #3875]	@ zero_extendqisi2
 2158 09f2 1A44     		add	r2, r2, r3
 2159 09f4 97F8233F 		ldrb	r3, [r7, #3875]	@ zero_extendqisi2
 2160 09f8 1A44     		add	r2, r2, r3
 2161 09fa 97F8273F 		ldrb	r3, [r7, #3879]	@ zero_extendqisi2
 2162 09fe D31A     		subs	r3, r2, r3
 2163 0a00 013B     		subs	r3, r3, #1
 2164 0a02 97F8272F 		ldrb	r2, [r7, #3879]	@ zero_extendqisi2
 2165 0a06 07F55571 		add	r1, r7, #852
 2166 0a0a 0A44     		add	r2, r2, r1
 2167 0a0c 1178     		ldrb	r1, [r2]	@ zero_extendqisi2
 2168 0a0e 07F56372 		add	r2, r7, #908
 2169 0a12 D154     		strb	r1, [r2, r3]
 515:..\src/command_processing.c ****                         for(i = 0; i < sod; i++) {
 2170              		.loc 1 515 0 discriminator 3
 2171 0a14 97F8273F 		ldrb	r3, [r7, #3879]	@ zero_extendqisi2
 2172 0a18 0133     		adds	r3, r3, #1
 2173 0a1a 87F8273F 		strb	r3, [r7, #3879]
 2174              	.L115:
 515:..\src/command_processing.c ****                         for(i = 0; i < sod; i++) {
 2175              		.loc 1 515 0 is_stmt 0 discriminator 1
 2176 0a1e 97F8272F 		ldrb	r2, [r7, #3879]	@ zero_extendqisi2
 2177 0a22 97F8233F 		ldrb	r3, [r7, #3875]	@ zero_extendqisi2
 2178 0a26 9A42     		cmp	r2, r3
 2179 0a28 DBD3     		bcc	.L116
 517:..\src/command_processing.c ****                         }
 518:..\src/command_processing.c ****                         aux_float = (float) c_mem.k_d / 65536;
 2180              		.loc 1 518 0 is_stmt 1
 2181 0a2a 9B4B     		ldr	r3, .L235
 2182 0a2c D3F8AC30 		ldr	r3, [r3, #172]
 2183 0a30 1846     		mov	r0, r3
 2184 0a32 FFF7FEFF 		bl	__aeabi_i2f
 2185 0a36 0346     		mov	r3, r0
 2186 0a38 4FF08F41 		mov	r1, #1199570944
 2187 0a3c 1846     		mov	r0, r3
 2188 0a3e FFF7FEFF 		bl	__aeabi_fdiv
ARM GAS  C:\Users\MattiaCP\AppData\Local\Temp\ccH4xQQo.s 			page 68


 2189 0a42 0346     		mov	r3, r0
 2190 0a44 1A46     		mov	r2, r3
 2191 0a46 07F55573 		add	r3, r7, #852
 2192 0a4a 1A60     		str	r2, [r3]	@ float
 519:..\src/command_processing.c ****                         for(i = 0; i < sod; i++) {
 2193              		.loc 1 519 0
 2194 0a4c 0023     		movs	r3, #0
 2195 0a4e 87F8273F 		strb	r3, [r7, #3879]
 2196 0a52 1EE0     		b	.L117
 2197              	.L118:
 520:..\src/command_processing.c ****                             packet_data[(4 + PARAM_BYTE_SLOT*idx + 2*sod) + sod - i -1] = ((char*)(
 2198              		.loc 1 520 0 discriminator 3
 2199 0a54 97F8253F 		ldrb	r3, [r7, #3877]	@ zero_extendqisi2
 2200 0a58 3222     		movs	r2, #50
 2201 0a5a 02FB03F3 		mul	r3, r2, r3
 2202 0a5e 1A1D     		adds	r2, r3, #4
 2203 0a60 97F8233F 		ldrb	r3, [r7, #3875]	@ zero_extendqisi2
 2204 0a64 5B00     		lsls	r3, r3, #1
 2205 0a66 1A44     		add	r2, r2, r3
 2206 0a68 97F8233F 		ldrb	r3, [r7, #3875]	@ zero_extendqisi2
 2207 0a6c 1A44     		add	r2, r2, r3
 2208 0a6e 97F8273F 		ldrb	r3, [r7, #3879]	@ zero_extendqisi2
 2209 0a72 D31A     		subs	r3, r2, r3
 2210 0a74 013B     		subs	r3, r3, #1
 2211 0a76 97F8272F 		ldrb	r2, [r7, #3879]	@ zero_extendqisi2
 2212 0a7a 07F55571 		add	r1, r7, #852
 2213 0a7e 0A44     		add	r2, r2, r1
 2214 0a80 1178     		ldrb	r1, [r2]	@ zero_extendqisi2
 2215 0a82 07F56372 		add	r2, r7, #908
 2216 0a86 D154     		strb	r1, [r2, r3]
 519:..\src/command_processing.c ****                         for(i = 0; i < sod; i++) {
 2217              		.loc 1 519 0 discriminator 3
 2218 0a88 97F8273F 		ldrb	r3, [r7, #3879]	@ zero_extendqisi2
 2219 0a8c 0133     		adds	r3, r3, #1
 2220 0a8e 87F8273F 		strb	r3, [r7, #3879]
 2221              	.L117:
 519:..\src/command_processing.c ****                         for(i = 0; i < sod; i++) {
 2222              		.loc 1 519 0 is_stmt 0 discriminator 1
 2223 0a92 97F8272F 		ldrb	r2, [r7, #3879]	@ zero_extendqisi2
 2224 0a96 97F8233F 		ldrb	r3, [r7, #3875]	@ zero_extendqisi2
 2225 0a9a 9A42     		cmp	r2, r3
 2226 0a9c DAD3     		bcc	.L118
 521:..\src/command_processing.c ****                         }
 522:..\src/command_processing.c ****                         //*((float *) (packet_data + (4 + PARAM_BYTE_SLOT*idx))) = aux_float;
 523:..\src/command_processing.c ****                         //*((float *) (packet_data + (4 + PARAM_BYTE_SLOT*idx) + sod)) = (float) c_
 524:..\src/command_processing.c ****                         //*((float *) (packet_data + (4 + PARAM_BYTE_SLOT*idx) + 2*sod)) = (float) 
 525:..\src/command_processing.c ****                     
 526:..\src/command_processing.c ****                     }
 527:..\src/command_processing.c ****                     else {
 528:..\src/command_processing.c ****                         aux_float = (float) c_mem.k_p_dl / 65536;
 529:..\src/command_processing.c ****                         for(i = 0; i < sod; i++) {
 530:..\src/command_processing.c ****                             packet_data[(4 + PARAM_BYTE_SLOT*idx) + sod - i -1] = ((char*)(&aux_flo
 531:..\src/command_processing.c ****                         }
 532:..\src/command_processing.c ****                         aux_float = (float) c_mem.k_i_dl / 65536;
 533:..\src/command_processing.c ****                         for(i = 0; i < sod; i++) {
 534:..\src/command_processing.c ****                             packet_data[(4 + PARAM_BYTE_SLOT*idx + sod) + sod - i -1] = ((char*)(&a
 535:..\src/command_processing.c ****                         }
ARM GAS  C:\Users\MattiaCP\AppData\Local\Temp\ccH4xQQo.s 			page 69


 536:..\src/command_processing.c ****                         aux_float = (float) c_mem.k_d_dl / 65536;
 537:..\src/command_processing.c ****                         for(i = 0; i < sod; i++) {
 538:..\src/command_processing.c ****                             packet_data[(4 + PARAM_BYTE_SLOT*idx + 2*sod) + sod - i -1] = ((char*)(
 539:..\src/command_processing.c ****                         }
 540:..\src/command_processing.c ****                         //*((float *) (packet_data + (4 + PARAM_BYTE_SLOT*idx))) = (float) c_mem.k_
 541:..\src/command_processing.c ****                         //*((float *) (packet_data + (4 + PARAM_BYTE_SLOT*idx) + sod)) = (float) c_
 542:..\src/command_processing.c ****                         //*((float *) (packet_data + (4 + PARAM_BYTE_SLOT*idx) + 2*sod)) = (float) 
 543:..\src/command_processing.c ****                     }
 544:..\src/command_processing.c ****                     
 545:..\src/command_processing.c ****                     break;
 2227              		.loc 1 545 0 is_stmt 1
 2228 0a9e 57E2     		b	.L126
 2229              	.L112:
 528:..\src/command_processing.c ****                         for(i = 0; i < sod; i++) {
 2230              		.loc 1 528 0
 2231 0aa0 7D4B     		ldr	r3, .L235
 2232 0aa2 D3F8BC30 		ldr	r3, [r3, #188]
 2233 0aa6 1846     		mov	r0, r3
 2234 0aa8 FFF7FEFF 		bl	__aeabi_i2f
 2235 0aac 0346     		mov	r3, r0
 2236 0aae 4FF08F41 		mov	r1, #1199570944
 2237 0ab2 1846     		mov	r0, r3
 2238 0ab4 FFF7FEFF 		bl	__aeabi_fdiv
 2239 0ab8 0346     		mov	r3, r0
 2240 0aba 1A46     		mov	r2, r3
 2241 0abc 07F55573 		add	r3, r7, #852
 2242 0ac0 1A60     		str	r2, [r3]	@ float
 529:..\src/command_processing.c ****                             packet_data[(4 + PARAM_BYTE_SLOT*idx) + sod - i -1] = ((char*)(&aux_flo
 2243              		.loc 1 529 0
 2244 0ac2 0023     		movs	r3, #0
 2245 0ac4 87F8273F 		strb	r3, [r7, #3879]
 2246 0ac8 1AE0     		b	.L120
 2247              	.L121:
 530:..\src/command_processing.c ****                         }
 2248              		.loc 1 530 0 discriminator 3
 2249 0aca 97F8253F 		ldrb	r3, [r7, #3877]	@ zero_extendqisi2
 2250 0ace 3222     		movs	r2, #50
 2251 0ad0 02FB03F3 		mul	r3, r2, r3
 2252 0ad4 1A1D     		adds	r2, r3, #4
 2253 0ad6 97F8233F 		ldrb	r3, [r7, #3875]	@ zero_extendqisi2
 2254 0ada 1A44     		add	r2, r2, r3
 2255 0adc 97F8273F 		ldrb	r3, [r7, #3879]	@ zero_extendqisi2
 2256 0ae0 D31A     		subs	r3, r2, r3
 2257 0ae2 013B     		subs	r3, r3, #1
 2258 0ae4 97F8272F 		ldrb	r2, [r7, #3879]	@ zero_extendqisi2
 2259 0ae8 07F55571 		add	r1, r7, #852
 2260 0aec 0A44     		add	r2, r2, r1
 2261 0aee 1178     		ldrb	r1, [r2]	@ zero_extendqisi2
 2262 0af0 07F56372 		add	r2, r7, #908
 2263 0af4 D154     		strb	r1, [r2, r3]
 529:..\src/command_processing.c ****                             packet_data[(4 + PARAM_BYTE_SLOT*idx) + sod - i -1] = ((char*)(&aux_flo
 2264              		.loc 1 529 0 discriminator 3
 2265 0af6 97F8273F 		ldrb	r3, [r7, #3879]	@ zero_extendqisi2
 2266 0afa 0133     		adds	r3, r3, #1
 2267 0afc 87F8273F 		strb	r3, [r7, #3879]
 2268              	.L120:
 529:..\src/command_processing.c ****                             packet_data[(4 + PARAM_BYTE_SLOT*idx) + sod - i -1] = ((char*)(&aux_flo
ARM GAS  C:\Users\MattiaCP\AppData\Local\Temp\ccH4xQQo.s 			page 70


 2269              		.loc 1 529 0 is_stmt 0 discriminator 1
 2270 0b00 97F8272F 		ldrb	r2, [r7, #3879]	@ zero_extendqisi2
 2271 0b04 97F8233F 		ldrb	r3, [r7, #3875]	@ zero_extendqisi2
 2272 0b08 9A42     		cmp	r2, r3
 2273 0b0a DED3     		bcc	.L121
 532:..\src/command_processing.c ****                         for(i = 0; i < sod; i++) {
 2274              		.loc 1 532 0 is_stmt 1
 2275 0b0c 624B     		ldr	r3, .L235
 2276 0b0e D3F8C030 		ldr	r3, [r3, #192]
 2277 0b12 1846     		mov	r0, r3
 2278 0b14 FFF7FEFF 		bl	__aeabi_i2f
 2279 0b18 0346     		mov	r3, r0
 2280 0b1a 4FF08F41 		mov	r1, #1199570944
 2281 0b1e 1846     		mov	r0, r3
 2282 0b20 FFF7FEFF 		bl	__aeabi_fdiv
 2283 0b24 0346     		mov	r3, r0
 2284 0b26 1A46     		mov	r2, r3
 2285 0b28 07F55573 		add	r3, r7, #852
 2286 0b2c 1A60     		str	r2, [r3]	@ float
 533:..\src/command_processing.c ****                             packet_data[(4 + PARAM_BYTE_SLOT*idx + sod) + sod - i -1] = ((char*)(&a
 2287              		.loc 1 533 0
 2288 0b2e 0023     		movs	r3, #0
 2289 0b30 87F8273F 		strb	r3, [r7, #3879]
 2290 0b34 1DE0     		b	.L122
 2291              	.L123:
 534:..\src/command_processing.c ****                         }
 2292              		.loc 1 534 0 discriminator 3
 2293 0b36 97F8253F 		ldrb	r3, [r7, #3877]	@ zero_extendqisi2
 2294 0b3a 3222     		movs	r2, #50
 2295 0b3c 02FB03F3 		mul	r3, r2, r3
 2296 0b40 1A1D     		adds	r2, r3, #4
 2297 0b42 97F8233F 		ldrb	r3, [r7, #3875]	@ zero_extendqisi2
 2298 0b46 1A44     		add	r2, r2, r3
 2299 0b48 97F8233F 		ldrb	r3, [r7, #3875]	@ zero_extendqisi2
 2300 0b4c 1A44     		add	r2, r2, r3
 2301 0b4e 97F8273F 		ldrb	r3, [r7, #3879]	@ zero_extendqisi2
 2302 0b52 D31A     		subs	r3, r2, r3
 2303 0b54 013B     		subs	r3, r3, #1
 2304 0b56 97F8272F 		ldrb	r2, [r7, #3879]	@ zero_extendqisi2
 2305 0b5a 07F55571 		add	r1, r7, #852
 2306 0b5e 0A44     		add	r2, r2, r1
 2307 0b60 1178     		ldrb	r1, [r2]	@ zero_extendqisi2
 2308 0b62 07F56372 		add	r2, r7, #908
 2309 0b66 D154     		strb	r1, [r2, r3]
 533:..\src/command_processing.c ****                             packet_data[(4 + PARAM_BYTE_SLOT*idx + sod) + sod - i -1] = ((char*)(&a
 2310              		.loc 1 533 0 discriminator 3
 2311 0b68 97F8273F 		ldrb	r3, [r7, #3879]	@ zero_extendqisi2
 2312 0b6c 0133     		adds	r3, r3, #1
 2313 0b6e 87F8273F 		strb	r3, [r7, #3879]
 2314              	.L122:
 533:..\src/command_processing.c ****                             packet_data[(4 + PARAM_BYTE_SLOT*idx + sod) + sod - i -1] = ((char*)(&a
 2315              		.loc 1 533 0 is_stmt 0 discriminator 1
 2316 0b72 97F8272F 		ldrb	r2, [r7, #3879]	@ zero_extendqisi2
 2317 0b76 97F8233F 		ldrb	r3, [r7, #3875]	@ zero_extendqisi2
 2318 0b7a 9A42     		cmp	r2, r3
 2319 0b7c DBD3     		bcc	.L123
 536:..\src/command_processing.c ****                         for(i = 0; i < sod; i++) {
ARM GAS  C:\Users\MattiaCP\AppData\Local\Temp\ccH4xQQo.s 			page 71


 2320              		.loc 1 536 0 is_stmt 1
 2321 0b7e 464B     		ldr	r3, .L235
 2322 0b80 D3F8C430 		ldr	r3, [r3, #196]
 2323 0b84 1846     		mov	r0, r3
 2324 0b86 FFF7FEFF 		bl	__aeabi_i2f
 2325 0b8a 0346     		mov	r3, r0
 2326 0b8c 4FF08F41 		mov	r1, #1199570944
 2327 0b90 1846     		mov	r0, r3
 2328 0b92 FFF7FEFF 		bl	__aeabi_fdiv
 2329 0b96 0346     		mov	r3, r0
 2330 0b98 1A46     		mov	r2, r3
 2331 0b9a 07F55573 		add	r3, r7, #852
 2332 0b9e 1A60     		str	r2, [r3]	@ float
 537:..\src/command_processing.c ****                             packet_data[(4 + PARAM_BYTE_SLOT*idx + 2*sod) + sod - i -1] = ((char*)(
 2333              		.loc 1 537 0
 2334 0ba0 0023     		movs	r3, #0
 2335 0ba2 87F8273F 		strb	r3, [r7, #3879]
 2336 0ba6 1EE0     		b	.L124
 2337              	.L125:
 538:..\src/command_processing.c ****                         }
 2338              		.loc 1 538 0 discriminator 3
 2339 0ba8 97F8253F 		ldrb	r3, [r7, #3877]	@ zero_extendqisi2
 2340 0bac 3222     		movs	r2, #50
 2341 0bae 02FB03F3 		mul	r3, r2, r3
 2342 0bb2 1A1D     		adds	r2, r3, #4
 2343 0bb4 97F8233F 		ldrb	r3, [r7, #3875]	@ zero_extendqisi2
 2344 0bb8 5B00     		lsls	r3, r3, #1
 2345 0bba 1A44     		add	r2, r2, r3
 2346 0bbc 97F8233F 		ldrb	r3, [r7, #3875]	@ zero_extendqisi2
 2347 0bc0 1A44     		add	r2, r2, r3
 2348 0bc2 97F8273F 		ldrb	r3, [r7, #3879]	@ zero_extendqisi2
 2349 0bc6 D31A     		subs	r3, r2, r3
 2350 0bc8 013B     		subs	r3, r3, #1
 2351 0bca 97F8272F 		ldrb	r2, [r7, #3879]	@ zero_extendqisi2
 2352 0bce 07F55571 		add	r1, r7, #852
 2353 0bd2 0A44     		add	r2, r2, r1
 2354 0bd4 1178     		ldrb	r1, [r2]	@ zero_extendqisi2
 2355 0bd6 07F56372 		add	r2, r7, #908
 2356 0bda D154     		strb	r1, [r2, r3]
 537:..\src/command_processing.c ****                             packet_data[(4 + PARAM_BYTE_SLOT*idx + 2*sod) + sod - i -1] = ((char*)(
 2357              		.loc 1 537 0 discriminator 3
 2358 0bdc 97F8273F 		ldrb	r3, [r7, #3879]	@ zero_extendqisi2
 2359 0be0 0133     		adds	r3, r3, #1
 2360 0be2 87F8273F 		strb	r3, [r7, #3879]
 2361              	.L124:
 537:..\src/command_processing.c ****                             packet_data[(4 + PARAM_BYTE_SLOT*idx + 2*sod) + sod - i -1] = ((char*)(
 2362              		.loc 1 537 0 is_stmt 0 discriminator 1
 2363 0be6 97F8272F 		ldrb	r2, [r7, #3879]	@ zero_extendqisi2
 2364 0bea 97F8233F 		ldrb	r3, [r7, #3875]	@ zero_extendqisi2
 2365 0bee 9A42     		cmp	r2, r3
 2366 0bf0 DAD3     		bcc	.L125
 2367              		.loc 1 545 0 is_stmt 1
 2368 0bf2 ADE1     		b	.L126
 2369              	.L111:
 546:..\src/command_processing.c ****                 case 2:     // POSITION PID (param 3)
 547:..\src/command_processing.c ****                     if(c_mem.control_mode != CURR_AND_POS_CONTROL) {
 2370              		.loc 1 547 0
ARM GAS  C:\Users\MattiaCP\AppData\Local\Temp\ccH4xQQo.s 			page 72


 2371 0bf4 284B     		ldr	r3, .L235
 2372 0bf6 93F8D630 		ldrb	r3, [r3, #214]	@ zero_extendqisi2
 2373 0bfa 032B     		cmp	r3, #3
 2374 0bfc 00F0AD80 		beq	.L127
 548:..\src/command_processing.c ****                         aux_float = (float) c_mem.k_p_c / 65536;
 2375              		.loc 1 548 0
 2376 0c00 254B     		ldr	r3, .L235
 2377 0c02 D3F8B030 		ldr	r3, [r3, #176]
 2378 0c06 1846     		mov	r0, r3
 2379 0c08 FFF7FEFF 		bl	__aeabi_i2f
 2380 0c0c 0346     		mov	r3, r0
 2381 0c0e 4FF08F41 		mov	r1, #1199570944
 2382 0c12 1846     		mov	r0, r3
 2383 0c14 FFF7FEFF 		bl	__aeabi_fdiv
 2384 0c18 0346     		mov	r3, r0
 2385 0c1a 1A46     		mov	r2, r3
 2386 0c1c 07F55573 		add	r3, r7, #852
 2387 0c20 1A60     		str	r2, [r3]	@ float
 549:..\src/command_processing.c ****                         for(i = 0; i < sod; i++) {
 2388              		.loc 1 549 0
 2389 0c22 0023     		movs	r3, #0
 2390 0c24 87F8273F 		strb	r3, [r7, #3879]
 2391 0c28 1AE0     		b	.L128
 2392              	.L129:
 550:..\src/command_processing.c ****                             packet_data[(4 + PARAM_BYTE_SLOT*idx) + sod - i -1] = ((char*)(&aux_flo
 2393              		.loc 1 550 0 discriminator 3
 2394 0c2a 97F8253F 		ldrb	r3, [r7, #3877]	@ zero_extendqisi2
 2395 0c2e 3222     		movs	r2, #50
 2396 0c30 02FB03F3 		mul	r3, r2, r3
 2397 0c34 1A1D     		adds	r2, r3, #4
 2398 0c36 97F8233F 		ldrb	r3, [r7, #3875]	@ zero_extendqisi2
 2399 0c3a 1A44     		add	r2, r2, r3
 2400 0c3c 97F8273F 		ldrb	r3, [r7, #3879]	@ zero_extendqisi2
 2401 0c40 D31A     		subs	r3, r2, r3
 2402 0c42 013B     		subs	r3, r3, #1
 2403 0c44 97F8272F 		ldrb	r2, [r7, #3879]	@ zero_extendqisi2
 2404 0c48 07F55571 		add	r1, r7, #852
 2405 0c4c 0A44     		add	r2, r2, r1
 2406 0c4e 1178     		ldrb	r1, [r2]	@ zero_extendqisi2
 2407 0c50 07F56372 		add	r2, r7, #908
 2408 0c54 D154     		strb	r1, [r2, r3]
 549:..\src/command_processing.c ****                         for(i = 0; i < sod; i++) {
 2409              		.loc 1 549 0 discriminator 3
 2410 0c56 97F8273F 		ldrb	r3, [r7, #3879]	@ zero_extendqisi2
 2411 0c5a 0133     		adds	r3, r3, #1
 2412 0c5c 87F8273F 		strb	r3, [r7, #3879]
 2413              	.L128:
 549:..\src/command_processing.c ****                         for(i = 0; i < sod; i++) {
 2414              		.loc 1 549 0 is_stmt 0 discriminator 1
 2415 0c60 97F8272F 		ldrb	r2, [r7, #3879]	@ zero_extendqisi2
 2416 0c64 97F8233F 		ldrb	r3, [r7, #3875]	@ zero_extendqisi2
 2417 0c68 9A42     		cmp	r2, r3
 2418 0c6a DED3     		bcc	.L129
 551:..\src/command_processing.c ****                         }
 552:..\src/command_processing.c ****                         aux_float = (float) c_mem.k_i_c / 65536;
 2419              		.loc 1 552 0 is_stmt 1
 2420 0c6c 0A4B     		ldr	r3, .L235
ARM GAS  C:\Users\MattiaCP\AppData\Local\Temp\ccH4xQQo.s 			page 73


 2421 0c6e D3F8B430 		ldr	r3, [r3, #180]
 2422 0c72 1846     		mov	r0, r3
 2423 0c74 FFF7FEFF 		bl	__aeabi_i2f
 2424 0c78 0346     		mov	r3, r0
 2425 0c7a 4FF08F41 		mov	r1, #1199570944
 2426 0c7e 1846     		mov	r0, r3
 2427 0c80 FFF7FEFF 		bl	__aeabi_fdiv
 2428 0c84 0346     		mov	r3, r0
 2429 0c86 1A46     		mov	r2, r3
 2430 0c88 07F55573 		add	r3, r7, #852
 2431 0c8c 1A60     		str	r2, [r3]	@ float
 553:..\src/command_processing.c ****                         for(i = 0; i < sod; i++) {
 2432              		.loc 1 553 0
 2433 0c8e 0023     		movs	r3, #0
 2434 0c90 87F8273F 		strb	r3, [r7, #3879]
 2435 0c94 20E0     		b	.L130
 2436              	.L236:
 2437 0c96 00BF     		.align	2
 2438              	.L235:
 2439 0c98 00000000 		.word	c_mem
 2440              	.L131:
 554:..\src/command_processing.c ****                             packet_data[(4 + PARAM_BYTE_SLOT*idx + sod) + sod - i -1] = ((char*)(&a
 2441              		.loc 1 554 0 discriminator 3
 2442 0c9c 97F8253F 		ldrb	r3, [r7, #3877]	@ zero_extendqisi2
 2443 0ca0 3222     		movs	r2, #50
 2444 0ca2 02FB03F3 		mul	r3, r2, r3
 2445 0ca6 1A1D     		adds	r2, r3, #4
 2446 0ca8 97F8233F 		ldrb	r3, [r7, #3875]	@ zero_extendqisi2
 2447 0cac 1A44     		add	r2, r2, r3
 2448 0cae 97F8233F 		ldrb	r3, [r7, #3875]	@ zero_extendqisi2
 2449 0cb2 1A44     		add	r2, r2, r3
 2450 0cb4 97F8273F 		ldrb	r3, [r7, #3879]	@ zero_extendqisi2
 2451 0cb8 D31A     		subs	r3, r2, r3
 2452 0cba 013B     		subs	r3, r3, #1
 2453 0cbc 97F8272F 		ldrb	r2, [r7, #3879]	@ zero_extendqisi2
 2454 0cc0 07F55571 		add	r1, r7, #852
 2455 0cc4 0A44     		add	r2, r2, r1
 2456 0cc6 1178     		ldrb	r1, [r2]	@ zero_extendqisi2
 2457 0cc8 07F56372 		add	r2, r7, #908
 2458 0ccc D154     		strb	r1, [r2, r3]
 553:..\src/command_processing.c ****                         for(i = 0; i < sod; i++) {
 2459              		.loc 1 553 0 discriminator 3
 2460 0cce 97F8273F 		ldrb	r3, [r7, #3879]	@ zero_extendqisi2
 2461 0cd2 0133     		adds	r3, r3, #1
 2462 0cd4 87F8273F 		strb	r3, [r7, #3879]
 2463              	.L130:
 553:..\src/command_processing.c ****                         for(i = 0; i < sod; i++) {
 2464              		.loc 1 553 0 is_stmt 0 discriminator 1
 2465 0cd8 97F8272F 		ldrb	r2, [r7, #3879]	@ zero_extendqisi2
 2466 0cdc 97F8233F 		ldrb	r3, [r7, #3875]	@ zero_extendqisi2
 2467 0ce0 9A42     		cmp	r2, r3
 2468 0ce2 DBD3     		bcc	.L131
 555:..\src/command_processing.c ****                         }
 556:..\src/command_processing.c ****                         aux_float = (float) c_mem.k_d_c / 65536;
 2469              		.loc 1 556 0 is_stmt 1
 2470 0ce4 DD4B     		ldr	r3, .L237
 2471 0ce6 D3F8B830 		ldr	r3, [r3, #184]
ARM GAS  C:\Users\MattiaCP\AppData\Local\Temp\ccH4xQQo.s 			page 74


 2472 0cea 1846     		mov	r0, r3
 2473 0cec FFF7FEFF 		bl	__aeabi_i2f
 2474 0cf0 0346     		mov	r3, r0
 2475 0cf2 4FF08F41 		mov	r1, #1199570944
 2476 0cf6 1846     		mov	r0, r3
 2477 0cf8 FFF7FEFF 		bl	__aeabi_fdiv
 2478 0cfc 0346     		mov	r3, r0
 2479 0cfe 1A46     		mov	r2, r3
 2480 0d00 07F55573 		add	r3, r7, #852
 2481 0d04 1A60     		str	r2, [r3]	@ float
 557:..\src/command_processing.c ****                         for(i = 0; i < sod; i++) {
 2482              		.loc 1 557 0
 2483 0d06 0023     		movs	r3, #0
 2484 0d08 87F8273F 		strb	r3, [r7, #3879]
 2485 0d0c 1EE0     		b	.L132
 2486              	.L133:
 558:..\src/command_processing.c ****                             packet_data[(4 + PARAM_BYTE_SLOT*idx + 2*sod) + sod - i -1] = ((char*)(
 2487              		.loc 1 558 0 discriminator 3
 2488 0d0e 97F8253F 		ldrb	r3, [r7, #3877]	@ zero_extendqisi2
 2489 0d12 3222     		movs	r2, #50
 2490 0d14 02FB03F3 		mul	r3, r2, r3
 2491 0d18 1A1D     		adds	r2, r3, #4
 2492 0d1a 97F8233F 		ldrb	r3, [r7, #3875]	@ zero_extendqisi2
 2493 0d1e 5B00     		lsls	r3, r3, #1
 2494 0d20 1A44     		add	r2, r2, r3
 2495 0d22 97F8233F 		ldrb	r3, [r7, #3875]	@ zero_extendqisi2
 2496 0d26 1A44     		add	r2, r2, r3
 2497 0d28 97F8273F 		ldrb	r3, [r7, #3879]	@ zero_extendqisi2
 2498 0d2c D31A     		subs	r3, r2, r3
 2499 0d2e 013B     		subs	r3, r3, #1
 2500 0d30 97F8272F 		ldrb	r2, [r7, #3879]	@ zero_extendqisi2
 2501 0d34 07F55571 		add	r1, r7, #852
 2502 0d38 0A44     		add	r2, r2, r1
 2503 0d3a 1178     		ldrb	r1, [r2]	@ zero_extendqisi2
 2504 0d3c 07F56372 		add	r2, r7, #908
 2505 0d40 D154     		strb	r1, [r2, r3]
 557:..\src/command_processing.c ****                         for(i = 0; i < sod; i++) {
 2506              		.loc 1 557 0 discriminator 3
 2507 0d42 97F8273F 		ldrb	r3, [r7, #3879]	@ zero_extendqisi2
 2508 0d46 0133     		adds	r3, r3, #1
 2509 0d48 87F8273F 		strb	r3, [r7, #3879]
 2510              	.L132:
 557:..\src/command_processing.c ****                         for(i = 0; i < sod; i++) {
 2511              		.loc 1 557 0 is_stmt 0 discriminator 1
 2512 0d4c 97F8272F 		ldrb	r2, [r7, #3879]	@ zero_extendqisi2
 2513 0d50 97F8233F 		ldrb	r3, [r7, #3875]	@ zero_extendqisi2
 2514 0d54 9A42     		cmp	r2, r3
 2515 0d56 DAD3     		bcc	.L133
 559:..\src/command_processing.c ****                         }
 560:..\src/command_processing.c ****                         //*((float *) (packet_data + (4 + PARAM_BYTE_SLOT*idx))) = (float) c_mem.k_
 561:..\src/command_processing.c ****                         //*((float *) (packet_data + (4 + PARAM_BYTE_SLOT*idx) + sod)) = (float) c_
 562:..\src/command_processing.c ****                         //*((float *) (packet_data + (4 + PARAM_BYTE_SLOT*idx) + 2*sod)) = (float) 
 563:..\src/command_processing.c ****                     }
 564:..\src/command_processing.c ****                     else {
 565:..\src/command_processing.c ****                         aux_float = (float) c_mem.k_p_c_dl / 65536;
 566:..\src/command_processing.c ****                         for(i = 0; i < sod; i++) {
 567:..\src/command_processing.c ****                             packet_data[(4 + PARAM_BYTE_SLOT*idx) + sod - i -1] = ((char*)(&aux_flo
ARM GAS  C:\Users\MattiaCP\AppData\Local\Temp\ccH4xQQo.s 			page 75


 568:..\src/command_processing.c ****                         }
 569:..\src/command_processing.c ****                         aux_float = (float) c_mem.k_i_c_dl / 65536;
 570:..\src/command_processing.c ****                         for(i = 0; i < sod; i++) {
 571:..\src/command_processing.c ****                             packet_data[(4 + PARAM_BYTE_SLOT*idx + sod) + sod - i -1] = ((char*)(&a
 572:..\src/command_processing.c ****                         }
 573:..\src/command_processing.c ****                         aux_float = (float) c_mem.k_d_c_dl / 65536;
 574:..\src/command_processing.c ****                         for(i = 0; i < sod; i++) {
 575:..\src/command_processing.c ****                             packet_data[(4 + PARAM_BYTE_SLOT*idx + 2*sod) + sod - i -1] = ((char*)(
 576:..\src/command_processing.c ****                         }
 577:..\src/command_processing.c ****                         //*((float *) (packet_data + (4 + PARAM_BYTE_SLOT*idx))) = (float) c_mem.k_
 578:..\src/command_processing.c ****                         //*((float *) (packet_data + (4 + PARAM_BYTE_SLOT*idx) + sod)) = (float) c_
 579:..\src/command_processing.c ****                         //*((float *) (packet_data + (4 + PARAM_BYTE_SLOT*idx) + 2*sod)) = (float) 
 580:..\src/command_processing.c ****                     }
 581:..\src/command_processing.c ****                     break;
 2516              		.loc 1 581 0 is_stmt 1
 2517 0d58 FAE0     		b	.L126
 2518              	.L127:
 565:..\src/command_processing.c ****                         for(i = 0; i < sod; i++) {
 2519              		.loc 1 565 0
 2520 0d5a C04B     		ldr	r3, .L237
 2521 0d5c D3F8C830 		ldr	r3, [r3, #200]
 2522 0d60 1846     		mov	r0, r3
 2523 0d62 FFF7FEFF 		bl	__aeabi_i2f
 2524 0d66 0346     		mov	r3, r0
 2525 0d68 4FF08F41 		mov	r1, #1199570944
 2526 0d6c 1846     		mov	r0, r3
 2527 0d6e FFF7FEFF 		bl	__aeabi_fdiv
 2528 0d72 0346     		mov	r3, r0
 2529 0d74 1A46     		mov	r2, r3
 2530 0d76 07F55573 		add	r3, r7, #852
 2531 0d7a 1A60     		str	r2, [r3]	@ float
 566:..\src/command_processing.c ****                             packet_data[(4 + PARAM_BYTE_SLOT*idx) + sod - i -1] = ((char*)(&aux_flo
 2532              		.loc 1 566 0
 2533 0d7c 0023     		movs	r3, #0
 2534 0d7e 87F8273F 		strb	r3, [r7, #3879]
 2535 0d82 1AE0     		b	.L135
 2536              	.L136:
 567:..\src/command_processing.c ****                         }
 2537              		.loc 1 567 0 discriminator 3
 2538 0d84 97F8253F 		ldrb	r3, [r7, #3877]	@ zero_extendqisi2
 2539 0d88 3222     		movs	r2, #50
 2540 0d8a 02FB03F3 		mul	r3, r2, r3
 2541 0d8e 1A1D     		adds	r2, r3, #4
 2542 0d90 97F8233F 		ldrb	r3, [r7, #3875]	@ zero_extendqisi2
 2543 0d94 1A44     		add	r2, r2, r3
 2544 0d96 97F8273F 		ldrb	r3, [r7, #3879]	@ zero_extendqisi2
 2545 0d9a D31A     		subs	r3, r2, r3
 2546 0d9c 013B     		subs	r3, r3, #1
 2547 0d9e 97F8272F 		ldrb	r2, [r7, #3879]	@ zero_extendqisi2
 2548 0da2 07F55571 		add	r1, r7, #852
 2549 0da6 0A44     		add	r2, r2, r1
 2550 0da8 1178     		ldrb	r1, [r2]	@ zero_extendqisi2
 2551 0daa 07F56372 		add	r2, r7, #908
 2552 0dae D154     		strb	r1, [r2, r3]
 566:..\src/command_processing.c ****                             packet_data[(4 + PARAM_BYTE_SLOT*idx) + sod - i -1] = ((char*)(&aux_flo
 2553              		.loc 1 566 0 discriminator 3
 2554 0db0 97F8273F 		ldrb	r3, [r7, #3879]	@ zero_extendqisi2
ARM GAS  C:\Users\MattiaCP\AppData\Local\Temp\ccH4xQQo.s 			page 76


 2555 0db4 0133     		adds	r3, r3, #1
 2556 0db6 87F8273F 		strb	r3, [r7, #3879]
 2557              	.L135:
 566:..\src/command_processing.c ****                             packet_data[(4 + PARAM_BYTE_SLOT*idx) + sod - i -1] = ((char*)(&aux_flo
 2558              		.loc 1 566 0 is_stmt 0 discriminator 1
 2559 0dba 97F8272F 		ldrb	r2, [r7, #3879]	@ zero_extendqisi2
 2560 0dbe 97F8233F 		ldrb	r3, [r7, #3875]	@ zero_extendqisi2
 2561 0dc2 9A42     		cmp	r2, r3
 2562 0dc4 DED3     		bcc	.L136
 569:..\src/command_processing.c ****                         for(i = 0; i < sod; i++) {
 2563              		.loc 1 569 0 is_stmt 1
 2564 0dc6 A54B     		ldr	r3, .L237
 2565 0dc8 D3F8CC30 		ldr	r3, [r3, #204]
 2566 0dcc 1846     		mov	r0, r3
 2567 0dce FFF7FEFF 		bl	__aeabi_i2f
 2568 0dd2 0346     		mov	r3, r0
 2569 0dd4 4FF08F41 		mov	r1, #1199570944
 2570 0dd8 1846     		mov	r0, r3
 2571 0dda FFF7FEFF 		bl	__aeabi_fdiv
 2572 0dde 0346     		mov	r3, r0
 2573 0de0 1A46     		mov	r2, r3
 2574 0de2 07F55573 		add	r3, r7, #852
 2575 0de6 1A60     		str	r2, [r3]	@ float
 570:..\src/command_processing.c ****                             packet_data[(4 + PARAM_BYTE_SLOT*idx + sod) + sod - i -1] = ((char*)(&a
 2576              		.loc 1 570 0
 2577 0de8 0023     		movs	r3, #0
 2578 0dea 87F8273F 		strb	r3, [r7, #3879]
 2579 0dee 1DE0     		b	.L137
 2580              	.L138:
 571:..\src/command_processing.c ****                         }
 2581              		.loc 1 571 0 discriminator 3
 2582 0df0 97F8253F 		ldrb	r3, [r7, #3877]	@ zero_extendqisi2
 2583 0df4 3222     		movs	r2, #50
 2584 0df6 02FB03F3 		mul	r3, r2, r3
 2585 0dfa 1A1D     		adds	r2, r3, #4
 2586 0dfc 97F8233F 		ldrb	r3, [r7, #3875]	@ zero_extendqisi2
 2587 0e00 1A44     		add	r2, r2, r3
 2588 0e02 97F8233F 		ldrb	r3, [r7, #3875]	@ zero_extendqisi2
 2589 0e06 1A44     		add	r2, r2, r3
 2590 0e08 97F8273F 		ldrb	r3, [r7, #3879]	@ zero_extendqisi2
 2591 0e0c D31A     		subs	r3, r2, r3
 2592 0e0e 013B     		subs	r3, r3, #1
 2593 0e10 97F8272F 		ldrb	r2, [r7, #3879]	@ zero_extendqisi2
 2594 0e14 07F55571 		add	r1, r7, #852
 2595 0e18 0A44     		add	r2, r2, r1
 2596 0e1a 1178     		ldrb	r1, [r2]	@ zero_extendqisi2
 2597 0e1c 07F56372 		add	r2, r7, #908
 2598 0e20 D154     		strb	r1, [r2, r3]
 570:..\src/command_processing.c ****                             packet_data[(4 + PARAM_BYTE_SLOT*idx + sod) + sod - i -1] = ((char*)(&a
 2599              		.loc 1 570 0 discriminator 3
 2600 0e22 97F8273F 		ldrb	r3, [r7, #3879]	@ zero_extendqisi2
 2601 0e26 0133     		adds	r3, r3, #1
 2602 0e28 87F8273F 		strb	r3, [r7, #3879]
 2603              	.L137:
 570:..\src/command_processing.c ****                             packet_data[(4 + PARAM_BYTE_SLOT*idx + sod) + sod - i -1] = ((char*)(&a
 2604              		.loc 1 570 0 is_stmt 0 discriminator 1
 2605 0e2c 97F8272F 		ldrb	r2, [r7, #3879]	@ zero_extendqisi2
ARM GAS  C:\Users\MattiaCP\AppData\Local\Temp\ccH4xQQo.s 			page 77


 2606 0e30 97F8233F 		ldrb	r3, [r7, #3875]	@ zero_extendqisi2
 2607 0e34 9A42     		cmp	r2, r3
 2608 0e36 DBD3     		bcc	.L138
 573:..\src/command_processing.c ****                         for(i = 0; i < sod; i++) {
 2609              		.loc 1 573 0 is_stmt 1
 2610 0e38 884B     		ldr	r3, .L237
 2611 0e3a D3F8D030 		ldr	r3, [r3, #208]
 2612 0e3e 1846     		mov	r0, r3
 2613 0e40 FFF7FEFF 		bl	__aeabi_i2f
 2614 0e44 0346     		mov	r3, r0
 2615 0e46 4FF08F41 		mov	r1, #1199570944
 2616 0e4a 1846     		mov	r0, r3
 2617 0e4c FFF7FEFF 		bl	__aeabi_fdiv
 2618 0e50 0346     		mov	r3, r0
 2619 0e52 1A46     		mov	r2, r3
 2620 0e54 07F55573 		add	r3, r7, #852
 2621 0e58 1A60     		str	r2, [r3]	@ float
 574:..\src/command_processing.c ****                             packet_data[(4 + PARAM_BYTE_SLOT*idx + 2*sod) + sod - i -1] = ((char*)(
 2622              		.loc 1 574 0
 2623 0e5a 0023     		movs	r3, #0
 2624 0e5c 87F8273F 		strb	r3, [r7, #3879]
 2625 0e60 1EE0     		b	.L139
 2626              	.L140:
 575:..\src/command_processing.c ****                         }
 2627              		.loc 1 575 0 discriminator 3
 2628 0e62 97F8253F 		ldrb	r3, [r7, #3877]	@ zero_extendqisi2
 2629 0e66 3222     		movs	r2, #50
 2630 0e68 02FB03F3 		mul	r3, r2, r3
 2631 0e6c 1A1D     		adds	r2, r3, #4
 2632 0e6e 97F8233F 		ldrb	r3, [r7, #3875]	@ zero_extendqisi2
 2633 0e72 5B00     		lsls	r3, r3, #1
 2634 0e74 1A44     		add	r2, r2, r3
 2635 0e76 97F8233F 		ldrb	r3, [r7, #3875]	@ zero_extendqisi2
 2636 0e7a 1A44     		add	r2, r2, r3
 2637 0e7c 97F8273F 		ldrb	r3, [r7, #3879]	@ zero_extendqisi2
 2638 0e80 D31A     		subs	r3, r2, r3
 2639 0e82 013B     		subs	r3, r3, #1
 2640 0e84 97F8272F 		ldrb	r2, [r7, #3879]	@ zero_extendqisi2
 2641 0e88 07F55571 		add	r1, r7, #852
 2642 0e8c 0A44     		add	r2, r2, r1
 2643 0e8e 1178     		ldrb	r1, [r2]	@ zero_extendqisi2
 2644 0e90 07F56372 		add	r2, r7, #908
 2645 0e94 D154     		strb	r1, [r2, r3]
 574:..\src/command_processing.c ****                             packet_data[(4 + PARAM_BYTE_SLOT*idx + 2*sod) + sod - i -1] = ((char*)(
 2646              		.loc 1 574 0 discriminator 3
 2647 0e96 97F8273F 		ldrb	r3, [r7, #3879]	@ zero_extendqisi2
 2648 0e9a 0133     		adds	r3, r3, #1
 2649 0e9c 87F8273F 		strb	r3, [r7, #3879]
 2650              	.L139:
 574:..\src/command_processing.c ****                             packet_data[(4 + PARAM_BYTE_SLOT*idx + 2*sod) + sod - i -1] = ((char*)(
 2651              		.loc 1 574 0 is_stmt 0 discriminator 1
 2652 0ea0 97F8272F 		ldrb	r2, [r7, #3879]	@ zero_extendqisi2
 2653 0ea4 97F8233F 		ldrb	r3, [r7, #3875]	@ zero_extendqisi2
 2654 0ea8 9A42     		cmp	r2, r3
 2655 0eaa DAD3     		bcc	.L140
 2656              		.loc 1 581 0 is_stmt 1
 2657 0eac 50E0     		b	.L126
ARM GAS  C:\Users\MattiaCP\AppData\Local\Temp\ccH4xQQo.s 			page 78


 2658              	.L227:
 582:..\src/command_processing.c ****                 default:
 583:..\src/command_processing.c ****                     for (i=0; i<NUM_ITEMS[idx]; i++){
 2659              		.loc 1 583 0
 2660 0eae 0023     		movs	r3, #0
 2661 0eb0 87F8273F 		strb	r3, [r7, #3879]
 2662 0eb4 42E0     		b	.L141
 2663              	.L144:
 584:..\src/command_processing.c ****                         m_tmp = m_addr + i*sod;
 2664              		.loc 1 584 0
 2665 0eb6 97F8273F 		ldrb	r3, [r7, #3879]	@ zero_extendqisi2
 2666 0eba 97F8232F 		ldrb	r2, [r7, #3875]	@ zero_extendqisi2
 2667 0ebe 02FB03F3 		mul	r3, r2, r3
 2668 0ec2 1A46     		mov	r2, r3
 2669 0ec4 D7F81C3F 		ldr	r3, [r7, #3868]
 2670 0ec8 1344     		add	r3, r3, r2
 2671 0eca C7F8143F 		str	r3, [r7, #3860]
 585:..\src/command_processing.c ****                         aux_float = *((float*)m_tmp);
 2672              		.loc 1 585 0
 2673 0ece D7F8143F 		ldr	r3, [r7, #3860]
 2674 0ed2 1A68     		ldr	r2, [r3]	@ float
 2675 0ed4 07F55573 		add	r3, r7, #852
 2676 0ed8 1A60     		str	r2, [r3]	@ float
 586:..\src/command_processing.c ****                         for(j = 0; j < sod; j++) {
 2677              		.loc 1 586 0
 2678 0eda 0023     		movs	r3, #0
 2679 0edc 87F8263F 		strb	r3, [r7, #3878]
 2680 0ee0 21E0     		b	.L142
 2681              	.L143:
 587:..\src/command_processing.c ****                             packet_data[(4 + PARAM_BYTE_SLOT*idx + i*sod) + sod - j -1] = ((char*)(
 2682              		.loc 1 587 0 discriminator 3
 2683 0ee2 97F8253F 		ldrb	r3, [r7, #3877]	@ zero_extendqisi2
 2684 0ee6 3222     		movs	r2, #50
 2685 0ee8 02FB03F3 		mul	r3, r2, r3
 2686 0eec 1A1D     		adds	r2, r3, #4
 2687 0eee 97F8273F 		ldrb	r3, [r7, #3879]	@ zero_extendqisi2
 2688 0ef2 97F8231F 		ldrb	r1, [r7, #3875]	@ zero_extendqisi2
 2689 0ef6 01FB03F3 		mul	r3, r1, r3
 2690 0efa 1A44     		add	r2, r2, r3
 2691 0efc 97F8233F 		ldrb	r3, [r7, #3875]	@ zero_extendqisi2
 2692 0f00 1A44     		add	r2, r2, r3
 2693 0f02 97F8263F 		ldrb	r3, [r7, #3878]	@ zero_extendqisi2
 2694 0f06 D31A     		subs	r3, r2, r3
 2695 0f08 013B     		subs	r3, r3, #1
 2696 0f0a 97F8262F 		ldrb	r2, [r7, #3878]	@ zero_extendqisi2
 2697 0f0e 07F55571 		add	r1, r7, #852
 2698 0f12 0A44     		add	r2, r2, r1
 2699 0f14 1178     		ldrb	r1, [r2]	@ zero_extendqisi2
 2700 0f16 07F56372 		add	r2, r7, #908
 2701 0f1a D154     		strb	r1, [r2, r3]
 586:..\src/command_processing.c ****                         for(j = 0; j < sod; j++) {
 2702              		.loc 1 586 0 discriminator 3
 2703 0f1c 97F8263F 		ldrb	r3, [r7, #3878]	@ zero_extendqisi2
 2704 0f20 0133     		adds	r3, r3, #1
 2705 0f22 87F8263F 		strb	r3, [r7, #3878]
 2706              	.L142:
 586:..\src/command_processing.c ****                         for(j = 0; j < sod; j++) {
ARM GAS  C:\Users\MattiaCP\AppData\Local\Temp\ccH4xQQo.s 			page 79


 2707              		.loc 1 586 0 is_stmt 0 discriminator 1
 2708 0f26 97F8262F 		ldrb	r2, [r7, #3878]	@ zero_extendqisi2
 2709 0f2a 97F8233F 		ldrb	r3, [r7, #3875]	@ zero_extendqisi2
 2710 0f2e 9A42     		cmp	r2, r3
 2711 0f30 D7D3     		bcc	.L143
 583:..\src/command_processing.c ****                         m_tmp = m_addr + i*sod;
 2712              		.loc 1 583 0 is_stmt 1 discriminator 2
 2713 0f32 97F8273F 		ldrb	r3, [r7, #3879]	@ zero_extendqisi2
 2714 0f36 0133     		adds	r3, r3, #1
 2715 0f38 87F8273F 		strb	r3, [r7, #3879]
 2716              	.L141:
 583:..\src/command_processing.c ****                         m_tmp = m_addr + i*sod;
 2717              		.loc 1 583 0 is_stmt 0 discriminator 1
 2718 0f3c 97F8253F 		ldrb	r3, [r7, #3877]	@ zero_extendqisi2
 2719 0f40 07F53C72 		add	r2, r7, #752
 2720 0f44 D35C     		ldrb	r3, [r2, r3]	@ zero_extendqisi2
 2721 0f46 97F8272F 		ldrb	r2, [r7, #3879]	@ zero_extendqisi2
 2722 0f4a 9A42     		cmp	r2, r3
 2723 0f4c B3D3     		bcc	.L144
 588:..\src/command_processing.c ****                         }
 589:..\src/command_processing.c ****                         //*((float*)(packet_data + (4 + PARAM_BYTE_SLOT*idx) + i*sod)) = *((float*)
 590:..\src/command_processing.c ****                     }
 591:..\src/command_processing.c ****                     break;
 2724              		.loc 1 591 0 is_stmt 1
 2725 0f4e 00BF     		nop
 2726              	.L126:
 592:..\src/command_processing.c ****                 }
 593:..\src/command_processing.c ****                 break;          
 2727              		.loc 1 593 0 discriminator 4
 2728 0f50 00BF     		nop
 2729              	.L66:
 594:..\src/command_processing.c ****         }
 595:..\src/command_processing.c ****         
 596:..\src/command_processing.c ****         sprintf(aux_str, (char*)PARAMS_STR[idx]);
 2730              		.loc 1 596 0
 2731 0f52 97F8252F 		ldrb	r2, [r7, #3877]	@ zero_extendqisi2
 2732 0f56 07F50D73 		add	r3, r7, #564
 2733 0f5a 53F82220 		ldr	r2, [r3, r2, lsl #2]
 2734 0f5e 07F55673 		add	r3, r7, #856
 2735 0f62 1146     		mov	r1, r2
 2736 0f64 1846     		mov	r0, r3
 2737 0f66 FFF7FEFF 		bl	sprintf
 597:..\src/command_processing.c ****         string_lenght = strlen(aux_str);
 2738              		.loc 1 597 0
 2739 0f6a 07F55673 		add	r3, r7, #856
 2740 0f6e 1846     		mov	r0, r3
 2741 0f70 FFF7FEFF 		bl	strlen
 2742 0f74 0346     		mov	r3, r0
 2743 0f76 87F8223F 		strb	r3, [r7, #3874]
 598:..\src/command_processing.c ****         
 599:..\src/command_processing.c ****         // Parameters with a menu
 600:..\src/command_processing.c ****         if (TYPES[idx] == TYPE_FLAG){
 2744              		.loc 1 600 0
 2745 0f7a 97F8253F 		ldrb	r3, [r7, #3877]	@ zero_extendqisi2
 2746 0f7e 07F54772 		add	r2, r7, #796
 2747 0f82 D35C     		ldrb	r3, [r2, r3]	@ zero_extendqisi2
 2748 0f84 002B     		cmp	r3, #0
ARM GAS  C:\Users\MattiaCP\AppData\Local\Temp\ccH4xQQo.s 			page 80


 2749 0f86 40F08B82 		bne	.L145
 601:..\src/command_processing.c ****             switch(NUM_MENU[idx_menu]){
 2750              		.loc 1 601 0
 2751 0f8a 97F8243F 		ldrb	r3, [r7, #3876]	@ zero_extendqisi2
 2752 0f8e 07F53772 		add	r2, r7, #732
 2753 0f92 D35C     		ldrb	r3, [r2, r3]	@ zero_extendqisi2
 2754 0f94 013B     		subs	r3, r3, #1
 2755 0f96 072B     		cmp	r3, #7
 2756 0f98 00F27882 		bhi	.L146
 2757 0f9c 01A2     		adr	r2, .L148
 2758 0f9e 52F823F0 		ldr	pc, [r2, r3, lsl #2]
 2759 0fa2 00BF     		.p2align 2
 2760              	.L148:
 2761 0fa4 C50F0000 		.word	.L147+1
 2762 0fa8 ED100000 		.word	.L149+1
 2763 0fac AD110000 		.word	.L150+1
 2764 0fb0 F3110000 		.word	.L151+1
 2765 0fb4 49120000 		.word	.L152+1
 2766 0fb8 97120000 		.word	.L153+1
 2767 0fbc 55130000 		.word	.L154+1
 2768 0fc0 CB130000 		.word	.L155+1
 2769              		.p2align 1
 2770              	.L147:
 602:..\src/command_processing.c ****                 case 1:     // input mode menu
 603:..\src/command_processing.c ****                     switch(*m_addr) {
 2771              		.loc 1 603 0
 2772 0fc4 D7F81C3F 		ldr	r3, [r7, #3868]
 2773 0fc8 1B78     		ldrb	r3, [r3]	@ zero_extendqisi2
 2774 0fca 052B     		cmp	r3, #5
 2775 0fcc 00F25982 		bhi	.L228
 2776 0fd0 01A2     		adr	r2, .L158
 2777 0fd2 52F823F0 		ldr	pc, [r2, r3, lsl #2]
 2778 0fd6 00BF     		.p2align 2
 2779              	.L158:
 2780 0fd8 F10F0000 		.word	.L157+1
 2781 0fdc 11100000 		.word	.L159+1
 2782 0fe0 33100000 		.word	.L160+1
 2783 0fe4 6D100000 		.word	.L161+1
 2784 0fe8 95100000 		.word	.L162+1
 2785 0fec BB100000 		.word	.L163+1
 2786              		.p2align 1
 2787              	.L157:
 604:..\src/command_processing.c ****                         case INPUT_MODE_EXTERNAL:
 605:..\src/command_processing.c ****                             strcat(aux_str, " Usb");
 2788              		.loc 1 605 0
 2789 0ff0 07F55673 		add	r3, r7, #856
 2790 0ff4 1846     		mov	r0, r3
 2791 0ff6 FFF7FEFF 		bl	strlen
 2792 0ffa 0346     		mov	r3, r0
 2793 0ffc 1A46     		mov	r2, r3
 2794 0ffe 07F55673 		add	r3, r7, #856
 2795 1002 1344     		add	r3, r3, r2
 2796 1004 164A     		ldr	r2, .L237+4
 2797 1006 1068     		ldr	r0, [r2]	@ unaligned
 2798 1008 1860     		str	r0, [r3]	@ unaligned
 2799 100a 1279     		ldrb	r2, [r2, #4]
 2800 100c 1A71     		strb	r2, [r3, #4]
ARM GAS  C:\Users\MattiaCP\AppData\Local\Temp\ccH4xQQo.s 			page 81


 606:..\src/command_processing.c ****                         break;
 2801              		.loc 1 606 0
 2802 100e 6CE0     		b	.L156
 2803              	.L159:
 607:..\src/command_processing.c ****                         case INPUT_MODE_ENCODER3:
 608:..\src/command_processing.c ****                             strcat(aux_str, " Handle");
 2804              		.loc 1 608 0
 2805 1010 07F55673 		add	r3, r7, #856
 2806 1014 1846     		mov	r0, r3
 2807 1016 FFF7FEFF 		bl	strlen
 2808 101a 0346     		mov	r3, r0
 2809 101c 1A46     		mov	r2, r3
 2810 101e 07F55673 		add	r3, r7, #856
 2811 1022 1344     		add	r3, r3, r2
 2812 1024 0F49     		ldr	r1, .L237+8
 2813 1026 1A46     		mov	r2, r3
 2814 1028 0B46     		mov	r3, r1
 2815 102a 03CB     		ldmia	r3!, {r0, r1}
 2816 102c 1060     		str	r0, [r2]	@ unaligned
 2817 102e 5160     		str	r1, [r2, #4]	@ unaligned
 609:..\src/command_processing.c ****                         break;
 2818              		.loc 1 609 0
 2819 1030 5BE0     		b	.L156
 2820              	.L160:
 610:..\src/command_processing.c ****                         case INPUT_MODE_EMG_PROPORTIONAL:
 611:..\src/command_processing.c ****                             strcat(aux_str, " EMG proportional");
 2821              		.loc 1 611 0
 2822 1032 07F55673 		add	r3, r7, #856
 2823 1036 1846     		mov	r0, r3
 2824 1038 FFF7FEFF 		bl	strlen
 2825 103c 0346     		mov	r3, r0
 2826 103e 1A46     		mov	r2, r3
 2827 1040 07F55673 		add	r3, r7, #856
 2828 1044 1344     		add	r3, r3, r2
 2829 1046 084A     		ldr	r2, .L237+12
 2830 1048 1D46     		mov	r5, r3
 2831 104a 1446     		mov	r4, r2
 2832 104c 0FCC     		ldmia	r4!, {r0, r1, r2, r3}
 2833 104e 2860     		str	r0, [r5]	@ unaligned
 2834 1050 6960     		str	r1, [r5, #4]	@ unaligned
 2835 1052 AA60     		str	r2, [r5, #8]	@ unaligned
 2836 1054 EB60     		str	r3, [r5, #12]	@ unaligned
 2837 1056 2388     		ldrh	r3, [r4]	@ unaligned
 2838 1058 2B82     		strh	r3, [r5, #16]	@ unaligned
 612:..\src/command_processing.c ****                         break;
 2839              		.loc 1 612 0
 2840 105a 46E0     		b	.L156
 2841              	.L238:
 2842              		.align	2
 2843              	.L237:
 2844 105c 00000000 		.word	c_mem
 2845 1060 74000000 		.word	.LC54
 2846 1064 7C000000 		.word	.LC55
 2847 1068 84000000 		.word	.LC56
 2848              	.L161:
 613:..\src/command_processing.c ****                         case INPUT_MODE_EMG_INTEGRAL:
 614:..\src/command_processing.c ****                             strcat(aux_str, " EMG integral");
ARM GAS  C:\Users\MattiaCP\AppData\Local\Temp\ccH4xQQo.s 			page 82


 2849              		.loc 1 614 0
 2850 106c 07F55673 		add	r3, r7, #856
 2851 1070 1846     		mov	r0, r3
 2852 1072 FFF7FEFF 		bl	strlen
 2853 1076 0346     		mov	r3, r0
 2854 1078 1A46     		mov	r2, r3
 2855 107a 07F55673 		add	r3, r7, #856
 2856 107e 1344     		add	r3, r3, r2
 2857 1080 D64A     		ldr	r2, .L239
 2858 1082 1C46     		mov	r4, r3
 2859 1084 1346     		mov	r3, r2
 2860 1086 07CB     		ldmia	r3!, {r0, r1, r2}
 2861 1088 2060     		str	r0, [r4]	@ unaligned
 2862 108a 6160     		str	r1, [r4, #4]	@ unaligned
 2863 108c A260     		str	r2, [r4, #8]	@ unaligned
 2864 108e 1B88     		ldrh	r3, [r3]	@ unaligned
 2865 1090 A381     		strh	r3, [r4, #12]	@ unaligned
 615:..\src/command_processing.c ****                         break;
 2866              		.loc 1 615 0
 2867 1092 2AE0     		b	.L156
 2868              	.L162:
 616:..\src/command_processing.c ****                         case INPUT_MODE_EMG_FCFS:
 617:..\src/command_processing.c ****                             strcat(aux_str, " EMG FCFS");
 2869              		.loc 1 617 0
 2870 1094 07F55673 		add	r3, r7, #856
 2871 1098 1846     		mov	r0, r3
 2872 109a FFF7FEFF 		bl	strlen
 2873 109e 0346     		mov	r3, r0
 2874 10a0 1A46     		mov	r2, r3
 2875 10a2 07F55673 		add	r3, r7, #856
 2876 10a6 1344     		add	r3, r3, r2
 2877 10a8 CD49     		ldr	r1, .L239+4
 2878 10aa 1A46     		mov	r2, r3
 2879 10ac 0B46     		mov	r3, r1
 2880 10ae 03CB     		ldmia	r3!, {r0, r1}
 2881 10b0 1060     		str	r0, [r2]	@ unaligned
 2882 10b2 5160     		str	r1, [r2, #4]	@ unaligned
 2883 10b4 1B88     		ldrh	r3, [r3]	@ unaligned
 2884 10b6 1381     		strh	r3, [r2, #8]	@ unaligned
 618:..\src/command_processing.c ****                         break;
 2885              		.loc 1 618 0
 2886 10b8 17E0     		b	.L156
 2887              	.L163:
 619:..\src/command_processing.c ****                         case INPUT_MODE_EMG_FCFS_ADV:
 620:..\src/command_processing.c ****                             strcat(aux_str, " EMG FCFS Advanced");
 2888              		.loc 1 620 0
 2889 10ba 07F55673 		add	r3, r7, #856
 2890 10be 1846     		mov	r0, r3
 2891 10c0 FFF7FEFF 		bl	strlen
 2892 10c4 0346     		mov	r3, r0
 2893 10c6 1A46     		mov	r2, r3
 2894 10c8 07F55673 		add	r3, r7, #856
 2895 10cc 1344     		add	r3, r3, r2
 2896 10ce C54A     		ldr	r2, .L239+8
 2897 10d0 1D46     		mov	r5, r3
 2898 10d2 1446     		mov	r4, r2
 2899 10d4 0FCC     		ldmia	r4!, {r0, r1, r2, r3}
ARM GAS  C:\Users\MattiaCP\AppData\Local\Temp\ccH4xQQo.s 			page 83


 2900 10d6 2860     		str	r0, [r5]	@ unaligned
 2901 10d8 6960     		str	r1, [r5, #4]	@ unaligned
 2902 10da AA60     		str	r2, [r5, #8]	@ unaligned
 2903 10dc EB60     		str	r3, [r5, #12]	@ unaligned
 2904 10de 2388     		ldrh	r3, [r4]	@ unaligned
 2905 10e0 A278     		ldrb	r2, [r4, #2]
 2906 10e2 2B82     		strh	r3, [r5, #16]	@ unaligned
 2907 10e4 1346     		mov	r3, r2
 2908 10e6 AB74     		strb	r3, [r5, #18]
 621:..\src/command_processing.c ****                         break;
 2909              		.loc 1 621 0
 2910 10e8 00BF     		nop
 2911              	.L156:
 622:..\src/command_processing.c ****                     }
 623:..\src/command_processing.c ****                     break;
 2912              		.loc 1 623 0
 2913 10ea CAE1     		b	.L228
 2914              	.L149:
 624:..\src/command_processing.c ****                 case 2:     // control mode menu
 625:..\src/command_processing.c ****                     switch(*m_addr){
 2915              		.loc 1 625 0
 2916 10ec D7F81C3F 		ldr	r3, [r7, #3868]
 2917 10f0 1B78     		ldrb	r3, [r3]	@ zero_extendqisi2
 2918 10f2 032B     		cmp	r3, #3
 2919 10f4 00F2C781 		bhi	.L229
 2920 10f8 01A2     		adr	r2, .L166
 2921 10fa 52F823F0 		ldr	pc, [r2, r3, lsl #2]
 2922 10fe 00BF     		.p2align 2
 2923              	.L166:
 2924 1100 11110000 		.word	.L165+1
 2925 1104 37110000 		.word	.L167+1
 2926 1108 57110000 		.word	.L168+1
 2927 110c 7D110000 		.word	.L169+1
 2928              		.p2align 1
 2929              	.L165:
 626:..\src/command_processing.c ****                         case CONTROL_ANGLE:
 627:..\src/command_processing.c ****                             strcat(aux_str, " Position");
 2930              		.loc 1 627 0
 2931 1110 07F55673 		add	r3, r7, #856
 2932 1114 1846     		mov	r0, r3
 2933 1116 FFF7FEFF 		bl	strlen
 2934 111a 0346     		mov	r3, r0
 2935 111c 1A46     		mov	r2, r3
 2936 111e 07F55673 		add	r3, r7, #856
 2937 1122 1344     		add	r3, r3, r2
 2938 1124 B049     		ldr	r1, .L239+12
 2939 1126 1A46     		mov	r2, r3
 2940 1128 0B46     		mov	r3, r1
 2941 112a 03CB     		ldmia	r3!, {r0, r1}
 2942 112c 1060     		str	r0, [r2]	@ unaligned
 2943 112e 5160     		str	r1, [r2, #4]	@ unaligned
 2944 1130 1B88     		ldrh	r3, [r3]	@ unaligned
 2945 1132 1381     		strh	r3, [r2, #8]	@ unaligned
 628:..\src/command_processing.c ****                         break;
 2946              		.loc 1 628 0
 2947 1134 39E0     		b	.L164
 2948              	.L167:
ARM GAS  C:\Users\MattiaCP\AppData\Local\Temp\ccH4xQQo.s 			page 84


 629:..\src/command_processing.c ****                         case CONTROL_PWM:
 630:..\src/command_processing.c ****                             strcat(aux_str, " PWM");
 2949              		.loc 1 630 0
 2950 1136 07F55673 		add	r3, r7, #856
 2951 113a 1846     		mov	r0, r3
 2952 113c FFF7FEFF 		bl	strlen
 2953 1140 0346     		mov	r3, r0
 2954 1142 1A46     		mov	r2, r3
 2955 1144 07F55673 		add	r3, r7, #856
 2956 1148 1344     		add	r3, r3, r2
 2957 114a A84A     		ldr	r2, .L239+16
 2958 114c 1068     		ldr	r0, [r2]	@ unaligned
 2959 114e 1860     		str	r0, [r3]	@ unaligned
 2960 1150 1279     		ldrb	r2, [r2, #4]
 2961 1152 1A71     		strb	r2, [r3, #4]
 631:..\src/command_processing.c ****                         break;
 2962              		.loc 1 631 0
 2963 1154 29E0     		b	.L164
 2964              	.L168:
 632:..\src/command_processing.c ****                         case CONTROL_CURRENT:
 633:..\src/command_processing.c ****                             strcat(aux_str, " Current");
 2965              		.loc 1 633 0
 2966 1156 07F55673 		add	r3, r7, #856
 2967 115a 1846     		mov	r0, r3
 2968 115c FFF7FEFF 		bl	strlen
 2969 1160 0346     		mov	r3, r0
 2970 1162 1A46     		mov	r2, r3
 2971 1164 07F55673 		add	r3, r7, #856
 2972 1168 1344     		add	r3, r3, r2
 2973 116a A149     		ldr	r1, .L239+20
 2974 116c 1A46     		mov	r2, r3
 2975 116e 0B46     		mov	r3, r1
 2976 1170 03CB     		ldmia	r3!, {r0, r1}
 2977 1172 1060     		str	r0, [r2]	@ unaligned
 2978 1174 5160     		str	r1, [r2, #4]	@ unaligned
 2979 1176 1B78     		ldrb	r3, [r3]
 2980 1178 1372     		strb	r3, [r2, #8]
 634:..\src/command_processing.c ****                         break;
 2981              		.loc 1 634 0
 2982 117a 16E0     		b	.L164
 2983              	.L169:
 635:..\src/command_processing.c ****                         case CURR_AND_POS_CONTROL:
 636:..\src/command_processing.c ****                             strcat(aux_str, " Position and Current");
 2984              		.loc 1 636 0
 2985 117c 07F55673 		add	r3, r7, #856
 2986 1180 1846     		mov	r0, r3
 2987 1182 FFF7FEFF 		bl	strlen
 2988 1186 0346     		mov	r3, r0
 2989 1188 1A46     		mov	r2, r3
 2990 118a 07F55673 		add	r3, r7, #856
 2991 118e 1344     		add	r3, r3, r2
 2992 1190 984A     		ldr	r2, .L239+24
 2993 1192 1D46     		mov	r5, r3
 2994 1194 1446     		mov	r4, r2
 2995 1196 0FCC     		ldmia	r4!, {r0, r1, r2, r3}
 2996 1198 2860     		str	r0, [r5]	@ unaligned
 2997 119a 6960     		str	r1, [r5, #4]	@ unaligned
ARM GAS  C:\Users\MattiaCP\AppData\Local\Temp\ccH4xQQo.s 			page 85


 2998 119c AA60     		str	r2, [r5, #8]	@ unaligned
 2999 119e EB60     		str	r3, [r5, #12]	@ unaligned
 3000 11a0 2068     		ldr	r0, [r4]	@ unaligned
 3001 11a2 2861     		str	r0, [r5, #16]	@ unaligned
 3002 11a4 A388     		ldrh	r3, [r4, #4]	@ unaligned
 3003 11a6 AB82     		strh	r3, [r5, #20]	@ unaligned
 637:..\src/command_processing.c ****                         break;
 3004              		.loc 1 637 0
 3005 11a8 00BF     		nop
 3006              	.L164:
 638:..\src/command_processing.c ****                     }
 639:..\src/command_processing.c ****                     break;
 3007              		.loc 1 639 0
 3008 11aa 6CE1     		b	.L229
 3009              	.L150:
 640:..\src/command_processing.c ****                 case 3:     // yes/no menu
 641:..\src/command_processing.c ****                     if(*m_addr){
 3010              		.loc 1 641 0
 3011 11ac D7F81C3F 		ldr	r3, [r7, #3868]
 3012 11b0 1B78     		ldrb	r3, [r3]	@ zero_extendqisi2
 3013 11b2 002B     		cmp	r3, #0
 3014 11b4 0FD0     		beq	.L170
 642:..\src/command_processing.c ****                         strcat(aux_str, " YES\0");
 3015              		.loc 1 642 0
 3016 11b6 07F55673 		add	r3, r7, #856
 3017 11ba 1846     		mov	r0, r3
 3018 11bc FFF7FEFF 		bl	strlen
 3019 11c0 0346     		mov	r3, r0
 3020 11c2 1A46     		mov	r2, r3
 3021 11c4 07F55673 		add	r3, r7, #856
 3022 11c8 1344     		add	r3, r3, r2
 3023 11ca 8B4A     		ldr	r2, .L239+28
 3024 11cc 1068     		ldr	r0, [r2]	@ unaligned
 3025 11ce 1860     		str	r0, [r3]	@ unaligned
 3026 11d0 1279     		ldrb	r2, [r2, #4]
 3027 11d2 1A71     		strb	r2, [r3, #4]
 643:..\src/command_processing.c ****                     }
 644:..\src/command_processing.c ****                     else {
 645:..\src/command_processing.c ****                         strcat(aux_str, " NO\0");
 646:..\src/command_processing.c ****                     }
 647:..\src/command_processing.c ****                     break;    
 3028              		.loc 1 647 0
 3029 11d4 5AE1     		b	.L146
 3030              	.L170:
 645:..\src/command_processing.c ****                     }
 3031              		.loc 1 645 0
 3032 11d6 07F55673 		add	r3, r7, #856
 3033 11da 1846     		mov	r0, r3
 3034 11dc FFF7FEFF 		bl	strlen
 3035 11e0 0346     		mov	r3, r0
 3036 11e2 1A46     		mov	r2, r3
 3037 11e4 07F55673 		add	r3, r7, #856
 3038 11e8 1344     		add	r3, r3, r2
 3039 11ea 844A     		ldr	r2, .L239+32
 3040 11ec 1068     		ldr	r0, [r2]	@ unaligned
 3041 11ee 1860     		str	r0, [r3]	@ unaligned
 3042              		.loc 1 647 0
ARM GAS  C:\Users\MattiaCP\AppData\Local\Temp\ccH4xQQo.s 			page 86


 3043 11f0 4CE1     		b	.L146
 3044              	.L151:
 648:..\src/command_processing.c ****                 case 4:     // right/lef menu
 649:..\src/command_processing.c ****                     switch(*m_addr){
 3045              		.loc 1 649 0
 3046 11f2 D7F81C3F 		ldr	r3, [r7, #3868]
 3047 11f6 1B78     		ldrb	r3, [r3]	@ zero_extendqisi2
 3048 11f8 002B     		cmp	r3, #0
 3049 11fa 02D0     		beq	.L173
 3050 11fc 012B     		cmp	r3, #1
 3051 11fe 12D0     		beq	.L174
 650:..\src/command_processing.c ****                         case RIGHT_HAND:
 651:..\src/command_processing.c ****                             strcat(aux_str, " Right\0");
