ARM GAS  C:\Users\MattiaCP\AppData\Local\Temp\cc0KhWXc.s 			page 1


   1              		.syntax unified
   2              		.cpu cortex-m3
   3              		.fpu softvfp
   4              		.eabi_attribute 20, 1
   5              		.eabi_attribute 21, 1
   6              		.eabi_attribute 23, 3
   7              		.eabi_attribute 24, 1
   8              		.eabi_attribute 25, 1
   9              		.eabi_attribute 26, 1
  10              		.eabi_attribute 30, 6
  11              		.eabi_attribute 34, 1
  12              		.eabi_attribute 18, 4
  13              		.thumb
  14              		.syntax unified
  15              		.file	"FS_ConfigIO.c"
  16              		.text
  17              	.Ltext0:
  18              		.cfi_sections	.debug_frame
  19              		.section	.text.FS_X_Panic,"ax",%progbits
  20              		.align	2
  21              		.global	FS_X_Panic
  22              		.thumb
  23              		.thumb_func
  24              		.type	FS_X_Panic, %function
  25              	FS_X_Panic:
  26              	.LFB1:
  27              		.file 1 "..\\emFile_V322c\\Code\\Source\\PSoC5\\FS_ConfigIO.c"
   1:..\emFile_V322c\Code\Source\PSoC5/FS_ConfigIO.c **** /*********************************************************************
   2:..\emFile_V322c\Code\Source\PSoC5/FS_ConfigIO.c **** *                SEGGER MICROCONTROLLER GmbH & Co. KG                *
   3:..\emFile_V322c\Code\Source\PSoC5/FS_ConfigIO.c **** *        Solutions for real time microcontroller applications        *
   4:..\emFile_V322c\Code\Source\PSoC5/FS_ConfigIO.c **** **********************************************************************
   5:..\emFile_V322c\Code\Source\PSoC5/FS_ConfigIO.c **** *                                                                    *
   6:..\emFile_V322c\Code\Source\PSoC5/FS_ConfigIO.c **** *        (c) 2003-2010     SEGGER Microcontroller GmbH & Co KG       *
   7:..\emFile_V322c\Code\Source\PSoC5/FS_ConfigIO.c **** *                                                                    *
   8:..\emFile_V322c\Code\Source\PSoC5/FS_ConfigIO.c **** *        Internet: www.segger.com    Support:  support@segger.com    *
   9:..\emFile_V322c\Code\Source\PSoC5/FS_ConfigIO.c **** *                                                                    *
  10:..\emFile_V322c\Code\Source\PSoC5/FS_ConfigIO.c **** **********************************************************************
  11:..\emFile_V322c\Code\Source\PSoC5/FS_ConfigIO.c **** 
  12:..\emFile_V322c\Code\Source\PSoC5/FS_ConfigIO.c **** **** emFile file system for embedded applications ****
  13:..\emFile_V322c\Code\Source\PSoC5/FS_ConfigIO.c **** emFile is protected by international copyright laws. Knowledge of the
  14:..\emFile_V322c\Code\Source\PSoC5/FS_ConfigIO.c **** source code may not be used to write a similar product. This file may
  15:..\emFile_V322c\Code\Source\PSoC5/FS_ConfigIO.c **** only be used in accordance with a license and should not be re-
  16:..\emFile_V322c\Code\Source\PSoC5/FS_ConfigIO.c **** distributed in any way. We appreciate your understanding and fairness.
  17:..\emFile_V322c\Code\Source\PSoC5/FS_ConfigIO.c **** ----------------------------------------------------------------------
  18:..\emFile_V322c\Code\Source\PSoC5/FS_ConfigIO.c **** File        : FS_ConfigIO.c
  19:..\emFile_V322c\Code\Source\PSoC5/FS_ConfigIO.c **** Purpose     : I/O Configuration routines for Filesystem
  20:..\emFile_V322c\Code\Source\PSoC5/FS_ConfigIO.c **** ---------------------------END-OF-HEADER------------------------------
  21:..\emFile_V322c\Code\Source\PSoC5/FS_ConfigIO.c **** */
  22:..\emFile_V322c\Code\Source\PSoC5/FS_ConfigIO.c **** 
  23:..\emFile_V322c\Code\Source\PSoC5/FS_ConfigIO.c **** #include <stdio.h>
  24:..\emFile_V322c\Code\Source\PSoC5/FS_ConfigIO.c **** //#include <device.h>
  25:..\emFile_V322c\Code\Source\PSoC5/FS_ConfigIO.c **** #include "FS.h"
  26:..\emFile_V322c\Code\Source\PSoC5/FS_ConfigIO.c **** 
  27:..\emFile_V322c\Code\Source\PSoC5/FS_ConfigIO.c **** /*********************************************************************
  28:..\emFile_V322c\Code\Source\PSoC5/FS_ConfigIO.c **** *
  29:..\emFile_V322c\Code\Source\PSoC5/FS_ConfigIO.c **** *       FS_X_Panic
  30:..\emFile_V322c\Code\Source\PSoC5/FS_ConfigIO.c **** *
ARM GAS  C:\Users\MattiaCP\AppData\Local\Temp\cc0KhWXc.s 			page 2


  31:..\emFile_V322c\Code\Source\PSoC5/FS_ConfigIO.c **** *  Function description
  32:..\emFile_V322c\Code\Source\PSoC5/FS_ConfigIO.c **** *    Referred in debug builds of the file system only and
  33:..\emFile_V322c\Code\Source\PSoC5/FS_ConfigIO.c **** *    called only in case of fatal, unrecoverable errors.
  34:..\emFile_V322c\Code\Source\PSoC5/FS_ConfigIO.c **** */
  35:..\emFile_V322c\Code\Source\PSoC5/FS_ConfigIO.c **** void FS_X_Panic(int ErrorCode) {
  28              		.loc 1 35 0
  29              		.cfi_startproc
  30              		@ args = 0, pretend = 0, frame = 8
  31              		@ frame_needed = 1, uses_anonymous_args = 0
  32              		@ link register save eliminated.
  33 0000 80B4     		push	{r7}
  34              		.cfi_def_cfa_offset 4
  35              		.cfi_offset 7, -4
  36 0002 83B0     		sub	sp, sp, #12
  37              		.cfi_def_cfa_offset 16
  38 0004 00AF     		add	r7, sp, #0
  39              		.cfi_def_cfa_register 7
  40 0006 7860     		str	r0, [r7, #4]
  41              	.L2:
  36:..\emFile_V322c\Code\Source\PSoC5/FS_ConfigIO.c ****   FS_USE_PARA(ErrorCode);
  37:..\emFile_V322c\Code\Source\PSoC5/FS_ConfigIO.c ****   while (1);
  42              		.loc 1 37 0 discriminator 1
  43 0008 FEE7     		b	.L2
  44              		.cfi_endproc
  45              	.LFE1:
  46              		.size	FS_X_Panic, .-FS_X_Panic
  47 000a 00BF     		.section	.text.FS_X_Log,"ax",%progbits
  48              		.align	2
  49              		.global	FS_X_Log
  50              		.thumb
  51              		.thumb_func
  52              		.type	FS_X_Log, %function
  53              	FS_X_Log:
  54              	.LFB2:
  38:..\emFile_V322c\Code\Source\PSoC5/FS_ConfigIO.c **** }
  39:..\emFile_V322c\Code\Source\PSoC5/FS_ConfigIO.c **** 
  40:..\emFile_V322c\Code\Source\PSoC5/FS_ConfigIO.c **** /*********************************************************************
  41:..\emFile_V322c\Code\Source\PSoC5/FS_ConfigIO.c **** *
  42:..\emFile_V322c\Code\Source\PSoC5/FS_ConfigIO.c **** *      Logging: OS dependent
  43:..\emFile_V322c\Code\Source\PSoC5/FS_ConfigIO.c **** 
  44:..\emFile_V322c\Code\Source\PSoC5/FS_ConfigIO.c **** Note:
  45:..\emFile_V322c\Code\Source\PSoC5/FS_ConfigIO.c ****   Logging is used in higher debug levels only. The typical target
  46:..\emFile_V322c\Code\Source\PSoC5/FS_ConfigIO.c ****   build does not use logging and does therefore not require any of
  47:..\emFile_V322c\Code\Source\PSoC5/FS_ConfigIO.c ****   the logging routines below. For a release build without logging
  48:..\emFile_V322c\Code\Source\PSoC5/FS_ConfigIO.c ****   the routines below may be eliminated to save some space.
  49:..\emFile_V322c\Code\Source\PSoC5/FS_ConfigIO.c ****   (If the linker is not function aware and eliminates unreferenced
  50:..\emFile_V322c\Code\Source\PSoC5/FS_ConfigIO.c ****   functions automatically)
  51:..\emFile_V322c\Code\Source\PSoC5/FS_ConfigIO.c **** 
  52:..\emFile_V322c\Code\Source\PSoC5/FS_ConfigIO.c **** */
  53:..\emFile_V322c\Code\Source\PSoC5/FS_ConfigIO.c **** void FS_X_Log(const char *s) {
  55              		.loc 1 53 0
  56              		.cfi_startproc
  57              		@ args = 0, pretend = 0, frame = 8
  58              		@ frame_needed = 1, uses_anonymous_args = 0
  59              		@ link register save eliminated.
  60 0000 80B4     		push	{r7}
  61              		.cfi_def_cfa_offset 4
ARM GAS  C:\Users\MattiaCP\AppData\Local\Temp\cc0KhWXc.s 			page 3


  62              		.cfi_offset 7, -4
  63 0002 83B0     		sub	sp, sp, #12
  64              		.cfi_def_cfa_offset 16
  65 0004 00AF     		add	r7, sp, #0
  66              		.cfi_def_cfa_register 7
  67 0006 7860     		str	r0, [r7, #4]
  54:..\emFile_V322c\Code\Source\PSoC5/FS_ConfigIO.c ****   FS_USE_PARA(s);
  55:..\emFile_V322c\Code\Source\PSoC5/FS_ConfigIO.c **** }
  68              		.loc 1 55 0
  69 0008 00BF     		nop
  70 000a 0C37     		adds	r7, r7, #12
  71              		.cfi_def_cfa_offset 4
  72 000c BD46     		mov	sp, r7
  73              		.cfi_def_cfa_register 13
  74              		@ sp needed
  75 000e 80BC     		pop	{r7}
  76              		.cfi_restore 7
  77              		.cfi_def_cfa_offset 0
  78 0010 7047     		bx	lr
  79              		.cfi_endproc
  80              	.LFE2:
  81              		.size	FS_X_Log, .-FS_X_Log
  82 0012 00BF     		.section	.text.FS_X_Warn,"ax",%progbits
  83              		.align	2
  84              		.global	FS_X_Warn
  85              		.thumb
  86              		.thumb_func
  87              		.type	FS_X_Warn, %function
  88              	FS_X_Warn:
  89              	.LFB3:
  56:..\emFile_V322c\Code\Source\PSoC5/FS_ConfigIO.c **** 
  57:..\emFile_V322c\Code\Source\PSoC5/FS_ConfigIO.c **** void FS_X_Warn(const char *s) {
  90              		.loc 1 57 0
  91              		.cfi_startproc
  92              		@ args = 0, pretend = 0, frame = 8
  93              		@ frame_needed = 1, uses_anonymous_args = 0
  94              		@ link register save eliminated.
  95 0000 80B4     		push	{r7}
  96              		.cfi_def_cfa_offset 4
  97              		.cfi_offset 7, -4
  98 0002 83B0     		sub	sp, sp, #12
  99              		.cfi_def_cfa_offset 16
 100 0004 00AF     		add	r7, sp, #0
 101              		.cfi_def_cfa_register 7
 102 0006 7860     		str	r0, [r7, #4]
  58:..\emFile_V322c\Code\Source\PSoC5/FS_ConfigIO.c ****   FS_USE_PARA(s);
  59:..\emFile_V322c\Code\Source\PSoC5/FS_ConfigIO.c **** }
 103              		.loc 1 59 0
 104 0008 00BF     		nop
 105 000a 0C37     		adds	r7, r7, #12
 106              		.cfi_def_cfa_offset 4
 107 000c BD46     		mov	sp, r7
 108              		.cfi_def_cfa_register 13
 109              		@ sp needed
 110 000e 80BC     		pop	{r7}
 111              		.cfi_restore 7
 112              		.cfi_def_cfa_offset 0
ARM GAS  C:\Users\MattiaCP\AppData\Local\Temp\cc0KhWXc.s 			page 4


 113 0010 7047     		bx	lr
 114              		.cfi_endproc
 115              	.LFE3:
 116              		.size	FS_X_Warn, .-FS_X_Warn
 117 0012 00BF     		.section	.text.FS_X_ErrorOut,"ax",%progbits
 118              		.align	2
 119              		.global	FS_X_ErrorOut
 120              		.thumb
 121              		.thumb_func
 122              		.type	FS_X_ErrorOut, %function
 123              	FS_X_ErrorOut:
 124              	.LFB4:
  60:..\emFile_V322c\Code\Source\PSoC5/FS_ConfigIO.c **** 
  61:..\emFile_V322c\Code\Source\PSoC5/FS_ConfigIO.c **** void FS_X_ErrorOut(const char *s) {
 125              		.loc 1 61 0
 126              		.cfi_startproc
 127              		@ args = 0, pretend = 0, frame = 8
 128              		@ frame_needed = 1, uses_anonymous_args = 0
 129              		@ link register save eliminated.
 130 0000 80B4     		push	{r7}
 131              		.cfi_def_cfa_offset 4
 132              		.cfi_offset 7, -4
 133 0002 83B0     		sub	sp, sp, #12
 134              		.cfi_def_cfa_offset 16
 135 0004 00AF     		add	r7, sp, #0
 136              		.cfi_def_cfa_register 7
 137 0006 7860     		str	r0, [r7, #4]
  62:..\emFile_V322c\Code\Source\PSoC5/FS_ConfigIO.c ****   FS_USE_PARA(s);
  63:..\emFile_V322c\Code\Source\PSoC5/FS_ConfigIO.c **** }
 138              		.loc 1 63 0
 139 0008 00BF     		nop
 140 000a 0C37     		adds	r7, r7, #12
 141              		.cfi_def_cfa_offset 4
 142 000c BD46     		mov	sp, r7
 143              		.cfi_def_cfa_register 13
 144              		@ sp needed
 145 000e 80BC     		pop	{r7}
 146              		.cfi_restore 7
 147              		.cfi_def_cfa_offset 0
 148 0010 7047     		bx	lr
 149              		.cfi_endproc
 150              	.LFE4:
 151              		.size	FS_X_ErrorOut, .-FS_X_ErrorOut
 152 0012 00BF     		.text
 153              	.Letext0: