ARM GAS  C:\Users\MattiaCP\AppData\Local\Temp\cc2oS0dM.s 			page 1


   1              		.syntax unified
   2              		.cpu cortex-m3
   3              		.fpu softvfp
   4              		.eabi_attribute 20, 1
   5              		.eabi_attribute 21, 1
   6              		.eabi_attribute 23, 3
   7              		.eabi_attribute 24, 1
   8              		.eabi_attribute 25, 1
   9              		.eabi_attribute 26, 1
  10              		.eabi_attribute 30, 6
  11              		.eabi_attribute 34, 1
  12              		.eabi_attribute 18, 4
  13              		.thumb
  14              		.syntax unified
  15              		.file	"IMU_functions.c"
  16              		.text
  17              	.Ltext0:
  18              		.cfi_sections	.debug_frame
  19              		.section	.text.ImusReset,"ax",%progbits
  20              		.align	2
  21              		.global	ImusReset
  22              		.thumb
  23              		.thumb_func
  24              		.type	ImusReset, %function
  25              	ImusReset:
  26              	.LFB64:
  27              		.file 1 "..\\src\\IMU_functions.c"
   1:..\src/IMU_functions.c **** // ----------------------------------------------------------------------------
   2:..\src/IMU_functions.c **** // BSD 3-Clause License
   3:..\src/IMU_functions.c **** 
   4:..\src/IMU_functions.c **** // Copyright (c) 2016, qbrobotics
   5:..\src/IMU_functions.c **** // Copyright (c) 2017-2018, Centro "E.Piaggio"
   6:..\src/IMU_functions.c **** // All rights reserved.
   7:..\src/IMU_functions.c **** 
   8:..\src/IMU_functions.c **** // Redistribution and use in source and binary forms, with or without
   9:..\src/IMU_functions.c **** // modification, are permitted provided that the following conditions are met:
  10:..\src/IMU_functions.c **** 
  11:..\src/IMU_functions.c **** // * Redistributions of source code must retain the above copyright notice, this
  12:..\src/IMU_functions.c **** //   list of conditions and the following disclaimer.
  13:..\src/IMU_functions.c **** 
  14:..\src/IMU_functions.c **** // * Redistributions in binary form must reproduce the above copyright notice,
  15:..\src/IMU_functions.c **** //   this list of conditions and the following disclaimer in the documentation
  16:..\src/IMU_functions.c **** //   and/or other materials provided with the distribution.
  17:..\src/IMU_functions.c **** 
  18:..\src/IMU_functions.c **** // * Neither the name of the copyright holder nor the names of its
  19:..\src/IMU_functions.c **** //   contributors may be used to endorse or promote products derived from
  20:..\src/IMU_functions.c **** //   this software without specific prior written permission.
  21:..\src/IMU_functions.c **** 
  22:..\src/IMU_functions.c **** // THIS SOFTWARE IS PROVIDED BY THE COPYRIGHT HOLDERS AND CONTRIBUTORS "AS IS"
  23:..\src/IMU_functions.c **** // AND ANY EXPRESS OR IMPLIED WARRANTIES, INCLUDING, BUT NOT LIMITED TO, THE
  24:..\src/IMU_functions.c **** // IMPLIED WARRANTIES OF MERCHANTABILITY AND FITNESS FOR A PARTICULAR PURPOSE ARE
  25:..\src/IMU_functions.c **** // DISCLAIMED. IN NO EVENT SHALL THE COPYRIGHT HOLDER OR CONTRIBUTORS BE LIABLE
  26:..\src/IMU_functions.c **** // FOR ANY DIRECT, INDIRECT, INCIDENTAL, SPECIAL, EXEMPLARY, OR CONSEQUENTIAL
  27:..\src/IMU_functions.c **** // DAMAGES (INCLUDING, BUT NOT LIMITED TO, PROCUREMENT OF SUBSTITUTE GOODS OR
  28:..\src/IMU_functions.c **** // SERVICES; LOSS OF USE, DATA, OR PROFITS; OR BUSINESS INTERRUPTION) HOWEVER
  29:..\src/IMU_functions.c **** // CAUSED AND ON ANY THEORY OF LIABILITY, WHETHER IN CONTRACT, STRICT LIABILITY,
  30:..\src/IMU_functions.c **** // OR TORT (INCLUDING NEGLIGENCE OR OTHERWISE) ARISING IN ANY WAY OUT OF THE USE
ARM GAS  C:\Users\MattiaCP\AppData\Local\Temp\cc2oS0dM.s 			page 2


  31:..\src/IMU_functions.c **** // OF THIS SOFTWARE, EVEN IF ADVISED OF THE POSSIBILITY OF SUCH DAMAGE.
  32:..\src/IMU_functions.c **** // POSSIBILITY OF SUCH DAMAGE.
  33:..\src/IMU_functions.c **** // ----------------------------------------------------------------------------
  34:..\src/IMU_functions.c **** 
  35:..\src/IMU_functions.c **** /**
  36:..\src/IMU_functions.c **** * \file         IMU_functions.c
  37:..\src/IMU_functions.c **** *
  38:..\src/IMU_functions.c **** * \brief        Implementation of IMU module functions.
  39:..\src/IMU_functions.c **** * \date         February 01, 2018
  40:..\src/IMU_functions.c **** * \author       _Centro "E.Piaggio"_
  41:..\src/IMU_functions.c **** * \copyright    (C) 2012-2016 qbrobotics. All rights reserved.
  42:..\src/IMU_functions.c **** * \copyright    (C) 2017-2018 Centro "E.Piaggio". All rights reserved.
  43:..\src/IMU_functions.c **** */
  44:..\src/IMU_functions.c **** 
  45:..\src/IMU_functions.c **** #include "IMU_functions.h"
  46:..\src/IMU_functions.c **** #include <SPI_IMU.h>
  47:..\src/IMU_functions.c **** 
  48:..\src/IMU_functions.c **** extern uint8 Accel[N_IMU_MAX][6];
  49:..\src/IMU_functions.c **** extern uint8 Gyro[N_IMU_MAX][6];
  50:..\src/IMU_functions.c **** extern uint8 Mag[N_IMU_MAX][6];
  51:..\src/IMU_functions.c **** extern uint8 MagCal[N_IMU_MAX][3];
  52:..\src/IMU_functions.c **** 
  53:..\src/IMU_functions.c **** /*******************************************************************************
  54:..\src/IMU_functions.c **** * Function Name: Imus Reset
  55:..\src/IMU_functions.c **** *********************************************************************************/	
  56:..\src/IMU_functions.c **** void ImusReset() {
  28              		.loc 1 56 0
  29              		.cfi_startproc
  30              		@ args = 0, pretend = 0, frame = 0
  31              		@ frame_needed = 1, uses_anonymous_args = 0
  32              		@ link register save eliminated.
  33 0000 80B4     		push	{r7}
  34              		.cfi_def_cfa_offset 4
  35              		.cfi_offset 7, -4
  36 0002 00AF     		add	r7, sp, #0
  37              		.cfi_def_cfa_register 7
  57:..\src/IMU_functions.c **** /*
  58:..\src/IMU_functions.c ****     Opto_Pin_Write(0);
  59:..\src/IMU_functions.c ****     CyDelay(10);
  60:..\src/IMU_functions.c ****     Opto_Pin_Write(1);
  61:..\src/IMU_functions.c ****     CyDelay(10);
  62:..\src/IMU_functions.c ****     InitIMUgeneral();
  63:..\src/IMU_functions.c **** 
  64:..\src/IMU_functions.c ****     CyDelay(10);
  65:..\src/IMU_functions.c ****     */
  66:..\src/IMU_functions.c **** }
  38              		.loc 1 66 0
  39 0004 00BF     		nop
  40 0006 BD46     		mov	sp, r7
  41              		.cfi_def_cfa_register 13
  42              		@ sp needed
  43 0008 80BC     		pop	{r7}
  44              		.cfi_restore 7
  45              		.cfi_def_cfa_offset 0
  46 000a 7047     		bx	lr
  47              		.cfi_endproc
  48              	.LFE64:
ARM GAS  C:\Users\MattiaCP\AppData\Local\Temp\cc2oS0dM.s 			page 3


  49              		.size	ImusReset, .-ImusReset
  50              		.section	.text.InitIMU,"ax",%progbits
  51              		.align	2
  52              		.global	InitIMU
  53              		.thumb
  54              		.thumb_func
  55              		.type	InitIMU, %function
  56              	InitIMU:
  57              	.LFB65:
  67:..\src/IMU_functions.c **** 
  68:..\src/IMU_functions.c **** /*******************************************************************************
  69:..\src/IMU_functions.c **** * Function Name: IMU Initialization
  70:..\src/IMU_functions.c **** *********************************************************************************/
  71:..\src/IMU_functions.c **** void InitIMU(){	
  58              		.loc 1 71 0
  59              		.cfi_startproc
  60              		@ args = 0, pretend = 0, frame = 0
  61              		@ frame_needed = 1, uses_anonymous_args = 0
  62              		@ link register save eliminated.
  63 0000 80B4     		push	{r7}
  64              		.cfi_def_cfa_offset 4
  65              		.cfi_offset 7, -4
  66 0002 00AF     		add	r7, sp, #0
  67              		.cfi_def_cfa_register 7
  72:..\src/IMU_functions.c ****   /*  
  73:..\src/IMU_functions.c **** 	WriteControlRegister(MPU9250_PWR_MGMT_1, 0x10); 
  74:..\src/IMU_functions.c **** 	CyDelay(10);	
  75:..\src/IMU_functions.c **** 	WriteControlRegister(MPU9250_USER_CTRL, 0x20);  //I2C master enable - disable I2C (prima 0x30)
  76:..\src/IMU_functions.c **** 	CyDelay(10);
  77:..\src/IMU_functions.c ****     WriteControlRegister(MPU9250_CONFIG, 0x06); //Gyro & Temp Low Pass Filter 0x01 = 184Hz, 0x02 = 
  78:..\src/IMU_functions.c ****     CyDelay(10);	
  79:..\src/IMU_functions.c **** 	WriteControlRegister(MPU9250_GYRO_CONFIG , GYRO_SF_2000); //Gyro full scale select 0x00=250°/s 0x
  80:..\src/IMU_functions.c **** 	CyDelay(10);
  81:..\src/IMU_functions.c ****     WriteControlRegister(MPU9250_ACCEL_CONFIG, ACC_SF_2G); // Acc full scale select 0x00 = 2g 0x08 
  82:..\src/IMU_functions.c ****     CyDelay(10);
  83:..\src/IMU_functions.c **** #ifdef SOMA    
  84:..\src/IMU_functions.c ****     WriteControlRegister(MPU9250_ACCEL_CONFIG2, LP_ACC_FREQ_184);
  85:..\src/IMU_functions.c **** #else
  86:..\src/IMU_functions.c ****     WriteControlRegister(MPU9250_ACCEL_CONFIG2, LP_ACC_FREQ_10);
  87:..\src/IMU_functions.c **** #endif    
  88:..\src/IMU_functions.c ****     CyDelay(10);
  89:..\src/IMU_functions.c **** 	//mag register
  90:..\src/IMU_functions.c **** 	WriteControlRegister(MPU9250_I2C_MST_CTRL, 0x0D); //set slave I2C speed
  91:..\src/IMU_functions.c **** 	CyDelay(10);
  92:..\src/IMU_functions.c **** 	//SLV0 (use to write)
  93:..\src/IMU_functions.c **** 	WriteControlRegister(MPU9250_I2C_SLV0_ADDR, 0x0C); //set compass address
  94:..\src/IMU_functions.c **** 	CyDelay(10);			
  95:..\src/IMU_functions.c **** 	WriteControlRegister(MPU9250_I2C_SLV0_REG, AK8936_CNTL); //compass mode register
  96:..\src/IMU_functions.c **** 	CyDelay(10);	
  97:..\src/IMU_functions.c **** 	// Istruction used to read Compass
  98:..\src/IMU_functions.c **** 	WriteControlRegister(MPU9250_I2C_SLV0_D0, 0x16); //0x12 continuous mode1  0x16 continuous mode2
  99:..\src/IMU_functions.c **** 	CyDelay(10);
 100:..\src/IMU_functions.c **** 	WriteControlRegister(MPU9250_I2C_SLV0_CTRL, 0x81); //enable data from register + 1 bit to write
 101:..\src/IMU_functions.c **** 	CyDelay(10);
 102:..\src/IMU_functions.c **** 	//SLV0 (use to read)
 103:..\src/IMU_functions.c **** 	WriteControlRegister(MPU9250_I2C_SLV0_ADDR, 0x8C); // RCR  | AK8963_address (0x0C) 
 104:..\src/IMU_functions.c **** 	CyDelay(10);
ARM GAS  C:\Users\MattiaCP\AppData\Local\Temp\cc2oS0dM.s 			page 4


 105:..\src/IMU_functions.c **** 	// Istruction used to read Compass
 106:..\src/IMU_functions.c **** 	WriteControlRegister(MPU9250_I2C_SLV0_REG, 0x03); // 0x03:start from Xout Low in case of calibrati
 107:..\src/IMU_functions.c **** 	CyDelay(10);
 108:..\src/IMU_functions.c **** 	// Istruction used to read Compass
 109:..\src/IMU_functions.c **** 	WriteControlRegister(MPU9250_I2C_SLV0_CTRL, 0x8D); //How many bits read  SEMPRE DISPARI 0x8D era q
 110:..\src/IMU_functions.c **** 	CyDelay(10);
 111:..\src/IMU_functions.c **** 	WriteControlRegister(MPU9250_PWR_MGMT_1, 0x00); 
 112:..\src/IMU_functions.c **** 	CyDelay(20);*/
 113:..\src/IMU_functions.c **** }	
  68              		.loc 1 113 0
  69 0004 00BF     		nop
  70 0006 BD46     		mov	sp, r7
  71              		.cfi_def_cfa_register 13
  72              		@ sp needed
  73 0008 80BC     		pop	{r7}
  74              		.cfi_restore 7
  75              		.cfi_def_cfa_offset 0
  76 000a 7047     		bx	lr
  77              		.cfi_endproc
  78              	.LFE65:
  79              		.size	InitIMU, .-InitIMU
  80              		.section	.text.InitIMUMagCal,"ax",%progbits
  81              		.align	2
  82              		.global	InitIMUMagCal
  83              		.thumb
  84              		.thumb_func
  85              		.type	InitIMUMagCal, %function
  86              	InitIMUMagCal:
  87              	.LFB66:
 114:..\src/IMU_functions.c **** 
 115:..\src/IMU_functions.c **** /*******************************************************************************
 116:..\src/IMU_functions.c **** * Function Name: IMU Mag Cal Initialization
 117:..\src/IMU_functions.c **** *********************************************************************************/
 118:..\src/IMU_functions.c **** void InitIMUMagCal(){	
  88              		.loc 1 118 0
  89              		.cfi_startproc
  90              		@ args = 0, pretend = 0, frame = 0
  91              		@ frame_needed = 1, uses_anonymous_args = 0
  92              		@ link register save eliminated.
  93 0000 80B4     		push	{r7}
  94              		.cfi_def_cfa_offset 4
  95              		.cfi_offset 7, -4
  96 0002 00AF     		add	r7, sp, #0
  97              		.cfi_def_cfa_register 7
 119:..\src/IMU_functions.c ****     /*
 120:..\src/IMU_functions.c **** 	WriteControlRegister(MPU9250_PWR_MGMT_1, 0x10); 
 121:..\src/IMU_functions.c **** 	CyDelay(10);	
 122:..\src/IMU_functions.c **** 	WriteControlRegister(MPU9250_USER_CTRL, 0x20);  //I2C master enable - disable I2C (prima 0x30)
 123:..\src/IMU_functions.c **** 	CyDelay(10);
 124:..\src/IMU_functions.c ****     WriteControlRegister(MPU9250_CONFIG, 0x06); //Gyro & Temp Low Pass Filter 0x01 = 184Hz, 0x02 = 
 125:..\src/IMU_functions.c ****     CyDelay(10);	
 126:..\src/IMU_functions.c **** 	WriteControlRegister(MPU9250_GYRO_CONFIG , GYRO_SF_2000); //Gyro full scale select 0x00=250°/s 0x
 127:..\src/IMU_functions.c **** 	CyDelay(10);
 128:..\src/IMU_functions.c ****     WriteControlRegister(MPU9250_ACCEL_CONFIG, ACC_SF_2G); // Acc full scale select 0x00 = 2g 0x08 
 129:..\src/IMU_functions.c ****     CyDelay(10);
 130:..\src/IMU_functions.c ****     WriteControlRegister(MPU9250_ACCEL_CONFIG2, 0x05);
 131:..\src/IMU_functions.c ****     CyDelay(10);
ARM GAS  C:\Users\MattiaCP\AppData\Local\Temp\cc2oS0dM.s 			page 5


 132:..\src/IMU_functions.c **** 	//mag register
 133:..\src/IMU_functions.c **** 	WriteControlRegister(MPU9250_I2C_MST_CTRL, 0x0D); //set slave I2C speed
 134:..\src/IMU_functions.c **** 	CyDelay(10);
 135:..\src/IMU_functions.c **** 	//SLV0 (use to write)
 136:..\src/IMU_functions.c **** 	WriteControlRegister(MPU9250_I2C_SLV0_ADDR, 0x0C); //set compass address
 137:..\src/IMU_functions.c **** 	CyDelay(10);			
 138:..\src/IMU_functions.c **** 	WriteControlRegister(MPU9250_I2C_SLV0_REG, AK8936_CNTL); //compass mode register
 139:..\src/IMU_functions.c **** 	CyDelay(10);	
 140:..\src/IMU_functions.c **** 	WriteControlRegister(MPU9250_I2C_SLV0_D0, 0x1F); //0x1F ROM access
 141:..\src/IMU_functions.c **** 	CyDelay(10);
 142:..\src/IMU_functions.c **** 	WriteControlRegister(MPU9250_I2C_SLV0_CTRL, 0x81); //enable data from register + 1 bit to write
 143:..\src/IMU_functions.c **** 	CyDelay(10);
 144:..\src/IMU_functions.c **** 	//SLV0 (use to read)
 145:..\src/IMU_functions.c **** 	WriteControlRegister(MPU9250_I2C_SLV0_ADDR, 0x8C); // RCR  | AK8963_address (0x0C) 
 146:..\src/IMU_functions.c **** 	CyDelay(10);
 147:..\src/IMU_functions.c **** 	WriteControlRegister(MPU9250_I2C_SLV0_REG, 0x10); // 0x10:start from ASAX
 148:..\src/IMU_functions.c **** 	CyDelay(10);
 149:..\src/IMU_functions.c **** 	WriteControlRegister(MPU9250_I2C_SLV0_CTRL, 0x83);
 150:..\src/IMU_functions.c **** 	CyDelay(10);
 151:..\src/IMU_functions.c **** 	WriteControlRegister(MPU9250_PWR_MGMT_1, 0x00); 
 152:..\src/IMU_functions.c **** 	CyDelay(20);*/
 153:..\src/IMU_functions.c **** }
  98              		.loc 1 153 0
  99 0004 00BF     		nop
 100 0006 BD46     		mov	sp, r7
 101              		.cfi_def_cfa_register 13
 102              		@ sp needed
 103 0008 80BC     		pop	{r7}
 104              		.cfi_restore 7
 105              		.cfi_def_cfa_offset 0
 106 000a 7047     		bx	lr
 107              		.cfi_endproc
 108              	.LFE66:
 109              		.size	InitIMUMagCal, .-InitIMUMagCal
 110              		.section	.text.ChipSelector,"ax",%progbits
 111              		.align	2
 112              		.global	ChipSelector
 113              		.thumb
 114              		.thumb_func
 115              		.type	ChipSelector, %function
 116              	ChipSelector:
 117              	.LFB67:
 154:..\src/IMU_functions.c **** 
 155:..\src/IMU_functions.c **** /********************************************************************************
 156:..\src/IMU_functions.c **** * Function Name: ChipSelector                                                   *
 157:..\src/IMU_functions.c **** *********************************************************************************/
 158:..\src/IMU_functions.c **** void ChipSelector(int n)
 159:..\src/IMU_functions.c **** {/*
 118              		.loc 1 159 0
 119              		.cfi_startproc
 120              		@ args = 0, pretend = 0, frame = 8
 121              		@ frame_needed = 1, uses_anonymous_args = 0
 122              		@ link register save eliminated.
 123 0000 80B4     		push	{r7}
 124              		.cfi_def_cfa_offset 4
 125              		.cfi_offset 7, -4
 126 0002 83B0     		sub	sp, sp, #12
ARM GAS  C:\Users\MattiaCP\AppData\Local\Temp\cc2oS0dM.s 			page 6


 127              		.cfi_def_cfa_offset 16
 128 0004 00AF     		add	r7, sp, #0
 129              		.cfi_def_cfa_register 7
 130 0006 7860     		str	r0, [r7, #4]
 160:..\src/IMU_functions.c ****     Chip_Select_A_Write(15);
 161:..\src/IMU_functions.c ****     Chip_Select_B_Write(3);
 162:..\src/IMU_functions.c ****     
 163:..\src/IMU_functions.c ****     if(n<15)
 164:..\src/IMU_functions.c ****     	Chip_Select_A_Write(n);
 165:..\src/IMU_functions.c ****     if(n==15)
 166:..\src/IMU_functions.c ****         Chip_Select_B_Write(0);
 167:..\src/IMU_functions.c ****     if(n==16)
 168:..\src/IMU_functions.c ****         Chip_Select_B_Write(1);*/
 169:..\src/IMU_functions.c **** }
 131              		.loc 1 169 0
 132 0008 00BF     		nop
 133 000a 0C37     		adds	r7, r7, #12
 134              		.cfi_def_cfa_offset 4
 135 000c BD46     		mov	sp, r7
 136              		.cfi_def_cfa_register 13
 137              		@ sp needed
 138 000e 80BC     		pop	{r7}
 139              		.cfi_restore 7
 140              		.cfi_def_cfa_offset 0
 141 0010 7047     		bx	lr
 142              		.cfi_endproc
 143              	.LFE67:
 144              		.size	ChipSelector, .-ChipSelector
 145 0012 00BF     		.section	.text.InitIMUgeneral,"ax",%progbits
 146              		.align	2
 147              		.global	InitIMUgeneral
 148              		.thumb
 149              		.thumb_func
 150              		.type	InitIMUgeneral, %function
 151              	InitIMUgeneral:
 152              	.LFB68:
 170:..\src/IMU_functions.c **** 
 171:..\src/IMU_functions.c **** /********************************************************************************
 172:..\src/IMU_functions.c **** * Function Name: InitIMUGeneral                                                 *
 173:..\src/IMU_functions.c **** *********************************************************************************/
 174:..\src/IMU_functions.c **** void InitIMUgeneral()
 175:..\src/IMU_functions.c **** {/*
 153              		.loc 1 175 0
 154              		.cfi_startproc
 155              		@ args = 0, pretend = 0, frame = 0
 156              		@ frame_needed = 1, uses_anonymous_args = 0
 157              		@ link register save eliminated.
 158 0000 80B4     		push	{r7}
 159              		.cfi_def_cfa_offset 4
 160              		.cfi_offset 7, -4
 161 0002 00AF     		add	r7, sp, #0
 162              		.cfi_def_cfa_register 7
 176:..\src/IMU_functions.c ****     uint8 k_imu;
 177:..\src/IMU_functions.c ****     uint8 count = 0;
 178:..\src/IMU_functions.c ****     int IMU_ack;
 179:..\src/IMU_functions.c ****     int tmp[N_IMU_MAX];
 180:..\src/IMU_functions.c **** 
ARM GAS  C:\Users\MattiaCP\AppData\Local\Temp\cc2oS0dM.s 			page 7


 181:..\src/IMU_functions.c ****     // Initialize Memory Structure 
 182:..\src/IMU_functions.c ****     memset(&g_imu, 0, sizeof(struct st_imu));
 183:..\src/IMU_functions.c ****     memset(&IMU_connected, 0, sizeof(IMU_connected));
 184:..\src/IMU_functions.c **** 
 185:..\src/IMU_functions.c ****     // First ping to be sure to wakeup IMUs
 186:..\src/IMU_functions.c ****     for (k_imu=0; k_imu < N_IMU_MAX; k_imu++) 
 187:..\src/IMU_functions.c ****     {	
 188:..\src/IMU_functions.c **** 	    ChipSelector(k_imu);
 189:..\src/IMU_functions.c **** 	    CyDelay(10);
 190:..\src/IMU_functions.c **** 	    ReadControlRegister(MPU9250_WHO_AM_I);
 191:..\src/IMU_functions.c ****     }
 192:..\src/IMU_functions.c ****     
 193:..\src/IMU_functions.c ****     // Identify IMU connected
 194:..\src/IMU_functions.c ****     ChipSelector(0);
 195:..\src/IMU_functions.c ****     CyDelay(10);
 196:..\src/IMU_functions.c ****     IMU_ack = ReadControlRegister(MPU9250_WHO_AM_I);
 197:..\src/IMU_functions.c ****     IMU_ack = 0;
 198:..\src/IMU_functions.c ****     N_IMU_Connected = 0;    
 199:..\src/IMU_functions.c ****     for (k_imu = 0; k_imu < N_IMU_MAX; k_imu++) 
 200:..\src/IMU_functions.c ****     {      
 201:..\src/IMU_functions.c ****     	ChipSelector(k_imu);
 202:..\src/IMU_functions.c ****         CyDelay(10);
 203:..\src/IMU_functions.c ****         IMU_ack = ReadControlRegister(MPU9250_WHO_AM_I);
 204:..\src/IMU_functions.c ****         if (IMU_ack == 0x71) 
 205:..\src/IMU_functions.c ****         {
 206:..\src/IMU_functions.c ****             N_IMU_Connected++;
 207:..\src/IMU_functions.c ****             IMU_ack = 0;
 208:..\src/IMU_functions.c ****             tmp[k_imu] = 1;
 209:..\src/IMU_functions.c ****         }
 210:..\src/IMU_functions.c ****         else
 211:..\src/IMU_functions.c ****             tmp[k_imu] = 0;
 212:..\src/IMU_functions.c ****     }
 213:..\src/IMU_functions.c **** 
 214:..\src/IMU_functions.c ****     for(k_imu = 0; k_imu < N_IMU_MAX; k_imu++)
 215:..\src/IMU_functions.c ****     {
 216:..\src/IMU_functions.c ****         if(tmp[k_imu] == 1)
 217:..\src/IMU_functions.c ****         {
 218:..\src/IMU_functions.c ****             IMU_connected[count] = k_imu;
 219:..\src/IMU_functions.c ****             count++;
 220:..\src/IMU_functions.c ****         }
 221:..\src/IMU_functions.c ****     }
 222:..\src/IMU_functions.c ****             
 223:..\src/IMU_functions.c ****     // Standard Initialization of the IMU
 224:..\src/IMU_functions.c ****     Opto_Pin_Write(0);
 225:..\src/IMU_functions.c ****     CyDelay(10);
 226:..\src/IMU_functions.c ****     Opto_Pin_Write(1);
 227:..\src/IMU_functions.c ****     CyDelay(10);
 228:..\src/IMU_functions.c ****     for (k_imu=0; k_imu < N_IMU_MAX; k_imu++) 
 229:..\src/IMU_functions.c ****     {	
 230:..\src/IMU_functions.c **** 	    ChipSelector(k_imu);
 231:..\src/IMU_functions.c **** 	    CyDelay(10);
 232:..\src/IMU_functions.c **** 	    InitIMU();
 233:..\src/IMU_functions.c **** 	    CyDelay(10); 
 234:..\src/IMU_functions.c ****         InitIMUMagCal();      // Initialize IMU to Read MagCal Parameters
 235:..\src/IMU_functions.c **** 	    CyDelay(10); 
 236:..\src/IMU_functions.c ****     }
 237:..\src/IMU_functions.c ****     CyDelay(50);
ARM GAS  C:\Users\MattiaCP\AppData\Local\Temp\cc2oS0dM.s 			page 8


 238:..\src/IMU_functions.c ****     
 239:..\src/IMU_functions.c ****     // Reading of MagCal Parameters
 240:..\src/IMU_functions.c ****     for (k_imu = 0; k_imu < N_IMU_MAX; k_imu++){
 241:..\src/IMU_functions.c ****         ChipSelector(k_imu);
 242:..\src/IMU_functions.c ****         ReadMagCal(k_imu); 
 243:..\src/IMU_functions.c ****     }
 244:..\src/IMU_functions.c ****     CyDelay(50);
 245:..\src/IMU_functions.c ****     
 246:..\src/IMU_functions.c ****     // Set Standard Read for the IMU
 247:..\src/IMU_functions.c ****     memset(&single_imu_size, 0, sizeof(single_imu_size));
 248:..\src/IMU_functions.c ****     imus_data_size = 1; //header    
 249:..\src/IMU_functions.c ****     for (k_imu = 0; k_imu < N_IMU_Connected; k_imu++)
 250:..\src/IMU_functions.c ****     {
 251:..\src/IMU_functions.c ****         single_imu_size[IMU_connected[k_imu]] = 1 + 6*c_mem.IMU_conf[IMU_connected[k_imu]][0] + 6*c
 252:..\src/IMU_functions.c ****         imus_data_size = imus_data_size + single_imu_size[IMU_connected[k_imu]];
 253:..\src/IMU_functions.c ****     }
 254:..\src/IMU_functions.c ****     imus_data_size = imus_data_size + 1;    //checksum*/
 255:..\src/IMU_functions.c **** }
 163              		.loc 1 255 0
 164 0004 00BF     		nop
 165 0006 BD46     		mov	sp, r7
 166              		.cfi_def_cfa_register 13
 167              		@ sp needed
 168 0008 80BC     		pop	{r7}
 169              		.cfi_restore 7
 170              		.cfi_def_cfa_offset 0
 171 000a 7047     		bx	lr
 172              		.cfi_endproc
 173              	.LFE68:
 174              		.size	InitIMUgeneral, .-InitIMUgeneral
 175              		.section	.text.ReadIMU,"ax",%progbits
 176              		.align	2
 177              		.global	ReadIMU
 178              		.thumb
 179              		.thumb_func
 180              		.type	ReadIMU, %function
 181              	ReadIMU:
 182              	.LFB69:
 256:..\src/IMU_functions.c **** 
 257:..\src/IMU_functions.c **** /*******************************************************************************
 258:..\src/IMU_functions.c **** * Function Name: IMU Read
 259:..\src/IMU_functions.c **** *********************************************************************************/	
 260:..\src/IMU_functions.c **** void ReadIMU(int n)
 261:..\src/IMU_functions.c **** {/*
 183              		.loc 1 261 0
 184              		.cfi_startproc
 185              		@ args = 0, pretend = 0, frame = 8
 186              		@ frame_needed = 1, uses_anonymous_args = 0
 187              		@ link register save eliminated.
 188 0000 80B4     		push	{r7}
 189              		.cfi_def_cfa_offset 4
 190              		.cfi_offset 7, -4
 191 0002 83B0     		sub	sp, sp, #12
 192              		.cfi_def_cfa_offset 16
 193 0004 00AF     		add	r7, sp, #0
 194              		.cfi_def_cfa_register 7
 195 0006 7860     		str	r0, [r7, #4]
ARM GAS  C:\Users\MattiaCP\AppData\Local\Temp\cc2oS0dM.s 			page 9


 262:..\src/IMU_functions.c ****     if (c_mem.IMU_conf[n][0]) ReadAcc(n);
 263:..\src/IMU_functions.c ****     if (c_mem.IMU_conf[n][1]) ReadGyro(n);
 264:..\src/IMU_functions.c ****     if (c_mem.IMU_conf[n][2]) ReadMag(n);
 265:..\src/IMU_functions.c ****     if (c_mem.IMU_conf[n][3]) ReadQuat(n);
 266:..\src/IMU_functions.c ****     if (c_mem.IMU_conf[n][4]) ReadTemp(n);*/
 267:..\src/IMU_functions.c **** }
 196              		.loc 1 267 0
 197 0008 00BF     		nop
 198 000a 0C37     		adds	r7, r7, #12
 199              		.cfi_def_cfa_offset 4
 200 000c BD46     		mov	sp, r7
 201              		.cfi_def_cfa_register 13
 202              		@ sp needed
 203 000e 80BC     		pop	{r7}
 204              		.cfi_restore 7
 205              		.cfi_def_cfa_offset 0
 206 0010 7047     		bx	lr
 207              		.cfi_endproc
 208              	.LFE69:
 209              		.size	ReadIMU, .-ReadIMU
 210 0012 00BF     		.section	.text.ReadAcc,"ax",%progbits
 211              		.align	2
 212              		.global	ReadAcc
 213              		.thumb
 214              		.thumb_func
 215              		.type	ReadAcc, %function
 216              	ReadAcc:
 217              	.LFB70:
 268:..\src/IMU_functions.c **** 
 269:..\src/IMU_functions.c **** /*******************************************************************************
 270:..\src/IMU_functions.c **** * Function Name: Read Acc's Data of IMU n
 271:..\src/IMU_functions.c **** *********************************************************************************/
 272:..\src/IMU_functions.c **** void ReadAcc(int n)
 273:..\src/IMU_functions.c **** {/*
 218              		.loc 1 273 0
 219              		.cfi_startproc
 220              		@ args = 0, pretend = 0, frame = 8
 221              		@ frame_needed = 1, uses_anonymous_args = 0
 222              		@ link register save eliminated.
 223 0000 80B4     		push	{r7}
 224              		.cfi_def_cfa_offset 4
 225              		.cfi_offset 7, -4
 226 0002 83B0     		sub	sp, sp, #12
 227              		.cfi_def_cfa_offset 16
 228 0004 00AF     		add	r7, sp, #0
 229              		.cfi_def_cfa_register 7
 230 0006 7860     		str	r0, [r7, #4]
 274:..\src/IMU_functions.c **** 	uint8 low=0, high=0;
 275:..\src/IMU_functions.c **** 	
 276:..\src/IMU_functions.c **** 	int row = n;
 277:..\src/IMU_functions.c **** 	
 278:..\src/IMU_functions.c **** 	//read X
 279:..\src/IMU_functions.c ****     low=ReadControlRegister(MPU9250_ACCEL_XOUT_L);
 280:..\src/IMU_functions.c ****     SPI_delay();
 281:..\src/IMU_functions.c ****     high=ReadControlRegister(MPU9250_ACCEL_XOUT_H);
 282:..\src/IMU_functions.c ****     SPI_delay();
 283:..\src/IMU_functions.c ****     
ARM GAS  C:\Users\MattiaCP\AppData\Local\Temp\cc2oS0dM.s 			page 10


 284:..\src/IMU_functions.c **** 	Accel[row][0] = high; 
 285:..\src/IMU_functions.c **** 	Accel[row][1] = low; 
 286:..\src/IMU_functions.c **** 	low=0, high=0;
 287:..\src/IMU_functions.c **** 			
 288:..\src/IMU_functions.c **** 	//read Y
 289:..\src/IMU_functions.c ****     low=ReadControlRegister(MPU9250_ACCEL_YOUT_L);
 290:..\src/IMU_functions.c ****     SPI_delay();
 291:..\src/IMU_functions.c **** 	high=ReadControlRegister(MPU9250_ACCEL_YOUT_H);
 292:..\src/IMU_functions.c ****     SPI_delay();
 293:..\src/IMU_functions.c **** 
 294:..\src/IMU_functions.c **** 	Accel[row][2] = high; 
 295:..\src/IMU_functions.c **** 	Accel[row][3] = low; 
 296:..\src/IMU_functions.c **** 	low=0, high=0;
 297:..\src/IMU_functions.c **** 		
 298:..\src/IMU_functions.c **** 	//read Z
 299:..\src/IMU_functions.c ****     low=ReadControlRegister(MPU9250_ACCEL_ZOUT_L);
 300:..\src/IMU_functions.c ****     SPI_delay();
 301:..\src/IMU_functions.c ****     high=ReadControlRegister(MPU9250_ACCEL_ZOUT_H);
 302:..\src/IMU_functions.c ****     SPI_delay();
 303:..\src/IMU_functions.c ****     
 304:..\src/IMU_functions.c **** 	Accel[row][4] = high; 
 305:..\src/IMU_functions.c **** 	Accel[row][5] = low;
 306:..\src/IMU_functions.c **** 	low=0, high=0;*/
 307:..\src/IMU_functions.c **** }
 231              		.loc 1 307 0
 232 0008 00BF     		nop
 233 000a 0C37     		adds	r7, r7, #12
 234              		.cfi_def_cfa_offset 4
 235 000c BD46     		mov	sp, r7
 236              		.cfi_def_cfa_register 13
 237              		@ sp needed
 238 000e 80BC     		pop	{r7}
 239              		.cfi_restore 7
 240              		.cfi_def_cfa_offset 0
 241 0010 7047     		bx	lr
 242              		.cfi_endproc
 243              	.LFE70:
 244              		.size	ReadAcc, .-ReadAcc
 245 0012 00BF     		.section	.text.ReadGyro,"ax",%progbits
 246              		.align	2
 247              		.global	ReadGyro
 248              		.thumb
 249              		.thumb_func
 250              		.type	ReadGyro, %function
 251              	ReadGyro:
 252              	.LFB71:
 308:..\src/IMU_functions.c **** 
 309:..\src/IMU_functions.c **** /*******************************************************************************
 310:..\src/IMU_functions.c **** * Function Name: Read Gyro's Data of IMU n
 311:..\src/IMU_functions.c **** *********************************************************************************/
 312:..\src/IMU_functions.c **** void ReadGyro(int n){
 253              		.loc 1 312 0
 254              		.cfi_startproc
 255              		@ args = 0, pretend = 0, frame = 16
 256              		@ frame_needed = 1, uses_anonymous_args = 0
 257              		@ link register save eliminated.
 258 0000 80B4     		push	{r7}
ARM GAS  C:\Users\MattiaCP\AppData\Local\Temp\cc2oS0dM.s 			page 11


 259              		.cfi_def_cfa_offset 4
 260              		.cfi_offset 7, -4
 261 0002 85B0     		sub	sp, sp, #20
 262              		.cfi_def_cfa_offset 24
 263 0004 00AF     		add	r7, sp, #0
 264              		.cfi_def_cfa_register 7
 265 0006 7860     		str	r0, [r7, #4]
 313:..\src/IMU_functions.c **** 	uint8 low=0, high=0;
 266              		.loc 1 313 0
 267 0008 0023     		movs	r3, #0
 268 000a FB73     		strb	r3, [r7, #15]
 269 000c 0023     		movs	r3, #0
 270 000e BB73     		strb	r3, [r7, #14]
 314:..\src/IMU_functions.c ****     /*
 315:..\src/IMU_functions.c **** 	int row = n;
 316:..\src/IMU_functions.c **** 	
 317:..\src/IMU_functions.c **** 	//read X
 318:..\src/IMU_functions.c **** 	low=ReadControlRegister(MPU9250_GYRO_XOUT_L);
 319:..\src/IMU_functions.c ****     SPI_delay();
 320:..\src/IMU_functions.c **** 	high=ReadControlRegister(MPU9250_GYRO_XOUT_H);
 321:..\src/IMU_functions.c ****     SPI_delay();
 322:..\src/IMU_functions.c ****     
 323:..\src/IMU_functions.c **** 	Gyro[row][0] = high; 
 324:..\src/IMU_functions.c **** 	Gyro[row][1] = low;
 325:..\src/IMU_functions.c **** 	low=0, high=0;
 326:..\src/IMU_functions.c ****     
 327:..\src/IMU_functions.c **** 	//read Y
 328:..\src/IMU_functions.c **** 	low=ReadControlRegister(MPU9250_GYRO_YOUT_L);
 329:..\src/IMU_functions.c ****     SPI_delay();
 330:..\src/IMU_functions.c **** 	high=ReadControlRegister(MPU9250_GYRO_YOUT_H);
 331:..\src/IMU_functions.c ****     SPI_delay();
 332:..\src/IMU_functions.c ****     
 333:..\src/IMU_functions.c **** 	Gyro[row][2] = high; 
 334:..\src/IMU_functions.c **** 	Gyro[row][3] = low;
 335:..\src/IMU_functions.c **** 	low=0, high=0;
 336:..\src/IMU_functions.c **** 
 337:..\src/IMU_functions.c **** 	//read Z
 338:..\src/IMU_functions.c ****     low=ReadControlRegister(MPU9250_GYRO_ZOUT_L);
 339:..\src/IMU_functions.c ****     SPI_delay();
 340:..\src/IMU_functions.c **** 	high=ReadControlRegister(MPU9250_GYRO_ZOUT_H);
 341:..\src/IMU_functions.c ****     SPI_delay();
 342:..\src/IMU_functions.c ****     
 343:..\src/IMU_functions.c **** 	Gyro[row][4] = high; 
 344:..\src/IMU_functions.c **** 	Gyro[row][5] = low;        
 345:..\src/IMU_functions.c **** 
 346:..\src/IMU_functions.c **** 	low=0, high=0;*/
 347:..\src/IMU_functions.c **** }
 271              		.loc 1 347 0
 272 0010 00BF     		nop
 273 0012 1437     		adds	r7, r7, #20
 274              		.cfi_def_cfa_offset 4
 275 0014 BD46     		mov	sp, r7
 276              		.cfi_def_cfa_register 13
 277              		@ sp needed
 278 0016 80BC     		pop	{r7}
 279              		.cfi_restore 7
 280              		.cfi_def_cfa_offset 0
ARM GAS  C:\Users\MattiaCP\AppData\Local\Temp\cc2oS0dM.s 			page 12


 281 0018 7047     		bx	lr
 282              		.cfi_endproc
 283              	.LFE71:
 284              		.size	ReadGyro, .-ReadGyro
 285 001a 00BF     		.section	.text.ReadMag,"ax",%progbits
 286              		.align	2
 287              		.global	ReadMag
 288              		.thumb
 289              		.thumb_func
 290              		.type	ReadMag, %function
 291              	ReadMag:
 292              	.LFB72:
 348:..\src/IMU_functions.c **** 
 349:..\src/IMU_functions.c **** /*******************************************************************************
 350:..\src/IMU_functions.c **** * Function Name: Read Compas' Data of IMU n
 351:..\src/IMU_functions.c **** *********************************************************************************/
 352:..\src/IMU_functions.c **** void ReadMag(int n){
 293              		.loc 1 352 0
 294              		.cfi_startproc
 295              		@ args = 0, pretend = 0, frame = 8
 296              		@ frame_needed = 1, uses_anonymous_args = 0
 297              		@ link register save eliminated.
 298 0000 80B4     		push	{r7}
 299              		.cfi_def_cfa_offset 4
 300              		.cfi_offset 7, -4
 301 0002 83B0     		sub	sp, sp, #12
 302              		.cfi_def_cfa_offset 16
 303 0004 00AF     		add	r7, sp, #0
 304              		.cfi_def_cfa_register 7
 305 0006 7860     		str	r0, [r7, #4]
 353:..\src/IMU_functions.c **** 	/*
 354:..\src/IMU_functions.c **** 	uint8 low, high;
 355:..\src/IMU_functions.c **** 	int row = n;	
 356:..\src/IMU_functions.c **** 	//read X
 357:..\src/IMU_functions.c **** 	low = ReadControlRegister(MPU9250_EXT_SENS_DATA_00);
 358:..\src/IMU_functions.c ****     SPI_delay();
 359:..\src/IMU_functions.c **** 	high = ReadControlRegister(MPU9250_EXT_SENS_DATA_01);		
 360:..\src/IMU_functions.c ****     SPI_delay();
 361:..\src/IMU_functions.c ****     
 362:..\src/IMU_functions.c **** 	Mag[row][0] = high; 
 363:..\src/IMU_functions.c **** 	Mag[row][1] = low;
 364:..\src/IMU_functions.c **** 	low=0, high=0;
 365:..\src/IMU_functions.c ****     
 366:..\src/IMU_functions.c **** 	//read Y
 367:..\src/IMU_functions.c **** 	low = ReadControlRegister(MPU9250_EXT_SENS_DATA_02);
 368:..\src/IMU_functions.c ****     SPI_delay();
 369:..\src/IMU_functions.c **** 	high = ReadControlRegister(MPU9250_EXT_SENS_DATA_03);		
 370:..\src/IMU_functions.c ****     SPI_delay();
 371:..\src/IMU_functions.c ****     
 372:..\src/IMU_functions.c **** 	Mag[row][2] = high; 
 373:..\src/IMU_functions.c **** 	Mag[row][3] = low;
 374:..\src/IMU_functions.c **** 	low=0, high=0;
 375:..\src/IMU_functions.c ****     
 376:..\src/IMU_functions.c **** 	//read Z
 377:..\src/IMU_functions.c **** 	low = ReadControlRegister(MPU9250_EXT_SENS_DATA_04);
 378:..\src/IMU_functions.c ****     SPI_delay();
 379:..\src/IMU_functions.c **** 	high = ReadControlRegister(MPU9250_EXT_SENS_DATA_05);
ARM GAS  C:\Users\MattiaCP\AppData\Local\Temp\cc2oS0dM.s 			page 13


 380:..\src/IMU_functions.c ****     SPI_delay();
 381:..\src/IMU_functions.c **** 		
 382:..\src/IMU_functions.c **** 	Mag[row][4] = high; 
 383:..\src/IMU_functions.c **** 	Mag[row][5] = low;
 384:..\src/IMU_functions.c **** 	low=0, high=0;*/
 385:..\src/IMU_functions.c **** }
 306              		.loc 1 385 0
 307 0008 00BF     		nop
 308 000a 0C37     		adds	r7, r7, #12
 309              		.cfi_def_cfa_offset 4
 310 000c BD46     		mov	sp, r7
 311              		.cfi_def_cfa_register 13
 312              		@ sp needed
 313 000e 80BC     		pop	{r7}
 314              		.cfi_restore 7
 315              		.cfi_def_cfa_offset 0
 316 0010 7047     		bx	lr
 317              		.cfi_endproc
 318              	.LFE72:
 319              		.size	ReadMag, .-ReadMag
 320 0012 00BF     		.section	.text.ReadMagCal,"ax",%progbits
 321              		.align	2
 322              		.global	ReadMagCal
 323              		.thumb
 324              		.thumb_func
 325              		.type	ReadMagCal, %function
 326              	ReadMagCal:
 327              	.LFB73:
 386:..\src/IMU_functions.c **** 
 387:..\src/IMU_functions.c **** /********************************************************************************
 388:..\src/IMU_functions.c **** * Function Name: ReadMagCal
 389:..\src/IMU_functions.c **** *********************************************************************************/
 390:..\src/IMU_functions.c **** void ReadMagCal(int n){
 328              		.loc 1 390 0
 329              		.cfi_startproc
 330              		@ args = 0, pretend = 0, frame = 8
 331              		@ frame_needed = 1, uses_anonymous_args = 0
 332              		@ link register save eliminated.
 333 0000 80B4     		push	{r7}
 334              		.cfi_def_cfa_offset 4
 335              		.cfi_offset 7, -4
 336 0002 83B0     		sub	sp, sp, #12
 337              		.cfi_def_cfa_offset 16
 338 0004 00AF     		add	r7, sp, #0
 339              		.cfi_def_cfa_register 7
 340 0006 7860     		str	r0, [r7, #4]
 391:..\src/IMU_functions.c **** 	/*
 392:..\src/IMU_functions.c ****     uint8 read = 0; 
 393:..\src/IMU_functions.c **** 	int row = n;	
 394:..\src/IMU_functions.c **** 	//read X
 395:..\src/IMU_functions.c **** 	read = ReadControlRegister(MPU9250_EXT_SENS_DATA_00);
 396:..\src/IMU_functions.c ****     MagCal[row][0] = read; 
 397:..\src/IMU_functions.c ****     read = 0;
 398:..\src/IMU_functions.c ****     
 399:..\src/IMU_functions.c **** 	//read Y
 400:..\src/IMU_functions.c **** 	read = ReadControlRegister(MPU9250_EXT_SENS_DATA_01);			
 401:..\src/IMU_functions.c **** 	MagCal[row][1] = read; 
ARM GAS  C:\Users\MattiaCP\AppData\Local\Temp\cc2oS0dM.s 			page 14


 402:..\src/IMU_functions.c **** 	read = 0;
 403:..\src/IMU_functions.c ****     
 404:..\src/IMU_functions.c **** 	//read Z
 405:..\src/IMU_functions.c **** 	read = ReadControlRegister(MPU9250_EXT_SENS_DATA_02);			
 406:..\src/IMU_functions.c **** 	MagCal[row][2] = read; 
 407:..\src/IMU_functions.c **** 	read = 0;
 408:..\src/IMU_functions.c ****     */
 409:..\src/IMU_functions.c **** }
 341              		.loc 1 409 0
 342 0008 00BF     		nop
 343 000a 0C37     		adds	r7, r7, #12
 344              		.cfi_def_cfa_offset 4
 345 000c BD46     		mov	sp, r7
 346              		.cfi_def_cfa_register 13
 347              		@ sp needed
 348 000e 80BC     		pop	{r7}
 349              		.cfi_restore 7
 350              		.cfi_def_cfa_offset 0
 351 0010 7047     		bx	lr
 352              		.cfi_endproc
 353              	.LFE73:
 354              		.size	ReadMagCal, .-ReadMagCal
 355 0012 00BF     		.section	.text.ReadQuat,"ax",%progbits
 356              		.align	2
 357              		.global	ReadQuat
 358              		.thumb
 359              		.thumb_func
 360              		.type	ReadQuat, %function
 361              	ReadQuat:
 362              	.LFB74:
 410:..\src/IMU_functions.c ****     
 411:..\src/IMU_functions.c **** /*******************************************************************************
 412:..\src/IMU_functions.c **** * Function Name: Read Quaternion of IMU n
 413:..\src/IMU_functions.c **** *********************************************************************************/
 414:..\src/IMU_functions.c **** void ReadQuat(int n)
 415:..\src/IMU_functions.c **** {/*
 363              		.loc 1 415 0
 364              		.cfi_startproc
 365              		@ args = 0, pretend = 0, frame = 8
 366              		@ frame_needed = 1, uses_anonymous_args = 0
 367              		@ link register save eliminated.
 368 0000 80B4     		push	{r7}
 369              		.cfi_def_cfa_offset 4
 370              		.cfi_offset 7, -4
 371 0002 83B0     		sub	sp, sp, #12
 372              		.cfi_def_cfa_offset 16
 373 0004 00AF     		add	r7, sp, #0
 374              		.cfi_def_cfa_register 7
 375 0006 7860     		str	r0, [r7, #4]
 416:..\src/IMU_functions.c **** 	uint8 i=0;	
 417:..\src/IMU_functions.c ****     int16 var_h;
 418:..\src/IMU_functions.c ****     float qd0,qd1,qd2,qd3;        
 419:..\src/IMU_functions.c ****     float aP[3]; //, fa[3];
 420:..\src/IMU_functions.c ****     float Napla[4],g[4],qL[4];
 421:..\src/IMU_functions.c ****     float time = 0;
 422:..\src/IMU_functions.c ****         
 423:..\src/IMU_functions.c ****     if (N_IMU_Connected == 1) {
ARM GAS  C:\Users\MattiaCP\AppData\Local\Temp\cc2oS0dM.s 			page 15


 424:..\src/IMU_functions.c ****         // Compute quaternion only if 1 IMU is connected
 425:..\src/IMU_functions.c ****         
 426:..\src/IMU_functions.c ****         if (!c_mem.IMU_conf[n][0]) ReadAcc(n);
 427:..\src/IMU_functions.c ****         if (!c_mem.IMU_conf[n][1]) ReadGyro(n);
 428:..\src/IMU_functions.c ****         
 429:..\src/IMU_functions.c ****         // assume cycle time is the same of last function_scheduler execution,
 430:..\src/IMU_functions.c ****         // without adding another counter
 431:..\src/IMU_functions.c ****         time = (float)((uint32)timer_value0 - (uint32)timer_value) / 1000000.0;
 432:..\src/IMU_functions.c ****         
 433:..\src/IMU_functions.c ****         // how N sees P; N is 'Earth' equivalent, P is for sensor
 434:..\src/IMU_functions.c ****         // e.g. N = imu1, P = imu0, how imu1 sees imu0
 435:..\src/IMU_functions.c **** 
 436:..\src/IMU_functions.c ****         var_h = Accel[n][0];
 437:..\src/IMU_functions.c ****         aP[0] = (int16)(var_h << 8 | Accel[n][1]); 
 438:..\src/IMU_functions.c ****         var_h = Accel[n][2];
 439:..\src/IMU_functions.c ****         aP[1] = (int16)(var_h << 8 | Accel[n][3]); 
 440:..\src/IMU_functions.c ****         var_h = Accel[n][4];
 441:..\src/IMU_functions.c ****         aP[2] = (int16)(var_h << 8 | Accel[n][5]);
 442:..\src/IMU_functions.c ****         
 443:..\src/IMU_functions.c ****         g[0] = 0;
 444:..\src/IMU_functions.c ****         var_h = Gyro[n][0];
 445:..\src/IMU_functions.c ****         g[1] = ((int16)(var_h << 8 | Gyro[n][1]))*TICK2GYRO;
 446:..\src/IMU_functions.c ****         if ( fabs(g[1]) < GYRO_THR ) g[1] = 0;
 447:..\src/IMU_functions.c ****         var_h = Gyro[n][2];
 448:..\src/IMU_functions.c ****         g[2] = ((int16)(var_h << 8 | Gyro[n][3]))*TICK2GYRO; 
 449:..\src/IMU_functions.c ****         if ( fabs(g[2]) < GYRO_THR ) g[2] = 0;
 450:..\src/IMU_functions.c ****         var_h = Gyro[n][4];
 451:..\src/IMU_functions.c ****         g[3] = ((int16)(var_h << 8 | Gyro[n][5]))*TICK2GYRO;
 452:..\src/IMU_functions.c ****         if ( fabs(g[3]) < GYRO_THR ) g[3] = 0;
 453:..\src/IMU_functions.c ****         
 454:..\src/IMU_functions.c ****         // Normalize to 1
 455:..\src/IMU_functions.c ****         v3_normalize(aP);
 456:..\src/IMU_functions.c ****         
 457:..\src/IMU_functions.c ****         // Current quaternion assignment
 458:..\src/IMU_functions.c ****         qL[0] = Quat[0];
 459:..\src/IMU_functions.c ****         qL[1] = Quat[1];
 460:..\src/IMU_functions.c ****         qL[2] = Quat[2];
 461:..\src/IMU_functions.c ****         qL[3] = Quat[3];   
 462:..\src/IMU_functions.c ****         
 463:..\src/IMU_functions.c ****         // Napla computation
 464:..\src/IMU_functions.c ****         Napla[0] = (-qL[2]*((2*(qL[1]*qL[3]-qL[0]*qL[2]) - aP[0])) + qL[1]*((2*(qL[0]*qL[1] + qL[2]
 465:..\src/IMU_functions.c ****         Napla[1] = (qL[3]*((2*(qL[1]*qL[3]-qL[0]*qL[2]) - aP[0])) + qL[0]*((2*(qL[0]*qL[1] + qL[2]*
 466:..\src/IMU_functions.c ****         Napla[2] = (-qL[0]*((2*(qL[1]*qL[3]-qL[0]*qL[2]) - aP[0])) +qL[3]*((2*(qL[0]*qL[1] + qL[2]*
 467:..\src/IMU_functions.c ****         Napla[3] = (qL[1]*((2*(qL[1]*qL[3]-qL[0]*qL[2]) - aP[0])) + qL[2]*((2*(qL[0]*qL[1] + qL[2]*
 468:..\src/IMU_functions.c ****         
 469:..\src/IMU_functions.c ****         qd0 = 0.5*(-(qL[1]*g[1] + qL[2]*g[2] + qL[3]*g[3])) - Napla[0];
 470:..\src/IMU_functions.c ****         qd1 = 0.5*(qL[0]*g[1] + (qL[2]*g[3] - qL[3]*g[2])) - Napla[1];
 471:..\src/IMU_functions.c ****         qd2 = 0.5*(qL[0]*g[2] + (qL[3]*g[1] - qL[1]*g[3])) - Napla[2];
 472:..\src/IMU_functions.c ****         qd3 = 0.5*(qL[0]*g[3] + (qL[1]*g[2] - qL[2]*g[1])) - Napla[3];
 473:..\src/IMU_functions.c ****                 
 474:..\src/IMU_functions.c ****         qL[0] = qL[0] + qd0*time;
 475:..\src/IMU_functions.c ****         qL[1] = qL[1] + qd1*time;
 476:..\src/IMU_functions.c ****         qL[2] = qL[2] + qd2*time;
 477:..\src/IMU_functions.c ****         qL[3] = qL[3] + qd3*time;
 478:..\src/IMU_functions.c ****         v4_normalize(qL);
 479:..\src/IMU_functions.c ****         
 480:..\src/IMU_functions.c ****         // Quaternion update      
ARM GAS  C:\Users\MattiaCP\AppData\Local\Temp\cc2oS0dM.s 			page 16


 481:..\src/IMU_functions.c ****         Quat[0] = qL[0];
 482:..\src/IMU_functions.c ****         Quat[1] = qL[1];
 483:..\src/IMU_functions.c ****         Quat[2] = qL[2];
 484:..\src/IMU_functions.c ****         Quat[3] = qL[3];
 485:..\src/IMU_functions.c ****     }
 486:..\src/IMU_functions.c ****     else {
 487:..\src/IMU_functions.c ****         return;
 488:..\src/IMU_functions.c ****     }*/
 489:..\src/IMU_functions.c **** }
 376              		.loc 1 489 0
 377 0008 00BF     		nop
 378 000a 0C37     		adds	r7, r7, #12
 379              		.cfi_def_cfa_offset 4
 380 000c BD46     		mov	sp, r7
 381              		.cfi_def_cfa_register 13
 382              		@ sp needed
 383 000e 80BC     		pop	{r7}
 384              		.cfi_restore 7
 385              		.cfi_def_cfa_offset 0
 386 0010 7047     		bx	lr
 387              		.cfi_endproc
 388              	.LFE74:
 389              		.size	ReadQuat, .-ReadQuat
 390 0012 00BF     		.section	.text.ReadAllIMUs,"ax",%progbits
 391              		.align	2
 392              		.global	ReadAllIMUs
 393              		.thumb
 394              		.thumb_func
 395              		.type	ReadAllIMUs, %function
 396              	ReadAllIMUs:
 397              	.LFB75:
 490:..\src/IMU_functions.c **** 
 491:..\src/IMU_functions.c **** /********************************************************************************
 492:..\src/IMU_functions.c **** * Function Name: ReadAllIMUs
 493:..\src/IMU_functions.c **** *********************************************************************************/
 494:..\src/IMU_functions.c **** void ReadAllIMUs(){
 398              		.loc 1 494 0
 399              		.cfi_startproc
 400              		@ args = 0, pretend = 0, frame = 8
 401              		@ frame_needed = 1, uses_anonymous_args = 0
 402              		@ link register save eliminated.
 403 0000 80B4     		push	{r7}
 404              		.cfi_def_cfa_offset 4
 405              		.cfi_offset 7, -4
 406 0002 83B0     		sub	sp, sp, #12
 407              		.cfi_def_cfa_offset 16
 408 0004 00AF     		add	r7, sp, #0
 409              		.cfi_def_cfa_register 7
 495:..\src/IMU_functions.c ****     static uint8 k_imu = 0;
 496:..\src/IMU_functions.c ****     uint16 tmp = 0, i = 0, j = 0;
 410              		.loc 1 496 0
 411 0006 0023     		movs	r3, #0
 412 0008 FB80     		strh	r3, [r7, #6]	@ movhi
 413 000a 0023     		movs	r3, #0
 414 000c BB80     		strh	r3, [r7, #4]	@ movhi
 415 000e 0023     		movs	r3, #0
 416 0010 7B80     		strh	r3, [r7, #2]	@ movhi
ARM GAS  C:\Users\MattiaCP\AppData\Local\Temp\cc2oS0dM.s 			page 17


 497:..\src/IMU_functions.c ****     int16 value = 0;
 417              		.loc 1 497 0
 418 0012 0023     		movs	r3, #0
 419 0014 3B80     		strh	r3, [r7]	@ movhi
 498:..\src/IMU_functions.c **** /*
 499:..\src/IMU_functions.c ****     for (k_imu = 0; k_imu < N_IMU_Connected; k_imu++){ 
 500:..\src/IMU_functions.c ****         // Read k_imu IMU
 501:..\src/IMU_functions.c ****         ChipSelector(IMU_connected[k_imu]);
 502:..\src/IMU_functions.c ****         ReadIMU(IMU_connected[k_imu]);
 503:..\src/IMU_functions.c ****         
 504:..\src/IMU_functions.c ****         for (j = 0; j < 3; j++) {
 505:..\src/IMU_functions.c ****             tmp = Accel[IMU_connected[k_imu]][2*j];
 506:..\src/IMU_functions.c ****             g_imuNew[k_imu].accel_value[j] = (int16)(tmp<<8 | Accel[IMU_connected[k_imu]][2*j + 1])
 507:..\src/IMU_functions.c ****         }
 508:..\src/IMU_functions.c ****         
 509:..\src/IMU_functions.c ****         for (j = 0; j < 3; j++) {
 510:..\src/IMU_functions.c ****             tmp = Gyro[IMU_connected[k_imu]][2*j];
 511:..\src/IMU_functions.c ****             g_imuNew[k_imu].gyro_value[j] = (int16)(tmp<<8 | Gyro[IMU_connected[k_imu]][2*j + 1]);
 512:..\src/IMU_functions.c ****         }
 513:..\src/IMU_functions.c ****                 
 514:..\src/IMU_functions.c ****         for (j = 0; j < 3; j++) {
 515:..\src/IMU_functions.c ****             tmp = Mag[IMU_connected[k_imu]][2*j];
 516:..\src/IMU_functions.c ****             g_imuNew[k_imu].mag_value[j] = (int16)(tmp<<8 | Mag[IMU_connected[k_imu]][2*j + 1]);
 517:..\src/IMU_functions.c ****         }  
 518:..\src/IMU_functions.c ****         
 519:..\src/IMU_functions.c ****         // Save quaternion only for first IMU
 520:..\src/IMU_functions.c ****         for (j = 0; k_imu == 0 && j < 4; j++) {
 521:..\src/IMU_functions.c ****             g_imuNew[k_imu].quat_value[j] = (float)Quat[j];
 522:..\src/IMU_functions.c ****         }
 523:..\src/IMU_functions.c ****         
 524:..\src/IMU_functions.c ****         tmp = Temp[IMU_connected[k_imu]][0];
 525:..\src/IMU_functions.c ****         g_imuNew[k_imu].temp_value = (int16)(tmp<<8 | Temp[IMU_connected[k_imu]][1]);
 526:..\src/IMU_functions.c ****     }*/
 527:..\src/IMU_functions.c **** }
 420              		.loc 1 527 0
 421 0016 00BF     		nop
 422 0018 0C37     		adds	r7, r7, #12
 423              		.cfi_def_cfa_offset 4
 424 001a BD46     		mov	sp, r7
 425              		.cfi_def_cfa_register 13
 426              		@ sp needed
 427 001c 80BC     		pop	{r7}
 428              		.cfi_restore 7
 429              		.cfi_def_cfa_offset 0
 430 001e 7047     		bx	lr
 431              		.cfi_endproc
 432              	.LFE75:
 433              		.size	ReadAllIMUs, .-ReadAllIMUs
 434              		.section	.text.ReadTemp,"ax",%progbits
 435              		.align	2
 436              		.global	ReadTemp
 437              		.thumb
 438              		.thumb_func
 439              		.type	ReadTemp, %function
 440              	ReadTemp:
 441              	.LFB76:
 528:..\src/IMU_functions.c **** 
ARM GAS  C:\Users\MattiaCP\AppData\Local\Temp\cc2oS0dM.s 			page 18


 529:..\src/IMU_functions.c **** /*******************************************************************************
 530:..\src/IMU_functions.c **** * Function Name: Read Temperature Data of IMU n
 531:..\src/IMU_functions.c **** *********************************************************************************/
 532:..\src/IMU_functions.c **** void ReadTemp(int n)
 533:..\src/IMU_functions.c **** {
 442              		.loc 1 533 0
 443              		.cfi_startproc
 444              		@ args = 0, pretend = 0, frame = 16
 445              		@ frame_needed = 1, uses_anonymous_args = 0
 446              		@ link register save eliminated.
 447 0000 80B4     		push	{r7}
 448              		.cfi_def_cfa_offset 4
 449              		.cfi_offset 7, -4
 450 0002 85B0     		sub	sp, sp, #20
 451              		.cfi_def_cfa_offset 24
 452 0004 00AF     		add	r7, sp, #0
 453              		.cfi_def_cfa_register 7
 454 0006 7860     		str	r0, [r7, #4]
 534:..\src/IMU_functions.c **** 	uint8 low=0, high=0;	
 455              		.loc 1 534 0
 456 0008 0023     		movs	r3, #0
 457 000a FB73     		strb	r3, [r7, #15]
 458 000c 0023     		movs	r3, #0
 459 000e BB73     		strb	r3, [r7, #14]
 535:..\src/IMU_functions.c **** 	int row = n;
 460              		.loc 1 535 0
 461 0010 7B68     		ldr	r3, [r7, #4]
 462 0012 BB60     		str	r3, [r7, #8]
 536:..\src/IMU_functions.c **** 	/*
 537:..\src/IMU_functions.c **** 	//read X
 538:..\src/IMU_functions.c ****     low=ReadControlRegister(MPU9250_TEMP_OUT_L);
 539:..\src/IMU_functions.c ****     SPI_delay();
 540:..\src/IMU_functions.c **** 	high=ReadControlRegister(MPU9250_TEMP_OUT_H);
 541:..\src/IMU_functions.c ****     SPI_delay();
 542:..\src/IMU_functions.c **** 
 543:..\src/IMU_functions.c **** 	Temp[row][0] = high; 
 544:..\src/IMU_functions.c **** 	Temp[row][1] = low; 
 545:..\src/IMU_functions.c **** 	low=0, high=0;*/
 546:..\src/IMU_functions.c **** }
 463              		.loc 1 546 0
 464 0014 00BF     		nop
 465 0016 1437     		adds	r7, r7, #20
 466              		.cfi_def_cfa_offset 4
 467 0018 BD46     		mov	sp, r7
 468              		.cfi_def_cfa_register 13
 469              		@ sp needed
 470 001a 80BC     		pop	{r7}
 471              		.cfi_restore 7
 472              		.cfi_def_cfa_offset 0
 473 001c 7047     		bx	lr
 474              		.cfi_endproc
 475              	.LFE76:
 476              		.size	ReadTemp, .-ReadTemp
 477 001e 00BF     		.section	.text.WriteControlRegister,"ax",%progbits
 478              		.align	2
 479              		.global	WriteControlRegister
 480              		.thumb
ARM GAS  C:\Users\MattiaCP\AppData\Local\Temp\cc2oS0dM.s 			page 19


 481              		.thumb_func
 482              		.type	WriteControlRegister, %function
 483              	WriteControlRegister:
 484              	.LFB77:
 547:..\src/IMU_functions.c **** 
 548:..\src/IMU_functions.c **** /********************************** *********************************************
 549:..\src/IMU_functions.c **** * Function Name: Write Control Register
 550:..\src/IMU_functions.c **** *********************************************************************************/
 551:..\src/IMU_functions.c **** void WriteControlRegister(uint8 address, uint8 dta){
 485              		.loc 1 551 0
 486              		.cfi_startproc
 487              		@ args = 0, pretend = 0, frame = 8
 488              		@ frame_needed = 1, uses_anonymous_args = 0
 489              		@ link register save eliminated.
 490 0000 80B4     		push	{r7}
 491              		.cfi_def_cfa_offset 4
 492              		.cfi_offset 7, -4
 493 0002 83B0     		sub	sp, sp, #12
 494              		.cfi_def_cfa_offset 16
 495 0004 00AF     		add	r7, sp, #0
 496              		.cfi_def_cfa_register 7
 497 0006 0346     		mov	r3, r0
 498 0008 0A46     		mov	r2, r1
 499 000a FB71     		strb	r3, [r7, #7]
 500 000c 1346     		mov	r3, r2
 501 000e BB71     		strb	r3, [r7, #6]
 552:..\src/IMU_functions.c **** 	/*
 553:..\src/IMU_functions.c **** 	SPI_IMU_ClearRxBuffer();
 554:..\src/IMU_functions.c **** 	SPI_IMU_ClearTxBuffer();
 555:..\src/IMU_functions.c **** 	SPI_IMU_ClearFIFO();
 556:..\src/IMU_functions.c **** 	SPI_IMU_WriteByte(MPU9250_WCR | address);
 557:..\src/IMU_functions.c **** 	while(!( SPI_IMU_ReadStatus() & SPI_IMU_STS_TX_FIFO_EMPTY));		
 558:..\src/IMU_functions.c **** 	SPI_IMU_WriteByte(dta);
 559:..\src/IMU_functions.c **** 	while(!( SPI_IMU_ReadStatus() & SPI_IMU_STS_TX_FIFO_EMPTY));*/
 560:..\src/IMU_functions.c **** }
 502              		.loc 1 560 0
 503 0010 00BF     		nop
 504 0012 0C37     		adds	r7, r7, #12
 505              		.cfi_def_cfa_offset 4
 506 0014 BD46     		mov	sp, r7
 507              		.cfi_def_cfa_register 13
 508              		@ sp needed
 509 0016 80BC     		pop	{r7}
 510              		.cfi_restore 7
 511              		.cfi_def_cfa_offset 0
 512 0018 7047     		bx	lr
 513              		.cfi_endproc
 514              	.LFE77:
 515              		.size	WriteControlRegister, .-WriteControlRegister
 516 001a 00BF     		.section	.text.ReadControlRegister,"ax",%progbits
 517              		.align	2
 518              		.global	ReadControlRegister
 519              		.thumb
 520              		.thumb_func
 521              		.type	ReadControlRegister, %function
 522              	ReadControlRegister:
 523              	.LFB78:
ARM GAS  C:\Users\MattiaCP\AppData\Local\Temp\cc2oS0dM.s 			page 20


 561:..\src/IMU_functions.c **** 
 562:..\src/IMU_functions.c **** /*******************************************************************************
 563:..\src/IMU_functions.c **** * Function Name: Read Control Register
 564:..\src/IMU_functions.c **** *********************************************************************************/
 565:..\src/IMU_functions.c **** uint8 ReadControlRegister(uint8 address){
 524              		.loc 1 565 0
 525              		.cfi_startproc
 526              		@ args = 0, pretend = 0, frame = 8
 527              		@ frame_needed = 1, uses_anonymous_args = 0
 528              		@ link register save eliminated.
 529 0000 80B4     		push	{r7}
 530              		.cfi_def_cfa_offset 4
 531              		.cfi_offset 7, -4
 532 0002 83B0     		sub	sp, sp, #12
 533              		.cfi_def_cfa_offset 16
 534 0004 00AF     		add	r7, sp, #0
 535              		.cfi_def_cfa_register 7
 536 0006 0346     		mov	r3, r0
 537 0008 FB71     		strb	r3, [r7, #7]
 566:..\src/IMU_functions.c **** 	uint8 controlreg;
 567:..\src/IMU_functions.c **** 	/*
 568:..\src/IMU_functions.c **** 	SPI_IMU_WriteByte(MPU9250_RCR | address);
 569:..\src/IMU_functions.c ****     SPI_IMU_WriteByte(0x00);
 570:..\src/IMU_functions.c **** 	while(!( SPI_IMU_ReadStatus() & SPI_IMU_STS_SPI_DONE));
 571:..\src/IMU_functions.c **** 	controlreg = SPI_IMU_ReadByte();        //real data
 572:..\src/IMU_functions.c **** 	return controlreg;*/
 573:..\src/IMU_functions.c **** }
 538              		.loc 1 573 0
 539 000a 00BF     		nop
 540 000c 1846     		mov	r0, r3
 541 000e 0C37     		adds	r7, r7, #12
 542              		.cfi_def_cfa_offset 4
 543 0010 BD46     		mov	sp, r7
 544              		.cfi_def_cfa_register 13
 545              		@ sp needed
 546 0012 80BC     		pop	{r7}
 547              		.cfi_restore 7
 548              		.cfi_def_cfa_offset 0
 549 0014 7047     		bx	lr
 550              		.cfi_endproc
 551              	.LFE78:
 552              		.size	ReadControlRegister, .-ReadControlRegister
 553 0016 00BF     		.section	.text.SPI_delay,"ax",%progbits
 554              		.align	2
 555              		.global	SPI_delay
 556              		.thumb
 557              		.thumb_func
 558              		.type	SPI_delay, %function
 559              	SPI_delay:
 560              	.LFB79:
 574:..\src/IMU_functions.c **** 
 575:..\src/IMU_functions.c **** /*******************************************************************************
 576:..\src/IMU_functions.c **** * Function Name: SPI delay
 577:..\src/IMU_functions.c **** *********************************************************************************/
 578:..\src/IMU_functions.c **** void SPI_delay(){
 561              		.loc 1 578 0
 562              		.cfi_startproc
ARM GAS  C:\Users\MattiaCP\AppData\Local\Temp\cc2oS0dM.s 			page 21


 563              		@ args = 0, pretend = 0, frame = 0
 564              		@ frame_needed = 1, uses_anonymous_args = 0
 565              		@ link register save eliminated.
 566 0000 80B4     		push	{r7}
 567              		.cfi_def_cfa_offset 4
 568              		.cfi_offset 7, -4
 569 0002 00AF     		add	r7, sp, #0
 570              		.cfi_def_cfa_register 7
 579:..\src/IMU_functions.c ****   /*  switch( c_mem.SPI_read_delay ) {
 580:..\src/IMU_functions.c ****         case 1:     // Low
 581:..\src/IMU_functions.c ****             CyDelayUs((uint16)SPI_DELAY_LOW);
 582:..\src/IMU_functions.c ****             break;
 583:..\src/IMU_functions.c ****         case 2:     // High
 584:..\src/IMU_functions.c ****             CyDelayUs((uint16)SPI_DELAY_HIGH);
 585:..\src/IMU_functions.c ****             break;
 586:..\src/IMU_functions.c ****         default:    // None
 587:..\src/IMU_functions.c ****             break;
 588:..\src/IMU_functions.c ****     }*/
 589:..\src/IMU_functions.c **** }
 571              		.loc 1 589 0
 572 0004 00BF     		nop
 573 0006 BD46     		mov	sp, r7
 574              		.cfi_def_cfa_register 13
 575              		@ sp needed
 576 0008 80BC     		pop	{r7}
 577              		.cfi_restore 7
 578              		.cfi_def_cfa_offset 0
 579 000a 7047     		bx	lr
 580              		.cfi_endproc
 581              	.LFE79:
 582              		.size	SPI_delay, .-SPI_delay
 583              		.section	.text.DS1302_write,"ax",%progbits
 584              		.align	2
 585              		.global	DS1302_write
 586              		.thumb
 587              		.thumb_func
 588              		.type	DS1302_write, %function
 589              	DS1302_write:
 590              	.LFB80:
 590:..\src/IMU_functions.c **** 
 591:..\src/IMU_functions.c **** 
 592:..\src/IMU_functions.c **** // --------------------------------------------------------
 593:..\src/IMU_functions.c **** // DS1302_write
 594:..\src/IMU_functions.c **** void DS1302_write(uint8 address, uint8 data_wr) {
 591              		.loc 1 594 0
 592              		.cfi_startproc
 593              		@ args = 0, pretend = 0, frame = 8
 594              		@ frame_needed = 1, uses_anonymous_args = 0
 595 0000 80B5     		push	{r7, lr}
 596              		.cfi_def_cfa_offset 8
 597              		.cfi_offset 7, -8
 598              		.cfi_offset 14, -4
 599 0002 82B0     		sub	sp, sp, #8
 600              		.cfi_def_cfa_offset 16
 601 0004 00AF     		add	r7, sp, #0
 602              		.cfi_def_cfa_register 7
 603 0006 0346     		mov	r3, r0
ARM GAS  C:\Users\MattiaCP\AppData\Local\Temp\cc2oS0dM.s 			page 22


 604 0008 0A46     		mov	r2, r1
 605 000a FB71     		strb	r3, [r7, #7]
 606 000c 1346     		mov	r3, r2
 607 000e BB71     		strb	r3, [r7, #6]
 595:..\src/IMU_functions.c **** 
 596:..\src/IMU_functions.c ****   RTC_Clock_Write(0);  
 608              		.loc 1 596 0
 609 0010 0020     		movs	r0, #0
 610 0012 FFF7FEFF 		bl	RTC_Clock_Write
 597:..\src/IMU_functions.c ****   RTC_CS_Write(1);
 611              		.loc 1 597 0
 612 0016 0120     		movs	r0, #1
 613 0018 FFF7FEFF 		bl	RTC_CS_Write
 598:..\src/IMU_functions.c ****   CyDelayUs(5); // [GS] 
 614              		.loc 1 598 0
 615 001c 0520     		movs	r0, #5
 616 001e FFF7FEFF 		bl	CyDelayUs
 599:..\src/IMU_functions.c ****   DS1302_writeByte(address);
 617              		.loc 1 599 0
 618 0022 FB79     		ldrb	r3, [r7, #7]	@ zero_extendqisi2
 619 0024 1846     		mov	r0, r3
 620 0026 FFF7FEFF 		bl	DS1302_writeByte
 600:..\src/IMU_functions.c ****   DS1302_writeByte(data_wr);
 621              		.loc 1 600 0
 622 002a BB79     		ldrb	r3, [r7, #6]	@ zero_extendqisi2
 623 002c 1846     		mov	r0, r3
 624 002e FFF7FEFF 		bl	DS1302_writeByte
 601:..\src/IMU_functions.c ****   
 602:..\src/IMU_functions.c ****   RTC_CS_Write(0);
 625              		.loc 1 602 0
 626 0032 0020     		movs	r0, #0
 627 0034 FFF7FEFF 		bl	RTC_CS_Write
 603:..\src/IMU_functions.c ****   CyDelayUs(5); // [GS] 
 628              		.loc 1 603 0
 629 0038 0520     		movs	r0, #5
 630 003a FFF7FEFF 		bl	CyDelayUs
 604:..\src/IMU_functions.c **** }
 631              		.loc 1 604 0
 632 003e 00BF     		nop
 633 0040 0837     		adds	r7, r7, #8
 634              		.cfi_def_cfa_offset 8
 635 0042 BD46     		mov	sp, r7
 636              		.cfi_def_cfa_register 13
 637              		@ sp needed
 638 0044 80BD     		pop	{r7, pc}
 639              		.cfi_endproc
 640              	.LFE80:
 641              		.size	DS1302_write, .-DS1302_write
 642 0046 00BF     		.section	.text.DS1302_writeByte,"ax",%progbits
 643              		.align	2
 644              		.global	DS1302_writeByte
 645              		.thumb
 646              		.thumb_func
 647              		.type	DS1302_writeByte, %function
 648              	DS1302_writeByte:
 649              	.LFB81:
 605:..\src/IMU_functions.c **** 
ARM GAS  C:\Users\MattiaCP\AppData\Local\Temp\cc2oS0dM.s 			page 23


 606:..\src/IMU_functions.c **** void DS1302_writeByte(uint8 data_wr) {
 650              		.loc 1 606 0
 651              		.cfi_startproc
 652              		@ args = 0, pretend = 0, frame = 8
 653              		@ frame_needed = 1, uses_anonymous_args = 0
 654 0000 80B5     		push	{r7, lr}
 655              		.cfi_def_cfa_offset 8
 656              		.cfi_offset 7, -8
 657              		.cfi_offset 14, -4
 658 0002 82B0     		sub	sp, sp, #8
 659              		.cfi_def_cfa_offset 16
 660 0004 00AF     		add	r7, sp, #0
 661              		.cfi_def_cfa_register 7
 662 0006 0346     		mov	r3, r0
 663 0008 FB71     		strb	r3, [r7, #7]
 607:..\src/IMU_functions.c ****   
 608:..\src/IMU_functions.c ****   shiftOut_RTC(data_wr);
 664              		.loc 1 608 0
 665 000a FB79     		ldrb	r3, [r7, #7]	@ zero_extendqisi2
 666 000c 1846     		mov	r0, r3
 667 000e FFF7FEFF 		bl	shiftOut_RTC
 609:..\src/IMU_functions.c **** 
 610:..\src/IMU_functions.c **** }
 668              		.loc 1 610 0
 669 0012 00BF     		nop
 670 0014 0837     		adds	r7, r7, #8
 671              		.cfi_def_cfa_offset 8
 672 0016 BD46     		mov	sp, r7
 673              		.cfi_def_cfa_register 13
 674              		@ sp needed
 675 0018 80BD     		pop	{r7, pc}
 676              		.cfi_endproc
 677              	.LFE81:
 678              		.size	DS1302_writeByte, .-DS1302_writeByte
 679 001a 00BF     		.section	.text.DS1302_read,"ax",%progbits
 680              		.align	2
 681              		.global	DS1302_read
 682              		.thumb
 683              		.thumb_func
 684              		.type	DS1302_read, %function
 685              	DS1302_read:
 686              	.LFB82:
 611:..\src/IMU_functions.c **** 
 612:..\src/IMU_functions.c **** uint8 DS1302_read(uint8 address) {
 687              		.loc 1 612 0
 688              		.cfi_startproc
 689              		@ args = 0, pretend = 0, frame = 16
 690              		@ frame_needed = 1, uses_anonymous_args = 0
 691 0000 80B5     		push	{r7, lr}
 692              		.cfi_def_cfa_offset 8
 693              		.cfi_offset 7, -8
 694              		.cfi_offset 14, -4
 695 0002 84B0     		sub	sp, sp, #16
 696              		.cfi_def_cfa_offset 24
 697 0004 00AF     		add	r7, sp, #0
 698              		.cfi_def_cfa_register 7
 699 0006 0346     		mov	r3, r0
ARM GAS  C:\Users\MattiaCP\AppData\Local\Temp\cc2oS0dM.s 			page 24


 700 0008 FB71     		strb	r3, [r7, #7]
 613:..\src/IMU_functions.c **** 
 614:..\src/IMU_functions.c ****   uint8 readValue;
 615:..\src/IMU_functions.c ****   RTC_Clock_Write(0); 
 701              		.loc 1 615 0
 702 000a 0020     		movs	r0, #0
 703 000c FFF7FEFF 		bl	RTC_Clock_Write
 616:..\src/IMU_functions.c ****   RTC_CS_Write(1);
 704              		.loc 1 616 0
 705 0010 0120     		movs	r0, #1
 706 0012 FFF7FEFF 		bl	RTC_CS_Write
 617:..\src/IMU_functions.c ****   CyDelayUs(5); // [GS]
 707              		.loc 1 617 0
 708 0016 0520     		movs	r0, #5
 709 0018 FFF7FEFF 		bl	CyDelayUs
 618:..\src/IMU_functions.c ****   DS1302_writeByte(address);
 710              		.loc 1 618 0
 711 001c FB79     		ldrb	r3, [r7, #7]	@ zero_extendqisi2
 712 001e 1846     		mov	r0, r3
 713 0020 FFF7FEFF 		bl	DS1302_writeByte
 619:..\src/IMU_functions.c ****   readValue = DS1302_readByte();
 714              		.loc 1 619 0
 715 0024 FFF7FEFF 		bl	DS1302_readByte
 716 0028 0346     		mov	r3, r0
 717 002a FB73     		strb	r3, [r7, #15]
 620:..\src/IMU_functions.c ****   RTC_CS_Write(0);
 718              		.loc 1 620 0
 719 002c 0020     		movs	r0, #0
 720 002e FFF7FEFF 		bl	RTC_CS_Write
 621:..\src/IMU_functions.c ****   CyDelayUs(5); // [GS]
 721              		.loc 1 621 0
 722 0032 0520     		movs	r0, #5
 723 0034 FFF7FEFF 		bl	CyDelayUs
 622:..\src/IMU_functions.c ****   return readValue;
 724              		.loc 1 622 0
 725 0038 FB7B     		ldrb	r3, [r7, #15]	@ zero_extendqisi2
 623:..\src/IMU_functions.c ****   
 624:..\src/IMU_functions.c **** }
 726              		.loc 1 624 0
 727 003a 1846     		mov	r0, r3
 728 003c 1037     		adds	r7, r7, #16
 729              		.cfi_def_cfa_offset 8
 730 003e BD46     		mov	sp, r7
 731              		.cfi_def_cfa_register 13
 732              		@ sp needed
 733 0040 80BD     		pop	{r7, pc}
 734              		.cfi_endproc
 735              	.LFE82:
 736              		.size	DS1302_read, .-DS1302_read
 737 0042 00BF     		.section	.text.DS1302_readByte,"ax",%progbits
 738              		.align	2
 739              		.global	DS1302_readByte
 740              		.thumb
 741              		.thumb_func
 742              		.type	DS1302_readByte, %function
 743              	DS1302_readByte:
 744              	.LFB83:
ARM GAS  C:\Users\MattiaCP\AppData\Local\Temp\cc2oS0dM.s 			page 25


 625:..\src/IMU_functions.c **** 
 626:..\src/IMU_functions.c **** uint8 DS1302_readByte() {
 745              		.loc 1 626 0
 746              		.cfi_startproc
 747              		@ args = 0, pretend = 0, frame = 16
 748              		@ frame_needed = 1, uses_anonymous_args = 0
 749 0000 80B5     		push	{r7, lr}
 750              		.cfi_def_cfa_offset 8
 751              		.cfi_offset 7, -8
 752              		.cfi_offset 14, -4
 753 0002 84B0     		sub	sp, sp, #16
 754              		.cfi_def_cfa_offset 24
 755 0004 00AF     		add	r7, sp, #0
 756              		.cfi_def_cfa_register 7
 627:..\src/IMU_functions.c **** 
 628:..\src/IMU_functions.c ****   uint8 value = 0;
 757              		.loc 1 628 0
 758 0006 0023     		movs	r3, #0
 759 0008 FB73     		strb	r3, [r7, #15]
 629:..\src/IMU_functions.c ****   uint8 currentBit = 0;
 760              		.loc 1 629 0
 761 000a 0023     		movs	r3, #0
 762 000c FB71     		strb	r3, [r7, #7]
 630:..\src/IMU_functions.c ****   int i=0;
 763              		.loc 1 630 0
 764 000e 0023     		movs	r3, #0
 765 0010 BB60     		str	r3, [r7, #8]
 631:..\src/IMU_functions.c ****   for (i = 0; i < 8; ++i)
 766              		.loc 1 631 0
 767 0012 0023     		movs	r3, #0
 768 0014 BB60     		str	r3, [r7, #8]
 769 0016 19E0     		b	.L22
 770              	.L23:
 632:..\src/IMU_functions.c ****   {
 633:..\src/IMU_functions.c ****     currentBit = RTC_IN_Read();
 771              		.loc 1 633 0 discriminator 3
 772 0018 FFF7FEFF 		bl	RTC_IN_Read
 773 001c 0346     		mov	r3, r0
 774 001e FB71     		strb	r3, [r7, #7]
 634:..\src/IMU_functions.c ****     value |= (currentBit << i);
 775              		.loc 1 634 0 discriminator 3
 776 0020 FA79     		ldrb	r2, [r7, #7]	@ zero_extendqisi2
 777 0022 BB68     		ldr	r3, [r7, #8]
 778 0024 02FA03F3 		lsl	r3, r2, r3
 779 0028 5AB2     		sxtb	r2, r3
 780 002a 97F90F30 		ldrsb	r3, [r7, #15]
 781 002e 1343     		orrs	r3, r3, r2
 782 0030 5BB2     		sxtb	r3, r3
 783 0032 FB73     		strb	r3, [r7, #15]
 635:..\src/IMU_functions.c ****     RTC_Clock_Write(1);
 784              		.loc 1 635 0 discriminator 3
 785 0034 0120     		movs	r0, #1
 786 0036 FFF7FEFF 		bl	RTC_Clock_Write
 636:..\src/IMU_functions.c ****     CyDelayUs(1);
 787              		.loc 1 636 0 discriminator 3
 788 003a 0120     		movs	r0, #1
 789 003c FFF7FEFF 		bl	CyDelayUs
ARM GAS  C:\Users\MattiaCP\AppData\Local\Temp\cc2oS0dM.s 			page 26


 637:..\src/IMU_functions.c ****     RTC_Clock_Write(0);
 790              		.loc 1 637 0 discriminator 3
 791 0040 0020     		movs	r0, #0
 792 0042 FFF7FEFF 		bl	RTC_Clock_Write
 631:..\src/IMU_functions.c ****   {
 793              		.loc 1 631 0 discriminator 3
 794 0046 BB68     		ldr	r3, [r7, #8]
 795 0048 0133     		adds	r3, r3, #1
 796 004a BB60     		str	r3, [r7, #8]
 797              	.L22:
 631:..\src/IMU_functions.c ****   {
 798              		.loc 1 631 0 is_stmt 0 discriminator 1
 799 004c BB68     		ldr	r3, [r7, #8]
 800 004e 072B     		cmp	r3, #7
 801 0050 E2DD     		ble	.L23
 638:..\src/IMU_functions.c ****   }
 639:..\src/IMU_functions.c ****   return value;
 802              		.loc 1 639 0 is_stmt 1
 803 0052 FB7B     		ldrb	r3, [r7, #15]	@ zero_extendqisi2
 640:..\src/IMU_functions.c **** }
 804              		.loc 1 640 0
 805 0054 1846     		mov	r0, r3
 806 0056 1037     		adds	r7, r7, #16
 807              		.cfi_def_cfa_offset 8
 808 0058 BD46     		mov	sp, r7
 809              		.cfi_def_cfa_register 13
 810              		@ sp needed
 811 005a 80BD     		pop	{r7, pc}
 812              		.cfi_endproc
 813              	.LFE83:
 814              		.size	DS1302_readByte, .-DS1302_readByte
 815              		.section	.text.shiftOut_RTC,"ax",%progbits
 816              		.align	2
 817              		.global	shiftOut_RTC
 818              		.thumb
 819              		.thumb_func
 820              		.type	shiftOut_RTC, %function
 821              	shiftOut_RTC:
 822              	.LFB84:
 641:..\src/IMU_functions.c **** 
 642:..\src/IMU_functions.c **** void shiftOut_RTC(uint8 val)
 643:..\src/IMU_functions.c **** {
 823              		.loc 1 643 0
 824              		.cfi_startproc
 825              		@ args = 0, pretend = 0, frame = 16
 826              		@ frame_needed = 1, uses_anonymous_args = 0
 827 0000 80B5     		push	{r7, lr}
 828              		.cfi_def_cfa_offset 8
 829              		.cfi_offset 7, -8
 830              		.cfi_offset 14, -4
 831 0002 84B0     		sub	sp, sp, #16
 832              		.cfi_def_cfa_offset 24
 833 0004 00AF     		add	r7, sp, #0
 834              		.cfi_def_cfa_register 7
 835 0006 0346     		mov	r3, r0
 836 0008 FB71     		strb	r3, [r7, #7]
 644:..\src/IMU_functions.c ****     uint8 i;
ARM GAS  C:\Users\MattiaCP\AppData\Local\Temp\cc2oS0dM.s 			page 27


 645:..\src/IMU_functions.c ****     for (i = 0; i < 8; i++)  {
 837              		.loc 1 645 0
 838 000a 0023     		movs	r3, #0
 839 000c FB73     		strb	r3, [r7, #15]
 840 000e 16E0     		b	.L26
 841              	.L27:
 646:..\src/IMU_functions.c ****         RTC_OUT_Write(!!(val & (1 << i)));
 842              		.loc 1 646 0 discriminator 3
 843 0010 FA79     		ldrb	r2, [r7, #7]	@ zero_extendqisi2
 844 0012 FB7B     		ldrb	r3, [r7, #15]	@ zero_extendqisi2
 845 0014 42FA03F3 		asr	r3, r2, r3
 846 0018 03F00103 		and	r3, r3, #1
 847 001c 002B     		cmp	r3, #0
 848 001e 14BF     		ite	ne
 849 0020 0123     		movne	r3, #1
 850 0022 0023     		moveq	r3, #0
 851 0024 DBB2     		uxtb	r3, r3
 852 0026 1846     		mov	r0, r3
 853 0028 FFF7FEFF 		bl	RTC_OUT_Write
 647:..\src/IMU_functions.c ****         RTC_Clock_Write(1);
 854              		.loc 1 647 0 discriminator 3
 855 002c 0120     		movs	r0, #1
 856 002e FFF7FEFF 		bl	RTC_Clock_Write
 648:..\src/IMU_functions.c ****         RTC_Clock_Write(0);
 857              		.loc 1 648 0 discriminator 3
 858 0032 0020     		movs	r0, #0
 859 0034 FFF7FEFF 		bl	RTC_Clock_Write
 645:..\src/IMU_functions.c ****         RTC_OUT_Write(!!(val & (1 << i)));
 860              		.loc 1 645 0 discriminator 3
 861 0038 FB7B     		ldrb	r3, [r7, #15]	@ zero_extendqisi2
 862 003a 0133     		adds	r3, r3, #1
 863 003c FB73     		strb	r3, [r7, #15]
 864              	.L26:
 645:..\src/IMU_functions.c ****         RTC_OUT_Write(!!(val & (1 << i)));
 865              		.loc 1 645 0 is_stmt 0 discriminator 1
 866 003e FB7B     		ldrb	r3, [r7, #15]	@ zero_extendqisi2
 867 0040 072B     		cmp	r3, #7
 868 0042 E5D9     		bls	.L27
 649:..\src/IMU_functions.c ****     }
 650:..\src/IMU_functions.c **** }
 869              		.loc 1 650 0 is_stmt 1
 870 0044 00BF     		nop
 871 0046 1037     		adds	r7, r7, #16
 872              		.cfi_def_cfa_offset 8
 873 0048 BD46     		mov	sp, r7
 874              		.cfi_def_cfa_register 13
 875              		@ sp needed
 876 004a 80BD     		pop	{r7, pc}
 877              		.cfi_endproc
 878              	.LFE84:
 879              		.size	shiftOut_RTC, .-shiftOut_RTC
 880              		.bss
 881              	k_imu.8951:
 882 0000 00       		.space	1
 883              		.text
 884              	.Letext0:
 885              		.file 2 "c:\\program files (x86)\\cypress\\psoc creator\\4.2\\psoc creator\\import\\gnu\\arm\\5.4.
ARM GAS  C:\Users\MattiaCP\AppData\Local\Temp\cc2oS0dM.s 			page 28


 886              		.file 3 "c:\\program files (x86)\\cypress\\psoc creator\\4.2\\psoc creator\\import\\gnu\\arm\\5.4.
 887              		.file 4 "Generated_Source\\PSoC5/cytypes.h"
 888              		.file 5 "Generated_Source\\PSoC5/core_cm3.h"