ARM GAS  C:\Users\MattiaCP\AppData\Local\Temp\ccCFTaFS.s 			page 1


   1              		.syntax unified
   2              		.cpu cortex-m3
   3              		.fpu softvfp
   4              		.eabi_attribute 20, 1
   5              		.eabi_attribute 21, 1
   6              		.eabi_attribute 23, 3
   7              		.eabi_attribute 24, 1
   8              		.eabi_attribute 25, 1
   9              		.eabi_attribute 26, 1
  10              		.eabi_attribute 30, 6
  11              		.eabi_attribute 34, 1
  12              		.eabi_attribute 18, 4
  13              		.thumb
  14              		.syntax unified
  15              		.file	"interruptions.c"
  16              		.text
  17              	.Ltext0:
  18              		.cfi_sections	.debug_frame
  19              		.section	.rodata
  20              		.align	2
  21              		.type	pwm_preload_values, %object
  22              		.size	pwm_preload_values, 29
  23              	pwm_preload_values:
  24 0000 64       		.byte	100
  25 0001 53       		.byte	83
  26 0002 4E       		.byte	78
  27 0003 4C       		.byte	76
  28 0004 4A       		.byte	74
  29 0005 48       		.byte	72
  30 0006 46       		.byte	70
  31 0007 44       		.byte	68
  32 0008 43       		.byte	67
  33 0009 41       		.byte	65
  34 000a 40       		.byte	64
  35 000b 3F       		.byte	63
  36 000c 3E       		.byte	62
  37 000d 3D       		.byte	61
  38 000e 3C       		.byte	60
  39 000f 3B       		.byte	59
  40 0010 3A       		.byte	58
  41 0011 39       		.byte	57
  42 0012 38       		.byte	56
  43 0013 38       		.byte	56
  44 0014 37       		.byte	55
  45 0015 36       		.byte	54
  46 0016 36       		.byte	54
  47 0017 35       		.byte	53
  48 0018 34       		.byte	52
  49 0019 34       		.byte	52
  50 001a 34       		.byte	52
  51 001b 33       		.byte	51
  52 001c 33       		.byte	51
  53              		.section	.text.ISR_RS485_RX_ExInterrupt,"ax",%progbits
  54              		.align	2
  55              		.global	ISR_RS485_RX_ExInterrupt
  56              		.thumb
  57              		.thumb_func
ARM GAS  C:\Users\MattiaCP\AppData\Local\Temp\ccCFTaFS.s 			page 2


  58              		.type	ISR_RS485_RX_ExInterrupt, %function
  59              	ISR_RS485_RX_ExInterrupt:
  60              	.LFB64:
  61              		.file 1 "..\\src\\interruptions.c"
   1:..\src/interruptions.c **** // ----------------------------------------------------------------------------
   2:..\src/interruptions.c **** // BSD 3-Clause License
   3:..\src/interruptions.c **** 
   4:..\src/interruptions.c **** // Copyright (c) 2016, qbrobotics
   5:..\src/interruptions.c **** // Copyright (c) 2017-2019, Centro "E.Piaggio"
   6:..\src/interruptions.c **** // All rights reserved.
   7:..\src/interruptions.c **** 
   8:..\src/interruptions.c **** // Redistribution and use in source and binary forms, with or without
   9:..\src/interruptions.c **** // modification, are permitted provided that the following conditions are met:
  10:..\src/interruptions.c **** 
  11:..\src/interruptions.c **** // * Redistributions of source code must retain the above copyright notice, this
  12:..\src/interruptions.c **** //   list of conditions and the following disclaimer.
  13:..\src/interruptions.c **** 
  14:..\src/interruptions.c **** // * Redistributions in binary form must reproduce the above copyright notice,
  15:..\src/interruptions.c **** //   this list of conditions and the following disclaimer in the documentation
  16:..\src/interruptions.c **** //   and/or other materials provided with the distribution.
  17:..\src/interruptions.c **** 
  18:..\src/interruptions.c **** // * Neither the name of the copyright holder nor the names of its
  19:..\src/interruptions.c **** //   contributors may be used to endorse or promote products derived from
  20:..\src/interruptions.c **** //   this software without specific prior written permission.
  21:..\src/interruptions.c **** 
  22:..\src/interruptions.c **** // THIS SOFTWARE IS PROVIDED BY THE COPYRIGHT HOLDERS AND CONTRIBUTORS "AS IS"
  23:..\src/interruptions.c **** // AND ANY EXPRESS OR IMPLIED WARRANTIES, INCLUDING, BUT NOT LIMITED TO, THE
  24:..\src/interruptions.c **** // IMPLIED WARRANTIES OF MERCHANTABILITY AND FITNESS FOR A PARTICULAR PURPOSE ARE
  25:..\src/interruptions.c **** // DISCLAIMED. IN NO EVENT SHALL THE COPYRIGHT HOLDER OR CONTRIBUTORS BE LIABLE
  26:..\src/interruptions.c **** // FOR ANY DIRECT, INDIRECT, INCIDENTAL, SPECIAL, EXEMPLARY, OR CONSEQUENTIAL
  27:..\src/interruptions.c **** // DAMAGES (INCLUDING, BUT NOT LIMITED TO, PROCUREMENT OF SUBSTITUTE GOODS OR
  28:..\src/interruptions.c **** // SERVICES; LOSS OF USE, DATA, OR PROFITS; OR BUSINESS INTERRUPTION) HOWEVER
  29:..\src/interruptions.c **** // CAUSED AND ON ANY THEORY OF LIABILITY, WHETHER IN CONTRACT, STRICT LIABILITY,
  30:..\src/interruptions.c **** // OR TORT (INCLUDING NEGLIGENCE OR OTHERWISE) ARISING IN ANY WAY OUT OF THE USE
  31:..\src/interruptions.c **** // OF THIS SOFTWARE, EVEN IF ADVISED OF THE POSSIBILITY OF SUCH DAMAGE.
  32:..\src/interruptions.c **** // POSSIBILITY OF SUCH DAMAGE.
  33:..\src/interruptions.c **** // ----------------------------------------------------------------------------
  34:..\src/interruptions.c **** 
  35:..\src/interruptions.c **** /**
  36:..\src/interruptions.c **** * \file         interruptions.c
  37:..\src/interruptions.c **** *
  38:..\src/interruptions.c **** * \brief        Interruption handling and firmware core functions
  39:..\src/interruptions.c **** * \date         October 01, 2017
  40:..\src/interruptions.c **** * \author       _Centro "E.Piaggio"_
  41:..\src/interruptions.c **** * \copyright    (C) 2012-2016 qbrobotics. All rights reserved.
  42:..\src/interruptions.c **** * \copyright    (C) 2017-2019 Centro "E.Piaggio". All rights reserved.
  43:..\src/interruptions.c **** */
  44:..\src/interruptions.c **** 
  45:..\src/interruptions.c **** 
  46:..\src/interruptions.c **** //=================================================================     includes
  47:..\src/interruptions.c **** #include "interruptions.h"
  48:..\src/interruptions.c **** #include "command_processing.h"
  49:..\src/interruptions.c **** #include "SPI_functions.h"
  50:..\src/interruptions.c **** #include "globals.h"
  51:..\src/interruptions.c **** #include "utils.h"
  52:..\src/interruptions.c **** 
  53:..\src/interruptions.c **** 
ARM GAS  C:\Users\MattiaCP\AppData\Local\Temp\ccCFTaFS.s 			page 3


  54:..\src/interruptions.c **** //==============================================================================
  55:..\src/interruptions.c **** //                                                            RS485 RX INTERRUPT
  56:..\src/interruptions.c **** //==============================================================================
  57:..\src/interruptions.c **** // Processing RS-485 data frame:
  58:..\src/interruptions.c **** //
  59:..\src/interruptions.c **** // - 0:     Waits for beginning characters
  60:..\src/interruptions.c **** // - 1:     Waits for ID;
  61:..\src/interruptions.c **** // - 2:     Data length;
  62:..\src/interruptions.c **** // - 3:     Receive all bytes;
  63:..\src/interruptions.c **** // - 4:     Wait for another device end of transmission;
  64:..\src/interruptions.c **** //
  65:..\src/interruptions.c **** //==============================================================================
  66:..\src/interruptions.c **** 
  67:..\src/interruptions.c **** // PWM values needed to obtain 11.5 V given a certain input tension
  68:..\src/interruptions.c **** // Numbers are sperimentally calculated //[index] (millivolts)
  69:..\src/interruptions.c **** static const uint8 pwm_preload_values[29] = {100,    //0 (11500)
  70:..\src/interruptions.c ****                                               83,
  71:..\src/interruptions.c ****                                               78,
  72:..\src/interruptions.c ****                                               76,
  73:..\src/interruptions.c ****                                               74,
  74:..\src/interruptions.c ****                                               72,    //5 (14000)
  75:..\src/interruptions.c ****                                               70,
  76:..\src/interruptions.c ****                                               68,
  77:..\src/interruptions.c ****                                               67,
  78:..\src/interruptions.c ****                                               65,
  79:..\src/interruptions.c ****                                               64,    //10 (16500)
  80:..\src/interruptions.c ****                                               63,
  81:..\src/interruptions.c ****                                               62,
  82:..\src/interruptions.c ****                                               61,
  83:..\src/interruptions.c ****                                               60,
  84:..\src/interruptions.c ****                                               59,    //15 (19000)
  85:..\src/interruptions.c ****                                               58,
  86:..\src/interruptions.c ****                                               57,
  87:..\src/interruptions.c ****                                               56,
  88:..\src/interruptions.c ****                                               56,
  89:..\src/interruptions.c ****                                               55,    //20 (21500)
  90:..\src/interruptions.c ****                                               54,
  91:..\src/interruptions.c ****                                               54,
  92:..\src/interruptions.c ****                                               53,
  93:..\src/interruptions.c ****                                               52,
  94:..\src/interruptions.c ****                                               52,    //25 (24000)
  95:..\src/interruptions.c ****                                               52,
  96:..\src/interruptions.c ****                                               51,
  97:..\src/interruptions.c ****                                               51};   //28 (25500)
  98:..\src/interruptions.c **** 
  99:..\src/interruptions.c **** //==============================================================================
 100:..\src/interruptions.c **** //                                                            RS485 RX INTERRUPT
 101:..\src/interruptions.c **** //==============================================================================
 102:..\src/interruptions.c **** 
 103:..\src/interruptions.c **** CY_ISR(ISR_RS485_RX_ExInterrupt) {
  62              		.loc 1 103 0
  63              		.cfi_startproc
  64              		@ args = 0, pretend = 0, frame = 0
  65              		@ frame_needed = 1, uses_anonymous_args = 0
  66              		@ link register save eliminated.
  67 0000 80B4     		push	{r7}
  68              		.cfi_def_cfa_offset 4
ARM GAS  C:\Users\MattiaCP\AppData\Local\Temp\ccCFTaFS.s 			page 4


  69              		.cfi_offset 7, -4
  70 0002 00AF     		add	r7, sp, #0
  71              		.cfi_def_cfa_register 7
 104:..\src/interruptions.c **** 
 105:..\src/interruptions.c ****     // Set RS485 flag
 106:..\src/interruptions.c ****     
 107:..\src/interruptions.c ****     interrupt_flag = TRUE;
  72              		.loc 1 107 0
  73 0004 034B     		ldr	r3, .L2
  74 0006 0122     		movs	r2, #1
  75 0008 1A70     		strb	r2, [r3]
 108:..\src/interruptions.c ****      
 109:..\src/interruptions.c **** }
  76              		.loc 1 109 0
  77 000a 00BF     		nop
  78 000c BD46     		mov	sp, r7
  79              		.cfi_def_cfa_register 13
  80              		@ sp needed
  81 000e 80BC     		pop	{r7}
  82              		.cfi_restore 7
  83              		.cfi_def_cfa_offset 0
  84 0010 7047     		bx	lr
  85              	.L3:
  86 0012 00BF     		.align	2
  87              	.L2:
  88 0014 00000000 		.word	interrupt_flag
  89              		.cfi_endproc
  90              	.LFE64:
  91              		.size	ISR_RS485_RX_ExInterrupt, .-ISR_RS485_RX_ExInterrupt
  92              		.section	.text.ISR_CYCLES_Handler,"ax",%progbits
  93              		.align	2
  94              		.global	ISR_CYCLES_Handler
  95              		.thumb
  96              		.thumb_func
  97              		.type	ISR_CYCLES_Handler, %function
  98              	ISR_CYCLES_Handler:
  99              	.LFB65:
 110:..\src/interruptions.c **** 
 111:..\src/interruptions.c **** //==============================================================================
 112:..\src/interruptions.c **** //                                                        CYCLES TIMER INTERRUPT
 113:..\src/interruptions.c **** //==============================================================================
 114:..\src/interruptions.c **** CY_ISR(ISR_CYCLES_Handler){
 100              		.loc 1 114 0
 101              		.cfi_startproc
 102              		@ args = 0, pretend = 0, frame = 0
 103              		@ frame_needed = 1, uses_anonymous_args = 0
 104              		@ link register save eliminated.
 105 0000 80B4     		push	{r7}
 106              		.cfi_def_cfa_offset 4
 107              		.cfi_offset 7, -4
 108 0002 00AF     		add	r7, sp, #0
 109              		.cfi_def_cfa_register 7
 115:..\src/interruptions.c **** 
 116:..\src/interruptions.c ****     // Set cycles interrupt flag
 117:..\src/interruptions.c ****     
 118:..\src/interruptions.c ****     cycles_interrupt_flag = TRUE;
 110              		.loc 1 118 0
ARM GAS  C:\Users\MattiaCP\AppData\Local\Temp\ccCFTaFS.s 			page 5


 111 0004 044B     		ldr	r3, .L5
 112 0006 0122     		movs	r2, #1
 113 0008 1A70     		strb	r2, [r3]
 119:..\src/interruptions.c ****     
 120:..\src/interruptions.c ****     CYCLES_TIMER_STATUS;
 114              		.loc 1 120 0
 115 000a 044B     		ldr	r3, .L5+4
 116 000c 1B78     		ldrb	r3, [r3]
 121:..\src/interruptions.c **** 
 122:..\src/interruptions.c **** }
 117              		.loc 1 122 0
 118 000e 00BF     		nop
 119 0010 BD46     		mov	sp, r7
 120              		.cfi_def_cfa_register 13
 121              		@ sp needed
 122 0012 80BC     		pop	{r7}
 123              		.cfi_restore 7
 124              		.cfi_def_cfa_offset 0
 125 0014 7047     		bx	lr
 126              	.L6:
 127 0016 00BF     		.align	2
 128              	.L5:
 129 0018 00000000 		.word	cycles_interrupt_flag
 130 001c 62640040 		.word	1073767522
 131              		.cfi_endproc
 132              	.LFE65:
 133              		.size	ISR_CYCLES_Handler, .-ISR_CYCLES_Handler
 134              		.section	.text.interrupt_manager,"ax",%progbits
 135              		.align	2
 136              		.global	interrupt_manager
 137              		.thumb
 138              		.thumb_func
 139              		.type	interrupt_manager, %function
 140              	interrupt_manager:
 141              	.LFB66:
 123:..\src/interruptions.c **** 
 124:..\src/interruptions.c **** //==============================================================================
 125:..\src/interruptions.c **** //                                                             INTERRUPT MANAGER
 126:..\src/interruptions.c **** //==============================================================================
 127:..\src/interruptions.c **** // Manage interrupt from RS485 
 128:..\src/interruptions.c **** //==============================================================================
 129:..\src/interruptions.c **** // Processing RS-485 data frame:
 130:..\src/interruptions.c **** //
 131:..\src/interruptions.c **** // - WAIT_START:    Waits for beginning characters;
 132:..\src/interruptions.c **** // - WAIT_ID:       Waits for ID;
 133:..\src/interruptions.c **** // - WAIT_LENGTH:   Data length;
 134:..\src/interruptions.c **** // - RECEIVE:       Receive all bytes;
 135:..\src/interruptions.c **** // - UNLOAD:        Wait for another device end of transmission;
 136:..\src/interruptions.c **** //
 137:..\src/interruptions.c **** //==============================================================================
 138:..\src/interruptions.c **** 
 139:..\src/interruptions.c **** void interrupt_manager(){
 142              		.loc 1 139 0
 143              		.cfi_startproc
 144              		@ args = 0, pretend = 0, frame = 8
 145              		@ frame_needed = 1, uses_anonymous_args = 0
 146 0000 80B5     		push	{r7, lr}
ARM GAS  C:\Users\MattiaCP\AppData\Local\Temp\ccCFTaFS.s 			page 6


 147              		.cfi_def_cfa_offset 8
 148              		.cfi_offset 7, -8
 149              		.cfi_offset 14, -4
 150 0002 82B0     		sub	sp, sp, #8
 151              		.cfi_def_cfa_offset 16
 152 0004 00AF     		add	r7, sp, #0
 153              		.cfi_def_cfa_register 7
 140:..\src/interruptions.c **** 
 141:..\src/interruptions.c ****     
 142:..\src/interruptions.c ****     //===========================================     local variables definition
 143:..\src/interruptions.c **** 
 144:..\src/interruptions.c ****     static uint8 CYDATA state = WAIT_START;                      // state
 145:..\src/interruptions.c ****     
 146:..\src/interruptions.c ****     //------------------------------------------------- local data packet
 147:..\src/interruptions.c ****     static uint8 CYDATA data_packet_index;
 148:..\src/interruptions.c ****     static uint8 CYDATA data_packet_length;
 149:..\src/interruptions.c ****     static uint8 data_packet_buffer[128];                     
 150:..\src/interruptions.c ****     static uint8 CYDATA rx_queue[3];                    // last 2 bytes received
 151:..\src/interruptions.c ****     //-------------------------------------------------
 152:..\src/interruptions.c **** 
 153:..\src/interruptions.c ****     uint8 CYDATA    rx_data;                            // RS485 UART rx data
 154:..\src/interruptions.c ****     CYBIT           rx_data_type = TRUE;                       // my id?
 154              		.loc 1 154 0
 155 0006 0123     		movs	r3, #1
 156 0008 FB71     		strb	r3, [r7, #7]
 155:..\src/interruptions.c ****     uint8 CYDATA    package_count = 0;                     
 157              		.loc 1 155 0
 158 000a 0023     		movs	r3, #0
 159 000c BB71     		strb	r3, [r7, #6]
 156:..\src/interruptions.c **** 
 157:..\src/interruptions.c ****     //======================================================     receive routine
 158:..\src/interruptions.c ****     
 159:..\src/interruptions.c ****     while(UART_RS485_GetRxBufferSize() && (package_count < 6)){
 160              		.loc 1 159 0
 161 000e D5E0     		b	.L8
 162              	.L28:
 160:..\src/interruptions.c ****         // 6 - estimated maximum number of packets we can read without blocking firmware execution
 161:..\src/interruptions.c **** 
 162:..\src/interruptions.c ****         // Get next char
 163:..\src/interruptions.c ****         rx_data = UART_RS485_GetChar();
 163              		.loc 1 163 0
 164 0010 FFF7FEFF 		bl	UART_RS485_GetChar
 165 0014 0346     		mov	r3, r0
 166 0016 7B71     		strb	r3, [r7, #5]
 164:..\src/interruptions.c ****         
 165:..\src/interruptions.c ****         switch (state) {
 167              		.loc 1 165 0
 168 0018 6F4B     		ldr	r3, .L31
 169 001a 1B78     		ldrb	r3, [r3]	@ zero_extendqisi2
 170 001c 042B     		cmp	r3, #4
 171 001e 00F2CD80 		bhi	.L8
 172 0022 01A2     		adr	r2, .L10
 173 0024 52F823F0 		ldr	pc, [r2, r3, lsl #2]
 174              		.p2align 2
 175              	.L10:
 176 0028 3D000000 		.word	.L9+1
 177 002c A3000000 		.word	.L11+1
ARM GAS  C:\Users\MattiaCP\AppData\Local\Temp\ccCFTaFS.s 			page 7


 178 0030 CB000000 		.word	.L12+1
 179 0034 19010000 		.word	.L13+1
 180 0038 83010000 		.word	.L14+1
 181              		.p2align 1
 182              	.L9:
 166:..\src/interruptions.c ****             //-----     wait for frame start     -------------------------------
 167:..\src/interruptions.c ****             case WAIT_START:
 168:..\src/interruptions.c ****             
 169:..\src/interruptions.c ****                 rx_queue[0] = rx_queue[1];
 183              		.loc 1 169 0
 184 003c 674B     		ldr	r3, .L31+4
 185 003e 5A78     		ldrb	r2, [r3, #1]	@ zero_extendqisi2
 186 0040 664B     		ldr	r3, .L31+4
 187 0042 1A70     		strb	r2, [r3]
 170:..\src/interruptions.c ****                 rx_queue[1] = rx_queue[2];
 188              		.loc 1 170 0
 189 0044 654B     		ldr	r3, .L31+4
 190 0046 9A78     		ldrb	r2, [r3, #2]	@ zero_extendqisi2
 191 0048 644B     		ldr	r3, .L31+4
 192 004a 5A70     		strb	r2, [r3, #1]
 171:..\src/interruptions.c ****                 rx_queue[2] = rx_data;
 193              		.loc 1 171 0
 194 004c 634A     		ldr	r2, .L31+4
 195 004e 7B79     		ldrb	r3, [r7, #5]
 196 0050 9370     		strb	r3, [r2, #2]
 172:..\src/interruptions.c ****                 
 173:..\src/interruptions.c ****                 // Check for header configuration package
 174:..\src/interruptions.c ****                 if ((rx_queue[1] == 58) && (rx_queue[2] == 58)) {
 197              		.loc 1 174 0
 198 0052 624B     		ldr	r3, .L31+4
 199 0054 5B78     		ldrb	r3, [r3, #1]	@ zero_extendqisi2
 200 0056 3A2B     		cmp	r3, #58
 201 0058 10D1     		bne	.L15
 202              		.loc 1 174 0 is_stmt 0 discriminator 1
 203 005a 604B     		ldr	r3, .L31+4
 204 005c 9B78     		ldrb	r3, [r3, #2]	@ zero_extendqisi2
 205 005e 3A2B     		cmp	r3, #58
 206 0060 0CD1     		bne	.L15
 175:..\src/interruptions.c ****                     rx_queue[0] = 0;
 207              		.loc 1 175 0 is_stmt 1
 208 0062 5E4B     		ldr	r3, .L31+4
 209 0064 0022     		movs	r2, #0
 210 0066 1A70     		strb	r2, [r3]
 176:..\src/interruptions.c ****                     rx_queue[1] = 0;
 211              		.loc 1 176 0
 212 0068 5C4B     		ldr	r3, .L31+4
 213 006a 0022     		movs	r2, #0
 214 006c 5A70     		strb	r2, [r3, #1]
 177:..\src/interruptions.c ****                     rx_queue[2] = 0;
 215              		.loc 1 177 0
 216 006e 5B4B     		ldr	r3, .L31+4
 217 0070 0022     		movs	r2, #0
 218 0072 9A70     		strb	r2, [r3, #2]
 178:..\src/interruptions.c ****                     state       = WAIT_ID;                    
 219              		.loc 1 178 0
 220 0074 584B     		ldr	r3, .L31
 221 0076 0122     		movs	r2, #1
ARM GAS  C:\Users\MattiaCP\AppData\Local\Temp\ccCFTaFS.s 			page 8


 222 0078 1A70     		strb	r2, [r3]
 223 007a 11E0     		b	.L16
 224              	.L15:
 179:..\src/interruptions.c ****                 }else
 180:..\src/interruptions.c ****                     if ((rx_queue[0] == 63) &&      //ASCII - ?
 225              		.loc 1 180 0
 226 007c 574B     		ldr	r3, .L31+4
 227 007e 1B78     		ldrb	r3, [r3]	@ zero_extendqisi2
 228 0080 3F2B     		cmp	r3, #63
 229 0082 40F09B80 		bne	.L8
 181:..\src/interruptions.c ****                         (rx_queue[1] == 13) &&      //ASCII - CR
 230              		.loc 1 181 0 discriminator 1
 231 0086 554B     		ldr	r3, .L31+4
 232 0088 5B78     		ldrb	r3, [r3, #1]	@ zero_extendqisi2
 180:..\src/interruptions.c ****                         (rx_queue[1] == 13) &&      //ASCII - CR
 233              		.loc 1 180 0 discriminator 1
 234 008a 0D2B     		cmp	r3, #13
 235 008c 40F09680 		bne	.L8
 182:..\src/interruptions.c ****                         (rx_queue[2] == 10))        //ASCII - LF)
 236              		.loc 1 182 0
 237 0090 524B     		ldr	r3, .L31+4
 238 0092 9B78     		ldrb	r3, [r3, #2]	@ zero_extendqisi2
 181:..\src/interruptions.c ****                         (rx_queue[1] == 13) &&      //ASCII - CR
 239              		.loc 1 181 0
 240 0094 0A2B     		cmp	r3, #10
 241 0096 40F09180 		bne	.L8
 183:..\src/interruptions.c ****                         infoGet(INFO_ALL);
 242              		.loc 1 183 0
 243 009a 0020     		movs	r0, #0
 244 009c FFF7FEFF 		bl	infoGet
 245              	.L16:
 184:..\src/interruptions.c ****                 break;
 246              		.loc 1 184 0
 247 00a0 8CE0     		b	.L8
 248              	.L11:
 185:..\src/interruptions.c **** 
 186:..\src/interruptions.c ****             //-----     wait for id     ----------------------------------------
 187:..\src/interruptions.c ****             case  WAIT_ID:
 188:..\src/interruptions.c **** 
 189:..\src/interruptions.c ****                 // packet is for my ID or is broadcast
 190:..\src/interruptions.c ****                 if (rx_data == c_mem.id || rx_data == 0)
 249              		.loc 1 190 0
 250 00a2 4F4B     		ldr	r3, .L31+8
 251 00a4 5B78     		ldrb	r3, [r3, #1]	@ zero_extendqisi2
 252 00a6 7A79     		ldrb	r2, [r7, #5]	@ zero_extendqisi2
 253 00a8 9A42     		cmp	r2, r3
 254 00aa 02D0     		beq	.L17
 255              		.loc 1 190 0 is_stmt 0 discriminator 1
 256 00ac 7B79     		ldrb	r3, [r7, #5]	@ zero_extendqisi2
 257 00ae 002B     		cmp	r3, #0
 258 00b0 02D1     		bne	.L18
 259              	.L17:
 191:..\src/interruptions.c ****                     rx_data_type = FALSE;
 260              		.loc 1 191 0 is_stmt 1
 261 00b2 0023     		movs	r3, #0
 262 00b4 FB71     		strb	r3, [r7, #7]
 263 00b6 01E0     		b	.L19
ARM GAS  C:\Users\MattiaCP\AppData\Local\Temp\ccCFTaFS.s 			page 9


 264              	.L18:
 192:..\src/interruptions.c ****                 else                //packet is for others
 193:..\src/interruptions.c ****                     rx_data_type = TRUE;
 265              		.loc 1 193 0
 266 00b8 0123     		movs	r3, #1
 267 00ba FB71     		strb	r3, [r7, #7]
 268              	.L19:
 194:..\src/interruptions.c ****                 
 195:..\src/interruptions.c ****                 data_packet_length = 0;
 269              		.loc 1 195 0
 270 00bc 494B     		ldr	r3, .L31+12
 271 00be 0022     		movs	r2, #0
 272 00c0 1A70     		strb	r2, [r3]
 196:..\src/interruptions.c ****                 state = WAIT_LENGTH;
 273              		.loc 1 196 0
 274 00c2 454B     		ldr	r3, .L31
 275 00c4 0222     		movs	r2, #2
 276 00c6 1A70     		strb	r2, [r3]
 197:..\src/interruptions.c ****                 break;
 277              		.loc 1 197 0
 278 00c8 78E0     		b	.L8
 279              	.L12:
 198:..\src/interruptions.c **** 
 199:..\src/interruptions.c ****             //-----     wait for length     ------------------------------------
 200:..\src/interruptions.c ****             case  WAIT_LENGTH:
 201:..\src/interruptions.c **** 
 202:..\src/interruptions.c ****                 data_packet_length = rx_data;
 280              		.loc 1 202 0
 281 00ca 464A     		ldr	r2, .L31+12
 282 00cc 7B79     		ldrb	r3, [r7, #5]
 283 00ce 1370     		strb	r3, [r2]
 203:..\src/interruptions.c ****                 // check validity of pack length
 204:..\src/interruptions.c ****                 if (data_packet_length <= 1) {
 284              		.loc 1 204 0
 285 00d0 444B     		ldr	r3, .L31+12
 286 00d2 1B78     		ldrb	r3, [r3]	@ zero_extendqisi2
 287 00d4 012B     		cmp	r3, #1
 288 00d6 06D8     		bhi	.L20
 205:..\src/interruptions.c ****                     data_packet_length = 0;
 289              		.loc 1 205 0
 290 00d8 424B     		ldr	r3, .L31+12
 291 00da 0022     		movs	r2, #0
 292 00dc 1A70     		strb	r2, [r3]
 206:..\src/interruptions.c ****                     state = WAIT_START;
 293              		.loc 1 206 0
 294 00de 3E4B     		ldr	r3, .L31
 295 00e0 0022     		movs	r2, #0
 296 00e2 1A70     		strb	r2, [r3]
 297 00e4 6AE0     		b	.L8
 298              	.L20:
 207:..\src/interruptions.c ****                 } else if (data_packet_length > 128) {
 299              		.loc 1 207 0
 300 00e6 3F4B     		ldr	r3, .L31+12
 301 00e8 1B78     		ldrb	r3, [r3]	@ zero_extendqisi2
 302 00ea 802B     		cmp	r3, #128
 303 00ec 06D9     		bls	.L22
 208:..\src/interruptions.c ****                     data_packet_length = 0;
ARM GAS  C:\Users\MattiaCP\AppData\Local\Temp\ccCFTaFS.s 			page 10


 304              		.loc 1 208 0
 305 00ee 3D4B     		ldr	r3, .L31+12
 306 00f0 0022     		movs	r2, #0
 307 00f2 1A70     		strb	r2, [r3]
 209:..\src/interruptions.c ****                     state = WAIT_START;
 308              		.loc 1 209 0
 309 00f4 384B     		ldr	r3, .L31
 310 00f6 0022     		movs	r2, #0
 311 00f8 1A70     		strb	r2, [r3]
 312 00fa 5FE0     		b	.L8
 313              	.L22:
 210:..\src/interruptions.c ****                 } else {
 211:..\src/interruptions.c ****                     data_packet_index = 0;
 314              		.loc 1 211 0
 315 00fc 3A4B     		ldr	r3, .L31+16
 316 00fe 0022     		movs	r2, #0
 317 0100 1A70     		strb	r2, [r3]
 212:..\src/interruptions.c ****                     
 213:..\src/interruptions.c ****                     if(rx_data_type == FALSE)
 318              		.loc 1 213 0
 319 0102 FB79     		ldrb	r3, [r7, #7]	@ zero_extendqisi2
 320 0104 002B     		cmp	r3, #0
 321 0106 03D1     		bne	.L23
 214:..\src/interruptions.c ****                         state = RECEIVE;          // packet for me or broadcast
 322              		.loc 1 214 0
 323 0108 334B     		ldr	r3, .L31
 324 010a 0322     		movs	r2, #3
 325 010c 1A70     		strb	r2, [r3]
 326 010e 55E0     		b	.L8
 327              	.L23:
 215:..\src/interruptions.c ****                     else
 216:..\src/interruptions.c ****                         state = UNLOAD;           // packet for others
 328              		.loc 1 216 0
 329 0110 314B     		ldr	r3, .L31
 330 0112 0422     		movs	r2, #4
 331 0114 1A70     		strb	r2, [r3]
 217:..\src/interruptions.c ****                 }
 218:..\src/interruptions.c ****                 break;
 332              		.loc 1 218 0
 333 0116 51E0     		b	.L8
 334              	.L13:
 219:..\src/interruptions.c **** 
 220:..\src/interruptions.c ****             //-----     receiving     -------------------------------------------
 221:..\src/interruptions.c ****             case RECEIVE:
 222:..\src/interruptions.c **** 
 223:..\src/interruptions.c ****                 data_packet_buffer[data_packet_index] = rx_data;
 335              		.loc 1 223 0
 336 0118 334B     		ldr	r3, .L31+16
 337 011a 1B78     		ldrb	r3, [r3]	@ zero_extendqisi2
 338 011c 1946     		mov	r1, r3
 339 011e 334A     		ldr	r2, .L31+20
 340 0120 7B79     		ldrb	r3, [r7, #5]
 341 0122 5354     		strb	r3, [r2, r1]
 224:..\src/interruptions.c ****                 data_packet_index++;
 342              		.loc 1 224 0
 343 0124 304B     		ldr	r3, .L31+16
 344 0126 1B78     		ldrb	r3, [r3]	@ zero_extendqisi2
ARM GAS  C:\Users\MattiaCP\AppData\Local\Temp\ccCFTaFS.s 			page 11


 345 0128 0133     		adds	r3, r3, #1
 346 012a DAB2     		uxtb	r2, r3
 347 012c 2E4B     		ldr	r3, .L31+16
 348 012e 1A70     		strb	r2, [r3]
 225:..\src/interruptions.c ****                 
 226:..\src/interruptions.c ****                 // check end of transmission
 227:..\src/interruptions.c ****                 if (data_packet_index >= data_packet_length) {
 349              		.loc 1 227 0
 350 0130 2D4B     		ldr	r3, .L31+16
 351 0132 1A78     		ldrb	r2, [r3]	@ zero_extendqisi2
 352 0134 2B4B     		ldr	r3, .L31+12
 353 0136 1B78     		ldrb	r3, [r3]	@ zero_extendqisi2
 354 0138 9A42     		cmp	r2, r3
 355 013a 3FD3     		bcc	.L8
 228:..\src/interruptions.c ****                     // verify if frame ID corresponded to the device ID
 229:..\src/interruptions.c ****                     if (rx_data_type == FALSE) {
 356              		.loc 1 229 0
 357 013c FB79     		ldrb	r3, [r7, #7]	@ zero_extendqisi2
 358 013e 002B     		cmp	r3, #0
 359 0140 12D1     		bne	.L25
 230:..\src/interruptions.c ****                         // copying data from buffer to global packet
 231:..\src/interruptions.c ****                         memcpy(g_rx.buffer, data_packet_buffer, data_packet_length);
 360              		.loc 1 231 0
 361 0142 284B     		ldr	r3, .L31+12
 362 0144 1B78     		ldrb	r3, [r3]	@ zero_extendqisi2
 363 0146 1A46     		mov	r2, r3
 364 0148 2849     		ldr	r1, .L31+20
 365 014a 2948     		ldr	r0, .L31+24
 366 014c FFF7FEFF 		bl	memcpy
 232:..\src/interruptions.c ****                         g_rx.length = data_packet_length;
 367              		.loc 1 232 0
 368 0150 244B     		ldr	r3, .L31+12
 369 0152 1B78     		ldrb	r3, [r3]	@ zero_extendqisi2
 370 0154 1AB2     		sxth	r2, r3
 371 0156 264B     		ldr	r3, .L31+24
 372 0158 A3F88020 		strh	r2, [r3, #128]	@ movhi
 233:..\src/interruptions.c ****                         g_rx.ready  = 1;
 373              		.loc 1 233 0
 374 015c 244B     		ldr	r3, .L31+24
 375 015e 0122     		movs	r2, #1
 376 0160 83F88420 		strb	r2, [r3, #132]
 234:..\src/interruptions.c ****                         commProcess();
 377              		.loc 1 234 0
 378 0164 FFF7FEFF 		bl	commProcess
 379              	.L25:
 235:..\src/interruptions.c ****                     }
 236:..\src/interruptions.c ****                     
 237:..\src/interruptions.c ****                     data_packet_index  = 0;
 380              		.loc 1 237 0
 381 0168 1F4B     		ldr	r3, .L31+16
 382 016a 0022     		movs	r2, #0
 383 016c 1A70     		strb	r2, [r3]
 238:..\src/interruptions.c ****                     data_packet_length = 0;
 384              		.loc 1 238 0
 385 016e 1D4B     		ldr	r3, .L31+12
 386 0170 0022     		movs	r2, #0
 387 0172 1A70     		strb	r2, [r3]
ARM GAS  C:\Users\MattiaCP\AppData\Local\Temp\ccCFTaFS.s 			page 12


 239:..\src/interruptions.c ****                     state              = WAIT_START;
 388              		.loc 1 239 0
 389 0174 184B     		ldr	r3, .L31
 390 0176 0022     		movs	r2, #0
 391 0178 1A70     		strb	r2, [r3]
 240:..\src/interruptions.c ****                     package_count++;
 392              		.loc 1 240 0
 393 017a BB79     		ldrb	r3, [r7, #6]	@ zero_extendqisi2
 394 017c 0133     		adds	r3, r3, #1
 395 017e BB71     		strb	r3, [r7, #6]
 241:..\src/interruptions.c ****                 
 242:..\src/interruptions.c ****                 }
 243:..\src/interruptions.c ****                 break;
 396              		.loc 1 243 0
 397 0180 1CE0     		b	.L8
 398              	.L14:
 244:..\src/interruptions.c **** 
 245:..\src/interruptions.c ****             //-----     other device is receving     ---------------------------
 246:..\src/interruptions.c ****             case UNLOAD:
 247:..\src/interruptions.c ****                 if (!(--data_packet_length)) {
 399              		.loc 1 247 0
 400 0182 184B     		ldr	r3, .L31+12
 401 0184 1B78     		ldrb	r3, [r3]	@ zero_extendqisi2
 402 0186 013B     		subs	r3, r3, #1
 403 0188 DAB2     		uxtb	r2, r3
 404 018a 164B     		ldr	r3, .L31+12
 405 018c 1A70     		strb	r2, [r3]
 406 018e 154B     		ldr	r3, .L31+12
 407 0190 1B78     		ldrb	r3, [r3]	@ zero_extendqisi2
 408 0192 002B     		cmp	r3, #0
 409 0194 11D1     		bne	.L30
 248:..\src/interruptions.c ****                     data_packet_index  = 0;
 410              		.loc 1 248 0
 411 0196 144B     		ldr	r3, .L31+16
 412 0198 0022     		movs	r2, #0
 413 019a 1A70     		strb	r2, [r3]
 249:..\src/interruptions.c ****                     data_packet_length = 0;
 414              		.loc 1 249 0
 415 019c 114B     		ldr	r3, .L31+12
 416 019e 0022     		movs	r2, #0
 417 01a0 1A70     		strb	r2, [r3]
 250:..\src/interruptions.c ****                     RS485_CTS_Write(1);
 418              		.loc 1 250 0
 419 01a2 0120     		movs	r0, #1
 420 01a4 FFF7FEFF 		bl	RS485_CTS_Write
 251:..\src/interruptions.c ****                     RS485_CTS_Write(0);
 421              		.loc 1 251 0
 422 01a8 0020     		movs	r0, #0
 423 01aa FFF7FEFF 		bl	RS485_CTS_Write
 252:..\src/interruptions.c ****                     state              = WAIT_START;
 424              		.loc 1 252 0
 425 01ae 0A4B     		ldr	r3, .L31
 426 01b0 0022     		movs	r2, #0
 427 01b2 1A70     		strb	r2, [r3]
 253:..\src/interruptions.c ****                     package_count++;
 428              		.loc 1 253 0
 429 01b4 BB79     		ldrb	r3, [r7, #6]	@ zero_extendqisi2
ARM GAS  C:\Users\MattiaCP\AppData\Local\Temp\ccCFTaFS.s 			page 13


 430 01b6 0133     		adds	r3, r3, #1
 431 01b8 BB71     		strb	r3, [r7, #6]
 432              	.L30:
 254:..\src/interruptions.c ****                 }
 255:..\src/interruptions.c ****                 break;
 433              		.loc 1 255 0
 434 01ba 00BF     		nop
 435              	.L8:
 159:..\src/interruptions.c ****         // 6 - estimated maximum number of packets we can read without blocking firmware execution
 436              		.loc 1 159 0
 437 01bc FFF7FEFF 		bl	UART_RS485_GetRxBufferSize
 438 01c0 0346     		mov	r3, r0
 439 01c2 002B     		cmp	r3, #0
 440 01c4 03D0     		beq	.L29
 159:..\src/interruptions.c ****         // 6 - estimated maximum number of packets we can read without blocking firmware execution
 441              		.loc 1 159 0 is_stmt 0 discriminator 1
 442 01c6 BB79     		ldrb	r3, [r7, #6]	@ zero_extendqisi2
 443 01c8 052B     		cmp	r3, #5
 444 01ca 7FF621AF 		bls	.L28
 445              	.L29:
 256:..\src/interruptions.c ****         }
 257:..\src/interruptions.c ****     }
 258:..\src/interruptions.c **** }
 446              		.loc 1 258 0 is_stmt 1
 447 01ce 00BF     		nop
 448 01d0 0837     		adds	r7, r7, #8
 449              		.cfi_def_cfa_offset 8
 450 01d2 BD46     		mov	sp, r7
 451              		.cfi_def_cfa_register 13
 452              		@ sp needed
 453 01d4 80BD     		pop	{r7, pc}
 454              	.L32:
 455 01d6 00BF     		.align	2
 456              	.L31:
 457 01d8 00000000 		.word	state.10043
 458 01dc 04000000 		.word	rx_queue.10047
 459 01e0 00000000 		.word	c_mem
 460 01e4 07000000 		.word	data_packet_length.10045
 461 01e8 08000000 		.word	data_packet_index.10044
 462 01ec 0C000000 		.word	data_packet_buffer.10046
 463 01f0 00000000 		.word	g_rx
 464              		.cfi_endproc
 465              	.LFE66:
 466              		.size	interrupt_manager, .-interrupt_manager
 467              		.global	__aeabi_ui2d
 468              		.global	__aeabi_ddiv
 469              		.global	__aeabi_d2f
 470              		.section	.text.function_scheduler,"ax",%progbits
 471              		.align	2
 472              		.global	function_scheduler
 473              		.thumb
 474              		.thumb_func
 475              		.type	function_scheduler, %function
 476              	function_scheduler:
 477              	.LFB67:
 259:..\src/interruptions.c **** //==============================================================================
 260:..\src/interruptions.c **** //                                                            FUNCTION SCHEDULER
ARM GAS  C:\Users\MattiaCP\AppData\Local\Temp\ccCFTaFS.s 			page 14


 261:..\src/interruptions.c **** //==============================================================================
 262:..\src/interruptions.c **** // Call all the function with the right frequency
 263:..\src/interruptions.c **** //==============================================================================
 264:..\src/interruptions.c **** // Base frequency 1000 Hz
 265:..\src/interruptions.c **** //==============================================================================
 266:..\src/interruptions.c **** 
 267:..\src/interruptions.c **** void function_scheduler(void) {
 478              		.loc 1 267 0
 479              		.cfi_startproc
 480              		@ args = 0, pretend = 0, frame = 2504
 481              		@ frame_needed = 1, uses_anonymous_args = 0
 482 0000 B0B5     		push	{r4, r5, r7, lr}
 483              		.cfi_def_cfa_offset 16
 484              		.cfi_offset 4, -16
 485              		.cfi_offset 5, -12
 486              		.cfi_offset 7, -8
 487              		.cfi_offset 14, -4
 488 0002 ADF6C81D 		subw	sp, sp, #2504
 489              		.cfi_def_cfa_offset 2520
 490 0006 00AF     		add	r7, sp, #0
 491              		.cfi_def_cfa_register 7
 268:..\src/interruptions.c ****  
 269:..\src/interruptions.c ****     static uint16 counter_calibration = DIV_INIT_VALUE;
 270:..\src/interruptions.c ****     static uint16 counter_tension_func = DIV_INIT_VALUE;
 271:..\src/interruptions.c ****     CYBIT write_cycles = FALSE;
 492              		.loc 1 271 0
 493 0008 0023     		movs	r3, #0
 494 000a 87F8C739 		strb	r3, [r7, #2503]
 272:..\src/interruptions.c ****     timer_value0 = (uint32)MY_TIMER_ReadCounter();
 495              		.loc 1 272 0
 496 000e FFF7FEFF 		bl	MY_TIMER_ReadCounter
 497 0012 0246     		mov	r2, r0
 498 0014 C14B     		ldr	r3, .L51
 499 0016 1A60     		str	r2, [r3]
 273:..\src/interruptions.c ****     uint8 rtc_data;
 274:..\src/interruptions.c ****     char info_[2500] = "";
 500              		.loc 1 274 0
 501 0018 3B46     		mov	r3, r7
 502 001a 0022     		movs	r2, #0
 503 001c 1A60     		str	r2, [r3]
 504 001e 0433     		adds	r3, r3, #4
 505 0020 4FF41C62 		mov	r2, #2496
 506 0024 0021     		movs	r1, #0
 507 0026 1846     		mov	r0, r3
 508 0028 FFF7FEFF 		bl	memset
 275:..\src/interruptions.c **** 
 276:..\src/interruptions.c ****     // Start ADC Conversion, SOC = 1
 277:..\src/interruptions.c **** 
 278:..\src/interruptions.c ****     ADC_SOC_Write(0x01); 
 509              		.loc 1 278 0
 510 002c 0120     		movs	r0, #1
 511 002e FFF7FEFF 		bl	ADC_SOC_Write
 279:..\src/interruptions.c ****     
 280:..\src/interruptions.c ****     // Check Interrupt 
 281:..\src/interruptions.c **** 
 282:..\src/interruptions.c ****     if (interrupt_flag){
 512              		.loc 1 282 0
ARM GAS  C:\Users\MattiaCP\AppData\Local\Temp\ccCFTaFS.s 			page 15


 513 0032 BB4B     		ldr	r3, .L51+4
 514 0034 1B78     		ldrb	r3, [r3]	@ zero_extendqisi2
 515 0036 002B     		cmp	r3, #0
 516 0038 07D0     		beq	.L34
 283:..\src/interruptions.c ****         interrupt_flag = FALSE;
 517              		.loc 1 283 0
 518 003a B94B     		ldr	r3, .L51+4
 519 003c 0022     		movs	r2, #0
 520 003e 1A70     		strb	r2, [r3]
 284:..\src/interruptions.c ****         interrupt_manager();
 521              		.loc 1 284 0
 522 0040 FFF7FEFF 		bl	interrupt_manager
 285:..\src/interruptions.c ****         write_cycles = TRUE;
 523              		.loc 1 285 0
 524 0044 0123     		movs	r3, #1
 525 0046 87F8C739 		strb	r3, [r7, #2503]
 526              	.L34:
 286:..\src/interruptions.c ****     }
 287:..\src/interruptions.c **** 
 288:..\src/interruptions.c ****     //---------------------------------- Get Encoders
 289:..\src/interruptions.c **** 
 290:..\src/interruptions.c ****     encoder_reading_SPI(); 
 527              		.loc 1 290 0
 528 004a FFF7FEFF 		bl	encoder_reading_SPI
 291:..\src/interruptions.c ****     
 292:..\src/interruptions.c ****     // Check Interrupt     
 293:..\src/interruptions.c ****     
 294:..\src/interruptions.c ****     if (interrupt_flag){
 529              		.loc 1 294 0
 530 004e B44B     		ldr	r3, .L51+4
 531 0050 1B78     		ldrb	r3, [r3]	@ zero_extendqisi2
 532 0052 002B     		cmp	r3, #0
 533 0054 07D0     		beq	.L35
 295:..\src/interruptions.c ****         interrupt_flag = FALSE;
 534              		.loc 1 295 0
 535 0056 B24B     		ldr	r3, .L51+4
 536 0058 0022     		movs	r2, #0
 537 005a 1A70     		strb	r2, [r3]
 296:..\src/interruptions.c ****         interrupt_manager();
 538              		.loc 1 296 0
 539 005c FFF7FEFF 		bl	interrupt_manager
 297:..\src/interruptions.c ****         write_cycles = TRUE;
 540              		.loc 1 297 0
 541 0060 0123     		movs	r3, #1
 542 0062 87F8C739 		strb	r3, [r7, #2503]
 543              	.L35:
 298:..\src/interruptions.c ****     }
 299:..\src/interruptions.c **** 
 300:..\src/interruptions.c ****     //---------------------------------- Control Motor
 301:..\src/interruptions.c ****    
 302:..\src/interruptions.c ****     motor_control();
 544              		.loc 1 302 0
 545 0066 FFF7FEFF 		bl	motor_control
 303:..\src/interruptions.c **** 
 304:..\src/interruptions.c ****     // Check Interrupt 
 305:..\src/interruptions.c **** 
 306:..\src/interruptions.c ****     if (interrupt_flag){
ARM GAS  C:\Users\MattiaCP\AppData\Local\Temp\ccCFTaFS.s 			page 16


 546              		.loc 1 306 0
 547 006a AD4B     		ldr	r3, .L51+4
 548 006c 1B78     		ldrb	r3, [r3]	@ zero_extendqisi2
 549 006e 002B     		cmp	r3, #0
 550 0070 07D0     		beq	.L36
 307:..\src/interruptions.c ****         interrupt_flag = FALSE;
 551              		.loc 1 307 0
 552 0072 AB4B     		ldr	r3, .L51+4
 553 0074 0022     		movs	r2, #0
 554 0076 1A70     		strb	r2, [r3]
 308:..\src/interruptions.c ****         interrupt_manager();
 555              		.loc 1 308 0
 556 0078 FFF7FEFF 		bl	interrupt_manager
 309:..\src/interruptions.c ****         write_cycles = TRUE;
 557              		.loc 1 309 0
 558 007c 0123     		movs	r3, #1
 559 007e 87F8C739 		strb	r3, [r7, #2503]
 560              	.L36:
 310:..\src/interruptions.c ****     }
 311:..\src/interruptions.c **** 
 312:..\src/interruptions.c ****     //---------------------------------- Read conversion buffer - LOCK function
 313:..\src/interruptions.c **** 
 314:..\src/interruptions.c ****     analog_read_end();
 561              		.loc 1 314 0
 562 0082 FFF7FEFF 		bl	analog_read_end
 315:..\src/interruptions.c **** 
 316:..\src/interruptions.c ****     if (interrupt_flag){
 563              		.loc 1 316 0
 564 0086 A64B     		ldr	r3, .L51+4
 565 0088 1B78     		ldrb	r3, [r3]	@ zero_extendqisi2
 566 008a 002B     		cmp	r3, #0
 567 008c 07D0     		beq	.L37
 317:..\src/interruptions.c ****         interrupt_flag = FALSE;
 568              		.loc 1 317 0
 569 008e A44B     		ldr	r3, .L51+4
 570 0090 0022     		movs	r2, #0
 571 0092 1A70     		strb	r2, [r3]
 318:..\src/interruptions.c ****         interrupt_manager();
 572              		.loc 1 318 0
 573 0094 FFF7FEFF 		bl	interrupt_manager
 319:..\src/interruptions.c ****         write_cycles = TRUE;
 574              		.loc 1 319 0
 575 0098 0123     		movs	r3, #1
 576 009a 87F8C739 		strb	r3, [r7, #2503]
 577              	.L37:
 320:..\src/interruptions.c ****     }
 321:..\src/interruptions.c **** 
 322:..\src/interruptions.c ****     //---------------------------------- Control Overcurrent
 323:..\src/interruptions.c **** 
 324:..\src/interruptions.c ****     overcurrent_control();
 578              		.loc 1 324 0
 579 009e FFF7FEFF 		bl	overcurrent_control
 325:..\src/interruptions.c ****     
 326:..\src/interruptions.c ****     // Check Interrupt 
 327:..\src/interruptions.c ****     
 328:..\src/interruptions.c ****     if (interrupt_flag){
 580              		.loc 1 328 0
ARM GAS  C:\Users\MattiaCP\AppData\Local\Temp\ccCFTaFS.s 			page 17


 581 00a2 9F4B     		ldr	r3, .L51+4
 582 00a4 1B78     		ldrb	r3, [r3]	@ zero_extendqisi2
 583 00a6 002B     		cmp	r3, #0
 584 00a8 07D0     		beq	.L38
 329:..\src/interruptions.c ****         interrupt_flag = FALSE;
 585              		.loc 1 329 0
 586 00aa 9D4B     		ldr	r3, .L51+4
 587 00ac 0022     		movs	r2, #0
 588 00ae 1A70     		strb	r2, [r3]
 330:..\src/interruptions.c ****         interrupt_manager();
 589              		.loc 1 330 0
 590 00b0 FFF7FEFF 		bl	interrupt_manager
 331:..\src/interruptions.c ****         write_cycles = TRUE;
 591              		.loc 1 331 0
 592 00b4 0123     		movs	r3, #1
 593 00b6 87F8C739 		strb	r3, [r7, #2503]
 594              	.L38:
 332:..\src/interruptions.c ****     }
 333:..\src/interruptions.c **** 
 334:..\src/interruptions.c ****     //---------------------------------- Calibration 
 335:..\src/interruptions.c **** 
 336:..\src/interruptions.c ****     // Divider 10, freq = 500 Hz
 337:..\src/interruptions.c ****     if (calib.enabled == TRUE) {
 595              		.loc 1 337 0
 596 00ba 9A4B     		ldr	r3, .L51+8
 597 00bc 1B78     		ldrb	r3, [r3]	@ zero_extendqisi2
 598 00be 012B     		cmp	r3, #1
 599 00c0 0ED1     		bne	.L39
 338:..\src/interruptions.c ****         if (counter_calibration == CALIBRATION_DIV) {
 600              		.loc 1 338 0
 601 00c2 994B     		ldr	r3, .L51+12
 602 00c4 1B88     		ldrh	r3, [r3]
 603 00c6 0A2B     		cmp	r3, #10
 604 00c8 04D1     		bne	.L40
 339:..\src/interruptions.c ****             calibration();
 605              		.loc 1 339 0
 606 00ca FFF7FEFF 		bl	calibration
 340:..\src/interruptions.c ****             counter_calibration = 0;
 607              		.loc 1 340 0
 608 00ce 964B     		ldr	r3, .L51+12
 609 00d0 0022     		movs	r2, #0
 610 00d2 1A80     		strh	r2, [r3]	@ movhi
 611              	.L40:
 341:..\src/interruptions.c ****         }
 342:..\src/interruptions.c ****         counter_calibration++;
 612              		.loc 1 342 0
 613 00d4 944B     		ldr	r3, .L51+12
 614 00d6 1B88     		ldrh	r3, [r3]
 615 00d8 0133     		adds	r3, r3, #1
 616 00da 9AB2     		uxth	r2, r3
 617 00dc 924B     		ldr	r3, .L51+12
 618 00de 1A80     		strh	r2, [r3]	@ movhi
 619              	.L39:
 343:..\src/interruptions.c ****     }
 344:..\src/interruptions.c **** 
 345:..\src/interruptions.c ****     // Check Interrupt 
 346:..\src/interruptions.c ****     
ARM GAS  C:\Users\MattiaCP\AppData\Local\Temp\ccCFTaFS.s 			page 18


 347:..\src/interruptions.c ****     if (interrupt_flag){
 620              		.loc 1 347 0
 621 00e0 8F4B     		ldr	r3, .L51+4
 622 00e2 1B78     		ldrb	r3, [r3]	@ zero_extendqisi2
 623 00e4 002B     		cmp	r3, #0
 624 00e6 07D0     		beq	.L41
 348:..\src/interruptions.c ****         interrupt_flag = FALSE;
 625              		.loc 1 348 0
 626 00e8 8D4B     		ldr	r3, .L51+4
 627 00ea 0022     		movs	r2, #0
 628 00ec 1A70     		strb	r2, [r3]
 349:..\src/interruptions.c ****         interrupt_manager();
 629              		.loc 1 349 0
 630 00ee FFF7FEFF 		bl	interrupt_manager
 350:..\src/interruptions.c ****         write_cycles = TRUE;
 631              		.loc 1 350 0
 632 00f2 0123     		movs	r3, #1
 633 00f4 87F8C739 		strb	r3, [r7, #2503]
 634              	.L41:
 351:..\src/interruptions.c ****     }
 352:..\src/interruptions.c ****     
 353:..\src/interruptions.c ****      
 354:..\src/interruptions.c ****     //---------------------------------- Rest position check
 355:..\src/interruptions.c ****     
 356:..\src/interruptions.c ****     // Divider 10, freq = 500 Hz
 357:..\src/interruptions.c ****     if (c_mem.rest_position_flag == TRUE){
 635              		.loc 1 357 0
 636 00f8 8C4B     		ldr	r3, .L51+16
 637 00fa 93F8A430 		ldrb	r3, [r3, #164]	@ zero_extendqisi2
 638 00fe 012B     		cmp	r3, #1
 639 0100 1AD1     		bne	.L42
 358:..\src/interruptions.c ****         if (counter_calibration == CALIBRATION_DIV) {
 640              		.loc 1 358 0
 641 0102 894B     		ldr	r3, .L51+12
 642 0104 1B88     		ldrh	r3, [r3]
 643 0106 0A2B     		cmp	r3, #10
 644 0108 04D1     		bne	.L43
 359:..\src/interruptions.c ****                 check_rest_position();
 645              		.loc 1 359 0
 646 010a FFF7FEFF 		bl	check_rest_position
 360:..\src/interruptions.c ****                 counter_calibration = 0;
 647              		.loc 1 360 0
 648 010e 864B     		ldr	r3, .L51+12
 649 0110 0022     		movs	r2, #0
 650 0112 1A80     		strh	r2, [r3]	@ movhi
 651              	.L43:
 361:..\src/interruptions.c ****         }
 362:..\src/interruptions.c ****         counter_calibration++;
 652              		.loc 1 362 0
 653 0114 844B     		ldr	r3, .L51+12
 654 0116 1B88     		ldrh	r3, [r3]
 655 0118 0133     		adds	r3, r3, #1
 656 011a 9AB2     		uxth	r2, r3
 657 011c 824B     		ldr	r3, .L51+12
 658 011e 1A80     		strh	r2, [r3]	@ movhi
 363:..\src/interruptions.c **** 
 364:..\src/interruptions.c ****         // Check Interrupt     
ARM GAS  C:\Users\MattiaCP\AppData\Local\Temp\ccCFTaFS.s 			page 19


 365:..\src/interruptions.c ****         if (interrupt_flag){
 659              		.loc 1 365 0
 660 0120 7F4B     		ldr	r3, .L51+4
 661 0122 1B78     		ldrb	r3, [r3]	@ zero_extendqisi2
 662 0124 002B     		cmp	r3, #0
 663 0126 07D0     		beq	.L42
 366:..\src/interruptions.c ****             interrupt_flag = FALSE;
 664              		.loc 1 366 0
 665 0128 7D4B     		ldr	r3, .L51+4
 666 012a 0022     		movs	r2, #0
 667 012c 1A70     		strb	r2, [r3]
 367:..\src/interruptions.c ****             interrupt_manager();
 668              		.loc 1 367 0
 669 012e FFF7FEFF 		bl	interrupt_manager
 368:..\src/interruptions.c **** 			write_cycles = TRUE;
 670              		.loc 1 368 0
 671 0132 0123     		movs	r3, #1
 672 0134 87F8C739 		strb	r3, [r7, #2503]
 673              	.L42:
 369:..\src/interruptions.c ****         }
 370:..\src/interruptions.c ****     }
 371:..\src/interruptions.c ****     
 372:..\src/interruptions.c ****     //---------------------------------- Control Cycles Counter
 373:..\src/interruptions.c **** 
 374:..\src/interruptions.c ****     cycles_counter_update();
 674              		.loc 1 374 0
 675 0138 FFF7FEFF 		bl	cycles_counter_update
 375:..\src/interruptions.c **** 
 376:..\src/interruptions.c ****     // Check Cycles Interrupt 
 377:..\src/interruptions.c ****     
 378:..\src/interruptions.c ****     if (cycles_interrupt_flag){
 676              		.loc 1 378 0
 677 013c 7C4B     		ldr	r3, .L51+20
 678 013e 1B78     		ldrb	r3, [r3]	@ zero_extendqisi2
 679 0140 002B     		cmp	r3, #0
 680 0142 00F0C180 		beq	.L44
 379:..\src/interruptions.c ****         cycles_interrupt_flag = FALSE;
 681              		.loc 1 379 0
 682 0146 7A4B     		ldr	r3, .L51+20
 683 0148 0022     		movs	r2, #0
 684 014a 1A70     		strb	r2, [r3]
 380:..\src/interruptions.c **** 
 381:..\src/interruptions.c ****         // Cycles are written only every 120 seconds (CYCLES_TIMER interrupt)
 382:..\src/interruptions.c ****         // to save EEPROM writings (1M maximum)
 383:..\src/interruptions.c ****         if(can_write) {
 685              		.loc 1 383 0
 686 014c 794B     		ldr	r3, .L51+24
 687 014e 1B78     		ldrb	r3, [r3]	@ zero_extendqisi2
 688 0150 002B     		cmp	r3, #0
 689 0152 00F0B980 		beq	.L44
 384:..\src/interruptions.c ****             cycles_status = PREPARE_DATA;
 690              		.loc 1 384 0
 691 0156 784B     		ldr	r3, .L51+28
 692 0158 0022     		movs	r2, #0
 693 015a 1A70     		strb	r2, [r3]
 385:..\src/interruptions.c ****             
 386:..\src/interruptions.c ****             //Update time variable
ARM GAS  C:\Users\MattiaCP\AppData\Local\Temp\ccCFTaFS.s 			page 20


 387:..\src/interruptions.c ****             g_mem.total_time_on = g_mem.total_time_on + 120;  // Add 120 seconds.
 694              		.loc 1 387 0
 695 015c 774B     		ldr	r3, .L51+32
 696 015e D3F80831 		ldr	r3, [r3, #264]
 697 0162 7833     		adds	r3, r3, #120
 698 0164 754A     		ldr	r2, .L51+32
 699 0166 C2F80831 		str	r3, [r2, #264]
 388:..\src/interruptions.c ****             
 389:..\src/interruptions.c ****             if (c_mem.read_exp_port_flag == EXP_SD_RTC) {
 700              		.loc 1 389 0
 701 016a 704B     		ldr	r3, .L51+16
 702 016c 93F8A830 		ldrb	r3, [r3, #168]	@ zero_extendqisi2
 703 0170 012B     		cmp	r3, #1
 704 0172 40F0A980 		bne	.L44
 390:..\src/interruptions.c ****                 rtc_data = DS1302_read(DS1302_DATE_RD);
 705              		.loc 1 390 0
 706 0176 8720     		movs	r0, #135
 707 0178 FFF7FEFF 		bl	DS1302_read
 708 017c 0346     		mov	r3, r0
 709 017e 87F8C639 		strb	r3, [r7, #2502]
 391:..\src/interruptions.c ****                 g_mem.curr_time[0] = (rtc_data/16) * 10 + rtc_data%16;
 710              		.loc 1 391 0
 711 0182 97F8C639 		ldrb	r3, [r7, #2502]	@ zero_extendqisi2
 712 0186 1B09     		lsrs	r3, r3, #4
 713 0188 DBB2     		uxtb	r3, r3
 714 018a 1A46     		mov	r2, r3
 715 018c 9200     		lsls	r2, r2, #2
 716 018e 1344     		add	r3, r3, r2
 717 0190 5B00     		lsls	r3, r3, #1
 718 0192 DAB2     		uxtb	r2, r3
 719 0194 97F8C639 		ldrb	r3, [r7, #2502]
 720 0198 03F00F03 		and	r3, r3, #15
 721 019c DBB2     		uxtb	r3, r3
 722 019e 1344     		add	r3, r3, r2
 723 01a0 DAB2     		uxtb	r2, r3
 724 01a2 664B     		ldr	r3, .L51+32
 725 01a4 83F81021 		strb	r2, [r3, #272]
 392:..\src/interruptions.c ****                 rtc_data = DS1302_read(DS1302_MONTH_RD);
 726              		.loc 1 392 0
 727 01a8 8920     		movs	r0, #137
 728 01aa FFF7FEFF 		bl	DS1302_read
 729 01ae 0346     		mov	r3, r0
 730 01b0 87F8C639 		strb	r3, [r7, #2502]
 393:..\src/interruptions.c ****                 g_mem.curr_time[1] = (rtc_data/16) * 10 + rtc_data%16;
 731              		.loc 1 393 0
 732 01b4 97F8C639 		ldrb	r3, [r7, #2502]	@ zero_extendqisi2
 733 01b8 1B09     		lsrs	r3, r3, #4
 734 01ba DBB2     		uxtb	r3, r3
 735 01bc 1A46     		mov	r2, r3
 736 01be 9200     		lsls	r2, r2, #2
 737 01c0 1344     		add	r3, r3, r2
 738 01c2 5B00     		lsls	r3, r3, #1
 739 01c4 DAB2     		uxtb	r2, r3
 740 01c6 97F8C639 		ldrb	r3, [r7, #2502]
 741 01ca 03F00F03 		and	r3, r3, #15
 742 01ce DBB2     		uxtb	r3, r3
 743 01d0 1344     		add	r3, r3, r2
ARM GAS  C:\Users\MattiaCP\AppData\Local\Temp\ccCFTaFS.s 			page 21


 744 01d2 DAB2     		uxtb	r2, r3
 745 01d4 594B     		ldr	r3, .L51+32
 746 01d6 83F81121 		strb	r2, [r3, #273]
 394:..\src/interruptions.c ****                 rtc_data = DS1302_read(DS1302_YEAR_RD);
 747              		.loc 1 394 0
 748 01da 8D20     		movs	r0, #141
 749 01dc FFF7FEFF 		bl	DS1302_read
 750 01e0 0346     		mov	r3, r0
 751 01e2 87F8C639 		strb	r3, [r7, #2502]
 395:..\src/interruptions.c ****                 g_mem.curr_time[2] = (rtc_data/16) * 10 + rtc_data%16;
 752              		.loc 1 395 0
 753 01e6 97F8C639 		ldrb	r3, [r7, #2502]	@ zero_extendqisi2
 754 01ea 1B09     		lsrs	r3, r3, #4
 755 01ec DBB2     		uxtb	r3, r3
 756 01ee 1A46     		mov	r2, r3
 757 01f0 9200     		lsls	r2, r2, #2
 758 01f2 1344     		add	r3, r3, r2
 759 01f4 5B00     		lsls	r3, r3, #1
 760 01f6 DAB2     		uxtb	r2, r3
 761 01f8 97F8C639 		ldrb	r3, [r7, #2502]
 762 01fc 03F00F03 		and	r3, r3, #15
 763 0200 DBB2     		uxtb	r3, r3
 764 0202 1344     		add	r3, r3, r2
 765 0204 DAB2     		uxtb	r2, r3
 766 0206 4D4B     		ldr	r3, .L51+32
 767 0208 83F81221 		strb	r2, [r3, #274]
 396:..\src/interruptions.c **** 
 397:..\src/interruptions.c ****                 rtc_data = DS1302_read(DS1302_HOUR_RD);
 768              		.loc 1 397 0
 769 020c 8520     		movs	r0, #133
 770 020e FFF7FEFF 		bl	DS1302_read
 771 0212 0346     		mov	r3, r0
 772 0214 87F8C639 		strb	r3, [r7, #2502]
 398:..\src/interruptions.c ****                 g_mem.curr_time[3] = (rtc_data/16) * 10 + rtc_data%16;
 773              		.loc 1 398 0
 774 0218 97F8C639 		ldrb	r3, [r7, #2502]	@ zero_extendqisi2
 775 021c 1B09     		lsrs	r3, r3, #4
 776 021e DBB2     		uxtb	r3, r3
 777 0220 1A46     		mov	r2, r3
 778 0222 9200     		lsls	r2, r2, #2
 779 0224 1344     		add	r3, r3, r2
 780 0226 5B00     		lsls	r3, r3, #1
 781 0228 DAB2     		uxtb	r2, r3
 782 022a 97F8C639 		ldrb	r3, [r7, #2502]
 783 022e 03F00F03 		and	r3, r3, #15
 784 0232 DBB2     		uxtb	r3, r3
 785 0234 1344     		add	r3, r3, r2
 786 0236 DAB2     		uxtb	r2, r3
 787 0238 404B     		ldr	r3, .L51+32
 788 023a 83F81321 		strb	r2, [r3, #275]
 399:..\src/interruptions.c ****                 rtc_data = DS1302_read(DS1302_MINUTES_RD);
 789              		.loc 1 399 0
 790 023e 8320     		movs	r0, #131
 791 0240 FFF7FEFF 		bl	DS1302_read
 792 0244 0346     		mov	r3, r0
 793 0246 87F8C639 		strb	r3, [r7, #2502]
 400:..\src/interruptions.c ****                 g_mem.curr_time[4] = (rtc_data/16) * 10 + rtc_data%16;
ARM GAS  C:\Users\MattiaCP\AppData\Local\Temp\ccCFTaFS.s 			page 22


 794              		.loc 1 400 0
 795 024a 97F8C639 		ldrb	r3, [r7, #2502]	@ zero_extendqisi2
 796 024e 1B09     		lsrs	r3, r3, #4
 797 0250 DBB2     		uxtb	r3, r3
 798 0252 1A46     		mov	r2, r3
 799 0254 9200     		lsls	r2, r2, #2
 800 0256 1344     		add	r3, r3, r2
 801 0258 5B00     		lsls	r3, r3, #1
 802 025a DAB2     		uxtb	r2, r3
 803 025c 97F8C639 		ldrb	r3, [r7, #2502]
 804 0260 03F00F03 		and	r3, r3, #15
 805 0264 DBB2     		uxtb	r3, r3
 806 0266 1344     		add	r3, r3, r2
 807 0268 DAB2     		uxtb	r2, r3
 808 026a 344B     		ldr	r3, .L51+32
 809 026c 83F81421 		strb	r2, [r3, #276]
 401:..\src/interruptions.c ****                 rtc_data = DS1302_read(DS1302_SECONDS_RD);
 810              		.loc 1 401 0
 811 0270 8120     		movs	r0, #129
 812 0272 FFF7FEFF 		bl	DS1302_read
 813 0276 0346     		mov	r3, r0
 814 0278 87F8C639 		strb	r3, [r7, #2502]
 402:..\src/interruptions.c ****                 g_mem.curr_time[5] = (rtc_data/16) * 10 + rtc_data%16;
 815              		.loc 1 402 0
 816 027c 97F8C639 		ldrb	r3, [r7, #2502]	@ zero_extendqisi2
 817 0280 1B09     		lsrs	r3, r3, #4
 818 0282 DBB2     		uxtb	r3, r3
 819 0284 1A46     		mov	r2, r3
 820 0286 9200     		lsls	r2, r2, #2
 821 0288 1344     		add	r3, r3, r2
 822 028a 5B00     		lsls	r3, r3, #1
 823 028c DAB2     		uxtb	r2, r3
 824 028e 97F8C639 		ldrb	r3, [r7, #2502]
 825 0292 03F00F03 		and	r3, r3, #15
 826 0296 DBB2     		uxtb	r3, r3
 827 0298 1344     		add	r3, r3, r2
 828 029a DAB2     		uxtb	r2, r3
 829 029c 274B     		ldr	r3, .L51+32
 830 029e 83F81521 		strb	r2, [r3, #277]
 403:..\src/interruptions.c ****                 
 404:..\src/interruptions.c ****                 //Write in SD card
 405:..\src/interruptions.c ****                 prepare_counter_info(info_);
 831              		.loc 1 405 0
 832 02a2 3B46     		mov	r3, r7
 833 02a4 1846     		mov	r0, r3
 834 02a6 FFF7FEFF 		bl	prepare_counter_info
 406:..\src/interruptions.c ****                 write_bytes = FS_Write(pFile, info_, strlen(info_));
 835              		.loc 1 406 0
 836 02aa 254B     		ldr	r3, .L51+36
 837 02ac 1C68     		ldr	r4, [r3]
 838 02ae 3B46     		mov	r3, r7
 839 02b0 1846     		mov	r0, r3
 840 02b2 FFF7FEFF 		bl	strlen
 841 02b6 0246     		mov	r2, r0
 842 02b8 3B46     		mov	r3, r7
 843 02ba 1946     		mov	r1, r3
 844 02bc 2046     		mov	r0, r4
ARM GAS  C:\Users\MattiaCP\AppData\Local\Temp\ccCFTaFS.s 			page 23


 845 02be FFF7FEFF 		bl	FS_Write
 846 02c2 0246     		mov	r2, r0
 847 02c4 1F4B     		ldr	r3, .L51+40
 848 02c6 1A60     		str	r2, [r3]
 849              	.L44:
 407:..\src/interruptions.c ****             }
 408:..\src/interruptions.c ****         }
 409:..\src/interruptions.c ****     }
 410:..\src/interruptions.c ****     
 411:..\src/interruptions.c ****     // Check Interrupt 
 412:..\src/interruptions.c ****     
 413:..\src/interruptions.c ****     if (interrupt_flag){
 850              		.loc 1 413 0
 851 02c8 154B     		ldr	r3, .L51+4
 852 02ca 1B78     		ldrb	r3, [r3]	@ zero_extendqisi2
 853 02cc 002B     		cmp	r3, #0
 854 02ce 04D0     		beq	.L45
 414:..\src/interruptions.c ****         interrupt_flag = FALSE;
 855              		.loc 1 414 0
 856 02d0 134B     		ldr	r3, .L51+4
 857 02d2 0022     		movs	r2, #0
 858 02d4 1A70     		strb	r2, [r3]
 415:..\src/interruptions.c ****         interrupt_manager();
 859              		.loc 1 415 0
 860 02d6 FFF7FEFF 		bl	interrupt_manager
 861              	.L45:
 416:..\src/interruptions.c ****     }
 417:..\src/interruptions.c ****     
 418:..\src/interruptions.c ****     
 419:..\src/interruptions.c ****     //---------------------------------- Check battery
 420:..\src/interruptions.c **** 
 421:..\src/interruptions.c ****     // Divider 10, freq = 500 Hz
 422:..\src/interruptions.c ****     if (counter_tension_func == CALIBRATION_DIV) {
 862              		.loc 1 422 0
 863 02da 1B4B     		ldr	r3, .L51+44
 864 02dc 1B88     		ldrh	r3, [r3]
 865 02de 0A2B     		cmp	r3, #10
 866 02e0 04D1     		bne	.L46
 423:..\src/interruptions.c ****         battery_management();   
 867              		.loc 1 423 0
 868 02e2 FFF7FEFF 		bl	battery_management
 424:..\src/interruptions.c ****         counter_tension_func = 0;
 869              		.loc 1 424 0
 870 02e6 184B     		ldr	r3, .L51+44
 871 02e8 0022     		movs	r2, #0
 872 02ea 1A80     		strh	r2, [r3]	@ movhi
 873              	.L46:
 425:..\src/interruptions.c ****     }
 426:..\src/interruptions.c ****     counter_tension_func++;
 874              		.loc 1 426 0
 875 02ec 164B     		ldr	r3, .L51+44
 876 02ee 1B88     		ldrh	r3, [r3]
 877 02f0 0133     		adds	r3, r3, #1
 878 02f2 9AB2     		uxth	r2, r3
 879 02f4 144B     		ldr	r3, .L51+44
 880 02f6 1A80     		strh	r2, [r3]	@ movhi
 427:..\src/interruptions.c **** 
ARM GAS  C:\Users\MattiaCP\AppData\Local\Temp\ccCFTaFS.s 			page 24


 428:..\src/interruptions.c ****     // Check Interrupt 
 429:..\src/interruptions.c ****     
 430:..\src/interruptions.c ****     if (interrupt_flag){
 881              		.loc 1 430 0
 882 02f8 094B     		ldr	r3, .L51+4
 883 02fa 1B78     		ldrb	r3, [r3]	@ zero_extendqisi2
 884 02fc 002B     		cmp	r3, #0
 885 02fe 07D0     		beq	.L47
 431:..\src/interruptions.c ****         interrupt_flag = FALSE;
 886              		.loc 1 431 0
 887 0300 074B     		ldr	r3, .L51+4
 888 0302 0022     		movs	r2, #0
 889 0304 1A70     		strb	r2, [r3]
 432:..\src/interruptions.c ****         interrupt_manager();
 890              		.loc 1 432 0
 891 0306 FFF7FEFF 		bl	interrupt_manager
 433:..\src/interruptions.c ****         write_cycles = TRUE;
 892              		.loc 1 433 0
 893 030a 0123     		movs	r3, #1
 894 030c 87F8C739 		strb	r3, [r7, #2503]
 895              	.L47:
 434:..\src/interruptions.c ****     }
 435:..\src/interruptions.c ****    
 436:..\src/interruptions.c ****     //---------------------------------- Read IMUs
 437:..\src/interruptions.c ****     if (c_mem.read_imu_flag) {
 896              		.loc 1 437 0
 897 0310 064B     		ldr	r3, .L51+16
 898 0312 93F8A730 		ldrb	r3, [r3, #167]	@ zero_extendqisi2
 899 0316 002B     		cmp	r3, #0
 900 0318 23D0     		beq	.L48
 901 031a 17E0     		b	.L52
 902              	.L53:
 903              		.align	2
 904              	.L51:
 905 031c 00000000 		.word	timer_value0
 906 0320 00000000 		.word	interrupt_flag
 907 0324 00000000 		.word	calib
 908 0328 00000000 		.word	counter_calibration.10063
 909 032c 00000000 		.word	c_mem
 910 0330 00000000 		.word	cycles_interrupt_flag
 911 0334 00000000 		.word	can_write
 912 0338 00000000 		.word	cycles_status
 913 033c 00000000 		.word	g_mem
 914 0340 00000000 		.word	pFile
 915 0344 00000000 		.word	write_bytes
 916 0348 02000000 		.word	counter_tension_func.10064
 917              	.L52:
 438:..\src/interruptions.c ****         ReadAllIMUs();      // IMU reading is atomic, no RS485 request is handled
 918              		.loc 1 438 0
 919 034c FFF7FEFF 		bl	ReadAllIMUs
 439:..\src/interruptions.c ****         
 440:..\src/interruptions.c ****         if (interrupt_flag){
 920              		.loc 1 440 0
 921 0350 334B     		ldr	r3, .L54+8
 922 0352 1B78     		ldrb	r3, [r3]	@ zero_extendqisi2
 923 0354 002B     		cmp	r3, #0
 924 0356 04D0     		beq	.L48
ARM GAS  C:\Users\MattiaCP\AppData\Local\Temp\ccCFTaFS.s 			page 25


 441:..\src/interruptions.c ****             interrupt_flag = FALSE;
 925              		.loc 1 441 0
 926 0358 314B     		ldr	r3, .L54+8
 927 035a 0022     		movs	r2, #0
 928 035c 1A70     		strb	r2, [r3]
 442:..\src/interruptions.c ****             interrupt_manager();
 929              		.loc 1 442 0
 930 035e FFF7FEFF 		bl	interrupt_manager
 931              	.L48:
 443:..\src/interruptions.c ****         }
 444:..\src/interruptions.c ****     }
 445:..\src/interruptions.c ****     
 446:..\src/interruptions.c ****     //---------------------------------- Update States
 447:..\src/interruptions.c ****     
 448:..\src/interruptions.c ****     // Load k-1 state
 449:..\src/interruptions.c ****     memcpy( &g_measOld, &g_meas, sizeof(g_meas) );
 932              		.loc 1 449 0
 933 0362 304A     		ldr	r2, .L54+12
 934 0364 304B     		ldr	r3, .L54+16
 935 0366 1446     		mov	r4, r2
 936 0368 1D46     		mov	r5, r3
 937 036a 0FCD     		ldmia	r5!, {r0, r1, r2, r3}
 938 036c 0FC4     		stmia	r4!, {r0, r1, r2, r3}
 939 036e 0FCD     		ldmia	r5!, {r0, r1, r2, r3}
 940 0370 0FC4     		stmia	r4!, {r0, r1, r2, r3}
 941 0372 0FCD     		ldmia	r5!, {r0, r1, r2, r3}
 942 0374 0FC4     		stmia	r4!, {r0, r1, r2, r3}
 943 0376 95E80300 		ldmia	r5, {r0, r1}
 944 037a 84E80300 		stmia	r4, {r0, r1}
 450:..\src/interruptions.c ****     memcpy( &g_refOld, &g_ref, sizeof(g_ref) );
 945              		.loc 1 450 0
 946 037e 2B4A     		ldr	r2, .L54+20
 947 0380 2B4B     		ldr	r3, .L54+24
 948 0382 1446     		mov	r4, r2
 949 0384 0FCB     		ldmia	r3, {r0, r1, r2, r3}
 950 0386 84E80F00 		stmia	r4, {r0, r1, r2, r3}
 451:..\src/interruptions.c **** 
 452:..\src/interruptions.c ****     // Load k+1 state        
 453:..\src/interruptions.c ****     memcpy( &g_ref, &g_refNew, sizeof(g_ref) );
 951              		.loc 1 453 0
 952 038a 294A     		ldr	r2, .L54+24
 953 038c 294B     		ldr	r3, .L54+28
 954 038e 1446     		mov	r4, r2
 955 0390 0FCB     		ldmia	r3, {r0, r1, r2, r3}
 956 0392 84E80F00 		stmia	r4, {r0, r1, r2, r3}
 454:..\src/interruptions.c ****     memcpy( &g_imu, &g_imuNew, sizeof(g_imu) );
 957              		.loc 1 454 0
 958 0396 284A     		ldr	r2, .L54+32
 959 0398 284B     		ldr	r3, .L54+36
 960 039a 1046     		mov	r0, r2
 961 039c 1946     		mov	r1, r3
 962 039e 7823     		movs	r3, #120
 963 03a0 1A46     		mov	r2, r3
 964 03a2 FFF7FEFF 		bl	memcpy
 455:..\src/interruptions.c ****                 
 456:..\src/interruptions.c ****     if (interrupt_flag){
 965              		.loc 1 456 0
ARM GAS  C:\Users\MattiaCP\AppData\Local\Temp\ccCFTaFS.s 			page 26


 966 03a6 1E4B     		ldr	r3, .L54+8
 967 03a8 1B78     		ldrb	r3, [r3]	@ zero_extendqisi2
 968 03aa 002B     		cmp	r3, #0
 969 03ac 07D0     		beq	.L49
 457:..\src/interruptions.c ****         interrupt_flag = FALSE;
 970              		.loc 1 457 0
 971 03ae 1C4B     		ldr	r3, .L54+8
 972 03b0 0022     		movs	r2, #0
 973 03b2 1A70     		strb	r2, [r3]
 458:..\src/interruptions.c ****         interrupt_manager();
 974              		.loc 1 458 0
 975 03b4 FFF7FEFF 		bl	interrupt_manager
 459:..\src/interruptions.c ****         write_cycles = TRUE;
 976              		.loc 1 459 0
 977 03b8 0123     		movs	r3, #1
 978 03ba 87F8C739 		strb	r3, [r7, #2503]
 979              	.L49:
 460:..\src/interruptions.c ****     }
 461:..\src/interruptions.c **** 
 462:..\src/interruptions.c ****     if (c_mem.input_mode == INPUT_MODE_EXTERNAL) {
 980              		.loc 1 462 0
 981 03be 204B     		ldr	r3, .L54+40
 982 03c0 93F83530 		ldrb	r3, [r3, #53]	@ zero_extendqisi2
 983 03c4 002B     		cmp	r3, #0
 984 03c6 02D1     		bne	.L50
 463:..\src/interruptions.c ****         change_ext_ref_flag = FALSE;
 985              		.loc 1 463 0
 986 03c8 1E4B     		ldr	r3, .L54+44
 987 03ca 0022     		movs	r2, #0
 988 03cc 1A70     		strb	r2, [r3]
 989              	.L50:
 464:..\src/interruptions.c ****     }
 465:..\src/interruptions.c ****     
 466:..\src/interruptions.c ****     timer_value = (uint32)MY_TIMER_ReadCounter();
 990              		.loc 1 466 0
 991 03ce FFF7FEFF 		bl	MY_TIMER_ReadCounter
 992 03d2 0246     		mov	r2, r0
 993 03d4 1C4B     		ldr	r3, .L54+48
 994 03d6 1A60     		str	r2, [r3]
 467:..\src/interruptions.c ****     cycle_time = (float)((timer_value0 - timer_value)/1000000.0);
 995              		.loc 1 467 0
 996 03d8 1C4B     		ldr	r3, .L54+52
 997 03da 1A68     		ldr	r2, [r3]
 998 03dc 1A4B     		ldr	r3, .L54+48
 999 03de 1B68     		ldr	r3, [r3]
 1000 03e0 D31A     		subs	r3, r2, r3
 1001 03e2 1846     		mov	r0, r3
 1002 03e4 FFF7FEFF 		bl	__aeabi_ui2d
 1003 03e8 0BA3     		adr	r3, .L54
 1004 03ea D3E90023 		ldrd	r2, [r3]
 1005 03ee FFF7FEFF 		bl	__aeabi_ddiv
 1006 03f2 0346     		mov	r3, r0
 1007 03f4 0C46     		mov	r4, r1
 1008 03f6 1846     		mov	r0, r3
 1009 03f8 2146     		mov	r1, r4
 1010 03fa FFF7FEFF 		bl	__aeabi_d2f
 1011 03fe 0246     		mov	r2, r0
ARM GAS  C:\Users\MattiaCP\AppData\Local\Temp\ccCFTaFS.s 			page 27


 1012 0400 134B     		ldr	r3, .L54+56
 1013 0402 1A60     		str	r2, [r3]	@ float
 468:..\src/interruptions.c ****     MY_TIMER_WriteCounter(5000000);
 1014              		.loc 1 468 0
 1015 0404 1348     		ldr	r0, .L54+60
 1016 0406 FFF7FEFF 		bl	MY_TIMER_WriteCounter
 469:..\src/interruptions.c **** 
 470:..\src/interruptions.c **** }
 1017              		.loc 1 470 0
 1018 040a 00BF     		nop
 1019 040c 07F6C817 		addw	r7, r7, #2504
 1020              		.cfi_def_cfa_offset 16
 1021 0410 BD46     		mov	sp, r7
 1022              		.cfi_def_cfa_register 13
 1023              		@ sp needed
 1024 0412 B0BD     		pop	{r4, r5, r7, pc}
 1025              	.L55:
 1026 0414 AFF30080 		.align	3
 1027              	.L54:
 1028 0418 00000000 		.word	0
 1029 041c 80842E41 		.word	1093567616
 1030 0420 00000000 		.word	interrupt_flag
 1031 0424 00000000 		.word	g_measOld
 1032 0428 00000000 		.word	g_meas
 1033 042c 00000000 		.word	g_refOld
 1034 0430 00000000 		.word	g_ref
 1035 0434 00000000 		.word	g_refNew
 1036 0438 00000000 		.word	g_imu
 1037 043c 00000000 		.word	g_imuNew
 1038 0440 00000000 		.word	c_mem
 1039 0444 00000000 		.word	change_ext_ref_flag
 1040 0448 00000000 		.word	timer_value
 1041 044c 00000000 		.word	timer_value0
 1042 0450 00000000 		.word	cycle_time
 1043 0454 404B4C00 		.word	5000000
 1044              		.cfi_endproc
 1045              	.LFE67:
 1046              		.size	function_scheduler, .-function_scheduler
 1047              		.section	.text.motor_control,"ax",%progbits
 1048              		.align	2
 1049              		.global	motor_control
 1050              		.thumb
 1051              		.thumb_func
 1052              		.type	motor_control, %function
 1053              	motor_control:
 1054              	.LFB68:
 471:..\src/interruptions.c **** 
 472:..\src/interruptions.c **** //==============================================================================
 473:..\src/interruptions.c **** //                                                                 MOTOR CONTROL
 474:..\src/interruptions.c **** //==============================================================================
 475:..\src/interruptions.c **** 
 476:..\src/interruptions.c **** void motor_control() {
 1055              		.loc 1 476 0
 1056              		.cfi_startproc
 1057              		@ args = 0, pretend = 0, frame = 80
 1058              		@ frame_needed = 1, uses_anonymous_args = 0
 1059 0000 80B5     		push	{r7, lr}
ARM GAS  C:\Users\MattiaCP\AppData\Local\Temp\ccCFTaFS.s 			page 28


 1060              		.cfi_def_cfa_offset 8
 1061              		.cfi_offset 7, -8
 1062              		.cfi_offset 14, -4
 1063 0002 94B0     		sub	sp, sp, #80
 1064              		.cfi_def_cfa_offset 88
 1065 0004 00AF     		add	r7, sp, #0
 1066              		.cfi_def_cfa_register 7
 477:..\src/interruptions.c **** 
 478:..\src/interruptions.c ****     int32 CYDATA pwm_input = 0;
 1067              		.loc 1 478 0
 1068 0006 0023     		movs	r3, #0
 1069 0008 FB64     		str	r3, [r7, #76]
 479:..\src/interruptions.c **** 
 480:..\src/interruptions.c ****     int32 CYDATA pos_error;         // position error
 481:..\src/interruptions.c ****     int32 CYDATA curr_error;        // current error
 482:..\src/interruptions.c **** 
 483:..\src/interruptions.c ****     int32 CYDATA i_ref;             // current reference
 484:..\src/interruptions.c ****     int32 CYDATA handle_value;
 485:..\src/interruptions.c **** 
 486:..\src/interruptions.c ****     int32 CYDATA err_emg_1, err_emg_2;
 487:..\src/interruptions.c **** 
 488:..\src/interruptions.c ****     int32 CYDATA k_p = c_mem.k_p;  
 1070              		.loc 1 488 0
 1071 000a 9B4B     		ldr	r3, .L169
 1072 000c 5B68     		ldr	r3, [r3, #4]
 1073 000e FB63     		str	r3, [r7, #60]
 489:..\src/interruptions.c ****     int32 CYDATA k_i = c_mem.k_i; 
 1074              		.loc 1 489 0
 1075 0010 994B     		ldr	r3, .L169
 1076 0012 9B68     		ldr	r3, [r3, #8]
 1077 0014 BB63     		str	r3, [r7, #56]
 490:..\src/interruptions.c ****     int32 CYDATA k_d = c_mem.k_d; 
 1078              		.loc 1 490 0
 1079 0016 984B     		ldr	r3, .L169
 1080 0018 DB68     		ldr	r3, [r3, #12]
 1081 001a 7B63     		str	r3, [r7, #52]
 491:..\src/interruptions.c **** 
 492:..\src/interruptions.c ****     int32 CYDATA k_p_c = c_mem.k_p_c;  
 1082              		.loc 1 492 0
 1083 001c 964B     		ldr	r3, .L169
 1084 001e 1B69     		ldr	r3, [r3, #16]
 1085 0020 3B63     		str	r3, [r7, #48]
 493:..\src/interruptions.c ****     int32 CYDATA k_i_c = c_mem.k_i_c; 
 1086              		.loc 1 493 0
 1087 0022 954B     		ldr	r3, .L169
 1088 0024 5B69     		ldr	r3, [r3, #20]
 1089 0026 FB62     		str	r3, [r7, #44]
 494:..\src/interruptions.c ****     int32 CYDATA k_d_c = c_mem.k_d_c;   
 1090              		.loc 1 494 0
 1091 0028 934B     		ldr	r3, .L169
 1092 002a 9B69     		ldr	r3, [r3, #24]
 1093 002c BB62     		str	r3, [r7, #40]
 495:..\src/interruptions.c **** 
 496:..\src/interruptions.c ****     int32 CYDATA k_p_dl = c_mem.k_p_dl;  
 1094              		.loc 1 496 0
 1095 002e 924B     		ldr	r3, .L169
 1096 0030 DB69     		ldr	r3, [r3, #28]
ARM GAS  C:\Users\MattiaCP\AppData\Local\Temp\ccCFTaFS.s 			page 29


 1097 0032 7B62     		str	r3, [r7, #36]
 497:..\src/interruptions.c ****     int32 CYDATA k_i_dl = c_mem.k_i_dl; 
 1098              		.loc 1 497 0
 1099 0034 904B     		ldr	r3, .L169
 1100 0036 1B6A     		ldr	r3, [r3, #32]
 1101 0038 3B62     		str	r3, [r7, #32]
 498:..\src/interruptions.c ****     int32 CYDATA k_d_dl = c_mem.k_d_dl;
 1102              		.loc 1 498 0
 1103 003a 8F4B     		ldr	r3, .L169
 1104 003c 5B6A     		ldr	r3, [r3, #36]
 1105 003e FB61     		str	r3, [r7, #28]
 499:..\src/interruptions.c ****     
 500:..\src/interruptions.c ****     int32 CYDATA k_p_c_dl = c_mem.k_p_c_dl;  
 1106              		.loc 1 500 0
 1107 0040 8D4B     		ldr	r3, .L169
 1108 0042 9B6A     		ldr	r3, [r3, #40]
 1109 0044 BB61     		str	r3, [r7, #24]
 501:..\src/interruptions.c ****     int32 CYDATA k_i_c_dl = c_mem.k_i_c_dl; 
 1110              		.loc 1 501 0
 1111 0046 8C4B     		ldr	r3, .L169
 1112 0048 DB6A     		ldr	r3, [r3, #44]
 1113 004a 7B61     		str	r3, [r7, #20]
 502:..\src/interruptions.c ****     int32 CYDATA k_d_c_dl = c_mem.k_d_c_dl;   
 1114              		.loc 1 502 0
 1115 004c 8A4B     		ldr	r3, .L169
 1116 004e 1B6B     		ldr	r3, [r3, #48]
 1117 0050 3B61     		str	r3, [r7, #16]
 503:..\src/interruptions.c **** 
 504:..\src/interruptions.c ****     // Static Variables
 505:..\src/interruptions.c **** 
 506:..\src/interruptions.c ****     static int32 pos_error_sum;     // position error sum for integral
 507:..\src/interruptions.c ****     static int32 curr_error_sum;    // current error sum for integral
 508:..\src/interruptions.c ****     
 509:..\src/interruptions.c ****     static int32 prev_pos_err;      // previous position error for deriv. control
 510:..\src/interruptions.c ****     static int32 prev_curr_err;     // previous current error for deriv. control
 511:..\src/interruptions.c ****     static int32 prev_pwm;
 512:..\src/interruptions.c **** 
 513:..\src/interruptions.c ****     static CYBIT motor_dir = FALSE;
 514:..\src/interruptions.c ****     static uint32 position_counter = 0;
 515:..\src/interruptions.c ****     static uint8 current_emg = 0;   // 0 NONE
 516:..\src/interruptions.c ****                                     // 1 EMG 1
 517:..\src/interruptions.c ****                                     // 2 EMG 2
 518:..\src/interruptions.c ****                                     // wait for both to get down
 519:..\src/interruptions.c ****     
 520:..\src/interruptions.c **** 
 521:..\src/interruptions.c ****     err_emg_1 = g_meas.emg[0] - c_mem.emg_threshold[0];
 1118              		.loc 1 521 0
 1119 0052 8A4B     		ldr	r3, .L169+4
 1120 0054 9B69     		ldr	r3, [r3, #24]
 1121 0056 884A     		ldr	r2, .L169
 1122 0058 B2F86A20 		ldrh	r2, [r2, #106]
 1123 005c 9B1A     		subs	r3, r3, r2
 1124 005e FB60     		str	r3, [r7, #12]
 522:..\src/interruptions.c ****     err_emg_2 = g_meas.emg[1] - c_mem.emg_threshold[1];
 1125              		.loc 1 522 0
 1126 0060 864B     		ldr	r3, .L169+4
 1127 0062 DB69     		ldr	r3, [r3, #28]
ARM GAS  C:\Users\MattiaCP\AppData\Local\Temp\ccCFTaFS.s 			page 30


 1128 0064 844A     		ldr	r2, .L169
 1129 0066 B2F86C20 		ldrh	r2, [r2, #108]
 1130 006a 9B1A     		subs	r3, r3, r2
 1131 006c BB60     		str	r3, [r7, #8]
 523:..\src/interruptions.c **** 
 524:..\src/interruptions.c ****     // =========================== POSITION INPUT ==============================            
 525:..\src/interruptions.c ****     switch(c_mem.input_mode) {
 1132              		.loc 1 525 0
 1133 006e 824B     		ldr	r3, .L169
 1134 0070 93F83530 		ldrb	r3, [r3, #53]	@ zero_extendqisi2
 1135 0074 013B     		subs	r3, r3, #1
 1136 0076 042B     		cmp	r3, #4
 1137 0078 00F27781 		bhi	.L161
 1138 007c 01A2     		adr	r2, .L59
 1139 007e 52F823F0 		ldr	pc, [r2, r3, lsl #2]
 1140 0082 00BF     		.p2align 2
 1141              	.L59:
 1142 0084 99000000 		.word	.L58+1
 1143 0088 2B010000 		.word	.L60+1
 1144 008c 57010000 		.word	.L61+1
 1145 0090 BF010000 		.word	.L62+1
 1146 0094 91020000 		.word	.L63+1
 1147              		.p2align 1
 1148              	.L58:
 526:..\src/interruptions.c ****         case INPUT_MODE_ENCODER3:
 527:..\src/interruptions.c **** 
 528:..\src/interruptions.c ****             // Calculate handle value based on position of handle in the
 529:..\src/interruptions.c ****             // sensor chain and multiplication factor between handle and motor position
 530:..\src/interruptions.c ****             if (c_mem.double_encoder_on_off) 
 1149              		.loc 1 530 0
 1150 0098 774B     		ldr	r3, .L169
 1151 009a 93F87930 		ldrb	r3, [r3, #121]	@ zero_extendqisi2
 1152 009e 002B     		cmp	r3, #0
 1153 00a0 0BD0     		beq	.L64
 531:..\src/interruptions.c ****                 handle_value = (g_meas.pos[2] * c_mem.motor_handle_ratio) + g_mem.pos_lim_inf;
 1154              		.loc 1 531 0
 1155 00a2 764B     		ldr	r3, .L169+4
 1156 00a4 9B68     		ldr	r3, [r3, #8]
 1157 00a6 744A     		ldr	r2, .L169
 1158 00a8 92F97A20 		ldrsb	r2, [r2, #122]
 1159 00ac 02FB03F2 		mul	r2, r2, r3
 1160 00b0 734B     		ldr	r3, .L169+8
 1161 00b2 9B6D     		ldr	r3, [r3, #88]
 1162 00b4 1344     		add	r3, r3, r2
 1163 00b6 3B64     		str	r3, [r7, #64]
 1164 00b8 0AE0     		b	.L65
 1165              	.L64:
 532:..\src/interruptions.c ****             else
 533:..\src/interruptions.c ****                 handle_value = (g_meas.pos[1] * c_mem.motor_handle_ratio) + g_mem.pos_lim_inf;
 1166              		.loc 1 533 0
 1167 00ba 704B     		ldr	r3, .L169+4
 1168 00bc 5B68     		ldr	r3, [r3, #4]
 1169 00be 6E4A     		ldr	r2, .L169
 1170 00c0 92F97A20 		ldrsb	r2, [r2, #122]
 1171 00c4 02FB03F2 		mul	r2, r2, r3
 1172 00c8 6D4B     		ldr	r3, .L169+8
 1173 00ca 9B6D     		ldr	r3, [r3, #88]
ARM GAS  C:\Users\MattiaCP\AppData\Local\Temp\ccCFTaFS.s 			page 31


 1174 00cc 1344     		add	r3, r3, r2
 1175 00ce 3B64     		str	r3, [r7, #64]
 1176              	.L65:
 534:..\src/interruptions.c ****             
 535:..\src/interruptions.c **** 
 536:..\src/interruptions.c ****             // Read handle and use it as reference for the motor
 537:..\src/interruptions.c ****             if (((handle_value - g_refOld.pos) > c_mem.max_step_pos) && (c_mem.max_step_pos != 0))
 1177              		.loc 1 537 0
 1178 00d0 6C4B     		ldr	r3, .L169+12
 1179 00d2 1B68     		ldr	r3, [r3]
 1180 00d4 3A6C     		ldr	r2, [r7, #64]
 1181 00d6 D21A     		subs	r2, r2, r3
 1182 00d8 674B     		ldr	r3, .L169
 1183 00da 5B6E     		ldr	r3, [r3, #100]
 1184 00dc 9A42     		cmp	r2, r3
 1185 00de 0BDD     		ble	.L66
 1186              		.loc 1 537 0 is_stmt 0 discriminator 1
 1187 00e0 654B     		ldr	r3, .L169
 1188 00e2 5B6E     		ldr	r3, [r3, #100]
 1189 00e4 002B     		cmp	r3, #0
 1190 00e6 07D0     		beq	.L66
 538:..\src/interruptions.c ****                 g_ref.pos += c_mem.max_step_pos;
 1191              		.loc 1 538 0 is_stmt 1
 1192 00e8 674B     		ldr	r3, .L169+16
 1193 00ea 1A68     		ldr	r2, [r3]
 1194 00ec 624B     		ldr	r3, .L169
 1195 00ee 5B6E     		ldr	r3, [r3, #100]
 1196 00f0 1344     		add	r3, r3, r2
 1197 00f2 654A     		ldr	r2, .L169+16
 1198 00f4 1360     		str	r3, [r2]
 1199 00f6 17E0     		b	.L67
 1200              	.L66:
 539:..\src/interruptions.c ****             else {
 540:..\src/interruptions.c ****                 if (((handle_value - g_refOld.pos) < c_mem.max_step_neg) && (c_mem.max_step_neg != 
 1201              		.loc 1 540 0
 1202 00f8 624B     		ldr	r3, .L169+12
 1203 00fa 1B68     		ldr	r3, [r3]
 1204 00fc 3A6C     		ldr	r2, [r7, #64]
 1205 00fe D21A     		subs	r2, r2, r3
 1206 0100 5D4B     		ldr	r3, .L169
 1207 0102 1B6E     		ldr	r3, [r3, #96]
 1208 0104 9A42     		cmp	r2, r3
 1209 0106 0BDA     		bge	.L68
 1210              		.loc 1 540 0 is_stmt 0 discriminator 1
 1211 0108 5B4B     		ldr	r3, .L169
 1212 010a 1B6E     		ldr	r3, [r3, #96]
 1213 010c 002B     		cmp	r3, #0
 1214 010e 07D0     		beq	.L68
 541:..\src/interruptions.c ****                     g_ref.pos += c_mem.max_step_neg;
 1215              		.loc 1 541 0 is_stmt 1
 1216 0110 5D4B     		ldr	r3, .L169+16
 1217 0112 1A68     		ldr	r2, [r3]
 1218 0114 584B     		ldr	r3, .L169
 1219 0116 1B6E     		ldr	r3, [r3, #96]
 1220 0118 1344     		add	r3, r3, r2
 1221 011a 5B4A     		ldr	r2, .L169+16
 1222 011c 1360     		str	r3, [r2]
ARM GAS  C:\Users\MattiaCP\AppData\Local\Temp\ccCFTaFS.s 			page 32


 1223 011e 03E0     		b	.L67
 1224              	.L68:
 542:..\src/interruptions.c ****                 else
 543:..\src/interruptions.c ****                     g_ref.pos = handle_value;
 1225              		.loc 1 543 0
 1226 0120 594A     		ldr	r2, .L169+16
 1227 0122 3B6C     		ldr	r3, [r7, #64]
 1228 0124 1360     		str	r3, [r2]
 544:..\src/interruptions.c ****             }
 545:..\src/interruptions.c ****             break;
 1229              		.loc 1 545 0
 1230 0126 23E1     		b	.L69
 1231              	.L67:
 1232 0128 22E1     		b	.L69
 1233              	.L60:
 546:..\src/interruptions.c ****             
 547:..\src/interruptions.c ****         case INPUT_MODE_EMG_PROPORTIONAL:
 548:..\src/interruptions.c ****             if (err_emg_1 > 0)
 1234              		.loc 1 548 0
 1235 012a FB68     		ldr	r3, [r7, #12]
 1236 012c 002B     		cmp	r3, #0
 1237 012e 0EDD     		ble	.L70
 549:..\src/interruptions.c ****                 g_ref.pos = (err_emg_1 * g_mem.pos_lim_sup) / (1024 - c_mem.emg_threshold[0]);
 1238              		.loc 1 549 0
 1239 0130 534B     		ldr	r3, .L169+8
 1240 0132 DB6D     		ldr	r3, [r3, #92]
 1241 0134 FA68     		ldr	r2, [r7, #12]
 1242 0136 02FB03F2 		mul	r2, r2, r3
 1243 013a 4F4B     		ldr	r3, .L169
 1244 013c B3F86A30 		ldrh	r3, [r3, #106]
 1245 0140 C3F58063 		rsb	r3, r3, #1024
 1246 0144 92FBF3F3 		sdiv	r3, r2, r3
 1247 0148 4F4A     		ldr	r2, .L169+16
 1248 014a 1360     		str	r3, [r2]
 550:..\src/interruptions.c ****             else
 551:..\src/interruptions.c ****                 g_ref.pos = 0;
 552:..\src/interruptions.c ****             break;
 1249              		.loc 1 552 0
 1250 014c 10E1     		b	.L69
 1251              	.L70:
 551:..\src/interruptions.c ****             break;
 1252              		.loc 1 551 0
 1253 014e 4E4B     		ldr	r3, .L169+16
 1254 0150 0022     		movs	r2, #0
 1255 0152 1A60     		str	r2, [r3]
 1256              		.loc 1 552 0
 1257 0154 0CE1     		b	.L69
 1258              	.L61:
 553:..\src/interruptions.c **** 
 554:..\src/interruptions.c ****         case INPUT_MODE_EMG_INTEGRAL:
 555:..\src/interruptions.c ****             g_ref.pos = g_refOld.pos;
 1259              		.loc 1 555 0
 1260 0156 4B4B     		ldr	r3, .L169+12
 1261 0158 1B68     		ldr	r3, [r3]
 1262 015a 4B4A     		ldr	r2, .L169+16
 1263 015c 1360     		str	r3, [r2]
 556:..\src/interruptions.c ****             if (err_emg_1 > 0) {
ARM GAS  C:\Users\MattiaCP\AppData\Local\Temp\ccCFTaFS.s 			page 33


 1264              		.loc 1 556 0
 1265 015e FB68     		ldr	r3, [r7, #12]
 1266 0160 002B     		cmp	r3, #0
 1267 0162 13DD     		ble	.L72
 557:..\src/interruptions.c ****                 g_ref.pos = g_refOld.pos + (err_emg_1 * (int)g_mem.emg_speed * 2) / (1024 - c_mem.e
 1268              		.loc 1 557 0
 1269 0164 474B     		ldr	r3, .L169+12
 1270 0166 1A68     		ldr	r2, [r3]
 1271 0168 454B     		ldr	r3, .L169+8
 1272 016a 93F87830 		ldrb	r3, [r3, #120]	@ zero_extendqisi2
 1273 016e 1946     		mov	r1, r3
 1274 0170 FB68     		ldr	r3, [r7, #12]
 1275 0172 03FB01F3 		mul	r3, r3, r1
 1276 0176 5900     		lsls	r1, r3, #1
 1277 0178 3F4B     		ldr	r3, .L169
 1278 017a B3F86A30 		ldrh	r3, [r3, #106]
 1279 017e C3F58063 		rsb	r3, r3, #1024
 1280 0182 91FBF3F3 		sdiv	r3, r1, r3
 1281 0186 1344     		add	r3, r3, r2
 1282 0188 3F4A     		ldr	r2, .L169+16
 1283 018a 1360     		str	r3, [r2]
 1284              	.L72:
 558:..\src/interruptions.c ****             }
 559:..\src/interruptions.c ****             if (err_emg_2 > 0) {
 1285              		.loc 1 559 0
 1286 018c BB68     		ldr	r3, [r7, #8]
 1287 018e 002B     		cmp	r3, #0
 1288 0190 40F3ED80 		ble	.L162
 560:..\src/interruptions.c ****                 g_ref.pos = g_refOld.pos - (err_emg_2 * (int)g_mem.emg_speed * 2) / (1024 - c_mem.e
 1289              		.loc 1 560 0
 1290 0194 3B4B     		ldr	r3, .L169+12
 1291 0196 1A68     		ldr	r2, [r3]
 1292 0198 394B     		ldr	r3, .L169+8
 1293 019a 93F87830 		ldrb	r3, [r3, #120]	@ zero_extendqisi2
 1294 019e 1946     		mov	r1, r3
 1295 01a0 BB68     		ldr	r3, [r7, #8]
 1296 01a2 03FB01F3 		mul	r3, r3, r1
 1297 01a6 5900     		lsls	r1, r3, #1
 1298 01a8 334B     		ldr	r3, .L169
 1299 01aa B3F86C30 		ldrh	r3, [r3, #108]
 1300 01ae C3F58063 		rsb	r3, r3, #1024
 1301 01b2 91FBF3F3 		sdiv	r3, r1, r3
 1302 01b6 D31A     		subs	r3, r2, r3
 1303 01b8 334A     		ldr	r2, .L169+16
 1304 01ba 1360     		str	r3, [r2]
 561:..\src/interruptions.c ****             }
 562:..\src/interruptions.c ****             break;
 1305              		.loc 1 562 0
 1306 01bc D7E0     		b	.L162
 1307              	.L62:
 563:..\src/interruptions.c **** 
 564:..\src/interruptions.c ****         case INPUT_MODE_EMG_FCFS:
 565:..\src/interruptions.c ****             g_ref.pos = g_refOld.pos;
 1308              		.loc 1 565 0
 1309 01be 314B     		ldr	r3, .L169+12
 1310 01c0 1B68     		ldr	r3, [r3]
 1311 01c2 314A     		ldr	r2, .L169+16
ARM GAS  C:\Users\MattiaCP\AppData\Local\Temp\ccCFTaFS.s 			page 34


 1312 01c4 1360     		str	r3, [r2]
 566:..\src/interruptions.c ****             switch (current_emg) {
 1313              		.loc 1 566 0
 1314 01c6 314B     		ldr	r3, .L169+20
 1315 01c8 1B78     		ldrb	r3, [r3]	@ zero_extendqisi2
 1316 01ca 012B     		cmp	r3, #1
 1317 01cc 1AD0     		beq	.L75
 1318 01ce 022B     		cmp	r3, #2
 1319 01d0 34D0     		beq	.L76
 1320 01d2 002B     		cmp	r3, #0
 1321 01d4 00D0     		beq	.L77
 567:..\src/interruptions.c ****                 case 0:
 568:..\src/interruptions.c ****                     // Look for the first EMG passing the threshold
 569:..\src/interruptions.c ****                     if (err_emg_1 > 0 && err_emg_1 > err_emg_2) {
 570:..\src/interruptions.c ****                         current_emg = 1;
 571:..\src/interruptions.c ****                         break;
 572:..\src/interruptions.c ****                     }
 573:..\src/interruptions.c ****                     if (err_emg_2 > 0 && err_emg_2 > err_emg_1) {
 574:..\src/interruptions.c ****                         current_emg = 2;
 575:..\src/interruptions.c ****                         break;
 576:..\src/interruptions.c ****                     }
 577:..\src/interruptions.c ****                     break;
 578:..\src/interruptions.c **** 
 579:..\src/interruptions.c ****                 case 1:
 580:..\src/interruptions.c ****                     // EMG 1 is first
 581:..\src/interruptions.c ****                     if (err_emg_1 < 0) {
 582:..\src/interruptions.c ****                         current_emg = 0;
 583:..\src/interruptions.c ****                         break;
 584:..\src/interruptions.c ****                     }
 585:..\src/interruptions.c ****                     g_ref.pos = g_refOld.pos + (err_emg_1 * g_mem.emg_speed << 2) / (1024 - c_mem.e
 586:..\src/interruptions.c ****                     break;
 587:..\src/interruptions.c **** 
 588:..\src/interruptions.c ****                 case 2:
 589:..\src/interruptions.c ****                     // EMG 2 is first
 590:..\src/interruptions.c ****                     if (err_emg_2 < 0) {
 591:..\src/interruptions.c ****                         current_emg = 0;
 592:..\src/interruptions.c ****                         break;
 593:..\src/interruptions.c ****                     }
 594:..\src/interruptions.c ****                     g_ref.pos = g_refOld.pos - (err_emg_2 * g_mem.emg_speed << 2) / (1024 - c_mem.e
 595:..\src/interruptions.c ****                     break;
 596:..\src/interruptions.c **** 
 597:..\src/interruptions.c ****                 default:
 598:..\src/interruptions.c ****                     break;
 1322              		.loc 1 598 0
 1323 01d6 4EE0     		b	.L79
 1324              	.L77:
 569:..\src/interruptions.c ****                         current_emg = 1;
 1325              		.loc 1 569 0
 1326 01d8 FB68     		ldr	r3, [r7, #12]
 1327 01da 002B     		cmp	r3, #0
 1328 01dc 07DD     		ble	.L78
 569:..\src/interruptions.c ****                         current_emg = 1;
 1329              		.loc 1 569 0 is_stmt 0 discriminator 1
 1330 01de FA68     		ldr	r2, [r7, #12]
 1331 01e0 BB68     		ldr	r3, [r7, #8]
 1332 01e2 9A42     		cmp	r2, r3
 1333 01e4 03DD     		ble	.L78
ARM GAS  C:\Users\MattiaCP\AppData\Local\Temp\ccCFTaFS.s 			page 35


 570:..\src/interruptions.c ****                         break;
 1334              		.loc 1 570 0 is_stmt 1
 1335 01e6 294B     		ldr	r3, .L169+20
 1336 01e8 0122     		movs	r2, #1
 1337 01ea 1A70     		strb	r2, [r3]
 571:..\src/interruptions.c ****                     }
 1338              		.loc 1 571 0
 1339 01ec 43E0     		b	.L79
 1340              	.L78:
 573:..\src/interruptions.c ****                         current_emg = 2;
 1341              		.loc 1 573 0
 1342 01ee BB68     		ldr	r3, [r7, #8]
 1343 01f0 002B     		cmp	r3, #0
 1344 01f2 3FDD     		ble	.L163
 573:..\src/interruptions.c ****                         current_emg = 2;
 1345              		.loc 1 573 0 is_stmt 0 discriminator 1
 1346 01f4 BA68     		ldr	r2, [r7, #8]
 1347 01f6 FB68     		ldr	r3, [r7, #12]
 1348 01f8 9A42     		cmp	r2, r3
 1349 01fa 3BDD     		ble	.L163
 574:..\src/interruptions.c ****                         break;
 1350              		.loc 1 574 0 is_stmt 1
 1351 01fc 234B     		ldr	r3, .L169+20
 1352 01fe 0222     		movs	r2, #2
 1353 0200 1A70     		strb	r2, [r3]
 575:..\src/interruptions.c ****                     }
 1354              		.loc 1 575 0
 1355 0202 38E0     		b	.L79
 1356              	.L75:
 581:..\src/interruptions.c ****                         current_emg = 0;
 1357              		.loc 1 581 0
 1358 0204 FB68     		ldr	r3, [r7, #12]
 1359 0206 002B     		cmp	r3, #0
 1360 0208 03DA     		bge	.L81
 582:..\src/interruptions.c ****                         break;
 1361              		.loc 1 582 0
 1362 020a 204B     		ldr	r3, .L169+20
 1363 020c 0022     		movs	r2, #0
 1364 020e 1A70     		strb	r2, [r3]
 583:..\src/interruptions.c ****                     }
 1365              		.loc 1 583 0
 1366 0210 31E0     		b	.L79
 1367              	.L81:
 585:..\src/interruptions.c ****                     break;
 1368              		.loc 1 585 0
 1369 0212 1C4B     		ldr	r3, .L169+12
 1370 0214 1A68     		ldr	r2, [r3]
 1371 0216 1A4B     		ldr	r3, .L169+8
 1372 0218 93F87830 		ldrb	r3, [r3, #120]	@ zero_extendqisi2
 1373 021c 1946     		mov	r1, r3
 1374 021e FB68     		ldr	r3, [r7, #12]
 1375 0220 03FB01F3 		mul	r3, r3, r1
 1376 0224 9900     		lsls	r1, r3, #2
 1377 0226 144B     		ldr	r3, .L169
 1378 0228 B3F86A30 		ldrh	r3, [r3, #106]
 1379 022c C3F58063 		rsb	r3, r3, #1024
 1380 0230 91FBF3F3 		sdiv	r3, r1, r3
ARM GAS  C:\Users\MattiaCP\AppData\Local\Temp\ccCFTaFS.s 			page 36


 1381 0234 1344     		add	r3, r3, r2
 1382 0236 144A     		ldr	r2, .L169+16
 1383 0238 1360     		str	r3, [r2]
 586:..\src/interruptions.c **** 
 1384              		.loc 1 586 0
 1385 023a 1CE0     		b	.L79
 1386              	.L76:
 590:..\src/interruptions.c ****                         current_emg = 0;
 1387              		.loc 1 590 0
 1388 023c BB68     		ldr	r3, [r7, #8]
 1389 023e 002B     		cmp	r3, #0
 1390 0240 03DA     		bge	.L82
 591:..\src/interruptions.c ****                         break;
 1391              		.loc 1 591 0
 1392 0242 124B     		ldr	r3, .L169+20
 1393 0244 0022     		movs	r2, #0
 1394 0246 1A70     		strb	r2, [r3]
 592:..\src/interruptions.c ****                     }
 1395              		.loc 1 592 0
 1396 0248 15E0     		b	.L79
 1397              	.L82:
 594:..\src/interruptions.c ****                     break;
 1398              		.loc 1 594 0
 1399 024a 0E4B     		ldr	r3, .L169+12
 1400 024c 1A68     		ldr	r2, [r3]
 1401 024e 0C4B     		ldr	r3, .L169+8
 1402 0250 93F87830 		ldrb	r3, [r3, #120]	@ zero_extendqisi2
 1403 0254 1946     		mov	r1, r3
 1404 0256 BB68     		ldr	r3, [r7, #8]
 1405 0258 03FB01F3 		mul	r3, r3, r1
 1406 025c 9900     		lsls	r1, r3, #2
 1407 025e 064B     		ldr	r3, .L169
 1408 0260 B3F86C30 		ldrh	r3, [r3, #108]
 1409 0264 C3F58063 		rsb	r3, r3, #1024
 1410 0268 91FBF3F3 		sdiv	r3, r1, r3
 1411 026c D31A     		subs	r3, r2, r3
 1412 026e 064A     		ldr	r2, .L169+16
 1413 0270 1360     		str	r3, [r2]
 595:..\src/interruptions.c **** 
 1414              		.loc 1 595 0
 1415 0272 00E0     		b	.L79
 1416              	.L163:
 577:..\src/interruptions.c **** 
 1417              		.loc 1 577 0
 1418 0274 00BF     		nop
 1419              	.L79:
 599:..\src/interruptions.c ****             }
 600:..\src/interruptions.c ****             break;
 1420              		.loc 1 600 0 discriminator 1
 1421 0276 7BE0     		b	.L69
 1422              	.L170:
 1423              		.align	2
 1424              	.L169:
 1425 0278 00000000 		.word	c_mem
 1426 027c 00000000 		.word	g_meas
 1427 0280 00000000 		.word	g_mem
 1428 0284 00000000 		.word	g_refOld
ARM GAS  C:\Users\MattiaCP\AppData\Local\Temp\ccCFTaFS.s 			page 37


 1429 0288 00000000 		.word	g_ref
 1430 028c 8C000000 		.word	current_emg.10096
 1431              	.L63:
 601:..\src/interruptions.c **** 
 602:..\src/interruptions.c ****         case INPUT_MODE_EMG_FCFS_ADV:
 603:..\src/interruptions.c ****             g_ref.pos = g_refOld.pos;
 1432              		.loc 1 603 0
 1433 0290 974B     		ldr	r3, .L171
 1434 0292 1B68     		ldr	r3, [r3]
 1435 0294 974A     		ldr	r2, .L171+4
 1436 0296 1360     		str	r3, [r2]
 604:..\src/interruptions.c ****             switch (current_emg) {
 1437              		.loc 1 604 0
 1438 0298 974B     		ldr	r3, .L171+8
 1439 029a 1B78     		ldrb	r3, [r3]	@ zero_extendqisi2
 1440 029c 012B     		cmp	r3, #1
 1441 029e 1AD0     		beq	.L84
 1442 02a0 022B     		cmp	r3, #2
 1443 02a2 3AD0     		beq	.L85
 1444 02a4 002B     		cmp	r3, #0
 1445 02a6 00D0     		beq	.L86
 605:..\src/interruptions.c ****                 // Look for the first EMG passing the threshold
 606:..\src/interruptions.c ****                 case 0:
 607:..\src/interruptions.c ****                     if (err_emg_1 > 0 && err_emg_1 > err_emg_2) {
 608:..\src/interruptions.c ****                         current_emg = 1;
 609:..\src/interruptions.c ****                         break;
 610:..\src/interruptions.c ****                     }
 611:..\src/interruptions.c ****                     if (err_emg_2 > 0 && err_emg_2 > err_emg_1) {
 612:..\src/interruptions.c ****                         current_emg = 2;
 613:..\src/interruptions.c ****                         break;
 614:..\src/interruptions.c ****                     }
 615:..\src/interruptions.c ****                     break;
 616:..\src/interruptions.c **** 
 617:..\src/interruptions.c ****                 // EMG 1 is first
 618:..\src/interruptions.c ****                 case 1:
 619:..\src/interruptions.c ****                     // If both signals are under threshold go back to status 0
 620:..\src/interruptions.c ****                     if ((err_emg_1 < 0) && (err_emg_2 < 0)) {
 621:..\src/interruptions.c ****                         current_emg = 0;
 622:..\src/interruptions.c ****                         break;
 623:..\src/interruptions.c ****                     }
 624:..\src/interruptions.c ****                     // but if the current signal come back over threshold, continue using it
 625:..\src/interruptions.c ****                     if (err_emg_1 > 0) 
 626:..\src/interruptions.c ****                         g_ref.pos = g_refOld.pos + (err_emg_1 * g_mem.emg_speed << 2) / (1024 - c_m
 627:..\src/interruptions.c ****                     
 628:..\src/interruptions.c ****                     break;
 629:..\src/interruptions.c **** 
 630:..\src/interruptions.c ****                 // EMG 2 is first
 631:..\src/interruptions.c ****                 case 2:
 632:..\src/interruptions.c ****                     // If both signals are under threshold go back to status 0
 633:..\src/interruptions.c ****                     if ((err_emg_1 < 0) && (err_emg_2 < 0)) {
 634:..\src/interruptions.c ****                         current_emg = 0;
 635:..\src/interruptions.c ****                         break;
 636:..\src/interruptions.c ****                     }
 637:..\src/interruptions.c ****                     // but if the current signal come back over threshold, continue using it
 638:..\src/interruptions.c ****                     if (err_emg_2 > 0) {
 639:..\src/interruptions.c ****                         g_ref.pos = g_refOld.pos - (err_emg_2 * c_mem.emg_speed << 2) / (1024 - c_m
 640:..\src/interruptions.c ****                     }
ARM GAS  C:\Users\MattiaCP\AppData\Local\Temp\ccCFTaFS.s 			page 38


 641:..\src/interruptions.c ****                     break;
 642:..\src/interruptions.c **** 
 643:..\src/interruptions.c ****                 default:
 644:..\src/interruptions.c ****                     break;
 1446              		.loc 1 644 0
 1447 02a8 5EE0     		b	.L88
 1448              	.L86:
 607:..\src/interruptions.c ****                         current_emg = 1;
 1449              		.loc 1 607 0
 1450 02aa FB68     		ldr	r3, [r7, #12]
 1451 02ac 002B     		cmp	r3, #0
 1452 02ae 07DD     		ble	.L87
 607:..\src/interruptions.c ****                         current_emg = 1;
 1453              		.loc 1 607 0 is_stmt 0 discriminator 1
 1454 02b0 FA68     		ldr	r2, [r7, #12]
 1455 02b2 BB68     		ldr	r3, [r7, #8]
 1456 02b4 9A42     		cmp	r2, r3
 1457 02b6 03DD     		ble	.L87
 608:..\src/interruptions.c ****                         break;
 1458              		.loc 1 608 0 is_stmt 1
 1459 02b8 8F4B     		ldr	r3, .L171+8
 1460 02ba 0122     		movs	r2, #1
 1461 02bc 1A70     		strb	r2, [r3]
 609:..\src/interruptions.c ****                     }
 1462              		.loc 1 609 0
 1463 02be 53E0     		b	.L88
 1464              	.L87:
 611:..\src/interruptions.c ****                         current_emg = 2;
 1465              		.loc 1 611 0
 1466 02c0 BB68     		ldr	r3, [r7, #8]
 1467 02c2 002B     		cmp	r3, #0
 1468 02c4 4BDD     		ble	.L164
 611:..\src/interruptions.c ****                         current_emg = 2;
 1469              		.loc 1 611 0 is_stmt 0 discriminator 1
 1470 02c6 BA68     		ldr	r2, [r7, #8]
 1471 02c8 FB68     		ldr	r3, [r7, #12]
 1472 02ca 9A42     		cmp	r2, r3
 1473 02cc 47DD     		ble	.L164
 612:..\src/interruptions.c ****                         break;
 1474              		.loc 1 612 0 is_stmt 1
 1475 02ce 8A4B     		ldr	r3, .L171+8
 1476 02d0 0222     		movs	r2, #2
 1477 02d2 1A70     		strb	r2, [r3]
 613:..\src/interruptions.c ****                     }
 1478              		.loc 1 613 0
 1479 02d4 48E0     		b	.L88
 1480              	.L84:
 620:..\src/interruptions.c ****                         current_emg = 0;
 1481              		.loc 1 620 0
 1482 02d6 FB68     		ldr	r3, [r7, #12]
 1483 02d8 002B     		cmp	r3, #0
 1484 02da 06DA     		bge	.L90
 620:..\src/interruptions.c ****                         current_emg = 0;
 1485              		.loc 1 620 0 is_stmt 0 discriminator 1
 1486 02dc BB68     		ldr	r3, [r7, #8]
 1487 02de 002B     		cmp	r3, #0
 1488 02e0 03DA     		bge	.L90
ARM GAS  C:\Users\MattiaCP\AppData\Local\Temp\ccCFTaFS.s 			page 39


 621:..\src/interruptions.c ****                         break;
 1489              		.loc 1 621 0 is_stmt 1
 1490 02e2 854B     		ldr	r3, .L171+8
 1491 02e4 0022     		movs	r2, #0
 1492 02e6 1A70     		strb	r2, [r3]
 622:..\src/interruptions.c ****                     }
 1493              		.loc 1 622 0
 1494 02e8 3EE0     		b	.L88
 1495              	.L90:
 625:..\src/interruptions.c ****                         g_ref.pos = g_refOld.pos + (err_emg_1 * g_mem.emg_speed << 2) / (1024 - c_m
 1496              		.loc 1 625 0
 1497 02ea FB68     		ldr	r3, [r7, #12]
 1498 02ec 002B     		cmp	r3, #0
 1499 02ee 38DD     		ble	.L165
 626:..\src/interruptions.c ****                     
 1500              		.loc 1 626 0
 1501 02f0 7F4B     		ldr	r3, .L171
 1502 02f2 1A68     		ldr	r2, [r3]
 1503 02f4 814B     		ldr	r3, .L171+12
 1504 02f6 93F87830 		ldrb	r3, [r3, #120]	@ zero_extendqisi2
 1505 02fa 1946     		mov	r1, r3
 1506 02fc FB68     		ldr	r3, [r7, #12]
 1507 02fe 03FB01F3 		mul	r3, r3, r1
 1508 0302 9900     		lsls	r1, r3, #2
 1509 0304 7E4B     		ldr	r3, .L171+16
 1510 0306 B3F86A30 		ldrh	r3, [r3, #106]
 1511 030a C3F58063 		rsb	r3, r3, #1024
 1512 030e 91FBF3F3 		sdiv	r3, r1, r3
 1513 0312 1344     		add	r3, r3, r2
 1514 0314 774A     		ldr	r2, .L171+4
 1515 0316 1360     		str	r3, [r2]
 628:..\src/interruptions.c **** 
 1516              		.loc 1 628 0
 1517 0318 23E0     		b	.L165
 1518              	.L85:
 633:..\src/interruptions.c ****                         current_emg = 0;
 1519              		.loc 1 633 0
 1520 031a FB68     		ldr	r3, [r7, #12]
 1521 031c 002B     		cmp	r3, #0
 1522 031e 06DA     		bge	.L92
 633:..\src/interruptions.c ****                         current_emg = 0;
 1523              		.loc 1 633 0 is_stmt 0 discriminator 1
 1524 0320 BB68     		ldr	r3, [r7, #8]
 1525 0322 002B     		cmp	r3, #0
 1526 0324 03DA     		bge	.L92
 634:..\src/interruptions.c ****                         break;
 1527              		.loc 1 634 0 is_stmt 1
 1528 0326 744B     		ldr	r3, .L171+8
 1529 0328 0022     		movs	r2, #0
 1530 032a 1A70     		strb	r2, [r3]
 635:..\src/interruptions.c ****                     }
 1531              		.loc 1 635 0
 1532 032c 1CE0     		b	.L88
 1533              	.L92:
 638:..\src/interruptions.c ****                         g_ref.pos = g_refOld.pos - (err_emg_2 * c_mem.emg_speed << 2) / (1024 - c_m
 1534              		.loc 1 638 0
 1535 032e BB68     		ldr	r3, [r7, #8]
ARM GAS  C:\Users\MattiaCP\AppData\Local\Temp\ccCFTaFS.s 			page 40


 1536 0330 002B     		cmp	r3, #0
 1537 0332 18DD     		ble	.L166
 639:..\src/interruptions.c ****                     }
 1538              		.loc 1 639 0
 1539 0334 6E4B     		ldr	r3, .L171
 1540 0336 1A68     		ldr	r2, [r3]
 1541 0338 714B     		ldr	r3, .L171+16
 1542 033a 93F87830 		ldrb	r3, [r3, #120]	@ zero_extendqisi2
 1543 033e 1946     		mov	r1, r3
 1544 0340 BB68     		ldr	r3, [r7, #8]
 1545 0342 03FB01F3 		mul	r3, r3, r1
 1546 0346 9900     		lsls	r1, r3, #2
 1547 0348 6D4B     		ldr	r3, .L171+16
 1548 034a B3F86C30 		ldrh	r3, [r3, #108]
 1549 034e C3F58063 		rsb	r3, r3, #1024
 1550 0352 91FBF3F3 		sdiv	r3, r1, r3
 1551 0356 D31A     		subs	r3, r2, r3
 1552 0358 664A     		ldr	r2, .L171+4
 1553 035a 1360     		str	r3, [r2]
 641:..\src/interruptions.c **** 
 1554              		.loc 1 641 0
 1555 035c 03E0     		b	.L166
 1556              	.L164:
 615:..\src/interruptions.c **** 
 1557              		.loc 1 615 0
 1558 035e 00BF     		nop
 1559 0360 06E0     		b	.L69
 1560              	.L165:
 628:..\src/interruptions.c **** 
 1561              		.loc 1 628 0
 1562 0362 00BF     		nop
 1563 0364 04E0     		b	.L69
 1564              	.L166:
 641:..\src/interruptions.c **** 
 1565              		.loc 1 641 0
 1566 0366 00BF     		nop
 1567              	.L88:
 645:..\src/interruptions.c ****             }
 646:..\src/interruptions.c ****             break;
 1568              		.loc 1 646 0 discriminator 3
 1569 0368 02E0     		b	.L69
 1570              	.L161:
 647:..\src/interruptions.c **** 
 648:..\src/interruptions.c ****         default:
 649:..\src/interruptions.c ****             break;
 1571              		.loc 1 649 0
 1572 036a 00BF     		nop
 1573 036c 00E0     		b	.L69
 1574              	.L162:
 562:..\src/interruptions.c **** 
 1575              		.loc 1 562 0
 1576 036e 00BF     		nop
 1577              	.L69:
 650:..\src/interruptions.c ****     }
 651:..\src/interruptions.c **** 
 652:..\src/interruptions.c ****     // Position limit saturation
 653:..\src/interruptions.c ****     if (c_mem.pos_lim_flag) {
ARM GAS  C:\Users\MattiaCP\AppData\Local\Temp\ccCFTaFS.s 			page 41


 1578              		.loc 1 653 0
 1579 0370 634B     		ldr	r3, .L171+16
 1580 0372 93F85430 		ldrb	r3, [r3, #84]	@ zero_extendqisi2
 1581 0376 002B     		cmp	r3, #0
 1582 0378 13D0     		beq	.L94
 654:..\src/interruptions.c ****         if (g_ref.pos < c_mem.pos_lim_inf) 
 1583              		.loc 1 654 0
 1584 037a 5E4B     		ldr	r3, .L171+4
 1585 037c 1A68     		ldr	r2, [r3]
 1586 037e 604B     		ldr	r3, .L171+16
 1587 0380 9B6D     		ldr	r3, [r3, #88]
 1588 0382 9A42     		cmp	r2, r3
 1589 0384 03DA     		bge	.L95
 655:..\src/interruptions.c ****             g_ref.pos = c_mem.pos_lim_inf;
 1590              		.loc 1 655 0
 1591 0386 5E4B     		ldr	r3, .L171+16
 1592 0388 9B6D     		ldr	r3, [r3, #88]
 1593 038a 5A4A     		ldr	r2, .L171+4
 1594 038c 1360     		str	r3, [r2]
 1595              	.L95:
 656:..\src/interruptions.c ****         if (g_ref.pos > c_mem.pos_lim_sup) 
 1596              		.loc 1 656 0
 1597 038e 594B     		ldr	r3, .L171+4
 1598 0390 1A68     		ldr	r2, [r3]
 1599 0392 5B4B     		ldr	r3, .L171+16
 1600 0394 DB6D     		ldr	r3, [r3, #92]
 1601 0396 9A42     		cmp	r2, r3
 1602 0398 03DD     		ble	.L94
 657:..\src/interruptions.c ****             g_ref.pos = c_mem.pos_lim_sup;
 1603              		.loc 1 657 0
 1604 039a 594B     		ldr	r3, .L171+16
 1605 039c DB6D     		ldr	r3, [r3, #92]
 1606 039e 554A     		ldr	r2, .L171+4
 1607 03a0 1360     		str	r3, [r2]
 1608              	.L94:
 658:..\src/interruptions.c ****     }
 659:..\src/interruptions.c ****     
 660:..\src/interruptions.c ****     if (battery_low_SoC == 1) {
 1609              		.loc 1 660 0
 1610 03a2 584B     		ldr	r3, .L171+20
 1611 03a4 1B78     		ldrb	r3, [r3]	@ zero_extendqisi2
 1612 03a6 012B     		cmp	r3, #1
 1613 03a8 02D1     		bne	.L96
 661:..\src/interruptions.c ****         //Reopen the terminal device before disabling motor
 662:..\src/interruptions.c ****         g_ref.pos = 0;
 1614              		.loc 1 662 0
 1615 03aa 524B     		ldr	r3, .L171+4
 1616 03ac 0022     		movs	r2, #0
 1617 03ae 1A60     		str	r2, [r3]
 1618              	.L96:
 663:..\src/interruptions.c ****     }
 664:..\src/interruptions.c ****         
 665:..\src/interruptions.c ****     if (c_mem.rest_position_flag == TRUE) {
 1619              		.loc 1 665 0
 1620 03b0 534B     		ldr	r3, .L171+16
 1621 03b2 93F8A430 		ldrb	r3, [r3, #164]	@ zero_extendqisi2
 1622 03b6 012B     		cmp	r3, #1
ARM GAS  C:\Users\MattiaCP\AppData\Local\Temp\ccCFTaFS.s 			page 42


 1623 03b8 2AD1     		bne	.L97
 666:..\src/interruptions.c ****         if (rest_enabled == 1){
 1624              		.loc 1 666 0
 1625 03ba 534B     		ldr	r3, .L171+24
 1626 03bc 1B78     		ldrb	r3, [r3]	@ zero_extendqisi2
 1627 03be 012B     		cmp	r3, #1
 1628 03c0 03D1     		bne	.L98
 667:..\src/interruptions.c ****             // Change position reference to drive motor to rest position smoothly
 668:..\src/interruptions.c ****             g_ref.pos = rest_pos_curr_ref;
 1629              		.loc 1 668 0
 1630 03c2 524B     		ldr	r3, .L171+28
 1631 03c4 1B68     		ldr	r3, [r3]
 1632 03c6 4B4A     		ldr	r2, .L171+4
 1633 03c8 1360     		str	r3, [r2]
 1634              	.L98:
 669:..\src/interruptions.c ****         }
 670:..\src/interruptions.c ****         
 671:..\src/interruptions.c ****         if (forced_open == 1) {
 1635              		.loc 1 671 0
 1636 03ca 514B     		ldr	r3, .L171+32
 1637 03cc 1B78     		ldrb	r3, [r3]	@ zero_extendqisi2
 1638 03ce 012B     		cmp	r3, #1
 1639 03d0 1ED1     		bne	.L97
 672:..\src/interruptions.c ****             // Open the SoftHand as EMG PROPORTIONAL input mode 
 673:..\src/interruptions.c ****             if (err_emg_2 > 0)
 1640              		.loc 1 673 0
 1641 03d2 BB68     		ldr	r3, [r7, #8]
 1642 03d4 002B     		cmp	r3, #0
 1643 03d6 13DD     		ble	.L99
 674:..\src/interruptions.c ****                 g_ref.pos = g_mem.rest_pos - (err_emg_2 * g_mem.rest_pos) / (1024 - c_mem.emg_thres
 1644              		.loc 1 674 0
 1645 03d8 484B     		ldr	r3, .L171+12
 1646 03da D3F89820 		ldr	r2, [r3, #152]
 1647 03de 474B     		ldr	r3, .L171+12
 1648 03e0 D3F89830 		ldr	r3, [r3, #152]
 1649 03e4 B968     		ldr	r1, [r7, #8]
 1650 03e6 01FB03F1 		mul	r1, r1, r3
 1651 03ea 454B     		ldr	r3, .L171+16
 1652 03ec B3F86C30 		ldrh	r3, [r3, #108]
 1653 03f0 C3F58063 		rsb	r3, r3, #1024
 1654 03f4 91FBF3F3 		sdiv	r3, r1, r3
 1655 03f8 D31A     		subs	r3, r2, r3
 1656 03fa 3E4A     		ldr	r2, .L171+4
 1657 03fc 1360     		str	r3, [r2]
 1658 03fe 07E0     		b	.L97
 1659              	.L99:
 675:..\src/interruptions.c ****             else {
 676:..\src/interruptions.c ****                 g_ref.pos = g_mem.rest_pos;
 1660              		.loc 1 676 0
 1661 0400 3E4B     		ldr	r3, .L171+12
 1662 0402 D3F89830 		ldr	r3, [r3, #152]
 1663 0406 3B4A     		ldr	r2, .L171+4
 1664 0408 1360     		str	r3, [r2]
 677:..\src/interruptions.c ****                 forced_open = 0;
 1665              		.loc 1 677 0
 1666 040a 414B     		ldr	r3, .L171+32
 1667 040c 0022     		movs	r2, #0
ARM GAS  C:\Users\MattiaCP\AppData\Local\Temp\ccCFTaFS.s 			page 43


 1668 040e 1A70     		strb	r2, [r3]
 1669              	.L97:
 678:..\src/interruptions.c ****             }
 679:..\src/interruptions.c ****         }
 680:..\src/interruptions.c ****     }
 681:..\src/interruptions.c **** 
 682:..\src/interruptions.c ****     switch(c_mem.control_mode) {
 1670              		.loc 1 682 0
 1671 0410 3B4B     		ldr	r3, .L171+16
 1672 0412 93F83630 		ldrb	r3, [r3, #54]	@ zero_extendqisi2
 1673 0416 032B     		cmp	r3, #3
 1674 0418 00F2E481 		bhi	.L100
 1675 041c 01A2     		adr	r2, .L102
 1676 041e 52F823F0 		ldr	pc, [r2, r3, lsl #2]
 1677 0422 00BF     		.p2align 2
 1678              	.L102:
 1679 0424 ED050000 		.word	.L101+1
 1680 0428 77070000 		.word	.L103+1
 1681 042c 8B060000 		.word	.L104+1
 1682 0430 35040000 		.word	.L105+1
 1683              		.p2align 1
 1684              	.L105:
 683:..\src/interruptions.c ****         // ======================= CURRENT AND POSITION CONTROL =======================
 684:..\src/interruptions.c ****         case CURR_AND_POS_CONTROL:
 685:..\src/interruptions.c ****             pos_error = g_ref.pos - g_meas.pos[0];
 1685              		.loc 1 685 0
 1686 0434 2F4B     		ldr	r3, .L171+4
 1687 0436 1A68     		ldr	r2, [r3]
 1688 0438 364B     		ldr	r3, .L171+36
 1689 043a 1B68     		ldr	r3, [r3]
 1690 043c D31A     		subs	r3, r2, r3
 1691 043e BB64     		str	r3, [r7, #72]
 686:..\src/interruptions.c **** 
 687:..\src/interruptions.c ****             pos_error_sum += pos_error;
 1692              		.loc 1 687 0
 1693 0440 354B     		ldr	r3, .L171+40
 1694 0442 1A68     		ldr	r2, [r3]
 1695 0444 BB6C     		ldr	r3, [r7, #72]
 1696 0446 1344     		add	r3, r3, r2
 1697 0448 334A     		ldr	r2, .L171+40
 1698 044a 1360     		str	r3, [r2]
 688:..\src/interruptions.c **** 
 689:..\src/interruptions.c ****             // error_sum saturation
 690:..\src/interruptions.c ****             if (pos_error_sum > POS_INTEGRAL_SAT_LIMIT)
 1699              		.loc 1 690 0
 1700 044c 324B     		ldr	r3, .L171+40
 1701 044e 1B68     		ldr	r3, [r3]
 1702 0450 324A     		ldr	r2, .L171+44
 1703 0452 9342     		cmp	r3, r2
 1704 0454 03DD     		ble	.L106
 691:..\src/interruptions.c ****                 pos_error_sum = POS_INTEGRAL_SAT_LIMIT;
 1705              		.loc 1 691 0
 1706 0456 304B     		ldr	r3, .L171+40
 1707 0458 304A     		ldr	r2, .L171+44
 1708 045a 1A60     		str	r2, [r3]
 1709 045c 07E0     		b	.L107
 1710              	.L106:
ARM GAS  C:\Users\MattiaCP\AppData\Local\Temp\ccCFTaFS.s 			page 44


 692:..\src/interruptions.c ****             else {
 693:..\src/interruptions.c ****                 if (pos_error_sum < -POS_INTEGRAL_SAT_LIMIT) 
 1711              		.loc 1 693 0
 1712 045e 2E4B     		ldr	r3, .L171+40
 1713 0460 1B68     		ldr	r3, [r3]
 1714 0462 2F4A     		ldr	r2, .L171+48
 1715 0464 9342     		cmp	r3, r2
 1716 0466 02DA     		bge	.L107
 694:..\src/interruptions.c ****                     pos_error_sum = -POS_INTEGRAL_SAT_LIMIT;
 1717              		.loc 1 694 0
 1718 0468 2B4B     		ldr	r3, .L171+40
 1719 046a 2D4A     		ldr	r2, .L171+48
 1720 046c 1A60     		str	r2, [r3]
 1721              	.L107:
 695:..\src/interruptions.c ****             }
 696:..\src/interruptions.c ****             
 697:..\src/interruptions.c ****             // ------ position PID control ------
 698:..\src/interruptions.c **** 
 699:..\src/interruptions.c ****             i_ref = 0;
 1722              		.loc 1 699 0
 1723 046e 0023     		movs	r3, #0
 1724 0470 7B64     		str	r3, [r7, #68]
 700:..\src/interruptions.c ****             
 701:..\src/interruptions.c ****             // Proportional
 702:..\src/interruptions.c ****             if (k_p_dl != 0)
 1725              		.loc 1 702 0
 1726 0472 7B6A     		ldr	r3, [r7, #36]
 1727 0474 002B     		cmp	r3, #0
 1728 0476 07D0     		beq	.L108
 703:..\src/interruptions.c ****                 i_ref += (int32)(k_p_dl * pos_error) >> 16;
 1729              		.loc 1 703 0
 1730 0478 7B6A     		ldr	r3, [r7, #36]
 1731 047a BA6C     		ldr	r2, [r7, #72]
 1732 047c 02FB03F3 		mul	r3, r2, r3
 1733 0480 1B14     		asrs	r3, r3, #16
 1734 0482 7A6C     		ldr	r2, [r7, #68]
 1735 0484 1344     		add	r3, r3, r2
 1736 0486 7B64     		str	r3, [r7, #68]
 1737              	.L108:
 704:..\src/interruptions.c **** 
 705:..\src/interruptions.c ****             // Integral
 706:..\src/interruptions.c ****             if (k_i_dl != 0)
 1738              		.loc 1 706 0
 1739 0488 3B6A     		ldr	r3, [r7, #32]
 1740 048a 002B     		cmp	r3, #0
 1741 048c 08D0     		beq	.L109
 707:..\src/interruptions.c ****                 i_ref += (int32)(k_i_dl * pos_error_sum) >> 16;
 1742              		.loc 1 707 0
 1743 048e 224B     		ldr	r3, .L171+40
 1744 0490 1B68     		ldr	r3, [r3]
 1745 0492 3A6A     		ldr	r2, [r7, #32]
 1746 0494 02FB03F3 		mul	r3, r2, r3
 1747 0498 1B14     		asrs	r3, r3, #16
 1748 049a 7A6C     		ldr	r2, [r7, #68]
 1749 049c 1344     		add	r3, r3, r2
 1750 049e 7B64     		str	r3, [r7, #68]
 1751              	.L109:
ARM GAS  C:\Users\MattiaCP\AppData\Local\Temp\ccCFTaFS.s 			page 45


 708:..\src/interruptions.c **** 
 709:..\src/interruptions.c ****             // Derivative
 710:..\src/interruptions.c ****             if (k_d_dl != 0)
 1752              		.loc 1 710 0
 1753 04a0 FB69     		ldr	r3, [r7, #28]
 1754 04a2 002B     		cmp	r3, #0
 1755 04a4 0AD0     		beq	.L110
 711:..\src/interruptions.c ****                 i_ref += (int32)(k_d_dl * (pos_error - prev_pos_err)) >> 16;
 1756              		.loc 1 711 0
 1757 04a6 1F4B     		ldr	r3, .L171+52
 1758 04a8 1B68     		ldr	r3, [r3]
 1759 04aa BA6C     		ldr	r2, [r7, #72]
 1760 04ac D31A     		subs	r3, r2, r3
 1761 04ae FA69     		ldr	r2, [r7, #28]
 1762 04b0 02FB03F3 		mul	r3, r2, r3
 1763 04b4 1B14     		asrs	r3, r3, #16
 1764 04b6 7A6C     		ldr	r2, [r7, #68]
 1765 04b8 1344     		add	r3, r3, r2
 1766 04ba 7B64     		str	r3, [r7, #68]
 1767              	.L110:
 712:..\src/interruptions.c ****                         
 713:..\src/interruptions.c ****             // Update previous position
 714:..\src/interruptions.c ****             prev_pos_err = pos_error;
 1768              		.loc 1 714 0
 1769 04bc 194A     		ldr	r2, .L171+52
 1770 04be BB6C     		ldr	r3, [r7, #72]
 1771 04c0 1360     		str	r3, [r2]
 715:..\src/interruptions.c **** 
 716:..\src/interruptions.c ****             // motor direction depends on i_ref
 717:..\src/interruptions.c ****             if (i_ref >= 0)
 1772              		.loc 1 717 0
 1773 04c2 7B6C     		ldr	r3, [r7, #68]
 1774 04c4 002B     		cmp	r3, #0
 1775 04c6 03DB     		blt	.L111
 718:..\src/interruptions.c ****                 motor_dir = TRUE;
 1776              		.loc 1 718 0
 1777 04c8 174B     		ldr	r3, .L171+56
 1778 04ca 0122     		movs	r2, #1
 1779 04cc 1A70     		strb	r2, [r3]
 1780 04ce 02E0     		b	.L112
 1781              	.L111:
 719:..\src/interruptions.c ****             else
 720:..\src/interruptions.c ****                 motor_dir = FALSE;
 1782              		.loc 1 720 0
 1783 04d0 154B     		ldr	r3, .L171+56
 1784 04d2 0022     		movs	r2, #0
 1785 04d4 1A70     		strb	r2, [r3]
 1786              	.L112:
 721:..\src/interruptions.c **** 
 722:..\src/interruptions.c ****             // saturate max current
 723:..\src/interruptions.c ****             if (i_ref > c_mem.current_limit)
 1787              		.loc 1 723 0
 1788 04d6 0A4B     		ldr	r3, .L171+16
 1789 04d8 B3F96830 		ldrsh	r3, [r3, #104]
 1790 04dc 1A46     		mov	r2, r3
 1791 04de 7B6C     		ldr	r3, [r7, #68]
 1792 04e0 9A42     		cmp	r2, r3
ARM GAS  C:\Users\MattiaCP\AppData\Local\Temp\ccCFTaFS.s 			page 46


 1793 04e2 23DA     		bge	.L113
 724:..\src/interruptions.c ****                 i_ref = c_mem.current_limit;
 1794              		.loc 1 724 0
 1795 04e4 064B     		ldr	r3, .L171+16
 1796 04e6 B3F96830 		ldrsh	r3, [r3, #104]
 1797 04ea 7B64     		str	r3, [r7, #68]
 1798 04ec 2AE0     		b	.L114
 1799              	.L172:
 1800 04ee 00BF     		.align	2
 1801              	.L171:
 1802 04f0 00000000 		.word	g_refOld
 1803 04f4 00000000 		.word	g_ref
 1804 04f8 8C000000 		.word	current_emg.10096
 1805 04fc 00000000 		.word	g_mem
 1806 0500 00000000 		.word	c_mem
 1807 0504 00000000 		.word	battery_low_SoC
 1808 0508 00000000 		.word	rest_enabled
 1809 050c 00000000 		.word	rest_pos_curr_ref
 1810 0510 00000000 		.word	forced_open
 1811 0514 00000000 		.word	g_meas
 1812 0518 90000000 		.word	pos_error_sum.10089
 1813 051c 80F0FA02 		.word	50000000
 1814 0520 800F05FD 		.word	-50000000
 1815 0524 94000000 		.word	prev_pos_err.10091
 1816 0528 98000000 		.word	motor_dir.10094
 1817              	.L113:
 725:..\src/interruptions.c ****             else {
 726:..\src/interruptions.c ****                 if (i_ref < -c_mem.current_limit)
 1818              		.loc 1 726 0
 1819 052c 974B     		ldr	r3, .L173
 1820 052e B3F96830 		ldrsh	r3, [r3, #104]
 1821 0532 5A42     		negs	r2, r3
 1822 0534 7B6C     		ldr	r3, [r7, #68]
 1823 0536 9A42     		cmp	r2, r3
 1824 0538 04DD     		ble	.L114
 727:..\src/interruptions.c ****                     i_ref = -c_mem.current_limit;
 1825              		.loc 1 727 0
 1826 053a 944B     		ldr	r3, .L173
 1827 053c B3F96830 		ldrsh	r3, [r3, #104]
 1828 0540 5B42     		negs	r3, r3
 1829 0542 7B64     		str	r3, [r7, #68]
 1830              	.L114:
 728:..\src/interruptions.c ****         	}
 729:..\src/interruptions.c **** 
 730:..\src/interruptions.c ****             // current error and curr error sum
 731:..\src/interruptions.c ****             curr_error = i_ref - g_meas.curr;
 1831              		.loc 1 731 0
 1832 0544 924B     		ldr	r3, .L173+4
 1833 0546 DB68     		ldr	r3, [r3, #12]
 1834 0548 7A6C     		ldr	r2, [r7, #68]
 1835 054a D31A     		subs	r3, r2, r3
 1836 054c 7B60     		str	r3, [r7, #4]
 732:..\src/interruptions.c ****             curr_error_sum += curr_error;
 1837              		.loc 1 732 0
 1838 054e 914B     		ldr	r3, .L173+8
 1839 0550 1A68     		ldr	r2, [r3]
 1840 0552 7B68     		ldr	r3, [r7, #4]
ARM GAS  C:\Users\MattiaCP\AppData\Local\Temp\ccCFTaFS.s 			page 47


 1841 0554 1344     		add	r3, r3, r2
 1842 0556 8F4A     		ldr	r2, .L173+8
 1843 0558 1360     		str	r3, [r2]
 733:..\src/interruptions.c ****             
 734:..\src/interruptions.c ****             if (curr_error_sum > CURR_INTEGRAL_SAT_LIMIT)
 1844              		.loc 1 734 0
 1845 055a 8E4B     		ldr	r3, .L173+8
 1846 055c 1B68     		ldr	r3, [r3]
 1847 055e 8E4A     		ldr	r2, .L173+12
 1848 0560 9342     		cmp	r3, r2
 1849 0562 03DD     		ble	.L115
 735:..\src/interruptions.c ****                 curr_error_sum = CURR_INTEGRAL_SAT_LIMIT;
 1850              		.loc 1 735 0
 1851 0564 8B4B     		ldr	r3, .L173+8
 1852 0566 8C4A     		ldr	r2, .L173+12
 1853 0568 1A60     		str	r2, [r3]
 1854 056a 07E0     		b	.L116
 1855              	.L115:
 736:..\src/interruptions.c ****             else {
 737:..\src/interruptions.c ****                 if (curr_error_sum < -CURR_INTEGRAL_SAT_LIMIT)
 1856              		.loc 1 737 0
 1857 056c 894B     		ldr	r3, .L173+8
 1858 056e 1B68     		ldr	r3, [r3]
 1859 0570 8A4A     		ldr	r2, .L173+16
 1860 0572 9342     		cmp	r3, r2
 1861 0574 02DA     		bge	.L116
 738:..\src/interruptions.c ****                     curr_error_sum = -CURR_INTEGRAL_SAT_LIMIT;
 1862              		.loc 1 738 0
 1863 0576 874B     		ldr	r3, .L173+8
 1864 0578 884A     		ldr	r2, .L173+16
 1865 057a 1A60     		str	r2, [r3]
 1866              	.L116:
 739:..\src/interruptions.c ****             }
 740:..\src/interruptions.c **** 
 741:..\src/interruptions.c ****             // ----- current PID control -----
 742:..\src/interruptions.c **** 
 743:..\src/interruptions.c ****             pwm_input = 0;
 1867              		.loc 1 743 0
 1868 057c 0023     		movs	r3, #0
 1869 057e FB64     		str	r3, [r7, #76]
 744:..\src/interruptions.c **** 
 745:..\src/interruptions.c ****             // Proportional
 746:..\src/interruptions.c ****             if (k_p_c_dl != 0)
 1870              		.loc 1 746 0
 1871 0580 BB69     		ldr	r3, [r7, #24]
 1872 0582 002B     		cmp	r3, #0
 1873 0584 07D0     		beq	.L117
 747:..\src/interruptions.c ****                 pwm_input += (int32)(k_p_c_dl * curr_error) >> 16;
 1874              		.loc 1 747 0
 1875 0586 BB69     		ldr	r3, [r7, #24]
 1876 0588 7A68     		ldr	r2, [r7, #4]
 1877 058a 02FB03F3 		mul	r3, r2, r3
 1878 058e 1B14     		asrs	r3, r3, #16
 1879 0590 FA6C     		ldr	r2, [r7, #76]
 1880 0592 1344     		add	r3, r3, r2
 1881 0594 FB64     		str	r3, [r7, #76]
 1882              	.L117:
ARM GAS  C:\Users\MattiaCP\AppData\Local\Temp\ccCFTaFS.s 			page 48


 748:..\src/interruptions.c **** 
 749:..\src/interruptions.c ****             // Integral
 750:..\src/interruptions.c ****             if (k_i_c_dl != 0)
 1883              		.loc 1 750 0
 1884 0596 7B69     		ldr	r3, [r7, #20]
 1885 0598 002B     		cmp	r3, #0
 1886 059a 08D0     		beq	.L118
 751:..\src/interruptions.c ****                 pwm_input += (int32)(k_i_c_dl * curr_error_sum) >> 16;
 1887              		.loc 1 751 0
 1888 059c 7D4B     		ldr	r3, .L173+8
 1889 059e 1B68     		ldr	r3, [r3]
 1890 05a0 7A69     		ldr	r2, [r7, #20]
 1891 05a2 02FB03F3 		mul	r3, r2, r3
 1892 05a6 1B14     		asrs	r3, r3, #16
 1893 05a8 FA6C     		ldr	r2, [r7, #76]
 1894 05aa 1344     		add	r3, r3, r2
 1895 05ac FB64     		str	r3, [r7, #76]
 1896              	.L118:
 752:..\src/interruptions.c **** 
 753:..\src/interruptions.c ****             // Derivative
 754:..\src/interruptions.c ****             if (k_d_c_dl != 0)
 1897              		.loc 1 754 0
 1898 05ae 3B69     		ldr	r3, [r7, #16]
 1899 05b0 002B     		cmp	r3, #0
 1900 05b2 0AD0     		beq	.L119
 755:..\src/interruptions.c ****                 pwm_input += (int32)(k_d_c_dl * (curr_error - prev_curr_err)) >> 16;
 1901              		.loc 1 755 0
 1902 05b4 7A4B     		ldr	r3, .L173+20
 1903 05b6 1B68     		ldr	r3, [r3]
 1904 05b8 7A68     		ldr	r2, [r7, #4]
 1905 05ba D31A     		subs	r3, r2, r3
 1906 05bc 3A69     		ldr	r2, [r7, #16]
 1907 05be 02FB03F3 		mul	r3, r2, r3
 1908 05c2 1B14     		asrs	r3, r3, #16
 1909 05c4 FA6C     		ldr	r2, [r7, #76]
 1910 05c6 1344     		add	r3, r3, r2
 1911 05c8 FB64     		str	r3, [r7, #76]
 1912              	.L119:
 756:..\src/interruptions.c **** 
 757:..\src/interruptions.c ****             // pwm_input saturation
 758:..\src/interruptions.c ****             if (pwm_input < -PWM_MAX_VALUE) 
 1913              		.loc 1 758 0
 1914 05ca FB6C     		ldr	r3, [r7, #76]
 1915 05cc 13F1640F 		cmn	r3, #100
 1916 05d0 03DA     		bge	.L120
 759:..\src/interruptions.c ****                 pwm_input = -PWM_MAX_VALUE;
 1917              		.loc 1 759 0
 1918 05d2 6FF06303 		mvn	r3, #99
 1919 05d6 FB64     		str	r3, [r7, #76]
 1920 05d8 04E0     		b	.L121
 1921              	.L120:
 760:..\src/interruptions.c ****             else {
 761:..\src/interruptions.c ****                 if (pwm_input > PWM_MAX_VALUE)
 1922              		.loc 1 761 0
 1923 05da FB6C     		ldr	r3, [r7, #76]
 1924 05dc 642B     		cmp	r3, #100
 1925 05de 01DD     		ble	.L121
ARM GAS  C:\Users\MattiaCP\AppData\Local\Temp\ccCFTaFS.s 			page 49


 762:..\src/interruptions.c ****                     pwm_input = PWM_MAX_VALUE;
 1926              		.loc 1 762 0
 1927 05e0 6423     		movs	r3, #100
 1928 05e2 FB64     		str	r3, [r7, #76]
 1929              	.L121:
 763:..\src/interruptions.c ****             }
 764:..\src/interruptions.c **** 
 765:..\src/interruptions.c ****             // Update previous current
 766:..\src/interruptions.c ****             prev_curr_err = curr_error;
 1930              		.loc 1 766 0
 1931 05e4 6E4A     		ldr	r2, .L173+20
 1932 05e6 7B68     		ldr	r3, [r7, #4]
 1933 05e8 1360     		str	r3, [r2]
 767:..\src/interruptions.c **** 
 768:..\src/interruptions.c ****         break;
 1934              		.loc 1 768 0
 1935 05ea FBE0     		b	.L100
 1936              	.L101:
 769:..\src/interruptions.c **** 
 770:..\src/interruptions.c ****         // ============================== POSITION CONTROL =====================
 771:..\src/interruptions.c ****         case CONTROL_ANGLE:
 772:..\src/interruptions.c ****             pos_error = g_ref.pos - g_meas.pos[0];
 1937              		.loc 1 772 0
 1938 05ec 6D4B     		ldr	r3, .L173+24
 1939 05ee 1A68     		ldr	r2, [r3]
 1940 05f0 674B     		ldr	r3, .L173+4
 1941 05f2 1B68     		ldr	r3, [r3]
 1942 05f4 D31A     		subs	r3, r2, r3
 1943 05f6 BB64     		str	r3, [r7, #72]
 773:..\src/interruptions.c **** 
 774:..\src/interruptions.c ****             pos_error_sum += pos_error;
 1944              		.loc 1 774 0
 1945 05f8 6B4B     		ldr	r3, .L173+28
 1946 05fa 1A68     		ldr	r2, [r3]
 1947 05fc BB6C     		ldr	r3, [r7, #72]
 1948 05fe 1344     		add	r3, r3, r2
 1949 0600 694A     		ldr	r2, .L173+28
 1950 0602 1360     		str	r3, [r2]
 775:..\src/interruptions.c **** 
 776:..\src/interruptions.c ****             // anti-windup (for integral control)
 777:..\src/interruptions.c ****             if (pos_error_sum > ANTI_WINDUP)
 1951              		.loc 1 777 0
 1952 0604 684B     		ldr	r3, .L173+28
 1953 0606 1B68     		ldr	r3, [r3]
 1954 0608 B3F57A7F 		cmp	r3, #1000
 1955 060c 04DD     		ble	.L122
 778:..\src/interruptions.c ****                 pos_error_sum = ANTI_WINDUP;
 1956              		.loc 1 778 0
 1957 060e 664B     		ldr	r3, .L173+28
 1958 0610 4FF47A72 		mov	r2, #1000
 1959 0614 1A60     		str	r2, [r3]
 1960 0616 07E0     		b	.L123
 1961              	.L122:
 779:..\src/interruptions.c ****             else {
 780:..\src/interruptions.c **** 				if (pos_error_sum < -ANTI_WINDUP)
 1962              		.loc 1 780 0
 1963 0618 634B     		ldr	r3, .L173+28
ARM GAS  C:\Users\MattiaCP\AppData\Local\Temp\ccCFTaFS.s 			page 50


 1964 061a 1B68     		ldr	r3, [r3]
 1965 061c 13F57A7F 		cmn	r3, #1000
 1966 0620 02DA     		bge	.L123
 781:..\src/interruptions.c ****                 	pos_error_sum = -ANTI_WINDUP;
 1967              		.loc 1 781 0
 1968 0622 614B     		ldr	r3, .L173+28
 1969 0624 614A     		ldr	r2, .L173+32
 1970 0626 1A60     		str	r2, [r3]
 1971              	.L123:
 782:..\src/interruptions.c ****             }
 783:..\src/interruptions.c **** 
 784:..\src/interruptions.c ****             // Proportional
 785:..\src/interruptions.c ****             if (k_p != 0) 
 1972              		.loc 1 785 0
 1973 0628 FB6B     		ldr	r3, [r7, #60]
 1974 062a 002B     		cmp	r3, #0
 1975 062c 05D0     		beq	.L124
 786:..\src/interruptions.c ****                 pwm_input = (int32)(k_p * pos_error) >> 16;
 1976              		.loc 1 786 0
 1977 062e FB6B     		ldr	r3, [r7, #60]
 1978 0630 BA6C     		ldr	r2, [r7, #72]
 1979 0632 02FB03F3 		mul	r3, r2, r3
 1980 0636 1B14     		asrs	r3, r3, #16
 1981 0638 FB64     		str	r3, [r7, #76]
 1982              	.L124:
 787:..\src/interruptions.c ****             
 788:..\src/interruptions.c **** 
 789:..\src/interruptions.c ****             // Integral
 790:..\src/interruptions.c ****             if (k_i != 0) 
 1983              		.loc 1 790 0
 1984 063a BB6B     		ldr	r3, [r7, #56]
 1985 063c 002B     		cmp	r3, #0
 1986 063e 08D0     		beq	.L125
 791:..\src/interruptions.c ****                 pwm_input += (int32)(k_i * pos_error_sum) >> 16;
 1987              		.loc 1 791 0
 1988 0640 594B     		ldr	r3, .L173+28
 1989 0642 1B68     		ldr	r3, [r3]
 1990 0644 BA6B     		ldr	r2, [r7, #56]
 1991 0646 02FB03F3 		mul	r3, r2, r3
 1992 064a 1B14     		asrs	r3, r3, #16
 1993 064c FA6C     		ldr	r2, [r7, #76]
 1994 064e 1344     		add	r3, r3, r2
 1995 0650 FB64     		str	r3, [r7, #76]
 1996              	.L125:
 792:..\src/interruptions.c ****             
 793:..\src/interruptions.c **** 
 794:..\src/interruptions.c ****             // Derivative
 795:..\src/interruptions.c ****             if (k_d != 0) 
 1997              		.loc 1 795 0
 1998 0652 7B6B     		ldr	r3, [r7, #52]
 1999 0654 002B     		cmp	r3, #0
 2000 0656 0AD0     		beq	.L126
 796:..\src/interruptions.c ****                 pwm_input += (int32)(k_d * (pos_error - prev_pos_err)) >> 16;
 2001              		.loc 1 796 0
 2002 0658 554B     		ldr	r3, .L173+36
 2003 065a 1B68     		ldr	r3, [r3]
 2004 065c BA6C     		ldr	r2, [r7, #72]
ARM GAS  C:\Users\MattiaCP\AppData\Local\Temp\ccCFTaFS.s 			page 51


 2005 065e D31A     		subs	r3, r2, r3
 2006 0660 7A6B     		ldr	r2, [r7, #52]
 2007 0662 02FB03F3 		mul	r3, r2, r3
 2008 0666 1B14     		asrs	r3, r3, #16
 2009 0668 FA6C     		ldr	r2, [r7, #76]
 2010 066a 1344     		add	r3, r3, r2
 2011 066c FB64     		str	r3, [r7, #76]
 2012              	.L126:
 797:..\src/interruptions.c ****             
 798:..\src/interruptions.c **** 
 799:..\src/interruptions.c ****             // Update measure
 800:..\src/interruptions.c ****             prev_pos_err = pos_error;
 2013              		.loc 1 800 0
 2014 066e 504A     		ldr	r2, .L173+36
 2015 0670 BB6C     		ldr	r3, [r7, #72]
 2016 0672 1360     		str	r3, [r2]
 801:..\src/interruptions.c **** 
 802:..\src/interruptions.c ****             if (pwm_input > 0)
 2017              		.loc 1 802 0
 2018 0674 FB6C     		ldr	r3, [r7, #76]
 2019 0676 002B     		cmp	r3, #0
 2020 0678 03DD     		ble	.L127
 803:..\src/interruptions.c ****                 motor_dir = TRUE;
 2021              		.loc 1 803 0
 2022 067a 4E4B     		ldr	r3, .L173+40
 2023 067c 0122     		movs	r2, #1
 2024 067e 1A70     		strb	r2, [r3]
 804:..\src/interruptions.c ****             else
 805:..\src/interruptions.c ****                 motor_dir = FALSE;
 806:..\src/interruptions.c **** 
 807:..\src/interruptions.c ****         break;
 2025              		.loc 1 807 0
 2026 0680 B0E0     		b	.L100
 2027              	.L127:
 805:..\src/interruptions.c **** 
 2028              		.loc 1 805 0
 2029 0682 4C4B     		ldr	r3, .L173+40
 2030 0684 0022     		movs	r2, #0
 2031 0686 1A70     		strb	r2, [r3]
 2032              		.loc 1 807 0
 2033 0688 ACE0     		b	.L100
 2034              	.L104:
 808:..\src/interruptions.c **** 
 809:..\src/interruptions.c ****         // ========================== CURRENT CONTROL ==========================
 810:..\src/interruptions.c ****         case CONTROL_CURRENT:
 811:..\src/interruptions.c ****             if(g_ref.onoff && tension_valid) {
 2035              		.loc 1 811 0
 2036 068a 464B     		ldr	r3, .L173+24
 2037 068c 1B7B     		ldrb	r3, [r3, #12]	@ zero_extendqisi2
 2038 068e 002B     		cmp	r3, #0
 2039 0690 00F0A580 		beq	.L167
 2040              		.loc 1 811 0 is_stmt 0 discriminator 1
 2041 0694 484B     		ldr	r3, .L173+44
 2042 0696 1B78     		ldrb	r3, [r3]	@ zero_extendqisi2
 2043 0698 002B     		cmp	r3, #0
 2044 069a 00F0A080 		beq	.L167
 812:..\src/interruptions.c ****                 
ARM GAS  C:\Users\MattiaCP\AppData\Local\Temp\ccCFTaFS.s 			page 52


 813:..\src/interruptions.c ****                 i_ref = g_ref.curr;
 2045              		.loc 1 813 0 is_stmt 1
 2046 069e 414B     		ldr	r3, .L173+24
 2047 06a0 5B68     		ldr	r3, [r3, #4]
 2048 06a2 7B64     		str	r3, [r7, #68]
 814:..\src/interruptions.c **** 
 815:..\src/interruptions.c ****                 if (i_ref > c_mem.current_limit) 
 2049              		.loc 1 815 0
 2050 06a4 394B     		ldr	r3, .L173
 2051 06a6 B3F96830 		ldrsh	r3, [r3, #104]
 2052 06aa 1A46     		mov	r2, r3
 2053 06ac 7B6C     		ldr	r3, [r7, #68]
 2054 06ae 9A42     		cmp	r2, r3
 2055 06b0 04DA     		bge	.L130
 816:..\src/interruptions.c ****                     i_ref = c_mem.current_limit;
 2056              		.loc 1 816 0
 2057 06b2 364B     		ldr	r3, .L173
 2058 06b4 B3F96830 		ldrsh	r3, [r3, #104]
 2059 06b8 7B64     		str	r3, [r7, #68]
 2060 06ba 0BE0     		b	.L131
 2061              	.L130:
 817:..\src/interruptions.c ****                 else {
 818:..\src/interruptions.c ****                     if (i_ref < -c_mem.current_limit)
 2062              		.loc 1 818 0
 2063 06bc 334B     		ldr	r3, .L173
 2064 06be B3F96830 		ldrsh	r3, [r3, #104]
 2065 06c2 5A42     		negs	r2, r3
 2066 06c4 7B6C     		ldr	r3, [r7, #68]
 2067 06c6 9A42     		cmp	r2, r3
 2068 06c8 04DD     		ble	.L131
 819:..\src/interruptions.c ****                         i_ref = -c_mem.current_limit;
 2069              		.loc 1 819 0
 2070 06ca 304B     		ldr	r3, .L173
 2071 06cc B3F96830 		ldrsh	r3, [r3, #104]
 2072 06d0 5B42     		negs	r3, r3
 2073 06d2 7B64     		str	r3, [r7, #68]
 2074              	.L131:
 820:..\src/interruptions.c ****                 }
 821:..\src/interruptions.c ****                 
 822:..\src/interruptions.c ****                 // current error
 823:..\src/interruptions.c ****                 curr_error = i_ref - g_meas.curr;            
 2075              		.loc 1 823 0
 2076 06d4 2E4B     		ldr	r3, .L173+4
 2077 06d6 DB68     		ldr	r3, [r3, #12]
 2078 06d8 7A6C     		ldr	r2, [r7, #68]
 2079 06da D31A     		subs	r3, r2, r3
 2080 06dc 7B60     		str	r3, [r7, #4]
 824:..\src/interruptions.c ****                 curr_error_sum += curr_error;
 2081              		.loc 1 824 0
 2082 06de 2D4B     		ldr	r3, .L173+8
 2083 06e0 1A68     		ldr	r2, [r3]
 2084 06e2 7B68     		ldr	r3, [r7, #4]
 2085 06e4 1344     		add	r3, r3, r2
 2086 06e6 2B4A     		ldr	r2, .L173+8
 2087 06e8 1360     		str	r3, [r2]
 825:..\src/interruptions.c ****                 
 826:..\src/interruptions.c ****                 if (curr_error_sum > CURR_INTEGRAL_SAT_LIMIT)
ARM GAS  C:\Users\MattiaCP\AppData\Local\Temp\ccCFTaFS.s 			page 53


 2088              		.loc 1 826 0
 2089 06ea 2A4B     		ldr	r3, .L173+8
 2090 06ec 1B68     		ldr	r3, [r3]
 2091 06ee 2A4A     		ldr	r2, .L173+12
 2092 06f0 9342     		cmp	r3, r2
 2093 06f2 03DD     		ble	.L132
 827:..\src/interruptions.c ****                     curr_error_sum = CURR_INTEGRAL_SAT_LIMIT;
 2094              		.loc 1 827 0
 2095 06f4 274B     		ldr	r3, .L173+8
 2096 06f6 284A     		ldr	r2, .L173+12
 2097 06f8 1A60     		str	r2, [r3]
 2098 06fa 07E0     		b	.L133
 2099              	.L132:
 828:..\src/interruptions.c ****                 else {
 829:..\src/interruptions.c ****                     if (curr_error_sum < -CURR_INTEGRAL_SAT_LIMIT) 
 2100              		.loc 1 829 0
 2101 06fc 254B     		ldr	r3, .L173+8
 2102 06fe 1B68     		ldr	r3, [r3]
 2103 0700 264A     		ldr	r2, .L173+16
 2104 0702 9342     		cmp	r3, r2
 2105 0704 02DA     		bge	.L133
 830:..\src/interruptions.c ****                         curr_error_sum = -CURR_INTEGRAL_SAT_LIMIT;
 2106              		.loc 1 830 0
 2107 0706 234B     		ldr	r3, .L173+8
 2108 0708 244A     		ldr	r2, .L173+16
 2109 070a 1A60     		str	r2, [r3]
 2110              	.L133:
 831:..\src/interruptions.c ****                 }
 832:..\src/interruptions.c **** 
 833:..\src/interruptions.c ****                 pwm_input = 0;
 2111              		.loc 1 833 0
 2112 070c 0023     		movs	r3, #0
 2113 070e FB64     		str	r3, [r7, #76]
 834:..\src/interruptions.c **** 
 835:..\src/interruptions.c ****                 // Proportional
 836:..\src/interruptions.c ****                 if (k_p_c != 0)
 2114              		.loc 1 836 0
 2115 0710 3B6B     		ldr	r3, [r7, #48]
 2116 0712 002B     		cmp	r3, #0
 2117 0714 07D0     		beq	.L134
 837:..\src/interruptions.c ****                     pwm_input += (int32)(k_p_c * curr_error) >> 16;
 2118              		.loc 1 837 0
 2119 0716 3B6B     		ldr	r3, [r7, #48]
 2120 0718 7A68     		ldr	r2, [r7, #4]
 2121 071a 02FB03F3 		mul	r3, r2, r3
 2122 071e 1B14     		asrs	r3, r3, #16
 2123 0720 FA6C     		ldr	r2, [r7, #76]
 2124 0722 1344     		add	r3, r3, r2
 2125 0724 FB64     		str	r3, [r7, #76]
 2126              	.L134:
 838:..\src/interruptions.c **** 
 839:..\src/interruptions.c ****                 // Integral
 840:..\src/interruptions.c ****                 if (k_i_c != 0)
 2127              		.loc 1 840 0
 2128 0726 FB6A     		ldr	r3, [r7, #44]
 2129 0728 002B     		cmp	r3, #0
 2130 072a 08D0     		beq	.L135
ARM GAS  C:\Users\MattiaCP\AppData\Local\Temp\ccCFTaFS.s 			page 54


 841:..\src/interruptions.c ****                     pwm_input += (int32)(k_i_c * curr_error_sum) >> 16;
 2131              		.loc 1 841 0
 2132 072c 194B     		ldr	r3, .L173+8
 2133 072e 1B68     		ldr	r3, [r3]
 2134 0730 FA6A     		ldr	r2, [r7, #44]
 2135 0732 02FB03F3 		mul	r3, r2, r3
 2136 0736 1B14     		asrs	r3, r3, #16
 2137 0738 FA6C     		ldr	r2, [r7, #76]
 2138 073a 1344     		add	r3, r3, r2
 2139 073c FB64     		str	r3, [r7, #76]
 2140              	.L135:
 842:..\src/interruptions.c **** 
 843:..\src/interruptions.c ****                 // Derivative
 844:..\src/interruptions.c ****                 if (k_d_c != 0)
 2141              		.loc 1 844 0
 2142 073e BB6A     		ldr	r3, [r7, #40]
 2143 0740 002B     		cmp	r3, #0
 2144 0742 0AD0     		beq	.L136
 845:..\src/interruptions.c ****                     pwm_input += (int32)(k_d_c * (curr_error - prev_curr_err)) >> 16;
 2145              		.loc 1 845 0
 2146 0744 164B     		ldr	r3, .L173+20
 2147 0746 1B68     		ldr	r3, [r3]
 2148 0748 7A68     		ldr	r2, [r7, #4]
 2149 074a D31A     		subs	r3, r2, r3
 2150 074c BA6A     		ldr	r2, [r7, #40]
 2151 074e 02FB03F3 		mul	r3, r2, r3
 2152 0752 1B14     		asrs	r3, r3, #16
 2153 0754 FA6C     		ldr	r2, [r7, #76]
 2154 0756 1344     		add	r3, r3, r2
 2155 0758 FB64     		str	r3, [r7, #76]
 2156              	.L136:
 846:..\src/interruptions.c ****                 
 847:..\src/interruptions.c ****                 prev_curr_err = curr_error;
 2157              		.loc 1 847 0
 2158 075a 114A     		ldr	r2, .L173+20
 2159 075c 7B68     		ldr	r3, [r7, #4]
 2160 075e 1360     		str	r3, [r2]
 848:..\src/interruptions.c ****                 
 849:..\src/interruptions.c ****                 if (pwm_input >= 0) 
 2161              		.loc 1 849 0
 2162 0760 FB6C     		ldr	r3, [r7, #76]
 2163 0762 002B     		cmp	r3, #0
 2164 0764 03DB     		blt	.L137
 850:..\src/interruptions.c ****                     motor_dir = TRUE;
 2165              		.loc 1 850 0
 2166 0766 134B     		ldr	r3, .L173+40
 2167 0768 0122     		movs	r2, #1
 2168 076a 1A70     		strb	r2, [r3]
 851:..\src/interruptions.c ****                 else
 852:..\src/interruptions.c ****                     motor_dir = FALSE;
 853:..\src/interruptions.c ****             }
 854:..\src/interruptions.c ****         break;
 2169              		.loc 1 854 0
 2170 076c 37E0     		b	.L167
 2171              	.L137:
 852:..\src/interruptions.c ****             }
 2172              		.loc 1 852 0
ARM GAS  C:\Users\MattiaCP\AppData\Local\Temp\ccCFTaFS.s 			page 55


 2173 076e 114B     		ldr	r3, .L173+40
 2174 0770 0022     		movs	r2, #0
 2175 0772 1A70     		strb	r2, [r3]
 2176              		.loc 1 854 0
 2177 0774 33E0     		b	.L167
 2178              	.L103:
 855:..\src/interruptions.c ****         
 856:..\src/interruptions.c ****         // ================= DIRECT PWM CONTROL ================================
 857:..\src/interruptions.c ****         case CONTROL_PWM:
 858:..\src/interruptions.c **** 
 859:..\src/interruptions.c ****             pwm_input = g_ref.pwm;
 2179              		.loc 1 859 0
 2180 0776 0B4B     		ldr	r3, .L173+24
 2181 0778 9B68     		ldr	r3, [r3, #8]
 2182 077a FB64     		str	r3, [r7, #76]
 860:..\src/interruptions.c **** 
 861:..\src/interruptions.c ****             if (pwm_input > 0) 
 2183              		.loc 1 861 0
 2184 077c FB6C     		ldr	r3, [r7, #76]
 2185 077e 002B     		cmp	r3, #0
 2186 0780 1CDD     		ble	.L138
 862:..\src/interruptions.c ****                 motor_dir = TRUE;
 2187              		.loc 1 862 0
 2188 0782 0C4B     		ldr	r3, .L173+40
 2189 0784 0122     		movs	r2, #1
 2190 0786 1A70     		strb	r2, [r3]
 2191 0788 1BE0     		b	.L139
 2192              	.L174:
 2193 078a 00BF     		.align	2
 2194              	.L173:
 2195 078c 00000000 		.word	c_mem
 2196 0790 00000000 		.word	g_meas
 2197 0794 9C000000 		.word	curr_error_sum.10090
 2198 0798 A0860100 		.word	100000
 2199 079c 6079FEFF 		.word	-100000
 2200 07a0 A0000000 		.word	prev_curr_err.10092
 2201 07a4 00000000 		.word	g_ref
 2202 07a8 90000000 		.word	pos_error_sum.10089
 2203 07ac 18FCFFFF 		.word	-1000
 2204 07b0 94000000 		.word	prev_pos_err.10091
 2205 07b4 98000000 		.word	motor_dir.10094
 2206 07b8 00000000 		.word	tension_valid
 2207              	.L138:
 863:..\src/interruptions.c ****             else 
 864:..\src/interruptions.c ****                 motor_dir = FALSE;
 2208              		.loc 1 864 0
 2209 07bc 664B     		ldr	r3, .L175
 2210 07be 0022     		movs	r2, #0
 2211 07c0 1A70     		strb	r2, [r3]
 2212              	.L139:
 865:..\src/interruptions.c ****             
 866:..\src/interruptions.c **** 
 867:..\src/interruptions.c ****             // pwm_input saturation
 868:..\src/interruptions.c ****             if (pwm_input < -PWM_MAX_VALUE) 
 2213              		.loc 1 868 0
 2214 07c2 FB6C     		ldr	r3, [r7, #76]
 2215 07c4 13F1640F 		cmn	r3, #100
ARM GAS  C:\Users\MattiaCP\AppData\Local\Temp\ccCFTaFS.s 			page 56


 2216 07c8 03DA     		bge	.L140
 869:..\src/interruptions.c ****                 pwm_input = -PWM_MAX_VALUE;
 2217              		.loc 1 869 0
 2218 07ca 6FF06303 		mvn	r3, #99
 2219 07ce FB64     		str	r3, [r7, #76]
 870:..\src/interruptions.c ****             else {
 871:..\src/interruptions.c **** 				if (pwm_input > PWM_MAX_VALUE) 
 872:..\src/interruptions.c ****                 	pwm_input = PWM_MAX_VALUE;
 873:..\src/interruptions.c ****         	}
 874:..\src/interruptions.c **** 
 875:..\src/interruptions.c ****         break;
 2220              		.loc 1 875 0
 2221 07d0 07E0     		b	.L168
 2222              	.L140:
 871:..\src/interruptions.c ****                 	pwm_input = PWM_MAX_VALUE;
 2223              		.loc 1 871 0
 2224 07d2 FB6C     		ldr	r3, [r7, #76]
 2225 07d4 642B     		cmp	r3, #100
 2226 07d6 04DD     		ble	.L168
 872:..\src/interruptions.c ****         	}
 2227              		.loc 1 872 0
 2228 07d8 6423     		movs	r3, #100
 2229 07da FB64     		str	r3, [r7, #76]
 2230              		.loc 1 875 0
 2231 07dc 01E0     		b	.L168
 2232              	.L167:
 854:..\src/interruptions.c ****         
 2233              		.loc 1 854 0
 2234 07de 00BF     		nop
 2235 07e0 00E0     		b	.L100
 2236              	.L168:
 2237              		.loc 1 875 0
 2238 07e2 00BF     		nop
 2239              	.L100:
 876:..\src/interruptions.c ****             
 877:..\src/interruptions.c ****     }
 878:..\src/interruptions.c **** 
 879:..\src/interruptions.c ****     ////////////////////////////////////////////////////////////////////////////
 880:..\src/interruptions.c **** 
 881:..\src/interruptions.c ****     if(pwm_input >  PWM_MAX_VALUE) 
 2240              		.loc 1 881 0
 2241 07e4 FB6C     		ldr	r3, [r7, #76]
 2242 07e6 642B     		cmp	r3, #100
 2243 07e8 01DD     		ble	.L142
 882:..\src/interruptions.c ****         pwm_input =  PWM_MAX_VALUE;
 2244              		.loc 1 882 0
 2245 07ea 6423     		movs	r3, #100
 2246 07ec FB64     		str	r3, [r7, #76]
 2247              	.L142:
 883:..\src/interruptions.c ****     if(pwm_input < -PWM_MAX_VALUE) 
 2248              		.loc 1 883 0
 2249 07ee FB6C     		ldr	r3, [r7, #76]
 2250 07f0 13F1640F 		cmn	r3, #100
 2251 07f4 02DA     		bge	.L143
 884:..\src/interruptions.c ****         pwm_input = -PWM_MAX_VALUE;
 2252              		.loc 1 884 0
 2253 07f6 6FF06303 		mvn	r3, #99
ARM GAS  C:\Users\MattiaCP\AppData\Local\Temp\ccCFTaFS.s 			page 57


 2254 07fa FB64     		str	r3, [r7, #76]
 2255              	.L143:
 885:..\src/interruptions.c **** 
 886:..\src/interruptions.c ****     if (c_mem.control_mode != CONTROL_PWM) 
 2256              		.loc 1 886 0
 2257 07fc 574B     		ldr	r3, .L175+4
 2258 07fe 93F83630 		ldrb	r3, [r3, #54]	@ zero_extendqisi2
 2259 0802 012B     		cmp	r3, #1
 2260 0804 0DD0     		beq	.L144
 887:..\src/interruptions.c ****         pwm_input = (((pwm_input << 10) / PWM_MAX_VALUE) * dev_pwm_limit) >> 10;
 2261              		.loc 1 887 0
 2262 0806 FB6C     		ldr	r3, [r7, #76]
 2263 0808 9B02     		lsls	r3, r3, #10
 2264 080a 554A     		ldr	r2, .L175+8
 2265 080c 82FB0312 		smull	r1, r2, r2, r3
 2266 0810 5211     		asrs	r2, r2, #5
 2267 0812 DB17     		asrs	r3, r3, #31
 2268 0814 D31A     		subs	r3, r2, r3
 2269 0816 534A     		ldr	r2, .L175+12
 2270 0818 1278     		ldrb	r2, [r2]	@ zero_extendqisi2
 2271 081a 02FB03F3 		mul	r3, r2, r3
 2272 081e 9B12     		asrs	r3, r3, #10
 2273 0820 FB64     		str	r3, [r7, #76]
 2274              	.L144:
 888:..\src/interruptions.c ****  
 889:..\src/interruptions.c ****     //// RATE LIMITER ////
 890:..\src/interruptions.c ****     if(SIGN(pwm_input-prev_pwm) == SIGN(pos_error))
 2275              		.loc 1 890 0
 2276 0822 514B     		ldr	r3, .L175+16
 2277 0824 1B68     		ldr	r3, [r3]
 2278 0826 FA6C     		ldr	r2, [r7, #76]
 2279 0828 D31A     		subs	r3, r2, r3
 2280 082a 002B     		cmp	r3, #0
 2281 082c 01DB     		blt	.L145
 2282              		.loc 1 890 0 is_stmt 0 discriminator 1
 2283 082e 0122     		movs	r2, #1
 2284 0830 01E0     		b	.L146
 2285              	.L145:
 2286              		.loc 1 890 0 discriminator 2
 2287 0832 4FF0FF32 		mov	r2, #-1
 2288              	.L146:
 2289              		.loc 1 890 0 discriminator 4
 2290 0836 BB6C     		ldr	r3, [r7, #72]
 2291 0838 002B     		cmp	r3, #0
 2292 083a 01DB     		blt	.L147
 2293              		.loc 1 890 0 discriminator 5
 2294 083c 0123     		movs	r3, #1
 2295 083e 01E0     		b	.L148
 2296              	.L147:
 2297              		.loc 1 890 0 discriminator 6
 2298 0840 4FF0FF33 		mov	r3, #-1
 2299              	.L148:
 2300              		.loc 1 890 0 discriminator 8
 2301 0844 9A42     		cmp	r2, r3
 2302 0846 14D1     		bne	.L149
 891:..\src/interruptions.c ****     {
 892:..\src/interruptions.c ****         if((pwm_input-prev_pwm) > PWM_RATE_LIMITER_MAX)
ARM GAS  C:\Users\MattiaCP\AppData\Local\Temp\ccCFTaFS.s 			page 58


 2303              		.loc 1 892 0 is_stmt 1
 2304 0848 474B     		ldr	r3, .L175+16
 2305 084a 1B68     		ldr	r3, [r3]
 2306 084c FA6C     		ldr	r2, [r7, #76]
 2307 084e D31A     		subs	r3, r2, r3
 2308 0850 012B     		cmp	r3, #1
 2309 0852 03DD     		ble	.L150
 893:..\src/interruptions.c ****             pwm_input =  prev_pwm + PWM_RATE_LIMITER_MAX;
 2310              		.loc 1 893 0
 2311 0854 444B     		ldr	r3, .L175+16
 2312 0856 1B68     		ldr	r3, [r3]
 2313 0858 0133     		adds	r3, r3, #1
 2314 085a FB64     		str	r3, [r7, #76]
 2315              	.L150:
 894:..\src/interruptions.c ****     
 895:..\src/interruptions.c ****         if((pwm_input-prev_pwm) < -PWM_RATE_LIMITER_MAX)
 2316              		.loc 1 895 0
 2317 085c 424B     		ldr	r3, .L175+16
 2318 085e 1B68     		ldr	r3, [r3]
 2319 0860 FA6C     		ldr	r2, [r7, #76]
 2320 0862 D31A     		subs	r3, r2, r3
 2321 0864 B3F1FF3F 		cmp	r3, #-1
 2322 0868 03DA     		bge	.L149
 896:..\src/interruptions.c ****             pwm_input =  prev_pwm - PWM_RATE_LIMITER_MAX;
 2323              		.loc 1 896 0
 2324 086a 3F4B     		ldr	r3, .L175+16
 2325 086c 1B68     		ldr	r3, [r3]
 2326 086e 013B     		subs	r3, r3, #1
 2327 0870 FB64     		str	r3, [r7, #76]
 2328              	.L149:
 897:..\src/interruptions.c ****     }
 898:..\src/interruptions.c ****     
 899:..\src/interruptions.c ****     if(pwm_input >  PWM_MAX_VALUE) 
 2329              		.loc 1 899 0
 2330 0872 FB6C     		ldr	r3, [r7, #76]
 2331 0874 642B     		cmp	r3, #100
 2332 0876 01DD     		ble	.L151
 900:..\src/interruptions.c ****         pwm_input =  PWM_MAX_VALUE;
 2333              		.loc 1 900 0
 2334 0878 6423     		movs	r3, #100
 2335 087a FB64     		str	r3, [r7, #76]
 2336              	.L151:
 901:..\src/interruptions.c ****     if(pwm_input < -PWM_MAX_VALUE) 
 2337              		.loc 1 901 0
 2338 087c FB6C     		ldr	r3, [r7, #76]
 2339 087e 13F1640F 		cmn	r3, #100
 2340 0882 02DA     		bge	.L152
 902:..\src/interruptions.c ****         pwm_input = -PWM_MAX_VALUE;
 2341              		.loc 1 902 0
 2342 0884 6FF06303 		mvn	r3, #99
 2343 0888 FB64     		str	r3, [r7, #76]
 2344              	.L152:
 903:..\src/interruptions.c ****     
 904:..\src/interruptions.c ****     prev_pwm = pwm_input;
 2345              		.loc 1 904 0
 2346 088a 374A     		ldr	r2, .L175+16
 2347 088c FB6C     		ldr	r3, [r7, #76]
ARM GAS  C:\Users\MattiaCP\AppData\Local\Temp\ccCFTaFS.s 			page 59


 2348 088e 1360     		str	r3, [r2]
 905:..\src/interruptions.c **** 	
 906:..\src/interruptions.c ****     pwm_sign = SIGN(pwm_input);   
 2349              		.loc 1 906 0
 2350 0890 FB6C     		ldr	r3, [r7, #76]
 2351 0892 002B     		cmp	r3, #0
 2352 0894 01DB     		blt	.L153
 2353              		.loc 1 906 0 is_stmt 0 discriminator 1
 2354 0896 0122     		movs	r2, #1
 2355 0898 01E0     		b	.L154
 2356              	.L153:
 2357              		.loc 1 906 0 discriminator 2
 2358 089a 4FF0FF32 		mov	r2, #-1
 2359              	.L154:
 2360              		.loc 1 906 0 discriminator 4
 2361 089e 334B     		ldr	r3, .L175+20
 2362 08a0 1A70     		strb	r2, [r3]
 907:..\src/interruptions.c ****     
 908:..\src/interruptions.c ****     // Block motor with pwm = 0 to exploit not reversible motor behaviour 
 909:..\src/interruptions.c **** 	if ( c_mem.control_mode != CONTROL_PWM && ((g_measOld.pos[0]-g_meas.pos[0]) < 50 && (g_measOld.pos
 2363              		.loc 1 909 0 is_stmt 1 discriminator 4
 2364 08a2 2E4B     		ldr	r3, .L175+4
 2365 08a4 93F83630 		ldrb	r3, [r3, #54]	@ zero_extendqisi2
 2366 08a8 012B     		cmp	r3, #1
 2367 08aa 3AD0     		beq	.L155
 2368              		.loc 1 909 0 is_stmt 0 discriminator 1
 2369 08ac 304B     		ldr	r3, .L175+24
 2370 08ae 1A68     		ldr	r2, [r3]
 2371 08b0 304B     		ldr	r3, .L175+28
 2372 08b2 1B68     		ldr	r3, [r3]
 2373 08b4 D31A     		subs	r3, r2, r3
 2374 08b6 312B     		cmp	r3, #49
 2375 08b8 33DC     		bgt	.L155
 2376              		.loc 1 909 0 discriminator 2
 2377 08ba 2D4B     		ldr	r3, .L175+24
 2378 08bc 1A68     		ldr	r2, [r3]
 2379 08be 2D4B     		ldr	r3, .L175+28
 2380 08c0 1B68     		ldr	r3, [r3]
 2381 08c2 D31A     		subs	r3, r2, r3
 2382 08c4 13F1310F 		cmn	r3, #49
 2383 08c8 2BDB     		blt	.L155
 2384              		.loc 1 909 0 discriminator 3
 2385 08ca 2B4B     		ldr	r3, .L175+32
 2386 08cc 1A68     		ldr	r2, [r3]
 2387 08ce 2B4B     		ldr	r3, .L175+36
 2388 08d0 1B68     		ldr	r3, [r3]
 2389 08d2 D31A     		subs	r3, r2, r3
 2390 08d4 632B     		cmp	r3, #99
 2391 08d6 24DC     		bgt	.L155
 2392              		.loc 1 909 0 discriminator 4
 2393 08d8 274B     		ldr	r3, .L175+32
 2394 08da 1A68     		ldr	r2, [r3]
 2395 08dc 274B     		ldr	r3, .L175+36
 2396 08de 1B68     		ldr	r3, [r3]
 2397 08e0 D31A     		subs	r3, r2, r3
 2398 08e2 13F1630F 		cmn	r3, #99
 2399 08e6 1CDB     		blt	.L155
ARM GAS  C:\Users\MattiaCP\AppData\Local\Temp\ccCFTaFS.s 			page 60


 910:..\src/interruptions.c ****         position_counter++;
 2400              		.loc 1 910 0 is_stmt 1
 2401 08e8 254B     		ldr	r3, .L175+40
 2402 08ea 1B68     		ldr	r3, [r3]
 2403 08ec 0133     		adds	r3, r3, #1
 2404 08ee 244A     		ldr	r2, .L175+40
 2405 08f0 1360     		str	r3, [r2]
 911:..\src/interruptions.c ****         
 912:..\src/interruptions.c ****         if (position_counter > 250) { 
 2406              		.loc 1 912 0
 2407 08f2 234B     		ldr	r3, .L175+40
 2408 08f4 1B68     		ldr	r3, [r3]
 2409 08f6 FA2B     		cmp	r3, #250
 2410 08f8 16D9     		bls	.L158
 913:..\src/interruptions.c ****             if (c_mem.input_mode == INPUT_MODE_EXTERNAL && change_ext_ref_flag == FALSE) {
 2411              		.loc 1 913 0
 2412 08fa 184B     		ldr	r3, .L175+4
 2413 08fc 93F83530 		ldrb	r3, [r3, #53]	@ zero_extendqisi2
 2414 0900 002B     		cmp	r3, #0
 2415 0902 07D1     		bne	.L157
 2416              		.loc 1 913 0 is_stmt 0 discriminator 1
 2417 0904 1F4B     		ldr	r3, .L175+44
 2418 0906 1B78     		ldrb	r3, [r3]	@ zero_extendqisi2
 2419 0908 002B     		cmp	r3, #0
 2420 090a 03D1     		bne	.L157
 914:..\src/interruptions.c ****                 g_refNew.pos = g_meas.pos[0];       // Needed only when USB input mode is used, sin
 2421              		.loc 1 914 0 is_stmt 1
 2422 090c 194B     		ldr	r3, .L175+28
 2423 090e 1B68     		ldr	r3, [r3]
 2424 0910 1D4A     		ldr	r2, .L175+48
 2425 0912 1360     		str	r3, [r2]
 2426              	.L157:
 915:..\src/interruptions.c ****             }
 916:..\src/interruptions.c ****             g_ref.pos = g_meas.pos[0];
 2427              		.loc 1 916 0
 2428 0914 174B     		ldr	r3, .L175+28
 2429 0916 1B68     		ldr	r3, [r3]
 2430 0918 184A     		ldr	r2, .L175+36
 2431 091a 1360     		str	r3, [r2]
 917:..\src/interruptions.c ****             pwm_input = 0;            
 2432              		.loc 1 917 0
 2433 091c 0023     		movs	r3, #0
 2434 091e FB64     		str	r3, [r7, #76]
 912:..\src/interruptions.c ****             if (c_mem.input_mode == INPUT_MODE_EXTERNAL && change_ext_ref_flag == FALSE) {
 2435              		.loc 1 912 0
 2436 0920 02E0     		b	.L158
 2437              	.L155:
 918:..\src/interruptions.c ****         }
 919:..\src/interruptions.c ****     }
 920:..\src/interruptions.c ****     else {
 921:..\src/interruptions.c ****         position_counter = 0;
 2438              		.loc 1 921 0
 2439 0922 174B     		ldr	r3, .L175+40
 2440 0924 0022     		movs	r2, #0
 2441 0926 1A60     		str	r2, [r3]
 2442              	.L158:
 922:..\src/interruptions.c ****     }
ARM GAS  C:\Users\MattiaCP\AppData\Local\Temp\ccCFTaFS.s 			page 61


 923:..\src/interruptions.c ****     
 924:..\src/interruptions.c ****     if (motor_dir)
 2443              		.loc 1 924 0
 2444 0928 0B4B     		ldr	r3, .L175
 2445 092a 1B78     		ldrb	r3, [r3]	@ zero_extendqisi2
 2446 092c 002B     		cmp	r3, #0
 2447 092e 03D0     		beq	.L159
 925:..\src/interruptions.c ****         MOTOR_DIR_Write(0x01);
 2448              		.loc 1 925 0
 2449 0930 0120     		movs	r0, #1
 2450 0932 FFF7FEFF 		bl	MOTOR_DIR_Write
 2451 0936 02E0     		b	.L160
 2452              	.L159:
 926:..\src/interruptions.c ****     else
 927:..\src/interruptions.c ****         MOTOR_DIR_Write(0x00);
 2453              		.loc 1 927 0
 2454 0938 0020     		movs	r0, #0
 2455 093a FFF7FEFF 		bl	MOTOR_DIR_Write
 2456              	.L160:
 928:..\src/interruptions.c **** 
 929:..\src/interruptions.c ****     PWM_MOTORS_WriteCompare(abs(pwm_input));
 2457              		.loc 1 929 0
 2458 093e FB6C     		ldr	r3, [r7, #76]
 2459 0940 002B     		cmp	r3, #0
 2460 0942 B8BF     		it	lt
 2461 0944 5B42     		rsblt	r3, r3, #0
 2462 0946 DBB2     		uxtb	r3, r3
 2463 0948 1846     		mov	r0, r3
 2464 094a FFF7FEFF 		bl	PWM_MOTORS_WriteCompare
 930:..\src/interruptions.c **** }
 2465              		.loc 1 930 0
 2466 094e 00BF     		nop
 2467 0950 5037     		adds	r7, r7, #80
 2468              		.cfi_def_cfa_offset 8
 2469 0952 BD46     		mov	sp, r7
 2470              		.cfi_def_cfa_register 13
 2471              		@ sp needed
 2472 0954 80BD     		pop	{r7, pc}
 2473              	.L176:
 2474 0956 00BF     		.align	2
 2475              	.L175:
 2476 0958 98000000 		.word	motor_dir.10094
 2477 095c 00000000 		.word	c_mem
 2478 0960 1F85EB51 		.word	1374389535
 2479 0964 00000000 		.word	dev_pwm_limit
 2480 0968 A4000000 		.word	prev_pwm.10093
 2481 096c 00000000 		.word	pwm_sign
 2482 0970 00000000 		.word	g_measOld
 2483 0974 00000000 		.word	g_meas
 2484 0978 00000000 		.word	g_refOld
 2485 097c 00000000 		.word	g_ref
 2486 0980 A8000000 		.word	position_counter.10095
 2487 0984 00000000 		.word	change_ext_ref_flag
 2488 0988 00000000 		.word	g_refNew
 2489              		.cfi_endproc
 2490              	.LFE68:
 2491              		.size	motor_control, .-motor_control
ARM GAS  C:\Users\MattiaCP\AppData\Local\Temp\ccCFTaFS.s 			page 62


 2492              		.global	__aeabi_fcmpeq
 2493              		.global	__aeabi_i2f
 2494              		.global	__aeabi_fmul
 2495              		.global	__aeabi_f2iz
 2496              		.global	__aeabi_fdiv
 2497              		.global	__aeabi_fcmplt
 2498              		.section	.text.encoder_reading_SPI,"ax",%progbits
 2499              		.align	2
 2500              		.global	encoder_reading_SPI
 2501              		.thumb
 2502              		.thumb_func
 2503              		.type	encoder_reading_SPI, %function
 2504              	encoder_reading_SPI:
 2505              	.LFB69:
 931:..\src/interruptions.c **** 
 932:..\src/interruptions.c **** //==============================================================================
 933:..\src/interruptions.c **** //                                                           ENCODER READING SPI
 934:..\src/interruptions.c **** //==============================================================================
 935:..\src/interruptions.c **** 
 936:..\src/interruptions.c **** void encoder_reading_SPI() {
 2506              		.loc 1 936 0
 2507              		.cfi_startproc
 2508              		@ args = 0, pretend = 0, frame = 40
 2509              		@ frame_needed = 1, uses_anonymous_args = 0
 2510 0000 90B5     		push	{r4, r7, lr}
 2511              		.cfi_def_cfa_offset 12
 2512              		.cfi_offset 4, -12
 2513              		.cfi_offset 7, -8
 2514              		.cfi_offset 14, -4
 2515 0002 8BB0     		sub	sp, sp, #44
 2516              		.cfi_def_cfa_offset 56
 2517 0004 00AF     		add	r7, sp, #0
 2518              		.cfi_def_cfa_register 7
 937:..\src/interruptions.c **** 
 938:..\src/interruptions.c ****     uint8 CYDATA index = 0;
 2519              		.loc 1 938 0
 2520 0006 0023     		movs	r3, #0
 2521 0008 87F82730 		strb	r3, [r7, #39]
 939:..\src/interruptions.c ****     int32 aux_encoders[N_ENCODERS];
 940:..\src/interruptions.c ****     
 941:..\src/interruptions.c ****     // Encoder Variables  
 942:..\src/interruptions.c ****     uint8 jj;
 943:..\src/interruptions.c ****      
 944:..\src/interruptions.c ****     int16 tmp_value_encoder;
 945:..\src/interruptions.c ****     int32 tmp_value_encoder_32;
 946:..\src/interruptions.c ****     int32 value_encoder;
 947:..\src/interruptions.c ****     int32 speed_encoder;
 948:..\src/interruptions.c ****     int32 value_diff;
 949:..\src/interruptions.c **** 	int8 init_rot = 0;
 2522              		.loc 1 949 0
 2523 000c 0023     		movs	r3, #0
 2524 000e FB77     		strb	r3, [r7, #31]
 950:..\src/interruptions.c **** 
 951:..\src/interruptions.c ****     static int32 last_value_encoder[NUM_OF_SENSORS];
 952:..\src/interruptions.c ****     static int32 comp_value_encoder[NUM_OF_SENSORS];
 953:..\src/interruptions.c ****     static uint8 error[NUM_OF_SENSORS];
 954:..\src/interruptions.c ****     
ARM GAS  C:\Users\MattiaCP\AppData\Local\Temp\ccCFTaFS.s 			page 63


 955:..\src/interruptions.c ****     static CYBIT only_first_time = TRUE;
 956:..\src/interruptions.c **** //    static CYBIT safe_startup_motor_activation = FALSE;
 957:..\src/interruptions.c ****     static uint8 one_time_execute = 0;
 958:..\src/interruptions.c **** //    static uint32 count_startup_motor = 0;
 959:..\src/interruptions.c ****     static CYBIT pos_reconstruct = FALSE;
 960:..\src/interruptions.c **** 
 961:..\src/interruptions.c ****     static int32 v_value[N_ENCODERS];   //last value for velocity
 962:..\src/interruptions.c ****     static int32 vv_value[N_ENCODERS];  //last last value for velocity
 963:..\src/interruptions.c ****     static int32 vvv_value[N_ENCODERS];  //last last last value for velocity
 964:..\src/interruptions.c ****     
 965:..\src/interruptions.c ****     if (reset_last_value_flag) {
 2525              		.loc 1 965 0
 2526 0010 684B     		ldr	r3, .L209
 2527 0012 1B78     		ldrb	r3, [r3]	@ zero_extendqisi2
 2528 0014 002B     		cmp	r3, #0
 2529 0016 13D0     		beq	.L178
 966:..\src/interruptions.c ****         for (jj = N_ENCODERS; jj--;) 
 2530              		.loc 1 966 0
 2531 0018 0323     		movs	r3, #3
 2532 001a 87F82630 		strb	r3, [r7, #38]
 2533 001e 05E0     		b	.L179
 2534              	.L180:
 967:..\src/interruptions.c ****             last_value_encoder[jj] = 0;
 2535              		.loc 1 967 0
 2536 0020 97F82630 		ldrb	r3, [r7, #38]	@ zero_extendqisi2
 2537 0024 644A     		ldr	r2, .L209+4
 2538 0026 0021     		movs	r1, #0
 2539 0028 42F82310 		str	r1, [r2, r3, lsl #2]
 2540              	.L179:
 966:..\src/interruptions.c ****         for (jj = N_ENCODERS; jj--;) 
 2541              		.loc 1 966 0 discriminator 1
 2542 002c 97F82630 		ldrb	r3, [r7, #38]	@ zero_extendqisi2
 2543 0030 5A1E     		subs	r2, r3, #1
 2544 0032 87F82620 		strb	r2, [r7, #38]
 2545 0036 002B     		cmp	r3, #0
 2546 0038 F2D1     		bne	.L180
 968:..\src/interruptions.c ****         
 969:..\src/interruptions.c ****         reset_last_value_flag = 0;
 2547              		.loc 1 969 0
 2548 003a 5E4B     		ldr	r3, .L209
 2549 003c 0022     		movs	r2, #0
 2550 003e 1A70     		strb	r2, [r3]
 2551              	.L178:
 970:..\src/interruptions.c ****     }
 971:..\src/interruptions.c **** 
 972:..\src/interruptions.c ****     //======================================================     reading sensors
 973:..\src/interruptions.c ****     for (index = 0; index < N_ENCODERS; index++) {
 2552              		.loc 1 973 0
 2553 0040 0023     		movs	r3, #0
 2554 0042 87F82730 		strb	r3, [r7, #39]
 2555 0046 0DE0     		b	.L181
 2556              	.L182:
 974:..\src/interruptions.c ****         aux_encoders[index] = 0;
 2557              		.loc 1 974 0 discriminator 3
 2558 0048 97F82730 		ldrb	r3, [r7, #39]	@ zero_extendqisi2
 2559 004c 9B00     		lsls	r3, r3, #2
 2560 004e 07F12802 		add	r2, r7, #40
ARM GAS  C:\Users\MattiaCP\AppData\Local\Temp\ccCFTaFS.s 			page 64


 2561 0052 1344     		add	r3, r3, r2
 2562 0054 0022     		movs	r2, #0
 2563 0056 43F8242C 		str	r2, [r3, #-36]
 973:..\src/interruptions.c ****         aux_encoders[index] = 0;
 2564              		.loc 1 973 0 discriminator 3
 2565 005a 97F82730 		ldrb	r3, [r7, #39]	@ zero_extendqisi2
 2566 005e 0133     		adds	r3, r3, #1
 2567 0060 87F82730 		strb	r3, [r7, #39]
 2568              	.L181:
 973:..\src/interruptions.c ****         aux_encoders[index] = 0;
 2569              		.loc 1 973 0 is_stmt 0 discriminator 1
 2570 0064 97F82730 		ldrb	r3, [r7, #39]	@ zero_extendqisi2
 2571 0068 022B     		cmp	r3, #2
 2572 006a EDD9     		bls	.L182
 975:..\src/interruptions.c ****     }   
 976:..\src/interruptions.c ****     
 977:..\src/interruptions.c ****     // encoder_read(&aux_encoders[0]);
 978:..\src/interruptions.c ****     aux_encoders[0] = (SHIFTREG_ENC_2_ReadData() >> 1) & 0x3FFFF;
 2573              		.loc 1 978 0 is_stmt 1
 2574 006c FFF7FEFF 		bl	SHIFTREG_ENC_2_ReadData
 2575 0070 0346     		mov	r3, r0
 2576 0072 5B08     		lsrs	r3, r3, #1
 2577 0074 C3F31103 		ubfx	r3, r3, #0, #18
 2578 0078 7B60     		str	r3, [r7, #4]
 979:..\src/interruptions.c **** //    aux_encoders[0] = (Enc_buf[0] ) & 0x00FFF;
 980:..\src/interruptions.c ****     aux_encoders[0] = (aux_encoders[0] & 0x3FFC0) >> 6;   // 00000000000000[20] XXXXXXXXXXXX[12]
 2579              		.loc 1 980 0
 2580 007a 7B68     		ldr	r3, [r7, #4]
 2581 007c 9B11     		asrs	r3, r3, #6
 2582 007e C3F30B03 		ubfx	r3, r3, #0, #12
 2583 0082 7B60     		str	r3, [r7, #4]
 981:..\src/interruptions.c ****     data_encoder_raw[0] = aux_encoders[0];
 2584              		.loc 1 981 0
 2585 0084 7B68     		ldr	r3, [r7, #4]
 2586 0086 1A46     		mov	r2, r3
 2587 0088 4C4B     		ldr	r3, .L209+8
 2588 008a 1A60     		str	r2, [r3]
 982:..\src/interruptions.c **** //    aux_encoders[1] = ((uint32)SHIFTREG_ENC_1_ReadData() >> 1) & 0x0FFFF;
 983:..\src/interruptions.c **** //    aux_encoders[1] = (aux_encoders[1] & 0x3FFC0) >> 6;   // 00000000000000[20] XXXXXXXXXXXX[12]
 984:..\src/interruptions.c **** //    data_encoder_raw[1] = aux_encoders[1];
 985:..\src/interruptions.c ****     aux_encoders[1] = (SHIFTREG_ENC_3_ReadData() >> 1) & 0x3FFFF;
 2589              		.loc 1 985 0
 2590 008c FFF7FEFF 		bl	SHIFTREG_ENC_3_ReadData
 2591 0090 0346     		mov	r3, r0
 2592 0092 5B08     		lsrs	r3, r3, #1
 2593 0094 C3F31103 		ubfx	r3, r3, #0, #18
 2594 0098 BB60     		str	r3, [r7, #8]
 986:..\src/interruptions.c ****     aux_encoders[1] = (aux_encoders[1] & 0x3FFC0) >> 6;   // 00000000000000[20] XXXXXXXXXXXX[12]
 2595              		.loc 1 986 0
 2596 009a BB68     		ldr	r3, [r7, #8]
 2597 009c 9B11     		asrs	r3, r3, #6
 2598 009e C3F30B03 		ubfx	r3, r3, #0, #12
 2599 00a2 BB60     		str	r3, [r7, #8]
 987:..\src/interruptions.c ****     data_encoder_raw[1] = aux_encoders[1];
 2600              		.loc 1 987 0
 2601 00a4 BB68     		ldr	r3, [r7, #8]
 2602 00a6 1A46     		mov	r2, r3
ARM GAS  C:\Users\MattiaCP\AppData\Local\Temp\ccCFTaFS.s 			page 65


 2603 00a8 444B     		ldr	r3, .L209+8
 2604 00aa 5A60     		str	r2, [r3, #4]
 988:..\src/interruptions.c ****     aux_encoders[2] = (SHIFTREG_ENC_1_ReadData() >> 1) & 0x3FFFF;
 2605              		.loc 1 988 0
 2606 00ac FFF7FEFF 		bl	SHIFTREG_ENC_1_ReadData
 2607 00b0 0346     		mov	r3, r0
 2608 00b2 5B08     		lsrs	r3, r3, #1
 2609 00b4 C3F31103 		ubfx	r3, r3, #0, #18
 2610 00b8 FB60     		str	r3, [r7, #12]
 989:..\src/interruptions.c ****     aux_encoders[2] = (aux_encoders[2] & 0x3FFC0) >> 6;   // 00000000000000[20] XXXXXXXXXXXX[12]
 2611              		.loc 1 989 0
 2612 00ba FB68     		ldr	r3, [r7, #12]
 2613 00bc 9B11     		asrs	r3, r3, #6
 2614 00be C3F30B03 		ubfx	r3, r3, #0, #12
 2615 00c2 FB60     		str	r3, [r7, #12]
 990:..\src/interruptions.c ****     data_encoder_raw[2] = aux_encoders[2];
 2616              		.loc 1 990 0
 2617 00c4 FB68     		ldr	r3, [r7, #12]
 2618 00c6 1A46     		mov	r2, r3
 2619 00c8 3C4B     		ldr	r3, .L209+8
 2620 00ca 9A60     		str	r2, [r3, #8]
 991:..\src/interruptions.c ****         
 992:..\src/interruptions.c ****     for (index = 0; index < N_ENCODERS; index++) {
 2621              		.loc 1 992 0
 2622 00cc 0023     		movs	r3, #0
 2623 00ce 87F82730 		strb	r3, [r7, #39]
 2624 00d2 C4E1     		b	.L183
 2625              	.L203:
 993:..\src/interruptions.c ****           
 994:..\src/interruptions.c ****         tmp_value_encoder = (int16)(aux_encoders[index] - (uint16)g_mem.m_off[index]);
 2626              		.loc 1 994 0
 2627 00d4 97F82730 		ldrb	r3, [r7, #39]	@ zero_extendqisi2
 2628 00d8 9B00     		lsls	r3, r3, #2
 2629 00da 07F12802 		add	r2, r7, #40
 2630 00de 1344     		add	r3, r3, r2
 2631 00e0 53F8243C 		ldr	r3, [r3, #-36]
 2632 00e4 9AB2     		uxth	r2, r3
 2633 00e6 97F82730 		ldrb	r3, [r7, #39]	@ zero_extendqisi2
 2634 00ea 3549     		ldr	r1, .L209+12
 2635 00ec 0E33     		adds	r3, r3, #14
 2636 00ee 9B00     		lsls	r3, r3, #2
 2637 00f0 0B44     		add	r3, r3, r1
 2638 00f2 5B68     		ldr	r3, [r3, #4]
 2639 00f4 9BB2     		uxth	r3, r3
 2640 00f6 D31A     		subs	r3, r2, r3
 2641 00f8 9BB2     		uxth	r3, r3
 2642 00fa BB84     		strh	r3, [r7, #36]	@ movhi
 995:..\src/interruptions.c ****         if (tmp_value_encoder < 0){
 2643              		.loc 1 995 0
 2644 00fc B7F92430 		ldrsh	r3, [r7, #36]
 2645 0100 002B     		cmp	r3, #0
 2646 0102 04DA     		bge	.L184
 996:..\src/interruptions.c ****             tmp_value_encoder = tmp_value_encoder + 4096;   //SSSS[4] XXXXXXXXXXXX[12] worst case r
 2647              		.loc 1 996 0
 2648 0104 BB8C     		ldrh	r3, [r7, #36]
 2649 0106 03F58053 		add	r3, r3, #4096
 2650 010a 9BB2     		uxth	r3, r3
ARM GAS  C:\Users\MattiaCP\AppData\Local\Temp\ccCFTaFS.s 			page 66


 2651 010c BB84     		strh	r3, [r7, #36]	@ movhi
 2652              	.L184:
 997:..\src/interruptions.c ****         }       // Range [0, 4096]
 998:..\src/interruptions.c **** 
 999:..\src/interruptions.c ****         if (tmp_value_encoder >= 2048) {
 2653              		.loc 1 999 0
 2654 010e B7F92430 		ldrsh	r3, [r7, #36]
 2655 0112 B3F5006F 		cmp	r3, #2048
 2656 0116 04DB     		blt	.L185
1000:..\src/interruptions.c ****            tmp_value_encoder = tmp_value_encoder - 4096;    //SSSS[4] XXXXXXXXXXXX[12] range [-2048
 2657              		.loc 1 1000 0
 2658 0118 BB8C     		ldrh	r3, [r7, #36]
 2659 011a A3F58053 		sub	r3, r3, #4096
 2660 011e 9BB2     		uxth	r3, r3
 2661 0120 BB84     		strh	r3, [r7, #36]	@ movhi
 2662              	.L185:
1001:..\src/interruptions.c ****         }       // Range [-2048, 2047]
1002:..\src/interruptions.c **** 
1003:..\src/interruptions.c ****         tmp_value_encoder_32 = (((int32)(tmp_value_encoder)) << 4);     //SSSSSSSSSSSSSSSS[16] XXXX
 2663              		.loc 1 1003 0
 2664 0122 B7F92430 		ldrsh	r3, [r7, #36]
 2665 0126 1B01     		lsls	r3, r3, #4
 2666 0128 BB61     		str	r3, [r7, #24]
1004:..\src/interruptions.c ****         comp_value_encoder[index] = tmp_value_encoder_32;
 2667              		.loc 1 1004 0
 2668 012a 97F82730 		ldrb	r3, [r7, #39]	@ zero_extendqisi2
 2669 012e 2549     		ldr	r1, .L209+16
 2670 0130 BA69     		ldr	r2, [r7, #24]
 2671 0132 41F82320 		str	r2, [r1, r3, lsl #2]
1005:..\src/interruptions.c **** 
1006:..\src/interruptions.c ****         // Initialize last_value_encoder
1007:..\src/interruptions.c ****         if (only_first_time) {
 2672              		.loc 1 1007 0
 2673 0136 244B     		ldr	r3, .L209+20
 2674 0138 1B78     		ldrb	r3, [r3]	@ zero_extendqisi2
 2675 013a 002B     		cmp	r3, #0
 2676 013c 0CD0     		beq	.L186
1008:..\src/interruptions.c ****             last_value_encoder[index] = tmp_value_encoder_32;
 2677              		.loc 1 1008 0
 2678 013e 97F82730 		ldrb	r3, [r7, #39]	@ zero_extendqisi2
 2679 0142 1D49     		ldr	r1, .L209+4
 2680 0144 BA69     		ldr	r2, [r7, #24]
 2681 0146 41F82320 		str	r2, [r1, r3, lsl #2]
1009:..\src/interruptions.c ****             if (index == 2)
 2682              		.loc 1 1009 0
 2683 014a 97F82730 		ldrb	r3, [r7, #39]	@ zero_extendqisi2
 2684 014e 022B     		cmp	r3, #2
 2685 0150 02D1     		bne	.L186
1010:..\src/interruptions.c ****                 only_first_time = 0;
 2686              		.loc 1 1010 0
 2687 0152 1D4B     		ldr	r3, .L209+20
 2688 0154 0022     		movs	r2, #0
 2689 0156 1A70     		strb	r2, [r3]
 2690              	.L186:
1011:..\src/interruptions.c ****         }
1012:..\src/interruptions.c **** 
1013:..\src/interruptions.c ****         // Take care of rotations
ARM GAS  C:\Users\MattiaCP\AppData\Local\Temp\ccCFTaFS.s 			page 67


1014:..\src/interruptions.c ****         value_diff = tmp_value_encoder_32 - last_value_encoder[index];     // worst case SSSSSSSSSS
 2691              		.loc 1 1014 0
 2692 0158 97F82730 		ldrb	r3, [r7, #39]	@ zero_extendqisi2
 2693 015c 164A     		ldr	r2, .L209+4
 2694 015e 52F82330 		ldr	r3, [r2, r3, lsl #2]
 2695 0162 BA69     		ldr	r2, [r7, #24]
 2696 0164 D31A     		subs	r3, r2, r3
 2697 0166 7B61     		str	r3, [r7, #20]
1015:..\src/interruptions.c **** 
1016:..\src/interruptions.c ****         // ====================== 1 TURN ======================
1017:..\src/interruptions.c ****         // -32768                    0                    32767 -32768                   0         
1018:..\src/interruptions.c ****         // |-------------------------|-------------------------|-------------------------|---------
1019:..\src/interruptions.c ****         //              |                         |      |           |      |                      
1020:..\src/interruptions.c ****         //           -16384                     16383    |           |   -16384                    
1021:..\src/interruptions.c ****         //                                               |           |
1022:..\src/interruptions.c ****         //                                           24575           -24576
1023:..\src/interruptions.c ****         //                                               |___________|
1024:..\src/interruptions.c ****         //                                                   49152
1025:..\src/interruptions.c **** 
1026:..\src/interruptions.c ****         // if we are in the right interval, take care of rotation
1027:..\src/interruptions.c ****         // and update the variable only if the difference between
1028:..\src/interruptions.c ****         // one measure and another is less than 1/4 of turn
1029:..\src/interruptions.c **** 
1030:..\src/interruptions.c ****         // Considering we are sampling at 1kHz, this means that our shaft needs
1031:..\src/interruptions.c ****         // to go slower than 1/4 turn every ms -> 1 turn every 4ms
1032:..\src/interruptions.c ****         // equal to 250 turn/s -> 15000 RPM
1033:..\src/interruptions.c **** 
1034:..\src/interruptions.c ****         if (value_diff > 49152)
 2698              		.loc 1 1034 0
 2699 0168 7B69     		ldr	r3, [r7, #20]
 2700 016a B3F5404F 		cmp	r3, #49152
 2701 016e 0EDD     		ble	.L187
1035:..\src/interruptions.c ****             g_meas.rot[index]--;
 2702              		.loc 1 1035 0
 2703 0170 97F82730 		ldrb	r3, [r7, #39]	@ zero_extendqisi2
 2704 0174 154A     		ldr	r2, .L209+24
 2705 0176 1A44     		add	r2, r2, r3
 2706 0178 92F91420 		ldrsb	r2, [r2, #20]
 2707 017c D2B2     		uxtb	r2, r2
 2708 017e 013A     		subs	r2, r2, #1
 2709 0180 D2B2     		uxtb	r2, r2
 2710 0182 51B2     		sxtb	r1, r2
 2711 0184 114A     		ldr	r2, .L209+24
 2712 0186 1344     		add	r3, r3, r2
 2713 0188 0A46     		mov	r2, r1
 2714 018a 1A75     		strb	r2, [r3, #20]
 2715 018c 36E0     		b	.L188
 2716              	.L187:
1036:..\src/interruptions.c ****         else{ 
1037:..\src/interruptions.c ****             if (value_diff < -49152)
 2717              		.loc 1 1037 0
 2718 018e 7B69     		ldr	r3, [r7, #20]
 2719 0190 13F5404F 		cmn	r3, #49152
 2720 0194 1CDA     		bge	.L189
1038:..\src/interruptions.c ****                 g_meas.rot[index]++;
 2721              		.loc 1 1038 0
 2722 0196 97F82730 		ldrb	r3, [r7, #39]	@ zero_extendqisi2
ARM GAS  C:\Users\MattiaCP\AppData\Local\Temp\ccCFTaFS.s 			page 68


 2723 019a 0C4A     		ldr	r2, .L209+24
 2724 019c 1A44     		add	r2, r2, r3
 2725 019e 92F91420 		ldrsb	r2, [r2, #20]
 2726 01a2 D2B2     		uxtb	r2, r2
 2727 01a4 0132     		adds	r2, r2, #1
 2728 01a6 D2B2     		uxtb	r2, r2
 2729 01a8 51B2     		sxtb	r1, r2
 2730 01aa 084A     		ldr	r2, .L209+24
 2731 01ac 1344     		add	r3, r3, r2
 2732 01ae 0A46     		mov	r2, r1
 2733 01b0 1A75     		strb	r2, [r3, #20]
 2734 01b2 23E0     		b	.L188
 2735              	.L210:
 2736              		.align	2
 2737              	.L209:
 2738 01b4 00000000 		.word	reset_last_value_flag
 2739 01b8 AC000000 		.word	last_value_encoder.10130
 2740 01bc 00000000 		.word	data_encoder_raw
 2741 01c0 00000000 		.word	g_mem
 2742 01c4 B8000000 		.word	comp_value_encoder.10131
 2743 01c8 04000000 		.word	only_first_time.10133
 2744 01cc 00000000 		.word	g_meas
 2745              	.L189:
1039:..\src/interruptions.c ****             else{
1040:..\src/interruptions.c ****                 if (abs(value_diff) > 16384) { // if two measure are too far
 2746              		.loc 1 1040 0
 2747 01d0 7B69     		ldr	r3, [r7, #20]
 2748 01d2 002B     		cmp	r3, #0
 2749 01d4 B8BF     		it	lt
 2750 01d6 5B42     		rsblt	r3, r3, #0
 2751 01d8 B3F5804F 		cmp	r3, #16384
 2752 01dc 0EDD     		ble	.L188
1041:..\src/interruptions.c ****                     error[index]++;
 2753              		.loc 1 1041 0
 2754 01de 97F82730 		ldrb	r3, [r7, #39]	@ zero_extendqisi2
 2755 01e2 A44A     		ldr	r2, .L211
 2756 01e4 D25C     		ldrb	r2, [r2, r3]	@ zero_extendqisi2
 2757 01e6 0132     		adds	r2, r2, #1
 2758 01e8 D1B2     		uxtb	r1, r2
 2759 01ea A24A     		ldr	r2, .L211
 2760 01ec D154     		strb	r1, [r2, r3]
1042:..\src/interruptions.c ****                                 
1043:..\src/interruptions.c ****                     if (error[index] < 10)
 2761              		.loc 1 1043 0
 2762 01ee 97F82730 		ldrb	r3, [r7, #39]	@ zero_extendqisi2
 2763 01f2 A04A     		ldr	r2, .L211
 2764 01f4 D35C     		ldrb	r3, [r2, r3]	@ zero_extendqisi2
 2765 01f6 092B     		cmp	r3, #9
 2766 01f8 40F23781 		bls	.L208
 2767              	.L188:
1044:..\src/interruptions.c ****                         // Discard
1045:..\src/interruptions.c ****                         return;
1046:..\src/interruptions.c ****                 }
1047:..\src/interruptions.c ****             }
1048:..\src/interruptions.c ****         }
1049:..\src/interruptions.c **** 
1050:..\src/interruptions.c ****         error[index] = 0;
ARM GAS  C:\Users\MattiaCP\AppData\Local\Temp\ccCFTaFS.s 			page 69


 2768              		.loc 1 1050 0
 2769 01fc 97F82730 		ldrb	r3, [r7, #39]	@ zero_extendqisi2
 2770 0200 9C4A     		ldr	r2, .L211
 2771 0202 0021     		movs	r1, #0
 2772 0204 D154     		strb	r1, [r2, r3]
1051:..\src/interruptions.c ****         
1052:..\src/interruptions.c ****         last_value_encoder[index] = tmp_value_encoder_32;
 2773              		.loc 1 1052 0
 2774 0206 97F82730 		ldrb	r3, [r7, #39]	@ zero_extendqisi2
 2775 020a 9B49     		ldr	r1, .L211+4
 2776 020c BA69     		ldr	r2, [r7, #24]
 2777 020e 41F82320 		str	r2, [r1, r3, lsl #2]
1053:..\src/interruptions.c **** 
1054:..\src/interruptions.c ****         value_encoder = (int32)tmp_value_encoder_32;   // SSSSSSSSSSSSSSSS[16] XXXXXXXXXXXX[12] 000
 2778              		.loc 1 1054 0
 2779 0212 BB69     		ldr	r3, [r7, #24]
 2780 0214 3B62     		str	r3, [r7, #32]
1055:..\src/interruptions.c **** 
1056:..\src/interruptions.c ****         value_encoder += ((int32)g_meas.rot[index] << 16);    
 2781              		.loc 1 1056 0
 2782 0216 97F82730 		ldrb	r3, [r7, #39]	@ zero_extendqisi2
 2783 021a 984A     		ldr	r2, .L211+8
 2784 021c 1344     		add	r3, r3, r2
 2785 021e 93F91430 		ldrsb	r3, [r3, #20]
 2786 0222 1B04     		lsls	r3, r3, #16
 2787 0224 3A6A     		ldr	r2, [r7, #32]
 2788 0226 1344     		add	r3, r3, r2
 2789 0228 3B62     		str	r3, [r7, #32]
1057:..\src/interruptions.c ****         
1058:..\src/interruptions.c ****         if (c_mem.m_mult[index] != 1.0) {
 2790              		.loc 1 1058 0
 2791 022a 97F82730 		ldrb	r3, [r7, #39]	@ zero_extendqisi2
 2792 022e 944A     		ldr	r2, .L211+12
 2793 0230 1233     		adds	r3, r3, #18
 2794 0232 52F82330 		ldr	r3, [r2, r3, lsl #2]	@ float
 2795 0236 4FF07E51 		mov	r1, #1065353216
 2796 023a 1846     		mov	r0, r3
 2797 023c FFF7FEFF 		bl	__aeabi_fcmpeq
 2798 0240 0346     		mov	r3, r0
 2799 0242 002B     		cmp	r3, #0
 2800 0244 11D1     		bne	.L191
1059:..\src/interruptions.c ****             value_encoder *= c_mem.m_mult[index];
 2801              		.loc 1 1059 0
 2802 0246 386A     		ldr	r0, [r7, #32]
 2803 0248 FFF7FEFF 		bl	__aeabi_i2f
 2804 024c 97F82730 		ldrb	r3, [r7, #39]	@ zero_extendqisi2
 2805 0250 8B4A     		ldr	r2, .L211+12
 2806 0252 1233     		adds	r3, r3, #18
 2807 0254 52F82330 		ldr	r3, [r2, r3, lsl #2]	@ float
 2808 0258 1946     		mov	r1, r3
 2809 025a FFF7FEFF 		bl	__aeabi_fmul
 2810 025e 0346     		mov	r3, r0
 2811 0260 1846     		mov	r0, r3
 2812 0262 FFF7FEFF 		bl	__aeabi_f2iz
 2813 0266 0346     		mov	r3, r0
 2814 0268 3B62     		str	r3, [r7, #32]
 2815              	.L191:
ARM GAS  C:\Users\MattiaCP\AppData\Local\Temp\ccCFTaFS.s 			page 70


1060:..\src/interruptions.c ****         }
1061:..\src/interruptions.c ****         
1062:..\src/interruptions.c ****         // Right / Left hand turn
1063:..\src/interruptions.c ****         if (index == 0) {
 2816              		.loc 1 1063 0
 2817 026a 97F82730 		ldrb	r3, [r7, #39]	@ zero_extendqisi2
 2818 026e 002B     		cmp	r3, #0
 2819 0270 07D1     		bne	.L193
1064:..\src/interruptions.c ****             if (c_mem.right_left == RIGHT_HAND){
 2820              		.loc 1 1064 0
 2821 0272 834B     		ldr	r3, .L211+12
 2822 0274 93F8A630 		ldrb	r3, [r3, #166]	@ zero_extendqisi2
 2823 0278 002B     		cmp	r3, #0
 2824 027a 02D1     		bne	.L193
1065:..\src/interruptions.c ****                 value_encoder *= -1;        
 2825              		.loc 1 1065 0
 2826 027c 3B6A     		ldr	r3, [r7, #32]
 2827 027e 5B42     		negs	r3, r3
 2828 0280 3B62     		str	r3, [r7, #32]
 2829              	.L193:
1066:..\src/interruptions.c ****             }
1067:..\src/interruptions.c ****         }
1068:..\src/interruptions.c ****         
1069:..\src/interruptions.c ****         g_meas.pos[index] = value_encoder;
 2830              		.loc 1 1069 0
 2831 0282 97F82730 		ldrb	r3, [r7, #39]	@ zero_extendqisi2
 2832 0286 7D49     		ldr	r1, .L211+8
 2833 0288 3A6A     		ldr	r2, [r7, #32]
 2834 028a 41F82320 		str	r2, [r1, r3, lsl #2]
1070:..\src/interruptions.c ****     
1071:..\src/interruptions.c ****         speed_encoder = (int16)filter((11*value_encoder - 18* v_value[index] + 9 * vv_value[index] 
 2835              		.loc 1 1071 0
 2836 028e 3A6A     		ldr	r2, [r7, #32]
 2837 0290 1346     		mov	r3, r2
 2838 0292 9B00     		lsls	r3, r3, #2
 2839 0294 1344     		add	r3, r3, r2
 2840 0296 5B00     		lsls	r3, r3, #1
 2841 0298 1A44     		add	r2, r2, r3
 2842 029a 97F82730 		ldrb	r3, [r7, #39]	@ zero_extendqisi2
 2843 029e 7949     		ldr	r1, .L211+16
 2844 02a0 51F82330 		ldr	r3, [r1, r3, lsl #2]
 2845 02a4 6FF01101 		mvn	r1, #17
 2846 02a8 01FB03F3 		mul	r3, r1, r3
 2847 02ac D118     		adds	r1, r2, r3
 2848 02ae 97F82730 		ldrb	r3, [r7, #39]	@ zero_extendqisi2
 2849 02b2 754A     		ldr	r2, .L211+20
 2850 02b4 52F82320 		ldr	r2, [r2, r3, lsl #2]
 2851 02b8 1346     		mov	r3, r2
 2852 02ba DB00     		lsls	r3, r3, #3
 2853 02bc 1344     		add	r3, r3, r2
 2854 02be CA18     		adds	r2, r1, r3
 2855 02c0 97F82730 		ldrb	r3, [r7, #39]	@ zero_extendqisi2
 2856 02c4 7149     		ldr	r1, .L211+24
 2857 02c6 51F82330 		ldr	r3, [r1, r3, lsl #2]
 2858 02ca 5B00     		lsls	r3, r3, #1
 2859 02cc D01A     		subs	r0, r2, r3
 2860 02ce 97F82730 		ldrb	r3, [r7, #39]	@ zero_extendqisi2
ARM GAS  C:\Users\MattiaCP\AppData\Local\Temp\ccCFTaFS.s 			page 71


 2861 02d2 DB00     		lsls	r3, r3, #3
 2862 02d4 6E4A     		ldr	r2, .L211+28
 2863 02d6 1344     		add	r3, r3, r2
 2864 02d8 1946     		mov	r1, r3
 2865 02da FFF7FEFF 		bl	filter
 2866 02de 0346     		mov	r3, r0
 2867 02e0 1BB2     		sxth	r3, r3
 2868 02e2 3B61     		str	r3, [r7, #16]
1072:..\src/interruptions.c **** 
1073:..\src/interruptions.c ****         //Update current speed
1074:..\src/interruptions.c ****         speed_encoder = speed_encoder / (6*cycle_time);
 2869              		.loc 1 1074 0
 2870 02e4 3869     		ldr	r0, [r7, #16]
 2871 02e6 FFF7FEFF 		bl	__aeabi_i2f
 2872 02ea 0446     		mov	r4, r0
 2873 02ec 694B     		ldr	r3, .L211+32
 2874 02ee 1B68     		ldr	r3, [r3]	@ float
 2875 02f0 6949     		ldr	r1, .L211+36
 2876 02f2 1846     		mov	r0, r3
 2877 02f4 FFF7FEFF 		bl	__aeabi_fmul
 2878 02f8 0346     		mov	r3, r0
 2879 02fa 1946     		mov	r1, r3
 2880 02fc 2046     		mov	r0, r4
 2881 02fe FFF7FEFF 		bl	__aeabi_fdiv
 2882 0302 0346     		mov	r3, r0
 2883 0304 1846     		mov	r0, r3
 2884 0306 FFF7FEFF 		bl	__aeabi_f2iz
 2885 030a 0346     		mov	r3, r0
 2886 030c 3B61     		str	r3, [r7, #16]
1075:..\src/interruptions.c ****         g_meas.vel[index] = speed_encoder;
 2887              		.loc 1 1075 0
 2888 030e 97F82730 		ldrb	r3, [r7, #39]	@ zero_extendqisi2
 2889 0312 5A49     		ldr	r1, .L211+8
 2890 0314 0833     		adds	r3, r3, #8
 2891 0316 3A69     		ldr	r2, [r7, #16]
 2892 0318 41F82320 		str	r2, [r1, r3, lsl #2]
1076:..\src/interruptions.c **** 
1077:..\src/interruptions.c ****         // update old velocity and acceleration values
1078:..\src/interruptions.c ****         vvv_value[index] = vv_value[index];
 2893              		.loc 1 1078 0
 2894 031c 97F82730 		ldrb	r3, [r7, #39]	@ zero_extendqisi2
 2895 0320 97F82720 		ldrb	r2, [r7, #39]	@ zero_extendqisi2
 2896 0324 5849     		ldr	r1, .L211+20
 2897 0326 51F82220 		ldr	r2, [r1, r2, lsl #2]
 2898 032a 5849     		ldr	r1, .L211+24
 2899 032c 41F82320 		str	r2, [r1, r3, lsl #2]
1079:..\src/interruptions.c ****         vv_value[index] = v_value[index];
 2900              		.loc 1 1079 0
 2901 0330 97F82730 		ldrb	r3, [r7, #39]	@ zero_extendqisi2
 2902 0334 97F82720 		ldrb	r2, [r7, #39]	@ zero_extendqisi2
 2903 0338 5249     		ldr	r1, .L211+16
 2904 033a 51F82220 		ldr	r2, [r1, r2, lsl #2]
 2905 033e 5249     		ldr	r1, .L211+20
 2906 0340 41F82320 		str	r2, [r1, r3, lsl #2]
1080:..\src/interruptions.c ****         v_value[index] = value_encoder;
 2907              		.loc 1 1080 0
 2908 0344 97F82730 		ldrb	r3, [r7, #39]	@ zero_extendqisi2
ARM GAS  C:\Users\MattiaCP\AppData\Local\Temp\ccCFTaFS.s 			page 72


 2909 0348 4E49     		ldr	r1, .L211+16
 2910 034a 3A6A     		ldr	r2, [r7, #32]
 2911 034c 41F82320 		str	r2, [r1, r3, lsl #2]
1081:..\src/interruptions.c **** 
1082:..\src/interruptions.c ****         // wait at least 3 * max_num_of_error (10) + 5 = 35 cycles to reconstruct the right turn
1083:..\src/interruptions.c ****         if (pos_reconstruct == FALSE){
 2912              		.loc 1 1083 0
 2913 0350 524B     		ldr	r3, .L211+40
 2914 0352 1B78     		ldrb	r3, [r3]	@ zero_extendqisi2
 2915 0354 002B     		cmp	r3, #0
 2916 0356 7DD1     		bne	.L194
1084:..\src/interruptions.c ****             if (one_time_execute < 34) 
 2917              		.loc 1 1084 0
 2918 0358 514B     		ldr	r3, .L211+44
 2919 035a 1B78     		ldrb	r3, [r3]	@ zero_extendqisi2
 2920 035c 212B     		cmp	r3, #33
 2921 035e 06D8     		bhi	.L195
1085:..\src/interruptions.c ****                 one_time_execute++;
 2922              		.loc 1 1085 0
 2923 0360 4F4B     		ldr	r3, .L211+44
 2924 0362 1B78     		ldrb	r3, [r3]	@ zero_extendqisi2
 2925 0364 0133     		adds	r3, r3, #1
 2926 0366 DAB2     		uxtb	r2, r3
 2927 0368 4D4B     		ldr	r3, .L211+44
 2928 036a 1A70     		strb	r2, [r3]
 2929 036c 72E0     		b	.L194
 2930              	.L195:
1086:..\src/interruptions.c ****             else {
1087:..\src/interruptions.c ****                 //Double encoder translation
1088:..\src/interruptions.c ****                 if (c_mem.double_encoder_on_off){
 2931              		.loc 1 1088 0
 2932 036e 444B     		ldr	r3, .L211+12
 2933 0370 93F87930 		ldrb	r3, [r3, #121]	@ zero_extendqisi2
 2934 0374 002B     		cmp	r3, #0
 2935 0376 1AD0     		beq	.L196
1089:..\src/interruptions.c ****                     init_rot = calc_turns_fcn(comp_value_encoder[0],comp_value_encoder[1]);
 2936              		.loc 1 1089 0
 2937 0378 4A4B     		ldr	r3, .L211+48
 2938 037a 1A68     		ldr	r2, [r3]
 2939 037c 494B     		ldr	r3, .L211+48
 2940 037e 5B68     		ldr	r3, [r3, #4]
 2941 0380 1946     		mov	r1, r3
 2942 0382 1046     		mov	r0, r2
 2943 0384 FFF7FEFF 		bl	calc_turns_fcn
 2944 0388 0346     		mov	r3, r0
 2945 038a FB77     		strb	r3, [r7, #31]
1090:..\src/interruptions.c ****                     if (c_mem.m_mult[0] < 0)
 2946              		.loc 1 1090 0
 2947 038c 3C4B     		ldr	r3, .L211+12
 2948 038e 9B6C     		ldr	r3, [r3, #72]	@ float
 2949 0390 4FF00001 		mov	r1, #0
 2950 0394 1846     		mov	r0, r3
 2951 0396 FFF7FEFF 		bl	__aeabi_fcmplt
 2952 039a 0346     		mov	r3, r0
 2953 039c 002B     		cmp	r3, #0
 2954 039e 03D0     		beq	.L197
1091:..\src/interruptions.c ****                         init_rot = -init_rot;
ARM GAS  C:\Users\MattiaCP\AppData\Local\Temp\ccCFTaFS.s 			page 73


 2955              		.loc 1 1091 0
 2956 03a0 FB7F     		ldrb	r3, [r7, #31]	@ zero_extendqisi2
 2957 03a2 5B42     		negs	r3, r3
 2958 03a4 DBB2     		uxtb	r3, r3
 2959 03a6 FB77     		strb	r3, [r7, #31]
 2960              	.L197:
1092:..\src/interruptions.c ****                     
1093:..\src/interruptions.c ****                     g_meas.rot[0] = (int8)init_rot;
 2961              		.loc 1 1093 0
 2962 03a8 344A     		ldr	r2, .L211+8
 2963 03aa FB7F     		ldrb	r3, [r7, #31]
 2964 03ac 1375     		strb	r3, [r2, #20]
 2965              	.L196:
1094:..\src/interruptions.c ****                 }    
1095:..\src/interruptions.c **** 
1096:..\src/interruptions.c ****                 if (c_mem.m_mult[0] != 1.0)
 2966              		.loc 1 1096 0
 2967 03ae 344B     		ldr	r3, .L211+12
 2968 03b0 9B6C     		ldr	r3, [r3, #72]	@ float
 2969 03b2 4FF07E51 		mov	r1, #1065353216
 2970 03b6 1846     		mov	r0, r3
 2971 03b8 FFF7FEFF 		bl	__aeabi_fcmpeq
 2972 03bc 0346     		mov	r3, r0
 2973 03be 002B     		cmp	r3, #0
 2974 03c0 12D1     		bne	.L199
1097:..\src/interruptions.c ****                     g_meas.pos[0] /= c_mem.m_mult[0];
 2975              		.loc 1 1097 0
 2976 03c2 2E4B     		ldr	r3, .L211+8
 2977 03c4 1B68     		ldr	r3, [r3]
 2978 03c6 1846     		mov	r0, r3
 2979 03c8 FFF7FEFF 		bl	__aeabi_i2f
 2980 03cc 0246     		mov	r2, r0
 2981 03ce 2C4B     		ldr	r3, .L211+12
 2982 03d0 9B6C     		ldr	r3, [r3, #72]	@ float
 2983 03d2 1946     		mov	r1, r3
 2984 03d4 1046     		mov	r0, r2
 2985 03d6 FFF7FEFF 		bl	__aeabi_fdiv
 2986 03da 0346     		mov	r3, r0
 2987 03dc 1846     		mov	r0, r3
 2988 03de FFF7FEFF 		bl	__aeabi_f2iz
 2989 03e2 0246     		mov	r2, r0
 2990 03e4 254B     		ldr	r3, .L211+8
 2991 03e6 1A60     		str	r2, [r3]
 2992              	.L199:
1098:..\src/interruptions.c ****                 
1099:..\src/interruptions.c ****                 g_meas.pos[0] += (int32)(init_rot << 16);
 2993              		.loc 1 1099 0
 2994 03e8 244B     		ldr	r3, .L211+8
 2995 03ea 1A68     		ldr	r2, [r3]
 2996 03ec 97F91F30 		ldrsb	r3, [r7, #31]
 2997 03f0 1B04     		lsls	r3, r3, #16
 2998 03f2 1344     		add	r3, r3, r2
 2999 03f4 214A     		ldr	r2, .L211+8
 3000 03f6 1360     		str	r3, [r2]
1100:..\src/interruptions.c ****             
1101:..\src/interruptions.c ****                 if (c_mem.m_mult[0] != 1.0)
 3001              		.loc 1 1101 0
ARM GAS  C:\Users\MattiaCP\AppData\Local\Temp\ccCFTaFS.s 			page 74


 3002 03f8 214B     		ldr	r3, .L211+12
 3003 03fa 9B6C     		ldr	r3, [r3, #72]	@ float
 3004 03fc 4FF07E51 		mov	r1, #1065353216
 3005 0400 1846     		mov	r0, r3
 3006 0402 FFF7FEFF 		bl	__aeabi_fcmpeq
 3007 0406 0346     		mov	r3, r0
 3008 0408 002B     		cmp	r3, #0
 3009 040a 12D1     		bne	.L201
1102:..\src/interruptions.c ****                     g_meas.pos[0] *= c_mem.m_mult[0];
 3010              		.loc 1 1102 0
 3011 040c 1B4B     		ldr	r3, .L211+8
 3012 040e 1B68     		ldr	r3, [r3]
 3013 0410 1846     		mov	r0, r3
 3014 0412 FFF7FEFF 		bl	__aeabi_i2f
 3015 0416 0246     		mov	r2, r0
 3016 0418 194B     		ldr	r3, .L211+12
 3017 041a 9B6C     		ldr	r3, [r3, #72]	@ float
 3018 041c 1946     		mov	r1, r3
 3019 041e 1046     		mov	r0, r2
 3020 0420 FFF7FEFF 		bl	__aeabi_fmul
 3021 0424 0346     		mov	r3, r0
 3022 0426 1846     		mov	r0, r3
 3023 0428 FFF7FEFF 		bl	__aeabi_f2iz
 3024 042c 0246     		mov	r2, r0
 3025 042e 134B     		ldr	r3, .L211+8
 3026 0430 1A60     		str	r2, [r3]
 3027              	.L201:
1103:..\src/interruptions.c ****             
1104:..\src/interruptions.c ****                 g_refNew.pos = g_meas.pos[0];
 3028              		.loc 1 1104 0
 3029 0432 124B     		ldr	r3, .L211+8
 3030 0434 1B68     		ldr	r3, [r3]
 3031 0436 1C4A     		ldr	r2, .L211+52
 3032 0438 1360     		str	r3, [r2]
1105:..\src/interruptions.c **** 
1106:..\src/interruptions.c ****                 // If necessary activate motor
1107:..\src/interruptions.c ****     			//safe_startup_motor_activation = TRUE;
1108:..\src/interruptions.c ****                 g_refNew.onoff = c_mem.activ;
 3033              		.loc 1 1108 0
 3034 043a 114B     		ldr	r3, .L211+12
 3035 043c 93F83420 		ldrb	r2, [r3, #52]	@ zero_extendqisi2
 3036 0440 194B     		ldr	r3, .L211+52
 3037 0442 1A73     		strb	r2, [r3, #12]
1109:..\src/interruptions.c ****                 MOTOR_ON_OFF_Write(g_refNew.onoff);
 3038              		.loc 1 1109 0
 3039 0444 184B     		ldr	r3, .L211+52
 3040 0446 1B7B     		ldrb	r3, [r3, #12]	@ zero_extendqisi2
 3041 0448 1846     		mov	r0, r3
 3042 044a FFF7FEFF 		bl	MOTOR_ON_OFF_Write
1110:..\src/interruptions.c ****                 //MOTOR_ON_OFF_Write(g_ref.onoff);
1111:..\src/interruptions.c ****                 
1112:..\src/interruptions.c ****                 pos_reconstruct = TRUE;
 3043              		.loc 1 1112 0
 3044 044e 134B     		ldr	r3, .L211+40
 3045 0450 0122     		movs	r2, #1
 3046 0452 1A70     		strb	r2, [r3]
 3047              	.L194:
ARM GAS  C:\Users\MattiaCP\AppData\Local\Temp\ccCFTaFS.s 			page 75


 992:..\src/interruptions.c ****           
 3048              		.loc 1 992 0 discriminator 2
 3049 0454 97F82730 		ldrb	r3, [r7, #39]	@ zero_extendqisi2
 3050 0458 0133     		adds	r3, r3, #1
 3051 045a 87F82730 		strb	r3, [r7, #39]
 3052              	.L183:
 992:..\src/interruptions.c ****           
 3053              		.loc 1 992 0 is_stmt 0 discriminator 1
 3054 045e 97F82730 		ldrb	r3, [r7, #39]	@ zero_extendqisi2
 3055 0462 022B     		cmp	r3, #2
 3056 0464 7FF636AE 		bls	.L203
 3057 0468 00E0     		b	.L177
 3058              	.L208:
1045:..\src/interruptions.c ****                 }
 3059              		.loc 1 1045 0 is_stmt 1
 3060 046a 00BF     		nop
 3061              	.L177:
1113:..\src/interruptions.c ****             }
1114:..\src/interruptions.c ****         }
1115:..\src/interruptions.c ****     } 
1116:..\src/interruptions.c **** 
1117:..\src/interruptions.c **** /*	
1118:..\src/interruptions.c **** 	// Wait for 35+SAFE_STARTUP_MOTOR_READINGS cycles before starting motors
1119:..\src/interruptions.c ****     if (safe_startup_motor_activation){
1120:..\src/interruptions.c ****         count_startup_motor++;
1121:..\src/interruptions.c ****         if (count_startup_motor >= (uint32)SAFE_STARTUP_MOTOR_READINGS) {                          
1122:..\src/interruptions.c ****             g_refNew.pos = 0;
1123:..\src/interruptions.c ****             
1124:..\src/interruptions.c ****             g_refNew.onoff = c_mem.activ;
1125:..\src/interruptions.c ****             MOTOR_ON_OFF_Write(g_refNew.onoff);
1126:..\src/interruptions.c ****             
1127:..\src/interruptions.c ****             safe_startup_motor_activation = FALSE;
1128:..\src/interruptions.c ****         }
1129:..\src/interruptions.c ****     }
1130:..\src/interruptions.c **** */ 
1131:..\src/interruptions.c **** }
 3062              		.loc 1 1131 0
 3063 046c 2C37     		adds	r7, r7, #44
 3064              		.cfi_def_cfa_offset 12
 3065 046e BD46     		mov	sp, r7
 3066              		.cfi_def_cfa_register 13
 3067              		@ sp needed
 3068 0470 90BD     		pop	{r4, r7, pc}
 3069              	.L212:
 3070 0472 00BF     		.align	2
 3071              	.L211:
 3072 0474 C4000000 		.word	error.10132
 3073 0478 AC000000 		.word	last_value_encoder.10130
 3074 047c 00000000 		.word	g_meas
 3075 0480 00000000 		.word	c_mem
 3076 0484 C8000000 		.word	v_value.10136
 3077 0488 D4000000 		.word	vv_value.10137
 3078 048c E0000000 		.word	vvv_value.10138
 3079 0490 00000000 		.word	filt_vel
 3080 0494 00000000 		.word	cycle_time
 3081 0498 0000C040 		.word	1086324736
 3082 049c EC000000 		.word	pos_reconstruct.10135
ARM GAS  C:\Users\MattiaCP\AppData\Local\Temp\ccCFTaFS.s 			page 76


 3083 04a0 ED000000 		.word	one_time_execute.10134
 3084 04a4 B8000000 		.word	comp_value_encoder.10131
 3085 04a8 00000000 		.word	g_refNew
 3086              		.cfi_endproc
 3087              	.LFE69:
 3088              		.size	encoder_reading_SPI, .-encoder_reading_SPI
 3089              		.section	.text.analog_read_end,"ax",%progbits
 3090              		.align	2
 3091              		.global	analog_read_end
 3092              		.thumb
 3093              		.thumb_func
 3094              		.type	analog_read_end, %function
 3095              	analog_read_end:
 3096              	.LFB70:
1132:..\src/interruptions.c **** 
1133:..\src/interruptions.c **** //==============================================================================
1134:..\src/interruptions.c **** //                                                           ANALOG MEASUREMENTS
1135:..\src/interruptions.c **** //==============================================================================
1136:..\src/interruptions.c **** 
1137:..\src/interruptions.c **** void analog_read_end() {
 3097              		.loc 1 1137 0
 3098              		.cfi_startproc
 3099              		@ args = 0, pretend = 0, frame = 8
 3100              		@ frame_needed = 1, uses_anonymous_args = 0
 3101 0000 90B5     		push	{r4, r7, lr}
 3102              		.cfi_def_cfa_offset 12
 3103              		.cfi_offset 4, -12
 3104              		.cfi_offset 7, -8
 3105              		.cfi_offset 14, -4
 3106 0002 83B0     		sub	sp, sp, #12
 3107              		.cfi_def_cfa_offset 24
 3108 0004 00AF     		add	r7, sp, #0
 3109              		.cfi_def_cfa_register 7
1138:..\src/interruptions.c **** 
1139:..\src/interruptions.c ****     /* =========================================================================
1140:..\src/interruptions.c ****     /   Ideal formulation to calculate tension and current
1141:..\src/interruptions.c ****     /
1142:..\src/interruptions.c ****     /   tension = ((read_value_mV - offset) * 101) / gain -> [mV]
1143:..\src/interruptions.c ****     /   current = ((read_value_mV - offset) * 375) / (gain * resistor) -> [mA]
1144:..\src/interruptions.c ****     /
1145:..\src/interruptions.c ****     /   Definition:
1146:..\src/interruptions.c ****     /   read_value_mV = counts_read / 0.819 -> conversion from counts to mV
1147:..\src/interruptions.c ****     /   offset = 2000 -> hardware amplifier bias in mV
1148:..\src/interruptions.c ****     /   gain = 8.086 -> amplifier gain
1149:..\src/interruptions.c ****     /   resistor = 18 -> resistor of voltage divider in KOhm 
1150:..\src/interruptions.c ****     /
1151:..\src/interruptions.c ****     /   Real formulation: tradeoff in good performance and accurancy, ADC_buf[] 
1152:..\src/interruptions.c ****     /   and offset unit of measurement is counts, instead dev_tension and
1153:..\src/interruptions.c ****     /   g_meas.curr[] are converted in properly unit.
1154:..\src/interruptions.c ****     /  =========================================================================
1155:..\src/interruptions.c ****     */
1156:..\src/interruptions.c **** 
1157:..\src/interruptions.c ****     int32 CYDATA i_aux;
1158:..\src/interruptions.c **** 
1159:..\src/interruptions.c ****     static uint16 emg_counter_1 = 0;
1160:..\src/interruptions.c ****     static uint16 emg_counter_2 = 0;
1161:..\src/interruptions.c **** 	static uint8 first_tension_valid = TRUE;
ARM GAS  C:\Users\MattiaCP\AppData\Local\Temp\ccCFTaFS.s 			page 77


1162:..\src/interruptions.c ****     //static int32 pow_tension = 12000;       //12000 mV (12 V)
1163:..\src/interruptions.c ****     static uint16 count = 0;
1164:..\src/interruptions.c ****     static uint32 v_count = 0;
1165:..\src/interruptions.c ****     
1166:..\src/interruptions.c ****     // Wait for conversion end
1167:..\src/interruptions.c ****     
1168:..\src/interruptions.c ****     while(!ADC_STATUS_Read()){
 3110              		.loc 1 1168 0
 3111 0006 08E0     		b	.L214
 3112              	.L215:
1169:..\src/interruptions.c ****         
1170:..\src/interruptions.c ****         if (interrupt_flag){
 3113              		.loc 1 1170 0
 3114 0008 9A4B     		ldr	r3, .L288
 3115 000a 1B78     		ldrb	r3, [r3]	@ zero_extendqisi2
 3116 000c 002B     		cmp	r3, #0
 3117 000e 04D0     		beq	.L214
1171:..\src/interruptions.c ****             interrupt_flag = FALSE;
 3118              		.loc 1 1171 0
 3119 0010 984B     		ldr	r3, .L288
 3120 0012 0022     		movs	r2, #0
 3121 0014 1A70     		strb	r2, [r3]
1172:..\src/interruptions.c ****             interrupt_manager();
 3122              		.loc 1 1172 0
 3123 0016 FFF7FEFF 		bl	interrupt_manager
 3124              	.L214:
1168:..\src/interruptions.c ****         
 3125              		.loc 1 1168 0
 3126 001a FFF7FEFF 		bl	ADC_STATUS_Read
 3127 001e 0346     		mov	r3, r0
 3128 0020 002B     		cmp	r3, #0
 3129 0022 F1D0     		beq	.L215
1173:..\src/interruptions.c ****         }
1174:..\src/interruptions.c ****     }
1175:..\src/interruptions.c ****     
1176:..\src/interruptions.c ****     // Convert tension read
1177:..\src/interruptions.c ****     dev_tension = ((int32)(ADC_buf[0] - 1621) * 1990) >> 7;
 3130              		.loc 1 1177 0
 3131 0024 944B     		ldr	r3, .L288+4
 3132 0026 B3F90030 		ldrsh	r3, [r3]
 3133 002a A3F25563 		subw	r3, r3, #1621
 3134 002e 40F2C672 		movw	r2, #1990
 3135 0032 02FB03F3 		mul	r3, r2, r3
 3136 0036 DB11     		asrs	r3, r3, #7
 3137 0038 904A     		ldr	r2, .L288+8
 3138 003a 1360     		str	r3, [r2]
1178:..\src/interruptions.c ****     
1179:..\src/interruptions.c ****     if (interrupt_flag){
 3139              		.loc 1 1179 0
 3140 003c 8D4B     		ldr	r3, .L288
 3141 003e 1B78     		ldrb	r3, [r3]	@ zero_extendqisi2
 3142 0040 002B     		cmp	r3, #0
 3143 0042 04D0     		beq	.L216
1180:..\src/interruptions.c ****         interrupt_flag = FALSE;                                                                    
 3144              		.loc 1 1180 0
 3145 0044 8B4B     		ldr	r3, .L288
 3146 0046 0022     		movs	r2, #0
ARM GAS  C:\Users\MattiaCP\AppData\Local\Temp\ccCFTaFS.s 			page 78


 3147 0048 1A70     		strb	r2, [r3]
1181:..\src/interruptions.c ****         interrupt_manager();
 3148              		.loc 1 1181 0
 3149 004a FFF7FEFF 		bl	interrupt_manager
 3150              	.L216:
1182:..\src/interruptions.c ****     }
1183:..\src/interruptions.c ****     
1184:..\src/interruptions.c ****     // VOLTAGE READING
1185:..\src/interruptions.c ****     // Once firmware starts, first_tension_valid flag is set to TRUE while tension_valid status is 
1186:..\src/interruptions.c ****     // Step 1) Wait for battery voltage stabilization and filter convergence for 1000 cycles (v_cou
1187:..\src/interruptions.c ****     // Step 2) Wait for another 1000 cycles (count counter) to decide which is full charge power te
1188:..\src/interruptions.c ****     // Low voltage condition) Whenever dev_tension ADC value is under 7000 mV, tension_valid flag i
1189:..\src/interruptions.c ****     
1190:..\src/interruptions.c **** 	if (first_tension_valid && tension_valid) {     // Voltage reading (Step 2)
 3151              		.loc 1 1190 0
 3152 004e 8C4B     		ldr	r3, .L288+12
 3153 0050 1B78     		ldrb	r3, [r3]	@ zero_extendqisi2
 3154 0052 002B     		cmp	r3, #0
 3155 0054 2BD0     		beq	.L217
 3156              		.loc 1 1190 0 is_stmt 0 discriminator 1
 3157 0056 8B4B     		ldr	r3, .L288+16
 3158 0058 1B78     		ldrb	r3, [r3]	@ zero_extendqisi2
 3159 005a 002B     		cmp	r3, #0
 3160 005c 27D0     		beq	.L217
1191:..\src/interruptions.c ****         count = count + 1;
 3161              		.loc 1 1191 0 is_stmt 1
 3162 005e 8A4B     		ldr	r3, .L288+20
 3163 0060 1B88     		ldrh	r3, [r3]
 3164 0062 0133     		adds	r3, r3, #1
 3165 0064 9AB2     		uxth	r2, r3
 3166 0066 884B     		ldr	r3, .L288+20
 3167 0068 1A80     		strh	r2, [r3]	@ movhi
1192:..\src/interruptions.c ****         
1193:..\src/interruptions.c ****         if (count == 1000){
 3168              		.loc 1 1193 0
 3169 006a 874B     		ldr	r3, .L288+20
 3170 006c 1B88     		ldrh	r3, [r3]
 3171 006e B3F57A7F 		cmp	r3, #1000
 3172 0072 1CD1     		bne	.L217
1194:..\src/interruptions.c ****             if (dev_tension < 9000) {   // 8 V case
 3173              		.loc 1 1194 0
 3174 0074 814B     		ldr	r3, .L288+8
 3175 0076 1B68     		ldr	r3, [r3]
 3176 0078 42F22732 		movw	r2, #8999
 3177 007c 9342     		cmp	r3, r2
 3178 007e 04DC     		bgt	.L218
1195:..\src/interruptions.c ****                 pow_tension = 8000;
 3179              		.loc 1 1195 0
 3180 0080 824B     		ldr	r3, .L288+24
 3181 0082 4FF4FA52 		mov	r2, #8000
 3182 0086 1A60     		str	r2, [r3]
 3183 0088 0EE0     		b	.L219
 3184              	.L218:
1196:..\src/interruptions.c ****             }
1197:..\src/interruptions.c ****             else {      // 12 V - 24 V cases
1198:..\src/interruptions.c ****                 if (dev_tension < 13000) {
 3185              		.loc 1 1198 0
ARM GAS  C:\Users\MattiaCP\AppData\Local\Temp\ccCFTaFS.s 			page 79


 3186 008a 7C4B     		ldr	r3, .L288+8
 3187 008c 1B68     		ldr	r3, [r3]
 3188 008e 43F2C722 		movw	r2, #12999
 3189 0092 9342     		cmp	r3, r2
 3190 0094 04DC     		bgt	.L220
1199:..\src/interruptions.c ****                     pow_tension = 12000;
 3191              		.loc 1 1199 0
 3192 0096 7D4B     		ldr	r3, .L288+24
 3193 0098 42F6E062 		movw	r2, #12000
 3194 009c 1A60     		str	r2, [r3]
 3195 009e 03E0     		b	.L219
 3196              	.L220:
1200:..\src/interruptions.c ****                 }
1201:..\src/interruptions.c ****                 else
1202:..\src/interruptions.c ****                     pow_tension = 24000;
 3197              		.loc 1 1202 0
 3198 00a0 7A4B     		ldr	r3, .L288+24
 3199 00a2 45F6C052 		movw	r2, #24000
 3200 00a6 1A60     		str	r2, [r3]
 3201              	.L219:
1203:..\src/interruptions.c ****             }
1204:..\src/interruptions.c **** 
1205:..\src/interruptions.c ****             first_tension_valid = FALSE;
 3202              		.loc 1 1205 0
 3203 00a8 754B     		ldr	r3, .L288+12
 3204 00aa 0022     		movs	r2, #0
 3205 00ac 1A70     		strb	r2, [r3]
 3206              	.L217:
1206:..\src/interruptions.c ****         }
1207:..\src/interruptions.c ****     }
1208:..\src/interruptions.c **** 
1209:..\src/interruptions.c ****     // Until there is no valid input tension repeat this measurement
1210:..\src/interruptions.c **** 
1211:..\src/interruptions.c ****     if (dev_tension < 7000) {       // Voltage reading (Low voltage condition)
 3207              		.loc 1 1211 0
 3208 00ae 734B     		ldr	r3, .L288+8
 3209 00b0 1B68     		ldr	r3, [r3]
 3210 00b2 41F65732 		movw	r2, #6999
 3211 00b6 9342     		cmp	r3, r2
 3212 00b8 3ADC     		bgt	.L221
1212:..\src/interruptions.c ****         // PSoC is powered through uUSB
1213:..\src/interruptions.c ****         
1214:..\src/interruptions.c ****         tension_valid = FALSE;
 3213              		.loc 1 1214 0
 3214 00ba 724B     		ldr	r3, .L288+16
 3215 00bc 0022     		movs	r2, #0
 3216 00be 1A70     		strb	r2, [r3]
1215:..\src/interruptions.c ****             
1216:..\src/interruptions.c ****         if (interrupt_flag){
 3217              		.loc 1 1216 0
 3218 00c0 6C4B     		ldr	r3, .L288
 3219 00c2 1B78     		ldrb	r3, [r3]	@ zero_extendqisi2
 3220 00c4 002B     		cmp	r3, #0
 3221 00c6 04D0     		beq	.L222
1217:..\src/interruptions.c ****             interrupt_flag = FALSE;
 3222              		.loc 1 1217 0
 3223 00c8 6A4B     		ldr	r3, .L288
ARM GAS  C:\Users\MattiaCP\AppData\Local\Temp\ccCFTaFS.s 			page 80


 3224 00ca 0022     		movs	r2, #0
 3225 00cc 1A70     		strb	r2, [r3]
1218:..\src/interruptions.c ****             interrupt_manager();
 3226              		.loc 1 1218 0
 3227 00ce FFF7FEFF 		bl	interrupt_manager
 3228              	.L222:
1219:..\src/interruptions.c ****         }
1220:..\src/interruptions.c ****         
1221:..\src/interruptions.c ****         if (c_mem.emg_calibration_flag) {
 3229              		.loc 1 1221 0
 3230 00d2 6F4B     		ldr	r3, .L288+28
 3231 00d4 93F86E30 		ldrb	r3, [r3, #110]	@ zero_extendqisi2
 3232 00d8 002B     		cmp	r3, #0
 3233 00da 1BD0     		beq	.L223
1222:..\src/interruptions.c ****             if ((c_mem.input_mode == INPUT_MODE_EMG_PROPORTIONAL) ||
 3234              		.loc 1 1222 0
 3235 00dc 6C4B     		ldr	r3, .L288+28
 3236 00de 93F83530 		ldrb	r3, [r3, #53]	@ zero_extendqisi2
 3237 00e2 022B     		cmp	r3, #2
 3238 00e4 0ED0     		beq	.L224
1223:..\src/interruptions.c ****                 (c_mem.input_mode == INPUT_MODE_EMG_INTEGRAL) ||
 3239              		.loc 1 1223 0 discriminator 1
 3240 00e6 6A4B     		ldr	r3, .L288+28
 3241 00e8 93F83530 		ldrb	r3, [r3, #53]	@ zero_extendqisi2
1222:..\src/interruptions.c ****             if ((c_mem.input_mode == INPUT_MODE_EMG_PROPORTIONAL) ||
 3242              		.loc 1 1222 0 discriminator 1
 3243 00ec 032B     		cmp	r3, #3
 3244 00ee 09D0     		beq	.L224
1224:..\src/interruptions.c ****                 (c_mem.input_mode == INPUT_MODE_EMG_FCFS) ||
 3245              		.loc 1 1224 0
 3246 00f0 674B     		ldr	r3, .L288+28
 3247 00f2 93F83530 		ldrb	r3, [r3, #53]	@ zero_extendqisi2
1223:..\src/interruptions.c ****                 (c_mem.input_mode == INPUT_MODE_EMG_INTEGRAL) ||
 3248              		.loc 1 1223 0
 3249 00f6 042B     		cmp	r3, #4
 3250 00f8 04D0     		beq	.L224
1225:..\src/interruptions.c ****                 (c_mem.input_mode == INPUT_MODE_EMG_FCFS_ADV)) {
 3251              		.loc 1 1225 0
 3252 00fa 654B     		ldr	r3, .L288+28
 3253 00fc 93F83530 		ldrb	r3, [r3, #53]	@ zero_extendqisi2
1224:..\src/interruptions.c ****                 (c_mem.input_mode == INPUT_MODE_EMG_FCFS) ||
 3254              		.loc 1 1224 0
 3255 0100 052B     		cmp	r3, #5
 3256 0102 07D1     		bne	.L223
 3257              	.L224:
1226:..\src/interruptions.c ****                 g_ref.onoff = 0x00;
 3258              		.loc 1 1226 0
 3259 0104 634B     		ldr	r3, .L288+32
 3260 0106 0022     		movs	r2, #0
 3261 0108 1A73     		strb	r2, [r3, #12]
1227:..\src/interruptions.c ****                 MOTOR_ON_OFF_Write(g_ref.onoff);
 3262              		.loc 1 1227 0
 3263 010a 624B     		ldr	r3, .L288+32
 3264 010c 1B7B     		ldrb	r3, [r3, #12]	@ zero_extendqisi2
 3265 010e 1846     		mov	r0, r3
 3266 0110 FFF7FEFF 		bl	MOTOR_ON_OFF_Write
 3267              	.L223:
ARM GAS  C:\Users\MattiaCP\AppData\Local\Temp\ccCFTaFS.s 			page 81


1228:..\src/interruptions.c ****             }
1229:..\src/interruptions.c ****         }
1230:..\src/interruptions.c ****         
1231:..\src/interruptions.c ****         // Assign dev_tension     
1232:..\src/interruptions.c ****         dev_tension = 5000;
 3268              		.loc 1 1232 0
 3269 0114 594B     		ldr	r3, .L288+8
 3270 0116 41F28832 		movw	r2, #5000
 3271 011a 1A60     		str	r2, [r3]
1233:..\src/interruptions.c **** 
1234:..\src/interruptions.c ****         // Reset current
1235:..\src/interruptions.c ****         g_meas.curr = 0;
 3272              		.loc 1 1235 0
 3273 011c 5E4B     		ldr	r3, .L288+36
 3274 011e 0022     		movs	r2, #0
 3275 0120 DA60     		str	r2, [r3, #12]
1236:..\src/interruptions.c **** 
1237:..\src/interruptions.c ****         // Reset emg
1238:..\src/interruptions.c ****         g_meas.emg[0] = 0;
 3276              		.loc 1 1238 0
 3277 0122 5D4B     		ldr	r3, .L288+36
 3278 0124 0022     		movs	r2, #0
 3279 0126 9A61     		str	r2, [r3, #24]
1239:..\src/interruptions.c ****         g_meas.emg[1] = 0;
 3280              		.loc 1 1239 0
 3281 0128 5B4B     		ldr	r3, .L288+36
 3282 012a 0022     		movs	r2, #0
 3283 012c DA61     		str	r2, [r3, #28]
 3284 012e 71E0     		b	.L225
 3285              	.L221:
1240:..\src/interruptions.c ****         
1241:..\src/interruptions.c ****     }
1242:..\src/interruptions.c ****     else {
1243:..\src/interruptions.c ****         // PSoC is powered through battery or power source
1244:..\src/interruptions.c ****         // (at least > 7.36 V (92% of 8 V) that is minimum charge of smallest battery)
1245:..\src/interruptions.c ****         
1246:..\src/interruptions.c ****         // Read ADC sampled value of power source tension and motor current
1247:..\src/interruptions.c ****         
1248:..\src/interruptions.c ****         if (v_count == 1000 && !tension_valid){     // Voltage reading (Step 1)
 3286              		.loc 1 1248 0
 3287 0130 5A4B     		ldr	r3, .L288+40
 3288 0132 1B68     		ldr	r3, [r3]
 3289 0134 B3F57A7F 		cmp	r3, #1000
 3290 0138 0DD1     		bne	.L226
 3291              		.loc 1 1248 0 is_stmt 0 discriminator 1
 3292 013a 524B     		ldr	r3, .L288+16
 3293 013c 1B78     		ldrb	r3, [r3]	@ zero_extendqisi2
 3294 013e 002B     		cmp	r3, #0
 3295 0140 09D1     		bne	.L226
1249:..\src/interruptions.c ****             // After 1000 v_count cycles, dev_tension_f is stable
1250:..\src/interruptions.c ****             tension_valid = TRUE;   
 3296              		.loc 1 1250 0 is_stmt 1
 3297 0142 504B     		ldr	r3, .L288+16
 3298 0144 0122     		movs	r2, #1
 3299 0146 1A70     		strb	r2, [r3]
1251:..\src/interruptions.c ****             count = 0;
 3300              		.loc 1 1251 0
ARM GAS  C:\Users\MattiaCP\AppData\Local\Temp\ccCFTaFS.s 			page 82


 3301 0148 4F4B     		ldr	r3, .L288+20
 3302 014a 0022     		movs	r2, #0
 3303 014c 1A80     		strh	r2, [r3]	@ movhi
1252:..\src/interruptions.c ****             v_count = 0;
 3304              		.loc 1 1252 0
 3305 014e 534B     		ldr	r3, .L288+40
 3306 0150 0022     		movs	r2, #0
 3307 0152 1A60     		str	r2, [r3]
 3308 0154 12E0     		b	.L227
 3309              	.L226:
1253:..\src/interruptions.c ****         }
1254:..\src/interruptions.c ****         else {  
1255:..\src/interruptions.c ****             // wait for battery voltage stabilization
1256:..\src/interruptions.c ****             if (v_count < 1000) {
 3310              		.loc 1 1256 0
 3311 0156 514B     		ldr	r3, .L288+40
 3312 0158 1B68     		ldr	r3, [r3]
 3313 015a B3F57A7F 		cmp	r3, #1000
 3314 015e 04D2     		bcs	.L228
1257:..\src/interruptions.c ****                 v_count = v_count + 1;
 3315              		.loc 1 1257 0
 3316 0160 4E4B     		ldr	r3, .L288+40
 3317 0162 1B68     		ldr	r3, [r3]
 3318 0164 0133     		adds	r3, r3, #1
 3319 0166 4D4A     		ldr	r2, .L288+40
 3320 0168 1360     		str	r3, [r2]
 3321              	.L228:
1258:..\src/interruptions.c ****             }
1259:..\src/interruptions.c ****             dev_tension_f = filter(dev_tension, &filt_v);
 3322              		.loc 1 1259 0
 3323 016a 444B     		ldr	r3, .L288+8
 3324 016c 1B68     		ldr	r3, [r3]
 3325 016e 4C49     		ldr	r1, .L288+44
 3326 0170 1846     		mov	r0, r3
 3327 0172 FFF7FEFF 		bl	filter
 3328 0176 0246     		mov	r2, r0
 3329 0178 4A4B     		ldr	r3, .L288+48
 3330 017a 1A60     		str	r2, [r3]
 3331              	.L227:
1260:..\src/interruptions.c ****         }
1261:..\src/interruptions.c **** 
1262:..\src/interruptions.c ****         if(g_mem.activate_pwm_rescaling)        //pwm rescaling is activated
 3332              		.loc 1 1262 0
 3333 017c 4A4B     		ldr	r3, .L288+52
 3334 017e 93F87B30 		ldrb	r3, [r3, #123]	@ zero_extendqisi2
 3335 0182 002B     		cmp	r3, #0
 3336 0184 01D0     		beq	.L229
1263:..\src/interruptions.c ****             pwm_limit_search();                 //only for 12V motor
 3337              		.loc 1 1263 0
 3338 0186 FFF7FEFF 		bl	pwm_limit_search
 3339              	.L229:
1264:..\src/interruptions.c **** 
1265:..\src/interruptions.c ****         // Filter and Set currents
1266:..\src/interruptions.c ****         g_meas.curr = filter((int16) (((int32)(ADC_buf[1] - 1648) * 22634) >> 13) * pwm_sign, &filt
 3340              		.loc 1 1266 0
 3341 018a 3B4B     		ldr	r3, .L288+4
 3342 018c B3F90230 		ldrsh	r3, [r3, #2]
ARM GAS  C:\Users\MattiaCP\AppData\Local\Temp\ccCFTaFS.s 			page 83


 3343 0190 A3F5CE63 		sub	r3, r3, #1648
 3344 0194 45F66A02 		movw	r2, #22634
 3345 0198 02FB03F3 		mul	r3, r2, r3
 3346 019c 5B13     		asrs	r3, r3, #13
 3347 019e 1BB2     		sxth	r3, r3
 3348 01a0 1A46     		mov	r2, r3
 3349 01a2 424B     		ldr	r3, .L288+56
 3350 01a4 93F90030 		ldrsb	r3, [r3]
 3351 01a8 03FB02F3 		mul	r3, r3, r2
 3352 01ac 4049     		ldr	r1, .L288+60
 3353 01ae 1846     		mov	r0, r3
 3354 01b0 FFF7FEFF 		bl	filter
 3355 01b4 0246     		mov	r2, r0
 3356 01b6 384B     		ldr	r3, .L288+36
 3357 01b8 DA60     		str	r2, [r3, #12]
1267:..\src/interruptions.c ****         
1268:..\src/interruptions.c **** 		// Calculate current estimation and put it in the second part of the current measurement array;
1269:..\src/interruptions.c **** 		g_meas.estim_curr = (int16) filter(((int32) g_meas.curr) - curr_estim(g_meas.pos[0] >> g_mem.res[
 3358              		.loc 1 1269 0
 3359 01ba 374B     		ldr	r3, .L288+36
 3360 01bc DC68     		ldr	r4, [r3, #12]
 3361 01be 364B     		ldr	r3, .L288+36
 3362 01c0 1B68     		ldr	r3, [r3]
 3363 01c2 394A     		ldr	r2, .L288+52
 3364 01c4 92F83720 		ldrb	r2, [r2, #55]	@ zero_extendqisi2
 3365 01c8 43FA02F0 		asr	r0, r3, r2
 3366 01cc 324B     		ldr	r3, .L288+36
 3367 01ce 1B6A     		ldr	r3, [r3, #32]
 3368 01d0 354A     		ldr	r2, .L288+52
 3369 01d2 92F83720 		ldrb	r2, [r2, #55]	@ zero_extendqisi2
 3370 01d6 43FA02F1 		asr	r1, r3, r2
 3371 01da 2E4B     		ldr	r3, .L288+32
 3372 01dc 1B68     		ldr	r3, [r3]
 3373 01de 324A     		ldr	r2, .L288+52
 3374 01e0 92F83720 		ldrb	r2, [r2, #55]	@ zero_extendqisi2
 3375 01e4 1341     		asrs	r3, r3, r2
 3376 01e6 1A46     		mov	r2, r3
 3377 01e8 FFF7FEFF 		bl	curr_estim
 3378 01ec 0346     		mov	r3, r0
 3379 01ee E31A     		subs	r3, r4, r3
 3380 01f0 3049     		ldr	r1, .L288+64
 3381 01f2 1846     		mov	r0, r3
 3382 01f4 FFF7FEFF 		bl	filter
 3383 01f8 0346     		mov	r3, r0
 3384 01fa 1BB2     		sxth	r3, r3
 3385 01fc 1A46     		mov	r2, r3
 3386 01fe 264B     		ldr	r3, .L288+36
 3387 0200 1A61     		str	r2, [r3, #16]
1270:..\src/interruptions.c **** 
1271:..\src/interruptions.c ****         // Check Interrupt 
1272:..\src/interruptions.c ****     
1273:..\src/interruptions.c ****         if (interrupt_flag){
 3388              		.loc 1 1273 0
 3389 0202 1C4B     		ldr	r3, .L288
 3390 0204 1B78     		ldrb	r3, [r3]	@ zero_extendqisi2
 3391 0206 002B     		cmp	r3, #0
 3392 0208 04D0     		beq	.L225
ARM GAS  C:\Users\MattiaCP\AppData\Local\Temp\ccCFTaFS.s 			page 84


1274:..\src/interruptions.c ****             interrupt_flag = FALSE;
 3393              		.loc 1 1274 0
 3394 020a 1A4B     		ldr	r3, .L288
 3395 020c 0022     		movs	r2, #0
 3396 020e 1A70     		strb	r2, [r3]
1275:..\src/interruptions.c ****             interrupt_manager();
 3397              		.loc 1 1275 0
 3398 0210 FFF7FEFF 		bl	interrupt_manager
 3399              	.L225:
1276:..\src/interruptions.c ****         }
1277:..\src/interruptions.c **** 
1278:..\src/interruptions.c ****     }
1279:..\src/interruptions.c ****     
1280:..\src/interruptions.c ****     // Read EMG (if necessary)
1281:..\src/interruptions.c ****     if ((c_mem.input_mode == INPUT_MODE_EMG_PROPORTIONAL) ||
 3400              		.loc 1 1281 0
 3401 0214 1E4B     		ldr	r3, .L288+28
 3402 0216 93F83530 		ldrb	r3, [r3, #53]	@ zero_extendqisi2
 3403 021a 022B     		cmp	r3, #2
 3404 021c 0FD0     		beq	.L230
1282:..\src/interruptions.c ****         (c_mem.input_mode == INPUT_MODE_EMG_INTEGRAL) ||
 3405              		.loc 1 1282 0 discriminator 1
 3406 021e 1C4B     		ldr	r3, .L288+28
 3407 0220 93F83530 		ldrb	r3, [r3, #53]	@ zero_extendqisi2
1281:..\src/interruptions.c ****         (c_mem.input_mode == INPUT_MODE_EMG_INTEGRAL) ||
 3408              		.loc 1 1281 0 discriminator 1
 3409 0224 032B     		cmp	r3, #3
 3410 0226 0AD0     		beq	.L230
1283:..\src/interruptions.c ****         (c_mem.input_mode == INPUT_MODE_EMG_FCFS) ||
 3411              		.loc 1 1283 0
 3412 0228 194B     		ldr	r3, .L288+28
 3413 022a 93F83530 		ldrb	r3, [r3, #53]	@ zero_extendqisi2
1282:..\src/interruptions.c ****         (c_mem.input_mode == INPUT_MODE_EMG_INTEGRAL) ||
 3414              		.loc 1 1282 0
 3415 022e 042B     		cmp	r3, #4
 3416 0230 05D0     		beq	.L230
1284:..\src/interruptions.c ****         (c_mem.input_mode == INPUT_MODE_EMG_FCFS_ADV)) {
 3417              		.loc 1 1284 0
 3418 0232 174B     		ldr	r3, .L288+28
 3419 0234 93F83530 		ldrb	r3, [r3, #53]	@ zero_extendqisi2
1283:..\src/interruptions.c ****         (c_mem.input_mode == INPUT_MODE_EMG_FCFS) ||
 3420              		.loc 1 1283 0
 3421 0238 052B     		cmp	r3, #5
 3422 023a 40F05C82 		bne	.L278
 3423              	.L230:
1285:..\src/interruptions.c ****         
1286:..\src/interruptions.c ****         // if calibration is not needed go to "normal execution"
1287:..\src/interruptions.c ****         if (!c_mem.emg_calibration_flag){
 3424              		.loc 1 1287 0
 3425 023e 144B     		ldr	r3, .L288+28
 3426 0240 93F86E30 		ldrb	r3, [r3, #110]	@ zero_extendqisi2
 3427 0244 002B     		cmp	r3, #0
 3428 0246 05D1     		bne	.L232
1288:..\src/interruptions.c ****             emg_1_status = NORMAL; // normal execution
 3429              		.loc 1 1288 0
 3430 0248 1B4B     		ldr	r3, .L288+68
 3431 024a 0022     		movs	r2, #0
ARM GAS  C:\Users\MattiaCP\AppData\Local\Temp\ccCFTaFS.s 			page 85


 3432 024c 1A70     		strb	r2, [r3]
1289:..\src/interruptions.c ****             emg_2_status = NORMAL; // normal execution
 3433              		.loc 1 1289 0
 3434 024e 1B4B     		ldr	r3, .L288+72
 3435 0250 0022     		movs	r2, #0
 3436 0252 1A70     		strb	r2, [r3]
 3437              	.L232:
1290:..\src/interruptions.c ****         }
1291:..\src/interruptions.c **** 
1292:..\src/interruptions.c ****         // EMG 1 calibration state machine
1293:..\src/interruptions.c ****        
1294:..\src/interruptions.c ****         // Calibration state machine
1295:..\src/interruptions.c ****         switch(emg_1_status) {
 3438              		.loc 1 1295 0
 3439 0254 184B     		ldr	r3, .L288+68
 3440 0256 1B78     		ldrb	r3, [r3]	@ zero_extendqisi2
 3441 0258 032B     		cmp	r3, #3
 3442 025a 00F2EE80 		bhi	.L279
 3443 025e 01A2     		adr	r2, .L235
 3444 0260 52F823F0 		ldr	pc, [r2, r3, lsl #2]
 3445              		.p2align 2
 3446              	.L235:
 3447 0264 C1020000 		.word	.L234+1
 3448 0268 49030000 		.word	.L236+1
 3449 026c 5D030000 		.word	.L237+1
 3450 0270 99030000 		.word	.L238+1
 3451              		.p2align 1
 3452              	.L289:
 3453              		.align	2
 3454              	.L288:
 3455 0274 00000000 		.word	interrupt_flag
 3456 0278 00000000 		.word	ADC_buf
 3457 027c 00000000 		.word	dev_tension
 3458 0280 05000000 		.word	first_tension_valid.10153
 3459 0284 00000000 		.word	tension_valid
 3460 0288 EE000000 		.word	count.10154
 3461 028c 00000000 		.word	pow_tension
 3462 0290 00000000 		.word	c_mem
 3463 0294 00000000 		.word	g_ref
 3464 0298 00000000 		.word	g_meas
 3465 029c F0000000 		.word	v_count.10155
 3466 02a0 00000000 		.word	filt_v
 3467 02a4 00000000 		.word	dev_tension_f
 3468 02a8 00000000 		.word	g_mem
 3469 02ac 00000000 		.word	pwm_sign
 3470 02b0 00000000 		.word	filt_i
 3471 02b4 00000000 		.word	filt_curr_diff
 3472 02b8 00000000 		.word	emg_1_status
 3473 02bc 00000000 		.word	emg_2_status
 3474              	.L234:
1296:..\src/interruptions.c ****             case NORMAL: // normal execution
1297:..\src/interruptions.c ****                 i_aux = ((int32)(ADC_buf[2 + c_mem.switch_emg] - 1639) * 87) >> 5;  //map range to 
 3475              		.loc 1 1297 0
 3476 02c0 A74B     		ldr	r3, .L290
 3477 02c2 93F8A530 		ldrb	r3, [r3, #165]	@ zero_extendqisi2
 3478 02c6 0233     		adds	r3, r3, #2
 3479 02c8 A64A     		ldr	r2, .L290+4
ARM GAS  C:\Users\MattiaCP\AppData\Local\Temp\ccCFTaFS.s 			page 86


 3480 02ca 32F91330 		ldrsh	r3, [r2, r3, lsl #1]
 3481 02ce A3F26763 		subw	r3, r3, #1639
 3482 02d2 5722     		movs	r2, #87
 3483 02d4 02FB03F3 		mul	r3, r2, r3
 3484 02d8 5B11     		asrs	r3, r3, #5
 3485 02da 7B60     		str	r3, [r7, #4]
1298:..\src/interruptions.c ****                 //i_aux = (int32)(ADC_buf[2 + c_mem.switch_emg]);
1299:..\src/interruptions.c ****                 if (i_aux < 0) 
 3486              		.loc 1 1299 0
 3487 02dc 7B68     		ldr	r3, [r7, #4]
 3488 02de 002B     		cmp	r3, #0
 3489 02e0 01DA     		bge	.L239
1300:..\src/interruptions.c ****                     i_aux = 0;
 3490              		.loc 1 1300 0
 3491 02e2 0023     		movs	r3, #0
 3492 02e4 7B60     		str	r3, [r7, #4]
 3493              	.L239:
1301:..\src/interruptions.c ****                 i_aux = filter(i_aux, &filt_emg1);
 3494              		.loc 1 1301 0
 3495 02e6 A049     		ldr	r1, .L290+8
 3496 02e8 7868     		ldr	r0, [r7, #4]
 3497 02ea FFF7FEFF 		bl	filter
 3498 02ee 7860     		str	r0, [r7, #4]
1302:..\src/interruptions.c ****                 i_aux = (i_aux << 10) / g_mem.emg_max_value[0];
 3499              		.loc 1 1302 0
 3500 02f0 7B68     		ldr	r3, [r7, #4]
 3501 02f2 9B02     		lsls	r3, r3, #10
 3502 02f4 1A46     		mov	r2, r3
 3503 02f6 9D4B     		ldr	r3, .L290+12
 3504 02f8 1B6F     		ldr	r3, [r3, #112]
 3505 02fa B2FBF3F3 		udiv	r3, r2, r3
 3506 02fe 7B60     		str	r3, [r7, #4]
1303:..\src/interruptions.c ****     
1304:..\src/interruptions.c ****                 if (interrupt_flag){
 3507              		.loc 1 1304 0
 3508 0300 9B4B     		ldr	r3, .L290+16
 3509 0302 1B78     		ldrb	r3, [r3]	@ zero_extendqisi2
 3510 0304 002B     		cmp	r3, #0
 3511 0306 04D0     		beq	.L240
1305:..\src/interruptions.c ****                     interrupt_flag = FALSE;
 3512              		.loc 1 1305 0
 3513 0308 994B     		ldr	r3, .L290+16
 3514 030a 0022     		movs	r2, #0
 3515 030c 1A70     		strb	r2, [r3]
1306:..\src/interruptions.c ****                     interrupt_manager();
 3516              		.loc 1 1306 0
 3517 030e FFF7FEFF 		bl	interrupt_manager
 3518              	.L240:
1307:..\src/interruptions.c ****                 }
1308:..\src/interruptions.c ****                 //Saturation
1309:..\src/interruptions.c ****                 if (i_aux < 0)
 3519              		.loc 1 1309 0
 3520 0312 7B68     		ldr	r3, [r7, #4]
 3521 0314 002B     		cmp	r3, #0
 3522 0316 02DA     		bge	.L241
1310:..\src/interruptions.c ****                     i_aux = 0;
 3523              		.loc 1 1310 0
ARM GAS  C:\Users\MattiaCP\AppData\Local\Temp\ccCFTaFS.s 			page 87


 3524 0318 0023     		movs	r3, #0
 3525 031a 7B60     		str	r3, [r7, #4]
 3526 031c 06E0     		b	.L242
 3527              	.L241:
1311:..\src/interruptions.c ****                 else 
1312:..\src/interruptions.c ****                     if (i_aux > 1024) 
 3528              		.loc 1 1312 0
 3529 031e 7B68     		ldr	r3, [r7, #4]
 3530 0320 B3F5806F 		cmp	r3, #1024
 3531 0324 02DD     		ble	.L242
1313:..\src/interruptions.c ****                         i_aux = 1024;
 3532              		.loc 1 1313 0
 3533 0326 4FF48063 		mov	r3, #1024
 3534 032a 7B60     		str	r3, [r7, #4]
 3535              	.L242:
1314:..\src/interruptions.c ****                 
1315:..\src/interruptions.c ****                 g_meas.emg[0] = i_aux;
 3536              		.loc 1 1315 0
 3537 032c 914A     		ldr	r2, .L290+20
 3538 032e 7B68     		ldr	r3, [r7, #4]
 3539 0330 9361     		str	r3, [r2, #24]
1316:..\src/interruptions.c ****     
1317:..\src/interruptions.c ****                 if (interrupt_flag){
 3540              		.loc 1 1317 0
 3541 0332 8F4B     		ldr	r3, .L290+16
 3542 0334 1B78     		ldrb	r3, [r3]	@ zero_extendqisi2
 3543 0336 002B     		cmp	r3, #0
 3544 0338 00F08180 		beq	.L280
1318:..\src/interruptions.c ****                     interrupt_flag = FALSE;
 3545              		.loc 1 1318 0
 3546 033c 8C4B     		ldr	r3, .L290+16
 3547 033e 0022     		movs	r2, #0
 3548 0340 1A70     		strb	r2, [r3]
1319:..\src/interruptions.c ****                     interrupt_manager();
 3549              		.loc 1 1319 0
 3550 0342 FFF7FEFF 		bl	interrupt_manager
1320:..\src/interruptions.c ****                 }
1321:..\src/interruptions.c ****                 
1322:..\src/interruptions.c ****                 break;
 3551              		.loc 1 1322 0
 3552 0346 7AE0     		b	.L280
 3553              	.L236:
1323:..\src/interruptions.c **** 
1324:..\src/interruptions.c ****             case RESET: // reset variables
1325:..\src/interruptions.c ****                 emg_counter_1 = 0;
 3554              		.loc 1 1325 0
 3555 0348 8B4B     		ldr	r3, .L290+24
 3556 034a 0022     		movs	r2, #0
 3557 034c 1A80     		strh	r2, [r3]	@ movhi
1326:..\src/interruptions.c ****                 g_mem.emg_max_value[0] = 0;
 3558              		.loc 1 1326 0
 3559 034e 874B     		ldr	r3, .L290+12
 3560 0350 0022     		movs	r2, #0
 3561 0352 1A67     		str	r2, [r3, #112]
1327:..\src/interruptions.c ****                 emg_1_status = DISCARD; // goto next status  
 3562              		.loc 1 1327 0
 3563 0354 894B     		ldr	r3, .L290+28
ARM GAS  C:\Users\MattiaCP\AppData\Local\Temp\ccCFTaFS.s 			page 88


 3564 0356 0222     		movs	r2, #2
 3565 0358 1A70     		strb	r2, [r3]
1328:..\src/interruptions.c ****                 break;
 3566              		.loc 1 1328 0
 3567 035a 75E0     		b	.L244
 3568              	.L237:
1329:..\src/interruptions.c **** 
1330:..\src/interruptions.c ****             case DISCARD: // discard first EMG_SAMPLE_TO_DISCARD samples
1331:..\src/interruptions.c ****                 emg_counter_1++;
 3569              		.loc 1 1331 0
 3570 035c 864B     		ldr	r3, .L290+24
 3571 035e 1B88     		ldrh	r3, [r3]
 3572 0360 0133     		adds	r3, r3, #1
 3573 0362 9AB2     		uxth	r2, r3
 3574 0364 844B     		ldr	r3, .L290+24
 3575 0366 1A80     		strh	r2, [r3]	@ movhi
1332:..\src/interruptions.c ****                 if (emg_counter_1 == EMG_SAMPLE_TO_DISCARD) {
 3576              		.loc 1 1332 0
 3577 0368 834B     		ldr	r3, .L290+24
 3578 036a 1B88     		ldrh	r3, [r3]
 3579 036c B3F5FA7F 		cmp	r3, #500
 3580 0370 67D1     		bne	.L281
1333:..\src/interruptions.c ****                     emg_counter_1 = 0;          // reset counter
 3581              		.loc 1 1333 0
 3582 0372 814B     		ldr	r3, .L290+24
 3583 0374 0022     		movs	r2, #0
 3584 0376 1A80     		strh	r2, [r3]	@ movhi
1334:..\src/interruptions.c ****                     LED_control(1);
 3585              		.loc 1 1334 0
 3586 0378 0120     		movs	r0, #1
 3587 037a FFF7FEFF 		bl	LED_control
1335:..\src/interruptions.c **** 					
1336:..\src/interruptions.c ****                     if (interrupt_flag){
 3588              		.loc 1 1336 0
 3589 037e 7C4B     		ldr	r3, .L290+16
 3590 0380 1B78     		ldrb	r3, [r3]	@ zero_extendqisi2
 3591 0382 002B     		cmp	r3, #0
 3592 0384 04D0     		beq	.L246
1337:..\src/interruptions.c ****                         interrupt_flag = FALSE;
 3593              		.loc 1 1337 0
 3594 0386 7A4B     		ldr	r3, .L290+16
 3595 0388 0022     		movs	r2, #0
 3596 038a 1A70     		strb	r2, [r3]
1338:..\src/interruptions.c ****                         interrupt_manager();
 3597              		.loc 1 1338 0
 3598 038c FFF7FEFF 		bl	interrupt_manager
 3599              	.L246:
1339:..\src/interruptions.c ****                     }
1340:..\src/interruptions.c ****                     
1341:..\src/interruptions.c ****                     emg_1_status = SUM_AND_MEAN;    // sum and mean status
 3600              		.loc 1 1341 0
 3601 0390 7A4B     		ldr	r3, .L290+28
 3602 0392 0322     		movs	r2, #3
 3603 0394 1A70     		strb	r2, [r3]
1342:..\src/interruptions.c ****                 }
1343:..\src/interruptions.c ****                 break;
 3604              		.loc 1 1343 0
ARM GAS  C:\Users\MattiaCP\AppData\Local\Temp\ccCFTaFS.s 			page 89


 3605 0396 54E0     		b	.L281
 3606              	.L238:
1344:..\src/interruptions.c **** 
1345:..\src/interruptions.c ****             case SUM_AND_MEAN: // sum first SAMPLES_FOR_EMG_MEAN samples
1346:..\src/interruptions.c ****                 // NOTE max(value)*SAMPLES_FOR_EMG_MEAN must fit in 32bit
1347:..\src/interruptions.c ****                 emg_counter_1++;
 3607              		.loc 1 1347 0
 3608 0398 774B     		ldr	r3, .L290+24
 3609 039a 1B88     		ldrh	r3, [r3]
 3610 039c 0133     		adds	r3, r3, #1
 3611 039e 9AB2     		uxth	r2, r3
 3612 03a0 754B     		ldr	r3, .L290+24
 3613 03a2 1A80     		strh	r2, [r3]	@ movhi
1348:..\src/interruptions.c ****                 if (ADC_buf[2 + c_mem.switch_emg] < 0) 
 3614              		.loc 1 1348 0
 3615 03a4 6E4B     		ldr	r3, .L290
 3616 03a6 93F8A530 		ldrb	r3, [r3, #165]	@ zero_extendqisi2
 3617 03aa 0233     		adds	r3, r3, #2
 3618 03ac 6D4A     		ldr	r2, .L290+4
 3619 03ae 32F91330 		ldrsh	r3, [r2, r3, lsl #1]
 3620 03b2 002B     		cmp	r3, #0
 3621 03b4 07DA     		bge	.L247
1349:..\src/interruptions.c ****                     ADC_buf[2 + c_mem.switch_emg] = 0;
 3622              		.loc 1 1349 0
 3623 03b6 6A4B     		ldr	r3, .L290
 3624 03b8 93F8A530 		ldrb	r3, [r3, #165]	@ zero_extendqisi2
 3625 03bc 0233     		adds	r3, r3, #2
 3626 03be 694A     		ldr	r2, .L290+4
 3627 03c0 0021     		movs	r1, #0
 3628 03c2 22F81310 		strh	r1, [r2, r3, lsl #1]	@ movhi
 3629              	.L247:
1350:..\src/interruptions.c ****                 g_mem.emg_max_value[0] += filter((int32)ADC_buf[2 + c_mem.switch_emg], &filt_emg1);
 3630              		.loc 1 1350 0
 3631 03c6 664B     		ldr	r3, .L290
 3632 03c8 93F8A530 		ldrb	r3, [r3, #165]	@ zero_extendqisi2
 3633 03cc 0233     		adds	r3, r3, #2
 3634 03ce 654A     		ldr	r2, .L290+4
 3635 03d0 32F91330 		ldrsh	r3, [r2, r3, lsl #1]
 3636 03d4 6449     		ldr	r1, .L290+8
 3637 03d6 1846     		mov	r0, r3
 3638 03d8 FFF7FEFF 		bl	filter
 3639 03dc 0246     		mov	r2, r0
 3640 03de 634B     		ldr	r3, .L290+12
 3641 03e0 1B6F     		ldr	r3, [r3, #112]
 3642 03e2 1344     		add	r3, r3, r2
 3643 03e4 614A     		ldr	r2, .L290+12
 3644 03e6 1367     		str	r3, [r2, #112]
1351:..\src/interruptions.c ****                 
1352:..\src/interruptions.c ****                 if (interrupt_flag){
 3645              		.loc 1 1352 0
 3646 03e8 614B     		ldr	r3, .L290+16
 3647 03ea 1B78     		ldrb	r3, [r3]	@ zero_extendqisi2
 3648 03ec 002B     		cmp	r3, #0
 3649 03ee 04D0     		beq	.L248
1353:..\src/interruptions.c ****                     interrupt_flag = FALSE;
 3650              		.loc 1 1353 0
 3651 03f0 5F4B     		ldr	r3, .L290+16
ARM GAS  C:\Users\MattiaCP\AppData\Local\Temp\ccCFTaFS.s 			page 90


 3652 03f2 0022     		movs	r2, #0
 3653 03f4 1A70     		strb	r2, [r3]
1354:..\src/interruptions.c ****                     interrupt_manager();
 3654              		.loc 1 1354 0
 3655 03f6 FFF7FEFF 		bl	interrupt_manager
 3656              	.L248:
1355:..\src/interruptions.c ****                 }
1356:..\src/interruptions.c ****                 
1357:..\src/interruptions.c ****                 if (emg_counter_1 == SAMPLES_FOR_EMG_MEAN) {
 3657              		.loc 1 1357 0
 3658 03fa 5F4B     		ldr	r3, .L290+24
 3659 03fc 1B88     		ldrh	r3, [r3]
 3660 03fe B3F57A7F 		cmp	r3, #1000
 3661 0402 20D1     		bne	.L282
1358:..\src/interruptions.c ****                     g_mem.emg_max_value[0] = g_mem.emg_max_value[0] / SAMPLES_FOR_EMG_MEAN; // calc
 3662              		.loc 1 1358 0
 3663 0404 594B     		ldr	r3, .L290+12
 3664 0406 1B6F     		ldr	r3, [r3, #112]
 3665 0408 5D4A     		ldr	r2, .L290+32
 3666 040a A2FB0323 		umull	r2, r3, r2, r3
 3667 040e 9B09     		lsrs	r3, r3, #6
 3668 0410 564A     		ldr	r2, .L290+12
 3669 0412 1367     		str	r3, [r2, #112]
1359:..\src/interruptions.c ****     
1360:..\src/interruptions.c ****                     if (interrupt_flag){
 3670              		.loc 1 1360 0
 3671 0414 564B     		ldr	r3, .L290+16
 3672 0416 1B78     		ldrb	r3, [r3]	@ zero_extendqisi2
 3673 0418 002B     		cmp	r3, #0
 3674 041a 04D0     		beq	.L250
1361:..\src/interruptions.c ****                         interrupt_flag = FALSE;
 3675              		.loc 1 1361 0
 3676 041c 544B     		ldr	r3, .L290+16
 3677 041e 0022     		movs	r2, #0
 3678 0420 1A70     		strb	r2, [r3]
1362:..\src/interruptions.c ****                         interrupt_manager();
 3679              		.loc 1 1362 0
 3680 0422 FFF7FEFF 		bl	interrupt_manager
 3681              	.L250:
1363:..\src/interruptions.c ****                     }                    
1364:..\src/interruptions.c ****                     
1365:..\src/interruptions.c ****                     LED_control(0);
 3682              		.loc 1 1365 0
 3683 0426 0020     		movs	r0, #0
 3684 0428 FFF7FEFF 		bl	LED_control
1366:..\src/interruptions.c **** 					
1367:..\src/interruptions.c ****                     emg_counter_1 = 0;          // reset counter
 3685              		.loc 1 1367 0
 3686 042c 524B     		ldr	r3, .L290+24
 3687 042e 0022     		movs	r2, #0
 3688 0430 1A80     		strh	r2, [r3]	@ movhi
1368:..\src/interruptions.c **** 
1369:..\src/interruptions.c ****                     emg_1_status = NORMAL;      // goto normal execution
 3689              		.loc 1 1369 0
 3690 0432 524B     		ldr	r3, .L290+28
 3691 0434 0022     		movs	r2, #0
 3692 0436 1A70     		strb	r2, [r3]
ARM GAS  C:\Users\MattiaCP\AppData\Local\Temp\ccCFTaFS.s 			page 91


1370:..\src/interruptions.c ****                 }
1371:..\src/interruptions.c ****                 break;
 3693              		.loc 1 1371 0
 3694 0438 05E0     		b	.L282
 3695              	.L279:
1372:..\src/interruptions.c **** 
1373:..\src/interruptions.c ****             default:
1374:..\src/interruptions.c ****                 break;
 3696              		.loc 1 1374 0
 3697 043a 00BF     		nop
 3698 043c 04E0     		b	.L244
 3699              	.L280:
1322:..\src/interruptions.c **** 
 3700              		.loc 1 1322 0
 3701 043e 00BF     		nop
 3702 0440 02E0     		b	.L244
 3703              	.L281:
1343:..\src/interruptions.c **** 
 3704              		.loc 1 1343 0
 3705 0442 00BF     		nop
 3706 0444 00E0     		b	.L244
 3707              	.L282:
1371:..\src/interruptions.c **** 
 3708              		.loc 1 1371 0
 3709 0446 00BF     		nop
 3710              	.L244:
1375:..\src/interruptions.c ****         }
1376:..\src/interruptions.c ****     
1377:..\src/interruptions.c ****         if (interrupt_flag){
 3711              		.loc 1 1377 0
 3712 0448 494B     		ldr	r3, .L290+16
 3713 044a 1B78     		ldrb	r3, [r3]	@ zero_extendqisi2
 3714 044c 002B     		cmp	r3, #0
 3715 044e 04D0     		beq	.L251
1378:..\src/interruptions.c ****             interrupt_flag = FALSE;
 3716              		.loc 1 1378 0
 3717 0450 474B     		ldr	r3, .L290+16
 3718 0452 0022     		movs	r2, #0
 3719 0454 1A70     		strb	r2, [r3]
1379:..\src/interruptions.c ****             interrupt_manager();
 3720              		.loc 1 1379 0
 3721 0456 FFF7FEFF 		bl	interrupt_manager
 3722              	.L251:
1380:..\src/interruptions.c ****         }
1381:..\src/interruptions.c ****         // EMG 2 calibration state machine
1382:..\src/interruptions.c ****         switch(emg_2_status) {
 3723              		.loc 1 1382 0
 3724 045a 4A4B     		ldr	r3, .L290+36
 3725 045c 1B78     		ldrb	r3, [r3]	@ zero_extendqisi2
 3726 045e 052B     		cmp	r3, #5
 3727 0460 00F23781 		bhi	.L283
 3728 0464 01A2     		adr	r2, .L254
 3729 0466 52F823F0 		ldr	pc, [r2, r3, lsl #2]
 3730 046a 00BF     		.p2align 2
 3731              	.L254:
 3732 046c 85040000 		.word	.L253+1
 3733 0470 FB040000 		.word	.L255+1
ARM GAS  C:\Users\MattiaCP\AppData\Local\Temp\ccCFTaFS.s 			page 92


 3734 0474 21050000 		.word	.L256+1
 3735 0478 91050000 		.word	.L257+1
 3736 047c 39060000 		.word	.L258+1
 3737 0480 49060000 		.word	.L259+1
 3738              		.p2align 1
 3739              	.L253:
1383:..\src/interruptions.c ****             case NORMAL: // normal execution
1384:..\src/interruptions.c ****                 i_aux = ((int32)(ADC_buf[3 - c_mem.switch_emg] - 1640) * 87) >> 5;  //map range to 
 3740              		.loc 1 1384 0
 3741 0484 364B     		ldr	r3, .L290
 3742 0486 93F8A530 		ldrb	r3, [r3, #165]	@ zero_extendqisi2
 3743 048a C3F10303 		rsb	r3, r3, #3
 3744 048e 354A     		ldr	r2, .L290+4
 3745 0490 32F91330 		ldrsh	r3, [r2, r3, lsl #1]
 3746 0494 A3F5CD63 		sub	r3, r3, #1640
 3747 0498 5722     		movs	r2, #87
 3748 049a 02FB03F3 		mul	r3, r2, r3
 3749 049e 5B11     		asrs	r3, r3, #5
 3750 04a0 7B60     		str	r3, [r7, #4]
1385:..\src/interruptions.c ****                 //i_aux = (int32)(ADC_buf[3 - c_mem.switch_emg]);
1386:..\src/interruptions.c ****                     if (i_aux < 0)
 3751              		.loc 1 1386 0
 3752 04a2 7B68     		ldr	r3, [r7, #4]
 3753 04a4 002B     		cmp	r3, #0
 3754 04a6 01DA     		bge	.L260
1387:..\src/interruptions.c ****                         i_aux = 0;
 3755              		.loc 1 1387 0
 3756 04a8 0023     		movs	r3, #0
 3757 04aa 7B60     		str	r3, [r7, #4]
 3758              	.L260:
1388:..\src/interruptions.c ****                     i_aux = filter(i_aux, &filt_emg2);
 3759              		.loc 1 1388 0
 3760 04ac 3649     		ldr	r1, .L290+40
 3761 04ae 7868     		ldr	r0, [r7, #4]
 3762 04b0 FFF7FEFF 		bl	filter
 3763 04b4 7860     		str	r0, [r7, #4]
1389:..\src/interruptions.c ****                     i_aux = (i_aux << 10) / g_mem.emg_max_value[1];
 3764              		.loc 1 1389 0
 3765 04b6 7B68     		ldr	r3, [r7, #4]
 3766 04b8 9B02     		lsls	r3, r3, #10
 3767 04ba 1A46     		mov	r2, r3
 3768 04bc 2B4B     		ldr	r3, .L290+12
 3769 04be 5B6F     		ldr	r3, [r3, #116]
 3770 04c0 B2FBF3F3 		udiv	r3, r2, r3
 3771 04c4 7B60     		str	r3, [r7, #4]
1390:..\src/interruptions.c ****         
1391:..\src/interruptions.c ****                     if (interrupt_flag){
 3772              		.loc 1 1391 0
 3773 04c6 2A4B     		ldr	r3, .L290+16
 3774 04c8 1B78     		ldrb	r3, [r3]	@ zero_extendqisi2
 3775 04ca 002B     		cmp	r3, #0
 3776 04cc 04D0     		beq	.L261
1392:..\src/interruptions.c ****                         interrupt_flag = FALSE;
 3777              		.loc 1 1392 0
 3778 04ce 284B     		ldr	r3, .L290+16
 3779 04d0 0022     		movs	r2, #0
 3780 04d2 1A70     		strb	r2, [r3]
ARM GAS  C:\Users\MattiaCP\AppData\Local\Temp\ccCFTaFS.s 			page 93


1393:..\src/interruptions.c ****                         interrupt_manager();
 3781              		.loc 1 1393 0
 3782 04d4 FFF7FEFF 		bl	interrupt_manager
 3783              	.L261:
1394:..\src/interruptions.c ****                     }
1395:..\src/interruptions.c ****                     
1396:..\src/interruptions.c ****                     if (i_aux < 0) 
 3784              		.loc 1 1396 0
 3785 04d8 7B68     		ldr	r3, [r7, #4]
 3786 04da 002B     		cmp	r3, #0
 3787 04dc 02DA     		bge	.L262
1397:..\src/interruptions.c ****                         i_aux = 0;
 3788              		.loc 1 1397 0
 3789 04de 0023     		movs	r3, #0
 3790 04e0 7B60     		str	r3, [r7, #4]
 3791 04e2 06E0     		b	.L263
 3792              	.L262:
1398:..\src/interruptions.c ****                     else 
1399:..\src/interruptions.c ****                         if (i_aux > 1024)
 3793              		.loc 1 1399 0
 3794 04e4 7B68     		ldr	r3, [r7, #4]
 3795 04e6 B3F5806F 		cmp	r3, #1024
 3796 04ea 02DD     		ble	.L263
1400:..\src/interruptions.c ****                             i_aux = 1024;
 3797              		.loc 1 1400 0
 3798 04ec 4FF48063 		mov	r3, #1024
 3799 04f0 7B60     		str	r3, [r7, #4]
 3800              	.L263:
1401:..\src/interruptions.c ****                     
1402:..\src/interruptions.c ****                     g_meas.emg[1] = i_aux;
 3801              		.loc 1 1402 0
 3802 04f2 204A     		ldr	r2, .L290+20
 3803 04f4 7B68     		ldr	r3, [r7, #4]
 3804 04f6 D361     		str	r3, [r2, #28]
1403:..\src/interruptions.c **** 
1404:..\src/interruptions.c ****                 break;
 3805              		.loc 1 1404 0
 3806 04f8 F4E0     		b	.L264
 3807              	.L255:
1405:..\src/interruptions.c **** 
1406:..\src/interruptions.c ****             case RESET: // reset variables
1407:..\src/interruptions.c ****                 emg_counter_2 = 0;
 3808              		.loc 1 1407 0
 3809 04fa 244B     		ldr	r3, .L290+44
 3810 04fc 0022     		movs	r2, #0
 3811 04fe 1A80     		strh	r2, [r3]	@ movhi
1408:..\src/interruptions.c ****                 g_mem.emg_max_value[1] = 0;
 3812              		.loc 1 1408 0
 3813 0500 1A4B     		ldr	r3, .L290+12
 3814 0502 0022     		movs	r2, #0
 3815 0504 5A67     		str	r2, [r3, #116]
1409:..\src/interruptions.c ****     
1410:..\src/interruptions.c ****                 if (interrupt_flag){
 3816              		.loc 1 1410 0
 3817 0506 1A4B     		ldr	r3, .L290+16
 3818 0508 1B78     		ldrb	r3, [r3]	@ zero_extendqisi2
 3819 050a 002B     		cmp	r3, #0
ARM GAS  C:\Users\MattiaCP\AppData\Local\Temp\ccCFTaFS.s 			page 94


 3820 050c 04D0     		beq	.L265
1411:..\src/interruptions.c ****                     interrupt_flag = FALSE;
 3821              		.loc 1 1411 0
 3822 050e 184B     		ldr	r3, .L290+16
 3823 0510 0022     		movs	r2, #0
 3824 0512 1A70     		strb	r2, [r3]
1412:..\src/interruptions.c ****                     interrupt_manager();
 3825              		.loc 1 1412 0
 3826 0514 FFF7FEFF 		bl	interrupt_manager
 3827              	.L265:
1413:..\src/interruptions.c ****                 }
1414:..\src/interruptions.c ****                 
1415:..\src/interruptions.c ****                 emg_2_status = WAIT; // wait for EMG 1 calibration
 3828              		.loc 1 1415 0
 3829 0518 1A4B     		ldr	r3, .L290+36
 3830 051a 0422     		movs	r2, #4
 3831 051c 1A70     		strb	r2, [r3]
1416:..\src/interruptions.c ****                 break;
 3832              		.loc 1 1416 0
 3833 051e E1E0     		b	.L264
 3834              	.L256:
1417:..\src/interruptions.c **** 
1418:..\src/interruptions.c ****             case DISCARD: // discard first EMG_SAMPLE_TO_DISCARD samples
1419:..\src/interruptions.c ****                 emg_counter_2++;
 3835              		.loc 1 1419 0
 3836 0520 1A4B     		ldr	r3, .L290+44
 3837 0522 1B88     		ldrh	r3, [r3]
 3838 0524 0133     		adds	r3, r3, #1
 3839 0526 9AB2     		uxth	r2, r3
 3840 0528 184B     		ldr	r3, .L290+44
 3841 052a 1A80     		strh	r2, [r3]	@ movhi
1420:..\src/interruptions.c ****                 if (emg_counter_2 == EMG_SAMPLE_TO_DISCARD) {
 3842              		.loc 1 1420 0
 3843 052c 174B     		ldr	r3, .L290+44
