ARM GAS  C:\Users\MattiaCP\AppData\Local\Temp\cc70Li2y.s 			page 1


   1              		.syntax unified
   2              		.cpu cortex-m3
   3              		.fpu softvfp
   4              		.eabi_attribute 20, 1
   5              		.eabi_attribute 21, 1
   6              		.eabi_attribute 23, 3
   7              		.eabi_attribute 24, 1
   8              		.eabi_attribute 25, 1
   9              		.eabi_attribute 26, 1
  10              		.eabi_attribute 30, 6
  11              		.eabi_attribute 34, 1
  12              		.eabi_attribute 18, 4
  13              		.thumb
  14              		.syntax unified
  15              		.file	"main.c"
  16              		.text
  17              	.Ltext0:
  18              		.cfi_sections	.debug_frame
  19              		.section	.rodata
  20              		.align	2
  21              	.LC1:
  22 0000 6100     		.ascii	"a\000"
  23 0002 0000     		.align	2
  24              	.LC0:
  25 0004 46696C65 		.ascii	"File.txt\000"
  25      2E747874 
  25      00
  26              		.section	.text.main,"ax",%progbits
  27              		.align	2
  28              		.global	main
  29              		.thumb
  30              		.thumb_func
  31              		.type	main, %function
  32              	main:
  33              	.LFB64:
  34              		.file 1 "..\\src\\main.c"
   1:..\src/main.c **** // ----------------------------------------------------------------------------
   2:..\src/main.c **** // BSD 3-Clause License
   3:..\src/main.c **** 
   4:..\src/main.c **** // Copyright (c) 2016, qbrobotics
   5:..\src/main.c **** // Copyright (c) 2017-2019, Centro "E.Piaggio"
   6:..\src/main.c **** // All rights reserved.
   7:..\src/main.c **** 
   8:..\src/main.c **** // Redistribution and use in source and binary forms, with or without
   9:..\src/main.c **** // modification, are permitted provided that the following conditions are met:
  10:..\src/main.c **** 
  11:..\src/main.c **** // * Redistributions of source code must retain the above copyright notice, this
  12:..\src/main.c **** //   list of conditions and the following disclaimer.
  13:..\src/main.c **** 
  14:..\src/main.c **** // * Redistributions in binary form must reproduce the above copyright notice,
  15:..\src/main.c **** //   this list of conditions and the following disclaimer in the documentation
  16:..\src/main.c **** //   and/or other materials provided with the distribution.
  17:..\src/main.c **** 
  18:..\src/main.c **** // * Neither the name of the copyright holder nor the names of its
  19:..\src/main.c **** //   contributors may be used to endorse or promote products derived from
  20:..\src/main.c **** //   this software without specific prior written permission.
  21:..\src/main.c **** 
ARM GAS  C:\Users\MattiaCP\AppData\Local\Temp\cc70Li2y.s 			page 2


  22:..\src/main.c **** // THIS SOFTWARE IS PROVIDED BY THE COPYRIGHT HOLDERS AND CONTRIBUTORS "AS IS"
  23:..\src/main.c **** // AND ANY EXPRESS OR IMPLIED WARRANTIES, INCLUDING, BUT NOT LIMITED TO, THE
  24:..\src/main.c **** // IMPLIED WARRANTIES OF MERCHANTABILITY AND FITNESS FOR A PARTICULAR PURPOSE ARE
  25:..\src/main.c **** // DISCLAIMED. IN NO EVENT SHALL THE COPYRIGHT HOLDER OR CONTRIBUTORS BE LIABLE
  26:..\src/main.c **** // FOR ANY DIRECT, INDIRECT, INCIDENTAL, SPECIAL, EXEMPLARY, OR CONSEQUENTIAL
  27:..\src/main.c **** // DAMAGES (INCLUDING, BUT NOT LIMITED TO, PROCUREMENT OF SUBSTITUTE GOODS OR
  28:..\src/main.c **** // SERVICES; LOSS OF USE, DATA, OR PROFITS; OR BUSINESS INTERRUPTION) HOWEVER
  29:..\src/main.c **** // CAUSED AND ON ANY THEORY OF LIABILITY, WHETHER IN CONTRACT, STRICT LIABILITY,
  30:..\src/main.c **** // OR TORT (INCLUDING NEGLIGENCE OR OTHERWISE) ARISING IN ANY WAY OUT OF THE USE
  31:..\src/main.c **** // OF THIS SOFTWARE, EVEN IF ADVISED OF THE POSSIBILITY OF SUCH DAMAGE.
  32:..\src/main.c **** // POSSIBILITY OF SUCH DAMAGE.
  33:..\src/main.c **** // ----------------------------------------------------------------------------
  34:..\src/main.c **** 
  35:..\src/main.c **** /**
  36:..\src/main.c **** * \file         main.c
  37:..\src/main.c **** *
  38:..\src/main.c **** * \brief        Firmware main file.
  39:..\src/main.c **** * \date         October 01, 2017
  40:..\src/main.c **** * \author       _Centro "E.Piaggio"_
  41:..\src/main.c **** * \copyright    (C) 2012-2016 qbrobotics. All rights reserved.
  42:..\src/main.c **** * \copyright    (C) 2017-2019 Centro "E.Piaggio". All rights reserved.
  43:..\src/main.c **** * \mainpage     Firmware
  44:..\src/main.c **** * \brief        This is the firmware of the SoftHand Pro board.
  45:..\src/main.c **** * \version      1.0
  46:..\src/main.c **** *
  47:..\src/main.c **** * \details      This is the firmware of the SoftHand Pro board. It can control a motor and
  48:..\src/main.c **** *               read its encoder. Also can read and convert analog measurements
  49:..\src/main.c **** *               connected to the PSoC microcontroller.                
  50:..\src/main.c **** *
  51:..\src/main.c **** */
  52:..\src/main.c **** 
  53:..\src/main.c **** 
  54:..\src/main.c **** // ----------------------------------------------------------------------------
  55:..\src/main.c **** // This version changes:
  56:..\src/main.c **** //      - not reported
  57:..\src/main.c **** 
  58:..\src/main.c **** 
  59:..\src/main.c **** //=================================================================     includes
  60:..\src/main.c **** 
  61:..\src/main.c **** #include "device.h"
  62:..\src/main.c **** #include "globals.h"
  63:..\src/main.c **** #include "interruptions.h"
  64:..\src/main.c **** #include "command_processing.h"
  65:..\src/main.c **** #include "SPI_functions.h"
  66:..\src/main.c **** #include "utils.h"
  67:..\src/main.c **** #include "project.h"
  68:..\src/main.c **** #include "FS.h"
  69:..\src/main.c **** 
  70:..\src/main.c **** //==============================================================================
  71:..\src/main.c **** //                                                                 MAIN FUNCTION
  72:..\src/main.c **** //==============================================================================
  73:..\src/main.c **** 
  74:..\src/main.c **** int main()
  75:..\src/main.c **** {
  35              		.loc 1 75 0
  36              		.cfi_startproc
  37              		@ args = 0, pretend = 0, frame = 2520
ARM GAS  C:\Users\MattiaCP\AppData\Local\Temp\cc70Li2y.s 			page 3


  38              		@ frame_needed = 1, uses_anonymous_args = 0
  39 0000 90B5     		push	{r4, r7, lr}
  40              		.cfi_def_cfa_offset 12
  41              		.cfi_offset 4, -12
  42              		.cfi_offset 7, -8
  43              		.cfi_offset 14, -4
  44 0002 ADF6DC1D 		subw	sp, sp, #2524
  45              		.cfi_def_cfa_offset 2536
  46 0006 00AF     		add	r7, sp, #0
  47              		.cfi_def_cfa_register 7
  76:..\src/main.c ****     // Iterator
  77:..\src/main.c **** 
  78:..\src/main.c **** 
  79:..\src/main.c ****     uint8 i;
  80:..\src/main.c ****     
  81:..\src/main.c ****     // Variable declarations for DMA 
  82:..\src/main.c **** 
  83:..\src/main.c ****     
  84:..\src/main.c ****     uint8 DMA_Chan;
  85:..\src/main.c ****     uint8 DMA_TD[1];
  86:..\src/main.c ****     uint8 DMA_Enc_Chan;
  87:..\src/main.c ****     uint8 DMA_Enc_TD[1];
  88:..\src/main.c **** 
  89:..\src/main.c ****     uint8 rtc_data;
  90:..\src/main.c ****     char sdFile[9] = "File.txt";
  48              		.loc 1 90 0
  49 0008 934A     		ldr	r2, .L20
  50 000a 07F6C413 		addw	r3, r7, #2500
  51 000e 07CA     		ldmia	r2, {r0, r1, r2}
  52 0010 03C3     		stmia	r3!, {r0, r1}
  53 0012 1A70     		strb	r2, [r3]
  91:..\src/main.c ****     char info_[2500] = "";
  54              		.loc 1 91 0
  55 0014 3B46     		mov	r3, r7
  56 0016 0022     		movs	r2, #0
  57 0018 1A60     		str	r2, [r3]
  58 001a 0433     		adds	r3, r3, #4
  59 001c 4FF41C62 		mov	r2, #2496
  60 0020 0021     		movs	r1, #0
  61 0022 1846     		mov	r0, r3
  62 0024 FFF7FEFF 		bl	memset
  92:..\src/main.c ****     //================================     initializations - psoc and components
  93:..\src/main.c **** 
  94:..\src/main.c ****     // EEPROM
  95:..\src/main.c **** 
  96:..\src/main.c ****     EEPROM_Start();
  63              		.loc 1 96 0
  64 0028 FFF7FEFF 		bl	EEPROM_Start
  97:..\src/main.c ****     memRecall();                                        // Recall configuration.
  65              		.loc 1 97 0
  66 002c FFF7FEFF 		bl	memRecall
  98:..\src/main.c **** 
  99:..\src/main.c ****     // FTDI chip enable
 100:..\src/main.c **** 
 101:..\src/main.c ****     CyDelay(100);
  67              		.loc 1 101 0
  68 0030 6420     		movs	r0, #100
ARM GAS  C:\Users\MattiaCP\AppData\Local\Temp\cc70Li2y.s 			page 4


  69 0032 FFF7FEFF 		bl	CyDelay
 102:..\src/main.c ****     FTDI_ENABLE_REG_Write(0x01);
  70              		.loc 1 102 0
  71 0036 0120     		movs	r0, #1
  72 0038 FFF7FEFF 		bl	FTDI_ENABLE_REG_Write
 103:..\src/main.c ****     
 104:..\src/main.c **** 	// LED Enable
 105:..\src/main.c ****     
 106:..\src/main.c ****     LED_CTRL_Write(2);
  73              		.loc 1 106 0
  74 003c 0220     		movs	r0, #2
  75 003e FFF7FEFF 		bl	LED_CTRL_Write
 107:..\src/main.c ****     BLINK_CTRL_EN_Write(0);
  76              		.loc 1 107 0
  77 0042 0020     		movs	r0, #0
  78 0044 FFF7FEFF 		bl	BLINK_CTRL_EN_Write
 108:..\src/main.c ****     BLINK_05HZ_Start();
  79              		.loc 1 108 0
  80 0048 FFF7FEFF 		bl	BLINK_05HZ_Start
 109:..\src/main.c ****     BLINK_25HZ_Start();
  81              		.loc 1 109 0
  82 004c FFF7FEFF 		bl	BLINK_25HZ_Start
 110:..\src/main.c ****     BLINK_05HZ_WriteCompare(499);
  83              		.loc 1 110 0
  84 0050 40F2F310 		movw	r0, #499
  85 0054 FFF7FEFF 		bl	BLINK_05HZ_WriteCompare
 111:..\src/main.c ****     BLINK_25HZ_WriteCompare(99);
  86              		.loc 1 111 0
  87 0058 6320     		movs	r0, #99
  88 005a FFF7FEFF 		bl	BLINK_25HZ_WriteCompare
 112:..\src/main.c ****     
 113:..\src/main.c ****     // RS485
 114:..\src/main.c **** 
 115:..\src/main.c ****     UART_RS485_Stop();
  89              		.loc 1 115 0
  90 005e FFF7FEFF 		bl	UART_RS485_Stop
 116:..\src/main.c ****     UART_RS485_Start();
  91              		.loc 1 116 0
  92 0062 FFF7FEFF 		bl	UART_RS485_Start
 117:..\src/main.c ****     UART_RS485_Init();
  93              		.loc 1 117 0
  94 0066 FFF7FEFF 		bl	UART_RS485_Init
 118:..\src/main.c ****     UART_RS485_ClearRxBuffer();
  95              		.loc 1 118 0
  96 006a FFF7FEFF 		bl	UART_RS485_ClearRxBuffer
 119:..\src/main.c ****     UART_RS485_ClearTxBuffer();
  97              		.loc 1 119 0
  98 006e FFF7FEFF 		bl	UART_RS485_ClearTxBuffer
 120:..\src/main.c ****     ISR_RS485_RX_StartEx(ISR_RS485_RX_ExInterrupt);
  99              		.loc 1 120 0
 100 0072 7A48     		ldr	r0, .L20+4
 101 0074 FFF7FEFF 		bl	ISR_RS485_RX_StartEx
 121:..\src/main.c ****     
 122:..\src/main.c ****     // CYCLES TIMER
 123:..\src/main.c ****     
 124:..\src/main.c ****     CYCLES_TIMER_Start();
 102              		.loc 1 124 0
ARM GAS  C:\Users\MattiaCP\AppData\Local\Temp\cc70Li2y.s 			page 5


 103 0078 FFF7FEFF 		bl	CYCLES_TIMER_Start
 125:..\src/main.c ****     ISR_CYCLES_StartEx(ISR_CYCLES_Handler);
 104              		.loc 1 125 0
 105 007c 7848     		ldr	r0, .L20+8
 106 007e FFF7FEFF 		bl	ISR_CYCLES_StartEx
 126:..\src/main.c ****     
 127:..\src/main.c ****     // PWM
 128:..\src/main.c **** 
 129:..\src/main.c ****     PWM_MOTORS_Start();
 107              		.loc 1 129 0
 108 0082 FFF7FEFF 		bl	PWM_MOTORS_Start
 130:..\src/main.c ****     PWM_MOTORS_WriteCompare(0);
 109              		.loc 1 130 0
 110 0086 0020     		movs	r0, #0
 111 0088 FFF7FEFF 		bl	PWM_MOTORS_WriteCompare
 131:..\src/main.c ****     MOTOR_DIR_Write(0);
 112              		.loc 1 131 0
 113 008c 0020     		movs	r0, #0
 114 008e FFF7FEFF 		bl	MOTOR_DIR_Write
 132:..\src/main.c ****     MOTOR_ON_OFF_Write(0x00);
 115              		.loc 1 132 0
 116 0092 0020     		movs	r0, #0
 117 0094 FFF7FEFF 		bl	MOTOR_ON_OFF_Write
 133:..\src/main.c ****     
 134:..\src/main.c ****     // SSI encoder initializations
 135:..\src/main.c **** 
 136:..\src/main.c ****     COUNTER_ENC_Start();
 118              		.loc 1 136 0
 119 0098 FFF7FEFF 		bl	COUNTER_ENC_Start
 137:..\src/main.c **** //    COUNTER_ENC_WritePeriod( 19/*(N_BITS_ENCODER+1)*1*/ + 1 );  //2 enc -> 39, 3 enc -> 58
 138:..\src/main.c ****     SHIFTREG_ENC_1_Start();
 120              		.loc 1 138 0
 121 009c FFF7FEFF 		bl	SHIFTREG_ENC_1_Start
 139:..\src/main.c ****     SHIFTREG_ENC_2_Start();
 122              		.loc 1 139 0
 123 00a0 FFF7FEFF 		bl	SHIFTREG_ENC_2_Start
 140:..\src/main.c ****     SHIFTREG_ENC_3_Start();
 124              		.loc 1 140 0
 125 00a4 FFF7FEFF 		bl	SHIFTREG_ENC_3_Start
 141:..\src/main.c ****     
 142:..\src/main.c ****     // Encoder DMA (only 16 bit data transfer are allowed between DMA and a SHIFT REGISTER (UDB))
 143:..\src/main.c **** /*    DMA_Enc_Chan = DMA_1_DmaInitialize(2, DMA_REQUEST_PER_BURST, HI16(DMA_SRC_BASE), HI16(DMA_DST
 144:..\src/main.c ****     DMA_Enc_TD[0] = CyDmaTdAllocate();                                                             
 145:..\src/main.c ****     CyDmaTdSetConfiguration(DMA_Enc_TD[0], 2*1, DMA_Enc_TD[0], TD_INC_DST_ADR); // DMA Configuratio
 146:..\src/main.c ****     CyDmaTdSetAddress(DMA_Enc_TD[0], LO16((uint32)SHIFTREG_ENC_1_bSR_sC16_BShiftRegDp_u0__A0_A1_REG
 147:..\src/main.c ****     CyDmaChSetInitialTd(DMA_Enc_Chan, DMA_Enc_TD[0]); 
 148:..\src/main.c ****     CyDmaChEnable(DMA_Enc_Chan, 1); 
 149:..\src/main.c ****     
 150:..\src/main.c ****     DMA_Enc_Check_Chan = DMA_2_DmaInitialize(1, DMA_REQUEST_PER_BURST, HI16(DMA_SRC_BASE), HI16(DMA
 151:..\src/main.c ****     DMA_Enc_TD[0] = CyDmaTdAllocate();                                                             
 152:..\src/main.c ****     CyDmaTdSetConfiguration(DMA_Enc_TD[0], 1*1, DMA_Enc_TD[0], TD_INC_DST_ADR); // DMA Configuratio
 153:..\src/main.c ****     CyDmaTdSetAddress(DMA_Enc_TD[0], LO16((uint32)SHIFTREG_ENC_2_bSR_sC8_BShiftRegDp_u0__A0_REG), L
 154:..\src/main.c ****     CyDmaChSetInitialTd(DMA_Enc_Check_Chan, DMA_Enc_TD[0]); 
 155:..\src/main.c ****     CyDmaChEnable(DMA_Enc_Check_Chan, 1); 
 156:..\src/main.c **** */    
 157:..\src/main.c **** //SHIFTREG_ENC_1_bSR_sC32_BShiftRegDp_u0__A0_A1_REG    
 158:..\src/main.c ****     // ADC
ARM GAS  C:\Users\MattiaCP\AppData\Local\Temp\cc70Li2y.s 			page 6


 159:..\src/main.c **** 
 160:..\src/main.c ****     ADC_Start();
 126              		.loc 1 160 0
 127 00a8 FFF7FEFF 		bl	ADC_Start
 161:..\src/main.c ****     ADC_SOC_Write(0x01);            // Force first read cycle.
 128              		.loc 1 161 0
 129 00ac 0120     		movs	r0, #1
 130 00ae FFF7FEFF 		bl	ADC_SOC_Write
 162:..\src/main.c ****    
 163:..\src/main.c ****     // DMA
 164:..\src/main.c ****     
 165:..\src/main.c ****     DMA_Chan = DMA_DmaInitialize(DMA_BYTES_PER_BURST, DMA_REQUEST_PER_BURST, HI16(DMA_SRC_BASE), HI
 131              		.loc 1 165 0
 132 00b2 41F6FF73 		movw	r3, #8191
 133 00b6 4FF48042 		mov	r2, #16384
 134 00ba 0121     		movs	r1, #1
 135 00bc 0220     		movs	r0, #2
 136 00be FFF7FEFF 		bl	DMA_DmaInitialize
 137 00c2 0346     		mov	r3, r0
 138 00c4 87F8D639 		strb	r3, [r7, #2518]
 166:..\src/main.c ****     DMA_TD[0] = CyDmaTdAllocate();                                                                 
 139              		.loc 1 166 0
 140 00c8 FFF7FEFF 		bl	CyDmaTdAllocate
 141 00cc 0346     		mov	r3, r0
 142 00ce 87F8D439 		strb	r3, [r7, #2516]
 167:..\src/main.c **** // NO DMA SWAP ANYMORE WITH PSOC5    
 168:..\src/main.c ****     CyDmaTdSetConfiguration(DMA_TD[0], 2 * NUM_OF_ANALOG_INPUTS, DMA_TD[0], DMA__TD_TERMOUT_EN | TD
 143              		.loc 1 168 0
 144 00d2 97F8D409 		ldrb	r0, [r7, #2516]	@ zero_extendqisi2
 145 00d6 97F8D429 		ldrb	r2, [r7, #2516]	@ zero_extendqisi2
 146 00da 0623     		movs	r3, #6
 147 00dc 0821     		movs	r1, #8
 148 00de FFF7FEFF 		bl	CyDmaTdSetConfiguration
 169:..\src/main.c ****     CyDmaTdSetAddress(DMA_TD[0], LO16((uint32)ADC_DEC_SAMP_PTR), LO16((uint32)ADC_buf));           
 149              		.loc 1 169 0
 150 00e2 97F8D439 		ldrb	r3, [r7, #2516]	@ zero_extendqisi2
 151 00e6 5F4A     		ldr	r2, .L20+12
 152 00e8 92B2     		uxth	r2, r2
 153 00ea 44F61061 		movw	r1, #19984
 154 00ee 1846     		mov	r0, r3
 155 00f0 FFF7FEFF 		bl	CyDmaTdSetAddress
 170:..\src/main.c ****     CyDmaChSetInitialTd(DMA_Chan, DMA_TD[0]);                                                      
 156              		.loc 1 170 0
 157 00f4 97F8D429 		ldrb	r2, [r7, #2516]	@ zero_extendqisi2
 158 00f8 97F8D639 		ldrb	r3, [r7, #2518]	@ zero_extendqisi2
 159 00fc 1146     		mov	r1, r2
 160 00fe 1846     		mov	r0, r3
 161 0100 FFF7FEFF 		bl	CyDmaChSetInitialTd
 171:..\src/main.c ****     CyDmaChEnable(DMA_Chan, 1);                                                                    
 162              		.loc 1 171 0
 163 0104 97F8D639 		ldrb	r3, [r7, #2518]	@ zero_extendqisi2
 164 0108 0121     		movs	r1, #1
 165 010a 1846     		mov	r0, r3
 166 010c FFF7FEFF 		bl	CyDmaChEnable
 172:..\src/main.c **** 
 173:..\src/main.c ****     RS485_CTS_Write(0);             // Clear To Send on RS485.
 167              		.loc 1 173 0
ARM GAS  C:\Users\MattiaCP\AppData\Local\Temp\cc70Li2y.s 			page 7


 168 0110 0020     		movs	r0, #0
 169 0112 FFF7FEFF 		bl	RS485_CTS_Write
 174:..\src/main.c **** 
 175:..\src/main.c ****     // TIMER
 176:..\src/main.c **** 
 177:..\src/main.c ****     MY_TIMER_Start();           
 170              		.loc 1 177 0
 171 0116 FFF7FEFF 		bl	MY_TIMER_Start
 178:..\src/main.c ****     PACER_TIMER_Start();    
 172              		.loc 1 178 0
 173 011a FFF7FEFF 		bl	PACER_TIMER_Start
 179:..\src/main.c ****     
 180:..\src/main.c ****     CYGlobalIntEnable;              // Enable interrupts.
 174              		.loc 1 180 0
 175              		.syntax unified
 176              	@ 180 "..\src\main.c" 1
 177 011e 62B6     		CPSIE   i
 178              	@ 0 "" 2
 181:..\src/main.c **** 
 182:..\src/main.c ****     // SSI ENCODERS
 183:..\src/main.c ****     RESET_COUNTERS_Write(0x00);     // Activate encoder counters. Must be made before initializing 
 179              		.loc 1 183 0
 180              		.thumb
 181              		.syntax unified
 182 0120 0020     		movs	r0, #0
 183 0122 FFF7FEFF 		bl	RESET_COUNTERS_Write
 184:..\src/main.c ****     CyDelay(10);                    // Wait for encoders to have a valid value.
 184              		.loc 1 184 0
 185 0126 0A20     		movs	r0, #10
 186 0128 FFF7FEFF 		bl	CyDelay
 185:..\src/main.c **** 
 186:..\src/main.c ****     //========================================     initializations - clean variables
 187:..\src/main.c **** 
 188:..\src/main.c ****     if (c_mem.read_imu_flag) {
 187              		.loc 1 188 0
 188 012c 4E4B     		ldr	r3, .L20+16
 189 012e 93F8A730 		ldrb	r3, [r3, #167]	@ zero_extendqisi2
 190 0132 002B     		cmp	r3, #0
 191 0134 10D0     		beq	.L2
 189:..\src/main.c ****         //SPI module
 190:..\src/main.c ****     	SPI_IMU_Start();
 192              		.loc 1 190 0
 193 0136 FFF7FEFF 		bl	SPI_IMU_Start
 191:..\src/main.c ****     	SPI_IMU_Init();
 194              		.loc 1 191 0
 195 013a FFF7FEFF 		bl	SPI_IMU_Init
 192:..\src/main.c ****     	SPI_IMU_Enable();
 196              		.loc 1 192 0
 197 013e FFF7FEFF 		bl	SPI_IMU_Enable
 193:..\src/main.c ****     	SPI_IMU_ClearRxBuffer();
 198              		.loc 1 193 0
 199 0142 FFF7FEFF 		bl	SPI_IMU_ClearRxBuffer
 194:..\src/main.c ****     	SPI_IMU_ClearTxBuffer();
 200              		.loc 1 194 0
 201 0146 FFF7FEFF 		bl	SPI_IMU_ClearTxBuffer
 195:..\src/main.c ****     	SPI_IMU_ClearFIFO();							
 202              		.loc 1 195 0
ARM GAS  C:\Users\MattiaCP\AppData\Local\Temp\cc70Li2y.s 			page 8


 203 014a FFF7FEFF 		bl	SPI_IMU_ClearFIFO
 196:..\src/main.c ****         CyDelay(10);
 204              		.loc 1 196 0
 205 014e 0A20     		movs	r0, #10
 206 0150 FFF7FEFF 		bl	CyDelay
 197:..\src/main.c ****         
 198:..\src/main.c ****         // Init MPU9250 devices
 199:..\src/main.c ****         InitIMUgeneral();
 207              		.loc 1 199 0
 208 0154 FFF7FEFF 		bl	InitIMUgeneral
 209              	.L2:
 200:..\src/main.c ****     }
 201:..\src/main.c ****     //---------------------------------------------------  Initialize filters structure 
 202:..\src/main.c ****     
 203:..\src/main.c ****     filt_i.gain = 32;           // Current filter constant.
 210              		.loc 1 203 0
 211 0158 444B     		ldr	r3, .L20+20
 212 015a 2022     		movs	r2, #32
 213 015c 5A60     		str	r2, [r3, #4]
 204:..\src/main.c ****     for(i=0;i<3;i++) {
 214              		.loc 1 204 0
 215 015e 0023     		movs	r3, #0
 216 0160 87F8D739 		strb	r3, [r7, #2519]
 217 0164 0BE0     		b	.L3
 218              	.L4:
 205:..\src/main.c ****         filt_vel[i].gain = 128; // Velocity filters constant.
 219              		.loc 1 205 0 discriminator 3
 220 0166 97F8D739 		ldrb	r3, [r7, #2519]	@ zero_extendqisi2
 221 016a 414A     		ldr	r2, .L20+24
 222 016c DB00     		lsls	r3, r3, #3
 223 016e 1344     		add	r3, r3, r2
 224 0170 8022     		movs	r2, #128
 225 0172 5A60     		str	r2, [r3, #4]
 204:..\src/main.c ****     for(i=0;i<3;i++) {
 226              		.loc 1 204 0 discriminator 3
 227 0174 97F8D739 		ldrb	r3, [r7, #2519]	@ zero_extendqisi2
 228 0178 0133     		adds	r3, r3, #1
 229 017a 87F8D739 		strb	r3, [r7, #2519]
 230              	.L3:
 204:..\src/main.c ****     for(i=0;i<3;i++) {
 231              		.loc 1 204 0 is_stmt 0 discriminator 1
 232 017e 97F8D739 		ldrb	r3, [r7, #2519]	@ zero_extendqisi2
 233 0182 022B     		cmp	r3, #2
 234 0184 EFD9     		bls	.L4
 206:..\src/main.c ****     }
 207:..\src/main.c ****     filt_curr_diff.gain = 16;   // Current residual filter constant.
 235              		.loc 1 207 0 is_stmt 1
 236 0186 3B4B     		ldr	r3, .L20+28
 237 0188 1022     		movs	r2, #16
 238 018a 5A60     		str	r2, [r3, #4]
 208:..\src/main.c ****     
 209:..\src/main.c ****     filt_v.old_value    = 12000;// Initial voltage filter value.
 239              		.loc 1 209 0
 240 018c 3A4B     		ldr	r3, .L20+32
 241 018e 42F6E062 		movw	r2, #12000
 242 0192 1A60     		str	r2, [r3]
 210:..\src/main.c ****     filt_v.gain         = 2;    // Voltage filter constant.
ARM GAS  C:\Users\MattiaCP\AppData\Local\Temp\cc70Li2y.s 			page 9


 243              		.loc 1 210 0
 244 0194 384B     		ldr	r3, .L20+32
 245 0196 0222     		movs	r2, #2
 246 0198 5A60     		str	r2, [r3, #4]
 211:..\src/main.c ****     
 212:..\src/main.c ****     filt_emg1.gain      = 50;   // Emg channel 1 filter constant.
 247              		.loc 1 212 0
 248 019a 384B     		ldr	r3, .L20+36
 249 019c 3222     		movs	r2, #50
 250 019e 5A60     		str	r2, [r3, #4]
 213:..\src/main.c ****     filt_emg2.gain      = 50;   // Emg channel 2 filter constant.
 251              		.loc 1 213 0
 252 01a0 374B     		ldr	r3, .L20+40
 253 01a2 3222     		movs	r2, #50
 254 01a4 5A60     		str	r2, [r3, #4]
 214:..\src/main.c ****     
 215:..\src/main.c ****     //---------------------------------------------------  Initialize reference structure 
 216:..\src/main.c ****     g_ref.pos = 0;
 255              		.loc 1 216 0
 256 01a6 374B     		ldr	r3, .L20+44
 257 01a8 0022     		movs	r2, #0
 258 01aa 1A60     		str	r2, [r3]
 217:..\src/main.c **** 
 218:..\src/main.c ****     //---------------------------------------------------  Initialize measurement structure
 219:..\src/main.c ****     for (i = NUM_OF_SENSORS; i--;) { 
 259              		.loc 1 219 0
 260 01ac 0323     		movs	r3, #3
 261 01ae 87F8D739 		strb	r3, [r7, #2519]
 262 01b2 0BE0     		b	.L5
 263              	.L6:
 220:..\src/main.c ****         g_meas.pos[i] = 0;
 264              		.loc 1 220 0
 265 01b4 97F8D739 		ldrb	r3, [r7, #2519]	@ zero_extendqisi2
 266 01b8 334A     		ldr	r2, .L20+48
 267 01ba 0021     		movs	r1, #0
 268 01bc 42F82310 		str	r1, [r2, r3, lsl #2]
 221:..\src/main.c ****         g_meas.rot[i] = 0;
 269              		.loc 1 221 0
 270 01c0 97F8D739 		ldrb	r3, [r7, #2519]	@ zero_extendqisi2
 271 01c4 304A     		ldr	r2, .L20+48
 272 01c6 1344     		add	r3, r3, r2
 273 01c8 0022     		movs	r2, #0
 274 01ca 1A75     		strb	r2, [r3, #20]
 275              	.L5:
 219:..\src/main.c ****         g_meas.pos[i] = 0;
 276              		.loc 1 219 0 discriminator 1
 277 01cc 97F8D739 		ldrb	r3, [r7, #2519]	@ zero_extendqisi2
 278 01d0 5A1E     		subs	r2, r3, #1
 279 01d2 87F8D729 		strb	r2, [r7, #2519]
 280 01d6 002B     		cmp	r3, #0
 281 01d8 ECD1     		bne	.L6
 222:..\src/main.c ****     }
 223:..\src/main.c **** 
 224:..\src/main.c ****     g_refNew = g_ref;                                   // Initialize k+1 measurements structure.
 282              		.loc 1 224 0
 283 01da 2C4A     		ldr	r2, .L20+52
 284 01dc 294B     		ldr	r3, .L20+44
ARM GAS  C:\Users\MattiaCP\AppData\Local\Temp\cc70Li2y.s 			page 10


 285 01de 1446     		mov	r4, r2
 286 01e0 0FCB     		ldmia	r3, {r0, r1, r2, r3}
 287 01e2 84E80F00 		stmia	r4, {r0, r1, r2, r3}
 225:..\src/main.c ****     
 226:..\src/main.c ****     //---------------------------------------------------  Initialize emg structure
 227:..\src/main.c ****     g_meas.emg[0] = 0;
 288              		.loc 1 227 0
 289 01e6 284B     		ldr	r3, .L20+48
 290 01e8 0022     		movs	r2, #0
 291 01ea 9A61     		str	r2, [r3, #24]
 228:..\src/main.c ****     g_meas.emg[1] = 0;
 292              		.loc 1 228 0
 293 01ec 264B     		ldr	r3, .L20+48
 294 01ee 0022     		movs	r2, #0
 295 01f0 DA61     		str	r2, [r3, #28]
 229:..\src/main.c ****     
 230:..\src/main.c ****     if (c_mem.emg_calibration_flag) {
 296              		.loc 1 230 0
 297 01f2 1D4B     		ldr	r3, .L20+16
 298 01f4 93F86E30 		ldrb	r3, [r3, #110]	@ zero_extendqisi2
 299 01f8 002B     		cmp	r3, #0
 300 01fa 1DD0     		beq	.L7
 231:..\src/main.c ****         if ((c_mem.input_mode == INPUT_MODE_EMG_PROPORTIONAL) ||
 301              		.loc 1 231 0
 302 01fc 1A4B     		ldr	r3, .L20+16
 303 01fe 93F83530 		ldrb	r3, [r3, #53]	@ zero_extendqisi2
 304 0202 022B     		cmp	r3, #2
 305 0204 0ED0     		beq	.L8
 232:..\src/main.c ****             (c_mem.input_mode == INPUT_MODE_EMG_INTEGRAL) ||
 306              		.loc 1 232 0 discriminator 1
 307 0206 184B     		ldr	r3, .L20+16
 308 0208 93F83530 		ldrb	r3, [r3, #53]	@ zero_extendqisi2
 231:..\src/main.c ****         if ((c_mem.input_mode == INPUT_MODE_EMG_PROPORTIONAL) ||
 309              		.loc 1 231 0 discriminator 1
 310 020c 032B     		cmp	r3, #3
 311 020e 09D0     		beq	.L8
 233:..\src/main.c ****             (c_mem.input_mode == INPUT_MODE_EMG_FCFS) ||
 312              		.loc 1 233 0
 313 0210 154B     		ldr	r3, .L20+16
 314 0212 93F83530 		ldrb	r3, [r3, #53]	@ zero_extendqisi2
 232:..\src/main.c ****             (c_mem.input_mode == INPUT_MODE_EMG_INTEGRAL) ||
 315              		.loc 1 232 0
 316 0216 042B     		cmp	r3, #4
 317 0218 04D0     		beq	.L8
 234:..\src/main.c ****             (c_mem.input_mode == INPUT_MODE_EMG_FCFS_ADV))
 318              		.loc 1 234 0
 319 021a 134B     		ldr	r3, .L20+16
 320 021c 93F83530 		ldrb	r3, [r3, #53]	@ zero_extendqisi2
 233:..\src/main.c ****             (c_mem.input_mode == INPUT_MODE_EMG_FCFS) ||
 321              		.loc 1 233 0
 322 0220 052B     		cmp	r3, #5
 323 0222 03D1     		bne	.L9
 324              	.L8:
 235:..\src/main.c ****             g_ref.onoff = 0x00;
 325              		.loc 1 235 0
 326 0224 174B     		ldr	r3, .L20+44
 327 0226 0022     		movs	r2, #0
ARM GAS  C:\Users\MattiaCP\AppData\Local\Temp\cc70Li2y.s 			page 11


 328 0228 1A73     		strb	r2, [r3, #12]
 329 022a 0AE0     		b	.L11
 330              	.L9:
 236:..\src/main.c ****         else
 237:..\src/main.c ****             g_ref.onoff = c_mem.activ;
 331              		.loc 1 237 0
 332 022c 0E4B     		ldr	r3, .L20+16
 333 022e 93F83420 		ldrb	r2, [r3, #52]	@ zero_extendqisi2
 334 0232 144B     		ldr	r3, .L20+44
 335 0234 1A73     		strb	r2, [r3, #12]
 336 0236 04E0     		b	.L11
 337              	.L7:
 238:..\src/main.c ****     } 
 239:..\src/main.c ****     else
 240:..\src/main.c ****         g_ref.onoff = c_mem.activ;
 338              		.loc 1 240 0
 339 0238 0B4B     		ldr	r3, .L20+16
 340 023a 93F83420 		ldrb	r2, [r3, #52]	@ zero_extendqisi2
 341 023e 114B     		ldr	r3, .L20+44
 342 0240 1A73     		strb	r2, [r3, #12]
 343              	.L11:
 241:..\src/main.c **** 
 242:..\src/main.c ****     if (!g_mem.double_encoder_on_off) {
 344              		.loc 1 242 0
 345 0242 134B     		ldr	r3, .L20+56
 346 0244 93F87930 		ldrb	r3, [r3, #121]	@ zero_extendqisi2
 347 0248 002B     		cmp	r3, #0
 348 024a 23D1     		bne	.L12
 243:..\src/main.c ****         g_ref.onoff = c_mem.activ;                          // Initalize Activation.
 349              		.loc 1 243 0
 350 024c 064B     		ldr	r3, .L20+16
 351 024e 93F83420 		ldrb	r2, [r3, #52]	@ zero_extendqisi2
 352 0252 0C4B     		ldr	r3, .L20+44
 353 0254 1A73     		strb	r2, [r3, #12]
 354 0256 20E0     		b	.L13
 355              	.L21:
 356              		.align	2
 357              	.L20:
 358 0258 04000000 		.word	.LC0
 359 025c 00000000 		.word	ISR_RS485_RX_ExInterrupt
 360 0260 00000000 		.word	ISR_CYCLES_Handler
 361 0264 00000000 		.word	ADC_buf
 362 0268 00000000 		.word	c_mem
 363 026c 00000000 		.word	filt_i
 364 0270 00000000 		.word	filt_vel
 365 0274 00000000 		.word	filt_curr_diff
 366 0278 00000000 		.word	filt_v
 367 027c 00000000 		.word	filt_emg1
 368 0280 00000000 		.word	filt_emg2
 369 0284 00000000 		.word	g_ref
 370 0288 00000000 		.word	g_meas
 371 028c 00000000 		.word	g_refNew
 372 0290 00000000 		.word	g_mem
 373              	.L12:
 244:..\src/main.c ****     } 
 245:..\src/main.c ****     else {
 246:..\src/main.c ****         // Do not activate motor until position reconstruction has finished
ARM GAS  C:\Users\MattiaCP\AppData\Local\Temp\cc70Li2y.s 			page 12


 247:..\src/main.c ****         g_ref.onoff = 0x00;
 374              		.loc 1 247 0
 375 0294 904B     		ldr	r3, .L22
 376 0296 0022     		movs	r2, #0
 377 0298 1A73     		strb	r2, [r3, #12]
 378              	.L13:
 248:..\src/main.c ****     }
 249:..\src/main.c ****     MOTOR_ON_OFF_Write(g_ref.onoff);                    // Activate motor in case.
 379              		.loc 1 249 0
 380 029a 8F4B     		ldr	r3, .L22
 381 029c 1B7B     		ldrb	r3, [r3, #12]	@ zero_extendqisi2
 382 029e 1846     		mov	r0, r3
 383 02a0 FFF7FEFF 		bl	MOTOR_ON_OFF_Write
 250:..\src/main.c **** 
 251:..\src/main.c ****     dev_pwm_limit = dev_pwm_sat;                        // Init PWM limit.
 384              		.loc 1 251 0
 385 02a4 8D4B     		ldr	r3, .L22+4
 386 02a6 1A78     		ldrb	r2, [r3]	@ zero_extendqisi2
 387 02a8 8D4B     		ldr	r3, .L22+8
 388 02aa 1A70     		strb	r2, [r3]
 252:..\src/main.c **** 	pow_tension = 12000;                                // 12000 mV (12 V)
 389              		.loc 1 252 0
 390 02ac 8D4B     		ldr	r3, .L22+12
 391 02ae 42F6E062 		movw	r2, #12000
 392 02b2 1A60     		str	r2, [r3]
 253:..\src/main.c ****     tension_valid = FALSE;                              // Init tension_valid BIT.
 393              		.loc 1 253 0
 394 02b4 8C4B     		ldr	r3, .L22+16
 395 02b6 0022     		movs	r2, #0
 396 02b8 1A70     		strb	r2, [r3]
 254:..\src/main.c **** 
 255:..\src/main.c ****     reset_last_value_flag = 0;                          // Do not reset encoder last value.
 397              		.loc 1 255 0
 398 02ba 8C4B     		ldr	r3, .L22+20
 399 02bc 0022     		movs	r2, #0
 400 02be 1A70     		strb	r2, [r3]
 256:..\src/main.c **** 
 257:..\src/main.c ****     //------------------------------------------------- Initialize package on receive from RS485
 258:..\src/main.c ****     g_rx.length = 0;
 401              		.loc 1 258 0
 402 02c0 8B4B     		ldr	r3, .L22+24
 403 02c2 0022     		movs	r2, #0
 404 02c4 A3F88020 		strh	r2, [r3, #128]	@ movhi
 259:..\src/main.c ****     g_rx.ready  = 0;
 405              		.loc 1 259 0
 406 02c8 894B     		ldr	r3, .L22+24
 407 02ca 0022     		movs	r2, #0
 408 02cc 83F88420 		strb	r2, [r3, #132]
 260:..\src/main.c ****     
 261:..\src/main.c ****     //------------------------------------------------- Initialize rest position variables    
 262:..\src/main.c **** 	rest_enabled = 0;
 409              		.loc 1 262 0
 410 02d0 884B     		ldr	r3, .L22+28
 411 02d2 0022     		movs	r2, #0
 412 02d4 1A70     		strb	r2, [r3]
 263:..\src/main.c ****     forced_open = 0;
 413              		.loc 1 263 0
ARM GAS  C:\Users\MattiaCP\AppData\Local\Temp\cc70Li2y.s 			page 13


 414 02d6 884B     		ldr	r3, .L22+32
 415 02d8 0022     		movs	r2, #0
 416 02da 1A70     		strb	r2, [r3]
 264:..\src/main.c ****     
 265:..\src/main.c ****     LED_control(5);     // Default - red light
 417              		.loc 1 265 0
 418 02dc 0520     		movs	r0, #5
 419 02de FFF7FEFF 		bl	LED_control
 266:..\src/main.c ****     
 267:..\src/main.c ****     //============================================================    check if maintenance is due
 268:..\src/main.c **** 
 269:..\src/main.c ****     if ( (g_mem.wire_disp/(((g_mem.pos_lim_sup>>g_mem.res[0]) - (g_mem.pos_lim_inf>>g_mem.res[0]))*
 420              		.loc 1 269 0
 421 02e2 864B     		ldr	r3, .L22+36
 422 02e4 D3F80431 		ldr	r3, [r3, #260]
 423 02e8 844A     		ldr	r2, .L22+36
 424 02ea D26D     		ldr	r2, [r2, #92]
 425 02ec 8349     		ldr	r1, .L22+36
 426 02ee 91F83710 		ldrb	r1, [r1, #55]	@ zero_extendqisi2
 427 02f2 42FA01F1 		asr	r1, r2, r1
 428 02f6 814A     		ldr	r2, .L22+36
 429 02f8 926D     		ldr	r2, [r2, #88]
 430 02fa 8048     		ldr	r0, .L22+36
 431 02fc 90F83700 		ldrb	r0, [r0, #55]	@ zero_extendqisi2
 432 0300 0241     		asrs	r2, r2, r0
 433 0302 8A1A     		subs	r2, r1, r2
 434 0304 5200     		lsls	r2, r2, #1
 435 0306 B3FBF2F3 		udiv	r3, r3, r2
 436 030a 7D4A     		ldr	r2, .L22+40
 437 030c 9342     		cmp	r3, r2
 438 030e 02D9     		bls	.L14
 270:..\src/main.c ****         maintenance_flag = TRUE;    
 439              		.loc 1 270 0
 440 0310 7C4B     		ldr	r3, .L22+44
 441 0312 0122     		movs	r2, #1
 442 0314 1A70     		strb	r2, [r3]
 443              	.L14:
 271:..\src/main.c **** 
 272:..\src/main.c ****     if (c_mem.read_exp_port_flag == EXP_SD_RTC) {
 444              		.loc 1 272 0
 445 0316 7C4B     		ldr	r3, .L22+48
 446 0318 93F8A830 		ldrb	r3, [r3, #168]	@ zero_extendqisi2
 447 031c 012B     		cmp	r3, #1
 448 031e 40F0B480 		bne	.L15
 273:..\src/main.c ****         // Update current time
 274:..\src/main.c ****         rtc_data = DS1302_read(DS1302_DATE_RD);
 449              		.loc 1 274 0
 450 0322 8720     		movs	r0, #135
 451 0324 FFF7FEFF 		bl	DS1302_read
 452 0328 0346     		mov	r3, r0
 453 032a 87F8D539 		strb	r3, [r7, #2517]
 275:..\src/main.c ****         g_mem.curr_time[0] = (rtc_data/16) * 10 + rtc_data%16;
 454              		.loc 1 275 0
 455 032e 97F8D539 		ldrb	r3, [r7, #2517]	@ zero_extendqisi2
 456 0332 1B09     		lsrs	r3, r3, #4
 457 0334 DBB2     		uxtb	r3, r3
 458 0336 1A46     		mov	r2, r3
ARM GAS  C:\Users\MattiaCP\AppData\Local\Temp\cc70Li2y.s 			page 14


 459 0338 9200     		lsls	r2, r2, #2
 460 033a 1344     		add	r3, r3, r2
 461 033c 5B00     		lsls	r3, r3, #1
 462 033e DAB2     		uxtb	r2, r3
 463 0340 97F8D539 		ldrb	r3, [r7, #2517]
 464 0344 03F00F03 		and	r3, r3, #15
 465 0348 DBB2     		uxtb	r3, r3
 466 034a 1344     		add	r3, r3, r2
 467 034c DAB2     		uxtb	r2, r3
 468 034e 6B4B     		ldr	r3, .L22+36
 469 0350 83F81021 		strb	r2, [r3, #272]
 276:..\src/main.c ****         rtc_data = DS1302_read(DS1302_MONTH_RD);
 470              		.loc 1 276 0
 471 0354 8920     		movs	r0, #137
 472 0356 FFF7FEFF 		bl	DS1302_read
 473 035a 0346     		mov	r3, r0
 474 035c 87F8D539 		strb	r3, [r7, #2517]
 277:..\src/main.c ****         g_mem.curr_time[1] = (rtc_data/16) * 10 + rtc_data%16;
 475              		.loc 1 277 0
 476 0360 97F8D539 		ldrb	r3, [r7, #2517]	@ zero_extendqisi2
 477 0364 1B09     		lsrs	r3, r3, #4
 478 0366 DBB2     		uxtb	r3, r3
 479 0368 1A46     		mov	r2, r3
 480 036a 9200     		lsls	r2, r2, #2
 481 036c 1344     		add	r3, r3, r2
 482 036e 5B00     		lsls	r3, r3, #1
 483 0370 DAB2     		uxtb	r2, r3
 484 0372 97F8D539 		ldrb	r3, [r7, #2517]
 485 0376 03F00F03 		and	r3, r3, #15
 486 037a DBB2     		uxtb	r3, r3
 487 037c 1344     		add	r3, r3, r2
 488 037e DAB2     		uxtb	r2, r3
 489 0380 5E4B     		ldr	r3, .L22+36
 490 0382 83F81121 		strb	r2, [r3, #273]
 278:..\src/main.c ****         rtc_data = DS1302_read(DS1302_YEAR_RD);
 491              		.loc 1 278 0
 492 0386 8D20     		movs	r0, #141
 493 0388 FFF7FEFF 		bl	DS1302_read
 494 038c 0346     		mov	r3, r0
 495 038e 87F8D539 		strb	r3, [r7, #2517]
 279:..\src/main.c ****         g_mem.curr_time[2] = (rtc_data/16) * 10 + rtc_data%16;
 496              		.loc 1 279 0
 497 0392 97F8D539 		ldrb	r3, [r7, #2517]	@ zero_extendqisi2
 498 0396 1B09     		lsrs	r3, r3, #4
 499 0398 DBB2     		uxtb	r3, r3
 500 039a 1A46     		mov	r2, r3
 501 039c 9200     		lsls	r2, r2, #2
 502 039e 1344     		add	r3, r3, r2
 503 03a0 5B00     		lsls	r3, r3, #1
 504 03a2 DAB2     		uxtb	r2, r3
 505 03a4 97F8D539 		ldrb	r3, [r7, #2517]
 506 03a8 03F00F03 		and	r3, r3, #15
 507 03ac DBB2     		uxtb	r3, r3
 508 03ae 1344     		add	r3, r3, r2
 509 03b0 DAB2     		uxtb	r2, r3
 510 03b2 524B     		ldr	r3, .L22+36
 511 03b4 83F81221 		strb	r2, [r3, #274]
ARM GAS  C:\Users\MattiaCP\AppData\Local\Temp\cc70Li2y.s 			page 15


 280:..\src/main.c **** 
 281:..\src/main.c **** 
 282:..\src/main.c ****         rtc_data = DS1302_read(DS1302_HOUR_RD);
 512              		.loc 1 282 0
 513 03b8 8520     		movs	r0, #133
 514 03ba FFF7FEFF 		bl	DS1302_read
 515 03be 0346     		mov	r3, r0
 516 03c0 87F8D539 		strb	r3, [r7, #2517]
 283:..\src/main.c ****         g_mem.curr_time[3] = (rtc_data/16) * 10 + rtc_data%16;
 517              		.loc 1 283 0
 518 03c4 97F8D539 		ldrb	r3, [r7, #2517]	@ zero_extendqisi2
 519 03c8 1B09     		lsrs	r3, r3, #4
 520 03ca DBB2     		uxtb	r3, r3
 521 03cc 1A46     		mov	r2, r3
 522 03ce 9200     		lsls	r2, r2, #2
 523 03d0 1344     		add	r3, r3, r2
 524 03d2 5B00     		lsls	r3, r3, #1
 525 03d4 DAB2     		uxtb	r2, r3
 526 03d6 97F8D539 		ldrb	r3, [r7, #2517]
 527 03da 03F00F03 		and	r3, r3, #15
 528 03de DBB2     		uxtb	r3, r3
 529 03e0 1344     		add	r3, r3, r2
 530 03e2 DAB2     		uxtb	r2, r3
 531 03e4 454B     		ldr	r3, .L22+36
 532 03e6 83F81321 		strb	r2, [r3, #275]
 284:..\src/main.c ****         rtc_data = DS1302_read(DS1302_MINUTES_RD);
 533              		.loc 1 284 0
 534 03ea 8320     		movs	r0, #131
 535 03ec FFF7FEFF 		bl	DS1302_read
 536 03f0 0346     		mov	r3, r0
 537 03f2 87F8D539 		strb	r3, [r7, #2517]
 285:..\src/main.c ****         g_mem.curr_time[4] = (rtc_data/16) * 10 + rtc_data%16;
 538              		.loc 1 285 0
 539 03f6 97F8D539 		ldrb	r3, [r7, #2517]	@ zero_extendqisi2
 540 03fa 1B09     		lsrs	r3, r3, #4
 541 03fc DBB2     		uxtb	r3, r3
 542 03fe 1A46     		mov	r2, r3
 543 0400 9200     		lsls	r2, r2, #2
 544 0402 1344     		add	r3, r3, r2
 545 0404 5B00     		lsls	r3, r3, #1
 546 0406 DAB2     		uxtb	r2, r3
 547 0408 97F8D539 		ldrb	r3, [r7, #2517]
 548 040c 03F00F03 		and	r3, r3, #15
 549 0410 DBB2     		uxtb	r3, r3
 550 0412 1344     		add	r3, r3, r2
 551 0414 DAB2     		uxtb	r2, r3
 552 0416 394B     		ldr	r3, .L22+36
 553 0418 83F81421 		strb	r2, [r3, #276]
 286:..\src/main.c ****         rtc_data = DS1302_read(DS1302_SECONDS_RD);
 554              		.loc 1 286 0
 555 041c 8120     		movs	r0, #129
 556 041e FFF7FEFF 		bl	DS1302_read
 557 0422 0346     		mov	r3, r0
 558 0424 87F8D539 		strb	r3, [r7, #2517]
 287:..\src/main.c ****         g_mem.curr_time[5] = (rtc_data/16) * 10 + rtc_data%16;
 559              		.loc 1 287 0
 560 0428 97F8D539 		ldrb	r3, [r7, #2517]	@ zero_extendqisi2
ARM GAS  C:\Users\MattiaCP\AppData\Local\Temp\cc70Li2y.s 			page 16


 561 042c 1B09     		lsrs	r3, r3, #4
 562 042e DBB2     		uxtb	r3, r3
 563 0430 1A46     		mov	r2, r3
 564 0432 9200     		lsls	r2, r2, #2
 565 0434 1344     		add	r3, r3, r2
 566 0436 5B00     		lsls	r3, r3, #1
 567 0438 DAB2     		uxtb	r2, r3
 568 043a 97F8D539 		ldrb	r3, [r7, #2517]
 569 043e 03F00F03 		and	r3, r3, #15
 570 0442 DBB2     		uxtb	r3, r3
 571 0444 1344     		add	r3, r3, r2
 572 0446 DAB2     		uxtb	r2, r3
 573 0448 2C4B     		ldr	r3, .L22+36
 574 044a 83F81521 		strb	r2, [r3, #277]
 288:..\src/main.c ****         
 289:..\src/main.c ****         // SD file
 290:..\src/main.c ****         FS_Init();
 575              		.loc 1 290 0
 576 044e FFF7FEFF 		bl	FS_Init
 291:..\src/main.c ****         pFile = FS_FOpen(sdFile, "a");
 577              		.loc 1 291 0
 578 0452 07F6C413 		addw	r3, r7, #2500
 579 0456 2D49     		ldr	r1, .L22+52
 580 0458 1846     		mov	r0, r3
 581 045a FFF7FEFF 		bl	FS_FOpen
 582 045e 0246     		mov	r2, r0
 583 0460 2B4B     		ldr	r3, .L22+56
 584 0462 1A60     		str	r2, [r3]
 292:..\src/main.c ****         //FS_FClose(pFile);    
 293:..\src/main.c **** 
 294:..\src/main.c ****         //Write in SD card
 295:..\src/main.c ****         prepare_counter_info(info_);
 585              		.loc 1 295 0
 586 0464 3B46     		mov	r3, r7
 587 0466 1846     		mov	r0, r3
 588 0468 FFF7FEFF 		bl	prepare_counter_info
 296:..\src/main.c ****         write_bytes = FS_Write(pFile, info_, strlen(info_));
 589              		.loc 1 296 0
 590 046c 284B     		ldr	r3, .L22+56
 591 046e 1C68     		ldr	r4, [r3]
 592 0470 3B46     		mov	r3, r7
 593 0472 1846     		mov	r0, r3
 594 0474 FFF7FEFF 		bl	strlen
 595 0478 0246     		mov	r2, r0
 596 047a 3B46     		mov	r3, r7
 597 047c 1946     		mov	r1, r3
 598 047e 2046     		mov	r0, r4
 599 0480 FFF7FEFF 		bl	FS_Write
 600 0484 0246     		mov	r2, r0
 601 0486 234B     		ldr	r3, .L22+60
 602 0488 1A60     		str	r2, [r3]
 603              	.L15:
 297:..\src/main.c ****     }
 298:..\src/main.c ****     //============================================================     main loop
 299:..\src/main.c ****     
 300:..\src/main.c ****     for(;;)
 301:..\src/main.c **** 
ARM GAS  C:\Users\MattiaCP\AppData\Local\Temp\cc70Li2y.s 			page 17


 302:..\src/main.c ****     {             
 303:..\src/main.c ****         // Put the FF reset pin to LOW
 304:..\src/main.c ****         RESET_FF_Write(0x00);
 604              		.loc 1 304 0
 605 048a 0020     		movs	r0, #0
 606 048c FFF7FEFF 		bl	RESET_FF_Write
 305:..\src/main.c **** 
 306:..\src/main.c ****         // Call function scheduler
 307:..\src/main.c ****         function_scheduler(); 
 607              		.loc 1 307 0
 608 0490 FFF7FEFF 		bl	function_scheduler
 308:..\src/main.c **** 
 309:..\src/main.c ****         //  Wait until the FF is set to 1
 310:..\src/main.c ****         while(FF_STATUS_Read() == 0){
 609              		.loc 1 310 0
 610 0494 08E0     		b	.L16
 611              	.L17:
 311:..\src/main.c ****             // On interrupt from RS485
 312:..\src/main.c ****             if (interrupt_flag){
 612              		.loc 1 312 0
 613 0496 204B     		ldr	r3, .L22+64
 614 0498 1B78     		ldrb	r3, [r3]	@ zero_extendqisi2
 615 049a 002B     		cmp	r3, #0
 616 049c 04D0     		beq	.L16
 313:..\src/main.c ****                 // Reset flags
 314:..\src/main.c ****                 interrupt_flag = FALSE;
 617              		.loc 1 314 0
 618 049e 1E4B     		ldr	r3, .L22+64
 619 04a0 0022     		movs	r2, #0
 620 04a2 1A70     		strb	r2, [r3]
 315:..\src/main.c ****                 
 316:..\src/main.c ****                 // Manage Interrupt on rs485
 317:..\src/main.c ****                 interrupt_manager();
 621              		.loc 1 317 0
 622 04a4 FFF7FEFF 		bl	interrupt_manager
 623              	.L16:
 310:..\src/main.c ****             // On interrupt from RS485
 624              		.loc 1 310 0
 625 04a8 FFF7FEFF 		bl	FF_STATUS_Read
 626 04ac 0346     		mov	r3, r0
 627 04ae 002B     		cmp	r3, #0
 628 04b0 F1D0     		beq	.L17
 318:..\src/main.c ****             }
 319:..\src/main.c ****         };
 320:..\src/main.c **** 
 321:..\src/main.c ****         // Command a FF reset
 322:..\src/main.c ****         RESET_FF_Write(0x01);
 629              		.loc 1 322 0
 630 04b2 0120     		movs	r0, #1
 631 04b4 FFF7FEFF 		bl	RESET_FF_Write
 323:..\src/main.c **** 
 324:..\src/main.c ****         // Wait for FF to be reset
 325:..\src/main.c ****         while(FF_STATUS_Read() == 1);
 632              		.loc 1 325 0
 633 04b8 00BF     		nop
 634              	.L18:
 635              		.loc 1 325 0 is_stmt 0 discriminator 1
ARM GAS  C:\Users\MattiaCP\AppData\Local\Temp\cc70Li2y.s 			page 18


 636 04ba FFF7FEFF 		bl	FF_STATUS_Read
 637 04be 0346     		mov	r3, r0
 638 04c0 012B     		cmp	r3, #1
 639 04c2 FAD0     		beq	.L18
 326:..\src/main.c **** 
 327:..\src/main.c ****         if(UART_RS485_ReadRxStatus() & UART_RS485_RX_STS_SOFT_BUFF_OVER)
 640              		.loc 1 327 0 is_stmt 1
 641 04c4 FFF7FEFF 		bl	UART_RS485_ReadRxStatus
 642 04c8 0346     		mov	r3, r0
 643 04ca 5BB2     		sxtb	r3, r3
 644 04cc 002B     		cmp	r3, #0
 645 04ce DCDA     		bge	.L15
 328:..\src/main.c ****             UART_RS485_ClearRxBuffer();
 646              		.loc 1 328 0
 647 04d0 FFF7FEFF 		bl	UART_RS485_ClearRxBuffer
 329:..\src/main.c ****     }
 648              		.loc 1 329 0
 649 04d4 D9E7     		b	.L15
 650              	.L23:
 651 04d6 00BF     		.align	2
 652              	.L22:
 653 04d8 00000000 		.word	g_ref
 654 04dc 00000000 		.word	dev_pwm_sat
 655 04e0 00000000 		.word	dev_pwm_limit
 656 04e4 00000000 		.word	pow_tension
 657 04e8 00000000 		.word	tension_valid
 658 04ec 00000000 		.word	reset_last_value_flag
 659 04f0 00000000 		.word	g_rx
 660 04f4 00000000 		.word	rest_enabled
 661 04f8 00000000 		.word	forced_open
 662 04fc 00000000 		.word	g_mem
 663 0500 400D0300 		.word	200000
 664 0504 00000000 		.word	maintenance_flag
 665 0508 00000000 		.word	c_mem
 666 050c 00000000 		.word	.LC1
 667 0510 00000000 		.word	pFile
 668 0514 00000000 		.word	write_bytes
 669 0518 00000000 		.word	interrupt_flag
 670              		.cfi_endproc
 671              	.LFE64:
 672              		.size	main, .-main
 673              		.text
 674              	.Letext0:
 675              		.file 2 "c:\\program files (x86)\\cypress\\psoc creator\\4.2\\psoc creator\\import\\gnu\\arm\\5.4.
 676              		.file 3 "c:\\program files (x86)\\cypress\\psoc creator\\4.2\\psoc creator\\import\\gnu\\arm\\5.4.
 677              		.file 4 "Generated_Source\\PSoC5/cytypes.h"
 678              		.file 5 "..\\emFile_V322c\\Code\\Include\\PSoC5/FS_Types.h"
 679              		.file 6 "..\\src\\globals.h"
 680              		.file 7 "Generated_Source\\PSoC5/core_cm3.h"
 681              		.file 8 "..\\src\\commands.h"