ARM GAS  C:\Users\MattiaCP\AppData\Local\Temp\ccE1Wg8b.s 			page 1


   1              		.syntax unified
   2              		.cpu cortex-m3
   3              		.fpu softvfp
   4              		.eabi_attribute 20, 1
   5              		.eabi_attribute 21, 1
   6              		.eabi_attribute 23, 3
   7              		.eabi_attribute 24, 1
   8              		.eabi_attribute 25, 1
   9              		.eabi_attribute 26, 1
  10              		.eabi_attribute 30, 6
  11              		.eabi_attribute 34, 1
  12              		.eabi_attribute 18, 4
  13              		.thumb
  14              		.syntax unified
  15              		.file	"SD_RTC_functions.c"
  16              		.text
  17              	.Ltext0:
  18              		.cfi_sections	.debug_frame
  19              		.section	.text.DS1302_write,"ax",%progbits
  20              		.align	2
  21              		.global	DS1302_write
  22              		.thumb
  23              		.thumb_func
  24              		.type	DS1302_write, %function
  25              	DS1302_write:
  26              	.LFB64:
  27              		.file 1 "..\\src\\SD_RTC_functions.c"
   1:..\src/SD_RTC_functions.c **** // ----------------------------------------------------------------------------
   2:..\src/SD_RTC_functions.c **** // BSD 3-Clause License
   3:..\src/SD_RTC_functions.c **** 
   4:..\src/SD_RTC_functions.c **** // Copyright (c) 2016, qbrobotics
   5:..\src/SD_RTC_functions.c **** // Copyright (c) 2017-2019, Centro "E.Piaggio"
   6:..\src/SD_RTC_functions.c **** // All rights reserved.
   7:..\src/SD_RTC_functions.c **** 
   8:..\src/SD_RTC_functions.c **** // Redistribution and use in source and binary forms, with or without
   9:..\src/SD_RTC_functions.c **** // modification, are permitted provided that the following conditions are met:
  10:..\src/SD_RTC_functions.c **** 
  11:..\src/SD_RTC_functions.c **** // * Redistributions of source code must retain the above copyright notice, this
  12:..\src/SD_RTC_functions.c **** //   list of conditions and the following disclaimer.
  13:..\src/SD_RTC_functions.c **** 
  14:..\src/SD_RTC_functions.c **** // * Redistributions in binary form must reproduce the above copyright notice,
  15:..\src/SD_RTC_functions.c **** //   this list of conditions and the following disclaimer in the documentation
  16:..\src/SD_RTC_functions.c **** //   and/or other materials provided with the distribution.
  17:..\src/SD_RTC_functions.c **** 
  18:..\src/SD_RTC_functions.c **** // * Neither the name of the copyright holder nor the names of its
  19:..\src/SD_RTC_functions.c **** //   contributors may be used to endorse or promote products derived from
  20:..\src/SD_RTC_functions.c **** //   this software without specific prior written permission.
  21:..\src/SD_RTC_functions.c **** 
  22:..\src/SD_RTC_functions.c **** // THIS SOFTWARE IS PROVIDED BY THE COPYRIGHT HOLDERS AND CONTRIBUTORS "AS IS"
  23:..\src/SD_RTC_functions.c **** // AND ANY EXPRESS OR IMPLIED WARRANTIES, INCLUDING, BUT NOT LIMITED TO, THE
  24:..\src/SD_RTC_functions.c **** // IMPLIED WARRANTIES OF MERCHANTABILITY AND FITNESS FOR A PARTICULAR PURPOSE ARE
  25:..\src/SD_RTC_functions.c **** // DISCLAIMED. IN NO EVENT SHALL THE COPYRIGHT HOLDER OR CONTRIBUTORS BE LIABLE
  26:..\src/SD_RTC_functions.c **** // FOR ANY DIRECT, INDIRECT, INCIDENTAL, SPECIAL, EXEMPLARY, OR CONSEQUENTIAL
  27:..\src/SD_RTC_functions.c **** // DAMAGES (INCLUDING, BUT NOT LIMITED TO, PROCUREMENT OF SUBSTITUTE GOODS OR
  28:..\src/SD_RTC_functions.c **** // SERVICES; LOSS OF USE, DATA, OR PROFITS; OR BUSINESS INTERRUPTION) HOWEVER
  29:..\src/SD_RTC_functions.c **** // CAUSED AND ON ANY THEORY OF LIABILITY, WHETHER IN CONTRACT, STRICT LIABILITY,
  30:..\src/SD_RTC_functions.c **** // OR TORT (INCLUDING NEGLIGENCE OR OTHERWISE) ARISING IN ANY WAY OUT OF THE USE
ARM GAS  C:\Users\MattiaCP\AppData\Local\Temp\ccE1Wg8b.s 			page 2


  31:..\src/SD_RTC_functions.c **** // OF THIS SOFTWARE, EVEN IF ADVISED OF THE POSSIBILITY OF SUCH DAMAGE.
  32:..\src/SD_RTC_functions.c **** // POSSIBILITY OF SUCH DAMAGE.
  33:..\src/SD_RTC_functions.c **** // ----------------------------------------------------------------------------
  34:..\src/SD_RTC_functions.c **** 
  35:..\src/SD_RTC_functions.c **** /**
  36:..\src/SD_RTC_functions.c **** * \file         SD_RTC_functions.c
  37:..\src/SD_RTC_functions.c **** *
  38:..\src/SD_RTC_functions.c **** * \brief        Implementation of SD and RTC module functions.
  39:..\src/SD_RTC_functions.c **** * \date         February 13, 2019
  40:..\src/SD_RTC_functions.c **** * \author       _Centro "E.Piaggio"_
  41:..\src/SD_RTC_functions.c **** * \copyright    (C) 2012-2016 qbrobotics. All rights reserved.
  42:..\src/SD_RTC_functions.c **** * \copyright    (C) 2017-2019 Centro "E.Piaggio". All rights reserved.
  43:..\src/SD_RTC_functions.c **** */
  44:..\src/SD_RTC_functions.c **** 
  45:..\src/SD_RTC_functions.c **** #include "SD_RTC_functions.h"
  46:..\src/SD_RTC_functions.c **** 
  47:..\src/SD_RTC_functions.c **** // --------------------------------------------------------
  48:..\src/SD_RTC_functions.c **** // DS1302_write
  49:..\src/SD_RTC_functions.c **** void DS1302_write(uint8 address, uint8 data_wr) {
  28              		.loc 1 49 0
  29              		.cfi_startproc
  30              		@ args = 0, pretend = 0, frame = 8
  31              		@ frame_needed = 1, uses_anonymous_args = 0
  32 0000 80B5     		push	{r7, lr}
  33              		.cfi_def_cfa_offset 8
  34              		.cfi_offset 7, -8
  35              		.cfi_offset 14, -4
  36 0002 82B0     		sub	sp, sp, #8
  37              		.cfi_def_cfa_offset 16
  38 0004 00AF     		add	r7, sp, #0
  39              		.cfi_def_cfa_register 7
  40 0006 0346     		mov	r3, r0
  41 0008 0A46     		mov	r2, r1
  42 000a FB71     		strb	r3, [r7, #7]
  43 000c 1346     		mov	r3, r2
  44 000e BB71     		strb	r3, [r7, #6]
  50:..\src/SD_RTC_functions.c **** 
  51:..\src/SD_RTC_functions.c ****   CLK_RTC_Write(0);  
  45              		.loc 1 51 0
  46 0010 0020     		movs	r0, #0
  47 0012 FFF7FEFF 		bl	CLK_RTC_Write
  52:..\src/SD_RTC_functions.c ****   CS_RTC_Write(1);
  48              		.loc 1 52 0
  49 0016 0120     		movs	r0, #1
  50 0018 FFF7FEFF 		bl	CS_RTC_Write
  53:..\src/SD_RTC_functions.c ****   CyDelayUs(5);
  51              		.loc 1 53 0
  52 001c 0520     		movs	r0, #5
  53 001e FFF7FEFF 		bl	CyDelayUs
  54:..\src/SD_RTC_functions.c ****   DS1302_writeByte(address);
  54              		.loc 1 54 0
  55 0022 FB79     		ldrb	r3, [r7, #7]	@ zero_extendqisi2
  56 0024 1846     		mov	r0, r3
  57 0026 FFF7FEFF 		bl	DS1302_writeByte
  55:..\src/SD_RTC_functions.c ****   DS1302_writeByte(data_wr);
  58              		.loc 1 55 0
  59 002a BB79     		ldrb	r3, [r7, #6]	@ zero_extendqisi2
ARM GAS  C:\Users\MattiaCP\AppData\Local\Temp\ccE1Wg8b.s 			page 3


  60 002c 1846     		mov	r0, r3
  61 002e FFF7FEFF 		bl	DS1302_writeByte
  56:..\src/SD_RTC_functions.c ****   
  57:..\src/SD_RTC_functions.c ****   CS_RTC_Write(0);
  62              		.loc 1 57 0
  63 0032 0020     		movs	r0, #0
  64 0034 FFF7FEFF 		bl	CS_RTC_Write
  58:..\src/SD_RTC_functions.c ****   CyDelayUs(5);
  65              		.loc 1 58 0
  66 0038 0520     		movs	r0, #5
  67 003a FFF7FEFF 		bl	CyDelayUs
  59:..\src/SD_RTC_functions.c **** }
  68              		.loc 1 59 0
  69 003e 00BF     		nop
  70 0040 0837     		adds	r7, r7, #8
  71              		.cfi_def_cfa_offset 8
  72 0042 BD46     		mov	sp, r7
  73              		.cfi_def_cfa_register 13
  74              		@ sp needed
  75 0044 80BD     		pop	{r7, pc}
  76              		.cfi_endproc
  77              	.LFE64:
  78              		.size	DS1302_write, .-DS1302_write
  79 0046 00BF     		.section	.text.DS1302_writeByte,"ax",%progbits
  80              		.align	2
  81              		.global	DS1302_writeByte
  82              		.thumb
  83              		.thumb_func
  84              		.type	DS1302_writeByte, %function
  85              	DS1302_writeByte:
  86              	.LFB65:
  60:..\src/SD_RTC_functions.c **** 
  61:..\src/SD_RTC_functions.c **** void DS1302_writeByte(uint8 data_wr) {
  87              		.loc 1 61 0
  88              		.cfi_startproc
  89              		@ args = 0, pretend = 0, frame = 8
  90              		@ frame_needed = 1, uses_anonymous_args = 0
  91 0000 80B5     		push	{r7, lr}
  92              		.cfi_def_cfa_offset 8
  93              		.cfi_offset 7, -8
  94              		.cfi_offset 14, -4
  95 0002 82B0     		sub	sp, sp, #8
  96              		.cfi_def_cfa_offset 16
  97 0004 00AF     		add	r7, sp, #0
  98              		.cfi_def_cfa_register 7
  99 0006 0346     		mov	r3, r0
 100 0008 FB71     		strb	r3, [r7, #7]
  62:..\src/SD_RTC_functions.c ****   
  63:..\src/SD_RTC_functions.c ****   shiftOut_RTC(data_wr);
 101              		.loc 1 63 0
 102 000a FB79     		ldrb	r3, [r7, #7]	@ zero_extendqisi2
 103 000c 1846     		mov	r0, r3
 104 000e FFF7FEFF 		bl	shiftOut_RTC
  64:..\src/SD_RTC_functions.c **** 
  65:..\src/SD_RTC_functions.c **** }
 105              		.loc 1 65 0
 106 0012 00BF     		nop
ARM GAS  C:\Users\MattiaCP\AppData\Local\Temp\ccE1Wg8b.s 			page 4


 107 0014 0837     		adds	r7, r7, #8
 108              		.cfi_def_cfa_offset 8
 109 0016 BD46     		mov	sp, r7
 110              		.cfi_def_cfa_register 13
 111              		@ sp needed
 112 0018 80BD     		pop	{r7, pc}
 113              		.cfi_endproc
 114              	.LFE65:
 115              		.size	DS1302_writeByte, .-DS1302_writeByte
 116 001a 00BF     		.section	.text.DS1302_read,"ax",%progbits
 117              		.align	2
 118              		.global	DS1302_read
 119              		.thumb
 120              		.thumb_func
 121              		.type	DS1302_read, %function
 122              	DS1302_read:
 123              	.LFB66:
  66:..\src/SD_RTC_functions.c **** 
  67:..\src/SD_RTC_functions.c **** uint8 DS1302_read(uint8 address) {
 124              		.loc 1 67 0
 125              		.cfi_startproc
 126              		@ args = 0, pretend = 0, frame = 16
 127              		@ frame_needed = 1, uses_anonymous_args = 0
 128 0000 80B5     		push	{r7, lr}
 129              		.cfi_def_cfa_offset 8
 130              		.cfi_offset 7, -8
 131              		.cfi_offset 14, -4
 132 0002 84B0     		sub	sp, sp, #16
 133              		.cfi_def_cfa_offset 24
 134 0004 00AF     		add	r7, sp, #0
 135              		.cfi_def_cfa_register 7
 136 0006 0346     		mov	r3, r0
 137 0008 FB71     		strb	r3, [r7, #7]
  68:..\src/SD_RTC_functions.c **** 
  69:..\src/SD_RTC_functions.c ****   uint8 readValue;
  70:..\src/SD_RTC_functions.c ****   CLK_RTC_Write(0); 
 138              		.loc 1 70 0
 139 000a 0020     		movs	r0, #0
 140 000c FFF7FEFF 		bl	CLK_RTC_Write
  71:..\src/SD_RTC_functions.c ****   CS_RTC_Write(1);
 141              		.loc 1 71 0
 142 0010 0120     		movs	r0, #1
 143 0012 FFF7FEFF 		bl	CS_RTC_Write
  72:..\src/SD_RTC_functions.c ****   CyDelayUs(5);
 144              		.loc 1 72 0
 145 0016 0520     		movs	r0, #5
 146 0018 FFF7FEFF 		bl	CyDelayUs
  73:..\src/SD_RTC_functions.c ****   DS1302_writeByte(address);
 147              		.loc 1 73 0
 148 001c FB79     		ldrb	r3, [r7, #7]	@ zero_extendqisi2
 149 001e 1846     		mov	r0, r3
 150 0020 FFF7FEFF 		bl	DS1302_writeByte
  74:..\src/SD_RTC_functions.c ****   readValue = DS1302_readByte();
 151              		.loc 1 74 0
 152 0024 FFF7FEFF 		bl	DS1302_readByte
 153 0028 0346     		mov	r3, r0
 154 002a FB73     		strb	r3, [r7, #15]
ARM GAS  C:\Users\MattiaCP\AppData\Local\Temp\ccE1Wg8b.s 			page 5


  75:..\src/SD_RTC_functions.c ****   CS_RTC_Write(0);
 155              		.loc 1 75 0
 156 002c 0020     		movs	r0, #0
 157 002e FFF7FEFF 		bl	CS_RTC_Write
  76:..\src/SD_RTC_functions.c ****   CyDelayUs(5);
 158              		.loc 1 76 0
 159 0032 0520     		movs	r0, #5
 160 0034 FFF7FEFF 		bl	CyDelayUs
  77:..\src/SD_RTC_functions.c ****   return readValue;
 161              		.loc 1 77 0
 162 0038 FB7B     		ldrb	r3, [r7, #15]	@ zero_extendqisi2
  78:..\src/SD_RTC_functions.c ****   
  79:..\src/SD_RTC_functions.c **** }
 163              		.loc 1 79 0
 164 003a 1846     		mov	r0, r3
 165 003c 1037     		adds	r7, r7, #16
 166              		.cfi_def_cfa_offset 8
 167 003e BD46     		mov	sp, r7
 168              		.cfi_def_cfa_register 13
 169              		@ sp needed
 170 0040 80BD     		pop	{r7, pc}
 171              		.cfi_endproc
 172              	.LFE66:
 173              		.size	DS1302_read, .-DS1302_read
 174 0042 00BF     		.section	.text.DS1302_readByte,"ax",%progbits
 175              		.align	2
 176              		.global	DS1302_readByte
 177              		.thumb
 178              		.thumb_func
 179              		.type	DS1302_readByte, %function
 180              	DS1302_readByte:
 181              	.LFB67:
  80:..\src/SD_RTC_functions.c **** 
  81:..\src/SD_RTC_functions.c **** uint8 DS1302_readByte() {
 182              		.loc 1 81 0
 183              		.cfi_startproc
 184              		@ args = 0, pretend = 0, frame = 16
 185              		@ frame_needed = 1, uses_anonymous_args = 0
 186 0000 80B5     		push	{r7, lr}
 187              		.cfi_def_cfa_offset 8
 188              		.cfi_offset 7, -8
 189              		.cfi_offset 14, -4
 190 0002 84B0     		sub	sp, sp, #16
 191              		.cfi_def_cfa_offset 24
 192 0004 00AF     		add	r7, sp, #0
 193              		.cfi_def_cfa_register 7
  82:..\src/SD_RTC_functions.c **** 
  83:..\src/SD_RTC_functions.c ****   uint8 value = 0;
 194              		.loc 1 83 0
 195 0006 0023     		movs	r3, #0
 196 0008 FB73     		strb	r3, [r7, #15]
  84:..\src/SD_RTC_functions.c ****   uint8 currentBit = 0;
 197              		.loc 1 84 0
 198 000a 0023     		movs	r3, #0
 199 000c FB71     		strb	r3, [r7, #7]
  85:..\src/SD_RTC_functions.c ****   int i=0;
 200              		.loc 1 85 0
ARM GAS  C:\Users\MattiaCP\AppData\Local\Temp\ccE1Wg8b.s 			page 6


 201 000e 0023     		movs	r3, #0
 202 0010 BB60     		str	r3, [r7, #8]
  86:..\src/SD_RTC_functions.c ****   for (i = 0; i < 8; ++i)
 203              		.loc 1 86 0
 204 0012 0023     		movs	r3, #0
 205 0014 BB60     		str	r3, [r7, #8]
 206 0016 19E0     		b	.L6
 207              	.L7:
  87:..\src/SD_RTC_functions.c ****   {
  88:..\src/SD_RTC_functions.c ****     currentBit = MISO_RTC_Read();
 208              		.loc 1 88 0 discriminator 3
 209 0018 FFF7FEFF 		bl	MISO_RTC_Read
 210 001c 0346     		mov	r3, r0
 211 001e FB71     		strb	r3, [r7, #7]
  89:..\src/SD_RTC_functions.c ****     value |= (currentBit << i);
 212              		.loc 1 89 0 discriminator 3
 213 0020 FA79     		ldrb	r2, [r7, #7]	@ zero_extendqisi2
 214 0022 BB68     		ldr	r3, [r7, #8]
 215 0024 02FA03F3 		lsl	r3, r2, r3
 216 0028 5AB2     		sxtb	r2, r3
 217 002a 97F90F30 		ldrsb	r3, [r7, #15]
 218 002e 1343     		orrs	r3, r3, r2
 219 0030 5BB2     		sxtb	r3, r3
 220 0032 FB73     		strb	r3, [r7, #15]
  90:..\src/SD_RTC_functions.c ****     CLK_RTC_Write(1);
 221              		.loc 1 90 0 discriminator 3
 222 0034 0120     		movs	r0, #1
 223 0036 FFF7FEFF 		bl	CLK_RTC_Write
  91:..\src/SD_RTC_functions.c ****     CyDelayUs(1);
 224              		.loc 1 91 0 discriminator 3
 225 003a 0120     		movs	r0, #1
 226 003c FFF7FEFF 		bl	CyDelayUs
  92:..\src/SD_RTC_functions.c ****     CLK_RTC_Write(0);
 227              		.loc 1 92 0 discriminator 3
 228 0040 0020     		movs	r0, #0
 229 0042 FFF7FEFF 		bl	CLK_RTC_Write
  86:..\src/SD_RTC_functions.c ****   {
 230              		.loc 1 86 0 discriminator 3
 231 0046 BB68     		ldr	r3, [r7, #8]
 232 0048 0133     		adds	r3, r3, #1
 233 004a BB60     		str	r3, [r7, #8]
 234              	.L6:
  86:..\src/SD_RTC_functions.c ****   {
 235              		.loc 1 86 0 is_stmt 0 discriminator 1
 236 004c BB68     		ldr	r3, [r7, #8]
 237 004e 072B     		cmp	r3, #7
 238 0050 E2DD     		ble	.L7
  93:..\src/SD_RTC_functions.c ****   }
  94:..\src/SD_RTC_functions.c ****   return value;
 239              		.loc 1 94 0 is_stmt 1
 240 0052 FB7B     		ldrb	r3, [r7, #15]	@ zero_extendqisi2
  95:..\src/SD_RTC_functions.c **** }
 241              		.loc 1 95 0
 242 0054 1846     		mov	r0, r3
 243 0056 1037     		adds	r7, r7, #16
 244              		.cfi_def_cfa_offset 8
 245 0058 BD46     		mov	sp, r7
ARM GAS  C:\Users\MattiaCP\AppData\Local\Temp\ccE1Wg8b.s 			page 7


 246              		.cfi_def_cfa_register 13
 247              		@ sp needed
 248 005a 80BD     		pop	{r7, pc}
 249              		.cfi_endproc
 250              	.LFE67:
 251              		.size	DS1302_readByte, .-DS1302_readByte
 252              		.section	.text.shiftOut_RTC,"ax",%progbits
 253              		.align	2
 254              		.global	shiftOut_RTC
 255              		.thumb
 256              		.thumb_func
 257              		.type	shiftOut_RTC, %function
 258              	shiftOut_RTC:
 259              	.LFB68:
  96:..\src/SD_RTC_functions.c **** 
  97:..\src/SD_RTC_functions.c **** void shiftOut_RTC(uint8 val)
  98:..\src/SD_RTC_functions.c **** {
 260              		.loc 1 98 0
 261              		.cfi_startproc
 262              		@ args = 0, pretend = 0, frame = 16
 263              		@ frame_needed = 1, uses_anonymous_args = 0
 264 0000 80B5     		push	{r7, lr}
 265              		.cfi_def_cfa_offset 8
 266              		.cfi_offset 7, -8
 267              		.cfi_offset 14, -4
 268 0002 84B0     		sub	sp, sp, #16
 269              		.cfi_def_cfa_offset 24
 270 0004 00AF     		add	r7, sp, #0
 271              		.cfi_def_cfa_register 7
 272 0006 0346     		mov	r3, r0
 273 0008 FB71     		strb	r3, [r7, #7]
  99:..\src/SD_RTC_functions.c ****     uint8 i;
 100:..\src/SD_RTC_functions.c ****     for (i = 0; i < 8; i++)  {
 274              		.loc 1 100 0
 275 000a 0023     		movs	r3, #0
 276 000c FB73     		strb	r3, [r7, #15]
 277 000e 16E0     		b	.L10
 278              	.L11:
 101:..\src/SD_RTC_functions.c ****         MOSI_RTC_Write(!!(val & (1 << i)));
 279              		.loc 1 101 0 discriminator 3
 280 0010 FA79     		ldrb	r2, [r7, #7]	@ zero_extendqisi2
 281 0012 FB7B     		ldrb	r3, [r7, #15]	@ zero_extendqisi2
 282 0014 42FA03F3 		asr	r3, r2, r3
 283 0018 03F00103 		and	r3, r3, #1
 284 001c 002B     		cmp	r3, #0
 285 001e 14BF     		ite	ne
 286 0020 0123     		movne	r3, #1
 287 0022 0023     		moveq	r3, #0
 288 0024 DBB2     		uxtb	r3, r3
 289 0026 1846     		mov	r0, r3
 290 0028 FFF7FEFF 		bl	MOSI_RTC_Write
 102:..\src/SD_RTC_functions.c ****         CLK_RTC_Write(1);
 291              		.loc 1 102 0 discriminator 3
 292 002c 0120     		movs	r0, #1
 293 002e FFF7FEFF 		bl	CLK_RTC_Write
 103:..\src/SD_RTC_functions.c ****         CLK_RTC_Write(0);
 294              		.loc 1 103 0 discriminator 3
ARM GAS  C:\Users\MattiaCP\AppData\Local\Temp\ccE1Wg8b.s 			page 8


 295 0032 0020     		movs	r0, #0
 296 0034 FFF7FEFF 		bl	CLK_RTC_Write
 100:..\src/SD_RTC_functions.c ****         MOSI_RTC_Write(!!(val & (1 << i)));
 297              		.loc 1 100 0 discriminator 3
 298 0038 FB7B     		ldrb	r3, [r7, #15]	@ zero_extendqisi2
 299 003a 0133     		adds	r3, r3, #1
 300 003c FB73     		strb	r3, [r7, #15]
 301              	.L10:
 100:..\src/SD_RTC_functions.c ****         MOSI_RTC_Write(!!(val & (1 << i)));
 302              		.loc 1 100 0 is_stmt 0 discriminator 1
 303 003e FB7B     		ldrb	r3, [r7, #15]	@ zero_extendqisi2
 304 0040 072B     		cmp	r3, #7
 305 0042 E5D9     		bls	.L11
 104:..\src/SD_RTC_functions.c ****     }
 105:..\src/SD_RTC_functions.c **** }
 306              		.loc 1 105 0 is_stmt 1
 307 0044 00BF     		nop
 308 0046 1037     		adds	r7, r7, #16
 309              		.cfi_def_cfa_offset 8
 310 0048 BD46     		mov	sp, r7
 311              		.cfi_def_cfa_register 13
 312              		@ sp needed
 313 004a 80BD     		pop	{r7, pc}
 314              		.cfi_endproc
 315              	.LFE68:
 316              		.size	shiftOut_RTC, .-shiftOut_RTC
 317              		.section	.text.store_RTC_current_time,"ax",%progbits
 318              		.align	2
 319              		.global	store_RTC_current_time
 320              		.thumb
 321              		.thumb_func
 322              		.type	store_RTC_current_time, %function
 323              	store_RTC_current_time:
 324              	.LFB69:
 106:..\src/SD_RTC_functions.c **** 
 107:..\src/SD_RTC_functions.c **** void store_RTC_current_time(){
 325              		.loc 1 107 0
 326              		.cfi_startproc
 327              		@ args = 0, pretend = 0, frame = 8
 328              		@ frame_needed = 1, uses_anonymous_args = 0
 329 0000 80B5     		push	{r7, lr}
 330              		.cfi_def_cfa_offset 8
 331              		.cfi_offset 7, -8
 332              		.cfi_offset 14, -4
 333 0002 82B0     		sub	sp, sp, #8
 334              		.cfi_def_cfa_offset 16
 335 0004 00AF     		add	r7, sp, #0
 336              		.cfi_def_cfa_register 7
 108:..\src/SD_RTC_functions.c ****     uint8 rtc_data;
 109:..\src/SD_RTC_functions.c ****     
 110:..\src/SD_RTC_functions.c ****     // Update current time
 111:..\src/SD_RTC_functions.c ****     rtc_data = DS1302_read(DS1302_DATE_RD);
 337              		.loc 1 111 0
 338 0006 8720     		movs	r0, #135
 339 0008 FFF7FEFF 		bl	DS1302_read
 340 000c 0346     		mov	r3, r0
 341 000e FB71     		strb	r3, [r7, #7]
ARM GAS  C:\Users\MattiaCP\AppData\Local\Temp\ccE1Wg8b.s 			page 9


 112:..\src/SD_RTC_functions.c ****     g_mem.curr_time[0] = (rtc_data/16) * 10 + rtc_data%16;
 342              		.loc 1 112 0
 343 0010 FB79     		ldrb	r3, [r7, #7]	@ zero_extendqisi2
 344 0012 1B09     		lsrs	r3, r3, #4
 345 0014 DBB2     		uxtb	r3, r3
 346 0016 1A46     		mov	r2, r3
 347 0018 9200     		lsls	r2, r2, #2
 348 001a 1344     		add	r3, r3, r2
 349 001c 5B00     		lsls	r3, r3, #1
 350 001e DAB2     		uxtb	r2, r3
 351 0020 FB79     		ldrb	r3, [r7, #7]
 352 0022 03F00F03 		and	r3, r3, #15
 353 0026 DBB2     		uxtb	r3, r3
 354 0028 1344     		add	r3, r3, r2
 355 002a DAB2     		uxtb	r2, r3
 356 002c 3A4B     		ldr	r3, .L13
 357 002e 83F85020 		strb	r2, [r3, #80]
 113:..\src/SD_RTC_functions.c ****     rtc_data = DS1302_read(DS1302_MONTH_RD);
 358              		.loc 1 113 0
 359 0032 8920     		movs	r0, #137
 360 0034 FFF7FEFF 		bl	DS1302_read
 361 0038 0346     		mov	r3, r0
 362 003a FB71     		strb	r3, [r7, #7]
 114:..\src/SD_RTC_functions.c ****     g_mem.curr_time[1] = (rtc_data/16) * 10 + rtc_data%16;
 363              		.loc 1 114 0
 364 003c FB79     		ldrb	r3, [r7, #7]	@ zero_extendqisi2
 365 003e 1B09     		lsrs	r3, r3, #4
 366 0040 DBB2     		uxtb	r3, r3
 367 0042 1A46     		mov	r2, r3
 368 0044 9200     		lsls	r2, r2, #2
 369 0046 1344     		add	r3, r3, r2
 370 0048 5B00     		lsls	r3, r3, #1
 371 004a DAB2     		uxtb	r2, r3
 372 004c FB79     		ldrb	r3, [r7, #7]
 373 004e 03F00F03 		and	r3, r3, #15
 374 0052 DBB2     		uxtb	r3, r3
 375 0054 1344     		add	r3, r3, r2
 376 0056 DAB2     		uxtb	r2, r3
 377 0058 2F4B     		ldr	r3, .L13
 378 005a 83F85120 		strb	r2, [r3, #81]
 115:..\src/SD_RTC_functions.c ****     rtc_data = DS1302_read(DS1302_YEAR_RD);
 379              		.loc 1 115 0
 380 005e 8D20     		movs	r0, #141
 381 0060 FFF7FEFF 		bl	DS1302_read
 382 0064 0346     		mov	r3, r0
 383 0066 FB71     		strb	r3, [r7, #7]
 116:..\src/SD_RTC_functions.c ****     g_mem.curr_time[2] = (rtc_data/16) * 10 + rtc_data%16;
 384              		.loc 1 116 0
 385 0068 FB79     		ldrb	r3, [r7, #7]	@ zero_extendqisi2
 386 006a 1B09     		lsrs	r3, r3, #4
 387 006c DBB2     		uxtb	r3, r3
 388 006e 1A46     		mov	r2, r3
 389 0070 9200     		lsls	r2, r2, #2
 390 0072 1344     		add	r3, r3, r2
 391 0074 5B00     		lsls	r3, r3, #1
 392 0076 DAB2     		uxtb	r2, r3
 393 0078 FB79     		ldrb	r3, [r7, #7]
ARM GAS  C:\Users\MattiaCP\AppData\Local\Temp\ccE1Wg8b.s 			page 10


 394 007a 03F00F03 		and	r3, r3, #15
 395 007e DBB2     		uxtb	r3, r3
 396 0080 1344     		add	r3, r3, r2
 397 0082 DAB2     		uxtb	r2, r3
 398 0084 244B     		ldr	r3, .L13
 399 0086 83F85220 		strb	r2, [r3, #82]
 117:..\src/SD_RTC_functions.c **** 
 118:..\src/SD_RTC_functions.c **** 
 119:..\src/SD_RTC_functions.c ****     rtc_data = DS1302_read(DS1302_HOUR_RD);
 400              		.loc 1 119 0
 401 008a 8520     		movs	r0, #133
 402 008c FFF7FEFF 		bl	DS1302_read
 403 0090 0346     		mov	r3, r0
 404 0092 FB71     		strb	r3, [r7, #7]
 120:..\src/SD_RTC_functions.c ****     g_mem.curr_time[3] = (rtc_data/16) * 10 + rtc_data%16;
 405              		.loc 1 120 0
 406 0094 FB79     		ldrb	r3, [r7, #7]	@ zero_extendqisi2
 407 0096 1B09     		lsrs	r3, r3, #4
 408 0098 DBB2     		uxtb	r3, r3
 409 009a 1A46     		mov	r2, r3
 410 009c 9200     		lsls	r2, r2, #2
 411 009e 1344     		add	r3, r3, r2
 412 00a0 5B00     		lsls	r3, r3, #1
 413 00a2 DAB2     		uxtb	r2, r3
 414 00a4 FB79     		ldrb	r3, [r7, #7]
 415 00a6 03F00F03 		and	r3, r3, #15
 416 00aa DBB2     		uxtb	r3, r3
 417 00ac 1344     		add	r3, r3, r2
 418 00ae DAB2     		uxtb	r2, r3
 419 00b0 194B     		ldr	r3, .L13
 420 00b2 83F85320 		strb	r2, [r3, #83]
 121:..\src/SD_RTC_functions.c ****     rtc_data = DS1302_read(DS1302_MINUTES_RD);
 421              		.loc 1 121 0
 422 00b6 8320     		movs	r0, #131
 423 00b8 FFF7FEFF 		bl	DS1302_read
 424 00bc 0346     		mov	r3, r0
 425 00be FB71     		strb	r3, [r7, #7]
 122:..\src/SD_RTC_functions.c ****     g_mem.curr_time[4] = (rtc_data/16) * 10 + rtc_data%16;
 426              		.loc 1 122 0
 427 00c0 FB79     		ldrb	r3, [r7, #7]	@ zero_extendqisi2
 428 00c2 1B09     		lsrs	r3, r3, #4
 429 00c4 DBB2     		uxtb	r3, r3
 430 00c6 1A46     		mov	r2, r3
 431 00c8 9200     		lsls	r2, r2, #2
 432 00ca 1344     		add	r3, r3, r2
 433 00cc 5B00     		lsls	r3, r3, #1
 434 00ce DAB2     		uxtb	r2, r3
 435 00d0 FB79     		ldrb	r3, [r7, #7]
 436 00d2 03F00F03 		and	r3, r3, #15
 437 00d6 DBB2     		uxtb	r3, r3
 438 00d8 1344     		add	r3, r3, r2
 439 00da DAB2     		uxtb	r2, r3
 440 00dc 0E4B     		ldr	r3, .L13
 441 00de 83F85420 		strb	r2, [r3, #84]
 123:..\src/SD_RTC_functions.c ****     rtc_data = DS1302_read(DS1302_SECONDS_RD);
 442              		.loc 1 123 0
 443 00e2 8120     		movs	r0, #129
ARM GAS  C:\Users\MattiaCP\AppData\Local\Temp\ccE1Wg8b.s 			page 11


 444 00e4 FFF7FEFF 		bl	DS1302_read
 445 00e8 0346     		mov	r3, r0
 446 00ea FB71     		strb	r3, [r7, #7]
 124:..\src/SD_RTC_functions.c ****     g_mem.curr_time[5] = (rtc_data/16) * 10 + rtc_data%16;
 447              		.loc 1 124 0
 448 00ec FB79     		ldrb	r3, [r7, #7]	@ zero_extendqisi2
 449 00ee 1B09     		lsrs	r3, r3, #4
 450 00f0 DBB2     		uxtb	r3, r3
 451 00f2 1A46     		mov	r2, r3
 452 00f4 9200     		lsls	r2, r2, #2
 453 00f6 1344     		add	r3, r3, r2
 454 00f8 5B00     		lsls	r3, r3, #1
 455 00fa DAB2     		uxtb	r2, r3
 456 00fc FB79     		ldrb	r3, [r7, #7]
 457 00fe 03F00F03 		and	r3, r3, #15
 458 0102 DBB2     		uxtb	r3, r3
 459 0104 1344     		add	r3, r3, r2
 460 0106 DAB2     		uxtb	r2, r3
 461 0108 034B     		ldr	r3, .L13
 462 010a 83F85520 		strb	r2, [r3, #85]
 125:..\src/SD_RTC_functions.c **** }
 463              		.loc 1 125 0
 464 010e 00BF     		nop
 465 0110 0837     		adds	r7, r7, #8
 466              		.cfi_def_cfa_offset 8
 467 0112 BD46     		mov	sp, r7
 468              		.cfi_def_cfa_register 13
 469              		@ sp needed
 470 0114 80BD     		pop	{r7, pc}
 471              	.L14:
 472 0116 00BF     		.align	2
 473              	.L13:
 474 0118 00000000 		.word	g_mem
 475              		.cfi_endproc
 476              	.LFE69:
 477              		.size	store_RTC_current_time, .-store_RTC_current_time
 478              		.section	.text.set_RTC_time,"ax",%progbits
 479              		.align	2
 480              		.global	set_RTC_time
 481              		.thumb
 482              		.thumb_func
 483              		.type	set_RTC_time, %function
 484              	set_RTC_time:
 485              	.LFB70:
 126:..\src/SD_RTC_functions.c **** 
 127:..\src/SD_RTC_functions.c **** void set_RTC_time(){
 486              		.loc 1 127 0
 487              		.cfi_startproc
 488              		@ args = 0, pretend = 0, frame = 0
 489              		@ frame_needed = 1, uses_anonymous_args = 0
 490 0000 80B5     		push	{r7, lr}
 491              		.cfi_def_cfa_offset 8
 492              		.cfi_offset 7, -8
 493              		.cfi_offset 14, -4
 494 0002 00AF     		add	r7, sp, #0
 495              		.cfi_def_cfa_register 7
 128:..\src/SD_RTC_functions.c ****     DS1302_write(DS1302_DATE_WR, (((g_mem.curr_time[0] / 10)*16) + (g_mem.curr_time[0] % 10)));
ARM GAS  C:\Users\MattiaCP\AppData\Local\Temp\ccE1Wg8b.s 			page 12


 496              		.loc 1 128 0
 497 0004 574B     		ldr	r3, .L16
 498 0006 93F85030 		ldrb	r3, [r3, #80]	@ zero_extendqisi2
 499 000a 574A     		ldr	r2, .L16+4
 500 000c A2FB0323 		umull	r2, r3, r2, r3
 501 0010 DB08     		lsrs	r3, r3, #3
 502 0012 DBB2     		uxtb	r3, r3
 503 0014 1B01     		lsls	r3, r3, #4
 504 0016 D8B2     		uxtb	r0, r3
 505 0018 524B     		ldr	r3, .L16
 506 001a 93F85020 		ldrb	r2, [r3, #80]	@ zero_extendqisi2
 507 001e 524B     		ldr	r3, .L16+4
 508 0020 A3FB0213 		umull	r1, r3, r3, r2
 509 0024 D908     		lsrs	r1, r3, #3
 510 0026 0B46     		mov	r3, r1
 511 0028 9B00     		lsls	r3, r3, #2
 512 002a 0B44     		add	r3, r3, r1
 513 002c 5B00     		lsls	r3, r3, #1
 514 002e D31A     		subs	r3, r2, r3
 515 0030 DBB2     		uxtb	r3, r3
 516 0032 0344     		add	r3, r3, r0
 517 0034 DBB2     		uxtb	r3, r3
 518 0036 1946     		mov	r1, r3
 519 0038 8620     		movs	r0, #134
 520 003a FFF7FEFF 		bl	DS1302_write
 129:..\src/SD_RTC_functions.c ****     DS1302_write(DS1302_MONTH_WR, (((g_mem.curr_time[1] / 10)*16) + (g_mem.curr_time[1] % 10)));
 521              		.loc 1 129 0
 522 003e 494B     		ldr	r3, .L16
 523 0040 93F85130 		ldrb	r3, [r3, #81]	@ zero_extendqisi2
 524 0044 484A     		ldr	r2, .L16+4
 525 0046 A2FB0323 		umull	r2, r3, r2, r3
 526 004a DB08     		lsrs	r3, r3, #3
 527 004c DBB2     		uxtb	r3, r3
 528 004e 1B01     		lsls	r3, r3, #4
 529 0050 D8B2     		uxtb	r0, r3
 530 0052 444B     		ldr	r3, .L16
 531 0054 93F85120 		ldrb	r2, [r3, #81]	@ zero_extendqisi2
 532 0058 434B     		ldr	r3, .L16+4
 533 005a A3FB0213 		umull	r1, r3, r3, r2
 534 005e D908     		lsrs	r1, r3, #3
 535 0060 0B46     		mov	r3, r1
 536 0062 9B00     		lsls	r3, r3, #2
 537 0064 0B44     		add	r3, r3, r1
 538 0066 5B00     		lsls	r3, r3, #1
 539 0068 D31A     		subs	r3, r2, r3
 540 006a DBB2     		uxtb	r3, r3
 541 006c 0344     		add	r3, r3, r0
 542 006e DBB2     		uxtb	r3, r3
 543 0070 1946     		mov	r1, r3
 544 0072 8820     		movs	r0, #136
 545 0074 FFF7FEFF 		bl	DS1302_write
 130:..\src/SD_RTC_functions.c ****     DS1302_write(DS1302_YEAR_WR, (((g_mem.curr_time[2] / 10)*16) + (g_mem.curr_time[2] % 10)));
 546              		.loc 1 130 0
 547 0078 3A4B     		ldr	r3, .L16
 548 007a 93F85230 		ldrb	r3, [r3, #82]	@ zero_extendqisi2
 549 007e 3A4A     		ldr	r2, .L16+4
 550 0080 A2FB0323 		umull	r2, r3, r2, r3
ARM GAS  C:\Users\MattiaCP\AppData\Local\Temp\ccE1Wg8b.s 			page 13


 551 0084 DB08     		lsrs	r3, r3, #3
 552 0086 DBB2     		uxtb	r3, r3
 553 0088 1B01     		lsls	r3, r3, #4
 554 008a D8B2     		uxtb	r0, r3
 555 008c 354B     		ldr	r3, .L16
 556 008e 93F85220 		ldrb	r2, [r3, #82]	@ zero_extendqisi2
 557 0092 354B     		ldr	r3, .L16+4
 558 0094 A3FB0213 		umull	r1, r3, r3, r2
 559 0098 D908     		lsrs	r1, r3, #3
 560 009a 0B46     		mov	r3, r1
 561 009c 9B00     		lsls	r3, r3, #2
 562 009e 0B44     		add	r3, r3, r1
 563 00a0 5B00     		lsls	r3, r3, #1
 564 00a2 D31A     		subs	r3, r2, r3
 565 00a4 DBB2     		uxtb	r3, r3
 566 00a6 0344     		add	r3, r3, r0
 567 00a8 DBB2     		uxtb	r3, r3
 568 00aa 1946     		mov	r1, r3
 569 00ac 8C20     		movs	r0, #140
 570 00ae FFF7FEFF 		bl	DS1302_write
 131:..\src/SD_RTC_functions.c ****     DS1302_write(DS1302_HOUR_WR, (((g_mem.curr_time[3] / 10)*16) + (g_mem.curr_time[3] % 10)));
 571              		.loc 1 131 0
 572 00b2 2C4B     		ldr	r3, .L16
 573 00b4 93F85330 		ldrb	r3, [r3, #83]	@ zero_extendqisi2
 574 00b8 2B4A     		ldr	r2, .L16+4
 575 00ba A2FB0323 		umull	r2, r3, r2, r3
 576 00be DB08     		lsrs	r3, r3, #3
 577 00c0 DBB2     		uxtb	r3, r3
 578 00c2 1B01     		lsls	r3, r3, #4
 579 00c4 D8B2     		uxtb	r0, r3
 580 00c6 274B     		ldr	r3, .L16
 581 00c8 93F85320 		ldrb	r2, [r3, #83]	@ zero_extendqisi2
 582 00cc 264B     		ldr	r3, .L16+4
 583 00ce A3FB0213 		umull	r1, r3, r3, r2
 584 00d2 D908     		lsrs	r1, r3, #3
 585 00d4 0B46     		mov	r3, r1
 586 00d6 9B00     		lsls	r3, r3, #2
 587 00d8 0B44     		add	r3, r3, r1
 588 00da 5B00     		lsls	r3, r3, #1
 589 00dc D31A     		subs	r3, r2, r3
 590 00de DBB2     		uxtb	r3, r3
 591 00e0 0344     		add	r3, r3, r0
 592 00e2 DBB2     		uxtb	r3, r3
 593 00e4 1946     		mov	r1, r3
 594 00e6 8420     		movs	r0, #132
 595 00e8 FFF7FEFF 		bl	DS1302_write
 132:..\src/SD_RTC_functions.c ****     DS1302_write(DS1302_MINUTES_WR, (((g_mem.curr_time[4] / 10)*16) + (g_mem.curr_time[4] % 10)));
 596              		.loc 1 132 0
 597 00ec 1D4B     		ldr	r3, .L16
 598 00ee 93F85430 		ldrb	r3, [r3, #84]	@ zero_extendqisi2
 599 00f2 1D4A     		ldr	r2, .L16+4
 600 00f4 A2FB0323 		umull	r2, r3, r2, r3
 601 00f8 DB08     		lsrs	r3, r3, #3
 602 00fa DBB2     		uxtb	r3, r3
 603 00fc 1B01     		lsls	r3, r3, #4
 604 00fe D8B2     		uxtb	r0, r3
 605 0100 184B     		ldr	r3, .L16
ARM GAS  C:\Users\MattiaCP\AppData\Local\Temp\ccE1Wg8b.s 			page 14


 606 0102 93F85420 		ldrb	r2, [r3, #84]	@ zero_extendqisi2
 607 0106 184B     		ldr	r3, .L16+4
 608 0108 A3FB0213 		umull	r1, r3, r3, r2
 609 010c D908     		lsrs	r1, r3, #3
 610 010e 0B46     		mov	r3, r1
 611 0110 9B00     		lsls	r3, r3, #2
 612 0112 0B44     		add	r3, r3, r1
 613 0114 5B00     		lsls	r3, r3, #1
 614 0116 D31A     		subs	r3, r2, r3
 615 0118 DBB2     		uxtb	r3, r3
 616 011a 0344     		add	r3, r3, r0
 617 011c DBB2     		uxtb	r3, r3
 618 011e 1946     		mov	r1, r3
 619 0120 8220     		movs	r0, #130
 620 0122 FFF7FEFF 		bl	DS1302_write
 133:..\src/SD_RTC_functions.c ****     DS1302_write(DS1302_SECONDS_WR, (((g_mem.curr_time[5] / 10)*16) + (g_mem.curr_time[5] % 10)));
 621              		.loc 1 133 0
 622 0126 0F4B     		ldr	r3, .L16
 623 0128 93F85530 		ldrb	r3, [r3, #85]	@ zero_extendqisi2
 624 012c 0E4A     		ldr	r2, .L16+4
 625 012e A2FB0323 		umull	r2, r3, r2, r3
 626 0132 DB08     		lsrs	r3, r3, #3
 627 0134 DBB2     		uxtb	r3, r3
 628 0136 1B01     		lsls	r3, r3, #4
 629 0138 D8B2     		uxtb	r0, r3
 630 013a 0A4B     		ldr	r3, .L16
 631 013c 93F85520 		ldrb	r2, [r3, #85]	@ zero_extendqisi2
 632 0140 094B     		ldr	r3, .L16+4
 633 0142 A3FB0213 		umull	r1, r3, r3, r2
 634 0146 D908     		lsrs	r1, r3, #3
 635 0148 0B46     		mov	r3, r1
 636 014a 9B00     		lsls	r3, r3, #2
 637 014c 0B44     		add	r3, r3, r1
 638 014e 5B00     		lsls	r3, r3, #1
 639 0150 D31A     		subs	r3, r2, r3
 640 0152 DBB2     		uxtb	r3, r3
 641 0154 0344     		add	r3, r3, r0
 642 0156 DBB2     		uxtb	r3, r3
 643 0158 1946     		mov	r1, r3
 644 015a 8020     		movs	r0, #128
 645 015c FFF7FEFF 		bl	DS1302_write
 134:..\src/SD_RTC_functions.c **** }
 646              		.loc 1 134 0
 647 0160 00BF     		nop
 648 0162 80BD     		pop	{r7, pc}
 649              	.L17:
 650              		.align	2
 651              	.L16:
 652 0164 00000000 		.word	g_mem
 653 0168 CDCCCCCC 		.word	-858993459
 654              		.cfi_endproc
 655              	.LFE70:
 656              		.size	set_RTC_time, .-set_RTC_time
 657              		.section	.rodata
 658              		.align	2
 659              	.LC2:
 660 0000 5C253032 		.ascii	"\\%02d_20%02d\000"
ARM GAS  C:\Users\MattiaCP\AppData\Local\Temp\ccE1Wg8b.s 			page 15


 660      645F3230 
 660      25303264 
 660      00
 661 000d 000000   		.align	2
 662              	.LC3:
 663 0010 25735C25 		.ascii	"%s\\%02d\000"
 663      30326400 
 664              		.align	2
 665              	.LC4:
 666 0018 25735C25 		.ascii	"%s\\%s_%d.txt\000"
 666      735F2564 
 666      2E747874 
 666      00
 667 0025 000000   		.align	2
 668              	.LC5:
 669 0028 7200     		.ascii	"r\000"
 670 002a 0000     		.align	2
 671              	.LC6:
 672 002c 6100     		.ascii	"a\000"
 673 002e 0000     		.align	2
 674              	.LC0:
 675 0030 55736553 		.ascii	"UseStats\000"
 675      74617473 
 675      00
 676 0039 00       		.space	1
 677 003a 0000     		.align	2
 678              	.LC1:
 679 003c 50617261 		.ascii	"Param\000"
 679      6D00
 680 0042 00       		.space	1
 681              		.section	.text.InitSD_FS,"ax",%progbits
 682              		.align	2
 683              		.global	InitSD_FS
 684              		.thumb
 685              		.thumb_func
 686              		.type	InitSD_FS, %function
 687              	InitSD_FS:
 688              	.LFB71:
 135:..\src/SD_RTC_functions.c **** 
 136:..\src/SD_RTC_functions.c **** /*******************************************************************************
 137:..\src/SD_RTC_functions.c **** * Function Name: Init SD Filesystem
 138:..\src/SD_RTC_functions.c **** *********************************************************************************/
 139:..\src/SD_RTC_functions.c **** void InitSD_FS()
 140:..\src/SD_RTC_functions.c **** {
 689              		.loc 1 140 0
 690              		.cfi_startproc
 691              		@ args = 0, pretend = 0, frame = 1440
 692              		@ frame_needed = 1, uses_anonymous_args = 0
 693 0000 90B5     		push	{r4, r7, lr}
 694              		.cfi_def_cfa_offset 12
 695              		.cfi_offset 4, -12
 696              		.cfi_offset 7, -8
 697              		.cfi_offset 14, -4
 698 0002 ADF2AC5D 		subw	sp, sp, #1452
 699              		.cfi_def_cfa_offset 1464
 700 0006 02AF     		add	r7, sp, #8
 701              		.cfi_def_cfa 7, 1456
ARM GAS  C:\Users\MattiaCP\AppData\Local\Temp\ccE1Wg8b.s 			page 16


 141:..\src/SD_RTC_functions.c ****     //char sdFile[12] = "";              // No long file name (LFN) support enabled. Max 12 chars f
 142:..\src/SD_RTC_functions.c ****     char sdFile[100] = "";
 702              		.loc 1 142 0
 703 0008 0023     		movs	r3, #0
 704 000a C7F82835 		str	r3, [r7, #1320]
 705 000e 07F22C53 		addw	r3, r7, #1324
 706 0012 6022     		movs	r2, #96
 707 0014 0021     		movs	r1, #0
 708 0016 1846     		mov	r0, r3
 709 0018 FFF7FEFF 		bl	memset
 143:..\src/SD_RTC_functions.c ****     char sdParam[100] = "";
 710              		.loc 1 143 0
 711 001c 0023     		movs	r3, #0
 712 001e C7F8C434 		str	r3, [r7, #1220]
 713 0022 07F59963 		add	r3, r7, #1224
 714 0026 6022     		movs	r2, #96
 715 0028 0021     		movs	r1, #0
 716 002a 1846     		mov	r0, r3
 717 002c FFF7FEFF 		bl	memset
 144:..\src/SD_RTC_functions.c ****     char sdDir[100] = "";
 718              		.loc 1 144 0
 719 0030 07F58C63 		add	r3, r7, #1120
 720 0034 0022     		movs	r2, #0
 721 0036 1A60     		str	r2, [r3]
 722 0038 0433     		adds	r3, r3, #4
 723 003a 6022     		movs	r2, #96
 724 003c 0021     		movs	r1, #0
 725 003e 1846     		mov	r0, r3
 726 0040 FFF7FEFF 		bl	memset
 145:..\src/SD_RTC_functions.c ****     char lastsdParam[100] = "";
 727              		.loc 1 145 0
 728 0044 07F57F73 		add	r3, r7, #1020
 729 0048 0022     		movs	r2, #0
 730 004a 1A60     		str	r2, [r3]
 731 004c 0433     		adds	r3, r3, #4
 732 004e 6022     		movs	r2, #96
 733 0050 0021     		movs	r1, #0
 734 0052 1846     		mov	r0, r3
 735 0054 FFF7FEFF 		bl	memset
 146:..\src/SD_RTC_functions.c ****     char info_[500] = "";
 736              		.loc 1 146 0
 737 0058 07F50273 		add	r3, r7, #520
 738 005c 0022     		movs	r2, #0
 739 005e 1A60     		str	r2, [r3]
 740 0060 0433     		adds	r3, r3, #4
 741 0062 4FF4F872 		mov	r2, #496
 742 0066 0021     		movs	r1, #0
 743 0068 1846     		mov	r0, r3
 744 006a FFF7FEFF 		bl	memset
 147:..\src/SD_RTC_functions.c ****     char info_read_[500] = "";
 745              		.loc 1 147 0
 746 006e 07F11403 		add	r3, r7, #20
 747 0072 0022     		movs	r2, #0
 748 0074 1A60     		str	r2, [r3]
 749 0076 0433     		adds	r3, r3, #4
 750 0078 4FF4F872 		mov	r2, #496
 751 007c 0021     		movs	r1, #0
ARM GAS  C:\Users\MattiaCP\AppData\Local\Temp\ccE1Wg8b.s 			page 17


 752 007e 1846     		mov	r0, r3
 753 0080 FFF7FEFF 		bl	memset
 148:..\src/SD_RTC_functions.c ****     char Data_filename[10] = "UseStats";
 754              		.loc 1 148 0
 755 0084 07F10804 		add	r4, r7, #8
 756 0088 994A     		ldr	r2, .L26
 757 008a 2346     		mov	r3, r4
 758 008c 07CA     		ldmia	r2, {r0, r1, r2}
 759 008e 03C3     		stmia	r3!, {r0, r1}
 760 0090 1A70     		strb	r2, [r3]
 761 0092 0023     		movs	r3, #0
 762 0094 6372     		strb	r3, [r4, #9]
 149:..\src/SD_RTC_functions.c ****     char Param_filename[7] = "Param";
 763              		.loc 1 149 0
 764 0096 3A46     		mov	r2, r7
 765 0098 9649     		ldr	r1, .L26+4
 766 009a 1346     		mov	r3, r2
 767 009c 03C9     		ldmia	r1, {r0, r1}
 768 009e 1860     		str	r0, [r3]
 769 00a0 0433     		adds	r3, r3, #4
 770 00a2 1980     		strh	r1, [r3]	@ movhi
 771 00a4 0023     		movs	r3, #0
 772 00a6 9371     		strb	r3, [r2, #6]
 150:..\src/SD_RTC_functions.c ****     uint8 Write_new_info = TRUE;
 773              		.loc 1 150 0
 774 00a8 0123     		movs	r3, #1
 775 00aa 87F89F35 		strb	r3, [r7, #1439]
 151:..\src/SD_RTC_functions.c ****     uint8 num_files = 0;
 776              		.loc 1 151 0
 777 00ae 0023     		movs	r3, #0
 778 00b0 87F89E35 		strb	r3, [r7, #1438]
 152:..\src/SD_RTC_functions.c ****     FS_FILE* pParam;
 153:..\src/SD_RTC_functions.c ****     FS_FILE* pFile_read;
 154:..\src/SD_RTC_functions.c ****     FS_DIR *pDir;
 155:..\src/SD_RTC_functions.c ****     uint32 i = 0;
 779              		.loc 1 155 0
 780 00b4 0023     		movs	r3, #0
 781 00b6 C7F89835 		str	r3, [r7, #1432]
 156:..\src/SD_RTC_functions.c ****     
 157:..\src/SD_RTC_functions.c ****     FS_Init();
 782              		.loc 1 157 0
 783 00ba FFF7FEFF 		bl	FS_Init
 158:..\src/SD_RTC_functions.c ****     FS_FAT_SupportLFN();
 784              		.loc 1 158 0
 785 00be FFF7FEFF 		bl	FS_FAT_SupportLFN
 159:..\src/SD_RTC_functions.c ****         
 160:..\src/SD_RTC_functions.c ****     // Create Filesystem with MM_YYYY\DD folder
 161:..\src/SD_RTC_functions.c ****     sprintf(sdDir, "\\%02d_20%02d", g_mem.curr_time[1], g_mem.curr_time[2]); 
 786              		.loc 1 161 0
 787 00c2 8D4B     		ldr	r3, .L26+8
 788 00c4 93F85130 		ldrb	r3, [r3, #81]	@ zero_extendqisi2
 789 00c8 1A46     		mov	r2, r3
 790 00ca 8B4B     		ldr	r3, .L26+8
 791 00cc 93F85230 		ldrb	r3, [r3, #82]	@ zero_extendqisi2
 792 00d0 07F58C60 		add	r0, r7, #1120
 793 00d4 8949     		ldr	r1, .L26+12
 794 00d6 FFF7FEFF 		bl	sprintf
ARM GAS  C:\Users\MattiaCP\AppData\Local\Temp\ccE1Wg8b.s 			page 18


 162:..\src/SD_RTC_functions.c ****     FS_MkDir(sdDir);
 795              		.loc 1 162 0
 796 00da 07F58C63 		add	r3, r7, #1120
 797 00de 1846     		mov	r0, r3
 798 00e0 FFF7FEFF 		bl	FS_MkDir
 163:..\src/SD_RTC_functions.c ****     sprintf(sdDir, "%s\\%02d", sdDir, g_mem.curr_time[0]);
 799              		.loc 1 163 0
 800 00e4 844B     		ldr	r3, .L26+8
 801 00e6 93F85030 		ldrb	r3, [r3, #80]	@ zero_extendqisi2
 802 00ea 07F58C62 		add	r2, r7, #1120
 803 00ee 07F58C60 		add	r0, r7, #1120
 804 00f2 8349     		ldr	r1, .L26+16
 805 00f4 FFF7FEFF 		bl	sprintf
 164:..\src/SD_RTC_functions.c ****     FS_MkDir(sdDir);
 806              		.loc 1 164 0
 807 00f8 07F58C63 		add	r3, r7, #1120
 808 00fc 1846     		mov	r0, r3
 809 00fe FFF7FEFF 		bl	FS_MkDir
 165:..\src/SD_RTC_functions.c ****     
 166:..\src/SD_RTC_functions.c ****     // Create param info
 167:..\src/SD_RTC_functions.c ****     prepare_SD_param_info(info_);
 810              		.loc 1 167 0
 811 0102 07F50273 		add	r3, r7, #520
 812 0106 1846     		mov	r0, r3
 813 0108 FFF7FEFF 		bl	prepare_SD_param_info
 168:..\src/SD_RTC_functions.c ****             
 169:..\src/SD_RTC_functions.c ****     // Open folder and count the number of files, it should be even (1 param and 1 data file)
 170:..\src/SD_RTC_functions.c ****     pDir = FS_OpenDir(sdDir);
 814              		.loc 1 170 0
 815 010c 07F58C63 		add	r3, r7, #1120
 816 0110 1846     		mov	r0, r3
 817 0112 FFF7FEFF 		bl	FS_OpenDir
 818 0116 C7F89405 		str	r0, [r7, #1428]
 171:..\src/SD_RTC_functions.c ****     num_files = FS_GetNumFiles(pDir);    
 819              		.loc 1 171 0
 820 011a D7F89405 		ldr	r0, [r7, #1428]
 821 011e FFF7FEFF 		bl	FS_GetNumFiles
 822 0122 0346     		mov	r3, r0
 823 0124 87F89E35 		strb	r3, [r7, #1438]
 172:..\src/SD_RTC_functions.c **** 
 173:..\src/SD_RTC_functions.c ****     // Prepare filenames
 174:..\src/SD_RTC_functions.c **** 
 175:..\src/SD_RTC_functions.c ****     if (num_files != 0) {
 824              		.loc 1 175 0
 825 0128 97F89E35 		ldrb	r3, [r7, #1438]	@ zero_extendqisi2
 826 012c 002B     		cmp	r3, #0
 827 012e 7FD0     		beq	.L19
 176:..\src/SD_RTC_functions.c ****         // The directory is not empty
 177:..\src/SD_RTC_functions.c ****          
 178:..\src/SD_RTC_functions.c ****         // Decide whether to create new param and data files or not
 179:..\src/SD_RTC_functions.c ****         sprintf(lastsdParam, "%s\\%s_%d.txt", sdDir, Param_filename, (num_files/2) - 1);
 828              		.loc 1 179 0
 829 0130 97F89E35 		ldrb	r3, [r7, #1438]	@ zero_extendqisi2
 830 0134 5B08     		lsrs	r3, r3, #1
 831 0136 DBB2     		uxtb	r3, r3
 832 0138 013B     		subs	r3, r3, #1
 833 013a 3946     		mov	r1, r7
ARM GAS  C:\Users\MattiaCP\AppData\Local\Temp\ccE1Wg8b.s 			page 19


 834 013c 07F58C62 		add	r2, r7, #1120
 835 0140 07F57F70 		add	r0, r7, #1020
 836 0144 0093     		str	r3, [sp]
 837 0146 0B46     		mov	r3, r1
 838 0148 6E49     		ldr	r1, .L26+20
 839 014a FFF7FEFF 		bl	sprintf
 180:..\src/SD_RTC_functions.c **** 
 181:..\src/SD_RTC_functions.c ****         pFile_read = FS_FOpen(lastsdParam, "r"); 
 840              		.loc 1 181 0
 841 014e 07F57F73 		add	r3, r7, #1020
 842 0152 6D49     		ldr	r1, .L26+24
 843 0154 1846     		mov	r0, r3
 844 0156 FFF7FEFF 		bl	FS_FOpen
 845 015a C7F89005 		str	r0, [r7, #1424]
 182:..\src/SD_RTC_functions.c ****         if (pFile_read != 0) {
 846              		.loc 1 182 0
 847 015e D7F89035 		ldr	r3, [r7, #1424]
 848 0162 002B     		cmp	r3, #0
 849 0164 5FD0     		beq	.L20
 183:..\src/SD_RTC_functions.c ****             i = FS_FRead(info_read_, 1, sizeof(info_read_) - 1, pFile_read);
 850              		.loc 1 183 0
 851 0166 07F11400 		add	r0, r7, #20
 852 016a D7F89035 		ldr	r3, [r7, #1424]
 853 016e 40F2F312 		movw	r2, #499
 854 0172 0121     		movs	r1, #1
 855 0174 FFF7FEFF 		bl	FS_FRead
 856 0178 C7F89805 		str	r0, [r7, #1432]
 184:..\src/SD_RTC_functions.c ****             info_read_[i] = 0;
 857              		.loc 1 184 0
 858 017c 07F11402 		add	r2, r7, #20
 859 0180 D7F89835 		ldr	r3, [r7, #1432]
 860 0184 1344     		add	r3, r3, r2
 861 0186 0022     		movs	r2, #0
 862 0188 1A70     		strb	r2, [r3]
 185:..\src/SD_RTC_functions.c ****             if (strcmp(info_, info_read_)) {    // if different
 863              		.loc 1 185 0
 864 018a 07F11402 		add	r2, r7, #20
 865 018e 07F50273 		add	r3, r7, #520
 866 0192 1146     		mov	r1, r2
 867 0194 1846     		mov	r0, r3
 868 0196 FFF7FEFF 		bl	strcmp
 869 019a 0346     		mov	r3, r0
 870 019c 002B     		cmp	r3, #0
 871 019e 20D0     		beq	.L21
 186:..\src/SD_RTC_functions.c ****                 Write_new_info = TRUE;
 872              		.loc 1 186 0
 873 01a0 0123     		movs	r3, #1
 874 01a2 87F89F35 		strb	r3, [r7, #1439]
 187:..\src/SD_RTC_functions.c ****                 sprintf(sdParam, "%s\\%s_%d.txt", sdDir, Param_filename, num_files/2);  // new para
 875              		.loc 1 187 0
 876 01a6 97F89E35 		ldrb	r3, [r7, #1438]	@ zero_extendqisi2
 877 01aa 5B08     		lsrs	r3, r3, #1
 878 01ac DBB2     		uxtb	r3, r3
 879 01ae 1946     		mov	r1, r3
 880 01b0 3B46     		mov	r3, r7
 881 01b2 07F58C62 		add	r2, r7, #1120
 882 01b6 07F2C440 		addw	r0, r7, #1220
ARM GAS  C:\Users\MattiaCP\AppData\Local\Temp\ccE1Wg8b.s 			page 20


 883 01ba 0091     		str	r1, [sp]
 884 01bc 5149     		ldr	r1, .L26+20
 885 01be FFF7FEFF 		bl	sprintf
 188:..\src/SD_RTC_functions.c ****                 sprintf(sdFile, "%s\\%s_%d.txt", sdDir, Data_filename, num_files/2);    // new data
 886              		.loc 1 188 0
 887 01c2 97F89E35 		ldrb	r3, [r7, #1438]	@ zero_extendqisi2
 888 01c6 5B08     		lsrs	r3, r3, #1
 889 01c8 DBB2     		uxtb	r3, r3
 890 01ca 1946     		mov	r1, r3
 891 01cc 07F10803 		add	r3, r7, #8
 892 01d0 07F58C62 		add	r2, r7, #1120
 893 01d4 07F5A560 		add	r0, r7, #1320
 894 01d8 0091     		str	r1, [sp]
 895 01da 4A49     		ldr	r1, .L26+20
 896 01dc FFF7FEFF 		bl	sprintf
 897 01e0 21E0     		b	.L20
 898              	.L21:
 189:..\src/SD_RTC_functions.c ****             }
 190:..\src/SD_RTC_functions.c ****             else {
 191:..\src/SD_RTC_functions.c ****                 sprintf(sdParam, "%s\\%s_%d.txt", sdDir, Param_filename, (num_files/2)-1);  // last
 899              		.loc 1 191 0
 900 01e2 97F89E35 		ldrb	r3, [r7, #1438]	@ zero_extendqisi2
 901 01e6 5B08     		lsrs	r3, r3, #1
 902 01e8 DBB2     		uxtb	r3, r3
 903 01ea 013B     		subs	r3, r3, #1
 904 01ec 3946     		mov	r1, r7
 905 01ee 07F58C62 		add	r2, r7, #1120
 906 01f2 07F2C440 		addw	r0, r7, #1220
 907 01f6 0093     		str	r3, [sp]
 908 01f8 0B46     		mov	r3, r1
 909 01fa 4249     		ldr	r1, .L26+20
 910 01fc FFF7FEFF 		bl	sprintf
 192:..\src/SD_RTC_functions.c ****                 sprintf(sdFile, "%s\\%s_%d.txt", sdDir, Data_filename, (num_files/2)-1);    // last
 911              		.loc 1 192 0
 912 0200 97F89E35 		ldrb	r3, [r7, #1438]	@ zero_extendqisi2
 913 0204 5B08     		lsrs	r3, r3, #1
 914 0206 DBB2     		uxtb	r3, r3
 915 0208 013B     		subs	r3, r3, #1
 916 020a 07F10801 		add	r1, r7, #8
 917 020e 07F58C62 		add	r2, r7, #1120
 918 0212 07F5A560 		add	r0, r7, #1320
 919 0216 0093     		str	r3, [sp]
 920 0218 0B46     		mov	r3, r1
 921 021a 3A49     		ldr	r1, .L26+20
 922 021c FFF7FEFF 		bl	sprintf
 193:..\src/SD_RTC_functions.c ****                 Write_new_info = FALSE;
 923              		.loc 1 193 0
 924 0220 0023     		movs	r3, #0
 925 0222 87F89F35 		strb	r3, [r7, #1439]
 926              	.L20:
 194:..\src/SD_RTC_functions.c ****             }
 195:..\src/SD_RTC_functions.c ****         }
 196:..\src/SD_RTC_functions.c ****         FS_FClose(pFile_read);
 927              		.loc 1 196 0
 928 0226 D7F89005 		ldr	r0, [r7, #1424]
 929 022a FFF7FEFF 		bl	FS_FClose
 930 022e 19E0     		b	.L22
ARM GAS  C:\Users\MattiaCP\AppData\Local\Temp\ccE1Wg8b.s 			page 21


 931              	.L19:
 197:..\src/SD_RTC_functions.c ****     } 
 198:..\src/SD_RTC_functions.c ****     else {
 199:..\src/SD_RTC_functions.c ****         // The directory is empty
 200:..\src/SD_RTC_functions.c ****         sprintf(sdParam, "%s\\%s_%d.txt", sdDir, Param_filename, 0);  // first param filename
 932              		.loc 1 200 0
 933 0230 3946     		mov	r1, r7
 934 0232 07F58C62 		add	r2, r7, #1120
 935 0236 07F2C440 		addw	r0, r7, #1220
 936 023a 0023     		movs	r3, #0
 937 023c 0093     		str	r3, [sp]
 938 023e 0B46     		mov	r3, r1
 939 0240 3049     		ldr	r1, .L26+20
 940 0242 FFF7FEFF 		bl	sprintf
 201:..\src/SD_RTC_functions.c ****         sprintf(sdFile, "%s\\%s_%d.txt", sdDir, Data_filename, 0);    //first data filename
 941              		.loc 1 201 0
 942 0246 07F10801 		add	r1, r7, #8
 943 024a 07F58C62 		add	r2, r7, #1120
 944 024e 07F5A560 		add	r0, r7, #1320
 945 0252 0023     		movs	r3, #0
 946 0254 0093     		str	r3, [sp]
 947 0256 0B46     		mov	r3, r1
 948 0258 2A49     		ldr	r1, .L26+20
 949 025a FFF7FEFF 		bl	sprintf
 202:..\src/SD_RTC_functions.c ****         Write_new_info = TRUE;
 950              		.loc 1 202 0
 951 025e 0123     		movs	r3, #1
 952 0260 87F89F35 		strb	r3, [r7, #1439]
 953              	.L22:
 203:..\src/SD_RTC_functions.c ****     } 
 204:..\src/SD_RTC_functions.c ****     FS_CloseDir(pDir);
 954              		.loc 1 204 0
 955 0264 D7F89405 		ldr	r0, [r7, #1428]
 956 0268 FFF7FEFF 		bl	FS_CloseDir
 205:..\src/SD_RTC_functions.c ****     
 206:..\src/SD_RTC_functions.c ****     // Write chosen data in SD card        
 207:..\src/SD_RTC_functions.c ****     if (Write_new_info) {            
 957              		.loc 1 207 0
 958 026c 97F89F35 		ldrb	r3, [r7, #1439]	@ zero_extendqisi2
 959 0270 002B     		cmp	r3, #0
 960 0272 18D0     		beq	.L23
 208:..\src/SD_RTC_functions.c ****         pParam = FS_FOpen(sdParam, "a");
 961              		.loc 1 208 0
 962 0274 07F2C443 		addw	r3, r7, #1220
 963 0278 2449     		ldr	r1, .L26+28
 964 027a 1846     		mov	r0, r3
 965 027c FFF7FEFF 		bl	FS_FOpen
 966 0280 C7F88C05 		str	r0, [r7, #1420]
 209:..\src/SD_RTC_functions.c ****         //info_ string has been already created
 210:..\src/SD_RTC_functions.c ****         FS_Write(pParam, info_, strlen(info_));
 967              		.loc 1 210 0
 968 0284 07F50273 		add	r3, r7, #520
 969 0288 1846     		mov	r0, r3
 970 028a FFF7FEFF 		bl	strlen
 971 028e 0246     		mov	r2, r0
 972 0290 07F50273 		add	r3, r7, #520
 973 0294 1946     		mov	r1, r3
ARM GAS  C:\Users\MattiaCP\AppData\Local\Temp\ccE1Wg8b.s 			page 22


 974 0296 D7F88C05 		ldr	r0, [r7, #1420]
 975 029a FFF7FEFF 		bl	FS_Write
 211:..\src/SD_RTC_functions.c ****         FS_FClose(pParam);
 976              		.loc 1 211 0
 977 029e D7F88C05 		ldr	r0, [r7, #1420]
 978 02a2 FFF7FEFF 		bl	FS_FClose
 979              	.L23:
 212:..\src/SD_RTC_functions.c ****     }
 213:..\src/SD_RTC_functions.c ****     
 214:..\src/SD_RTC_functions.c ****     // Open chosen data file in append mode
 215:..\src/SD_RTC_functions.c ****     pFile = FS_FOpen(sdFile, "a");
 980              		.loc 1 215 0
 981 02a6 07F5A563 		add	r3, r7, #1320
 982 02aa 1849     		ldr	r1, .L26+28
 983 02ac 1846     		mov	r0, r3
 984 02ae FFF7FEFF 		bl	FS_FOpen
 985 02b2 0246     		mov	r2, r0
 986 02b4 164B     		ldr	r3, .L26+32
 987 02b6 1A60     		str	r2, [r3]
 216:..\src/SD_RTC_functions.c ****     if (Write_new_info) { 
 988              		.loc 1 216 0
 989 02b8 97F89F35 		ldrb	r3, [r7, #1439]	@ zero_extendqisi2
 990 02bc 002B     		cmp	r3, #0
 991 02be 12D0     		beq	.L25
 217:..\src/SD_RTC_functions.c ****         // The file doesn't exist, so write legend info inside
 218:..\src/SD_RTC_functions.c ****         prepare_SD_legend(info_);
 992              		.loc 1 218 0
 993 02c0 07F50273 		add	r3, r7, #520
 994 02c4 1846     		mov	r0, r3
 995 02c6 FFF7FEFF 		bl	prepare_SD_legend
 219:..\src/SD_RTC_functions.c ****         FS_Write(pFile, info_, strlen(info_));
 996              		.loc 1 219 0
 997 02ca 114B     		ldr	r3, .L26+32
 998 02cc 1C68     		ldr	r4, [r3]
 999 02ce 07F50273 		add	r3, r7, #520
 1000 02d2 1846     		mov	r0, r3
 1001 02d4 FFF7FEFF 		bl	strlen
 1002 02d8 0246     		mov	r2, r0
 1003 02da 07F50273 		add	r3, r7, #520
 1004 02de 1946     		mov	r1, r3
 1005 02e0 2046     		mov	r0, r4
 1006 02e2 FFF7FEFF 		bl	FS_Write
 1007              	.L25:
 220:..\src/SD_RTC_functions.c ****     }
 221:..\src/SD_RTC_functions.c ****     //FS_FClose(pFile); 
 222:..\src/SD_RTC_functions.c **** }
 1008              		.loc 1 222 0
 1009 02e6 00BF     		nop
 1010 02e8 07F2A457 		addw	r7, r7, #1444
 1011              		.cfi_def_cfa_offset 12
 1012 02ec BD46     		mov	sp, r7
 1013              		.cfi_def_cfa_register 13
 1014              		@ sp needed
 1015 02ee 90BD     		pop	{r4, r7, pc}
 1016              	.L27:
 1017              		.align	2
 1018              	.L26:
ARM GAS  C:\Users\MattiaCP\AppData\Local\Temp\ccE1Wg8b.s 			page 23


 1019 02f0 30000000 		.word	.LC0
 1020 02f4 3C000000 		.word	.LC1
 1021 02f8 00000000 		.word	g_mem
 1022 02fc 00000000 		.word	.LC2
 1023 0300 10000000 		.word	.LC3
 1024 0304 18000000 		.word	.LC4
 1025 0308 28000000 		.word	.LC5
 1026 030c 2C000000 		.word	.LC6
 1027 0310 00000000 		.word	pFile
 1028              		.cfi_endproc
 1029              	.LFE71:
 1030              		.size	InitSD_FS, .-InitSD_FS
 1031              		.section	.text.Write_SD_Param_file,"ax",%progbits
 1032              		.align	2
 1033              		.global	Write_SD_Param_file
 1034              		.thumb
 1035              		.thumb_func
 1036              		.type	Write_SD_Param_file, %function
 1037              	Write_SD_Param_file:
 1038              	.LFB72:
 223:..\src/SD_RTC_functions.c **** 
 224:..\src/SD_RTC_functions.c **** /*******************************************************************************
 225:..\src/SD_RTC_functions.c **** * Function Name: Write SD Param File
 226:..\src/SD_RTC_functions.c **** *********************************************************************************/
 227:..\src/SD_RTC_functions.c **** void Write_SD_Param_file(){
 1039              		.loc 1 227 0
 1040              		.cfi_startproc
 1041              		@ args = 0, pretend = 0, frame = 504
 1042              		@ frame_needed = 1, uses_anonymous_args = 0
 1043 0000 90B5     		push	{r4, r7, lr}
 1044              		.cfi_def_cfa_offset 12
 1045              		.cfi_offset 4, -12
 1046              		.cfi_offset 7, -8
 1047              		.cfi_offset 14, -4
 1048 0002 FFB0     		sub	sp, sp, #508
 1049              		.cfi_def_cfa_offset 520
 1050 0004 00AF     		add	r7, sp, #0
 1051              		.cfi_def_cfa_register 7
 228:..\src/SD_RTC_functions.c ****     char info_[500] = "";
 1052              		.loc 1 228 0
 1053 0006 3B1D     		adds	r3, r7, #4
 1054 0008 0022     		movs	r2, #0
 1055 000a 1A60     		str	r2, [r3]
 1056 000c 0433     		adds	r3, r3, #4
 1057 000e 4FF4F872 		mov	r2, #496
 1058 0012 0021     		movs	r1, #0
 1059 0014 1846     		mov	r0, r3
 1060 0016 FFF7FEFF 		bl	memset
 229:..\src/SD_RTC_functions.c ****     
 230:..\src/SD_RTC_functions.c ****     prepare_SD_param_info(info_);
 1061              		.loc 1 230 0
 1062 001a 3B1D     		adds	r3, r7, #4
 1063 001c 1846     		mov	r0, r3
 1064 001e FFF7FEFF 		bl	prepare_SD_param_info
 231:..\src/SD_RTC_functions.c ****     FS_Write(pFile, info_, strlen(info_));
 1065              		.loc 1 231 0
 1066 0022 084B     		ldr	r3, .L29
ARM GAS  C:\Users\MattiaCP\AppData\Local\Temp\ccE1Wg8b.s 			page 24


 1067 0024 1C68     		ldr	r4, [r3]
 1068 0026 3B1D     		adds	r3, r7, #4
 1069 0028 1846     		mov	r0, r3
 1070 002a FFF7FEFF 		bl	strlen
 1071 002e 0246     		mov	r2, r0
 1072 0030 3B1D     		adds	r3, r7, #4
 1073 0032 1946     		mov	r1, r3
 1074 0034 2046     		mov	r0, r4
 1075 0036 FFF7FEFF 		bl	FS_Write
 232:..\src/SD_RTC_functions.c **** }...
 1076              		.loc 1 232 0
 1077 003a 00BF     		nop
 1078 003c 07F5FE77 		add	r7, r7, #508
 1079              		.cfi_def_cfa_offset 12
 1080 0040 BD46     		mov	sp, r7
 1081              		.cfi_def_cfa_register 13
 1082              		@ sp needed
 1083 0042 90BD     		pop	{r4, r7, pc}
 1084              	.L30:
 1085              		.align	2
 1086              	.L29:
 1087 0044 00000000 		.word	pFile
 1088              		.cfi_endproc
 1089              	.LFE72:
 1090              		.size	Write_SD_Param_file, .-Write_SD_Param_file
 1091              		.text
 1092              	.Letext0:
 1093              		.file 2 "c:\\program files (x86)\\cypress\\psoc creator\\4.2\\psoc creator\\import\\gnu\\arm\\5.4.
 1094              		.file 3 "c:\\program files (x86)\\cypress\\psoc creator\\4.2\\psoc creator\\import\\gnu\\arm\\5.4.
 1095              		.file 4 "Generated_Source\\PSoC5/cytypes.h"
 1096              		.file 5 "..\\emFile_V322c\\Code\\Include\\PSoC5/FS_Types.h"
 1097              		.file 6 "..\\src\\globals.h"
 1098              		.file 7 "Generated_Source\\PSoC5/core_cm3.h"