ARM GAS  C:\Users\MattiaCP\AppData\Local\Temp\ccVW8gGQ.s 			page 1


   1              		.syntax unified
   2              		.cpu cortex-m3
   3              		.fpu softvfp
   4              		.eabi_attribute 20, 1
   5              		.eabi_attribute 21, 1
   6              		.eabi_attribute 23, 3
   7              		.eabi_attribute 24, 1
   8              		.eabi_attribute 25, 1
   9              		.eabi_attribute 26, 1
  10              		.eabi_attribute 30, 6
  11              		.eabi_attribute 34, 1
  12              		.eabi_attribute 18, 4
  13              		.thumb
  14              		.syntax unified
  15              		.file	"SPI_functions.c"
  16              		.text
  17              	.Ltext0:
  18              		.cfi_sections	.debug_frame
  19              		.section	.text.ImusReset,"ax",%progbits
  20              		.align	2
  21              		.global	ImusReset
  22              		.thumb
  23              		.thumb_func
  24              		.type	ImusReset, %function
  25              	ImusReset:
  26              	.LFB64:
  27              		.file 1 "..\\src\\SPI_functions.c"
   1:..\src/SPI_functions.c **** // ----------------------------------------------------------------------------
   2:..\src/SPI_functions.c **** // BSD 3-Clause License
   3:..\src/SPI_functions.c **** 
   4:..\src/SPI_functions.c **** // Copyright (c) 2016, qbrobotics
   5:..\src/SPI_functions.c **** // Copyright (c) 2017-2018, Centro "E.Piaggio"
   6:..\src/SPI_functions.c **** // All rights reserved.
   7:..\src/SPI_functions.c **** 
   8:..\src/SPI_functions.c **** // Redistribution and use in source and binary forms, with or without
   9:..\src/SPI_functions.c **** // modification, are permitted provided that the following conditions are met:
  10:..\src/SPI_functions.c **** 
  11:..\src/SPI_functions.c **** // * Redistributions of source code must retain the above copyright notice, this
  12:..\src/SPI_functions.c **** //   list of conditions and the following disclaimer.
  13:..\src/SPI_functions.c **** 
  14:..\src/SPI_functions.c **** // * Redistributions in binary form must reproduce the above copyright notice,
  15:..\src/SPI_functions.c **** //   this list of conditions and the following disclaimer in the documentation
  16:..\src/SPI_functions.c **** //   and/or other materials provided with the distribution.
  17:..\src/SPI_functions.c **** 
  18:..\src/SPI_functions.c **** // * Neither the name of the copyright holder nor the names of its
  19:..\src/SPI_functions.c **** //   contributors may be used to endorse or promote products derived from
  20:..\src/SPI_functions.c **** //   this software without specific prior written permission.
  21:..\src/SPI_functions.c **** 
  22:..\src/SPI_functions.c **** // THIS SOFTWARE IS PROVIDED BY THE COPYRIGHT HOLDERS AND CONTRIBUTORS "AS IS"
  23:..\src/SPI_functions.c **** // AND ANY EXPRESS OR IMPLIED WARRANTIES, INCLUDING, BUT NOT LIMITED TO, THE
  24:..\src/SPI_functions.c **** // IMPLIED WARRANTIES OF MERCHANTABILITY AND FITNESS FOR A PARTICULAR PURPOSE ARE
  25:..\src/SPI_functions.c **** // DISCLAIMED. IN NO EVENT SHALL THE COPYRIGHT HOLDER OR CONTRIBUTORS BE LIABLE
  26:..\src/SPI_functions.c **** // FOR ANY DIRECT, INDIRECT, INCIDENTAL, SPECIAL, EXEMPLARY, OR CONSEQUENTIAL
  27:..\src/SPI_functions.c **** // DAMAGES (INCLUDING, BUT NOT LIMITED TO, PROCUREMENT OF SUBSTITUTE GOODS OR
  28:..\src/SPI_functions.c **** // SERVICES; LOSS OF USE, DATA, OR PROFITS; OR BUSINESS INTERRUPTION) HOWEVER
  29:..\src/SPI_functions.c **** // CAUSED AND ON ANY THEORY OF LIABILITY, WHETHER IN CONTRACT, STRICT LIABILITY,
  30:..\src/SPI_functions.c **** // OR TORT (INCLUDING NEGLIGENCE OR OTHERWISE) ARISING IN ANY WAY OUT OF THE USE
ARM GAS  C:\Users\MattiaCP\AppData\Local\Temp\ccVW8gGQ.s 			page 2


  31:..\src/SPI_functions.c **** // OF THIS SOFTWARE, EVEN IF ADVISED OF THE POSSIBILITY OF SUCH DAMAGE.
  32:..\src/SPI_functions.c **** // POSSIBILITY OF SUCH DAMAGE.
  33:..\src/SPI_functions.c **** // ----------------------------------------------------------------------------
  34:..\src/SPI_functions.c **** 
  35:..\src/SPI_functions.c **** /**
  36:..\src/SPI_functions.c **** * \file         SPI_functions.c
  37:..\src/SPI_functions.c **** *
  38:..\src/SPI_functions.c **** * \brief        Implementation of SPI module functions.
  39:..\src/SPI_functions.c **** * \date         February 01, 2018
  40:..\src/SPI_functions.c **** * \author       _Centro "E.Piaggio"_
  41:..\src/SPI_functions.c **** * \copyright    (C) 2012-2016 qbrobotics. All rights reserved.
  42:..\src/SPI_functions.c **** * \copyright    (C) 2017-2018 Centro "E.Piaggio". All rights reserved.
  43:..\src/SPI_functions.c **** */
  44:..\src/SPI_functions.c **** 
  45:..\src/SPI_functions.c **** #include "SPI_functions.h"
  46:..\src/SPI_functions.c **** #include "utils.h"
  47:..\src/SPI_functions.c **** #include <SPI_IMU.h>
  48:..\src/SPI_functions.c **** 
  49:..\src/SPI_functions.c **** extern uint8 Accel[N_IMU_MAX][6];
  50:..\src/SPI_functions.c **** extern uint8 Gyro[N_IMU_MAX][6];
  51:..\src/SPI_functions.c **** extern uint8 Mag[N_IMU_MAX][6];
  52:..\src/SPI_functions.c **** extern uint8 MagCal[N_IMU_MAX][3];
  53:..\src/SPI_functions.c **** 
  54:..\src/SPI_functions.c **** /*******************************************************************************
  55:..\src/SPI_functions.c **** * Function Name: Imus Reset
  56:..\src/SPI_functions.c **** *********************************************************************************/	
  57:..\src/SPI_functions.c **** void ImusReset() {
  28              		.loc 1 57 0
  29              		.cfi_startproc
  30              		@ args = 0, pretend = 0, frame = 0
  31              		@ frame_needed = 1, uses_anonymous_args = 0
  32 0000 80B5     		push	{r7, lr}
  33              		.cfi_def_cfa_offset 8
  34              		.cfi_offset 7, -8
  35              		.cfi_offset 14, -4
  36 0002 00AF     		add	r7, sp, #0
  37              		.cfi_def_cfa_register 7
  58:..\src/SPI_functions.c **** 
  59:..\src/SPI_functions.c ****     CyDelay(10);
  38              		.loc 1 59 0
  39 0004 0A20     		movs	r0, #10
  40 0006 FFF7FEFF 		bl	CyDelay
  60:..\src/SPI_functions.c ****     InitIMUgeneral();
  41              		.loc 1 60 0
  42 000a FFF7FEFF 		bl	InitIMUgeneral
  61:..\src/SPI_functions.c **** 
  62:..\src/SPI_functions.c ****     CyDelay(10);
  43              		.loc 1 62 0
  44 000e 0A20     		movs	r0, #10
  45 0010 FFF7FEFF 		bl	CyDelay
  63:..\src/SPI_functions.c ****     
  64:..\src/SPI_functions.c **** }
  46              		.loc 1 64 0
  47 0014 00BF     		nop
  48 0016 80BD     		pop	{r7, pc}
  49              		.cfi_endproc
  50              	.LFE64:
ARM GAS  C:\Users\MattiaCP\AppData\Local\Temp\ccVW8gGQ.s 			page 3


  51              		.size	ImusReset, .-ImusReset
  52              		.section	.text.InitIMU,"ax",%progbits
  53              		.align	2
  54              		.global	InitIMU
  55              		.thumb
  56              		.thumb_func
  57              		.type	InitIMU, %function
  58              	InitIMU:
  59              	.LFB65:
  65:..\src/SPI_functions.c **** 
  66:..\src/SPI_functions.c **** /*******************************************************************************
  67:..\src/SPI_functions.c **** * Function Name: IMU Initialization
  68:..\src/SPI_functions.c **** *********************************************************************************/
  69:..\src/SPI_functions.c **** void InitIMU(){	
  60              		.loc 1 69 0
  61              		.cfi_startproc
  62              		@ args = 0, pretend = 0, frame = 0
  63              		@ frame_needed = 1, uses_anonymous_args = 0
  64 0000 80B5     		push	{r7, lr}
  65              		.cfi_def_cfa_offset 8
  66              		.cfi_offset 7, -8
  67              		.cfi_offset 14, -4
  68 0002 00AF     		add	r7, sp, #0
  69              		.cfi_def_cfa_register 7
  70:..\src/SPI_functions.c ****     
  71:..\src/SPI_functions.c **** 	WriteControlRegister(MPU9250_PWR_MGMT_1, 0x10); 
  70              		.loc 1 71 0
  71 0004 1021     		movs	r1, #16
  72 0006 6B20     		movs	r0, #107
  73 0008 FFF7FEFF 		bl	WriteControlRegister
  72:..\src/SPI_functions.c **** 	CyDelay(10);	
  74              		.loc 1 72 0
  75 000c 0A20     		movs	r0, #10
  76 000e FFF7FEFF 		bl	CyDelay
  73:..\src/SPI_functions.c **** 	WriteControlRegister(MPU9250_USER_CTRL, 0x20);  //I2C master enable - disable I2C (prima 0x30)
  77              		.loc 1 73 0
  78 0012 2021     		movs	r1, #32
  79 0014 6A20     		movs	r0, #106
  80 0016 FFF7FEFF 		bl	WriteControlRegister
  74:..\src/SPI_functions.c **** 	CyDelay(10);
  81              		.loc 1 74 0
  82 001a 0A20     		movs	r0, #10
  83 001c FFF7FEFF 		bl	CyDelay
  75:..\src/SPI_functions.c ****     WriteControlRegister(MPU9250_CONFIG, 0x06); //Gyro & Temp Low Pass Filter 0x01 = 184Hz, 0x02 = 
  84              		.loc 1 75 0
  85 0020 0621     		movs	r1, #6
  86 0022 1A20     		movs	r0, #26
  87 0024 FFF7FEFF 		bl	WriteControlRegister
  76:..\src/SPI_functions.c ****     CyDelay(10);	
  88              		.loc 1 76 0
  89 0028 0A20     		movs	r0, #10
  90 002a FFF7FEFF 		bl	CyDelay
  77:..\src/SPI_functions.c **** 	WriteControlRegister(MPU9250_GYRO_CONFIG , GYRO_SF_2000); //Gyro full scale select 0x00=250°/s 0x
  91              		.loc 1 77 0
  92 002e 1821     		movs	r1, #24
  93 0030 1B20     		movs	r0, #27
  94 0032 FFF7FEFF 		bl	WriteControlRegister
ARM GAS  C:\Users\MattiaCP\AppData\Local\Temp\ccVW8gGQ.s 			page 4


  78:..\src/SPI_functions.c **** 	CyDelay(10);
  95              		.loc 1 78 0
  96 0036 0A20     		movs	r0, #10
  97 0038 FFF7FEFF 		bl	CyDelay
  79:..\src/SPI_functions.c ****     WriteControlRegister(MPU9250_ACCEL_CONFIG, ACC_SF_2G); // Acc full scale select 0x00 = 2g 0x08 
  98              		.loc 1 79 0
  99 003c 0021     		movs	r1, #0
 100 003e 1C20     		movs	r0, #28
 101 0040 FFF7FEFF 		bl	WriteControlRegister
  80:..\src/SPI_functions.c ****     CyDelay(10);
 102              		.loc 1 80 0
 103 0044 0A20     		movs	r0, #10
 104 0046 FFF7FEFF 		bl	CyDelay
  81:..\src/SPI_functions.c ****     WriteControlRegister(MPU9250_ACCEL_CONFIG2, LP_ACC_FREQ_10);   
 105              		.loc 1 81 0
 106 004a 0521     		movs	r1, #5
 107 004c 1D20     		movs	r0, #29
 108 004e FFF7FEFF 		bl	WriteControlRegister
  82:..\src/SPI_functions.c ****     CyDelay(10);
 109              		.loc 1 82 0
 110 0052 0A20     		movs	r0, #10
 111 0054 FFF7FEFF 		bl	CyDelay
  83:..\src/SPI_functions.c **** 	//mag register
  84:..\src/SPI_functions.c **** 	WriteControlRegister(MPU9250_I2C_MST_CTRL, 0x0D); //set slave I2C speed
 112              		.loc 1 84 0
 113 0058 0D21     		movs	r1, #13
 114 005a 2420     		movs	r0, #36
 115 005c FFF7FEFF 		bl	WriteControlRegister
  85:..\src/SPI_functions.c **** 	CyDelay(10);
 116              		.loc 1 85 0
 117 0060 0A20     		movs	r0, #10
 118 0062 FFF7FEFF 		bl	CyDelay
  86:..\src/SPI_functions.c **** 	//SLV0 (use to write)
  87:..\src/SPI_functions.c **** 	WriteControlRegister(MPU9250_I2C_SLV0_ADDR, 0x0C); //set compass address
 119              		.loc 1 87 0
 120 0066 0C21     		movs	r1, #12
 121 0068 2520     		movs	r0, #37
 122 006a FFF7FEFF 		bl	WriteControlRegister
  88:..\src/SPI_functions.c **** 	CyDelay(10);			
 123              		.loc 1 88 0
 124 006e 0A20     		movs	r0, #10
 125 0070 FFF7FEFF 		bl	CyDelay
  89:..\src/SPI_functions.c **** 	WriteControlRegister(MPU9250_I2C_SLV0_REG, AK8936_CNTL); //compass mode register
 126              		.loc 1 89 0
 127 0074 0A21     		movs	r1, #10
 128 0076 2620     		movs	r0, #38
 129 0078 FFF7FEFF 		bl	WriteControlRegister
  90:..\src/SPI_functions.c **** 	CyDelay(10);	
 130              		.loc 1 90 0
 131 007c 0A20     		movs	r0, #10
 132 007e FFF7FEFF 		bl	CyDelay
  91:..\src/SPI_functions.c **** 	// Istruction used to read Compass
  92:..\src/SPI_functions.c **** 	WriteControlRegister(MPU9250_I2C_SLV0_D0, 0x16); //0x12 continuous mode1  0x16 continuous mode2
 133              		.loc 1 92 0
 134 0082 1621     		movs	r1, #22
 135 0084 6320     		movs	r0, #99
 136 0086 FFF7FEFF 		bl	WriteControlRegister
ARM GAS  C:\Users\MattiaCP\AppData\Local\Temp\ccVW8gGQ.s 			page 5


  93:..\src/SPI_functions.c **** 	CyDelay(10);
 137              		.loc 1 93 0
 138 008a 0A20     		movs	r0, #10
 139 008c FFF7FEFF 		bl	CyDelay
  94:..\src/SPI_functions.c **** 	WriteControlRegister(MPU9250_I2C_SLV0_CTRL, 0x81); //enable data from register + 1 bit to write
 140              		.loc 1 94 0
 141 0090 8121     		movs	r1, #129
 142 0092 2720     		movs	r0, #39
 143 0094 FFF7FEFF 		bl	WriteControlRegister
  95:..\src/SPI_functions.c **** 	CyDelay(10);
 144              		.loc 1 95 0
 145 0098 0A20     		movs	r0, #10
 146 009a FFF7FEFF 		bl	CyDelay
  96:..\src/SPI_functions.c **** 	//SLV0 (use to read)
  97:..\src/SPI_functions.c **** 	WriteControlRegister(MPU9250_I2C_SLV0_ADDR, 0x8C); // RCR  | AK8963_address (0x0C) 
 147              		.loc 1 97 0
 148 009e 8C21     		movs	r1, #140
 149 00a0 2520     		movs	r0, #37
 150 00a2 FFF7FEFF 		bl	WriteControlRegister
  98:..\src/SPI_functions.c **** 	CyDelay(10);
 151              		.loc 1 98 0
 152 00a6 0A20     		movs	r0, #10
 153 00a8 FFF7FEFF 		bl	CyDelay
  99:..\src/SPI_functions.c **** 	// Istruction used to read Compass
 100:..\src/SPI_functions.c **** 	WriteControlRegister(MPU9250_I2C_SLV0_REG, 0x03); // 0x03:start from Xout Low in case of calibrati
 154              		.loc 1 100 0
 155 00ac 0321     		movs	r1, #3
 156 00ae 2620     		movs	r0, #38
 157 00b0 FFF7FEFF 		bl	WriteControlRegister
 101:..\src/SPI_functions.c **** 	CyDelay(10);
 158              		.loc 1 101 0
 159 00b4 0A20     		movs	r0, #10
 160 00b6 FFF7FEFF 		bl	CyDelay
 102:..\src/SPI_functions.c **** 	// Istruction used to read Compass
 103:..\src/SPI_functions.c **** 	WriteControlRegister(MPU9250_I2C_SLV0_CTRL, 0x8D); //How many bits read  SEMPRE DISPARI 0x8D era q
 161              		.loc 1 103 0
 162 00ba 8D21     		movs	r1, #141
 163 00bc 2720     		movs	r0, #39
 164 00be FFF7FEFF 		bl	WriteControlRegister
 104:..\src/SPI_functions.c **** 	CyDelay(10);
 165              		.loc 1 104 0
 166 00c2 0A20     		movs	r0, #10
 167 00c4 FFF7FEFF 		bl	CyDelay
 105:..\src/SPI_functions.c **** 	WriteControlRegister(MPU9250_PWR_MGMT_1, 0x00); 
 168              		.loc 1 105 0
 169 00c8 0021     		movs	r1, #0
 170 00ca 6B20     		movs	r0, #107
 171 00cc FFF7FEFF 		bl	WriteControlRegister
 106:..\src/SPI_functions.c **** 	CyDelay(20);
 172              		.loc 1 106 0
 173 00d0 1420     		movs	r0, #20
 174 00d2 FFF7FEFF 		bl	CyDelay
 107:..\src/SPI_functions.c **** }	
 175              		.loc 1 107 0
 176 00d6 00BF     		nop
 177 00d8 80BD     		pop	{r7, pc}
 178              		.cfi_endproc
ARM GAS  C:\Users\MattiaCP\AppData\Local\Temp\ccVW8gGQ.s 			page 6


 179              	.LFE65:
 180              		.size	InitIMU, .-InitIMU
 181 00da 00BF     		.section	.text.InitIMUMagCal,"ax",%progbits
 182              		.align	2
 183              		.global	InitIMUMagCal
 184              		.thumb
 185              		.thumb_func
 186              		.type	InitIMUMagCal, %function
 187              	InitIMUMagCal:
 188              	.LFB66:
 108:..\src/SPI_functions.c **** 
 109:..\src/SPI_functions.c **** /*******************************************************************************
 110:..\src/SPI_functions.c **** * Function Name: IMU Mag Cal Initialization
 111:..\src/SPI_functions.c **** *********************************************************************************/
 112:..\src/SPI_functions.c **** void InitIMUMagCal(){	
 189              		.loc 1 112 0
 190              		.cfi_startproc
 191              		@ args = 0, pretend = 0, frame = 0
 192              		@ frame_needed = 1, uses_anonymous_args = 0
 193 0000 80B5     		push	{r7, lr}
 194              		.cfi_def_cfa_offset 8
 195              		.cfi_offset 7, -8
 196              		.cfi_offset 14, -4
 197 0002 00AF     		add	r7, sp, #0
 198              		.cfi_def_cfa_register 7
 113:..\src/SPI_functions.c ****     
 114:..\src/SPI_functions.c **** 	WriteControlRegister(MPU9250_PWR_MGMT_1, 0x10); 
 199              		.loc 1 114 0
 200 0004 1021     		movs	r1, #16
 201 0006 6B20     		movs	r0, #107
 202 0008 FFF7FEFF 		bl	WriteControlRegister
 115:..\src/SPI_functions.c **** 	CyDelay(10);	
 203              		.loc 1 115 0
 204 000c 0A20     		movs	r0, #10
 205 000e FFF7FEFF 		bl	CyDelay
 116:..\src/SPI_functions.c **** 	WriteControlRegister(MPU9250_USER_CTRL, 0x20);  //I2C master enable - disable I2C (prima 0x30)
 206              		.loc 1 116 0
 207 0012 2021     		movs	r1, #32
 208 0014 6A20     		movs	r0, #106
 209 0016 FFF7FEFF 		bl	WriteControlRegister
 117:..\src/SPI_functions.c **** 	CyDelay(10);
 210              		.loc 1 117 0
 211 001a 0A20     		movs	r0, #10
 212 001c FFF7FEFF 		bl	CyDelay
 118:..\src/SPI_functions.c ****     WriteControlRegister(MPU9250_CONFIG, 0x06); //Gyro & Temp Low Pass Filter 0x01 = 184Hz, 0x02 = 
 213              		.loc 1 118 0
 214 0020 0621     		movs	r1, #6
 215 0022 1A20     		movs	r0, #26
 216 0024 FFF7FEFF 		bl	WriteControlRegister
 119:..\src/SPI_functions.c ****     CyDelay(10);	
 217              		.loc 1 119 0
 218 0028 0A20     		movs	r0, #10
 219 002a FFF7FEFF 		bl	CyDelay
 120:..\src/SPI_functions.c **** 	WriteControlRegister(MPU9250_GYRO_CONFIG , GYRO_SF_2000); //Gyro full scale select 0x00=250°/s 0x
 220              		.loc 1 120 0
 221 002e 1821     		movs	r1, #24
 222 0030 1B20     		movs	r0, #27
ARM GAS  C:\Users\MattiaCP\AppData\Local\Temp\ccVW8gGQ.s 			page 7


 223 0032 FFF7FEFF 		bl	WriteControlRegister
 121:..\src/SPI_functions.c **** 	CyDelay(10);
 224              		.loc 1 121 0
 225 0036 0A20     		movs	r0, #10
 226 0038 FFF7FEFF 		bl	CyDelay
 122:..\src/SPI_functions.c ****     WriteControlRegister(MPU9250_ACCEL_CONFIG, ACC_SF_2G); // Acc full scale select 0x00 = 2g 0x08 
 227              		.loc 1 122 0
 228 003c 0021     		movs	r1, #0
 229 003e 1C20     		movs	r0, #28
 230 0040 FFF7FEFF 		bl	WriteControlRegister
 123:..\src/SPI_functions.c ****     CyDelay(10);
 231              		.loc 1 123 0
 232 0044 0A20     		movs	r0, #10
 233 0046 FFF7FEFF 		bl	CyDelay
 124:..\src/SPI_functions.c ****     WriteControlRegister(MPU9250_ACCEL_CONFIG2, 0x05);
 234              		.loc 1 124 0
 235 004a 0521     		movs	r1, #5
 236 004c 1D20     		movs	r0, #29
 237 004e FFF7FEFF 		bl	WriteControlRegister
 125:..\src/SPI_functions.c ****     CyDelay(10);
 238              		.loc 1 125 0
 239 0052 0A20     		movs	r0, #10
 240 0054 FFF7FEFF 		bl	CyDelay
 126:..\src/SPI_functions.c **** 	//mag register
 127:..\src/SPI_functions.c **** 	WriteControlRegister(MPU9250_I2C_MST_CTRL, 0x0D); //set slave I2C speed
 241              		.loc 1 127 0
 242 0058 0D21     		movs	r1, #13
 243 005a 2420     		movs	r0, #36
 244 005c FFF7FEFF 		bl	WriteControlRegister
 128:..\src/SPI_functions.c **** 	CyDelay(10);
 245              		.loc 1 128 0
 246 0060 0A20     		movs	r0, #10
 247 0062 FFF7FEFF 		bl	CyDelay
 129:..\src/SPI_functions.c **** 	//SLV0 (use to write)
 130:..\src/SPI_functions.c **** 	WriteControlRegister(MPU9250_I2C_SLV0_ADDR, 0x0C); //set compass address
 248              		.loc 1 130 0
 249 0066 0C21     		movs	r1, #12
 250 0068 2520     		movs	r0, #37
 251 006a FFF7FEFF 		bl	WriteControlRegister
 131:..\src/SPI_functions.c **** 	CyDelay(10);			
 252              		.loc 1 131 0
 253 006e 0A20     		movs	r0, #10
 254 0070 FFF7FEFF 		bl	CyDelay
 132:..\src/SPI_functions.c **** 	WriteControlRegister(MPU9250_I2C_SLV0_REG, AK8936_CNTL); //compass mode register
 255              		.loc 1 132 0
 256 0074 0A21     		movs	r1, #10
 257 0076 2620     		movs	r0, #38
 258 0078 FFF7FEFF 		bl	WriteControlRegister
 133:..\src/SPI_functions.c **** 	CyDelay(10);	
 259              		.loc 1 133 0
 260 007c 0A20     		movs	r0, #10
 261 007e FFF7FEFF 		bl	CyDelay
 134:..\src/SPI_functions.c **** 	WriteControlRegister(MPU9250_I2C_SLV0_D0, 0x1F); //0x1F ROM access
 262              		.loc 1 134 0
 263 0082 1F21     		movs	r1, #31
 264 0084 6320     		movs	r0, #99
 265 0086 FFF7FEFF 		bl	WriteControlRegister
ARM GAS  C:\Users\MattiaCP\AppData\Local\Temp\ccVW8gGQ.s 			page 8


 135:..\src/SPI_functions.c **** 	CyDelay(10);
 266              		.loc 1 135 0
 267 008a 0A20     		movs	r0, #10
 268 008c FFF7FEFF 		bl	CyDelay
 136:..\src/SPI_functions.c **** 	WriteControlRegister(MPU9250_I2C_SLV0_CTRL, 0x81); //enable data from register + 1 bit to write
 269              		.loc 1 136 0
 270 0090 8121     		movs	r1, #129
 271 0092 2720     		movs	r0, #39
 272 0094 FFF7FEFF 		bl	WriteControlRegister
 137:..\src/SPI_functions.c **** 	CyDelay(10);
 273              		.loc 1 137 0
 274 0098 0A20     		movs	r0, #10
 275 009a FFF7FEFF 		bl	CyDelay
 138:..\src/SPI_functions.c **** 	//SLV0 (use to read)
 139:..\src/SPI_functions.c **** 	WriteControlRegister(MPU9250_I2C_SLV0_ADDR, 0x8C); // RCR  | AK8963_address (0x0C) 
 276              		.loc 1 139 0
 277 009e 8C21     		movs	r1, #140
 278 00a0 2520     		movs	r0, #37
 279 00a2 FFF7FEFF 		bl	WriteControlRegister
 140:..\src/SPI_functions.c **** 	CyDelay(10);
 280              		.loc 1 140 0
 281 00a6 0A20     		movs	r0, #10
 282 00a8 FFF7FEFF 		bl	CyDelay
 141:..\src/SPI_functions.c **** 	WriteControlRegister(MPU9250_I2C_SLV0_REG, 0x10); // 0x10:start from ASAX
 283              		.loc 1 141 0
 284 00ac 1021     		movs	r1, #16
 285 00ae 2620     		movs	r0, #38
 286 00b0 FFF7FEFF 		bl	WriteControlRegister
 142:..\src/SPI_functions.c **** 	CyDelay(10);
 287              		.loc 1 142 0
 288 00b4 0A20     		movs	r0, #10
 289 00b6 FFF7FEFF 		bl	CyDelay
 143:..\src/SPI_functions.c **** 	WriteControlRegister(MPU9250_I2C_SLV0_CTRL, 0x83);
 290              		.loc 1 143 0
 291 00ba 8321     		movs	r1, #131
 292 00bc 2720     		movs	r0, #39
 293 00be FFF7FEFF 		bl	WriteControlRegister
 144:..\src/SPI_functions.c **** 	CyDelay(10);
 294              		.loc 1 144 0
 295 00c2 0A20     		movs	r0, #10
 296 00c4 FFF7FEFF 		bl	CyDelay
 145:..\src/SPI_functions.c **** 	WriteControlRegister(MPU9250_PWR_MGMT_1, 0x00); 
 297              		.loc 1 145 0
 298 00c8 0021     		movs	r1, #0
 299 00ca 6B20     		movs	r0, #107
 300 00cc FFF7FEFF 		bl	WriteControlRegister
 146:..\src/SPI_functions.c **** 	CyDelay(20);
 301              		.loc 1 146 0
 302 00d0 1420     		movs	r0, #20
 303 00d2 FFF7FEFF 		bl	CyDelay
 147:..\src/SPI_functions.c **** }
 304              		.loc 1 147 0
 305 00d6 00BF     		nop
 306 00d8 80BD     		pop	{r7, pc}
 307              		.cfi_endproc
 308              	.LFE66:
 309              		.size	InitIMUMagCal, .-InitIMUMagCal
ARM GAS  C:\Users\MattiaCP\AppData\Local\Temp\ccVW8gGQ.s 			page 9


 310 00da 00BF     		.section	.text.ChipSelector,"ax",%progbits
 311              		.align	2
 312              		.global	ChipSelector
 313              		.thumb
 314              		.thumb_func
 315              		.type	ChipSelector, %function
 316              	ChipSelector:
 317              	.LFB67:
 148:..\src/SPI_functions.c **** 
 149:..\src/SPI_functions.c **** /********************************************************************************
 150:..\src/SPI_functions.c **** * Function Name: ChipSelector                                                   *
 151:..\src/SPI_functions.c **** *********************************************************************************/
 152:..\src/SPI_functions.c **** void ChipSelector(int n)
 153:..\src/SPI_functions.c **** {
 318              		.loc 1 153 0
 319              		.cfi_startproc
 320              		@ args = 0, pretend = 0, frame = 8
 321              		@ frame_needed = 1, uses_anonymous_args = 0
 322 0000 80B5     		push	{r7, lr}
 323              		.cfi_def_cfa_offset 8
 324              		.cfi_offset 7, -8
 325              		.cfi_offset 14, -4
 326 0002 82B0     		sub	sp, sp, #8
 327              		.cfi_def_cfa_offset 16
 328 0004 00AF     		add	r7, sp, #0
 329              		.cfi_def_cfa_register 7
 330 0006 7860     		str	r0, [r7, #4]
 154:..\src/SPI_functions.c ****     Chip_Select_A_Write(3);
 331              		.loc 1 154 0
 332 0008 0320     		movs	r0, #3
 333 000a FFF7FEFF 		bl	Chip_Select_A_Write
 155:..\src/SPI_functions.c ****     
 156:..\src/SPI_functions.c ****     Chip_Select_A_Write(n);
 334              		.loc 1 156 0
 335 000e 7B68     		ldr	r3, [r7, #4]
 336 0010 DBB2     		uxtb	r3, r3
 337 0012 1846     		mov	r0, r3
 338 0014 FFF7FEFF 		bl	Chip_Select_A_Write
 157:..\src/SPI_functions.c **** }
 339              		.loc 1 157 0
 340 0018 00BF     		nop
 341 001a 0837     		adds	r7, r7, #8
 342              		.cfi_def_cfa_offset 8
 343 001c BD46     		mov	sp, r7
 344              		.cfi_def_cfa_register 13
 345              		@ sp needed
 346 001e 80BD     		pop	{r7, pc}
 347              		.cfi_endproc
 348              	.LFE67:
 349              		.size	ChipSelector, .-ChipSelector
 350              		.section	.text.InitIMUgeneral,"ax",%progbits
 351              		.align	2
 352              		.global	InitIMUgeneral
 353              		.thumb
 354              		.thumb_func
 355              		.type	InitIMUgeneral, %function
 356              	InitIMUgeneral:
ARM GAS  C:\Users\MattiaCP\AppData\Local\Temp\ccVW8gGQ.s 			page 10


 357              	.LFB68:
 158:..\src/SPI_functions.c **** 
 159:..\src/SPI_functions.c **** /********************************************************************************
 160:..\src/SPI_functions.c **** * Function Name: InitIMUGeneral                                                 *
 161:..\src/SPI_functions.c **** *********************************************************************************/
 162:..\src/SPI_functions.c **** void InitIMUgeneral()
 163:..\src/SPI_functions.c **** {
 358              		.loc 1 163 0
 359              		.cfi_startproc
 360              		@ args = 0, pretend = 0, frame = 24
 361              		@ frame_needed = 1, uses_anonymous_args = 0
 362 0000 90B5     		push	{r4, r7, lr}
 363              		.cfi_def_cfa_offset 12
 364              		.cfi_offset 4, -12
 365              		.cfi_offset 7, -8
 366              		.cfi_offset 14, -4
 367 0002 87B0     		sub	sp, sp, #28
 368              		.cfi_def_cfa_offset 40
 369 0004 00AF     		add	r7, sp, #0
 370              		.cfi_def_cfa_register 7
 164:..\src/SPI_functions.c ****     uint8 k_imu;
 165:..\src/SPI_functions.c ****     uint8 count = 0;
 371              		.loc 1 165 0
 372 0006 0023     		movs	r3, #0
 373 0008 BB75     		strb	r3, [r7, #22]
 166:..\src/SPI_functions.c ****     int IMU_ack;
 167:..\src/SPI_functions.c ****     int tmp[N_IMU_MAX];
 168:..\src/SPI_functions.c **** 
 169:..\src/SPI_functions.c ****     // Initialize Memory Structure 
 170:..\src/SPI_functions.c ****     memset(&g_imu, 0, sizeof(struct st_imu));
 374              		.loc 1 170 0
 375 000a 2822     		movs	r2, #40
 376 000c 0021     		movs	r1, #0
 377 000e 9548     		ldr	r0, .L21
 378 0010 FFF7FEFF 		bl	memset
 171:..\src/SPI_functions.c ****     memset(&IMU_connected, 0, sizeof(IMU_connected));
 379              		.loc 1 171 0
 380 0014 0322     		movs	r2, #3
 381 0016 0021     		movs	r1, #0
 382 0018 9348     		ldr	r0, .L21+4
 383 001a FFF7FEFF 		bl	memset
 172:..\src/SPI_functions.c **** 
 173:..\src/SPI_functions.c ****     // First ping to be sure to wakeup IMUs
 174:..\src/SPI_functions.c ****     for (k_imu=0; k_imu < N_IMU_MAX; k_imu++) 
 384              		.loc 1 174 0
 385 001e 0023     		movs	r3, #0
 386 0020 FB75     		strb	r3, [r7, #23]
 387 0022 0CE0     		b	.L6
 388              	.L7:
 175:..\src/SPI_functions.c ****     {	
 176:..\src/SPI_functions.c **** 	    ChipSelector(k_imu);
 389              		.loc 1 176 0 discriminator 3
 390 0024 FB7D     		ldrb	r3, [r7, #23]	@ zero_extendqisi2
 391 0026 1846     		mov	r0, r3
 392 0028 FFF7FEFF 		bl	ChipSelector
 177:..\src/SPI_functions.c **** 	    CyDelay(10);
 393              		.loc 1 177 0 discriminator 3
ARM GAS  C:\Users\MattiaCP\AppData\Local\Temp\ccVW8gGQ.s 			page 11


 394 002c 0A20     		movs	r0, #10
 395 002e FFF7FEFF 		bl	CyDelay
 178:..\src/SPI_functions.c **** 	    ReadControlRegister(MPU9250_WHO_AM_I);
 396              		.loc 1 178 0 discriminator 3
 397 0032 7520     		movs	r0, #117
 398 0034 FFF7FEFF 		bl	ReadControlRegister
 174:..\src/SPI_functions.c ****     {	
 399              		.loc 1 174 0 discriminator 3
 400 0038 FB7D     		ldrb	r3, [r7, #23]	@ zero_extendqisi2
 401 003a 0133     		adds	r3, r3, #1
 402 003c FB75     		strb	r3, [r7, #23]
 403              	.L6:
 174:..\src/SPI_functions.c ****     {	
 404              		.loc 1 174 0 is_stmt 0 discriminator 1
 405 003e FB7D     		ldrb	r3, [r7, #23]	@ zero_extendqisi2
 406 0040 022B     		cmp	r3, #2
 407 0042 EFD9     		bls	.L7
 179:..\src/SPI_functions.c ****     }
 180:..\src/SPI_functions.c ****     
 181:..\src/SPI_functions.c ****     // Identify IMU connected
 182:..\src/SPI_functions.c ****     ChipSelector(0);
 408              		.loc 1 182 0 is_stmt 1
 409 0044 0020     		movs	r0, #0
 410 0046 FFF7FEFF 		bl	ChipSelector
 183:..\src/SPI_functions.c ****     CyDelay(10);
 411              		.loc 1 183 0
 412 004a 0A20     		movs	r0, #10
 413 004c FFF7FEFF 		bl	CyDelay
 184:..\src/SPI_functions.c ****     IMU_ack = ReadControlRegister(MPU9250_WHO_AM_I);
 414              		.loc 1 184 0
 415 0050 7520     		movs	r0, #117
 416 0052 FFF7FEFF 		bl	ReadControlRegister
 417 0056 0346     		mov	r3, r0
 418 0058 3B61     		str	r3, [r7, #16]
 185:..\src/SPI_functions.c ****     IMU_ack = 0;
 419              		.loc 1 185 0
 420 005a 0023     		movs	r3, #0
 421 005c 3B61     		str	r3, [r7, #16]
 186:..\src/SPI_functions.c ****     N_IMU_Connected = 0;    
 422              		.loc 1 186 0
 423 005e 834B     		ldr	r3, .L21+8
 424 0060 0022     		movs	r2, #0
 425 0062 1A70     		strb	r2, [r3]
 187:..\src/SPI_functions.c ****     for (k_imu = 0; k_imu < N_IMU_MAX; k_imu++) 
 426              		.loc 1 187 0
 427 0064 0023     		movs	r3, #0
 428 0066 FB75     		strb	r3, [r7, #23]
 429 0068 2AE0     		b	.L8
 430              	.L11:
 188:..\src/SPI_functions.c ****     {      
 189:..\src/SPI_functions.c ****     	ChipSelector(k_imu);
 431              		.loc 1 189 0
 432 006a FB7D     		ldrb	r3, [r7, #23]	@ zero_extendqisi2
 433 006c 1846     		mov	r0, r3
 434 006e FFF7FEFF 		bl	ChipSelector
 190:..\src/SPI_functions.c ****         CyDelay(10);
 435              		.loc 1 190 0
ARM GAS  C:\Users\MattiaCP\AppData\Local\Temp\ccVW8gGQ.s 			page 12


 436 0072 0A20     		movs	r0, #10
 437 0074 FFF7FEFF 		bl	CyDelay
 191:..\src/SPI_functions.c ****         IMU_ack = ReadControlRegister(MPU9250_WHO_AM_I);
 438              		.loc 1 191 0
 439 0078 7520     		movs	r0, #117
 440 007a FFF7FEFF 		bl	ReadControlRegister
 441 007e 0346     		mov	r3, r0
 442 0080 3B61     		str	r3, [r7, #16]
 192:..\src/SPI_functions.c ****         if (IMU_ack == 0x71) 
 443              		.loc 1 192 0
 444 0082 3B69     		ldr	r3, [r7, #16]
 445 0084 712B     		cmp	r3, #113
 446 0086 10D1     		bne	.L9
 193:..\src/SPI_functions.c ****         {
 194:..\src/SPI_functions.c ****             N_IMU_Connected++;
 447              		.loc 1 194 0
 448 0088 784B     		ldr	r3, .L21+8
 449 008a 1B78     		ldrb	r3, [r3]	@ zero_extendqisi2
 450 008c 0133     		adds	r3, r3, #1
 451 008e DAB2     		uxtb	r2, r3
 452 0090 764B     		ldr	r3, .L21+8
 453 0092 1A70     		strb	r2, [r3]
 195:..\src/SPI_functions.c ****             IMU_ack = 0;
 454              		.loc 1 195 0
 455 0094 0023     		movs	r3, #0
 456 0096 3B61     		str	r3, [r7, #16]
 196:..\src/SPI_functions.c ****             tmp[k_imu] = 1;
 457              		.loc 1 196 0
 458 0098 FB7D     		ldrb	r3, [r7, #23]	@ zero_extendqisi2
 459 009a 9B00     		lsls	r3, r3, #2
 460 009c 07F11802 		add	r2, r7, #24
 461 00a0 1344     		add	r3, r3, r2
 462 00a2 0122     		movs	r2, #1
 463 00a4 43F8142C 		str	r2, [r3, #-20]
 464 00a8 07E0     		b	.L10
 465              	.L9:
 197:..\src/SPI_functions.c ****         }
 198:..\src/SPI_functions.c ****         else
 199:..\src/SPI_functions.c ****             tmp[k_imu] = 0;
 466              		.loc 1 199 0
 467 00aa FB7D     		ldrb	r3, [r7, #23]	@ zero_extendqisi2
 468 00ac 9B00     		lsls	r3, r3, #2
 469 00ae 07F11802 		add	r2, r7, #24
 470 00b2 1344     		add	r3, r3, r2
 471 00b4 0022     		movs	r2, #0
 472 00b6 43F8142C 		str	r2, [r3, #-20]
 473              	.L10:
 187:..\src/SPI_functions.c ****     {      
 474              		.loc 1 187 0 discriminator 2
 475 00ba FB7D     		ldrb	r3, [r7, #23]	@ zero_extendqisi2
 476 00bc 0133     		adds	r3, r3, #1
 477 00be FB75     		strb	r3, [r7, #23]
 478              	.L8:
 187:..\src/SPI_functions.c ****     {      
 479              		.loc 1 187 0 is_stmt 0 discriminator 1
 480 00c0 FB7D     		ldrb	r3, [r7, #23]	@ zero_extendqisi2
 481 00c2 022B     		cmp	r3, #2
ARM GAS  C:\Users\MattiaCP\AppData\Local\Temp\ccVW8gGQ.s 			page 13


 482 00c4 D1D9     		bls	.L11
 200:..\src/SPI_functions.c ****     }
 201:..\src/SPI_functions.c **** 
 202:..\src/SPI_functions.c ****     for(k_imu = 0; k_imu < N_IMU_MAX; k_imu++)
 483              		.loc 1 202 0 is_stmt 1
 484 00c6 0023     		movs	r3, #0
 485 00c8 FB75     		strb	r3, [r7, #23]
 486 00ca 12E0     		b	.L12
 487              	.L14:
 203:..\src/SPI_functions.c ****     {
 204:..\src/SPI_functions.c ****         if(tmp[k_imu] == 1)
 488              		.loc 1 204 0
 489 00cc FB7D     		ldrb	r3, [r7, #23]	@ zero_extendqisi2
 490 00ce 9B00     		lsls	r3, r3, #2
 491 00d0 07F11802 		add	r2, r7, #24
 492 00d4 1344     		add	r3, r3, r2
 493 00d6 53F8143C 		ldr	r3, [r3, #-20]
 494 00da 012B     		cmp	r3, #1
 495 00dc 06D1     		bne	.L13
 205:..\src/SPI_functions.c ****         {
 206:..\src/SPI_functions.c ****             IMU_connected[count] = k_imu;
 496              		.loc 1 206 0
 497 00de BB7D     		ldrb	r3, [r7, #22]	@ zero_extendqisi2
 498 00e0 6149     		ldr	r1, .L21+4
 499 00e2 FA7D     		ldrb	r2, [r7, #23]
 500 00e4 CA54     		strb	r2, [r1, r3]
 207:..\src/SPI_functions.c ****             count++;
 501              		.loc 1 207 0
 502 00e6 BB7D     		ldrb	r3, [r7, #22]	@ zero_extendqisi2
 503 00e8 0133     		adds	r3, r3, #1
 504 00ea BB75     		strb	r3, [r7, #22]
 505              	.L13:
 202:..\src/SPI_functions.c ****     {
 506              		.loc 1 202 0 discriminator 2
 507 00ec FB7D     		ldrb	r3, [r7, #23]	@ zero_extendqisi2
 508 00ee 0133     		adds	r3, r3, #1
 509 00f0 FB75     		strb	r3, [r7, #23]
 510              	.L12:
 202:..\src/SPI_functions.c ****     {
 511              		.loc 1 202 0 is_stmt 0 discriminator 1
 512 00f2 FB7D     		ldrb	r3, [r7, #23]	@ zero_extendqisi2
 513 00f4 022B     		cmp	r3, #2
 514 00f6 E9D9     		bls	.L14
 208:..\src/SPI_functions.c ****         }
 209:..\src/SPI_functions.c ****     }
 210:..\src/SPI_functions.c ****             
 211:..\src/SPI_functions.c ****     // Standard Initialization of the IMU
 212:..\src/SPI_functions.c ****     CyDelay(10);
 515              		.loc 1 212 0 is_stmt 1
 516 00f8 0A20     		movs	r0, #10
 517 00fa FFF7FEFF 		bl	CyDelay
 213:..\src/SPI_functions.c ****     for (k_imu=0; k_imu < N_IMU_MAX; k_imu++) 
 518              		.loc 1 213 0
 519 00fe 0023     		movs	r3, #0
 520 0100 FB75     		strb	r3, [r7, #23]
 521 0102 13E0     		b	.L15
 522              	.L16:
ARM GAS  C:\Users\MattiaCP\AppData\Local\Temp\ccVW8gGQ.s 			page 14


 214:..\src/SPI_functions.c ****     {	
 215:..\src/SPI_functions.c **** 	    ChipSelector(k_imu);
 523              		.loc 1 215 0 discriminator 3
 524 0104 FB7D     		ldrb	r3, [r7, #23]	@ zero_extendqisi2
 525 0106 1846     		mov	r0, r3
 526 0108 FFF7FEFF 		bl	ChipSelector
 216:..\src/SPI_functions.c **** 	    CyDelay(10);
 527              		.loc 1 216 0 discriminator 3
 528 010c 0A20     		movs	r0, #10
 529 010e FFF7FEFF 		bl	CyDelay
 217:..\src/SPI_functions.c **** 	    InitIMU();
 530              		.loc 1 217 0 discriminator 3
 531 0112 FFF7FEFF 		bl	InitIMU
 218:..\src/SPI_functions.c **** 	    CyDelay(10); 
 532              		.loc 1 218 0 discriminator 3
 533 0116 0A20     		movs	r0, #10
 534 0118 FFF7FEFF 		bl	CyDelay
 219:..\src/SPI_functions.c ****         InitIMUMagCal();      // Initialize IMU to Read MagCal Parameters
 535              		.loc 1 219 0 discriminator 3
 536 011c FFF7FEFF 		bl	InitIMUMagCal
 220:..\src/SPI_functions.c **** 	    CyDelay(10); 
 537              		.loc 1 220 0 discriminator 3
 538 0120 0A20     		movs	r0, #10
 539 0122 FFF7FEFF 		bl	CyDelay
 213:..\src/SPI_functions.c ****     {	
 540              		.loc 1 213 0 discriminator 3
 541 0126 FB7D     		ldrb	r3, [r7, #23]	@ zero_extendqisi2
 542 0128 0133     		adds	r3, r3, #1
 543 012a FB75     		strb	r3, [r7, #23]
 544              	.L15:
 213:..\src/SPI_functions.c ****     {	
 545              		.loc 1 213 0 is_stmt 0 discriminator 1
 546 012c FB7D     		ldrb	r3, [r7, #23]	@ zero_extendqisi2
 547 012e 022B     		cmp	r3, #2
 548 0130 E8D9     		bls	.L16
 221:..\src/SPI_functions.c ****     }
 222:..\src/SPI_functions.c ****     CyDelay(50);
 549              		.loc 1 222 0 is_stmt 1
 550 0132 3220     		movs	r0, #50
 551 0134 FFF7FEFF 		bl	CyDelay
 223:..\src/SPI_functions.c ****     
 224:..\src/SPI_functions.c ****     // Reading of MagCal Parameters
 225:..\src/SPI_functions.c ****     for (k_imu = 0; k_imu < N_IMU_MAX; k_imu++){
 552              		.loc 1 225 0
 553 0138 0023     		movs	r3, #0
 554 013a FB75     		strb	r3, [r7, #23]
 555 013c 0AE0     		b	.L17
 556              	.L18:
 226:..\src/SPI_functions.c ****         ChipSelector(k_imu);
 557              		.loc 1 226 0 discriminator 3
 558 013e FB7D     		ldrb	r3, [r7, #23]	@ zero_extendqisi2
 559 0140 1846     		mov	r0, r3
 560 0142 FFF7FEFF 		bl	ChipSelector
 227:..\src/SPI_functions.c ****         ReadMagCal(k_imu); 
 561              		.loc 1 227 0 discriminator 3
 562 0146 FB7D     		ldrb	r3, [r7, #23]	@ zero_extendqisi2
 563 0148 1846     		mov	r0, r3
ARM GAS  C:\Users\MattiaCP\AppData\Local\Temp\ccVW8gGQ.s 			page 15


 564 014a FFF7FEFF 		bl	ReadMagCal
 225:..\src/SPI_functions.c ****         ChipSelector(k_imu);
 565              		.loc 1 225 0 discriminator 3
 566 014e FB7D     		ldrb	r3, [r7, #23]	@ zero_extendqisi2
 567 0150 0133     		adds	r3, r3, #1
 568 0152 FB75     		strb	r3, [r7, #23]
 569              	.L17:
 225:..\src/SPI_functions.c ****         ChipSelector(k_imu);
 570              		.loc 1 225 0 is_stmt 0 discriminator 1
 571 0154 FB7D     		ldrb	r3, [r7, #23]	@ zero_extendqisi2
 572 0156 022B     		cmp	r3, #2
 573 0158 F1D9     		bls	.L18
 228:..\src/SPI_functions.c ****     }
 229:..\src/SPI_functions.c ****     CyDelay(50);
 574              		.loc 1 229 0 is_stmt 1
 575 015a 3220     		movs	r0, #50
 576 015c FFF7FEFF 		bl	CyDelay
 230:..\src/SPI_functions.c ****     
 231:..\src/SPI_functions.c ****     // Set Standard Read for the IMU
 232:..\src/SPI_functions.c ****     memset(&single_imu_size, 0, sizeof(single_imu_size));
 577              		.loc 1 232 0
 578 0160 0C22     		movs	r2, #12
 579 0162 0021     		movs	r1, #0
 580 0164 4248     		ldr	r0, .L21+12
 581 0166 FFF7FEFF 		bl	memset
 233:..\src/SPI_functions.c ****     imus_data_size = 1; //header    
 582              		.loc 1 233 0
 583 016a 424B     		ldr	r3, .L21+16
 584 016c 0122     		movs	r2, #1
 585 016e 1A60     		str	r2, [r3]
 234:..\src/SPI_functions.c ****     for (k_imu = 0; k_imu < N_IMU_Connected; k_imu++)
 586              		.loc 1 234 0
 587 0170 0023     		movs	r3, #0
 588 0172 FB75     		strb	r3, [r7, #23]
 589 0174 68E0     		b	.L19
 590              	.L20:
 235:..\src/SPI_functions.c ****     {
 236:..\src/SPI_functions.c ****         single_imu_size[IMU_connected[k_imu]] = 1 + 6*c_mem.IMU_conf[IMU_connected[k_imu]][0] + 6*c
 591              		.loc 1 236 0 discriminator 3
 592 0176 FB7D     		ldrb	r3, [r7, #23]	@ zero_extendqisi2
 593 0178 3B4A     		ldr	r2, .L21+4
 594 017a D35C     		ldrb	r3, [r2, r3]	@ zero_extendqisi2
 595 017c 1C46     		mov	r4, r3
 596 017e FB7D     		ldrb	r3, [r7, #23]	@ zero_extendqisi2
 597 0180 394A     		ldr	r2, .L21+4
 598 0182 D35C     		ldrb	r3, [r2, r3]	@ zero_extendqisi2
 599 0184 1946     		mov	r1, r3
 600 0186 3C4A     		ldr	r2, .L21+20
 601 0188 0B46     		mov	r3, r1
 602 018a 9B00     		lsls	r3, r3, #2
 603 018c 0B44     		add	r3, r3, r1
 604 018e 1344     		add	r3, r3, r2
 605 0190 03F22113 		addw	r3, r3, #289
 606 0194 1B78     		ldrb	r3, [r3]	@ zero_extendqisi2
 607 0196 1A46     		mov	r2, r3
 608 0198 1346     		mov	r3, r2
 609 019a 5B00     		lsls	r3, r3, #1
ARM GAS  C:\Users\MattiaCP\AppData\Local\Temp\ccVW8gGQ.s 			page 16


 610 019c 1344     		add	r3, r3, r2
 611 019e 5B00     		lsls	r3, r3, #1
 612 01a0 5A1C     		adds	r2, r3, #1
 613 01a2 FB7D     		ldrb	r3, [r7, #23]	@ zero_extendqisi2
 614 01a4 3049     		ldr	r1, .L21+4
 615 01a6 CB5C     		ldrb	r3, [r1, r3]	@ zero_extendqisi2
 616 01a8 1846     		mov	r0, r3
 617 01aa 3349     		ldr	r1, .L21+20
 618 01ac 0346     		mov	r3, r0
 619 01ae 9B00     		lsls	r3, r3, #2
 620 01b0 0344     		add	r3, r3, r0
 621 01b2 0B44     		add	r3, r3, r1
 622 01b4 03F59173 		add	r3, r3, #290
 623 01b8 1B78     		ldrb	r3, [r3]	@ zero_extendqisi2
 624 01ba 1946     		mov	r1, r3
 625 01bc 0B46     		mov	r3, r1
 626 01be 5B00     		lsls	r3, r3, #1
 627 01c0 0B44     		add	r3, r3, r1
 628 01c2 5B00     		lsls	r3, r3, #1
 629 01c4 1A44     		add	r2, r2, r3
 630 01c6 FB7D     		ldrb	r3, [r7, #23]	@ zero_extendqisi2
 631 01c8 2749     		ldr	r1, .L21+4
 632 01ca CB5C     		ldrb	r3, [r1, r3]	@ zero_extendqisi2
 633 01cc 1846     		mov	r0, r3
 634 01ce 2A49     		ldr	r1, .L21+20
 635 01d0 0346     		mov	r3, r0
 636 01d2 9B00     		lsls	r3, r3, #2
 637 01d4 0344     		add	r3, r3, r0
 638 01d6 0B44     		add	r3, r3, r1
 639 01d8 03F22313 		addw	r3, r3, #291
 640 01dc 1B78     		ldrb	r3, [r3]	@ zero_extendqisi2
 641 01de 1946     		mov	r1, r3
 642 01e0 0B46     		mov	r3, r1
 643 01e2 5B00     		lsls	r3, r3, #1
 644 01e4 0B44     		add	r3, r3, r1
 645 01e6 5B00     		lsls	r3, r3, #1
 646 01e8 1A44     		add	r2, r2, r3
 647 01ea FB7D     		ldrb	r3, [r7, #23]	@ zero_extendqisi2
 648 01ec 1E49     		ldr	r1, .L21+4
 649 01ee CB5C     		ldrb	r3, [r1, r3]	@ zero_extendqisi2
 650 01f0 1846     		mov	r0, r3
 651 01f2 2149     		ldr	r1, .L21+20
 652 01f4 0346     		mov	r3, r0
 653 01f6 9B00     		lsls	r3, r3, #2
 654 01f8 0344     		add	r3, r3, r0
 655 01fa 0B44     		add	r3, r3, r1
 656 01fc 03F59273 		add	r3, r3, #292
 657 0200 1B78     		ldrb	r3, [r3]	@ zero_extendqisi2
 658 0202 1B01     		lsls	r3, r3, #4
 659 0204 1A44     		add	r2, r2, r3
 660 0206 FB7D     		ldrb	r3, [r7, #23]	@ zero_extendqisi2
 661 0208 1749     		ldr	r1, .L21+4
 662 020a CB5C     		ldrb	r3, [r1, r3]	@ zero_extendqisi2
 663 020c 1846     		mov	r0, r3
 664 020e 1A49     		ldr	r1, .L21+20
 665 0210 0346     		mov	r3, r0
 666 0212 9B00     		lsls	r3, r3, #2
ARM GAS  C:\Users\MattiaCP\AppData\Local\Temp\ccVW8gGQ.s 			page 17


 667 0214 0344     		add	r3, r3, r0
 668 0216 0B44     		add	r3, r3, r1
 669 0218 03F22513 		addw	r3, r3, #293
 670 021c 1B78     		ldrb	r3, [r3]	@ zero_extendqisi2
 671 021e 5B00     		lsls	r3, r3, #1
 672 0220 1344     		add	r3, r3, r2
 673 0222 0133     		adds	r3, r3, #1
 674 0224 124A     		ldr	r2, .L21+12
 675 0226 42F82430 		str	r3, [r2, r4, lsl #2]
 237:..\src/SPI_functions.c ****         imus_data_size = imus_data_size + single_imu_size[IMU_connected[k_imu]];
 676              		.loc 1 237 0 discriminator 3
 677 022a FB7D     		ldrb	r3, [r7, #23]	@ zero_extendqisi2
 678 022c 0E4A     		ldr	r2, .L21+4
 679 022e D35C     		ldrb	r3, [r2, r3]	@ zero_extendqisi2
 680 0230 1A46     		mov	r2, r3
 681 0232 0F4B     		ldr	r3, .L21+12
 682 0234 53F82220 		ldr	r2, [r3, r2, lsl #2]
 683 0238 0E4B     		ldr	r3, .L21+16
 684 023a 1B68     		ldr	r3, [r3]
 685 023c 1344     		add	r3, r3, r2
 686 023e 0D4A     		ldr	r2, .L21+16
 687 0240 1360     		str	r3, [r2]
 234:..\src/SPI_functions.c ****     for (k_imu = 0; k_imu < N_IMU_Connected; k_imu++)
 688              		.loc 1 234 0 discriminator 3
 689 0242 FB7D     		ldrb	r3, [r7, #23]	@ zero_extendqisi2
 690 0244 0133     		adds	r3, r3, #1
 691 0246 FB75     		strb	r3, [r7, #23]
 692              	.L19:
 234:..\src/SPI_functions.c ****     for (k_imu = 0; k_imu < N_IMU_Connected; k_imu++)
 693              		.loc 1 234 0 is_stmt 0 discriminator 1
 694 0248 084B     		ldr	r3, .L21+8
 695 024a 1B78     		ldrb	r3, [r3]	@ zero_extendqisi2
 696 024c FA7D     		ldrb	r2, [r7, #23]	@ zero_extendqisi2
 697 024e 9A42     		cmp	r2, r3
 698 0250 91D3     		bcc	.L20
 238:..\src/SPI_functions.c ****     }
 239:..\src/SPI_functions.c ****     imus_data_size = imus_data_size + 1;    //checksum*/
 699              		.loc 1 239 0 is_stmt 1
 700 0252 084B     		ldr	r3, .L21+16
 701 0254 1B68     		ldr	r3, [r3]
 702 0256 0133     		adds	r3, r3, #1
 703 0258 064A     		ldr	r2, .L21+16
 704 025a 1360     		str	r3, [r2]
 240:..\src/SPI_functions.c **** }
 705              		.loc 1 240 0
 706 025c 00BF     		nop
 707 025e 1C37     		adds	r7, r7, #28
 708              		.cfi_def_cfa_offset 12
 709 0260 BD46     		mov	sp, r7
 710              		.cfi_def_cfa_register 13
 711              		@ sp needed
 712 0262 90BD     		pop	{r4, r7, pc}
 713              	.L22:
 714              		.align	2
 715              	.L21:
 716 0264 00000000 		.word	g_imu
 717 0268 00000000 		.word	IMU_connected
ARM GAS  C:\Users\MattiaCP\AppData\Local\Temp\ccVW8gGQ.s 			page 18


 718 026c 00000000 		.word	N_IMU_Connected
 719 0270 00000000 		.word	single_imu_size
 720 0274 00000000 		.word	imus_data_size
 721 0278 00000000 		.word	c_mem
 722              		.cfi_endproc
 723              	.LFE68:
 724              		.size	InitIMUgeneral, .-InitIMUgeneral
 725              		.section	.text.ReadIMU,"ax",%progbits
 726              		.align	2
 727              		.global	ReadIMU
 728              		.thumb
 729              		.thumb_func
 730              		.type	ReadIMU, %function
 731              	ReadIMU:
 732              	.LFB69:
 241:..\src/SPI_functions.c **** 
 242:..\src/SPI_functions.c **** /*******************************************************************************
 243:..\src/SPI_functions.c **** * Function Name: IMU Read
 244:..\src/SPI_functions.c **** *********************************************************************************/	
 245:..\src/SPI_functions.c **** void ReadIMU(int n)
 246:..\src/SPI_functions.c **** {
 733              		.loc 1 246 0
 734              		.cfi_startproc
 735              		@ args = 0, pretend = 0, frame = 8
 736              		@ frame_needed = 1, uses_anonymous_args = 0
 737 0000 80B5     		push	{r7, lr}
 738              		.cfi_def_cfa_offset 8
 739              		.cfi_offset 7, -8
 740              		.cfi_offset 14, -4
 741 0002 82B0     		sub	sp, sp, #8
 742              		.cfi_def_cfa_offset 16
 743 0004 00AF     		add	r7, sp, #0
 744              		.cfi_def_cfa_register 7
 745 0006 7860     		str	r0, [r7, #4]
 247:..\src/SPI_functions.c ****     if (c_mem.IMU_conf[n][0]) ReadAcc(n);
 746              		.loc 1 247 0
 747 0008 2449     		ldr	r1, .L30
 748 000a 7A68     		ldr	r2, [r7, #4]
 749 000c 1346     		mov	r3, r2
 750 000e 9B00     		lsls	r3, r3, #2
 751 0010 1344     		add	r3, r3, r2
 752 0012 0B44     		add	r3, r3, r1
 753 0014 03F22113 		addw	r3, r3, #289
 754 0018 1B78     		ldrb	r3, [r3]	@ zero_extendqisi2
 755 001a 002B     		cmp	r3, #0
 756 001c 02D0     		beq	.L24
 757              		.loc 1 247 0 is_stmt 0 discriminator 1
 758 001e 7868     		ldr	r0, [r7, #4]
 759 0020 FFF7FEFF 		bl	ReadAcc
 760              	.L24:
 248:..\src/SPI_functions.c ****     if (c_mem.IMU_conf[n][1]) ReadGyro(n);
 761              		.loc 1 248 0 is_stmt 1
 762 0024 1D49     		ldr	r1, .L30
 763 0026 7A68     		ldr	r2, [r7, #4]
 764 0028 1346     		mov	r3, r2
 765 002a 9B00     		lsls	r3, r3, #2
 766 002c 1344     		add	r3, r3, r2
ARM GAS  C:\Users\MattiaCP\AppData\Local\Temp\ccVW8gGQ.s 			page 19


 767 002e 0B44     		add	r3, r3, r1
 768 0030 03F59173 		add	r3, r3, #290
 769 0034 1B78     		ldrb	r3, [r3]	@ zero_extendqisi2
 770 0036 002B     		cmp	r3, #0
 771 0038 02D0     		beq	.L25
 772              		.loc 1 248 0 is_stmt 0 discriminator 1
 773 003a 7868     		ldr	r0, [r7, #4]
 774 003c FFF7FEFF 		bl	ReadGyro
 775              	.L25:
 249:..\src/SPI_functions.c ****     if (c_mem.IMU_conf[n][2]) ReadMag(n);
 776              		.loc 1 249 0 is_stmt 1
 777 0040 1649     		ldr	r1, .L30
 778 0042 7A68     		ldr	r2, [r7, #4]
 779 0044 1346     		mov	r3, r2
 780 0046 9B00     		lsls	r3, r3, #2
 781 0048 1344     		add	r3, r3, r2
 782 004a 0B44     		add	r3, r3, r1
 783 004c 03F22313 		addw	r3, r3, #291
 784 0050 1B78     		ldrb	r3, [r3]	@ zero_extendqisi2
 785 0052 002B     		cmp	r3, #0
 786 0054 02D0     		beq	.L26
 787              		.loc 1 249 0 is_stmt 0 discriminator 1
 788 0056 7868     		ldr	r0, [r7, #4]
 789 0058 FFF7FEFF 		bl	ReadMag
 790              	.L26:
 250:..\src/SPI_functions.c ****     if (c_mem.IMU_conf[n][3]) ReadQuat(n);
 791              		.loc 1 250 0 is_stmt 1
 792 005c 0F49     		ldr	r1, .L30
 793 005e 7A68     		ldr	r2, [r7, #4]
 794 0060 1346     		mov	r3, r2
 795 0062 9B00     		lsls	r3, r3, #2
 796 0064 1344     		add	r3, r3, r2
 797 0066 0B44     		add	r3, r3, r1
 798 0068 03F59273 		add	r3, r3, #292
 799 006c 1B78     		ldrb	r3, [r3]	@ zero_extendqisi2
 800 006e 002B     		cmp	r3, #0
 801 0070 02D0     		beq	.L27
 802              		.loc 1 250 0 is_stmt 0 discriminator 1
 803 0072 7868     		ldr	r0, [r7, #4]
 804 0074 FFF7FEFF 		bl	ReadQuat
 805              	.L27:
 251:..\src/SPI_functions.c ****     if (c_mem.IMU_conf[n][4]) ReadTemp(n);
 806              		.loc 1 251 0 is_stmt 1
 807 0078 0849     		ldr	r1, .L30
 808 007a 7A68     		ldr	r2, [r7, #4]
 809 007c 1346     		mov	r3, r2
 810 007e 9B00     		lsls	r3, r3, #2
 811 0080 1344     		add	r3, r3, r2
 812 0082 0B44     		add	r3, r3, r1
 813 0084 03F22513 		addw	r3, r3, #293
 814 0088 1B78     		ldrb	r3, [r3]	@ zero_extendqisi2
 815 008a 002B     		cmp	r3, #0
 816 008c 02D0     		beq	.L29
 817              		.loc 1 251 0 is_stmt 0 discriminator 1
 818 008e 7868     		ldr	r0, [r7, #4]
 819 0090 FFF7FEFF 		bl	ReadTemp
 820              	.L29:
ARM GAS  C:\Users\MattiaCP\AppData\Local\Temp\ccVW8gGQ.s 			page 20


 252:..\src/SPI_functions.c **** }
 821              		.loc 1 252 0 is_stmt 1
 822 0094 00BF     		nop
 823 0096 0837     		adds	r7, r7, #8
 824              		.cfi_def_cfa_offset 8
 825 0098 BD46     		mov	sp, r7
 826              		.cfi_def_cfa_register 13
 827              		@ sp needed
 828 009a 80BD     		pop	{r7, pc}
 829              	.L31:
 830              		.align	2
 831              	.L30:
 832 009c 00000000 		.word	c_mem
 833              		.cfi_endproc
 834              	.LFE69:
 835              		.size	ReadIMU, .-ReadIMU
 836              		.section	.text.ReadAcc,"ax",%progbits
 837              		.align	2
 838              		.global	ReadAcc
 839              		.thumb
 840              		.thumb_func
 841              		.type	ReadAcc, %function
 842              	ReadAcc:
 843              	.LFB70:
 253:..\src/SPI_functions.c **** 
 254:..\src/SPI_functions.c **** /*******************************************************************************
 255:..\src/SPI_functions.c **** * Function Name: Read Acc's Data of IMU n
 256:..\src/SPI_functions.c **** *********************************************************************************/
 257:..\src/SPI_functions.c **** void ReadAcc(int n)
 258:..\src/SPI_functions.c **** {
 844              		.loc 1 258 0
 845              		.cfi_startproc
 846              		@ args = 0, pretend = 0, frame = 16
 847              		@ frame_needed = 1, uses_anonymous_args = 0
 848 0000 80B5     		push	{r7, lr}
 849              		.cfi_def_cfa_offset 8
 850              		.cfi_offset 7, -8
 851              		.cfi_offset 14, -4
 852 0002 84B0     		sub	sp, sp, #16
 853              		.cfi_def_cfa_offset 24
 854 0004 00AF     		add	r7, sp, #0
 855              		.cfi_def_cfa_register 7
 856 0006 7860     		str	r0, [r7, #4]
 259:..\src/SPI_functions.c **** 	uint8 low=0, high=0;
 857              		.loc 1 259 0
 858 0008 0023     		movs	r3, #0
 859 000a FB73     		strb	r3, [r7, #15]
 860 000c 0023     		movs	r3, #0
 861 000e BB73     		strb	r3, [r7, #14]
 260:..\src/SPI_functions.c **** 	
 261:..\src/SPI_functions.c **** 	int row = n;
 862              		.loc 1 261 0
 863 0010 7B68     		ldr	r3, [r7, #4]
 864 0012 BB60     		str	r3, [r7, #8]
 262:..\src/SPI_functions.c **** 	
 263:..\src/SPI_functions.c **** 	//read X
 264:..\src/SPI_functions.c ****     low=ReadControlRegister(MPU9250_ACCEL_XOUT_L);
ARM GAS  C:\Users\MattiaCP\AppData\Local\Temp\ccVW8gGQ.s 			page 21


 865              		.loc 1 264 0
 866 0014 3C20     		movs	r0, #60
 867 0016 FFF7FEFF 		bl	ReadControlRegister
 868 001a 0346     		mov	r3, r0
 869 001c FB73     		strb	r3, [r7, #15]
 265:..\src/SPI_functions.c ****     SPI_delay();
 870              		.loc 1 265 0
 871 001e FFF7FEFF 		bl	SPI_delay
 266:..\src/SPI_functions.c ****     high=ReadControlRegister(MPU9250_ACCEL_XOUT_H);
 872              		.loc 1 266 0
 873 0022 3B20     		movs	r0, #59
 874 0024 FFF7FEFF 		bl	ReadControlRegister
 875 0028 0346     		mov	r3, r0
 876 002a BB73     		strb	r3, [r7, #14]
 267:..\src/SPI_functions.c ****     SPI_delay();
 877              		.loc 1 267 0
 878 002c FFF7FEFF 		bl	SPI_delay
 268:..\src/SPI_functions.c ****     
 269:..\src/SPI_functions.c **** 	Accel[row][0] = high; 
 879              		.loc 1 269 0
 880 0030 3349     		ldr	r1, .L33
 881 0032 BA68     		ldr	r2, [r7, #8]
 882 0034 1346     		mov	r3, r2
 883 0036 5B00     		lsls	r3, r3, #1
 884 0038 1344     		add	r3, r3, r2
 885 003a 5B00     		lsls	r3, r3, #1
 886 003c 0B44     		add	r3, r3, r1
 887 003e BA7B     		ldrb	r2, [r7, #14]
 888 0040 1A70     		strb	r2, [r3]
 270:..\src/SPI_functions.c **** 	Accel[row][1] = low; 
 889              		.loc 1 270 0
 890 0042 2F49     		ldr	r1, .L33
 891 0044 BA68     		ldr	r2, [r7, #8]
 892 0046 1346     		mov	r3, r2
 893 0048 5B00     		lsls	r3, r3, #1
 894 004a 1344     		add	r3, r3, r2
 895 004c 5B00     		lsls	r3, r3, #1
 896 004e 0B44     		add	r3, r3, r1
 897 0050 0133     		adds	r3, r3, #1
 898 0052 FA7B     		ldrb	r2, [r7, #15]
 899 0054 1A70     		strb	r2, [r3]
 271:..\src/SPI_functions.c **** 	low=0, high=0;
 900              		.loc 1 271 0
 901 0056 0023     		movs	r3, #0
 902 0058 FB73     		strb	r3, [r7, #15]
 903 005a 0023     		movs	r3, #0
 904 005c BB73     		strb	r3, [r7, #14]
 272:..\src/SPI_functions.c **** 			
 273:..\src/SPI_functions.c **** 	//read Y
 274:..\src/SPI_functions.c ****     low=ReadControlRegister(MPU9250_ACCEL_YOUT_L);
 905              		.loc 1 274 0
 906 005e 3E20     		movs	r0, #62
 907 0060 FFF7FEFF 		bl	ReadControlRegister
 908 0064 0346     		mov	r3, r0
 909 0066 FB73     		strb	r3, [r7, #15]
 275:..\src/SPI_functions.c ****     SPI_delay();
 910              		.loc 1 275 0
ARM GAS  C:\Users\MattiaCP\AppData\Local\Temp\ccVW8gGQ.s 			page 22


 911 0068 FFF7FEFF 		bl	SPI_delay
 276:..\src/SPI_functions.c **** 	high=ReadControlRegister(MPU9250_ACCEL_YOUT_H);
 912              		.loc 1 276 0
 913 006c 3D20     		movs	r0, #61
 914 006e FFF7FEFF 		bl	ReadControlRegister
 915 0072 0346     		mov	r3, r0
 916 0074 BB73     		strb	r3, [r7, #14]
 277:..\src/SPI_functions.c ****     SPI_delay();
 917              		.loc 1 277 0
 918 0076 FFF7FEFF 		bl	SPI_delay
 278:..\src/SPI_functions.c **** 
 279:..\src/SPI_functions.c **** 	Accel[row][2] = high; 
 919              		.loc 1 279 0
 920 007a 2149     		ldr	r1, .L33
 921 007c BA68     		ldr	r2, [r7, #8]
 922 007e 1346     		mov	r3, r2
 923 0080 5B00     		lsls	r3, r3, #1
 924 0082 1344     		add	r3, r3, r2
 925 0084 5B00     		lsls	r3, r3, #1
 926 0086 0B44     		add	r3, r3, r1
 927 0088 0233     		adds	r3, r3, #2
 928 008a BA7B     		ldrb	r2, [r7, #14]
 929 008c 1A70     		strb	r2, [r3]
 280:..\src/SPI_functions.c **** 	Accel[row][3] = low; 
 930              		.loc 1 280 0
 931 008e 1C49     		ldr	r1, .L33
 932 0090 BA68     		ldr	r2, [r7, #8]
 933 0092 1346     		mov	r3, r2
 934 0094 5B00     		lsls	r3, r3, #1
 935 0096 1344     		add	r3, r3, r2
 936 0098 5B00     		lsls	r3, r3, #1
 937 009a 0B44     		add	r3, r3, r1
 938 009c 0333     		adds	r3, r3, #3
 939 009e FA7B     		ldrb	r2, [r7, #15]
 940 00a0 1A70     		strb	r2, [r3]
 281:..\src/SPI_functions.c **** 	low=0, high=0;
 941              		.loc 1 281 0
 942 00a2 0023     		movs	r3, #0
 943 00a4 FB73     		strb	r3, [r7, #15]
 944 00a6 0023     		movs	r3, #0
 945 00a8 BB73     		strb	r3, [r7, #14]
 282:..\src/SPI_functions.c **** 		
 283:..\src/SPI_functions.c **** 	//read Z
 284:..\src/SPI_functions.c ****     low=ReadControlRegister(MPU9250_ACCEL_ZOUT_L);
 946              		.loc 1 284 0
 947 00aa 4020     		movs	r0, #64
 948 00ac FFF7FEFF 		bl	ReadControlRegister
 949 00b0 0346     		mov	r3, r0
 950 00b2 FB73     		strb	r3, [r7, #15]
 285:..\src/SPI_functions.c ****     SPI_delay();
 951              		.loc 1 285 0
 952 00b4 FFF7FEFF 		bl	SPI_delay
 286:..\src/SPI_functions.c ****     high=ReadControlRegister(MPU9250_ACCEL_ZOUT_H);
 953              		.loc 1 286 0
 954 00b8 3F20     		movs	r0, #63
 955 00ba FFF7FEFF 		bl	ReadControlRegister
 956 00be 0346     		mov	r3, r0
ARM GAS  C:\Users\MattiaCP\AppData\Local\Temp\ccVW8gGQ.s 			page 23


 957 00c0 BB73     		strb	r3, [r7, #14]
 287:..\src/SPI_functions.c ****     SPI_delay();
 958              		.loc 1 287 0
 959 00c2 FFF7FEFF 		bl	SPI_delay
 288:..\src/SPI_functions.c ****     
 289:..\src/SPI_functions.c **** 	Accel[row][4] = high; 
 960              		.loc 1 289 0
 961 00c6 0E49     		ldr	r1, .L33
 962 00c8 BA68     		ldr	r2, [r7, #8]
 963 00ca 1346     		mov	r3, r2
 964 00cc 5B00     		lsls	r3, r3, #1
 965 00ce 1344     		add	r3, r3, r2
 966 00d0 5B00     		lsls	r3, r3, #1
 967 00d2 0B44     		add	r3, r3, r1
 968 00d4 0433     		adds	r3, r3, #4
 969 00d6 BA7B     		ldrb	r2, [r7, #14]
 970 00d8 1A70     		strb	r2, [r3]
 290:..\src/SPI_functions.c **** 	Accel[row][5] = low;
 971              		.loc 1 290 0
 972 00da 0949     		ldr	r1, .L33
 973 00dc BA68     		ldr	r2, [r7, #8]
 974 00de 1346     		mov	r3, r2
 975 00e0 5B00     		lsls	r3, r3, #1
 976 00e2 1344     		add	r3, r3, r2
 977 00e4 5B00     		lsls	r3, r3, #1
 978 00e6 0B44     		add	r3, r3, r1
 979 00e8 0533     		adds	r3, r3, #5
 980 00ea FA7B     		ldrb	r2, [r7, #15]
 981 00ec 1A70     		strb	r2, [r3]
 291:..\src/SPI_functions.c **** 	low=0, high=0;
 982              		.loc 1 291 0
 983 00ee 0023     		movs	r3, #0
 984 00f0 FB73     		strb	r3, [r7, #15]
 985 00f2 0023     		movs	r3, #0
 986 00f4 BB73     		strb	r3, [r7, #14]
 292:..\src/SPI_functions.c **** }
 987              		.loc 1 292 0
 988 00f6 00BF     		nop
 989 00f8 1037     		adds	r7, r7, #16
 990              		.cfi_def_cfa_offset 8
 991 00fa BD46     		mov	sp, r7
 992              		.cfi_def_cfa_register 13
 993              		@ sp needed
 994 00fc 80BD     		pop	{r7, pc}
 995              	.L34:
 996 00fe 00BF     		.align	2
 997              	.L33:
 998 0100 00000000 		.word	Accel
 999              		.cfi_endproc
 1000              	.LFE70:
 1001              		.size	ReadAcc, .-ReadAcc
 1002              		.section	.text.ReadGyro,"ax",%progbits
 1003              		.align	2
 1004              		.global	ReadGyro
 1005              		.thumb
 1006              		.thumb_func
 1007              		.type	ReadGyro, %function
ARM GAS  C:\Users\MattiaCP\AppData\Local\Temp\ccVW8gGQ.s 			page 24


 1008              	ReadGyro:
 1009              	.LFB71:
 293:..\src/SPI_functions.c **** 
 294:..\src/SPI_functions.c **** /*******************************************************************************
 295:..\src/SPI_functions.c **** * Function Name: Read Gyro's Data of IMU n
 296:..\src/SPI_functions.c **** *********************************************************************************/
 297:..\src/SPI_functions.c **** void ReadGyro(int n){
 1010              		.loc 1 297 0
 1011              		.cfi_startproc
 1012              		@ args = 0, pretend = 0, frame = 16
 1013              		@ frame_needed = 1, uses_anonymous_args = 0
 1014 0000 80B5     		push	{r7, lr}
 1015              		.cfi_def_cfa_offset 8
 1016              		.cfi_offset 7, -8
 1017              		.cfi_offset 14, -4
 1018 0002 84B0     		sub	sp, sp, #16
 1019              		.cfi_def_cfa_offset 24
 1020 0004 00AF     		add	r7, sp, #0
 1021              		.cfi_def_cfa_register 7
 1022 0006 7860     		str	r0, [r7, #4]
 298:..\src/SPI_functions.c **** 	uint8 low=0, high=0;
 1023              		.loc 1 298 0
 1024 0008 0023     		movs	r3, #0
 1025 000a FB73     		strb	r3, [r7, #15]
 1026 000c 0023     		movs	r3, #0
 1027 000e BB73     		strb	r3, [r7, #14]
 299:..\src/SPI_functions.c ****  
 300:..\src/SPI_functions.c **** 	int row = n;
 1028              		.loc 1 300 0
 1029 0010 7B68     		ldr	r3, [r7, #4]
 1030 0012 BB60     		str	r3, [r7, #8]
 301:..\src/SPI_functions.c **** 	
 302:..\src/SPI_functions.c **** 	//read X
 303:..\src/SPI_functions.c **** 	low=ReadControlRegister(MPU9250_GYRO_XOUT_L);
 1031              		.loc 1 303 0
 1032 0014 4420     		movs	r0, #68
 1033 0016 FFF7FEFF 		bl	ReadControlRegister
 1034 001a 0346     		mov	r3, r0
 1035 001c FB73     		strb	r3, [r7, #15]
 304:..\src/SPI_functions.c ****     SPI_delay();
 1036              		.loc 1 304 0
 1037 001e FFF7FEFF 		bl	SPI_delay
 305:..\src/SPI_functions.c **** 	high=ReadControlRegister(MPU9250_GYRO_XOUT_H);
 1038              		.loc 1 305 0
 1039 0022 4320     		movs	r0, #67
 1040 0024 FFF7FEFF 		bl	ReadControlRegister
 1041 0028 0346     		mov	r3, r0
 1042 002a BB73     		strb	r3, [r7, #14]
 306:..\src/SPI_functions.c ****     SPI_delay();
 1043              		.loc 1 306 0
 1044 002c FFF7FEFF 		bl	SPI_delay
 307:..\src/SPI_functions.c ****     
 308:..\src/SPI_functions.c **** 	Gyro[row][0] = high; 
 1045              		.loc 1 308 0
 1046 0030 3349     		ldr	r1, .L36
 1047 0032 BA68     		ldr	r2, [r7, #8]
 1048 0034 1346     		mov	r3, r2
ARM GAS  C:\Users\MattiaCP\AppData\Local\Temp\ccVW8gGQ.s 			page 25


 1049 0036 5B00     		lsls	r3, r3, #1
 1050 0038 1344     		add	r3, r3, r2
 1051 003a 5B00     		lsls	r3, r3, #1
 1052 003c 0B44     		add	r3, r3, r1
 1053 003e BA7B     		ldrb	r2, [r7, #14]
 1054 0040 1A70     		strb	r2, [r3]
 309:..\src/SPI_functions.c **** 	Gyro[row][1] = low;
 1055              		.loc 1 309 0
 1056 0042 2F49     		ldr	r1, .L36
 1057 0044 BA68     		ldr	r2, [r7, #8]
 1058 0046 1346     		mov	r3, r2
 1059 0048 5B00     		lsls	r3, r3, #1
 1060 004a 1344     		add	r3, r3, r2
 1061 004c 5B00     		lsls	r3, r3, #1
 1062 004e 0B44     		add	r3, r3, r1
 1063 0050 0133     		adds	r3, r3, #1
 1064 0052 FA7B     		ldrb	r2, [r7, #15]
 1065 0054 1A70     		strb	r2, [r3]
 310:..\src/SPI_functions.c **** 	low=0, high=0;
 1066              		.loc 1 310 0
 1067 0056 0023     		movs	r3, #0
 1068 0058 FB73     		strb	r3, [r7, #15]
 1069 005a 0023     		movs	r3, #0
 1070 005c BB73     		strb	r3, [r7, #14]
 311:..\src/SPI_functions.c ****     
 312:..\src/SPI_functions.c **** 	//read Y
 313:..\src/SPI_functions.c **** 	low=ReadControlRegister(MPU9250_GYRO_YOUT_L);
 1071              		.loc 1 313 0
 1072 005e 4620     		movs	r0, #70
 1073 0060 FFF7FEFF 		bl	ReadControlRegister
 1074 0064 0346     		mov	r3, r0
 1075 0066 FB73     		strb	r3, [r7, #15]
 314:..\src/SPI_functions.c ****     SPI_delay();
 1076              		.loc 1 314 0
 1077 0068 FFF7FEFF 		bl	SPI_delay
 315:..\src/SPI_functions.c **** 	high=ReadControlRegister(MPU9250_GYRO_YOUT_H);
 1078              		.loc 1 315 0
 1079 006c 4520     		movs	r0, #69
 1080 006e FFF7FEFF 		bl	ReadControlRegister
 1081 0072 0346     		mov	r3, r0
 1082 0074 BB73     		strb	r3, [r7, #14]
 316:..\src/SPI_functions.c ****     SPI_delay();
 1083              		.loc 1 316 0
 1084 0076 FFF7FEFF 		bl	SPI_delay
 317:..\src/SPI_functions.c ****     
 318:..\src/SPI_functions.c **** 	Gyro[row][2] = high; 
 1085              		.loc 1 318 0
 1086 007a 2149     		ldr	r1, .L36
 1087 007c BA68     		ldr	r2, [r7, #8]
 1088 007e 1346     		mov	r3, r2
 1089 0080 5B00     		lsls	r3, r3, #1
 1090 0082 1344     		add	r3, r3, r2
 1091 0084 5B00     		lsls	r3, r3, #1
 1092 0086 0B44     		add	r3, r3, r1
 1093 0088 0233     		adds	r3, r3, #2
 1094 008a BA7B     		ldrb	r2, [r7, #14]
 1095 008c 1A70     		strb	r2, [r3]
ARM GAS  C:\Users\MattiaCP\AppData\Local\Temp\ccVW8gGQ.s 			page 26


 319:..\src/SPI_functions.c **** 	Gyro[row][3] = low;
 1096              		.loc 1 319 0
 1097 008e 1C49     		ldr	r1, .L36
 1098 0090 BA68     		ldr	r2, [r7, #8]
 1099 0092 1346     		mov	r3, r2
 1100 0094 5B00     		lsls	r3, r3, #1
 1101 0096 1344     		add	r3, r3, r2
 1102 0098 5B00     		lsls	r3, r3, #1
 1103 009a 0B44     		add	r3, r3, r1
 1104 009c 0333     		adds	r3, r3, #3
 1105 009e FA7B     		ldrb	r2, [r7, #15]
 1106 00a0 1A70     		strb	r2, [r3]
 320:..\src/SPI_functions.c **** 	low=0, high=0;
 1107              		.loc 1 320 0
 1108 00a2 0023     		movs	r3, #0
 1109 00a4 FB73     		strb	r3, [r7, #15]
 1110 00a6 0023     		movs	r3, #0
 1111 00a8 BB73     		strb	r3, [r7, #14]
 321:..\src/SPI_functions.c **** 
 322:..\src/SPI_functions.c **** 	//read Z
 323:..\src/SPI_functions.c ****     low=ReadControlRegister(MPU9250_GYRO_ZOUT_L);
 1112              		.loc 1 323 0
 1113 00aa 4820     		movs	r0, #72
 1114 00ac FFF7FEFF 		bl	ReadControlRegister
 1115 00b0 0346     		mov	r3, r0
 1116 00b2 FB73     		strb	r3, [r7, #15]
 324:..\src/SPI_functions.c ****     SPI_delay();
 1117              		.loc 1 324 0
 1118 00b4 FFF7FEFF 		bl	SPI_delay
 325:..\src/SPI_functions.c **** 	high=ReadControlRegister(MPU9250_GYRO_ZOUT_H);
 1119              		.loc 1 325 0
 1120 00b8 4720     		movs	r0, #71
 1121 00ba FFF7FEFF 		bl	ReadControlRegister
 1122 00be 0346     		mov	r3, r0
 1123 00c0 BB73     		strb	r3, [r7, #14]
 326:..\src/SPI_functions.c ****     SPI_delay();
 1124              		.loc 1 326 0
 1125 00c2 FFF7FEFF 		bl	SPI_delay
 327:..\src/SPI_functions.c ****     
 328:..\src/SPI_functions.c **** 	Gyro[row][4] = high; 
 1126              		.loc 1 328 0
 1127 00c6 0E49     		ldr	r1, .L36
 1128 00c8 BA68     		ldr	r2, [r7, #8]
 1129 00ca 1346     		mov	r3, r2
 1130 00cc 5B00     		lsls	r3, r3, #1
 1131 00ce 1344     		add	r3, r3, r2
 1132 00d0 5B00     		lsls	r3, r3, #1
 1133 00d2 0B44     		add	r3, r3, r1
 1134 00d4 0433     		adds	r3, r3, #4
 1135 00d6 BA7B     		ldrb	r2, [r7, #14]
 1136 00d8 1A70     		strb	r2, [r3]
 329:..\src/SPI_functions.c **** 	Gyro[row][5] = low;        
 1137              		.loc 1 329 0
 1138 00da 0949     		ldr	r1, .L36
 1139 00dc BA68     		ldr	r2, [r7, #8]
 1140 00de 1346     		mov	r3, r2
 1141 00e0 5B00     		lsls	r3, r3, #1
ARM GAS  C:\Users\MattiaCP\AppData\Local\Temp\ccVW8gGQ.s 			page 27


 1142 00e2 1344     		add	r3, r3, r2
 1143 00e4 5B00     		lsls	r3, r3, #1
 1144 00e6 0B44     		add	r3, r3, r1
 1145 00e8 0533     		adds	r3, r3, #5
 1146 00ea FA7B     		ldrb	r2, [r7, #15]
 1147 00ec 1A70     		strb	r2, [r3]
 330:..\src/SPI_functions.c **** 
 331:..\src/SPI_functions.c **** 	low=0, high=0;
 1148              		.loc 1 331 0
 1149 00ee 0023     		movs	r3, #0
 1150 00f0 FB73     		strb	r3, [r7, #15]
 1151 00f2 0023     		movs	r3, #0
 1152 00f4 BB73     		strb	r3, [r7, #14]
 332:..\src/SPI_functions.c **** }
 1153              		.loc 1 332 0
 1154 00f6 00BF     		nop
 1155 00f8 1037     		adds	r7, r7, #16
 1156              		.cfi_def_cfa_offset 8
 1157 00fa BD46     		mov	sp, r7
 1158              		.cfi_def_cfa_register 13
 1159              		@ sp needed
 1160 00fc 80BD     		pop	{r7, pc}
 1161              	.L37:
 1162 00fe 00BF     		.align	2
 1163              	.L36:
 1164 0100 00000000 		.word	Gyro
 1165              		.cfi_endproc
 1166              	.LFE71:
 1167              		.size	ReadGyro, .-ReadGyro
 1168              		.section	.text.ReadMag,"ax",%progbits
 1169              		.align	2
 1170              		.global	ReadMag
 1171              		.thumb
 1172              		.thumb_func
 1173              		.type	ReadMag, %function
 1174              	ReadMag:
 1175              	.LFB72:
 333:..\src/SPI_functions.c **** 
 334:..\src/SPI_functions.c **** /*******************************************************************************
 335:..\src/SPI_functions.c **** * Function Name: Read Compas' Data of IMU n
 336:..\src/SPI_functions.c **** *********************************************************************************/
 337:..\src/SPI_functions.c **** void ReadMag(int n){
 1176              		.loc 1 337 0
 1177              		.cfi_startproc
 1178              		@ args = 0, pretend = 0, frame = 16
 1179              		@ frame_needed = 1, uses_anonymous_args = 0
 1180 0000 80B5     		push	{r7, lr}
 1181              		.cfi_def_cfa_offset 8
 1182              		.cfi_offset 7, -8
 1183              		.cfi_offset 14, -4
 1184 0002 84B0     		sub	sp, sp, #16
 1185              		.cfi_def_cfa_offset 24
 1186 0004 00AF     		add	r7, sp, #0
 1187              		.cfi_def_cfa_register 7
 1188 0006 7860     		str	r0, [r7, #4]
 338:..\src/SPI_functions.c **** 	
 339:..\src/SPI_functions.c **** 	uint8 low, high;
ARM GAS  C:\Users\MattiaCP\AppData\Local\Temp\ccVW8gGQ.s 			page 28


 340:..\src/SPI_functions.c **** 	int row = n;	
 1189              		.loc 1 340 0
 1190 0008 7B68     		ldr	r3, [r7, #4]
 1191 000a FB60     		str	r3, [r7, #12]
 341:..\src/SPI_functions.c **** 	//read X
 342:..\src/SPI_functions.c **** 	low = ReadControlRegister(MPU9250_EXT_SENS_DATA_00);
 1192              		.loc 1 342 0
 1193 000c 4920     		movs	r0, #73
 1194 000e FFF7FEFF 		bl	ReadControlRegister
 1195 0012 0346     		mov	r3, r0
 1196 0014 FB72     		strb	r3, [r7, #11]
 343:..\src/SPI_functions.c ****     SPI_delay();
 1197              		.loc 1 343 0
 1198 0016 FFF7FEFF 		bl	SPI_delay
 344:..\src/SPI_functions.c **** 	high = ReadControlRegister(MPU9250_EXT_SENS_DATA_01);		
 1199              		.loc 1 344 0
 1200 001a 4A20     		movs	r0, #74
 1201 001c FFF7FEFF 		bl	ReadControlRegister
 1202 0020 0346     		mov	r3, r0
 1203 0022 BB72     		strb	r3, [r7, #10]
 345:..\src/SPI_functions.c ****     SPI_delay();
 1204              		.loc 1 345 0
 1205 0024 FFF7FEFF 		bl	SPI_delay
 346:..\src/SPI_functions.c ****     
 347:..\src/SPI_functions.c **** 	Mag[row][0] = high; 
 1206              		.loc 1 347 0
 1207 0028 3349     		ldr	r1, .L39
 1208 002a FA68     		ldr	r2, [r7, #12]
 1209 002c 1346     		mov	r3, r2
 1210 002e 5B00     		lsls	r3, r3, #1
 1211 0030 1344     		add	r3, r3, r2
 1212 0032 5B00     		lsls	r3, r3, #1
 1213 0034 0B44     		add	r3, r3, r1
 1214 0036 BA7A     		ldrb	r2, [r7, #10]
 1215 0038 1A70     		strb	r2, [r3]
 348:..\src/SPI_functions.c **** 	Mag[row][1] = low;
 1216              		.loc 1 348 0
 1217 003a 2F49     		ldr	r1, .L39
 1218 003c FA68     		ldr	r2, [r7, #12]
 1219 003e 1346     		mov	r3, r2
 1220 0040 5B00     		lsls	r3, r3, #1
 1221 0042 1344     		add	r3, r3, r2
 1222 0044 5B00     		lsls	r3, r3, #1
 1223 0046 0B44     		add	r3, r3, r1
 1224 0048 0133     		adds	r3, r3, #1
 1225 004a FA7A     		ldrb	r2, [r7, #11]
 1226 004c 1A70     		strb	r2, [r3]
 349:..\src/SPI_functions.c **** 	low=0, high=0;
 1227              		.loc 1 349 0
 1228 004e 0023     		movs	r3, #0
 1229 0050 FB72     		strb	r3, [r7, #11]
 1230 0052 0023     		movs	r3, #0
 1231 0054 BB72     		strb	r3, [r7, #10]
 350:..\src/SPI_functions.c ****     
 351:..\src/SPI_functions.c **** 	//read Y
 352:..\src/SPI_functions.c **** 	low = ReadControlRegister(MPU9250_EXT_SENS_DATA_02);
 1232              		.loc 1 352 0
ARM GAS  C:\Users\MattiaCP\AppData\Local\Temp\ccVW8gGQ.s 			page 29


 1233 0056 4B20     		movs	r0, #75
 1234 0058 FFF7FEFF 		bl	ReadControlRegister
 1235 005c 0346     		mov	r3, r0
 1236 005e FB72     		strb	r3, [r7, #11]
 353:..\src/SPI_functions.c ****     SPI_delay();
 1237              		.loc 1 353 0
 1238 0060 FFF7FEFF 		bl	SPI_delay
 354:..\src/SPI_functions.c **** 	high = ReadControlRegister(MPU9250_EXT_SENS_DATA_03);		
 1239              		.loc 1 354 0
 1240 0064 4C20     		movs	r0, #76
 1241 0066 FFF7FEFF 		bl	ReadControlRegister
 1242 006a 0346     		mov	r3, r0
 1243 006c BB72     		strb	r3, [r7, #10]
 355:..\src/SPI_functions.c ****     SPI_delay();
 1244              		.loc 1 355 0
 1245 006e FFF7FEFF 		bl	SPI_delay
 356:..\src/SPI_functions.c ****     
 357:..\src/SPI_functions.c **** 	Mag[row][2] = high; 
 1246              		.loc 1 357 0
 1247 0072 2149     		ldr	r1, .L39
 1248 0074 FA68     		ldr	r2, [r7, #12]
 1249 0076 1346     		mov	r3, r2
 1250 0078 5B00     		lsls	r3, r3, #1
 1251 007a 1344     		add	r3, r3, r2
 1252 007c 5B00     		lsls	r3, r3, #1
 1253 007e 0B44     		add	r3, r3, r1
 1254 0080 0233     		adds	r3, r3, #2
 1255 0082 BA7A     		ldrb	r2, [r7, #10]
 1256 0084 1A70     		strb	r2, [r3]
 358:..\src/SPI_functions.c **** 	Mag[row][3] = low;
 1257              		.loc 1 358 0
 1258 0086 1C49     		ldr	r1, .L39
 1259 0088 FA68     		ldr	r2, [r7, #12]
 1260 008a 1346     		mov	r3, r2
 1261 008c 5B00     		lsls	r3, r3, #1
 1262 008e 1344     		add	r3, r3, r2
 1263 0090 5B00     		lsls	r3, r3, #1
 1264 0092 0B44     		add	r3, r3, r1
 1265 0094 0333     		adds	r3, r3, #3
 1266 0096 FA7A     		ldrb	r2, [r7, #11]
 1267 0098 1A70     		strb	r2, [r3]
 359:..\src/SPI_functions.c **** 	low=0, high=0;
 1268              		.loc 1 359 0
 1269 009a 0023     		movs	r3, #0
 1270 009c FB72     		strb	r3, [r7, #11]
 1271 009e 0023     		movs	r3, #0
 1272 00a0 BB72     		strb	r3, [r7, #10]
 360:..\src/SPI_functions.c ****     
 361:..\src/SPI_functions.c **** 	//read Z
 362:..\src/SPI_functions.c **** 	low = ReadControlRegister(MPU9250_EXT_SENS_DATA_04);
 1273              		.loc 1 362 0
 1274 00a2 4D20     		movs	r0, #77
 1275 00a4 FFF7FEFF 		bl	ReadControlRegister
 1276 00a8 0346     		mov	r3, r0
 1277 00aa FB72     		strb	r3, [r7, #11]
 363:..\src/SPI_functions.c ****     SPI_delay();
 1278              		.loc 1 363 0
ARM GAS  C:\Users\MattiaCP\AppData\Local\Temp\ccVW8gGQ.s 			page 30


 1279 00ac FFF7FEFF 		bl	SPI_delay
 364:..\src/SPI_functions.c **** 	high = ReadControlRegister(MPU9250_EXT_SENS_DATA_05);
 1280              		.loc 1 364 0
 1281 00b0 4E20     		movs	r0, #78
 1282 00b2 FFF7FEFF 		bl	ReadControlRegister
 1283 00b6 0346     		mov	r3, r0
 1284 00b8 BB72     		strb	r3, [r7, #10]
 365:..\src/SPI_functions.c ****     SPI_delay();
 1285              		.loc 1 365 0
 1286 00ba FFF7FEFF 		bl	SPI_delay
 366:..\src/SPI_functions.c **** 		
 367:..\src/SPI_functions.c **** 	Mag[row][4] = high; 
 1287              		.loc 1 367 0
 1288 00be 0E49     		ldr	r1, .L39
 1289 00c0 FA68     		ldr	r2, [r7, #12]
 1290 00c2 1346     		mov	r3, r2
 1291 00c4 5B00     		lsls	r3, r3, #1
 1292 00c6 1344     		add	r3, r3, r2
 1293 00c8 5B00     		lsls	r3, r3, #1
 1294 00ca 0B44     		add	r3, r3, r1
 1295 00cc 0433     		adds	r3, r3, #4
 1296 00ce BA7A     		ldrb	r2, [r7, #10]
 1297 00d0 1A70     		strb	r2, [r3]
 368:..\src/SPI_functions.c **** 	Mag[row][5] = low;
 1298              		.loc 1 368 0
 1299 00d2 0949     		ldr	r1, .L39
 1300 00d4 FA68     		ldr	r2, [r7, #12]
 1301 00d6 1346     		mov	r3, r2
 1302 00d8 5B00     		lsls	r3, r3, #1
 1303 00da 1344     		add	r3, r3, r2
 1304 00dc 5B00     		lsls	r3, r3, #1
 1305 00de 0B44     		add	r3, r3, r1
 1306 00e0 0533     		adds	r3, r3, #5
 1307 00e2 FA7A     		ldrb	r2, [r7, #11]
 1308 00e4 1A70     		strb	r2, [r3]
 369:..\src/SPI_functions.c **** 	low=0, high=0;
 1309              		.loc 1 369 0
 1310 00e6 0023     		movs	r3, #0
 1311 00e8 FB72     		strb	r3, [r7, #11]
 1312 00ea 0023     		movs	r3, #0
 1313 00ec BB72     		strb	r3, [r7, #10]
 370:..\src/SPI_functions.c **** }
 1314              		.loc 1 370 0
 1315 00ee 00BF     		nop
 1316 00f0 1037     		adds	r7, r7, #16
 1317              		.cfi_def_cfa_offset 8
 1318 00f2 BD46     		mov	sp, r7
 1319              		.cfi_def_cfa_register 13
 1320              		@ sp needed
 1321 00f4 80BD     		pop	{r7, pc}
 1322              	.L40:
 1323 00f6 00BF     		.align	2
 1324              	.L39:
 1325 00f8 00000000 		.word	Mag
 1326              		.cfi_endproc
 1327              	.LFE72:
 1328              		.size	ReadMag, .-ReadMag
ARM GAS  C:\Users\MattiaCP\AppData\Local\Temp\ccVW8gGQ.s 			page 31


 1329              		.section	.text.ReadMagCal,"ax",%progbits
 1330              		.align	2
 1331              		.global	ReadMagCal
 1332              		.thumb
 1333              		.thumb_func
 1334              		.type	ReadMagCal, %function
 1335              	ReadMagCal:
 1336              	.LFB73:
 371:..\src/SPI_functions.c **** 
 372:..\src/SPI_functions.c **** /********************************************************************************
 373:..\src/SPI_functions.c **** * Function Name: ReadMagCal
 374:..\src/SPI_functions.c **** *********************************************************************************/
 375:..\src/SPI_functions.c **** void ReadMagCal(int n){
 1337              		.loc 1 375 0
 1338              		.cfi_startproc
 1339              		@ args = 0, pretend = 0, frame = 16
 1340              		@ frame_needed = 1, uses_anonymous_args = 0
 1341 0000 80B5     		push	{r7, lr}
 1342              		.cfi_def_cfa_offset 8
 1343              		.cfi_offset 7, -8
 1344              		.cfi_offset 14, -4
 1345 0002 84B0     		sub	sp, sp, #16
 1346              		.cfi_def_cfa_offset 24
 1347 0004 00AF     		add	r7, sp, #0
 1348              		.cfi_def_cfa_register 7
 1349 0006 7860     		str	r0, [r7, #4]
 376:..\src/SPI_functions.c **** 	
 377:..\src/SPI_functions.c ****     uint8 read = 0; 
 1350              		.loc 1 377 0
 1351 0008 0023     		movs	r3, #0
 1352 000a FB73     		strb	r3, [r7, #15]
 378:..\src/SPI_functions.c **** 	int row = n;	
 1353              		.loc 1 378 0
 1354 000c 7B68     		ldr	r3, [r7, #4]
 1355 000e BB60     		str	r3, [r7, #8]
 379:..\src/SPI_functions.c **** 	//read X
 380:..\src/SPI_functions.c **** 	read = ReadControlRegister(MPU9250_EXT_SENS_DATA_00);
 1356              		.loc 1 380 0
 1357 0010 4920     		movs	r0, #73
 1358 0012 FFF7FEFF 		bl	ReadControlRegister
 1359 0016 0346     		mov	r3, r0
 1360 0018 FB73     		strb	r3, [r7, #15]
 381:..\src/SPI_functions.c ****     MagCal[row][0] = read; 
 1361              		.loc 1 381 0
 1362 001a 1749     		ldr	r1, .L42
 1363 001c BA68     		ldr	r2, [r7, #8]
 1364 001e 1346     		mov	r3, r2
 1365 0020 5B00     		lsls	r3, r3, #1
 1366 0022 1344     		add	r3, r3, r2
 1367 0024 0B44     		add	r3, r3, r1
 1368 0026 FA7B     		ldrb	r2, [r7, #15]
 1369 0028 1A70     		strb	r2, [r3]
 382:..\src/SPI_functions.c ****     read = 0;
 1370              		.loc 1 382 0
 1371 002a 0023     		movs	r3, #0
 1372 002c FB73     		strb	r3, [r7, #15]
 383:..\src/SPI_functions.c ****     
ARM GAS  C:\Users\MattiaCP\AppData\Local\Temp\ccVW8gGQ.s 			page 32


 384:..\src/SPI_functions.c **** 	//read Y
 385:..\src/SPI_functions.c **** 	read = ReadControlRegister(MPU9250_EXT_SENS_DATA_01);			
 1373              		.loc 1 385 0
 1374 002e 4A20     		movs	r0, #74
 1375 0030 FFF7FEFF 		bl	ReadControlRegister
 1376 0034 0346     		mov	r3, r0
 1377 0036 FB73     		strb	r3, [r7, #15]
 386:..\src/SPI_functions.c **** 	MagCal[row][1] = read; 
 1378              		.loc 1 386 0
 1379 0038 0F49     		ldr	r1, .L42
 1380 003a BA68     		ldr	r2, [r7, #8]
 1381 003c 1346     		mov	r3, r2
 1382 003e 5B00     		lsls	r3, r3, #1
 1383 0040 1344     		add	r3, r3, r2
 1384 0042 0B44     		add	r3, r3, r1
 1385 0044 0133     		adds	r3, r3, #1
 1386 0046 FA7B     		ldrb	r2, [r7, #15]
 1387 0048 1A70     		strb	r2, [r3]
 387:..\src/SPI_functions.c **** 	read = 0;
 1388              		.loc 1 387 0
 1389 004a 0023     		movs	r3, #0
 1390 004c FB73     		strb	r3, [r7, #15]
 388:..\src/SPI_functions.c ****     
 389:..\src/SPI_functions.c **** 	//read Z
 390:..\src/SPI_functions.c **** 	read = ReadControlRegister(MPU9250_EXT_SENS_DATA_02);			
 1391              		.loc 1 390 0
 1392 004e 4B20     		movs	r0, #75
 1393 0050 FFF7FEFF 		bl	ReadControlRegister
 1394 0054 0346     		mov	r3, r0
 1395 0056 FB73     		strb	r3, [r7, #15]
 391:..\src/SPI_functions.c **** 	MagCal[row][2] = read; 
 1396              		.loc 1 391 0
 1397 0058 0749     		ldr	r1, .L42
 1398 005a BA68     		ldr	r2, [r7, #8]
 1399 005c 1346     		mov	r3, r2
 1400 005e 5B00     		lsls	r3, r3, #1
 1401 0060 1344     		add	r3, r3, r2
 1402 0062 0B44     		add	r3, r3, r1
 1403 0064 0233     		adds	r3, r3, #2
 1404 0066 FA7B     		ldrb	r2, [r7, #15]
 1405 0068 1A70     		strb	r2, [r3]
 392:..\src/SPI_functions.c **** 	read = 0;
 1406              		.loc 1 392 0
 1407 006a 0023     		movs	r3, #0
 1408 006c FB73     		strb	r3, [r7, #15]
 393:..\src/SPI_functions.c ****     
 394:..\src/SPI_functions.c **** }
 1409              		.loc 1 394 0
 1410 006e 00BF     		nop
 1411 0070 1037     		adds	r7, r7, #16
 1412              		.cfi_def_cfa_offset 8
 1413 0072 BD46     		mov	sp, r7
 1414              		.cfi_def_cfa_register 13
 1415              		@ sp needed
 1416 0074 80BD     		pop	{r7, pc}
 1417              	.L43:
 1418 0076 00BF     		.align	2
ARM GAS  C:\Users\MattiaCP\AppData\Local\Temp\ccVW8gGQ.s 			page 33


 1419              	.L42:
 1420 0078 00000000 		.word	MagCal
 1421              		.cfi_endproc
 1422              	.LFE73:
 1423              		.size	ReadMagCal, .-ReadMagCal
 1424              		.global	__aeabi_ui2f
 1425              		.global	__aeabi_fdiv
 1426              		.global	__aeabi_i2f
 1427              		.global	__aeabi_i2d
 1428              		.global	__aeabi_dmul
 1429              		.global	__aeabi_d2f
 1430              		.global	__aeabi_f2d
 1431              		.global	__aeabi_dcmplt
 1432              		.global	__aeabi_fmul
 1433              		.global	__aeabi_fsub
 1434              		.global	__aeabi_fadd
 1435              		.global	__aeabi_dsub
 1436              		.global	__aeabi_dadd
 1437              		.section	.text.ReadQuat,"ax",%progbits
 1438              		.align	2
 1439              		.global	ReadQuat
 1440              		.thumb
 1441              		.thumb_func
 1442              		.type	ReadQuat, %function
 1443              	ReadQuat:
 1444              	.LFB74:
 395:..\src/SPI_functions.c ****     
 396:..\src/SPI_functions.c **** /*******************************************************************************
 397:..\src/SPI_functions.c **** * Function Name: Read Quaternion of IMU n
 398:..\src/SPI_functions.c **** *********************************************************************************/
 399:..\src/SPI_functions.c **** void ReadQuat(int n)
 400:..\src/SPI_functions.c **** {
 1445              		.loc 1 400 0
 1446              		.cfi_startproc
 1447              		@ args = 0, pretend = 0, frame = 96
 1448              		@ frame_needed = 1, uses_anonymous_args = 0
 1449 0000 2DE9F04F 		push	{r4, r5, r6, r7, r8, r9, r10, fp, lr}
 1450              		.cfi_def_cfa_offset 36
 1451              		.cfi_offset 4, -36
 1452              		.cfi_offset 5, -32
 1453              		.cfi_offset 6, -28
 1454              		.cfi_offset 7, -24
 1455              		.cfi_offset 8, -20
 1456              		.cfi_offset 9, -16
 1457              		.cfi_offset 10, -12
 1458              		.cfi_offset 11, -8
 1459              		.cfi_offset 14, -4
 1460 0004 99B0     		sub	sp, sp, #100
 1461              		.cfi_def_cfa_offset 136
 1462 0006 00AF     		add	r7, sp, #0
 1463              		.cfi_def_cfa_register 7
 1464 0008 7860     		str	r0, [r7, #4]
 401:..\src/SPI_functions.c ****     int16 var_h;
 402:..\src/SPI_functions.c ****     float qd0,qd1,qd2,qd3;        
 403:..\src/SPI_functions.c ****     float aP[3]; //, fa[3];
 404:..\src/SPI_functions.c ****     float Napla[4],g[4],qL[4];
 405:..\src/SPI_functions.c ****     float time = 0;
ARM GAS  C:\Users\MattiaCP\AppData\Local\Temp\ccVW8gGQ.s 			page 34


 1465              		.loc 1 405 0
 1466 000a 4FF00003 		mov	r3, #0
 1467 000e FB65     		str	r3, [r7, #92]	@ float
 406:..\src/SPI_functions.c ****         
 407:..\src/SPI_functions.c ****     if (N_IMU_Connected == 1) {
 1468              		.loc 1 407 0
 1469 0010 BB4B     		ldr	r3, .L58+16
 1470 0012 1B78     		ldrb	r3, [r3]	@ zero_extendqisi2
 1471 0014 012B     		cmp	r3, #1
 1472 0016 40F02285 		bne	.L44
 408:..\src/SPI_functions.c ****         // Compute quaternion only if 1 IMU is connected
 409:..\src/SPI_functions.c ****         
 410:..\src/SPI_functions.c ****         if (!c_mem.IMU_conf[n][0]) ReadAcc(n);
 1473              		.loc 1 410 0
 1474 001a BA49     		ldr	r1, .L58+20
 1475 001c 7A68     		ldr	r2, [r7, #4]
 1476 001e 1346     		mov	r3, r2
 1477 0020 9B00     		lsls	r3, r3, #2
 1478 0022 1344     		add	r3, r3, r2
 1479 0024 0B44     		add	r3, r3, r1
 1480 0026 03F22113 		addw	r3, r3, #289
 1481 002a 1B78     		ldrb	r3, [r3]	@ zero_extendqisi2
 1482 002c 002B     		cmp	r3, #0
 1483 002e 02D1     		bne	.L46
 1484              		.loc 1 410 0 is_stmt 0 discriminator 1
 1485 0030 7868     		ldr	r0, [r7, #4]
 1486 0032 FFF7FEFF 		bl	ReadAcc
 1487              	.L46:
 411:..\src/SPI_functions.c ****         if (!c_mem.IMU_conf[n][1]) ReadGyro(n);
 1488              		.loc 1 411 0 is_stmt 1
 1489 0036 B349     		ldr	r1, .L58+20
 1490 0038 7A68     		ldr	r2, [r7, #4]
 1491 003a 1346     		mov	r3, r2
 1492 003c 9B00     		lsls	r3, r3, #2
 1493 003e 1344     		add	r3, r3, r2
 1494 0040 0B44     		add	r3, r3, r1
 1495 0042 03F59173 		add	r3, r3, #290
 1496 0046 1B78     		ldrb	r3, [r3]	@ zero_extendqisi2
 1497 0048 002B     		cmp	r3, #0
 1498 004a 02D1     		bne	.L47
 1499              		.loc 1 411 0 is_stmt 0 discriminator 1
 1500 004c 7868     		ldr	r0, [r7, #4]
 1501 004e FFF7FEFF 		bl	ReadGyro
 1502              	.L47:
 412:..\src/SPI_functions.c ****         
 413:..\src/SPI_functions.c ****         // assume cycle time is the same of last function_scheduler execution,
 414:..\src/SPI_functions.c ****         // without adding another counter
 415:..\src/SPI_functions.c ****         time = (float)((uint32)timer_value0 - (uint32)timer_value) / 1000000.0;
 1503              		.loc 1 415 0 is_stmt 1
 1504 0052 AD4B     		ldr	r3, .L58+24
 1505 0054 1A68     		ldr	r2, [r3]
 1506 0056 AD4B     		ldr	r3, .L58+28
 1507 0058 1B68     		ldr	r3, [r3]
 1508 005a D31A     		subs	r3, r2, r3
 1509 005c 1846     		mov	r0, r3
 1510 005e FFF7FEFF 		bl	__aeabi_ui2f
 1511 0062 0346     		mov	r3, r0
ARM GAS  C:\Users\MattiaCP\AppData\Local\Temp\ccVW8gGQ.s 			page 35


 1512 0064 AA49     		ldr	r1, .L58+32
 1513 0066 1846     		mov	r0, r3
 1514 0068 FFF7FEFF 		bl	__aeabi_fdiv
 1515 006c 0346     		mov	r3, r0
 1516 006e FB65     		str	r3, [r7, #92]	@ float
 416:..\src/SPI_functions.c ****         
 417:..\src/SPI_functions.c ****         // how N sees P; N is 'Earth' equivalent, P is for sensor
 418:..\src/SPI_functions.c ****         // e.g. N = imu1, P = imu0, how imu1 sees imu0
 419:..\src/SPI_functions.c **** 
 420:..\src/SPI_functions.c ****         var_h = Accel[n][0];
 1517              		.loc 1 420 0
 1518 0070 A849     		ldr	r1, .L58+36
 1519 0072 7A68     		ldr	r2, [r7, #4]
 1520 0074 1346     		mov	r3, r2
 1521 0076 5B00     		lsls	r3, r3, #1
 1522 0078 1344     		add	r3, r3, r2
 1523 007a 5B00     		lsls	r3, r3, #1
 1524 007c 0B44     		add	r3, r3, r1
 1525 007e 1B78     		ldrb	r3, [r3]	@ zero_extendqisi2
 1526 0080 A7F85A30 		strh	r3, [r7, #90]	@ movhi
 421:..\src/SPI_functions.c ****         aP[0] = (int16)(var_h << 8 | Accel[n][1]); 
 1527              		.loc 1 421 0
 1528 0084 B7F95A30 		ldrsh	r3, [r7, #90]
 1529 0088 1B02     		lsls	r3, r3, #8
 1530 008a 19B2     		sxth	r1, r3
 1531 008c A148     		ldr	r0, .L58+36
 1532 008e 7A68     		ldr	r2, [r7, #4]
 1533 0090 1346     		mov	r3, r2
 1534 0092 5B00     		lsls	r3, r3, #1
 1535 0094 1344     		add	r3, r3, r2
 1536 0096 5B00     		lsls	r3, r3, #1
 1537 0098 0344     		add	r3, r3, r0
 1538 009a 0133     		adds	r3, r3, #1
 1539 009c 1B78     		ldrb	r3, [r3]	@ zero_extendqisi2
 1540 009e 1BB2     		sxth	r3, r3
 1541 00a0 0B43     		orrs	r3, r3, r1
 1542 00a2 1BB2     		sxth	r3, r3
 1543 00a4 1846     		mov	r0, r3
 1544 00a6 FFF7FEFF 		bl	__aeabi_i2f
 1545 00aa 0346     		mov	r3, r0
 1546 00ac FB63     		str	r3, [r7, #60]	@ float
 422:..\src/SPI_functions.c ****         var_h = Accel[n][2];
 1547              		.loc 1 422 0
 1548 00ae 9949     		ldr	r1, .L58+36
 1549 00b0 7A68     		ldr	r2, [r7, #4]
 1550 00b2 1346     		mov	r3, r2
 1551 00b4 5B00     		lsls	r3, r3, #1
 1552 00b6 1344     		add	r3, r3, r2
 1553 00b8 5B00     		lsls	r3, r3, #1
 1554 00ba 0B44     		add	r3, r3, r1
 1555 00bc 0233     		adds	r3, r3, #2
 1556 00be 1B78     		ldrb	r3, [r3]	@ zero_extendqisi2
 1557 00c0 A7F85A30 		strh	r3, [r7, #90]	@ movhi
 423:..\src/SPI_functions.c ****         aP[1] = (int16)(var_h << 8 | Accel[n][3]); 
 1558              		.loc 1 423 0
 1559 00c4 B7F95A30 		ldrsh	r3, [r7, #90]
 1560 00c8 1B02     		lsls	r3, r3, #8
ARM GAS  C:\Users\MattiaCP\AppData\Local\Temp\ccVW8gGQ.s 			page 36


 1561 00ca 19B2     		sxth	r1, r3
 1562 00cc 9148     		ldr	r0, .L58+36
 1563 00ce 7A68     		ldr	r2, [r7, #4]
 1564 00d0 1346     		mov	r3, r2
 1565 00d2 5B00     		lsls	r3, r3, #1
 1566 00d4 1344     		add	r3, r3, r2
 1567 00d6 5B00     		lsls	r3, r3, #1
 1568 00d8 0344     		add	r3, r3, r0
 1569 00da 0333     		adds	r3, r3, #3
 1570 00dc 1B78     		ldrb	r3, [r3]	@ zero_extendqisi2
 1571 00de 1BB2     		sxth	r3, r3
 1572 00e0 0B43     		orrs	r3, r3, r1
 1573 00e2 1BB2     		sxth	r3, r3
 1574 00e4 1846     		mov	r0, r3
 1575 00e6 FFF7FEFF 		bl	__aeabi_i2f
 1576 00ea 0346     		mov	r3, r0
 1577 00ec 3B64     		str	r3, [r7, #64]	@ float
 424:..\src/SPI_functions.c ****         var_h = Accel[n][4];
 1578              		.loc 1 424 0
 1579 00ee 8949     		ldr	r1, .L58+36
 1580 00f0 7A68     		ldr	r2, [r7, #4]
 1581 00f2 1346     		mov	r3, r2
 1582 00f4 5B00     		lsls	r3, r3, #1
 1583 00f6 1344     		add	r3, r3, r2
 1584 00f8 5B00     		lsls	r3, r3, #1
 1585 00fa 0B44     		add	r3, r3, r1
 1586 00fc 0433     		adds	r3, r3, #4
 1587 00fe 1B78     		ldrb	r3, [r3]	@ zero_extendqisi2
 1588 0100 A7F85A30 		strh	r3, [r7, #90]	@ movhi
 425:..\src/SPI_functions.c ****         aP[2] = (int16)(var_h << 8 | Accel[n][5]);
 1589              		.loc 1 425 0
 1590 0104 B7F95A30 		ldrsh	r3, [r7, #90]
 1591 0108 1B02     		lsls	r3, r3, #8
 1592 010a 19B2     		sxth	r1, r3
 1593 010c 8148     		ldr	r0, .L58+36
 1594 010e 7A68     		ldr	r2, [r7, #4]
 1595 0110 1346     		mov	r3, r2
 1596 0112 5B00     		lsls	r3, r3, #1
 1597 0114 1344     		add	r3, r3, r2
 1598 0116 5B00     		lsls	r3, r3, #1
 1599 0118 0344     		add	r3, r3, r0
 1600 011a 0533     		adds	r3, r3, #5
 1601 011c 1B78     		ldrb	r3, [r3]	@ zero_extendqisi2
 1602 011e 1BB2     		sxth	r3, r3
 1603 0120 0B43     		orrs	r3, r3, r1
 1604 0122 1BB2     		sxth	r3, r3
 1605 0124 1846     		mov	r0, r3
 1606 0126 FFF7FEFF 		bl	__aeabi_i2f
 1607 012a 0346     		mov	r3, r0
 1608 012c 7B64     		str	r3, [r7, #68]	@ float
 426:..\src/SPI_functions.c ****         
 427:..\src/SPI_functions.c ****         g[0] = 0;
 1609              		.loc 1 427 0
 1610 012e 4FF00003 		mov	r3, #0
 1611 0132 FB61     		str	r3, [r7, #28]	@ float
 428:..\src/SPI_functions.c ****         var_h = Gyro[n][0];
 1612              		.loc 1 428 0
ARM GAS  C:\Users\MattiaCP\AppData\Local\Temp\ccVW8gGQ.s 			page 37


 1613 0134 7849     		ldr	r1, .L58+40
 1614 0136 7A68     		ldr	r2, [r7, #4]
 1615 0138 1346     		mov	r3, r2
 1616 013a 5B00     		lsls	r3, r3, #1
 1617 013c 1344     		add	r3, r3, r2
 1618 013e 5B00     		lsls	r3, r3, #1
 1619 0140 0B44     		add	r3, r3, r1
 1620 0142 1B78     		ldrb	r3, [r3]	@ zero_extendqisi2
 1621 0144 A7F85A30 		strh	r3, [r7, #90]	@ movhi
 429:..\src/SPI_functions.c ****         g[1] = ((int16)(var_h << 8 | Gyro[n][1]))*TICK2GYRO;
 1622              		.loc 1 429 0
 1623 0148 B7F95A30 		ldrsh	r3, [r7, #90]
 1624 014c 1B02     		lsls	r3, r3, #8
 1625 014e 19B2     		sxth	r1, r3
 1626 0150 7148     		ldr	r0, .L58+40
 1627 0152 7A68     		ldr	r2, [r7, #4]
 1628 0154 1346     		mov	r3, r2
 1629 0156 5B00     		lsls	r3, r3, #1
 1630 0158 1344     		add	r3, r3, r2
 1631 015a 5B00     		lsls	r3, r3, #1
 1632 015c 0344     		add	r3, r3, r0
 1633 015e 0133     		adds	r3, r3, #1
 1634 0160 1B78     		ldrb	r3, [r3]	@ zero_extendqisi2
 1635 0162 1BB2     		sxth	r3, r3
 1636 0164 0B43     		orrs	r3, r3, r1
 1637 0166 1BB2     		sxth	r3, r3
 1638 0168 1846     		mov	r0, r3
 1639 016a FFF7FEFF 		bl	__aeabi_i2d
 1640 016e 60A3     		adr	r3, .L58
 1641 0170 D3E90023 		ldrd	r2, [r3]
 1642 0174 FFF7FEFF 		bl	__aeabi_dmul
 1643 0178 0346     		mov	r3, r0
 1644 017a 0C46     		mov	r4, r1
 1645 017c 1846     		mov	r0, r3
 1646 017e 2146     		mov	r1, r4
 1647 0180 FFF7FEFF 		bl	__aeabi_d2f
 1648 0184 0346     		mov	r3, r0
 1649 0186 3B62     		str	r3, [r7, #32]	@ float
 430:..\src/SPI_functions.c ****         if ( fabs(g[1]) < GYRO_THR ) g[1] = 0;
 1650              		.loc 1 430 0
 1651 0188 3B6A     		ldr	r3, [r7, #32]	@ float
 1652 018a 23F00043 		bic	r3, r3, #-2147483648
 1653 018e 1846     		mov	r0, r3
 1654 0190 FFF7FEFF 		bl	__aeabi_f2d
 1655 0194 58A3     		adr	r3, .L58+8
 1656 0196 D3E90023 		ldrd	r2, [r3]
 1657 019a FFF7FEFF 		bl	__aeabi_dcmplt
 1658 019e 0346     		mov	r3, r0
 1659 01a0 002B     		cmp	r3, #0
 1660 01a2 02D0     		beq	.L48
 1661              		.loc 1 430 0 is_stmt 0 discriminator 1
 1662 01a4 4FF00003 		mov	r3, #0
 1663 01a8 3B62     		str	r3, [r7, #32]	@ float
 1664              	.L48:
 431:..\src/SPI_functions.c ****         var_h = Gyro[n][2];
 1665              		.loc 1 431 0 is_stmt 1
 1666 01aa 5B49     		ldr	r1, .L58+40
ARM GAS  C:\Users\MattiaCP\AppData\Local\Temp\ccVW8gGQ.s 			page 38


 1667 01ac 7A68     		ldr	r2, [r7, #4]
 1668 01ae 1346     		mov	r3, r2
 1669 01b0 5B00     		lsls	r3, r3, #1
 1670 01b2 1344     		add	r3, r3, r2
 1671 01b4 5B00     		lsls	r3, r3, #1
 1672 01b6 0B44     		add	r3, r3, r1
 1673 01b8 0233     		adds	r3, r3, #2
 1674 01ba 1B78     		ldrb	r3, [r3]	@ zero_extendqisi2
 1675 01bc A7F85A30 		strh	r3, [r7, #90]	@ movhi
 432:..\src/SPI_functions.c ****         g[2] = ((int16)(var_h << 8 | Gyro[n][3]))*TICK2GYRO; 
 1676              		.loc 1 432 0
 1677 01c0 B7F95A30 		ldrsh	r3, [r7, #90]
 1678 01c4 1B02     		lsls	r3, r3, #8
 1679 01c6 19B2     		sxth	r1, r3
 1680 01c8 5348     		ldr	r0, .L58+40
 1681 01ca 7A68     		ldr	r2, [r7, #4]
 1682 01cc 1346     		mov	r3, r2
 1683 01ce 5B00     		lsls	r3, r3, #1
 1684 01d0 1344     		add	r3, r3, r2
 1685 01d2 5B00     		lsls	r3, r3, #1
 1686 01d4 0344     		add	r3, r3, r0
 1687 01d6 0333     		adds	r3, r3, #3
 1688 01d8 1B78     		ldrb	r3, [r3]	@ zero_extendqisi2
 1689 01da 1BB2     		sxth	r3, r3
 1690 01dc 0B43     		orrs	r3, r3, r1
 1691 01de 1BB2     		sxth	r3, r3
 1692 01e0 1846     		mov	r0, r3
 1693 01e2 FFF7FEFF 		bl	__aeabi_i2d
 1694 01e6 42A3     		adr	r3, .L58
 1695 01e8 D3E90023 		ldrd	r2, [r3]
 1696 01ec FFF7FEFF 		bl	__aeabi_dmul
 1697 01f0 0346     		mov	r3, r0
 1698 01f2 0C46     		mov	r4, r1
 1699 01f4 1846     		mov	r0, r3
 1700 01f6 2146     		mov	r1, r4
 1701 01f8 FFF7FEFF 		bl	__aeabi_d2f
 1702 01fc 0346     		mov	r3, r0
 1703 01fe 7B62     		str	r3, [r7, #36]	@ float
 433:..\src/SPI_functions.c ****         if ( fabs(g[2]) < GYRO_THR ) g[2] = 0;
 1704              		.loc 1 433 0
 1705 0200 7B6A     		ldr	r3, [r7, #36]	@ float
 1706 0202 23F00043 		bic	r3, r3, #-2147483648
 1707 0206 1846     		mov	r0, r3
 1708 0208 FFF7FEFF 		bl	__aeabi_f2d
 1709 020c 3AA3     		adr	r3, .L58+8
 1710 020e D3E90023 		ldrd	r2, [r3]
 1711 0212 FFF7FEFF 		bl	__aeabi_dcmplt
 1712 0216 0346     		mov	r3, r0
 1713 0218 002B     		cmp	r3, #0
 1714 021a 02D0     		beq	.L50
 1715              		.loc 1 433 0 is_stmt 0 discriminator 1
 1716 021c 4FF00003 		mov	r3, #0
 1717 0220 7B62     		str	r3, [r7, #36]	@ float
 1718              	.L50:
 434:..\src/SPI_functions.c ****         var_h = Gyro[n][4];
 1719              		.loc 1 434 0 is_stmt 1
 1720 0222 3D49     		ldr	r1, .L58+40
ARM GAS  C:\Users\MattiaCP\AppData\Local\Temp\ccVW8gGQ.s 			page 39


 1721 0224 7A68     		ldr	r2, [r7, #4]
 1722 0226 1346     		mov	r3, r2
 1723 0228 5B00     		lsls	r3, r3, #1
 1724 022a 1344     		add	r3, r3, r2
 1725 022c 5B00     		lsls	r3, r3, #1
 1726 022e 0B44     		add	r3, r3, r1
 1727 0230 0433     		adds	r3, r3, #4
 1728 0232 1B78     		ldrb	r3, [r3]	@ zero_extendqisi2
 1729 0234 A7F85A30 		strh	r3, [r7, #90]	@ movhi
 435:..\src/SPI_functions.c ****         g[3] = ((int16)(var_h << 8 | Gyro[n][5]))*TICK2GYRO;
 1730              		.loc 1 435 0
 1731 0238 B7F95A30 		ldrsh	r3, [r7, #90]
 1732 023c 1B02     		lsls	r3, r3, #8
 1733 023e 19B2     		sxth	r1, r3
 1734 0240 3548     		ldr	r0, .L58+40
 1735 0242 7A68     		ldr	r2, [r7, #4]
 1736 0244 1346     		mov	r3, r2
 1737 0246 5B00     		lsls	r3, r3, #1
 1738 0248 1344     		add	r3, r3, r2
 1739 024a 5B00     		lsls	r3, r3, #1
 1740 024c 0344     		add	r3, r3, r0
 1741 024e 0533     		adds	r3, r3, #5
 1742 0250 1B78     		ldrb	r3, [r3]	@ zero_extendqisi2
 1743 0252 1BB2     		sxth	r3, r3
 1744 0254 0B43     		orrs	r3, r3, r1
 1745 0256 1BB2     		sxth	r3, r3
 1746 0258 1846     		mov	r0, r3
 1747 025a FFF7FEFF 		bl	__aeabi_i2d
 1748 025e 24A3     		adr	r3, .L58
 1749 0260 D3E90023 		ldrd	r2, [r3]
 1750 0264 FFF7FEFF 		bl	__aeabi_dmul
 1751 0268 0346     		mov	r3, r0
 1752 026a 0C46     		mov	r4, r1
 1753 026c 1846     		mov	r0, r3
 1754 026e 2146     		mov	r1, r4
 1755 0270 FFF7FEFF 		bl	__aeabi_d2f
 1756 0274 0346     		mov	r3, r0
 1757 0276 BB62     		str	r3, [r7, #40]	@ float
 436:..\src/SPI_functions.c ****         if ( fabs(g[3]) < GYRO_THR ) g[3] = 0;
 1758              		.loc 1 436 0
 1759 0278 BB6A     		ldr	r3, [r7, #40]	@ float
 1760 027a 23F00043 		bic	r3, r3, #-2147483648
 1761 027e 1846     		mov	r0, r3
 1762 0280 FFF7FEFF 		bl	__aeabi_f2d
 1763 0284 1CA3     		adr	r3, .L58+8
 1764 0286 D3E90023 		ldrd	r2, [r3]
 1765 028a FFF7FEFF 		bl	__aeabi_dcmplt
 1766 028e 0346     		mov	r3, r0
 1767 0290 002B     		cmp	r3, #0
 1768 0292 02D0     		beq	.L52
 1769              		.loc 1 436 0 is_stmt 0 discriminator 1
 1770 0294 4FF00003 		mov	r3, #0
 1771 0298 BB62     		str	r3, [r7, #40]	@ float
 1772              	.L52:
 437:..\src/SPI_functions.c ****         
 438:..\src/SPI_functions.c ****         // Normalize to 1
 439:..\src/SPI_functions.c ****         v3_normalize(aP);
ARM GAS  C:\Users\MattiaCP\AppData\Local\Temp\ccVW8gGQ.s 			page 40


 1773              		.loc 1 439 0 is_stmt 1
 1774 029a 07F13C03 		add	r3, r7, #60
 1775 029e 1846     		mov	r0, r3
 1776 02a0 FFF7FEFF 		bl	v3_normalize
 440:..\src/SPI_functions.c ****         
 441:..\src/SPI_functions.c ****         // Current quaternion assignment
 442:..\src/SPI_functions.c ****         qL[0] = Quat[0];
 1777              		.loc 1 442 0
 1778 02a4 1D4B     		ldr	r3, .L58+44
 1779 02a6 1B68     		ldr	r3, [r3]	@ float
 1780 02a8 FB60     		str	r3, [r7, #12]	@ float
 443:..\src/SPI_functions.c ****         qL[1] = Quat[1];
 1781              		.loc 1 443 0
 1782 02aa 1C4B     		ldr	r3, .L58+44
 1783 02ac 5B68     		ldr	r3, [r3, #4]	@ float
 1784 02ae 3B61     		str	r3, [r7, #16]	@ float
 444:..\src/SPI_functions.c ****         qL[2] = Quat[2];
 1785              		.loc 1 444 0
 1786 02b0 1A4B     		ldr	r3, .L58+44
 1787 02b2 9B68     		ldr	r3, [r3, #8]	@ float
 1788 02b4 7B61     		str	r3, [r7, #20]	@ float
 445:..\src/SPI_functions.c ****         qL[3] = Quat[3];   
 1789              		.loc 1 445 0
 1790 02b6 194B     		ldr	r3, .L58+44
 1791 02b8 DB68     		ldr	r3, [r3, #12]	@ float
 1792 02ba BB61     		str	r3, [r7, #24]	@ float
 446:..\src/SPI_functions.c ****         
 447:..\src/SPI_functions.c ****         // Napla computation
 448:..\src/SPI_functions.c ****         Napla[0] = (-qL[2]*((2*(qL[1]*qL[3]-qL[0]*qL[2]) - aP[0])) + qL[1]*((2*(qL[0]*qL[1] + qL[2]
 1793              		.loc 1 448 0
 1794 02bc 7B69     		ldr	r3, [r7, #20]	@ float
 1795 02be 83F00044 		eor	r4, r3, #-2147483648
 1796 02c2 3B69     		ldr	r3, [r7, #16]	@ float
 1797 02c4 BA69     		ldr	r2, [r7, #24]	@ float
 1798 02c6 1146     		mov	r1, r2
 1799 02c8 1846     		mov	r0, r3
 1800 02ca FFF7FEFF 		bl	__aeabi_fmul
 1801 02ce 0346     		mov	r3, r0
 1802 02d0 1D46     		mov	r5, r3
 1803 02d2 FB68     		ldr	r3, [r7, #12]	@ float
 1804 02d4 7A69     		ldr	r2, [r7, #20]	@ float
 1805 02d6 1146     		mov	r1, r2
 1806 02d8 1846     		mov	r0, r3
 1807 02da FFF7FEFF 		bl	__aeabi_fmul
 1808 02de 0346     		mov	r3, r0
 1809 02e0 1946     		mov	r1, r3
 1810 02e2 2846     		mov	r0, r5
 1811 02e4 FFF7FEFF 		bl	__aeabi_fsub
 1812 02e8 0346     		mov	r3, r0
 1813 02ea 19E0     		b	.L59
 1814              	.L60:
 1815 02ec AFF30080 		.align	3
 1816              	.L58:
 1817 02f0 D1ACA982 		.word	-2102809391
 1818 02f4 0A74213F 		.word	1059157002
 1819 02f8 6FF085C9 		.word	-913969041
 1820 02fc 54C1D03F 		.word	1070645588
ARM GAS  C:\Users\MattiaCP\AppData\Local\Temp\ccVW8gGQ.s 			page 41


 1821 0300 00000000 		.word	N_IMU_Connected
 1822 0304 00000000 		.word	c_mem
 1823 0308 00000000 		.word	timer_value0
 1824 030c 00000000 		.word	timer_value
 1825 0310 00247449 		.word	1232348160
 1826 0314 00000000 		.word	Accel
 1827 0318 00000000 		.word	Gyro
 1828 031c 00000000 		.word	Quat
 1829              	.L59:
 1830 0320 1946     		mov	r1, r3
 1831 0322 1846     		mov	r0, r3
 1832 0324 FFF7FEFF 		bl	__aeabi_fadd
 1833 0328 0346     		mov	r3, r0
 1834 032a 1A46     		mov	r2, r3
 1835 032c FB6B     		ldr	r3, [r7, #60]	@ float
 1836 032e 1946     		mov	r1, r3
 1837 0330 1046     		mov	r0, r2
 1838 0332 FFF7FEFF 		bl	__aeabi_fsub
 1839 0336 0346     		mov	r3, r0
 1840 0338 1946     		mov	r1, r3
 1841 033a 2046     		mov	r0, r4
 1842 033c FFF7FEFF 		bl	__aeabi_fmul
 1843 0340 0346     		mov	r3, r0
 1844 0342 1D46     		mov	r5, r3
 1845 0344 3C69     		ldr	r4, [r7, #16]	@ float
 1846 0346 FB68     		ldr	r3, [r7, #12]	@ float
 1847 0348 3A69     		ldr	r2, [r7, #16]	@ float
 1848 034a 1146     		mov	r1, r2
 1849 034c 1846     		mov	r0, r3
 1850 034e FFF7FEFF 		bl	__aeabi_fmul
 1851 0352 0346     		mov	r3, r0
 1852 0354 1E46     		mov	r6, r3
 1853 0356 7B69     		ldr	r3, [r7, #20]	@ float
 1854 0358 BA69     		ldr	r2, [r7, #24]	@ float
 1855 035a 1146     		mov	r1, r2
 1856 035c 1846     		mov	r0, r3
 1857 035e FFF7FEFF 		bl	__aeabi_fmul
 1858 0362 0346     		mov	r3, r0
 1859 0364 1946     		mov	r1, r3
 1860 0366 3046     		mov	r0, r6
 1861 0368 FFF7FEFF 		bl	__aeabi_fadd
 1862 036c 0346     		mov	r3, r0
 1863 036e 1946     		mov	r1, r3
 1864 0370 1846     		mov	r0, r3
 1865 0372 FFF7FEFF 		bl	__aeabi_fadd
 1866 0376 0346     		mov	r3, r0
 1867 0378 1A46     		mov	r2, r3
 1868 037a 3B6C     		ldr	r3, [r7, #64]	@ float
 1869 037c 1946     		mov	r1, r3
 1870 037e 1046     		mov	r0, r2
 1871 0380 FFF7FEFF 		bl	__aeabi_fsub
 1872 0384 0346     		mov	r3, r0
 1873 0386 1946     		mov	r1, r3
 1874 0388 2046     		mov	r0, r4
 1875 038a FFF7FEFF 		bl	__aeabi_fmul
 1876 038e 0346     		mov	r3, r0
 1877 0390 1946     		mov	r1, r3
ARM GAS  C:\Users\MattiaCP\AppData\Local\Temp\ccVW8gGQ.s 			page 42


 1878 0392 2846     		mov	r0, r5
 1879 0394 FFF7FEFF 		bl	__aeabi_fadd
 1880 0398 0346     		mov	r3, r0
 1881 039a 1846     		mov	r0, r3
 1882 039c FFF7FEFF 		bl	__aeabi_f2d
 1883 03a0 ADA3     		adr	r3, .L61
 1884 03a2 D3E90023 		ldrd	r2, [r3]
 1885 03a6 FFF7FEFF 		bl	__aeabi_dmul
 1886 03aa 0346     		mov	r3, r0
 1887 03ac 0C46     		mov	r4, r1
 1888 03ae 1846     		mov	r0, r3
 1889 03b0 2146     		mov	r1, r4
 1890 03b2 ABA3     		adr	r3, .L61+8
 1891 03b4 D3E90023 		ldrd	r2, [r3]
 1892 03b8 FFF7FEFF 		bl	__aeabi_dmul
 1893 03bc 0346     		mov	r3, r0
 1894 03be 0C46     		mov	r4, r1
 1895 03c0 1846     		mov	r0, r3
 1896 03c2 2146     		mov	r1, r4
 1897 03c4 FFF7FEFF 		bl	__aeabi_d2f
 1898 03c8 0346     		mov	r3, r0
 1899 03ca FB62     		str	r3, [r7, #44]	@ float
 449:..\src/SPI_functions.c ****         Napla[1] = (qL[3]*((2*(qL[1]*qL[3]-qL[0]*qL[2]) - aP[0])) + qL[0]*((2*(qL[0]*qL[1] + qL[2]*
 1900              		.loc 1 449 0
 1901 03cc BC69     		ldr	r4, [r7, #24]	@ float
 1902 03ce 3B69     		ldr	r3, [r7, #16]	@ float
 1903 03d0 BA69     		ldr	r2, [r7, #24]	@ float
 1904 03d2 1146     		mov	r1, r2
 1905 03d4 1846     		mov	r0, r3
 1906 03d6 FFF7FEFF 		bl	__aeabi_fmul
 1907 03da 0346     		mov	r3, r0
 1908 03dc 1D46     		mov	r5, r3
 1909 03de FB68     		ldr	r3, [r7, #12]	@ float
 1910 03e0 7A69     		ldr	r2, [r7, #20]	@ float
 1911 03e2 1146     		mov	r1, r2
 1912 03e4 1846     		mov	r0, r3
 1913 03e6 FFF7FEFF 		bl	__aeabi_fmul
 1914 03ea 0346     		mov	r3, r0
 1915 03ec 1946     		mov	r1, r3
 1916 03ee 2846     		mov	r0, r5
 1917 03f0 FFF7FEFF 		bl	__aeabi_fsub
 1918 03f4 0346     		mov	r3, r0
 1919 03f6 1946     		mov	r1, r3
 1920 03f8 1846     		mov	r0, r3
 1921 03fa FFF7FEFF 		bl	__aeabi_fadd
 1922 03fe 0346     		mov	r3, r0
 1923 0400 1A46     		mov	r2, r3
 1924 0402 FB6B     		ldr	r3, [r7, #60]	@ float
 1925 0404 1946     		mov	r1, r3
 1926 0406 1046     		mov	r0, r2
 1927 0408 FFF7FEFF 		bl	__aeabi_fsub
 1928 040c 0346     		mov	r3, r0
 1929 040e 1946     		mov	r1, r3
 1930 0410 2046     		mov	r0, r4
 1931 0412 FFF7FEFF 		bl	__aeabi_fmul
 1932 0416 0346     		mov	r3, r0
 1933 0418 1D46     		mov	r5, r3
ARM GAS  C:\Users\MattiaCP\AppData\Local\Temp\ccVW8gGQ.s 			page 43


 1934 041a FC68     		ldr	r4, [r7, #12]	@ float
 1935 041c FB68     		ldr	r3, [r7, #12]	@ float
 1936 041e 3A69     		ldr	r2, [r7, #16]	@ float
 1937 0420 1146     		mov	r1, r2
 1938 0422 1846     		mov	r0, r3
 1939 0424 FFF7FEFF 		bl	__aeabi_fmul
 1940 0428 0346     		mov	r3, r0
 1941 042a 1E46     		mov	r6, r3
 1942 042c 7B69     		ldr	r3, [r7, #20]	@ float
 1943 042e BA69     		ldr	r2, [r7, #24]	@ float
 1944 0430 1146     		mov	r1, r2
 1945 0432 1846     		mov	r0, r3
 1946 0434 FFF7FEFF 		bl	__aeabi_fmul
 1947 0438 0346     		mov	r3, r0
 1948 043a 1946     		mov	r1, r3
 1949 043c 3046     		mov	r0, r6
 1950 043e FFF7FEFF 		bl	__aeabi_fadd
 1951 0442 0346     		mov	r3, r0
 1952 0444 1946     		mov	r1, r3
 1953 0446 1846     		mov	r0, r3
 1954 0448 FFF7FEFF 		bl	__aeabi_fadd
 1955 044c 0346     		mov	r3, r0
 1956 044e 1A46     		mov	r2, r3
 1957 0450 3B6C     		ldr	r3, [r7, #64]	@ float
 1958 0452 1946     		mov	r1, r3
 1959 0454 1046     		mov	r0, r2
 1960 0456 FFF7FEFF 		bl	__aeabi_fsub
 1961 045a 0346     		mov	r3, r0
 1962 045c 1946     		mov	r1, r3
 1963 045e 2046     		mov	r0, r4
 1964 0460 FFF7FEFF 		bl	__aeabi_fmul
 1965 0464 0346     		mov	r3, r0
 1966 0466 1946     		mov	r1, r3
 1967 0468 2846     		mov	r0, r5
 1968 046a FFF7FEFF 		bl	__aeabi_fadd
 1969 046e 0346     		mov	r3, r0
 1970 0470 1846     		mov	r0, r3
 1971 0472 FFF7FEFF 		bl	__aeabi_f2d
 1972 0476 0446     		mov	r4, r0
 1973 0478 0D46     		mov	r5, r1
 1974 047a 3B69     		ldr	r3, [r7, #16]	@ float
 1975 047c 1946     		mov	r1, r3
 1976 047e 1846     		mov	r0, r3
 1977 0480 FFF7FEFF 		bl	__aeabi_fadd
 1978 0484 0346     		mov	r3, r0
 1979 0486 1846     		mov	r0, r3
 1980 0488 FFF7FEFF 		bl	__aeabi_f2d
 1981 048c 8046     		mov	r8, r0
 1982 048e 8946     		mov	r9, r1
 1983 0490 3B69     		ldr	r3, [r7, #16]	@ float
 1984 0492 3A69     		ldr	r2, [r7, #16]	@ float
 1985 0494 1146     		mov	r1, r2
 1986 0496 1846     		mov	r0, r3
 1987 0498 FFF7FEFF 		bl	__aeabi_fmul
 1988 049c 0346     		mov	r3, r0
 1989 049e 1846     		mov	r0, r3
 1990 04a0 FFF7FEFF 		bl	__aeabi_f2d
ARM GAS  C:\Users\MattiaCP\AppData\Local\Temp\ccVW8gGQ.s 			page 44


 1991 04a4 0246     		mov	r2, r0
 1992 04a6 0B46     		mov	r3, r1
 1993 04a8 4FF00000 		mov	r0, #0
 1994 04ac 6E49     		ldr	r1, .L61+16
 1995 04ae FFF7FEFF 		bl	__aeabi_dsub
 1996 04b2 0246     		mov	r2, r0
 1997 04b4 0B46     		mov	r3, r1
 1998 04b6 9246     		mov	r10, r2
 1999 04b8 9B46     		mov	fp, r3
 2000 04ba 7B69     		ldr	r3, [r7, #20]	@ float
 2001 04bc 7A69     		ldr	r2, [r7, #20]	@ float
 2002 04be 1146     		mov	r1, r2
 2003 04c0 1846     		mov	r0, r3
 2004 04c2 FFF7FEFF 		bl	__aeabi_fmul
 2005 04c6 0346     		mov	r3, r0
 2006 04c8 1846     		mov	r0, r3
 2007 04ca FFF7FEFF 		bl	__aeabi_f2d
 2008 04ce 0246     		mov	r2, r0
 2009 04d0 0B46     		mov	r3, r1
 2010 04d2 5046     		mov	r0, r10
 2011 04d4 5946     		mov	r1, fp
 2012 04d6 FFF7FEFF 		bl	__aeabi_dsub
 2013 04da 0246     		mov	r2, r0
 2014 04dc 0B46     		mov	r3, r1
 2015 04de 1046     		mov	r0, r2
 2016 04e0 1946     		mov	r1, r3
 2017 04e2 0246     		mov	r2, r0
 2018 04e4 0B46     		mov	r3, r1
 2019 04e6 FFF7FEFF 		bl	__aeabi_dadd
 2020 04ea 0246     		mov	r2, r0
 2021 04ec 0B46     		mov	r3, r1
 2022 04ee 9246     		mov	r10, r2
 2023 04f0 9B46     		mov	fp, r3
 2024 04f2 7B6C     		ldr	r3, [r7, #68]	@ float
 2025 04f4 1846     		mov	r0, r3
 2026 04f6 FFF7FEFF 		bl	__aeabi_f2d
 2027 04fa 0246     		mov	r2, r0
 2028 04fc 0B46     		mov	r3, r1
 2029 04fe 5046     		mov	r0, r10
 2030 0500 5946     		mov	r1, fp
 2031 0502 FFF7FEFF 		bl	__aeabi_dsub
 2032 0506 0246     		mov	r2, r0
 2033 0508 0B46     		mov	r3, r1
 2034 050a 4046     		mov	r0, r8
 2035 050c 4946     		mov	r1, r9
 2036 050e FFF7FEFF 		bl	__aeabi_dmul
 2037 0512 0246     		mov	r2, r0
 2038 0514 0B46     		mov	r3, r1
 2039 0516 2046     		mov	r0, r4
 2040 0518 2946     		mov	r1, r5
 2041 051a FFF7FEFF 		bl	__aeabi_dsub
 2042 051e 0346     		mov	r3, r0
 2043 0520 0C46     		mov	r4, r1
 2044 0522 1846     		mov	r0, r3
 2045 0524 2146     		mov	r1, r4
 2046 0526 4CA3     		adr	r3, .L61
 2047 0528 D3E90023 		ldrd	r2, [r3]
ARM GAS  C:\Users\MattiaCP\AppData\Local\Temp\ccVW8gGQ.s 			page 45


 2048 052c FFF7FEFF 		bl	__aeabi_dmul
 2049 0530 0346     		mov	r3, r0
 2050 0532 0C46     		mov	r4, r1
 2051 0534 1846     		mov	r0, r3
 2052 0536 2146     		mov	r1, r4
 2053 0538 49A3     		adr	r3, .L61+8
 2054 053a D3E90023 		ldrd	r2, [r3]
 2055 053e FFF7FEFF 		bl	__aeabi_dmul
 2056 0542 0346     		mov	r3, r0
 2057 0544 0C46     		mov	r4, r1
 2058 0546 1846     		mov	r0, r3
 2059 0548 2146     		mov	r1, r4
 2060 054a FFF7FEFF 		bl	__aeabi_d2f
 2061 054e 0346     		mov	r3, r0
 2062 0550 3B63     		str	r3, [r7, #48]	@ float
 450:..\src/SPI_functions.c ****         Napla[2] = (-qL[0]*((2*(qL[1]*qL[3]-qL[0]*qL[2]) - aP[0])) +qL[3]*((2*(qL[0]*qL[1] + qL[2]*
 2063              		.loc 1 450 0
 2064 0552 FB68     		ldr	r3, [r7, #12]	@ float
 2065 0554 83F00044 		eor	r4, r3, #-2147483648
 2066 0558 3B69     		ldr	r3, [r7, #16]	@ float
 2067 055a BA69     		ldr	r2, [r7, #24]	@ float
 2068 055c 1146     		mov	r1, r2
 2069 055e 1846     		mov	r0, r3
 2070 0560 FFF7FEFF 		bl	__aeabi_fmul
 2071 0564 0346     		mov	r3, r0
 2072 0566 1D46     		mov	r5, r3
 2073 0568 FB68     		ldr	r3, [r7, #12]	@ float
 2074 056a 7A69     		ldr	r2, [r7, #20]	@ float
 2075 056c 1146     		mov	r1, r2
 2076 056e 1846     		mov	r0, r3
 2077 0570 FFF7FEFF 		bl	__aeabi_fmul
 2078 0574 0346     		mov	r3, r0
 2079 0576 1946     		mov	r1, r3
 2080 0578 2846     		mov	r0, r5
 2081 057a FFF7FEFF 		bl	__aeabi_fsub
 2082 057e 0346     		mov	r3, r0
 2083 0580 1946     		mov	r1, r3
 2084 0582 1846     		mov	r0, r3
 2085 0584 FFF7FEFF 		bl	__aeabi_fadd
 2086 0588 0346     		mov	r3, r0
 2087 058a 1A46     		mov	r2, r3
 2088 058c FB6B     		ldr	r3, [r7, #60]	@ float
 2089 058e 1946     		mov	r1, r3
 2090 0590 1046     		mov	r0, r2
 2091 0592 FFF7FEFF 		bl	__aeabi_fsub
 2092 0596 0346     		mov	r3, r0
 2093 0598 1946     		mov	r1, r3
 2094 059a 2046     		mov	r0, r4
 2095 059c FFF7FEFF 		bl	__aeabi_fmul
 2096 05a0 0346     		mov	r3, r0
 2097 05a2 1D46     		mov	r5, r3
 2098 05a4 BC69     		ldr	r4, [r7, #24]	@ float
 2099 05a6 FB68     		ldr	r3, [r7, #12]	@ float
 2100 05a8 3A69     		ldr	r2, [r7, #16]	@ float
 2101 05aa 1146     		mov	r1, r2
 2102 05ac 1846     		mov	r0, r3
 2103 05ae FFF7FEFF 		bl	__aeabi_fmul
ARM GAS  C:\Users\MattiaCP\AppData\Local\Temp\ccVW8gGQ.s 			page 46


 2104 05b2 0346     		mov	r3, r0
 2105 05b4 1E46     		mov	r6, r3
 2106 05b6 7B69     		ldr	r3, [r7, #20]	@ float
 2107 05b8 BA69     		ldr	r2, [r7, #24]	@ float
 2108 05ba 1146     		mov	r1, r2
 2109 05bc 1846     		mov	r0, r3
 2110 05be FFF7FEFF 		bl	__aeabi_fmul
 2111 05c2 0346     		mov	r3, r0
 2112 05c4 1946     		mov	r1, r3
 2113 05c6 3046     		mov	r0, r6
 2114 05c8 FFF7FEFF 		bl	__aeabi_fadd
 2115 05cc 0346     		mov	r3, r0
 2116 05ce 1946     		mov	r1, r3
 2117 05d0 1846     		mov	r0, r3
 2118 05d2 FFF7FEFF 		bl	__aeabi_fadd
 2119 05d6 0346     		mov	r3, r0
 2120 05d8 1A46     		mov	r2, r3
 2121 05da 3B6C     		ldr	r3, [r7, #64]	@ float
 2122 05dc 1946     		mov	r1, r3
 2123 05de 1046     		mov	r0, r2
 2124 05e0 FFF7FEFF 		bl	__aeabi_fsub
 2125 05e4 0346     		mov	r3, r0
 2126 05e6 1946     		mov	r1, r3
 2127 05e8 2046     		mov	r0, r4
 2128 05ea FFF7FEFF 		bl	__aeabi_fmul
 2129 05ee 0346     		mov	r3, r0
 2130 05f0 1946     		mov	r1, r3
 2131 05f2 2846     		mov	r0, r5
 2132 05f4 FFF7FEFF 		bl	__aeabi_fadd
 2133 05f8 0346     		mov	r3, r0
 2134 05fa 1846     		mov	r0, r3
 2135 05fc FFF7FEFF 		bl	__aeabi_f2d
 2136 0600 0446     		mov	r4, r0
 2137 0602 0D46     		mov	r5, r1
 2138 0604 7B69     		ldr	r3, [r7, #20]	@ float
 2139 0606 1946     		mov	r1, r3
 2140 0608 1846     		mov	r0, r3
 2141 060a FFF7FEFF 		bl	__aeabi_fadd
 2142 060e 0346     		mov	r3, r0
 2143 0610 1846     		mov	r0, r3
 2144 0612 FFF7FEFF 		bl	__aeabi_f2d
 2145 0616 8046     		mov	r8, r0
 2146 0618 8946     		mov	r9, r1
 2147 061a 3B69     		ldr	r3, [r7, #16]	@ float
 2148 061c 3A69     		ldr	r2, [r7, #16]	@ float
 2149 061e 1146     		mov	r1, r2
 2150 0620 1846     		mov	r0, r3
 2151 0622 FFF7FEFF 		bl	__aeabi_fmul
 2152 0626 0346     		mov	r3, r0
 2153 0628 1846     		mov	r0, r3
 2154 062a FFF7FEFF 		bl	__aeabi_f2d
 2155 062e 0246     		mov	r2, r0
 2156 0630 0B46     		mov	r3, r1
 2157 0632 4FF00000 		mov	r0, #0
 2158 0636 0C49     		ldr	r1, .L61+16
 2159 0638 FFF7FEFF 		bl	__aeabi_dsub
 2160 063c 0246     		mov	r2, r0
ARM GAS  C:\Users\MattiaCP\AppData\Local\Temp\ccVW8gGQ.s 			page 47


 2161 063e 0B46     		mov	r3, r1
 2162 0640 9246     		mov	r10, r2
 2163 0642 9B46     		mov	fp, r3
 2164 0644 7B69     		ldr	r3, [r7, #20]	@ float
 2165 0646 7A69     		ldr	r2, [r7, #20]	@ float
 2166 0648 1146     		mov	r1, r2
 2167 064a 1846     		mov	r0, r3
 2168 064c FFF7FEFF 		bl	__aeabi_fmul
 2169 0650 0346     		mov	r3, r0
 2170 0652 1846     		mov	r0, r3
 2171 0654 0AE0     		b	.L62
 2172              	.L63:
 2173 0656 00BF     		.align	3
 2174              	.L61:
 2175 0658 08F4E5AC 		.word	-1394215928
 2176 065c 1F00103F 		.word	1058013215
 2177 0660 00000000 		.word	0
 2178 0664 006AF840 		.word	1090021888
 2179 0668 0000E03F 		.word	1071644672
 2180              	.L62:
 2181 066c FFF7FEFF 		bl	__aeabi_f2d
 2182 0670 0246     		mov	r2, r0
 2183 0672 0B46     		mov	r3, r1
 2184 0674 5046     		mov	r0, r10
 2185 0676 5946     		mov	r1, fp
 2186 0678 FFF7FEFF 		bl	__aeabi_dsub
 2187 067c 0246     		mov	r2, r0
 2188 067e 0B46     		mov	r3, r1
 2189 0680 1046     		mov	r0, r2
 2190 0682 1946     		mov	r1, r3
 2191 0684 0246     		mov	r2, r0
 2192 0686 0B46     		mov	r3, r1
 2193 0688 FFF7FEFF 		bl	__aeabi_dadd
 2194 068c 0246     		mov	r2, r0
 2195 068e 0B46     		mov	r3, r1
 2196 0690 9246     		mov	r10, r2
 2197 0692 9B46     		mov	fp, r3
 2198 0694 7B6C     		ldr	r3, [r7, #68]	@ float
 2199 0696 1846     		mov	r0, r3
 2200 0698 FFF7FEFF 		bl	__aeabi_f2d
 2201 069c 0246     		mov	r2, r0
 2202 069e 0B46     		mov	r3, r1
 2203 06a0 5046     		mov	r0, r10
 2204 06a2 5946     		mov	r1, fp
 2205 06a4 FFF7FEFF 		bl	__aeabi_dsub
 2206 06a8 0246     		mov	r2, r0
 2207 06aa 0B46     		mov	r3, r1
 2208 06ac 4046     		mov	r0, r8
 2209 06ae 4946     		mov	r1, r9
 2210 06b0 FFF7FEFF 		bl	__aeabi_dmul
 2211 06b4 0246     		mov	r2, r0
 2212 06b6 0B46     		mov	r3, r1
 2213 06b8 2046     		mov	r0, r4
 2214 06ba 2946     		mov	r1, r5
 2215 06bc FFF7FEFF 		bl	__aeabi_dsub
 2216 06c0 0346     		mov	r3, r0
 2217 06c2 0C46     		mov	r4, r1
ARM GAS  C:\Users\MattiaCP\AppData\Local\Temp\ccVW8gGQ.s 			page 48


 2218 06c4 1846     		mov	r0, r3
 2219 06c6 2146     		mov	r1, r4
 2220 06c8 A9A3     		adr	r3, .L64
 2221 06ca D3E90023 		ldrd	r2, [r3]
 2222 06ce FFF7FEFF 		bl	__aeabi_dmul
 2223 06d2 0346     		mov	r3, r0
 2224 06d4 0C46     		mov	r4, r1
 2225 06d6 1846     		mov	r0, r3
 2226 06d8 2146     		mov	r1, r4
 2227 06da A7A3     		adr	r3, .L64+8
 2228 06dc D3E90023 		ldrd	r2, [r3]
 2229 06e0 FFF7FEFF 		bl	__aeabi_dmul
 2230 06e4 0346     		mov	r3, r0
 2231 06e6 0C46     		mov	r4, r1
 2232 06e8 1846     		mov	r0, r3
 2233 06ea 2146     		mov	r1, r4
 2234 06ec FFF7FEFF 		bl	__aeabi_d2f
 2235 06f0 0346     		mov	r3, r0
 2236 06f2 7B63     		str	r3, [r7, #52]	@ float
 451:..\src/SPI_functions.c ****         Napla[3] = (qL[1]*((2*(qL[1]*qL[3]-qL[0]*qL[2]) - aP[0])) + qL[2]*((2*(qL[0]*qL[1] + qL[2]*
 2237              		.loc 1 451 0
 2238 06f4 3C69     		ldr	r4, [r7, #16]	@ float
 2239 06f6 3B69     		ldr	r3, [r7, #16]	@ float
 2240 06f8 BA69     		ldr	r2, [r7, #24]	@ float
 2241 06fa 1146     		mov	r1, r2
 2242 06fc 1846     		mov	r0, r3
 2243 06fe FFF7FEFF 		bl	__aeabi_fmul
 2244 0702 0346     		mov	r3, r0
 2245 0704 1D46     		mov	r5, r3
 2246 0706 FB68     		ldr	r3, [r7, #12]	@ float
 2247 0708 7A69     		ldr	r2, [r7, #20]	@ float
 2248 070a 1146     		mov	r1, r2
 2249 070c 1846     		mov	r0, r3
 2250 070e FFF7FEFF 		bl	__aeabi_fmul
 2251 0712 0346     		mov	r3, r0
 2252 0714 1946     		mov	r1, r3
 2253 0716 2846     		mov	r0, r5
 2254 0718 FFF7FEFF 		bl	__aeabi_fsub
 2255 071c 0346     		mov	r3, r0
 2256 071e 1946     		mov	r1, r3
 2257 0720 1846     		mov	r0, r3
 2258 0722 FFF7FEFF 		bl	__aeabi_fadd
 2259 0726 0346     		mov	r3, r0
 2260 0728 1A46     		mov	r2, r3
 2261 072a FB6B     		ldr	r3, [r7, #60]	@ float
 2262 072c 1946     		mov	r1, r3
 2263 072e 1046     		mov	r0, r2
 2264 0730 FFF7FEFF 		bl	__aeabi_fsub
 2265 0734 0346     		mov	r3, r0
 2266 0736 1946     		mov	r1, r3
 2267 0738 2046     		mov	r0, r4
 2268 073a FFF7FEFF 		bl	__aeabi_fmul
 2269 073e 0346     		mov	r3, r0
 2270 0740 1D46     		mov	r5, r3
 2271 0742 7C69     		ldr	r4, [r7, #20]	@ float
 2272 0744 FB68     		ldr	r3, [r7, #12]	@ float
 2273 0746 3A69     		ldr	r2, [r7, #16]	@ float
ARM GAS  C:\Users\MattiaCP\AppData\Local\Temp\ccVW8gGQ.s 			page 49


 2274 0748 1146     		mov	r1, r2
 2275 074a 1846     		mov	r0, r3
 2276 074c FFF7FEFF 		bl	__aeabi_fmul
 2277 0750 0346     		mov	r3, r0
 2278 0752 1E46     		mov	r6, r3
 2279 0754 7B69     		ldr	r3, [r7, #20]	@ float
 2280 0756 BA69     		ldr	r2, [r7, #24]	@ float
 2281 0758 1146     		mov	r1, r2
 2282 075a 1846     		mov	r0, r3
 2283 075c FFF7FEFF 		bl	__aeabi_fmul
 2284 0760 0346     		mov	r3, r0
 2285 0762 1946     		mov	r1, r3
 2286 0764 3046     		mov	r0, r6
 2287 0766 FFF7FEFF 		bl	__aeabi_fadd
 2288 076a 0346     		mov	r3, r0
 2289 076c 1946     		mov	r1, r3
 2290 076e 1846     		mov	r0, r3
 2291 0770 FFF7FEFF 		bl	__aeabi_fadd
 2292 0774 0346     		mov	r3, r0
 2293 0776 1A46     		mov	r2, r3
 2294 0778 3B6C     		ldr	r3, [r7, #64]	@ float
 2295 077a 1946     		mov	r1, r3
 2296 077c 1046     		mov	r0, r2
 2297 077e FFF7FEFF 		bl	__aeabi_fsub
 2298 0782 0346     		mov	r3, r0
 2299 0784 1946     		mov	r1, r3
 2300 0786 2046     		mov	r0, r4
 2301 0788 FFF7FEFF 		bl	__aeabi_fmul
 2302 078c 0346     		mov	r3, r0
 2303 078e 1946     		mov	r1, r3
 2304 0790 2846     		mov	r0, r5
 2305 0792 FFF7FEFF 		bl	__aeabi_fadd
 2306 0796 0346     		mov	r3, r0
 2307 0798 1846     		mov	r0, r3
 2308 079a FFF7FEFF 		bl	__aeabi_f2d
 2309 079e 74A3     		adr	r3, .L64
 2310 07a0 D3E90023 		ldrd	r2, [r3]
 2311 07a4 FFF7FEFF 		bl	__aeabi_dmul
 2312 07a8 0346     		mov	r3, r0
 2313 07aa 0C46     		mov	r4, r1
 2314 07ac 1846     		mov	r0, r3
 2315 07ae 2146     		mov	r1, r4
 2316 07b0 71A3     		adr	r3, .L64+8
 2317 07b2 D3E90023 		ldrd	r2, [r3]
 2318 07b6 FFF7FEFF 		bl	__aeabi_dmul
 2319 07ba 0346     		mov	r3, r0
 2320 07bc 0C46     		mov	r4, r1
 2321 07be 1846     		mov	r0, r3
 2322 07c0 2146     		mov	r1, r4
 2323 07c2 FFF7FEFF 		bl	__aeabi_d2f
 2324 07c6 0346     		mov	r3, r0
 2325 07c8 BB63     		str	r3, [r7, #56]	@ float
 452:..\src/SPI_functions.c ****         
 453:..\src/SPI_functions.c ****         qd0 = 0.5*(-(qL[1]*g[1] + qL[2]*g[2] + qL[3]*g[3])) - Napla[0];
 2326              		.loc 1 453 0
 2327 07ca 3B69     		ldr	r3, [r7, #16]	@ float
 2328 07cc 3A6A     		ldr	r2, [r7, #32]	@ float
ARM GAS  C:\Users\MattiaCP\AppData\Local\Temp\ccVW8gGQ.s 			page 50


 2329 07ce 1146     		mov	r1, r2
 2330 07d0 1846     		mov	r0, r3
 2331 07d2 FFF7FEFF 		bl	__aeabi_fmul
 2332 07d6 0346     		mov	r3, r0
 2333 07d8 1C46     		mov	r4, r3
 2334 07da 7B69     		ldr	r3, [r7, #20]	@ float
 2335 07dc 7A6A     		ldr	r2, [r7, #36]	@ float
 2336 07de 1146     		mov	r1, r2
 2337 07e0 1846     		mov	r0, r3
 2338 07e2 FFF7FEFF 		bl	__aeabi_fmul
 2339 07e6 0346     		mov	r3, r0
 2340 07e8 1946     		mov	r1, r3
 2341 07ea 2046     		mov	r0, r4
 2342 07ec FFF7FEFF 		bl	__aeabi_fadd
 2343 07f0 0346     		mov	r3, r0
 2344 07f2 1C46     		mov	r4, r3
 2345 07f4 BB69     		ldr	r3, [r7, #24]	@ float
 2346 07f6 BA6A     		ldr	r2, [r7, #40]	@ float
 2347 07f8 1146     		mov	r1, r2
 2348 07fa 1846     		mov	r0, r3
 2349 07fc FFF7FEFF 		bl	__aeabi_fmul
 2350 0800 0346     		mov	r3, r0
 2351 0802 1946     		mov	r1, r3
 2352 0804 2046     		mov	r0, r4
 2353 0806 FFF7FEFF 		bl	__aeabi_fadd
 2354 080a 0346     		mov	r3, r0
 2355 080c 83F00043 		eor	r3, r3, #-2147483648
 2356 0810 1846     		mov	r0, r3
 2357 0812 FFF7FEFF 		bl	__aeabi_f2d
 2358 0816 4FF00002 		mov	r2, #0
 2359 081a 594B     		ldr	r3, .L64+16
 2360 081c FFF7FEFF 		bl	__aeabi_dmul
 2361 0820 0346     		mov	r3, r0
 2362 0822 0C46     		mov	r4, r1
 2363 0824 2546     		mov	r5, r4
 2364 0826 1C46     		mov	r4, r3
 2365 0828 FB6A     		ldr	r3, [r7, #44]	@ float
 2366 082a 1846     		mov	r0, r3
 2367 082c FFF7FEFF 		bl	__aeabi_f2d
 2368 0830 0246     		mov	r2, r0
 2369 0832 0B46     		mov	r3, r1
 2370 0834 2046     		mov	r0, r4
 2371 0836 2946     		mov	r1, r5
 2372 0838 FFF7FEFF 		bl	__aeabi_dsub
 2373 083c 0346     		mov	r3, r0
 2374 083e 0C46     		mov	r4, r1
 2375 0840 1846     		mov	r0, r3
 2376 0842 2146     		mov	r1, r4
 2377 0844 FFF7FEFF 		bl	__aeabi_d2f
 2378 0848 0346     		mov	r3, r0
 2379 084a 7B65     		str	r3, [r7, #84]	@ float
 454:..\src/SPI_functions.c ****         qd1 = 0.5*(qL[0]*g[1] + (qL[2]*g[3] - qL[3]*g[2])) - Napla[1];
 2380              		.loc 1 454 0
 2381 084c FB68     		ldr	r3, [r7, #12]	@ float
 2382 084e 3A6A     		ldr	r2, [r7, #32]	@ float
 2383 0850 1146     		mov	r1, r2
 2384 0852 1846     		mov	r0, r3
ARM GAS  C:\Users\MattiaCP\AppData\Local\Temp\ccVW8gGQ.s 			page 51


 2385 0854 FFF7FEFF 		bl	__aeabi_fmul
 2386 0858 0346     		mov	r3, r0
 2387 085a 1C46     		mov	r4, r3
 2388 085c 7B69     		ldr	r3, [r7, #20]	@ float
 2389 085e BA6A     		ldr	r2, [r7, #40]	@ float
 2390 0860 1146     		mov	r1, r2
 2391 0862 1846     		mov	r0, r3
 2392 0864 FFF7FEFF 		bl	__aeabi_fmul
 2393 0868 0346     		mov	r3, r0
 2394 086a 1D46     		mov	r5, r3
 2395 086c BB69     		ldr	r3, [r7, #24]	@ float
 2396 086e 7A6A     		ldr	r2, [r7, #36]	@ float
 2397 0870 1146     		mov	r1, r2
 2398 0872 1846     		mov	r0, r3
 2399 0874 FFF7FEFF 		bl	__aeabi_fmul
 2400 0878 0346     		mov	r3, r0
 2401 087a 1946     		mov	r1, r3
 2402 087c 2846     		mov	r0, r5
 2403 087e FFF7FEFF 		bl	__aeabi_fsub
 2404 0882 0346     		mov	r3, r0
 2405 0884 1946     		mov	r1, r3
 2406 0886 2046     		mov	r0, r4
 2407 0888 FFF7FEFF 		bl	__aeabi_fadd
 2408 088c 0346     		mov	r3, r0
 2409 088e 1846     		mov	r0, r3
 2410 0890 FFF7FEFF 		bl	__aeabi_f2d
 2411 0894 4FF00002 		mov	r2, #0
 2412 0898 394B     		ldr	r3, .L64+16
 2413 089a FFF7FEFF 		bl	__aeabi_dmul
 2414 089e 0346     		mov	r3, r0
 2415 08a0 0C46     		mov	r4, r1
 2416 08a2 2546     		mov	r5, r4
 2417 08a4 1C46     		mov	r4, r3
 2418 08a6 3B6B     		ldr	r3, [r7, #48]	@ float
 2419 08a8 1846     		mov	r0, r3
 2420 08aa FFF7FEFF 		bl	__aeabi_f2d
 2421 08ae 0246     		mov	r2, r0
 2422 08b0 0B46     		mov	r3, r1
 2423 08b2 2046     		mov	r0, r4
 2424 08b4 2946     		mov	r1, r5
 2425 08b6 FFF7FEFF 		bl	__aeabi_dsub
 2426 08ba 0346     		mov	r3, r0
 2427 08bc 0C46     		mov	r4, r1
 2428 08be 1846     		mov	r0, r3
 2429 08c0 2146     		mov	r1, r4
 2430 08c2 FFF7FEFF 		bl	__aeabi_d2f
 2431 08c6 0346     		mov	r3, r0
 2432 08c8 3B65     		str	r3, [r7, #80]	@ float
 455:..\src/SPI_functions.c ****         qd2 = 0.5*(qL[0]*g[2] + (qL[3]*g[1] - qL[1]*g[3])) - Napla[2];
 2433              		.loc 1 455 0
 2434 08ca FB68     		ldr	r3, [r7, #12]	@ float
 2435 08cc 7A6A     		ldr	r2, [r7, #36]	@ float
 2436 08ce 1146     		mov	r1, r2
 2437 08d0 1846     		mov	r0, r3
 2438 08d2 FFF7FEFF 		bl	__aeabi_fmul
 2439 08d6 0346     		mov	r3, r0
 2440 08d8 1C46     		mov	r4, r3
ARM GAS  C:\Users\MattiaCP\AppData\Local\Temp\ccVW8gGQ.s 			page 52


 2441 08da BB69     		ldr	r3, [r7, #24]	@ float
 2442 08dc 3A6A     		ldr	r2, [r7, #32]	@ float
 2443 08de 1146     		mov	r1, r2
 2444 08e0 1846     		mov	r0, r3
 2445 08e2 FFF7FEFF 		bl	__aeabi_fmul
 2446 08e6 0346     		mov	r3, r0
 2447 08e8 1D46     		mov	r5, r3
 2448 08ea 3B69     		ldr	r3, [r7, #16]	@ float
 2449 08ec BA6A     		ldr	r2, [r7, #40]	@ float
 2450 08ee 1146     		mov	r1, r2
 2451 08f0 1846     		mov	r0, r3
 2452 08f2 FFF7FEFF 		bl	__aeabi_fmul
 2453 08f6 0346     		mov	r3, r0
 2454 08f8 1946     		mov	r1, r3
 2455 08fa 2846     		mov	r0, r5
 2456 08fc FFF7FEFF 		bl	__aeabi_fsub
 2457 0900 0346     		mov	r3, r0
 2458 0902 1946     		mov	r1, r3
 2459 0904 2046     		mov	r0, r4
 2460 0906 FFF7FEFF 		bl	__aeabi_fadd
 2461 090a 0346     		mov	r3, r0
 2462 090c 1846     		mov	r0, r3
 2463 090e FFF7FEFF 		bl	__aeabi_f2d
 2464 0912 4FF00002 		mov	r2, #0
 2465 0916 1A4B     		ldr	r3, .L64+16
 2466 0918 FFF7FEFF 		bl	__aeabi_dmul
 2467 091c 0346     		mov	r3, r0
 2468 091e 0C46     		mov	r4, r1
 2469 0920 2546     		mov	r5, r4
 2470 0922 1C46     		mov	r4, r3
 2471 0924 7B6B     		ldr	r3, [r7, #52]	@ float
 2472 0926 1846     		mov	r0, r3
 2473 0928 FFF7FEFF 		bl	__aeabi_f2d
 2474 092c 0246     		mov	r2, r0
 2475 092e 0B46     		mov	r3, r1
 2476 0930 2046     		mov	r0, r4
 2477 0932 2946     		mov	r1, r5
 2478 0934 FFF7FEFF 		bl	__aeabi_dsub
 2479 0938 0346     		mov	r3, r0
 2480 093a 0C46     		mov	r4, r1
 2481 093c 1846     		mov	r0, r3
 2482 093e 2146     		mov	r1, r4
 2483 0940 FFF7FEFF 		bl	__aeabi_d2f
 2484 0944 0346     		mov	r3, r0
 2485 0946 FB64     		str	r3, [r7, #76]	@ float
 456:..\src/SPI_functions.c ****         qd3 = 0.5*(qL[0]*g[3] + (qL[1]*g[2] - qL[2]*g[1])) - Napla[3];
 2486              		.loc 1 456 0
 2487 0948 FB68     		ldr	r3, [r7, #12]	@ float
 2488 094a BA6A     		ldr	r2, [r7, #40]	@ float
 2489 094c 1146     		mov	r1, r2
 2490 094e 1846     		mov	r0, r3
 2491 0950 FFF7FEFF 		bl	__aeabi_fmul
 2492 0954 0346     		mov	r3, r0
 2493 0956 1C46     		mov	r4, r3
 2494 0958 3B69     		ldr	r3, [r7, #16]	@ float
 2495 095a 7A6A     		ldr	r2, [r7, #36]	@ float
 2496 095c 1146     		mov	r1, r2
ARM GAS  C:\Users\MattiaCP\AppData\Local\Temp\ccVW8gGQ.s 			page 53


 2497 095e 1846     		mov	r0, r3
 2498 0960 FFF7FEFF 		bl	__aeabi_fmul
 2499 0964 0346     		mov	r3, r0
 2500 0966 1D46     		mov	r5, r3
 2501 0968 7B69     		ldr	r3, [r7, #20]	@ float
 2502 096a 3A6A     		ldr	r2, [r7, #32]	@ float
 2503 096c 1146     		mov	r1, r2
 2504 096e 09E0     		b	.L65
 2505              	.L66:
 2506              		.align	3
 2507              	.L64:
 2508 0970 08F4E5AC 		.word	-1394215928
 2509 0974 1F00103F 		.word	1058013215
 2510 0978 00000000 		.word	0
 2511 097c 006AF840 		.word	1090021888
 2512 0980 0000E03F 		.word	1071644672
 2513              	.L65:
 2514 0984 1846     		mov	r0, r3
 2515 0986 FFF7FEFF 		bl	__aeabi_fmul
 2516 098a 0346     		mov	r3, r0
 2517 098c 1946     		mov	r1, r3
 2518 098e 2846     		mov	r0, r5
 2519 0990 FFF7FEFF 		bl	__aeabi_fsub
 2520 0994 0346     		mov	r3, r0
 2521 0996 1946     		mov	r1, r3
 2522 0998 2046     		mov	r0, r4
 2523 099a FFF7FEFF 		bl	__aeabi_fadd
 2524 099e 0346     		mov	r3, r0
 2525 09a0 1846     		mov	r0, r3
 2526 09a2 FFF7FEFF 		bl	__aeabi_f2d
 2527 09a6 4FF00002 		mov	r2, #0
 2528 09aa 2F4B     		ldr	r3, .L67
 2529 09ac FFF7FEFF 		bl	__aeabi_dmul
 2530 09b0 0346     		mov	r3, r0
 2531 09b2 0C46     		mov	r4, r1
 2532 09b4 2546     		mov	r5, r4
 2533 09b6 1C46     		mov	r4, r3
 2534 09b8 BB6B     		ldr	r3, [r7, #56]	@ float
 2535 09ba 1846     		mov	r0, r3
 2536 09bc FFF7FEFF 		bl	__aeabi_f2d
 2537 09c0 0246     		mov	r2, r0
 2538 09c2 0B46     		mov	r3, r1
 2539 09c4 2046     		mov	r0, r4
 2540 09c6 2946     		mov	r1, r5
 2541 09c8 FFF7FEFF 		bl	__aeabi_dsub
 2542 09cc 0346     		mov	r3, r0
 2543 09ce 0C46     		mov	r4, r1
 2544 09d0 1846     		mov	r0, r3
 2545 09d2 2146     		mov	r1, r4
 2546 09d4 FFF7FEFF 		bl	__aeabi_d2f
 2547 09d8 0346     		mov	r3, r0
 2548 09da BB64     		str	r3, [r7, #72]	@ float
 457:..\src/SPI_functions.c ****                 
 458:..\src/SPI_functions.c ****         qL[0] = qL[0] + qd0*time;
 2549              		.loc 1 458 0
 2550 09dc FC68     		ldr	r4, [r7, #12]	@ float
 2551 09de F96D     		ldr	r1, [r7, #92]	@ float
ARM GAS  C:\Users\MattiaCP\AppData\Local\Temp\ccVW8gGQ.s 			page 54


 2552 09e0 786D     		ldr	r0, [r7, #84]	@ float
 2553 09e2 FFF7FEFF 		bl	__aeabi_fmul
 2554 09e6 0346     		mov	r3, r0
 2555 09e8 1946     		mov	r1, r3
 2556 09ea 2046     		mov	r0, r4
 2557 09ec FFF7FEFF 		bl	__aeabi_fadd
 2558 09f0 0346     		mov	r3, r0
 2559 09f2 FB60     		str	r3, [r7, #12]	@ float
 459:..\src/SPI_functions.c ****         qL[1] = qL[1] + qd1*time;
 2560              		.loc 1 459 0
 2561 09f4 3C69     		ldr	r4, [r7, #16]	@ float
 2562 09f6 F96D     		ldr	r1, [r7, #92]	@ float
 2563 09f8 386D     		ldr	r0, [r7, #80]	@ float
 2564 09fa FFF7FEFF 		bl	__aeabi_fmul
 2565 09fe 0346     		mov	r3, r0
 2566 0a00 1946     		mov	r1, r3
 2567 0a02 2046     		mov	r0, r4
 2568 0a04 FFF7FEFF 		bl	__aeabi_fadd
 2569 0a08 0346     		mov	r3, r0
 2570 0a0a 3B61     		str	r3, [r7, #16]	@ float
 460:..\src/SPI_functions.c ****         qL[2] = qL[2] + qd2*time;
 2571              		.loc 1 460 0
 2572 0a0c 7C69     		ldr	r4, [r7, #20]	@ float
 2573 0a0e F96D     		ldr	r1, [r7, #92]	@ float
 2574 0a10 F86C     		ldr	r0, [r7, #76]	@ float
 2575 0a12 FFF7FEFF 		bl	__aeabi_fmul
 2576 0a16 0346     		mov	r3, r0
 2577 0a18 1946     		mov	r1, r3
 2578 0a1a 2046     		mov	r0, r4
 2579 0a1c FFF7FEFF 		bl	__aeabi_fadd
 2580 0a20 0346     		mov	r3, r0
 2581 0a22 7B61     		str	r3, [r7, #20]	@ float
 461:..\src/SPI_functions.c ****         qL[3] = qL[3] + qd3*time;
 2582              		.loc 1 461 0
 2583 0a24 BC69     		ldr	r4, [r7, #24]	@ float
 2584 0a26 F96D     		ldr	r1, [r7, #92]	@ float
 2585 0a28 B86C     		ldr	r0, [r7, #72]	@ float
 2586 0a2a FFF7FEFF 		bl	__aeabi_fmul
 2587 0a2e 0346     		mov	r3, r0
 2588 0a30 1946     		mov	r1, r3
 2589 0a32 2046     		mov	r0, r4
 2590 0a34 FFF7FEFF 		bl	__aeabi_fadd
 2591 0a38 0346     		mov	r3, r0
 2592 0a3a BB61     		str	r3, [r7, #24]	@ float
 462:..\src/SPI_functions.c ****         v4_normalize(qL);
 2593              		.loc 1 462 0
 2594 0a3c 07F10C03 		add	r3, r7, #12
 2595 0a40 1846     		mov	r0, r3
 2596 0a42 FFF7FEFF 		bl	v4_normalize
 463:..\src/SPI_functions.c ****         
 464:..\src/SPI_functions.c ****         // Quaternion update      
 465:..\src/SPI_functions.c ****         Quat[0] = qL[0];
 2597              		.loc 1 465 0
 2598 0a46 FB68     		ldr	r3, [r7, #12]	@ float
 2599 0a48 084A     		ldr	r2, .L67+4
 2600 0a4a 1360     		str	r3, [r2]	@ float
 466:..\src/SPI_functions.c ****         Quat[1] = qL[1];
ARM GAS  C:\Users\MattiaCP\AppData\Local\Temp\ccVW8gGQ.s 			page 55


 2601              		.loc 1 466 0
 2602 0a4c 3B69     		ldr	r3, [r7, #16]	@ float
 2603 0a4e 074A     		ldr	r2, .L67+4
 2604 0a50 5360     		str	r3, [r2, #4]	@ float
 467:..\src/SPI_functions.c ****         Quat[2] = qL[2];
 2605              		.loc 1 467 0
 2606 0a52 7B69     		ldr	r3, [r7, #20]	@ float
 2607 0a54 054A     		ldr	r2, .L67+4
 2608 0a56 9360     		str	r3, [r2, #8]	@ float
 468:..\src/SPI_functions.c ****         Quat[3] = qL[3];
 2609              		.loc 1 468 0
 2610 0a58 BB69     		ldr	r3, [r7, #24]	@ float
 2611 0a5a 044A     		ldr	r2, .L67+4
 2612 0a5c D360     		str	r3, [r2, #12]	@ float
 2613              	.L44:
 469:..\src/SPI_functions.c ****     }
 470:..\src/SPI_functions.c ****     else {
 471:..\src/SPI_functions.c ****         return;
 472:..\src/SPI_functions.c ****     }
 473:..\src/SPI_functions.c **** }
 2614              		.loc 1 473 0
 2615 0a5e 6437     		adds	r7, r7, #100
 2616              		.cfi_def_cfa_offset 36
 2617 0a60 BD46     		mov	sp, r7
 2618              		.cfi_def_cfa_register 13
 2619              		@ sp needed
 2620 0a62 BDE8F08F 		pop	{r4, r5, r6, r7, r8, r9, r10, fp, pc}
 2621              	.L68:
 2622 0a66 00BF     		.align	2
 2623              	.L67:
 2624 0a68 0000E03F 		.word	1071644672
 2625 0a6c 00000000 		.word	Quat
 2626              		.cfi_endproc
 2627              	.LFE74:
 2628              		.size	ReadQuat, .-ReadQuat
 2629              		.section	.text.ReadAllIMUs,"ax",%progbits
 2630              		.align	2
 2631              		.global	ReadAllIMUs
 2632              		.thumb
 2633              		.thumb_func
 2634              		.type	ReadAllIMUs, %function
 2635              	ReadAllIMUs:
 2636              	.LFB75:
 474:..\src/SPI_functions.c **** 
 475:..\src/SPI_functions.c **** /********************************************************************************
 476:..\src/SPI_functions.c **** * Function Name: ReadAllIMUs
 477:..\src/SPI_functions.c **** *********************************************************************************/
 478:..\src/SPI_functions.c **** void ReadAllIMUs(){
 2637              		.loc 1 478 0
 2638              		.cfi_startproc
 2639              		@ args = 0, pretend = 0, frame = 8
 2640              		@ frame_needed = 1, uses_anonymous_args = 0
 2641 0000 F0B5     		push	{r4, r5, r6, r7, lr}
 2642              		.cfi_def_cfa_offset 20
 2643              		.cfi_offset 4, -20
 2644              		.cfi_offset 5, -16
 2645              		.cfi_offset 6, -12
ARM GAS  C:\Users\MattiaCP\AppData\Local\Temp\ccVW8gGQ.s 			page 56


 2646              		.cfi_offset 7, -8
 2647              		.cfi_offset 14, -4
 2648 0002 83B0     		sub	sp, sp, #12
 2649              		.cfi_def_cfa_offset 32
 2650 0004 00AF     		add	r7, sp, #0
 2651              		.cfi_def_cfa_register 7
 479:..\src/SPI_functions.c ****     static uint8 k_imu = 0;
 480:..\src/SPI_functions.c ****     uint16 tmp = 0, j = 0;
 2652              		.loc 1 480 0
 2653 0006 0023     		movs	r3, #0
 2654 0008 BB80     		strh	r3, [r7, #4]	@ movhi
 2655 000a 0023     		movs	r3, #0
 2656 000c FB80     		strh	r3, [r7, #6]	@ movhi
 481:..\src/SPI_functions.c **** 
 482:..\src/SPI_functions.c ****     for (k_imu = 0; k_imu < N_IMU_Connected; k_imu++){ 
 2657              		.loc 1 482 0
 2658 000e 934B     		ldr	r3, .L81
 2659 0010 0022     		movs	r2, #0
 2660 0012 1A70     		strb	r2, [r3]
 2661 0014 17E1     		b	.L70
 2662              	.L80:
 483:..\src/SPI_functions.c ****         // Read k_imu IMU
 484:..\src/SPI_functions.c ****         ChipSelector(IMU_connected[k_imu]);
 2663              		.loc 1 484 0
 2664 0016 914B     		ldr	r3, .L81
 2665 0018 1B78     		ldrb	r3, [r3]	@ zero_extendqisi2
 2666 001a 1A46     		mov	r2, r3
 2667 001c 904B     		ldr	r3, .L81+4
 2668 001e 9B5C     		ldrb	r3, [r3, r2]	@ zero_extendqisi2
 2669 0020 1846     		mov	r0, r3
 2670 0022 FFF7FEFF 		bl	ChipSelector
 485:..\src/SPI_functions.c ****         ReadIMU(IMU_connected[k_imu]);
 2671              		.loc 1 485 0
 2672 0026 8D4B     		ldr	r3, .L81
 2673 0028 1B78     		ldrb	r3, [r3]	@ zero_extendqisi2
 2674 002a 1A46     		mov	r2, r3
 2675 002c 8C4B     		ldr	r3, .L81+4
 2676 002e 9B5C     		ldrb	r3, [r3, r2]	@ zero_extendqisi2
 2677 0030 1846     		mov	r0, r3
 2678 0032 FFF7FEFF 		bl	ReadIMU
 486:..\src/SPI_functions.c ****         
 487:..\src/SPI_functions.c ****         for (j = 0; j < 3; j++) {
 2679              		.loc 1 487 0
 2680 0036 0023     		movs	r3, #0
 2681 0038 FB80     		strh	r3, [r7, #6]	@ movhi
 2682 003a 38E0     		b	.L71
 2683              	.L72:
 488:..\src/SPI_functions.c ****             tmp = Accel[IMU_connected[k_imu]][2*j];
 2684              		.loc 1 488 0 discriminator 3
 2685 003c 874B     		ldr	r3, .L81
 2686 003e 1B78     		ldrb	r3, [r3]	@ zero_extendqisi2
 2687 0040 1A46     		mov	r2, r3
 2688 0042 874B     		ldr	r3, .L81+4
 2689 0044 9B5C     		ldrb	r3, [r3, r2]	@ zero_extendqisi2
 2690 0046 1846     		mov	r0, r3
 2691 0048 FB88     		ldrh	r3, [r7, #6]
 2692 004a 5A00     		lsls	r2, r3, #1
ARM GAS  C:\Users\MattiaCP\AppData\Local\Temp\ccVW8gGQ.s 			page 57


 2693 004c 8549     		ldr	r1, .L81+8
 2694 004e 0346     		mov	r3, r0
 2695 0050 5B00     		lsls	r3, r3, #1
 2696 0052 0344     		add	r3, r3, r0
 2697 0054 5B00     		lsls	r3, r3, #1
 2698 0056 0B44     		add	r3, r3, r1
 2699 0058 1344     		add	r3, r3, r2
 2700 005a 1B78     		ldrb	r3, [r3]	@ zero_extendqisi2
 2701 005c BB80     		strh	r3, [r7, #4]	@ movhi
 489:..\src/SPI_functions.c ****             g_imuNew[k_imu].accel_value[j] = (int16)(tmp<<8 | Accel[IMU_connected[k_imu]][2*j + 1])
 2702              		.loc 1 489 0 discriminator 3
 2703 005e 7F4B     		ldr	r3, .L81
 2704 0060 1B78     		ldrb	r3, [r3]	@ zero_extendqisi2
 2705 0062 1D46     		mov	r5, r3
 2706 0064 FA88     		ldrh	r2, [r7, #6]
 2707 0066 BB88     		ldrh	r3, [r7, #4]
 2708 0068 1B02     		lsls	r3, r3, #8
 2709 006a 19B2     		sxth	r1, r3
 2710 006c 7B4B     		ldr	r3, .L81
 2711 006e 1B78     		ldrb	r3, [r3]	@ zero_extendqisi2
 2712 0070 1846     		mov	r0, r3
 2713 0072 7B4B     		ldr	r3, .L81+4
 2714 0074 1B5C     		ldrb	r3, [r3, r0]	@ zero_extendqisi2
 2715 0076 1E46     		mov	r6, r3
 2716 0078 FB88     		ldrh	r3, [r7, #6]
 2717 007a 5B00     		lsls	r3, r3, #1
 2718 007c 581C     		adds	r0, r3, #1
 2719 007e 794C     		ldr	r4, .L81+8
 2720 0080 3346     		mov	r3, r6
 2721 0082 5B00     		lsls	r3, r3, #1
 2722 0084 3344     		add	r3, r3, r6
 2723 0086 5B00     		lsls	r3, r3, #1
 2724 0088 2344     		add	r3, r3, r4
 2725 008a 0344     		add	r3, r3, r0
 2726 008c 1B78     		ldrb	r3, [r3]	@ zero_extendqisi2
 2727 008e 1BB2     		sxth	r3, r3
 2728 0090 0B43     		orrs	r3, r3, r1
 2729 0092 18B2     		sxth	r0, r3
 2730 0094 7449     		ldr	r1, .L81+12
 2731 0096 2B46     		mov	r3, r5
 2732 0098 9B00     		lsls	r3, r3, #2
 2733 009a 2B44     		add	r3, r3, r5
 2734 009c 9B00     		lsls	r3, r3, #2
 2735 009e 1344     		add	r3, r3, r2
 2736 00a0 5B00     		lsls	r3, r3, #1
 2737 00a2 0B44     		add	r3, r3, r1
 2738 00a4 0246     		mov	r2, r0	@ movhi
 2739 00a6 5A80     		strh	r2, [r3, #2]	@ movhi
 487:..\src/SPI_functions.c ****             tmp = Accel[IMU_connected[k_imu]][2*j];
 2740              		.loc 1 487 0 discriminator 3
 2741 00a8 FB88     		ldrh	r3, [r7, #6]
 2742 00aa 0133     		adds	r3, r3, #1
 2743 00ac FB80     		strh	r3, [r7, #6]	@ movhi
 2744              	.L71:
 487:..\src/SPI_functions.c ****             tmp = Accel[IMU_connected[k_imu]][2*j];
 2745              		.loc 1 487 0 is_stmt 0 discriminator 1
 2746 00ae FB88     		ldrh	r3, [r7, #6]
ARM GAS  C:\Users\MattiaCP\AppData\Local\Temp\ccVW8gGQ.s 			page 58


 2747 00b0 022B     		cmp	r3, #2
 2748 00b2 C3D9     		bls	.L72
 490:..\src/SPI_functions.c ****         }
 491:..\src/SPI_functions.c ****         
 492:..\src/SPI_functions.c ****         for (j = 0; j < 3; j++) {
 2749              		.loc 1 492 0 is_stmt 1
 2750 00b4 0023     		movs	r3, #0
 2751 00b6 FB80     		strh	r3, [r7, #6]	@ movhi
 2752 00b8 38E0     		b	.L73
 2753              	.L74:
 493:..\src/SPI_functions.c ****             tmp = Gyro[IMU_connected[k_imu]][2*j];
 2754              		.loc 1 493 0 discriminator 3
 2755 00ba 684B     		ldr	r3, .L81
 2756 00bc 1B78     		ldrb	r3, [r3]	@ zero_extendqisi2
 2757 00be 1A46     		mov	r2, r3
 2758 00c0 674B     		ldr	r3, .L81+4
 2759 00c2 9B5C     		ldrb	r3, [r3, r2]	@ zero_extendqisi2
 2760 00c4 1846     		mov	r0, r3
 2761 00c6 FB88     		ldrh	r3, [r7, #6]
 2762 00c8 5A00     		lsls	r2, r3, #1
 2763 00ca 6849     		ldr	r1, .L81+16
 2764 00cc 0346     		mov	r3, r0
 2765 00ce 5B00     		lsls	r3, r3, #1
 2766 00d0 0344     		add	r3, r3, r0
 2767 00d2 5B00     		lsls	r3, r3, #1
 2768 00d4 0B44     		add	r3, r3, r1
 2769 00d6 1344     		add	r3, r3, r2
 2770 00d8 1B78     		ldrb	r3, [r3]	@ zero_extendqisi2
 2771 00da BB80     		strh	r3, [r7, #4]	@ movhi
 494:..\src/SPI_functions.c ****             g_imuNew[k_imu].gyro_value[j] = (int16)(tmp<<8 | Gyro[IMU_connected[k_imu]][2*j + 1]);
 2772              		.loc 1 494 0 discriminator 3
 2773 00dc 5F4B     		ldr	r3, .L81
 2774 00de 1B78     		ldrb	r3, [r3]	@ zero_extendqisi2
 2775 00e0 1D46     		mov	r5, r3
 2776 00e2 FA88     		ldrh	r2, [r7, #6]
 2777 00e4 BB88     		ldrh	r3, [r7, #4]
 2778 00e6 1B02     		lsls	r3, r3, #8
 2779 00e8 19B2     		sxth	r1, r3
 2780 00ea 5C4B     		ldr	r3, .L81
 2781 00ec 1B78     		ldrb	r3, [r3]	@ zero_extendqisi2
 2782 00ee 1846     		mov	r0, r3
 2783 00f0 5B4B     		ldr	r3, .L81+4
 2784 00f2 1B5C     		ldrb	r3, [r3, r0]	@ zero_extendqisi2
 2785 00f4 1E46     		mov	r6, r3
 2786 00f6 FB88     		ldrh	r3, [r7, #6]
 2787 00f8 5B00     		lsls	r3, r3, #1
 2788 00fa 581C     		adds	r0, r3, #1
 2789 00fc 5B4C     		ldr	r4, .L81+16
 2790 00fe 3346     		mov	r3, r6
 2791 0100 5B00     		lsls	r3, r3, #1
 2792 0102 3344     		add	r3, r3, r6
 2793 0104 5B00     		lsls	r3, r3, #1
 2794 0106 2344     		add	r3, r3, r4
 2795 0108 0344     		add	r3, r3, r0
 2796 010a 1B78     		ldrb	r3, [r3]	@ zero_extendqisi2
 2797 010c 1BB2     		sxth	r3, r3
 2798 010e 0B43     		orrs	r3, r3, r1
ARM GAS  C:\Users\MattiaCP\AppData\Local\Temp\ccVW8gGQ.s 			page 59


 2799 0110 18B2     		sxth	r0, r3
 2800 0112 5549     		ldr	r1, .L81+12
 2801 0114 2B46     		mov	r3, r5
 2802 0116 9B00     		lsls	r3, r3, #2
 2803 0118 2B44     		add	r3, r3, r5
 2804 011a 9B00     		lsls	r3, r3, #2
 2805 011c 1344     		add	r3, r3, r2
 2806 011e 0433     		adds	r3, r3, #4
 2807 0120 0246     		mov	r2, r0	@ movhi
 2808 0122 21F81320 		strh	r2, [r1, r3, lsl #1]	@ movhi
 492:..\src/SPI_functions.c ****             tmp = Gyro[IMU_connected[k_imu]][2*j];
 2809              		.loc 1 492 0 discriminator 3
 2810 0126 FB88     		ldrh	r3, [r7, #6]
 2811 0128 0133     		adds	r3, r3, #1
 2812 012a FB80     		strh	r3, [r7, #6]	@ movhi
 2813              	.L73:
 492:..\src/SPI_functions.c ****             tmp = Gyro[IMU_connected[k_imu]][2*j];
 2814              		.loc 1 492 0 is_stmt 0 discriminator 1
 2815 012c FB88     		ldrh	r3, [r7, #6]
 2816 012e 022B     		cmp	r3, #2
 2817 0130 C3D9     		bls	.L74
 495:..\src/SPI_functions.c ****         }
 496:..\src/SPI_functions.c ****                 
 497:..\src/SPI_functions.c ****         for (j = 0; j < 3; j++) {
 2818              		.loc 1 497 0 is_stmt 1
 2819 0132 0023     		movs	r3, #0
 2820 0134 FB80     		strh	r3, [r7, #6]	@ movhi
 2821 0136 39E0     		b	.L75
 2822              	.L76:
 498:..\src/SPI_functions.c ****             tmp = Mag[IMU_connected[k_imu]][2*j];
 2823              		.loc 1 498 0 discriminator 3
 2824 0138 484B     		ldr	r3, .L81
 2825 013a 1B78     		ldrb	r3, [r3]	@ zero_extendqisi2
 2826 013c 1A46     		mov	r2, r3
 2827 013e 484B     		ldr	r3, .L81+4
 2828 0140 9B5C     		ldrb	r3, [r3, r2]	@ zero_extendqisi2
 2829 0142 1846     		mov	r0, r3
 2830 0144 FB88     		ldrh	r3, [r7, #6]
 2831 0146 5A00     		lsls	r2, r3, #1
 2832 0148 4949     		ldr	r1, .L81+20
 2833 014a 0346     		mov	r3, r0
 2834 014c 5B00     		lsls	r3, r3, #1
 2835 014e 0344     		add	r3, r3, r0
 2836 0150 5B00     		lsls	r3, r3, #1
 2837 0152 0B44     		add	r3, r3, r1
 2838 0154 1344     		add	r3, r3, r2
 2839 0156 1B78     		ldrb	r3, [r3]	@ zero_extendqisi2
 2840 0158 BB80     		strh	r3, [r7, #4]	@ movhi
 499:..\src/SPI_functions.c ****             g_imuNew[k_imu].mag_value[j] = (int16)(tmp<<8 | Mag[IMU_connected[k_imu]][2*j + 1]);
 2841              		.loc 1 499 0 discriminator 3
 2842 015a 404B     		ldr	r3, .L81
 2843 015c 1B78     		ldrb	r3, [r3]	@ zero_extendqisi2
 2844 015e 1D46     		mov	r5, r3
 2845 0160 FA88     		ldrh	r2, [r7, #6]
 2846 0162 BB88     		ldrh	r3, [r7, #4]
 2847 0164 1B02     		lsls	r3, r3, #8
 2848 0166 19B2     		sxth	r1, r3
ARM GAS  C:\Users\MattiaCP\AppData\Local\Temp\ccVW8gGQ.s 			page 60


 2849 0168 3C4B     		ldr	r3, .L81
 2850 016a 1B78     		ldrb	r3, [r3]	@ zero_extendqisi2
 2851 016c 1846     		mov	r0, r3
 2852 016e 3C4B     		ldr	r3, .L81+4
 2853 0170 1B5C     		ldrb	r3, [r3, r0]	@ zero_extendqisi2
 2854 0172 1E46     		mov	r6, r3
 2855 0174 FB88     		ldrh	r3, [r7, #6]
 2856 0176 5B00     		lsls	r3, r3, #1
 2857 0178 581C     		adds	r0, r3, #1
 2858 017a 3D4C     		ldr	r4, .L81+20
 2859 017c 3346     		mov	r3, r6
 2860 017e 5B00     		lsls	r3, r3, #1
 2861 0180 3344     		add	r3, r3, r6
 2862 0182 5B00     		lsls	r3, r3, #1
 2863 0184 2344     		add	r3, r3, r4
 2864 0186 0344     		add	r3, r3, r0
 2865 0188 1B78     		ldrb	r3, [r3]	@ zero_extendqisi2
 2866 018a 1BB2     		sxth	r3, r3
 2867 018c 0B43     		orrs	r3, r3, r1
 2868 018e 18B2     		sxth	r0, r3
 2869 0190 3549     		ldr	r1, .L81+12
 2870 0192 2B46     		mov	r3, r5
 2871 0194 9B00     		lsls	r3, r3, #2
 2872 0196 2B44     		add	r3, r3, r5
 2873 0198 9B00     		lsls	r3, r3, #2
 2874 019a 1344     		add	r3, r3, r2
 2875 019c 0433     		adds	r3, r3, #4
 2876 019e 5B00     		lsls	r3, r3, #1
 2877 01a0 0B44     		add	r3, r3, r1
 2878 01a2 0246     		mov	r2, r0	@ movhi
 2879 01a4 DA80     		strh	r2, [r3, #6]	@ movhi
 497:..\src/SPI_functions.c ****             tmp = Mag[IMU_connected[k_imu]][2*j];
 2880              		.loc 1 497 0 discriminator 3
 2881 01a6 FB88     		ldrh	r3, [r7, #6]
 2882 01a8 0133     		adds	r3, r3, #1
 2883 01aa FB80     		strh	r3, [r7, #6]	@ movhi
 2884              	.L75:
 497:..\src/SPI_functions.c ****             tmp = Mag[IMU_connected[k_imu]][2*j];
 2885              		.loc 1 497 0 is_stmt 0 discriminator 1
 2886 01ac FB88     		ldrh	r3, [r7, #6]
 2887 01ae 022B     		cmp	r3, #2
 2888 01b0 C2D9     		bls	.L76
 500:..\src/SPI_functions.c ****         }  
 501:..\src/SPI_functions.c ****         
 502:..\src/SPI_functions.c ****         // Save quaternion only for first IMU
 503:..\src/SPI_functions.c ****         for (j = 0; k_imu == 0 && j < 4; j++) {
 2889              		.loc 1 503 0 is_stmt 1
 2890 01b2 0023     		movs	r3, #0
 2891 01b4 FB80     		strh	r3, [r7, #6]	@ movhi
 2892 01b6 14E0     		b	.L77
 2893              	.L79:
 504:..\src/SPI_functions.c ****             g_imuNew[k_imu].quat_value[j] = (float)Quat[j];
 2894              		.loc 1 504 0 discriminator 4
 2895 01b8 284B     		ldr	r3, .L81
 2896 01ba 1B78     		ldrb	r3, [r3]	@ zero_extendqisi2
 2897 01bc 1C46     		mov	r4, r3
 2898 01be F988     		ldrh	r1, [r7, #6]
ARM GAS  C:\Users\MattiaCP\AppData\Local\Temp\ccVW8gGQ.s 			page 61


 2899 01c0 FB88     		ldrh	r3, [r7, #6]
 2900 01c2 2C4A     		ldr	r2, .L81+24
 2901 01c4 52F82320 		ldr	r2, [r2, r3, lsl #2]	@ float
 2902 01c8 2748     		ldr	r0, .L81+12
 2903 01ca 2346     		mov	r3, r4
 2904 01cc 9B00     		lsls	r3, r3, #2
 2905 01ce 2344     		add	r3, r3, r4
 2906 01d0 5B00     		lsls	r3, r3, #1
 2907 01d2 0B44     		add	r3, r3, r1
 2908 01d4 0433     		adds	r3, r3, #4
 2909 01d6 9B00     		lsls	r3, r3, #2
 2910 01d8 0344     		add	r3, r3, r0
 2911 01da 5A60     		str	r2, [r3, #4]	@ float
 503:..\src/SPI_functions.c ****             g_imuNew[k_imu].quat_value[j] = (float)Quat[j];
 2912              		.loc 1 503 0 discriminator 4
 2913 01dc FB88     		ldrh	r3, [r7, #6]
 2914 01de 0133     		adds	r3, r3, #1
 2915 01e0 FB80     		strh	r3, [r7, #6]	@ movhi
 2916              	.L77:
 503:..\src/SPI_functions.c ****             g_imuNew[k_imu].quat_value[j] = (float)Quat[j];
 2917              		.loc 1 503 0 is_stmt 0 discriminator 1
 2918 01e2 1E4B     		ldr	r3, .L81
 2919 01e4 1B78     		ldrb	r3, [r3]	@ zero_extendqisi2
 2920 01e6 002B     		cmp	r3, #0
 2921 01e8 02D1     		bne	.L78
 503:..\src/SPI_functions.c ****             g_imuNew[k_imu].quat_value[j] = (float)Quat[j];
 2922              		.loc 1 503 0 discriminator 3
 2923 01ea FB88     		ldrh	r3, [r7, #6]
 2924 01ec 032B     		cmp	r3, #3
 2925 01ee E3D9     		bls	.L79
 2926              	.L78:
 505:..\src/SPI_functions.c ****         }
 506:..\src/SPI_functions.c ****         
 507:..\src/SPI_functions.c ****         tmp = Temp[IMU_connected[k_imu]][0];
 2927              		.loc 1 507 0 is_stmt 1 discriminator 2
 2928 01f0 1A4B     		ldr	r3, .L81
 2929 01f2 1B78     		ldrb	r3, [r3]	@ zero_extendqisi2
 2930 01f4 1A46     		mov	r2, r3
 2931 01f6 1A4B     		ldr	r3, .L81+4
 2932 01f8 9B5C     		ldrb	r3, [r3, r2]	@ zero_extendqisi2
 2933 01fa 1A46     		mov	r2, r3
 2934 01fc 1E4B     		ldr	r3, .L81+28
 2935 01fe 13F81230 		ldrb	r3, [r3, r2, lsl #1]	@ zero_extendqisi2
 2936 0202 BB80     		strh	r3, [r7, #4]	@ movhi
 508:..\src/SPI_functions.c ****         g_imuNew[k_imu].temp_value = (int16)(tmp<<8 | Temp[IMU_connected[k_imu]][1]);
 2937              		.loc 1 508 0 discriminator 2
 2938 0204 154B     		ldr	r3, .L81
 2939 0206 1B78     		ldrb	r3, [r3]	@ zero_extendqisi2
 2940 0208 1846     		mov	r0, r3
 2941 020a BB88     		ldrh	r3, [r7, #4]
 2942 020c 1B02     		lsls	r3, r3, #8
 2943 020e 1AB2     		sxth	r2, r3
 2944 0210 124B     		ldr	r3, .L81
 2945 0212 1B78     		ldrb	r3, [r3]	@ zero_extendqisi2
 2946 0214 1946     		mov	r1, r3
 2947 0216 124B     		ldr	r3, .L81+4
 2948 0218 5B5C     		ldrb	r3, [r3, r1]	@ zero_extendqisi2
ARM GAS  C:\Users\MattiaCP\AppData\Local\Temp\ccVW8gGQ.s 			page 62


 2949 021a 1749     		ldr	r1, .L81+28
 2950 021c 5B00     		lsls	r3, r3, #1
 2951 021e 0B44     		add	r3, r3, r1
 2952 0220 5B78     		ldrb	r3, [r3, #1]	@ zero_extendqisi2
 2953 0222 1BB2     		sxth	r3, r3
 2954 0224 1343     		orrs	r3, r3, r2
 2955 0226 19B2     		sxth	r1, r3
 2956 0228 0F4A     		ldr	r2, .L81+12
 2957 022a 0346     		mov	r3, r0
 2958 022c 9B00     		lsls	r3, r3, #2
 2959 022e 0344     		add	r3, r3, r0
 2960 0230 DB00     		lsls	r3, r3, #3
 2961 0232 1344     		add	r3, r3, r2
 2962 0234 2433     		adds	r3, r3, #36
 2963 0236 0A46     		mov	r2, r1	@ movhi
 2964 0238 1A80     		strh	r2, [r3]	@ movhi
 482:..\src/SPI_functions.c ****         // Read k_imu IMU
 2965              		.loc 1 482 0 discriminator 2
 2966 023a 084B     		ldr	r3, .L81
 2967 023c 1B78     		ldrb	r3, [r3]	@ zero_extendqisi2
 2968 023e 0133     		adds	r3, r3, #1
 2969 0240 DAB2     		uxtb	r2, r3
 2970 0242 064B     		ldr	r3, .L81
 2971 0244 1A70     		strb	r2, [r3]
 2972              	.L70:
 482:..\src/SPI_functions.c ****         // Read k_imu IMU
 2973              		.loc 1 482 0 is_stmt 0 discriminator 1
 2974 0246 054B     		ldr	r3, .L81
 2975 0248 1A78     		ldrb	r2, [r3]	@ zero_extendqisi2
 2976 024a 0C4B     		ldr	r3, .L81+32
 2977 024c 1B78     		ldrb	r3, [r3]	@ zero_extendqisi2
 2978 024e 9A42     		cmp	r2, r3
 2979 0250 FFF4E1AE 		bcc	.L80
 509:..\src/SPI_functions.c ****     }
 510:..\src/SPI_functions.c **** }
 2980              		.loc 1 510 0 is_stmt 1
 2981 0254 00BF     		nop
 2982 0256 0C37     		adds	r7, r7, #12
 2983              		.cfi_def_cfa_offset 20
 2984 0258 BD46     		mov	sp, r7
 2985              		.cfi_def_cfa_register 13
 2986              		@ sp needed
 2987 025a F0BD     		pop	{r4, r5, r6, r7, pc}
 2988              	.L82:
 2989              		.align	2
 2990              	.L81:
 2991 025c 00000000 		.word	k_imu.9854
 2992 0260 00000000 		.word	IMU_connected
 2993 0264 00000000 		.word	Accel
 2994 0268 00000000 		.word	g_imuNew
 2995 026c 00000000 		.word	Gyro
 2996 0270 00000000 		.word	Mag
 2997 0274 00000000 		.word	Quat
 2998 0278 00000000 		.word	Temp
 2999 027c 00000000 		.word	N_IMU_Connected
 3000              		.cfi_endproc
 3001              	.LFE75:
ARM GAS  C:\Users\MattiaCP\AppData\Local\Temp\ccVW8gGQ.s 			page 63


 3002              		.size	ReadAllIMUs, .-ReadAllIMUs
 3003              		.section	.text.ReadTemp,"ax",%progbits
 3004              		.align	2
 3005              		.global	ReadTemp
 3006              		.thumb
 3007              		.thumb_func
 3008              		.type	ReadTemp, %function
 3009              	ReadTemp:
 3010              	.LFB76:
 511:..\src/SPI_functions.c **** 
 512:..\src/SPI_functions.c **** /*******************************************************************************
 513:..\src/SPI_functions.c **** * Function Name: Read Temperature Data of IMU n
 514:..\src/SPI_functions.c **** *********************************************************************************/
 515:..\src/SPI_functions.c **** void ReadTemp(int n)
 516:..\src/SPI_functions.c **** {
 3011              		.loc 1 516 0
 3012              		.cfi_startproc
 3013              		@ args = 0, pretend = 0, frame = 16
 3014              		@ frame_needed = 1, uses_anonymous_args = 0
 3015 0000 80B5     		push	{r7, lr}
 3016              		.cfi_def_cfa_offset 8
 3017              		.cfi_offset 7, -8
 3018              		.cfi_offset 14, -4
 3019 0002 84B0     		sub	sp, sp, #16
 3020              		.cfi_def_cfa_offset 24
 3021 0004 00AF     		add	r7, sp, #0
 3022              		.cfi_def_cfa_register 7
 3023 0006 7860     		str	r0, [r7, #4]
 517:..\src/SPI_functions.c **** 	uint8 low=0, high=0;	
 3024              		.loc 1 517 0
 3025 0008 0023     		movs	r3, #0
 3026 000a FB73     		strb	r3, [r7, #15]
 3027 000c 0023     		movs	r3, #0
 3028 000e BB73     		strb	r3, [r7, #14]
 518:..\src/SPI_functions.c **** 	int row = n;
 3029              		.loc 1 518 0
 3030 0010 7B68     		ldr	r3, [r7, #4]
 3031 0012 BB60     		str	r3, [r7, #8]
 519:..\src/SPI_functions.c **** 	
 520:..\src/SPI_functions.c **** 	//read X
 521:..\src/SPI_functions.c ****     low=ReadControlRegister(MPU9250_TEMP_OUT_L);
 3032              		.loc 1 521 0
 3033 0014 4220     		movs	r0, #66
 3034 0016 FFF7FEFF 		bl	ReadControlRegister
 3035 001a 0346     		mov	r3, r0
 3036 001c FB73     		strb	r3, [r7, #15]
 522:..\src/SPI_functions.c ****     SPI_delay();
 3037              		.loc 1 522 0
 3038 001e FFF7FEFF 		bl	SPI_delay
 523:..\src/SPI_functions.c **** 	high=ReadControlRegister(MPU9250_TEMP_OUT_H);
 3039              		.loc 1 523 0
 3040 0022 4120     		movs	r0, #65
 3041 0024 FFF7FEFF 		bl	ReadControlRegister
 3042 0028 0346     		mov	r3, r0
 3043 002a BB73     		strb	r3, [r7, #14]
 524:..\src/SPI_functions.c ****     SPI_delay();
 3044              		.loc 1 524 0
ARM GAS  C:\Users\MattiaCP\AppData\Local\Temp\ccVW8gGQ.s 			page 64


 3045 002c FFF7FEFF 		bl	SPI_delay
 525:..\src/SPI_functions.c **** 
 526:..\src/SPI_functions.c **** 	Temp[row][0] = high; 
 3046              		.loc 1 526 0
 3047 0030 0949     		ldr	r1, .L84
 3048 0032 BB68     		ldr	r3, [r7, #8]
 3049 0034 BA7B     		ldrb	r2, [r7, #14]
 3050 0036 01F81320 		strb	r2, [r1, r3, lsl #1]
 527:..\src/SPI_functions.c **** 	Temp[row][1] = low; 
 3051              		.loc 1 527 0
 3052 003a 074A     		ldr	r2, .L84
 3053 003c BB68     		ldr	r3, [r7, #8]
 3054 003e 5B00     		lsls	r3, r3, #1
 3055 0040 1344     		add	r3, r3, r2
 3056 0042 FA7B     		ldrb	r2, [r7, #15]
 3057 0044 5A70     		strb	r2, [r3, #1]
 528:..\src/SPI_functions.c **** 	low=0, high=0;
 3058              		.loc 1 528 0
 3059 0046 0023     		movs	r3, #0
 3060 0048 FB73     		strb	r3, [r7, #15]
 3061 004a 0023     		movs	r3, #0
 3062 004c BB73     		strb	r3, [r7, #14]
 529:..\src/SPI_functions.c **** }
 3063              		.loc 1 529 0
 3064 004e 00BF     		nop
 3065 0050 1037     		adds	r7, r7, #16
 3066              		.cfi_def_cfa_offset 8
 3067 0052 BD46     		mov	sp, r7
 3068              		.cfi_def_cfa_register 13
 3069              		@ sp needed
 3070 0054 80BD     		pop	{r7, pc}
 3071              	.L85:
 3072 0056 00BF     		.align	2
 3073              	.L84:
 3074 0058 00000000 		.word	Temp
 3075              		.cfi_endproc
 3076              	.LFE76:
 3077              		.size	ReadTemp, .-ReadTemp
 3078              		.section	.text.WriteControlRegister,"ax",%progbits
 3079              		.align	2
 3080              		.global	WriteControlRegister
 3081              		.thumb
 3082              		.thumb_func
 3083              		.type	WriteControlRegister, %function
 3084              	WriteControlRegister:
 3085              	.LFB77:
 530:..\src/SPI_functions.c **** 
 531:..\src/SPI_functions.c **** /********************************** *********************************************
 532:..\src/SPI_functions.c **** * Function Name: Write Control Register
 533:..\src/SPI_functions.c **** *********************************************************************************/
 534:..\src/SPI_functions.c **** void WriteControlRegister(uint8 address, uint8 dta){
 3086              		.loc 1 534 0
 3087              		.cfi_startproc
 3088              		@ args = 0, pretend = 0, frame = 8
 3089              		@ frame_needed = 1, uses_anonymous_args = 0
 3090 0000 80B5     		push	{r7, lr}
 3091              		.cfi_def_cfa_offset 8
ARM GAS  C:\Users\MattiaCP\AppData\Local\Temp\ccVW8gGQ.s 			page 65


 3092              		.cfi_offset 7, -8
 3093              		.cfi_offset 14, -4
 3094 0002 82B0     		sub	sp, sp, #8
 3095              		.cfi_def_cfa_offset 16
 3096 0004 00AF     		add	r7, sp, #0
 3097              		.cfi_def_cfa_register 7
 3098 0006 0346     		mov	r3, r0
 3099 0008 0A46     		mov	r2, r1
 3100 000a FB71     		strb	r3, [r7, #7]
 3101 000c 1346     		mov	r3, r2
 3102 000e BB71     		strb	r3, [r7, #6]
 535:..\src/SPI_functions.c **** 	
 536:..\src/SPI_functions.c **** 	SPI_IMU_ClearRxBuffer();
 3103              		.loc 1 536 0
 3104 0010 FFF7FEFF 		bl	SPI_IMU_ClearRxBuffer
 537:..\src/SPI_functions.c **** 	SPI_IMU_ClearTxBuffer();
 3105              		.loc 1 537 0
 3106 0014 FFF7FEFF 		bl	SPI_IMU_ClearTxBuffer
 538:..\src/SPI_functions.c **** 	SPI_IMU_ClearFIFO();
 3107              		.loc 1 538 0
 3108 0018 FFF7FEFF 		bl	SPI_IMU_ClearFIFO
 539:..\src/SPI_functions.c **** 	SPI_IMU_WriteByte(MPU9250_WCR | address);
 3109              		.loc 1 539 0
 3110 001c FB79     		ldrb	r3, [r7, #7]	@ zero_extendqisi2
 3111 001e 1846     		mov	r0, r3
 3112 0020 FFF7FEFF 		bl	SPI_IMU_WriteTxData
 540:..\src/SPI_functions.c **** 	while(!( SPI_IMU_ReadStatus() & SPI_IMU_STS_TX_FIFO_EMPTY));		
 3113              		.loc 1 540 0
 3114 0024 00BF     		nop
 3115              	.L87:
 3116              		.loc 1 540 0 is_stmt 0 discriminator 1
 3117 0026 FFF7FEFF 		bl	SPI_IMU_ReadStatus
 3118 002a 0346     		mov	r3, r0
 3119 002c 03F00203 		and	r3, r3, #2
 3120 0030 002B     		cmp	r3, #0
 3121 0032 F8D0     		beq	.L87
 541:..\src/SPI_functions.c **** 	SPI_IMU_WriteByte(dta);
 3122              		.loc 1 541 0 is_stmt 1
 3123 0034 BB79     		ldrb	r3, [r7, #6]	@ zero_extendqisi2
 3124 0036 1846     		mov	r0, r3
 3125 0038 FFF7FEFF 		bl	SPI_IMU_WriteTxData
 542:..\src/SPI_functions.c **** 	while(!( SPI_IMU_ReadStatus() & SPI_IMU_STS_TX_FIFO_EMPTY));
 3126              		.loc 1 542 0
 3127 003c 00BF     		nop
 3128              	.L88:
 3129              		.loc 1 542 0 is_stmt 0 discriminator 1
 3130 003e FFF7FEFF 		bl	SPI_IMU_ReadStatus
 3131 0042 0346     		mov	r3, r0
 3132 0044 03F00203 		and	r3, r3, #2
 3133 0048 002B     		cmp	r3, #0
 3134 004a F8D0     		beq	.L88
 543:..\src/SPI_functions.c **** }
 3135              		.loc 1 543 0 is_stmt 1
 3136 004c 00BF     		nop
 3137 004e 0837     		adds	r7, r7, #8
 3138              		.cfi_def_cfa_offset 8
 3139 0050 BD46     		mov	sp, r7
ARM GAS  C:\Users\MattiaCP\AppData\Local\Temp\ccVW8gGQ.s 			page 66


 3140              		.cfi_def_cfa_register 13
 3141              		@ sp needed
 3142 0052 80BD     		pop	{r7, pc}
 3143              		.cfi_endproc
 3144              	.LFE77:
 3145              		.size	WriteControlRegister, .-WriteControlRegister
 3146              		.section	.text.ReadControlRegister,"ax",%progbits
 3147              		.align	2
 3148              		.global	ReadControlRegister
 3149              		.thumb
 3150              		.thumb_func
 3151              		.type	ReadControlRegister, %function
 3152              	ReadControlRegister:
 3153              	.LFB78:
 544:..\src/SPI_functions.c **** 
 545:..\src/SPI_functions.c **** /*******************************************************************************
 546:..\src/SPI_functions.c **** * Function Name: Read Control Register
 547:..\src/SPI_functions.c **** *********************************************************************************/
 548:..\src/SPI_functions.c **** uint8 ReadControlRegister(uint8 address){
 3154              		.loc 1 548 0
 3155              		.cfi_startproc
 3156              		@ args = 0, pretend = 0, frame = 16
 3157              		@ frame_needed = 1, uses_anonymous_args = 0
 3158 0000 80B5     		push	{r7, lr}
 3159              		.cfi_def_cfa_offset 8
 3160              		.cfi_offset 7, -8
 3161              		.cfi_offset 14, -4
 3162 0002 84B0     		sub	sp, sp, #16
 3163              		.cfi_def_cfa_offset 24
 3164 0004 00AF     		add	r7, sp, #0
 3165              		.cfi_def_cfa_register 7
 3166 0006 0346     		mov	r3, r0
 3167 0008 FB71     		strb	r3, [r7, #7]
 549:..\src/SPI_functions.c **** 	uint8 controlreg = 0;
 3168              		.loc 1 549 0
 3169 000a 0023     		movs	r3, #0
 3170 000c FB73     		strb	r3, [r7, #15]
 550:..\src/SPI_functions.c **** 	
 551:..\src/SPI_functions.c **** 	SPI_IMU_WriteByte(MPU9250_RCR | address);
 3171              		.loc 1 551 0
 3172 000e FB79     		ldrb	r3, [r7, #7]
 3173 0010 63F07F03 		orn	r3, r3, #127
 3174 0014 DBB2     		uxtb	r3, r3
 3175 0016 1846     		mov	r0, r3
 3176 0018 FFF7FEFF 		bl	SPI_IMU_WriteTxData
 552:..\src/SPI_functions.c ****     while(!( SPI_IMU_ReadStatus() & SPI_IMU_STS_TX_FIFO_EMPTY));
 3177              		.loc 1 552 0
 3178 001c 00BF     		nop
 3179              	.L90:
 3180              		.loc 1 552 0 is_stmt 0 discriminator 1
 3181 001e FFF7FEFF 		bl	SPI_IMU_ReadStatus
 3182 0022 0346     		mov	r3, r0
 3183 0024 03F00203 		and	r3, r3, #2
 3184 0028 002B     		cmp	r3, #0
 3185 002a F8D0     		beq	.L90
 553:..\src/SPI_functions.c ****     SPI_IMU_WriteByte(0x00);
 3186              		.loc 1 553 0 is_stmt 1
ARM GAS  C:\Users\MattiaCP\AppData\Local\Temp\ccVW8gGQ.s 			page 67


 3187 002c 0020     		movs	r0, #0
 3188 002e FFF7FEFF 		bl	SPI_IMU_WriteTxData
 554:..\src/SPI_functions.c **** 	while(!( SPI_IMU_ReadStatus() & SPI_IMU_STS_SPI_DONE));
 3189              		.loc 1 554 0
 3190 0032 00BF     		nop
 3191              	.L91:
 3192              		.loc 1 554 0 is_stmt 0 discriminator 1
 3193 0034 FFF7FEFF 		bl	SPI_IMU_ReadStatus
 3194 0038 0346     		mov	r3, r0
 3195 003a 03F00103 		and	r3, r3, #1
 3196 003e 002B     		cmp	r3, #0
 3197 0040 F8D0     		beq	.L91
 555:..\src/SPI_functions.c **** 	controlreg = SPI_IMU_ReadByte();        //real data
 3198              		.loc 1 555 0 is_stmt 1
 3199 0042 FFF7FEFF 		bl	SPI_IMU_ReadRxData
 3200 0046 0346     		mov	r3, r0
 3201 0048 FB73     		strb	r3, [r7, #15]
 556:..\src/SPI_functions.c **** 	return controlreg;
 3202              		.loc 1 556 0
 3203 004a FB7B     		ldrb	r3, [r7, #15]	@ zero_extendqisi2
 557:..\src/SPI_functions.c **** }
 3204              		.loc 1 557 0
 3205 004c 1846     		mov	r0, r3
 3206 004e 1037     		adds	r7, r7, #16
 3207              		.cfi_def_cfa_offset 8
 3208 0050 BD46     		mov	sp, r7
 3209              		.cfi_def_cfa_register 13
 3210              		@ sp needed
 3211 0052 80BD     		pop	{r7, pc}
 3212              		.cfi_endproc
 3213              	.LFE78:
 3214              		.size	ReadControlRegister, .-ReadControlRegister
 3215              		.section	.text.SPI_delay,"ax",%progbits
 3216              		.align	2
 3217              		.global	SPI_delay
 3218              		.thumb
 3219              		.thumb_func
 3220              		.type	SPI_delay, %function
 3221              	SPI_delay:
 3222              	.LFB79:
 558:..\src/SPI_functions.c **** 
 559:..\src/SPI_functions.c **** /*******************************************************************************
 560:..\src/SPI_functions.c **** * Function Name: SPI delay
 561:..\src/SPI_functions.c **** *********************************************************************************/
 562:..\src/SPI_functions.c **** void SPI_delay(){
 3223              		.loc 1 562 0
 3224              		.cfi_startproc
 3225              		@ args = 0, pretend = 0, frame = 0
 3226              		@ frame_needed = 1, uses_anonymous_args = 0
 3227 0000 80B5     		push	{r7, lr}
 3228              		.cfi_def_cfa_offset 8
 3229              		.cfi_offset 7, -8
 3230              		.cfi_offset 14, -4
 3231 0002 00AF     		add	r7, sp, #0
 3232              		.cfi_def_cfa_register 7
 563:..\src/SPI_functions.c ****     switch( c_mem.SPI_read_delay ) {
 3233              		.loc 1 563 0
ARM GAS  C:\Users\MattiaCP\AppData\Local\Temp\ccVW8gGQ.s 			page 68


 3234 0004 084B     		ldr	r3, .L98
 3235 0006 93F82031 		ldrb	r3, [r3, #288]	@ zero_extendqisi2
 3236 000a 012B     		cmp	r3, #1
 3237 000c 02D0     		beq	.L95
 3238 000e 022B     		cmp	r3, #2
 3239 0010 04D0     		beq	.L96
 564:..\src/SPI_functions.c ****         case 1:     // Low
 565:..\src/SPI_functions.c ****             CyDelayUs((uint16)SPI_DELAY_LOW);
 566:..\src/SPI_functions.c ****             break;
 567:..\src/SPI_functions.c ****         case 2:     // High
 568:..\src/SPI_functions.c ****             CyDelayUs((uint16)SPI_DELAY_HIGH);
 569:..\src/SPI_functions.c ****             break;
 570:..\src/SPI_functions.c ****         default:    // None
 571:..\src/SPI_functions.c ****             break;
 3240              		.loc 1 571 0
 3241 0012 07E0     		b	.L97
 3242              	.L95:
 565:..\src/SPI_functions.c ****             break;
 3243              		.loc 1 565 0
 3244 0014 0A20     		movs	r0, #10
 3245 0016 FFF7FEFF 		bl	CyDelayUs
 566:..\src/SPI_functions.c ****         case 2:     // High
 3246              		.loc 1 566 0
 3247 001a 03E0     		b	.L97
 3248              	.L96:
 568:..\src/SPI_functions.c ****             break;
 3249              		.loc 1 568 0
 3250 001c 6420     		movs	r0, #100
 3251 001e FFF7FEFF 		bl	CyDelayUs
 569:..\src/SPI_functions.c ****         default:    // None
 3252              		.loc 1 569 0
 3253 0022 00BF     		nop
 3254              	.L97:
 572:..\src/SPI_functions.c ****     }
 573:..\src/SPI_functions.c **** }
 3255              		.loc 1 573 0
 3256 0024 00BF     		nop
 3257 0026 80BD     		pop	{r7, pc}
 3258              	.L99:
 3259              		.align	2
 3260              	.L98:
 3261 0028 00000000 		.word	c_mem
 3262              		.cfi_endproc
 3263              	.LFE79:
 3264              		.size	SPI_delay, .-SPI_delay
 3265              		.section	.text.DS1302_write,"ax",%progbits
 3266              		.align	2
 3267              		.global	DS1302_write
 3268              		.thumb
 3269              		.thumb_func
 3270              		.type	DS1302_write, %function
 3271              	DS1302_write:
 3272              	.LFB80:
 574:..\src/SPI_functions.c **** 
 575:..\src/SPI_functions.c **** 
 576:..\src/SPI_functions.c **** // --------------------------------------------------------
 577:..\src/SPI_functions.c **** // DS1302_write
ARM GAS  C:\Users\MattiaCP\AppData\Local\Temp\ccVW8gGQ.s 			page 69


 578:..\src/SPI_functions.c **** void DS1302_write(uint8 address, uint8 data_wr) {
 3273              		.loc 1 578 0
 3274              		.cfi_startproc
 3275              		@ args = 0, pretend = 0, frame = 8
 3276              		@ frame_needed = 1, uses_anonymous_args = 0
 3277 0000 80B5     		push	{r7, lr}
 3278              		.cfi_def_cfa_offset 8
 3279              		.cfi_offset 7, -8
 3280              		.cfi_offset 14, -4
 3281 0002 82B0     		sub	sp, sp, #8
 3282              		.cfi_def_cfa_offset 16
 3283 0004 00AF     		add	r7, sp, #0
 3284              		.cfi_def_cfa_register 7
 3285 0006 0346     		mov	r3, r0
 3286 0008 0A46     		mov	r2, r1
 3287 000a FB71     		strb	r3, [r7, #7]
 3288 000c 1346     		mov	r3, r2
 3289 000e BB71     		strb	r3, [r7, #6]
 579:..\src/SPI_functions.c **** 
 580:..\src/SPI_functions.c ****   RTC_Clock_Write(0);  
 3290              		.loc 1 580 0
 3291 0010 0020     		movs	r0, #0
 3292 0012 FFF7FEFF 		bl	RTC_Clock_Write
 581:..\src/SPI_functions.c ****   RTC_CS_Write(1);
 3293              		.loc 1 581 0
 3294 0016 0120     		movs	r0, #1
 3295 0018 FFF7FEFF 		bl	RTC_CS_Write
 582:..\src/SPI_functions.c ****   CyDelayUs(5); // [GS] 
 3296              		.loc 1 582 0
 3297 001c 0520     		movs	r0, #5
 3298 001e FFF7FEFF 		bl	CyDelayUs
 583:..\src/SPI_functions.c ****   DS1302_writeByte(address);
 3299              		.loc 1 583 0
 3300 0022 FB79     		ldrb	r3, [r7, #7]	@ zero_extendqisi2
 3301 0024 1846     		mov	r0, r3
 3302 0026 FFF7FEFF 		bl	DS1302_writeByte
 584:..\src/SPI_functions.c ****   DS1302_writeByte(data_wr);
 3303              		.loc 1 584 0
 3304 002a BB79     		ldrb	r3, [r7, #6]	@ zero_extendqisi2
 3305 002c 1846     		mov	r0, r3
 3306 002e FFF7FEFF 		bl	DS1302_writeByte
 585:..\src/SPI_functions.c ****   
 586:..\src/SPI_functions.c ****   RTC_CS_Write(0);
 3307              		.loc 1 586 0
 3308 0032 0020     		movs	r0, #0
 3309 0034 FFF7FEFF 		bl	RTC_CS_Write
 587:..\src/SPI_functions.c ****   CyDelayUs(5); // [GS] 
 3310              		.loc 1 587 0
 3311 0038 0520     		movs	r0, #5
 3312 003a FFF7FEFF 		bl	CyDelayUs
 588:..\src/SPI_functions.c **** }
 3313              		.loc 1 588 0
 3314 003e 00BF     		nop
 3315 0040 0837     		adds	r7, r7, #8
 3316              		.cfi_def_cfa_offset 8
 3317 0042 BD46     		mov	sp, r7
 3318              		.cfi_def_cfa_register 13
ARM GAS  C:\Users\MattiaCP\AppData\Local\Temp\ccVW8gGQ.s 			page 70


 3319              		@ sp needed
 3320 0044 80BD     		pop	{r7, pc}
 3321              		.cfi_endproc
 3322              	.LFE80:
 3323              		.size	DS1302_write, .-DS1302_write
 3324 0046 00BF     		.section	.text.DS1302_writeByte,"ax",%progbits
 3325              		.align	2
 3326              		.global	DS1302_writeByte
 3327              		.thumb
 3328              		.thumb_func
 3329              		.type	DS1302_writeByte, %function
 3330              	DS1302_writeByte:
 3331              	.LFB81:
 589:..\src/SPI_functions.c **** 
 590:..\src/SPI_functions.c **** void DS1302_writeByte(uint8 data_wr) {
 3332              		.loc 1 590 0
 3333              		.cfi_startproc
 3334              		@ args = 0, pretend = 0, frame = 8
 3335              		@ frame_needed = 1, uses_anonymous_args = 0
 3336 0000 80B5     		push	{r7, lr}
 3337              		.cfi_def_cfa_offset 8
 3338              		.cfi_offset 7, -8
 3339              		.cfi_offset 14, -4
 3340 0002 82B0     		sub	sp, sp, #8
 3341              		.cfi_def_cfa_offset 16
 3342 0004 00AF     		add	r7, sp, #0
 3343              		.cfi_def_cfa_register 7
 3344 0006 0346     		mov	r3, r0
 3345 0008 FB71     		strb	r3, [r7, #7]
 591:..\src/SPI_functions.c ****   
 592:..\src/SPI_functions.c ****   shiftOut_RTC(data_wr);
 3346              		.loc 1 592 0
 3347 000a FB79     		ldrb	r3, [r7, #7]	@ zero_extendqisi2
 3348 000c 1846     		mov	r0, r3
 3349 000e FFF7FEFF 		bl	shiftOut_RTC
 593:..\src/SPI_functions.c **** 
 594:..\src/SPI_functions.c **** }
 3350              		.loc 1 594 0
 3351 0012 00BF     		nop
 3352 0014 0837     		adds	r7, r7, #8
 3353              		.cfi_def_cfa_offset 8
 3354 0016 BD46     		mov	sp, r7
 3355              		.cfi_def_cfa_register 13
 3356              		@ sp needed
 3357 0018 80BD     		pop	{r7, pc}
 3358              		.cfi_endproc
 3359              	.LFE81:
 3360              		.size	DS1302_writeByte, .-DS1302_writeByte
 3361 001a 00BF     		.section	.text.DS1302_read,"ax",%progbits
 3362              		.align	2
 3363              		.global	DS1302_read
 3364              		.thumb
 3365              		.thumb_func
 3366              		.type	DS1302_read, %function
 3367              	DS1302_read:
 3368              	.LFB82:
 595:..\src/SPI_functions.c **** 
ARM GAS  C:\Users\MattiaCP\AppData\Local\Temp\ccVW8gGQ.s 			page 71


 596:..\src/SPI_functions.c **** uint8 DS1302_read(uint8 address) {
 3369              		.loc 1 596 0
 3370              		.cfi_startproc
 3371              		@ args = 0, pretend = 0, frame = 16
 3372              		@ frame_needed = 1, uses_anonymous_args = 0
 3373 0000 80B5     		push	{r7, lr}
 3374              		.cfi_def_cfa_offset 8
 3375              		.cfi_offset 7, -8
 3376              		.cfi_offset 14, -4
 3377 0002 84B0     		sub	sp, sp, #16
 3378              		.cfi_def_cfa_offset 24
 3379 0004 00AF     		add	r7, sp, #0
 3380              		.cfi_def_cfa_register 7
 3381 0006 0346     		mov	r3, r0
 3382 0008 FB71     		strb	r3, [r7, #7]
 597:..\src/SPI_functions.c **** 
 598:..\src/SPI_functions.c ****   uint8 readValue;
 599:..\src/SPI_functions.c ****   RTC_Clock_Write(0); 
 3383              		.loc 1 599 0
 3384 000a 0020     		movs	r0, #0
 3385 000c FFF7FEFF 		bl	RTC_Clock_Write
 600:..\src/SPI_functions.c ****   RTC_CS_Write(1);
 3386              		.loc 1 600 0
 3387 0010 0120     		movs	r0, #1
 3388 0012 FFF7FEFF 		bl	RTC_CS_Write
 601:..\src/SPI_functions.c ****   CyDelayUs(5); // [GS]
 3389              		.loc 1 601 0
 3390 0016 0520     		movs	r0, #5
 3391 0018 FFF7FEFF 		bl	CyDelayUs
 602:..\src/SPI_functions.c ****   DS1302_writeByte(address);
 3392              		.loc 1 602 0
 3393 001c FB79     		ldrb	r3, [r7, #7]	@ zero_extendqisi2
 3394 001e 1846     		mov	r0, r3
 3395 0020 FFF7FEFF 		bl	DS1302_writeByte
 603:..\src/SPI_functions.c ****   readValue = DS1302_readByte();
 3396              		.loc 1 603 0
 3397 0024 FFF7FEFF 		bl	DS1302_readByte
 3398 0028 0346     		mov	r3, r0
 3399 002a FB73     		strb	r3, [r7, #15]
 604:..\src/SPI_functions.c ****   RTC_CS_Write(0);
 3400              		.loc 1 604 0
 3401 002c 0020     		movs	r0, #0
 3402 002e FFF7FEFF 		bl	RTC_CS_Write
 605:..\src/SPI_functions.c ****   CyDelayUs(5); // [GS]
 3403              		.loc 1 605 0
 3404 0032 0520     		movs	r0, #5
 3405 0034 FFF7FEFF 		bl	CyDelayUs
 606:..\src/SPI_functions.c ****   return readValue;
 3406              		.loc 1 606 0
 3407 0038 FB7B     		ldrb	r3, [r7, #15]	@ zero_extendqisi2
 607:..\src/SPI_functions.c ****   
 608:..\src/SPI_functions.c **** }
 3408              		.loc 1 608 0
 3409 003a 1846     		mov	r0, r3
 3410 003c 1037     		adds	r7, r7, #16
 3411              		.cfi_def_cfa_offset 8
 3412 003e BD46     		mov	sp, r7
ARM GAS  C:\Users\MattiaCP\AppData\Local\Temp\ccVW8gGQ.s 			page 72


 3413              		.cfi_def_cfa_register 13
 3414              		@ sp needed
 3415 0040 80BD     		pop	{r7, pc}
 3416              		.cfi_endproc
 3417              	.LFE82:
 3418              		.size	DS1302_read, .-DS1302_read
 3419 0042 00BF     		.section	.text.DS1302_readByte,"ax",%progbits
 3420              		.align	2
 3421              		.global	DS1302_readByte
 3422              		.thumb
 3423              		.thumb_func
 3424              		.type	DS1302_readByte, %function
 3425              	DS1302_readByte:
 3426              	.LFB83:
 609:..\src/SPI_functions.c **** 
 610:..\src/SPI_functions.c **** uint8 DS1302_readByte() {
 3427              		.loc 1 610 0
 3428              		.cfi_startproc
 3429              		@ args = 0, pretend = 0, frame = 16
 3430              		@ frame_needed = 1, uses_anonymous_args = 0
 3431 0000 80B5     		push	{r7, lr}
 3432              		.cfi_def_cfa_offset 8
 3433              		.cfi_offset 7, -8
 3434              		.cfi_offset 14, -4
 3435 0002 84B0     		sub	sp, sp, #16
 3436              		.cfi_def_cfa_offset 24
 3437 0004 00AF     		add	r7, sp, #0
 3438              		.cfi_def_cfa_register 7
 611:..\src/SPI_functions.c **** 
 612:..\src/SPI_functions.c ****   uint8 value = 0;
 3439              		.loc 1 612 0
 3440 0006 0023     		movs	r3, #0
 3441 0008 FB73     		strb	r3, [r7, #15]
 613:..\src/SPI_functions.c ****   uint8 currentBit = 0;
 3442              		.loc 1 613 0
 3443 000a 0023     		movs	r3, #0
 3444 000c FB71     		strb	r3, [r7, #7]
 614:..\src/SPI_functions.c ****   int i=0;
 3445              		.loc 1 614 0
 3446 000e 0023     		movs	r3, #0
 3447 0010 BB60     		str	r3, [r7, #8]
 615:..\src/SPI_functions.c ****   for (i = 0; i < 8; ++i)
 3448              		.loc 1 615 0
 3449 0012 0023     		movs	r3, #0
 3450 0014 BB60     		str	r3, [r7, #8]
 3451 0016 19E0     		b	.L105
 3452              	.L106:
 616:..\src/SPI_functions.c ****   {
 617:..\src/SPI_functions.c ****     currentBit = RTC_IN_Read();
 3453              		.loc 1 617 0 discriminator 3
 3454 0018 FFF7FEFF 		bl	RTC_IN_Read
 3455 001c 0346     		mov	r3, r0
 3456 001e FB71     		strb	r3, [r7, #7]
 618:..\src/SPI_functions.c ****     value |= (currentBit << i);
 3457              		.loc 1 618 0 discriminator 3
 3458 0020 FA79     		ldrb	r2, [r7, #7]	@ zero_extendqisi2
 3459 0022 BB68     		ldr	r3, [r7, #8]
ARM GAS  C:\Users\MattiaCP\AppData\Local\Temp\ccVW8gGQ.s 			page 73


 3460 0024 02FA03F3 		lsl	r3, r2, r3
 3461 0028 5AB2     		sxtb	r2, r3
 3462 002a 97F90F30 		ldrsb	r3, [r7, #15]
 3463 002e 1343     		orrs	r3, r3, r2
 3464 0030 5BB2     		sxtb	r3, r3
 3465 0032 FB73     		strb	r3, [r7, #15]
 619:..\src/SPI_functions.c ****     RTC_Clock_Write(1);
 3466              		.loc 1 619 0 discriminator 3
 3467 0034 0120     		movs	r0, #1
 3468 0036 FFF7FEFF 		bl	RTC_Clock_Write
 620:..\src/SPI_functions.c ****     CyDelayUs(1);
 3469              		.loc 1 620 0 discriminator 3
 3470 003a 0120     		movs	r0, #1
 3471 003c FFF7FEFF 		bl	CyDelayUs
 621:..\src/SPI_functions.c ****     RTC_Clock_Write(0);
 3472              		.loc 1 621 0 discriminator 3
 3473 0040 0020     		movs	r0, #0
 3474 0042 FFF7FEFF 		bl	RTC_Clock_Write
 615:..\src/SPI_functions.c ****   {
 3475              		.loc 1 615 0 discriminator 3
 3476 0046 BB68     		ldr	r3, [r7, #8]
 3477 0048 0133     		adds	r3, r3, #1
 3478 004a BB60     		str	r3, [r7, #8]
 3479              	.L105:
 615:..\src/SPI_functions.c ****   {
 3480              		.loc 1 615 0 is_stmt 0 discriminator 1
 3481 004c BB68     		ldr	r3, [r7, #8]
 3482 004e 072B     		cmp	r3, #7
 3483 0050 E2DD     		ble	.L106
 622:..\src/SPI_functions.c ****   }
 623:..\src/SPI_functions.c ****   return value;
 3484              		.loc 1 623 0 is_stmt 1
 3485 0052 FB7B     		ldrb	r3, [r7, #15]	@ zero_extendqisi2
 624:..\src/SPI_functions.c **** }
 3486              		.loc 1 624 0
 3487 0054 1846     		mov	r0, r3
 3488 0056 1037     		adds	r7, r7, #16
 3489              		.cfi_def_cfa_offset 8
 3490 0058 BD46     		mov	sp, r7
 3491              		.cfi_def_cfa_register 13
 3492              		@ sp needed
 3493 005a 80BD     		pop	{r7, pc}
 3494              		.cfi_endproc
 3495              	.LFE83:
 3496              		.size	DS1302_readByte, .-DS1302_readByte
 3497              		.section	.text.shiftOut_RTC,"ax",%progbits
 3498              		.align	2
 3499              		.global	shiftOut_RTC
 3500              		.thumb
 3501              		.thumb_func
 3502              		.type	shiftOut_RTC, %function
 3503              	shiftOut_RTC:
 3504              	.LFB84:
 625:..\src/SPI_functions.c **** 
 626:..\src/SPI_functions.c **** void shiftOut_RTC(uint8 val)
 627:..\src/SPI_functions.c **** {
 3505              		.loc 1 627 0
ARM GAS  C:\Users\MattiaCP\AppData\Local\Temp\ccVW8gGQ.s 			page 74


 3506              		.cfi_startproc
 3507              		@ args = 0, pretend = 0, frame = 16
 3508              		@ frame_needed = 1, uses_anonymous_args = 0
 3509 0000 80B5     		push	{r7, lr}
 3510              		.cfi_def_cfa_offset 8
 3511              		.cfi_offset 7, -8
 3512              		.cfi_offset 14, -4
 3513 0002 84B0     		sub	sp, sp, #16
 3514              		.cfi_def_cfa_offset 24
 3515 0004 00AF     		add	r7, sp, #0
 3516              		.cfi_def_cfa_register 7
 3517 0006 0346     		mov	r3, r0
 3518 0008 FB71     		strb	r3, [r7, #7]
 628:..\src/SPI_functions.c ****     uint8 i;
 629:..\src/SPI_functions.c ****     for (i = 0; i < 8; i++)  {
 3519              		.loc 1 629 0
 3520 000a 0023     		movs	r3, #0
 3521 000c FB73     		strb	r3, [r7, #15]
 3522 000e 16E0     		b	.L109
 3523              	.L110:
 630:..\src/SPI_functions.c ****         RTC_OUT_Write(!!(val & (1 << i)));
 3524              		.loc 1 630 0 discriminator 3
 3525 0010 FA79     		ldrb	r2, [r7, #7]	@ zero_extendqisi2
 3526 0012 FB7B     		ldrb	r3, [r7, #15]	@ zero_extendqisi2
 3527 0014 42FA03F3 		asr	r3, r2, r3
 3528 0018 03F00103 		and	r3, r3, #1
 3529 001c 002B     		cmp	r3, #0
 3530 001e 14BF     		ite	ne
 3531 0020 0123     		movne	r3, #1
 3532 0022 0023     		moveq	r3, #0
 3533 0024 DBB2     		uxtb	r3, r3
 3534 0026 1846     		mov	r0, r3
 3535 0028 FFF7FEFF 		bl	RTC_OUT_Write
 631:..\src/SPI_functions.c ****         RTC_Clock_Write(1);
 3536              		.loc 1 631 0 discriminator 3
 3537 002c 0120     		movs	r0, #1
 3538 002e FFF7FEFF 		bl	RTC_Clock_Write
 632:..\src/SPI_functions.c ****         RTC_Clock_Write(0);
 3539              		.loc 1 632 0 discriminator 3
 3540 0032 0020     		movs	r0, #0
 3541 0034 FFF7FEFF 		bl	RTC_Clock_Write
 629:..\src/SPI_functions.c ****         RTC_OUT_Write(!!(val & (1 << i)));
 3542              		.loc 1 629 0 discriminator 3
 3543 0038 FB7B     		ldrb	r3, [r7, #15]	@ zero_extendqisi2
 3544 003a 0133     		adds	r3, r3, #1
 3545 003c FB73     		strb	r3, [r7, #15]
 3546              	.L109:
 629:..\src/SPI_functions.c ****         RTC_OUT_Write(!!(val & (1 << i)));
 3547              		.loc 1 629 0 is_stmt 0 discriminator 1
 3548 003e FB7B     		ldrb	r3, [r7, #15]	@ zero_extendqisi2
 3549 0040 072B     		cmp	r3, #7
 3550 0042 E5D9     		bls	.L110
 633:..\src/SPI_functions.c ****     }
 634:..\src/SPI_functions.c **** }
 3551              		.loc 1 634 0 is_stmt 1
 3552 0044 00BF     		nop
 3553 0046 1037     		adds	r7, r7, #16
ARM GAS  C:\Users\MattiaCP\AppData\Local\Temp\ccVW8gGQ.s 			page 75


 3554              		.cfi_def_cfa_offset 8
 3555 0048 BD46     		mov	sp, r7
 3556              		.cfi_def_cfa_register 13
 3557              		@ sp needed
 3558 004a 80BD     		pop	{r7, pc}
 3559              		.cfi_endproc
 3560              	.LFE84:
 3561              		.size	shiftOut_RTC, .-shiftOut_RTC
 3562              		.section	.text.encoder_read,"ax",%progbits
 3563              		.align	2
 3564              		.global	encoder_read
 3565              		.thumb
 3566              		.thumb_func
 3567              		.type	encoder_read, %function
 3568              	encoder_read:
 3569              	.LFB85:
 635:..\src/SPI_functions.c **** 
 636:..\src/SPI_functions.c **** void encoder_read(int32* currValue) {
 3570              		.loc 1 636 0
 3571              		.cfi_startproc
 3572              		@ args = 0, pretend = 0, frame = 32
 3573              		@ frame_needed = 1, uses_anonymous_args = 0
 3574 0000 80B5     		push	{r7, lr}
 3575              		.cfi_def_cfa_offset 8
 3576              		.cfi_offset 7, -8
 3577              		.cfi_offset 14, -4
 3578 0002 88B0     		sub	sp, sp, #32
 3579              		.cfi_def_cfa_offset 40
 3580 0004 00AF     		add	r7, sp, #0
 3581              		.cfi_def_cfa_register 7
 3582 0006 7860     		str	r0, [r7, #4]
 637:..\src/SPI_functions.c **** 
 638:..\src/SPI_functions.c ****     uint32 currBit = 0;
 3583              		.loc 1 638 0
 3584 0008 0023     		movs	r3, #0
 3585 000a BB61     		str	r3, [r7, #24]
 639:..\src/SPI_functions.c ****     uint32 data_encoder[N_ENCODERS];
 640:..\src/SPI_functions.c ****     uint8 i=0, j=0;
 3586              		.loc 1 640 0
 3587 000c 0023     		movs	r3, #0
 3588 000e FB77     		strb	r3, [r7, #31]
 3589 0010 0023     		movs	r3, #0
 3590 0012 BB77     		strb	r3, [r7, #30]
 641:..\src/SPI_functions.c ****     // Start of SSI comunication
 642:..\src/SPI_functions.c ****     ENC_CS_Write(1);
 3591              		.loc 1 642 0
 3592 0014 0120     		movs	r0, #1
 3593 0016 FFF7FEFF 		bl	ENC_CS_Write
 643:..\src/SPI_functions.c ****     ENC_SCLK_Write(1);
 3594              		.loc 1 643 0
 3595 001a 0120     		movs	r0, #1
 3596 001c FFF7FEFF 		bl	ENC_SCLK_Write
 644:..\src/SPI_functions.c ****     ENC_CS_Write(0);
 3597              		.loc 1 644 0
 3598 0020 0020     		movs	r0, #0
 3599 0022 FFF7FEFF 		bl	ENC_CS_Write
 645:..\src/SPI_functions.c ****     CyDelayUs(1);           // Wait t_CLK_FE = 500 ns
ARM GAS  C:\Users\MattiaCP\AppData\Local\Temp\ccVW8gGQ.s 			page 76


 3600              		.loc 1 645 0
 3601 0026 0120     		movs	r0, #1
 3602 0028 FFF7FEFF 		bl	CyDelayUs
 646:..\src/SPI_functions.c ****     ENC_SCLK_Write(0);
 3603              		.loc 1 646 0
 3604 002c 0020     		movs	r0, #0
 3605 002e FFF7FEFF 		bl	ENC_SCLK_Write
 647:..\src/SPI_functions.c ****     CyDelayUs(1);           // Wait T_CLK/2 = 500 ns
 3606              		.loc 1 647 0
 3607 0032 0120     		movs	r0, #1
 3608 0034 FFF7FEFF 		bl	CyDelayUs
 648:..\src/SPI_functions.c **** 
 649:..\src/SPI_functions.c ****     for (i=0; i<N_ENCODERS; i++) {
 3609              		.loc 1 649 0
 3610 0038 0023     		movs	r3, #0
 3611 003a FB77     		strb	r3, [r7, #31]
 3612 003c 47E0     		b	.L112
 3613              	.L116:
 650:..\src/SPI_functions.c ****         data_encoder[i] = 0;
 3614              		.loc 1 650 0
 3615 003e FB7F     		ldrb	r3, [r7, #31]	@ zero_extendqisi2
 3616 0040 9B00     		lsls	r3, r3, #2
 3617 0042 07F12002 		add	r2, r7, #32
 3618 0046 1344     		add	r3, r3, r2
 3619 0048 0022     		movs	r2, #0
 3620 004a 43F8142C 		str	r2, [r3, #-20]
 651:..\src/SPI_functions.c ****         for (j=0; j<N_BITS_ENCODER; j++) {
 3621              		.loc 1 651 0
 3622 004e 0023     		movs	r3, #0
 3623 0050 BB77     		strb	r3, [r7, #30]
 3624 0052 27E0     		b	.L113
 3625              	.L114:
 652:..\src/SPI_functions.c ****             // Read bit between high and low edge of clock
 653:..\src/SPI_functions.c ****             ENC_SCLK_Write(1);
 3626              		.loc 1 653 0 discriminator 3
 3627 0054 0120     		movs	r0, #1
 3628 0056 FFF7FEFF 		bl	ENC_SCLK_Write
 654:..\src/SPI_functions.c ****             CyDelayUs(1);
 3629              		.loc 1 654 0 discriminator 3
 3630 005a 0120     		movs	r0, #1
 3631 005c FFF7FEFF 		bl	CyDelayUs
 655:..\src/SPI_functions.c ****             currBit = (uint32)ENC_MISO_Read();
 3632              		.loc 1 655 0 discriminator 3
 3633 0060 FFF7FEFF 		bl	ENC_MISO_Read
 3634 0064 0346     		mov	r3, r0
 3635 0066 BB61     		str	r3, [r7, #24]
 656:..\src/SPI_functions.c ****             data_encoder[i] |= (currBit << (17-j));
 3636              		.loc 1 656 0 discriminator 3
 3637 0068 F97F     		ldrb	r1, [r7, #31]	@ zero_extendqisi2
 3638 006a FB7F     		ldrb	r3, [r7, #31]	@ zero_extendqisi2
 3639 006c 9B00     		lsls	r3, r3, #2
 3640 006e 07F12002 		add	r2, r7, #32
 3641 0072 1344     		add	r3, r3, r2
 3642 0074 53F8142C 		ldr	r2, [r3, #-20]
 3643 0078 BB7F     		ldrb	r3, [r7, #30]	@ zero_extendqisi2
 3644 007a C3F11103 		rsb	r3, r3, #17
 3645 007e B869     		ldr	r0, [r7, #24]
ARM GAS  C:\Users\MattiaCP\AppData\Local\Temp\ccVW8gGQ.s 			page 77


 3646 0080 00FA03F3 		lsl	r3, r0, r3
 3647 0084 1A43     		orrs	r2, r2, r3
 3648 0086 8B00     		lsls	r3, r1, #2
 3649 0088 07F12001 		add	r1, r7, #32
 3650 008c 0B44     		add	r3, r3, r1
 3651 008e 43F8142C 		str	r2, [r3, #-20]
 657:..\src/SPI_functions.c ****             ENC_SCLK_Write(0);
 3652              		.loc 1 657 0 discriminator 3
 3653 0092 0020     		movs	r0, #0
 3654 0094 FFF7FEFF 		bl	ENC_SCLK_Write
 658:..\src/SPI_functions.c ****             CyDelayUs(1);
 3655              		.loc 1 658 0 discriminator 3
 3656 0098 0120     		movs	r0, #1
 3657 009a FFF7FEFF 		bl	CyDelayUs
 651:..\src/SPI_functions.c ****             // Read bit between high and low edge of clock
 3658              		.loc 1 651 0 discriminator 3
 3659 009e BB7F     		ldrb	r3, [r7, #30]	@ zero_extendqisi2
 3660 00a0 0133     		adds	r3, r3, #1
 3661 00a2 BB77     		strb	r3, [r7, #30]
 3662              	.L113:
 651:..\src/SPI_functions.c ****             // Read bit between high and low edge of clock
 3663              		.loc 1 651 0 is_stmt 0 discriminator 1
 3664 00a4 BB7F     		ldrb	r3, [r7, #30]	@ zero_extendqisi2
 3665 00a6 112B     		cmp	r3, #17
 3666 00a8 D4D9     		bls	.L114
 659:..\src/SPI_functions.c ****         }
 660:..\src/SPI_functions.c ****         
 661:..\src/SPI_functions.c ****         if (i < N_ENCODERS-1) {
 3667              		.loc 1 661 0 is_stmt 1
 3668 00aa FB7F     		ldrb	r3, [r7, #31]	@ zero_extendqisi2
 3669 00ac 012B     		cmp	r3, #1
 3670 00ae 0BD8     		bhi	.L115
 662:..\src/SPI_functions.c ****             //Skip bit between two consecutive encoders
 663:..\src/SPI_functions.c ****             ENC_SCLK_Write(1);
 3671              		.loc 1 663 0
 3672 00b0 0120     		movs	r0, #1
 3673 00b2 FFF7FEFF 		bl	ENC_SCLK_Write
 664:..\src/SPI_functions.c ****             CyDelayUs(1);
 3674              		.loc 1 664 0
 3675 00b6 0120     		movs	r0, #1
 3676 00b8 FFF7FEFF 		bl	CyDelayUs
 665:..\src/SPI_functions.c ****             ENC_SCLK_Write(0);
 3677              		.loc 1 665 0
 3678 00bc 0020     		movs	r0, #0
 3679 00be FFF7FEFF 		bl	ENC_SCLK_Write
 666:..\src/SPI_functions.c ****             CyDelayUs(1);
 3680              		.loc 1 666 0
 3681 00c2 0120     		movs	r0, #1
 3682 00c4 FFF7FEFF 		bl	CyDelayUs
 3683              	.L115:
 649:..\src/SPI_functions.c ****         data_encoder[i] = 0;
 3684              		.loc 1 649 0 discriminator 2
 3685 00c8 FB7F     		ldrb	r3, [r7, #31]	@ zero_extendqisi2
 3686 00ca 0133     		adds	r3, r3, #1
 3687 00cc FB77     		strb	r3, [r7, #31]
 3688              	.L112:
 649:..\src/SPI_functions.c ****         data_encoder[i] = 0;
ARM GAS  C:\Users\MattiaCP\AppData\Local\Temp\ccVW8gGQ.s 			page 78


 3689              		.loc 1 649 0 is_stmt 0 discriminator 1
 3690 00ce FB7F     		ldrb	r3, [r7, #31]	@ zero_extendqisi2
 3691 00d0 022B     		cmp	r3, #2
 3692 00d2 B4D9     		bls	.L116
 667:..\src/SPI_functions.c ****         }
 668:..\src/SPI_functions.c ****     }
 669:..\src/SPI_functions.c **** 
 670:..\src/SPI_functions.c ****     ENC_SCLK_Write(1);
 3693              		.loc 1 670 0 is_stmt 1
 3694 00d4 0120     		movs	r0, #1
 3695 00d6 FFF7FEFF 		bl	ENC_SCLK_Write
 671:..\src/SPI_functions.c ****     CyDelayUs(1);
 3696              		.loc 1 671 0
 3697 00da 0120     		movs	r0, #1
 3698 00dc FFF7FEFF 		bl	CyDelayUs
 672:..\src/SPI_functions.c ****     ENC_CS_Write(1); 
 3699              		.loc 1 672 0
 3700 00e0 0120     		movs	r0, #1
 3701 00e2 FFF7FEFF 		bl	ENC_CS_Write
 673:..\src/SPI_functions.c ****          
 674:..\src/SPI_functions.c ****     for (i=0; i<N_ENCODERS; i++) {
 3702              		.loc 1 674 0
 3703 00e6 0023     		movs	r3, #0
 3704 00e8 FB77     		strb	r3, [r7, #31]
 3705 00ea 25E0     		b	.L117
 3706              	.L120:
 675:..\src/SPI_functions.c ****         if (check_enc_data(&data_encoder[i])) {
 3707              		.loc 1 675 0
 3708 00ec FB7F     		ldrb	r3, [r7, #31]	@ zero_extendqisi2
 3709 00ee 07F10C02 		add	r2, r7, #12
 3710 00f2 9B00     		lsls	r3, r3, #2
 3711 00f4 1344     		add	r3, r3, r2
 3712 00f6 1846     		mov	r0, r3
 3713 00f8 FFF7FEFF 		bl	check_enc_data
 3714 00fc 0346     		mov	r3, r0
 3715 00fe 002B     		cmp	r3, #0
 3716 0100 11D0     		beq	.L118
 676:..\src/SPI_functions.c ****             currValue[i] = ((data_encoder[i] & 0x3FFC0) - 0x20000) >> 2;
 3717              		.loc 1 676 0
 3718 0102 FB7F     		ldrb	r3, [r7, #31]	@ zero_extendqisi2
 3719 0104 9B00     		lsls	r3, r3, #2
 3720 0106 7A68     		ldr	r2, [r7, #4]
 3721 0108 1A44     		add	r2, r2, r3
 3722 010a FB7F     		ldrb	r3, [r7, #31]	@ zero_extendqisi2
 3723 010c 9B00     		lsls	r3, r3, #2
 3724 010e 07F12001 		add	r1, r7, #32
 3725 0112 0B44     		add	r3, r3, r1
 3726 0114 53F8141C 		ldr	r1, [r3, #-20]
 3727 0118 0B4B     		ldr	r3, .L121
 3728 011a 0B40     		ands	r3, r3, r1
 3729 011c A3F50033 		sub	r3, r3, #131072
 3730 0120 9B08     		lsrs	r3, r3, #2
 3731 0122 1360     		str	r3, [r2]
 3732 0124 05E0     		b	.L119
 3733              	.L118:
 677:..\src/SPI_functions.c ****                                                 // reset last 6 bit 
 678:..\src/SPI_functions.c ****                                                 // -> |:|:|id|dim|CMD|CHK|(data---
ARM GAS  C:\Users\MattiaCP\AppData\Local\Temp\ccVW8gGQ.s 			page 79


 679:..\src/SPI_functions.c ****                                                 // subtract half of max value
 680:..\src/SPI_functions.c ****                                                 // and shift to have 16 bit val
 681:..\src/SPI_functions.c ****         }
 682:..\src/SPI_functions.c ****         else {
 683:..\src/SPI_functions.c ****             currValue[i] = 0;
 3734              		.loc 1 683 0
 3735 0126 FB7F     		ldrb	r3, [r7, #31]	@ zero_extendqisi2
 3736 0128 9B00     		lsls	r3, r3, #2
 3737 012a 7A68     		ldr	r2, [r7, #4]
 3738 012c 1344     		add	r3, r3, r2
 3739 012e 0022     		movs	r2, #0
 3740 0130 1A60     		str	r2, [r3]
 3741              	.L119:
 674:..\src/SPI_functions.c ****         if (check_enc_data(&data_encoder[i])) {
 3742              		.loc 1 674 0 discriminator 2
 3743 0132 FB7F     		ldrb	r3, [r7, #31]	@ zero_extendqisi2
 3744 0134 0133     		adds	r3, r3, #1
 3745 0136 FB77     		strb	r3, [r7, #31]
 3746              	.L117:
 674:..\src/SPI_functions.c ****         if (check_enc_data(&data_encoder[i])) {
 3747              		.loc 1 674 0 is_stmt 0 discriminator 1
 3748 0138 FB7F     		ldrb	r3, [r7, #31]	@ zero_extendqisi2
 3749 013a 022B     		cmp	r3, #2
 3750 013c D6D9     		bls	.L120
 684:..\src/SPI_functions.c ****         }
 685:..\src/SPI_functions.c ****     }
 686:..\src/SPI_functions.c **** }
 3751              		.loc 1 686 0 is_stmt 1
 3752 013e 00BF     		nop
 3753 0140 2037     		adds	r7, r7, #32
 3754              		.cfi_def_cfa_offset 8
 3755 0142 BD46     		mov	sp, r7
 3756              		.cfi_def_cfa_register 13
 3757              		@ sp needed
 3758 0144 80BD     		pop	{r7, pc}
 3759              	.L122:
 3760 0146 00BF     		.align	2
 3761              	.L121:
 3762 0148 C0FF0300 		.word	262080
 3763              		.cfi_endproc
 3764              	.LFE85:
 3765              		.size	encoder_read, .-encoder_read
 3766              		.bss
 3767              	k_imu.9854:
 3768 0000 00       		.space	1
 3769              		.text
 3770              	.Letext0:
 3771              		.file 2 "c:\\program files (x86)\\cypress\\psoc creator\\4.2\\psoc creator\\import\\gnu\\arm\\5.4.
 3772              		.file 3 "c:\\program files (x86)\\cypress\\psoc creator\\4.2\\psoc creator\\import\\gnu\\arm\\5.4.
 3773              		.file 4 "Generated_Source\\PSoC5/cytypes.h"
 3774              		.file 5 "..\\src\\globals.h"
 3775              		.file 6 "Generated_Source\\PSoC5/core_cm3.h"
 3776              		.section	.debug_info,"",%progbits
 3777              	.Ldebug_info0:
 3778 0000 730B0000 		.4byte	0xb73
 3779 0004 0400     		.2byte	0x4
 3780 0006 00000000 		.4byte	.Ldebug_abbrev0
ARM GAS  C:\Users\MattiaCP\AppData\Local\Temp\ccVW8gGQ.s 			page 80


 3781 000a 04       		.byte	0x4
 3782 000b 01       		.uleb128 0x1
 3783 000c 63000000 		.4byte	.LASF136
 3784 0010 0C       		.byte	0xc
 3785 0011 4E060000 		.4byte	.LASF137
 3786 0015 CE020000 		.4byte	.LASF138
 3787 0019 00000000 		.4byte	.Ldebug_ranges0+0
 3788 001d 00000000 		.4byte	0
 3789 0021 00000000 		.4byte	.Ldebug_line0
 3790 0025 02       		.uleb128 0x2
 3791 0026 01       		.byte	0x1
 3792 0027 06       		.byte	0x6
 3793 0028 58010000 		.4byte	.LASF0
 3794 002c 02       		.uleb128 0x2
 3795 002d 01       		.byte	0x1
 3796 002e 08       		.byte	0x8
 3797 002f B4040000 		.4byte	.LASF1
 3798 0033 02       		.uleb128 0x2
 3799 0034 02       		.byte	0x2
 3800 0035 05       		.byte	0x5
 3801 0036 C9040000 		.4byte	.LASF2
 3802 003a 02       		.uleb128 0x2
 3803 003b 02       		.byte	0x2
 3804 003c 07       		.byte	0x7
 3805 003d 47030000 		.4byte	.LASF3
 3806 0041 03       		.uleb128 0x3
 3807 0042 C7030000 		.4byte	.LASF9
 3808 0046 02       		.byte	0x2
 3809 0047 3F       		.byte	0x3f
 3810 0048 4C000000 		.4byte	0x4c
 3811 004c 02       		.uleb128 0x2
 3812 004d 04       		.byte	0x4
 3813 004e 05       		.byte	0x5
 3814 004f 93010000 		.4byte	.LASF4
 3815 0053 02       		.uleb128 0x2
 3816 0054 04       		.byte	0x4
 3817 0055 07       		.byte	0x7
 3818 0056 9D020000 		.4byte	.LASF5
 3819 005a 02       		.uleb128 0x2
 3820 005b 08       		.byte	0x8
 3821 005c 05       		.byte	0x5
 3822 005d 4A010000 		.4byte	.LASF6
 3823 0061 02       		.uleb128 0x2
 3824 0062 08       		.byte	0x8
 3825 0063 07       		.byte	0x7
 3826 0064 FA000000 		.4byte	.LASF7
 3827 0068 04       		.uleb128 0x4
 3828 0069 04       		.byte	0x4
 3829 006a 05       		.byte	0x5
 3830 006b 696E7400 		.ascii	"int\000"
 3831 006f 02       		.uleb128 0x2
 3832 0070 04       		.byte	0x4
 3833 0071 07       		.byte	0x7
 3834 0072 7B020000 		.4byte	.LASF8
 3835 0076 03       		.uleb128 0x3
 3836 0077 AC040000 		.4byte	.LASF10
 3837 007b 03       		.byte	0x3
ARM GAS  C:\Users\MattiaCP\AppData\Local\Temp\ccVW8gGQ.s 			page 81


 3838 007c 2C       		.byte	0x2c
 3839 007d 41000000 		.4byte	0x41
 3840 0081 05       		.uleb128 0x5
 3841 0082 C8020000 		.4byte	.LASF11
 3842 0086 04       		.byte	0x4
 3843 0087 E401     		.2byte	0x1e4
 3844 0089 2C000000 		.4byte	0x2c
 3845 008d 05       		.uleb128 0x5
 3846 008e 11000000 		.4byte	.LASF12
 3847 0092 04       		.byte	0x4
 3848 0093 E501     		.2byte	0x1e5
 3849 0095 3A000000 		.4byte	0x3a
 3850 0099 05       		.uleb128 0x5
 3851 009a 1A020000 		.4byte	.LASF13
 3852 009e 04       		.byte	0x4
 3853 009f E601     		.2byte	0x1e6
 3854 00a1 53000000 		.4byte	0x53
 3855 00a5 05       		.uleb128 0x5
 3856 00a6 6B030000 		.4byte	.LASF14
 3857 00aa 04       		.byte	0x4
 3858 00ab E701     		.2byte	0x1e7
 3859 00ad 25000000 		.4byte	0x25
 3860 00b1 05       		.uleb128 0x5
 3861 00b2 18050000 		.4byte	.LASF15
 3862 00b6 04       		.byte	0x4
 3863 00b7 E801     		.2byte	0x1e8
 3864 00b9 33000000 		.4byte	0x33
 3865 00bd 05       		.uleb128 0x5
 3866 00be 8D010000 		.4byte	.LASF16
 3867 00c2 04       		.byte	0x4
 3868 00c3 E901     		.2byte	0x1e9
 3869 00c5 4C000000 		.4byte	0x4c
 3870 00c9 05       		.uleb128 0x5
 3871 00ca FB030000 		.4byte	.LASF17
 3872 00ce 04       		.byte	0x4
 3873 00cf EA01     		.2byte	0x1ea
 3874 00d1 D5000000 		.4byte	0xd5
 3875 00d5 02       		.uleb128 0x2
 3876 00d6 04       		.byte	0x4
 3877 00d7 04       		.byte	0x4
 3878 00d8 77050000 		.4byte	.LASF18
 3879 00dc 02       		.uleb128 0x2
 3880 00dd 08       		.byte	0x8
 3881 00de 04       		.byte	0x4
 3882 00df AF060000 		.4byte	.LASF19
 3883 00e3 02       		.uleb128 0x2
 3884 00e4 01       		.byte	0x1
 3885 00e5 08       		.byte	0x8
 3886 00e6 8A050000 		.4byte	.LASF20
 3887 00ea 02       		.uleb128 0x2
 3888 00eb 08       		.byte	0x8
 3889 00ec 04       		.byte	0x4
 3890 00ed 2F040000 		.4byte	.LASF21
 3891 00f1 02       		.uleb128 0x2
 3892 00f2 04       		.byte	0x4
 3893 00f3 07       		.byte	0x7
 3894 00f4 18040000 		.4byte	.LASF22
ARM GAS  C:\Users\MattiaCP\AppData\Local\Temp\ccVW8gGQ.s 			page 82


 3895 00f8 06       		.uleb128 0x6
 3896 00f9 BD000000 		.4byte	0xbd
 3897 00fd 08010000 		.4byte	0x108
 3898 0101 07       		.uleb128 0x7
 3899 0102 F1000000 		.4byte	0xf1
 3900 0106 02       		.byte	0x2
 3901 0107 00       		.byte	0
 3902 0108 08       		.uleb128 0x8
 3903 0109 0B020000 		.4byte	.LASF74
 3904 010d 3001     		.2byte	0x130
 3905 010f 05       		.byte	0x5
 3906 0110 BD       		.byte	0xbd
 3907 0111 C5030000 		.4byte	0x3c5
 3908 0115 09       		.uleb128 0x9
 3909 0116 E8040000 		.4byte	.LASF23
 3910 011a 05       		.byte	0x5
 3911 011b BE       		.byte	0xbe
 3912 011c 81000000 		.4byte	0x81
 3913 0120 00       		.byte	0
 3914 0121 0A       		.uleb128 0xa
 3915 0122 696400   		.ascii	"id\000"
 3916 0125 05       		.byte	0x5
 3917 0126 BF       		.byte	0xbf
 3918 0127 81000000 		.4byte	0x81
 3919 012b 01       		.byte	0x1
 3920 012c 0A       		.uleb128 0xa
 3921 012d 6B5F7000 		.ascii	"k_p\000"
 3922 0131 05       		.byte	0x5
 3923 0132 C1       		.byte	0xc1
 3924 0133 BD000000 		.4byte	0xbd
 3925 0137 04       		.byte	0x4
 3926 0138 0A       		.uleb128 0xa
 3927 0139 6B5F6900 		.ascii	"k_i\000"
 3928 013d 05       		.byte	0x5
 3929 013e C2       		.byte	0xc2
 3930 013f BD000000 		.4byte	0xbd
 3931 0143 08       		.byte	0x8
 3932 0144 0A       		.uleb128 0xa
 3933 0145 6B5F6400 		.ascii	"k_d\000"
 3934 0149 05       		.byte	0x5
 3935 014a C3       		.byte	0xc3
 3936 014b BD000000 		.4byte	0xbd
 3937 014f 0C       		.byte	0xc
 3938 0150 09       		.uleb128 0x9
 3939 0151 ED040000 		.4byte	.LASF24
 3940 0155 05       		.byte	0x5
 3941 0156 C5       		.byte	0xc5
 3942 0157 BD000000 		.4byte	0xbd
 3943 015b 10       		.byte	0x10
 3944 015c 09       		.uleb128 0x9
 3945 015d A9060000 		.4byte	.LASF25
 3946 0161 05       		.byte	0x5
 3947 0162 C6       		.byte	0xc6
 3948 0163 BD000000 		.4byte	0xbd
 3949 0167 14       		.byte	0x14
 3950 0168 09       		.uleb128 0x9
 3951 0169 D1030000 		.4byte	.LASF26
ARM GAS  C:\Users\MattiaCP\AppData\Local\Temp\ccVW8gGQ.s 			page 83


 3952 016d 05       		.byte	0x5
 3953 016e C7       		.byte	0xc7
 3954 016f BD000000 		.4byte	0xbd
 3955 0173 18       		.byte	0x18
 3956 0174 09       		.uleb128 0x9
 3957 0175 C1060000 		.4byte	.LASF27
 3958 0179 05       		.byte	0x5
 3959 017a C8       		.byte	0xc8
 3960 017b BD000000 		.4byte	0xbd
 3961 017f 1C       		.byte	0x1c
 3962 0180 09       		.uleb128 0x9
 3963 0181 8E020000 		.4byte	.LASF28
 3964 0185 05       		.byte	0x5
 3965 0186 CA       		.byte	0xca
 3966 0187 BD000000 		.4byte	0xbd
 3967 018b 20       		.byte	0x20
 3968 018c 09       		.uleb128 0x9
 3969 018d AF050000 		.4byte	.LASF29
 3970 0191 05       		.byte	0x5
 3971 0192 CB       		.byte	0xcb
 3972 0193 BD000000 		.4byte	0xbd
 3973 0197 24       		.byte	0x24
 3974 0198 09       		.uleb128 0x9
 3975 0199 30020000 		.4byte	.LASF30
 3976 019d 05       		.byte	0x5
 3977 019e CC       		.byte	0xcc
 3978 019f BD000000 		.4byte	0xbd
 3979 01a3 28       		.byte	0x28
 3980 01a4 09       		.uleb128 0x9
 3981 01a5 CA050000 		.4byte	.LASF31
 3982 01a9 05       		.byte	0x5
 3983 01aa CD       		.byte	0xcd
 3984 01ab BD000000 		.4byte	0xbd
 3985 01af 2C       		.byte	0x2c
 3986 01b0 09       		.uleb128 0x9
 3987 01b1 34060000 		.4byte	.LASF32
 3988 01b5 05       		.byte	0x5
 3989 01b6 CF       		.byte	0xcf
 3990 01b7 BD000000 		.4byte	0xbd
 3991 01bb 30       		.byte	0x30
 3992 01bc 09       		.uleb128 0x9
 3993 01bd 93040000 		.4byte	.LASF33
 3994 01c1 05       		.byte	0x5
 3995 01c2 D0       		.byte	0xd0
 3996 01c3 81000000 		.4byte	0x81
 3997 01c7 34       		.byte	0x34
 3998 01c8 09       		.uleb128 0x9
 3999 01c9 51020000 		.4byte	.LASF34
 4000 01cd 05       		.byte	0x5
 4001 01ce D1       		.byte	0xd1
 4002 01cf 81000000 		.4byte	0x81
 4003 01d3 35       		.byte	0x35
 4004 01d4 09       		.uleb128 0x9
 4005 01d5 D9010000 		.4byte	.LASF35
 4006 01d9 05       		.byte	0x5
 4007 01da D2       		.byte	0xd2
 4008 01db 81000000 		.4byte	0x81
ARM GAS  C:\Users\MattiaCP\AppData\Local\Temp\ccVW8gGQ.s 			page 84


 4009 01df 36       		.byte	0x36
 4010 01e0 0A       		.uleb128 0xa
 4011 01e1 72657300 		.ascii	"res\000"
 4012 01e5 05       		.byte	0x5
 4013 01e6 D3       		.byte	0xd3
 4014 01e7 C5030000 		.4byte	0x3c5
 4015 01eb 37       		.byte	0x37
 4016 01ec 09       		.uleb128 0x9
 4017 01ed 49000000 		.4byte	.LASF36
 4018 01f1 05       		.byte	0x5
 4019 01f2 D5       		.byte	0xd5
 4020 01f3 F8000000 		.4byte	0xf8
 4021 01f7 3C       		.byte	0x3c
 4022 01f8 09       		.uleb128 0x9
 4023 01f9 C2040000 		.4byte	.LASF37
 4024 01fd 05       		.byte	0x5
 4025 01fe D7       		.byte	0xd7
 4026 01ff D5030000 		.4byte	0x3d5
 4027 0203 48       		.byte	0x48
 4028 0204 09       		.uleb128 0x9
 4029 0205 1E050000 		.4byte	.LASF38
 4030 0209 05       		.byte	0x5
 4031 020a D9       		.byte	0xd9
 4032 020b 81000000 		.4byte	0x81
 4033 020f 54       		.byte	0x54
 4034 0210 09       		.uleb128 0x9
 4035 0211 7D030000 		.4byte	.LASF39
 4036 0215 05       		.byte	0x5
 4037 0216 DB       		.byte	0xdb
 4038 0217 BD000000 		.4byte	0xbd
 4039 021b 58       		.byte	0x58
 4040 021c 09       		.uleb128 0x9
 4041 021d 56040000 		.4byte	.LASF40
 4042 0221 05       		.byte	0x5
 4043 0222 DC       		.byte	0xdc
 4044 0223 BD000000 		.4byte	0xbd
 4045 0227 5C       		.byte	0x5c
 4046 0228 09       		.uleb128 0x9
 4047 0229 64010000 		.4byte	.LASF41
 4048 022d 05       		.byte	0x5
 4049 022e DE       		.byte	0xde
 4050 022f BD000000 		.4byte	0xbd
 4051 0233 60       		.byte	0x60
 4052 0234 09       		.uleb128 0x9
 4053 0235 2B050000 		.4byte	.LASF42
 4054 0239 05       		.byte	0x5
 4055 023a DF       		.byte	0xdf
 4056 023b BD000000 		.4byte	0xbd
 4057 023f 64       		.byte	0x64
 4058 0240 09       		.uleb128 0x9
 4059 0241 F3040000 		.4byte	.LASF43
 4060 0245 05       		.byte	0x5
 4061 0246 E0       		.byte	0xe0
 4062 0247 B1000000 		.4byte	0xb1
 4063 024b 68       		.byte	0x68
 4064 024c 09       		.uleb128 0x9
 4065 024d 3C010000 		.4byte	.LASF44
ARM GAS  C:\Users\MattiaCP\AppData\Local\Temp\ccVW8gGQ.s 			page 85


 4066 0251 05       		.byte	0x5
 4067 0252 E1       		.byte	0xe1
 4068 0253 E5030000 		.4byte	0x3e5
 4069 0257 6A       		.byte	0x6a
 4070 0258 09       		.uleb128 0x9
 4071 0259 E5050000 		.4byte	.LASF45
 4072 025d 05       		.byte	0x5
 4073 025e E2       		.byte	0xe2
 4074 025f 81000000 		.4byte	0x81
 4075 0263 6E       		.byte	0x6e
 4076 0264 09       		.uleb128 0x9
 4077 0265 19060000 		.4byte	.LASF46
 4078 0269 05       		.byte	0x5
 4079 026a E5       		.byte	0xe5
 4080 026b F5030000 		.4byte	0x3f5
 4081 026f 70       		.byte	0x70
 4082 0270 09       		.uleb128 0x9
 4083 0271 0F060000 		.4byte	.LASF47
 4084 0275 05       		.byte	0x5
 4085 0276 E6       		.byte	0xe6
 4086 0277 81000000 		.4byte	0x81
 4087 027b 78       		.byte	0x78
 4088 027c 09       		.uleb128 0x9
 4089 027d 93060000 		.4byte	.LASF48
 4090 0281 05       		.byte	0x5
 4091 0282 E7       		.byte	0xe7
 4092 0283 81000000 		.4byte	0x81
 4093 0287 79       		.byte	0x79
 4094 0288 09       		.uleb128 0x9
 4095 0289 62020000 		.4byte	.LASF49
 4096 028d 05       		.byte	0x5
 4097 028e E8       		.byte	0xe8
 4098 028f A5000000 		.4byte	0xa5
 4099 0293 7A       		.byte	0x7a
 4100 0294 09       		.uleb128 0x9
 4101 0295 F4010000 		.4byte	.LASF50
 4102 0299 05       		.byte	0x5
 4103 029a E9       		.byte	0xe9
 4104 029b 81000000 		.4byte	0x81
 4105 029f 7B       		.byte	0x7b
 4106 02a0 09       		.uleb128 0x9
 4107 02a1 FA050000 		.4byte	.LASF51
 4108 02a5 05       		.byte	0x5
 4109 02a6 EA       		.byte	0xea
 4110 02a7 05040000 		.4byte	0x405
 4111 02ab 7C       		.byte	0x7c
 4112 02ac 09       		.uleb128 0x9
 4113 02ad 11010000 		.4byte	.LASF52
 4114 02b1 05       		.byte	0x5
 4115 02b2 ED       		.byte	0xed
 4116 02b3 81000000 		.4byte	0x81
 4117 02b7 94       		.byte	0x94
 4118 02b8 09       		.uleb128 0x9
 4119 02b9 D3040000 		.4byte	.LASF53
 4120 02bd 05       		.byte	0x5
 4121 02be EE       		.byte	0xee
 4122 02bf 81000000 		.4byte	0x81
ARM GAS  C:\Users\MattiaCP\AppData\Local\Temp\ccVW8gGQ.s 			page 86


 4123 02c3 95       		.byte	0x95
 4124 02c4 09       		.uleb128 0x9
 4125 02c5 1E000000 		.4byte	.LASF54
 4126 02c9 05       		.byte	0x5
 4127 02ca EF       		.byte	0xef
 4128 02cb 81000000 		.4byte	0x81
 4129 02cf 96       		.byte	0x96
 4130 02d0 09       		.uleb128 0x9
 4131 02d1 01050000 		.4byte	.LASF55
 4132 02d5 05       		.byte	0x5
 4133 02d6 F0       		.byte	0xf0
 4134 02d7 81000000 		.4byte	0x81
 4135 02db 97       		.byte	0x97
 4136 02dc 09       		.uleb128 0x9
 4137 02dd 4D040000 		.4byte	.LASF56
 4138 02e1 05       		.byte	0x5
 4139 02e2 F1       		.byte	0xf1
 4140 02e3 BD000000 		.4byte	0xbd
 4141 02e7 98       		.byte	0x98
 4142 02e8 09       		.uleb128 0x9
 4143 02e9 1B010000 		.4byte	.LASF57
 4144 02ed 05       		.byte	0x5
 4145 02ee F2       		.byte	0xf2
 4146 02ef D5000000 		.4byte	0xd5
 4147 02f3 9C       		.byte	0x9c
 4148 02f4 09       		.uleb128 0x9
 4149 02f5 33010000 		.4byte	.LASF58
 4150 02f9 05       		.byte	0x5
 4151 02fa F4       		.byte	0xf4
 4152 02fb D5000000 		.4byte	0xd5
 4153 02ff A0       		.byte	0xa0
 4154 0300 09       		.uleb128 0x9
 4155 0301 75060000 		.4byte	.LASF59
 4156 0305 05       		.byte	0x5
 4157 0306 F5       		.byte	0xf5
 4158 0307 D5000000 		.4byte	0xd5
 4159 030b A4       		.byte	0xa4
 4160 030c 09       		.uleb128 0x9
 4161 030d 8F050000 		.4byte	.LASF60
 4162 0311 05       		.byte	0x5
 4163 0312 F6       		.byte	0xf6
 4164 0313 81000000 		.4byte	0x81
 4165 0317 A8       		.byte	0xa8
 4166 0318 09       		.uleb128 0x9
 4167 0319 39020000 		.4byte	.LASF61
 4168 031d 05       		.byte	0x5
 4169 031e F7       		.byte	0xf7
 4170 031f 81000000 		.4byte	0x81
 4171 0323 A9       		.byte	0xa9
 4172 0324 09       		.uleb128 0x9
 4173 0325 89030000 		.4byte	.LASF62
 4174 0329 05       		.byte	0x5
 4175 032a F8       		.byte	0xf8
 4176 032b 15040000 		.4byte	0x415
 4177 032f AA       		.byte	0xaa
 4178 0330 09       		.uleb128 0x9
 4179 0331 0C050000 		.4byte	.LASF63
ARM GAS  C:\Users\MattiaCP\AppData\Local\Temp\ccVW8gGQ.s 			page 87


 4180 0335 05       		.byte	0x5
 4181 0336 FA       		.byte	0xfa
 4182 0337 F5030000 		.4byte	0x3f5
 4183 033b C0       		.byte	0xc0
 4184 033c 09       		.uleb128 0x9
 4185 033d B9030000 		.4byte	.LASF64
 4186 0341 05       		.byte	0x5
 4187 0342 FC       		.byte	0xfc
 4188 0343 25040000 		.4byte	0x425
 4189 0347 C8       		.byte	0xc8
 4190 0348 09       		.uleb128 0x9
 4191 0349 6F040000 		.4byte	.LASF65
 4192 034d 05       		.byte	0x5
 4193 034e FE       		.byte	0xfe
 4194 034f 35040000 		.4byte	0x435
 4195 0353 F0       		.byte	0xf0
 4196 0354 0B       		.uleb128 0xb
 4197 0355 57050000 		.4byte	.LASF66
 4198 0359 05       		.byte	0x5
 4199 035a 0001     		.2byte	0x100
 4200 035c 99000000 		.4byte	0x99
 4201 0360 0001     		.2byte	0x100
 4202 0362 0B       		.uleb128 0xb
 4203 0363 C3010000 		.4byte	.LASF67
 4204 0367 05       		.byte	0x5
 4205 0368 0101     		.2byte	0x101
 4206 036a 99000000 		.4byte	0x99
 4207 036e 0401     		.2byte	0x104
 4208 0370 0B       		.uleb128 0xb
 4209 0371 3B000000 		.4byte	.LASF68
 4210 0375 05       		.byte	0x5
 4211 0376 0201     		.2byte	0x102
 4212 0378 99000000 		.4byte	0x99
 4213 037c 0801     		.2byte	0x108
 4214 037e 0B       		.uleb128 0xb
 4215 037f 38050000 		.4byte	.LASF69
 4216 0383 05       		.byte	0x5
 4217 0384 0301     		.2byte	0x103
 4218 0386 99000000 		.4byte	0x99
 4219 038a 0C01     		.2byte	0x10c
 4220 038c 0B       		.uleb128 0xb
 4221 038d 7C040000 		.4byte	.LASF70
 4222 0391 05       		.byte	0x5
 4223 0392 0501     		.2byte	0x105
 4224 0394 45040000 		.4byte	0x445
 4225 0398 1001     		.2byte	0x110
 4226 039a 0B       		.uleb128 0xb
 4227 039b E6010000 		.4byte	.LASF71
 4228 039f 05       		.byte	0x5
 4229 03a0 0601     		.2byte	0x106
 4230 03a2 55040000 		.4byte	0x455
 4231 03a6 1601     		.2byte	0x116
 4232 03a8 0B       		.uleb128 0xb
 4233 03a9 48050000 		.4byte	.LASF72
 4234 03ad 05       		.byte	0x5
 4235 03ae 0901     		.2byte	0x109
 4236 03b0 81000000 		.4byte	0x81
ARM GAS  C:\Users\MattiaCP\AppData\Local\Temp\ccVW8gGQ.s 			page 88


 4237 03b4 2001     		.2byte	0x120
 4238 03b6 0B       		.uleb128 0xb
 4239 03b7 E8030000 		.4byte	.LASF73
 4240 03bb 05       		.byte	0x5
 4241 03bc 0A01     		.2byte	0x10a
 4242 03be 65040000 		.4byte	0x465
 4243 03c2 2101     		.2byte	0x121
 4244 03c4 00       		.byte	0
 4245 03c5 06       		.uleb128 0x6
 4246 03c6 81000000 		.4byte	0x81
 4247 03ca D5030000 		.4byte	0x3d5
 4248 03ce 07       		.uleb128 0x7
 4249 03cf F1000000 		.4byte	0xf1
 4250 03d3 02       		.byte	0x2
 4251 03d4 00       		.byte	0
 4252 03d5 06       		.uleb128 0x6
 4253 03d6 C9000000 		.4byte	0xc9
 4254 03da E5030000 		.4byte	0x3e5
 4255 03de 07       		.uleb128 0x7
 4256 03df F1000000 		.4byte	0xf1
 4257 03e3 02       		.byte	0x2
 4258 03e4 00       		.byte	0
 4259 03e5 06       		.uleb128 0x6
 4260 03e6 8D000000 		.4byte	0x8d
 4261 03ea F5030000 		.4byte	0x3f5
 4262 03ee 07       		.uleb128 0x7
 4263 03ef F1000000 		.4byte	0xf1
 4264 03f3 01       		.byte	0x1
 4265 03f4 00       		.byte	0
 4266 03f5 06       		.uleb128 0x6
 4267 03f6 99000000 		.4byte	0x99
 4268 03fa 05040000 		.4byte	0x405
 4269 03fe 07       		.uleb128 0x7
 4270 03ff F1000000 		.4byte	0xf1
 4271 0403 01       		.byte	0x1
 4272 0404 00       		.byte	0
 4273 0405 06       		.uleb128 0x6
 4274 0406 D5000000 		.4byte	0xd5
 4275 040a 15040000 		.4byte	0x415
 4276 040e 07       		.uleb128 0x7
 4277 040f F1000000 		.4byte	0xf1
 4278 0413 05       		.byte	0x5
 4279 0414 00       		.byte	0
 4280 0415 06       		.uleb128 0x6
 4281 0416 81000000 		.4byte	0x81
 4282 041a 25040000 		.4byte	0x425
 4283 041e 07       		.uleb128 0x7
 4284 041f F1000000 		.4byte	0xf1
 4285 0423 15       		.byte	0x15
 4286 0424 00       		.byte	0
 4287 0425 06       		.uleb128 0x6
 4288 0426 99000000 		.4byte	0x99
 4289 042a 35040000 		.4byte	0x435
 4290 042e 07       		.uleb128 0x7
 4291 042f F1000000 		.4byte	0xf1
 4292 0433 09       		.byte	0x9
 4293 0434 00       		.byte	0
ARM GAS  C:\Users\MattiaCP\AppData\Local\Temp\ccVW8gGQ.s 			page 89


 4294 0435 06       		.uleb128 0x6
 4295 0436 99000000 		.4byte	0x99
 4296 043a 45040000 		.4byte	0x445
 4297 043e 07       		.uleb128 0x7
 4298 043f F1000000 		.4byte	0xf1
 4299 0443 03       		.byte	0x3
 4300 0444 00       		.byte	0
 4301 0445 06       		.uleb128 0x6
 4302 0446 81000000 		.4byte	0x81
 4303 044a 55040000 		.4byte	0x455
 4304 044e 07       		.uleb128 0x7
 4305 044f F1000000 		.4byte	0xf1
 4306 0453 05       		.byte	0x5
 4307 0454 00       		.byte	0
 4308 0455 06       		.uleb128 0x6
 4309 0456 81000000 		.4byte	0x81
 4310 045a 65040000 		.4byte	0x465
 4311 045e 07       		.uleb128 0x7
 4312 045f F1000000 		.4byte	0xf1
 4313 0463 09       		.byte	0x9
 4314 0464 00       		.byte	0
 4315 0465 06       		.uleb128 0x6
 4316 0466 81000000 		.4byte	0x81
 4317 046a 7B040000 		.4byte	0x47b
 4318 046e 07       		.uleb128 0x7
 4319 046f F1000000 		.4byte	0xf1
 4320 0473 02       		.byte	0x2
 4321 0474 07       		.uleb128 0x7
 4322 0475 F1000000 		.4byte	0xf1
 4323 0479 04       		.byte	0x4
 4324 047a 00       		.byte	0
 4325 047b 0C       		.uleb128 0xc
 4326 047c 34000000 		.4byte	.LASF75
 4327 0480 28       		.byte	0x28
 4328 0481 05       		.byte	0x5
 4329 0482 0E01     		.2byte	0x10e
 4330 0484 D7040000 		.4byte	0x4d7
 4331 0488 0D       		.uleb128 0xd
 4332 0489 3D060000 		.4byte	.LASF76
 4333 048d 05       		.byte	0x5
 4334 048e 0F01     		.2byte	0x10f
 4335 0490 81000000 		.4byte	0x81
 4336 0494 00       		.byte	0
 4337 0495 0D       		.uleb128 0xd
 4338 0496 CD010000 		.4byte	.LASF77
 4339 049a 05       		.byte	0x5
 4340 049b 1001     		.2byte	0x110
 4341 049d D7040000 		.4byte	0x4d7
 4342 04a1 02       		.byte	0x2
 4343 04a2 0D       		.uleb128 0xd
 4344 04a3 A4030000 		.4byte	.LASF78
 4345 04a7 05       		.byte	0x5
 4346 04a8 1101     		.2byte	0x111
 4347 04aa D7040000 		.4byte	0x4d7
 4348 04ae 08       		.byte	0x8
 4349 04af 0D       		.uleb128 0xd
 4350 04b0 F1030000 		.4byte	.LASF79
ARM GAS  C:\Users\MattiaCP\AppData\Local\Temp\ccVW8gGQ.s 			page 90


 4351 04b4 05       		.byte	0x5
 4352 04b5 1201     		.2byte	0x112
 4353 04b7 D7040000 		.4byte	0x4d7
 4354 04bb 0E       		.byte	0xe
 4355 04bc 0D       		.uleb128 0xd
 4356 04bd DD040000 		.4byte	.LASF80
 4357 04c1 05       		.byte	0x5
 4358 04c2 1301     		.2byte	0x113
 4359 04c4 E7040000 		.4byte	0x4e7
 4360 04c8 14       		.byte	0x14
 4361 04c9 0D       		.uleb128 0xd
 4362 04ca 43060000 		.4byte	.LASF81
 4363 04ce 05       		.byte	0x5
 4364 04cf 1401     		.2byte	0x114
 4365 04d1 B1000000 		.4byte	0xb1
 4366 04d5 24       		.byte	0x24
 4367 04d6 00       		.byte	0
 4368 04d7 06       		.uleb128 0x6
 4369 04d8 B1000000 		.4byte	0xb1
 4370 04dc E7040000 		.4byte	0x4e7
 4371 04e0 07       		.uleb128 0x7
 4372 04e1 F1000000 		.4byte	0xf1
 4373 04e5 02       		.byte	0x2
 4374 04e6 00       		.byte	0
 4375 04e7 06       		.uleb128 0x6
 4376 04e8 D5000000 		.4byte	0xd5
 4377 04ec F7040000 		.4byte	0x4f7
 4378 04f0 07       		.uleb128 0x7
 4379 04f1 F1000000 		.4byte	0xf1
 4380 04f5 03       		.byte	0x3
 4381 04f6 00       		.byte	0
 4382 04f7 0E       		.uleb128 0xe
 4383 04f8 AF030000 		.4byte	.LASF82
 4384 04fc 01       		.byte	0x1
 4385 04fd 39       		.byte	0x39
 4386 04fe 00000000 		.4byte	.LFB64
 4387 0502 18000000 		.4byte	.LFE64-.LFB64
 4388 0506 01       		.uleb128 0x1
 4389 0507 9C       		.byte	0x9c
 4390 0508 0E       		.uleb128 0xe
 4391 0509 95020000 		.4byte	.LASF83
 4392 050d 01       		.byte	0x1
 4393 050e 45       		.byte	0x45
 4394 050f 00000000 		.4byte	.LFB65
 4395 0513 DA000000 		.4byte	.LFE65-.LFB65
 4396 0517 01       		.uleb128 0x1
 4397 0518 9C       		.byte	0x9c
 4398 0519 0E       		.uleb128 0xe
 4399 051a 21040000 		.4byte	.LASF84
 4400 051e 01       		.byte	0x1
 4401 051f 70       		.byte	0x70
 4402 0520 00000000 		.4byte	.LFB66
 4403 0524 DA000000 		.4byte	.LFE66-.LFB66
 4404 0528 01       		.uleb128 0x1
 4405 0529 9C       		.byte	0x9c
 4406 052a 0F       		.uleb128 0xf
 4407 052b A2050000 		.4byte	.LASF88
ARM GAS  C:\Users\MattiaCP\AppData\Local\Temp\ccVW8gGQ.s 			page 91


 4408 052f 01       		.byte	0x1
 4409 0530 98       		.byte	0x98
 4410 0531 00000000 		.4byte	.LFB67
 4411 0535 20000000 		.4byte	.LFE67-.LFB67
 4412 0539 01       		.uleb128 0x1
 4413 053a 9C       		.byte	0x9c
 4414 053b 4C050000 		.4byte	0x54c
 4415 053f 10       		.uleb128 0x10
 4416 0540 6E00     		.ascii	"n\000"
 4417 0542 01       		.byte	0x1
 4418 0543 98       		.byte	0x98
 4419 0544 68000000 		.4byte	0x68
 4420 0548 02       		.uleb128 0x2
 4421 0549 91       		.byte	0x91
 4422 054a 74       		.sleb128 -12
 4423 054b 00       		.byte	0
 4424 054c 11       		.uleb128 0x11
 4425 054d B6050000 		.4byte	.LASF100
 4426 0551 01       		.byte	0x1
 4427 0552 A2       		.byte	0xa2
 4428 0553 00000000 		.4byte	.LFB68
 4429 0557 7C020000 		.4byte	.LFE68-.LFB68
 4430 055b 01       		.uleb128 0x1
 4431 055c 9C       		.byte	0x9c
 4432 055d 9A050000 		.4byte	0x59a
 4433 0561 12       		.uleb128 0x12
 4434 0562 D3050000 		.4byte	.LASF85
 4435 0566 01       		.byte	0x1
 4436 0567 A4       		.byte	0xa4
 4437 0568 81000000 		.4byte	0x81
 4438 056c 02       		.uleb128 0x2
 4439 056d 91       		.byte	0x91
 4440 056e 6F       		.sleb128 -17
 4441 056f 12       		.uleb128 0x12
 4442 0570 0B000000 		.4byte	.LASF86
 4443 0574 01       		.byte	0x1
 4444 0575 A5       		.byte	0xa5
 4445 0576 81000000 		.4byte	0x81
 4446 057a 02       		.uleb128 0x2
 4447 057b 91       		.byte	0x91
 4448 057c 6E       		.sleb128 -18
 4449 057d 12       		.uleb128 0x12
 4450 057e AC010000 		.4byte	.LASF87
 4451 0582 01       		.byte	0x1
 4452 0583 A6       		.byte	0xa6
 4453 0584 68000000 		.4byte	0x68
 4454 0588 02       		.uleb128 0x2
 4455 0589 91       		.byte	0x91
 4456 058a 68       		.sleb128 -24
 4457 058b 13       		.uleb128 0x13
 4458 058c 746D7000 		.ascii	"tmp\000"
 4459 0590 01       		.byte	0x1
 4460 0591 A7       		.byte	0xa7
 4461 0592 9A050000 		.4byte	0x59a
 4462 0596 02       		.uleb128 0x2
 4463 0597 91       		.byte	0x91
 4464 0598 5C       		.sleb128 -36
ARM GAS  C:\Users\MattiaCP\AppData\Local\Temp\ccVW8gGQ.s 			page 92


 4465 0599 00       		.byte	0
 4466 059a 06       		.uleb128 0x6
 4467 059b 68000000 		.4byte	0x68
 4468 059f AA050000 		.4byte	0x5aa
 4469 05a3 07       		.uleb128 0x7
 4470 05a4 F1000000 		.4byte	0xf1
 4471 05a8 02       		.byte	0x2
 4472 05a9 00       		.byte	0
 4473 05aa 0F       		.uleb128 0xf
 4474 05ab 67040000 		.4byte	.LASF89
 4475 05af 01       		.byte	0x1
 4476 05b0 F5       		.byte	0xf5
 4477 05b1 00000000 		.4byte	.LFB69
 4478 05b5 A0000000 		.4byte	.LFE69-.LFB69
 4479 05b9 01       		.uleb128 0x1
 4480 05ba 9C       		.byte	0x9c
 4481 05bb CC050000 		.4byte	0x5cc
 4482 05bf 10       		.uleb128 0x10
 4483 05c0 6E00     		.ascii	"n\000"
 4484 05c2 01       		.byte	0x1
 4485 05c3 F5       		.byte	0xf5
 4486 05c4 68000000 		.4byte	0x68
 4487 05c8 02       		.uleb128 0x2
 4488 05c9 91       		.byte	0x91
 4489 05ca 74       		.sleb128 -12
 4490 05cb 00       		.byte	0
 4491 05cc 14       		.uleb128 0x14
 4492 05cd 85060000 		.4byte	.LASF90
 4493 05d1 01       		.byte	0x1
 4494 05d2 0101     		.2byte	0x101
 4495 05d4 00000000 		.4byte	.LFB70
 4496 05d8 04010000 		.4byte	.LFE70-.LFB70
 4497 05dc 01       		.uleb128 0x1
 4498 05dd 9C       		.byte	0x9c
 4499 05de 1D060000 		.4byte	0x61d
 4500 05e2 15       		.uleb128 0x15
 4501 05e3 6E00     		.ascii	"n\000"
 4502 05e5 01       		.byte	0x1
 4503 05e6 0101     		.2byte	0x101
 4504 05e8 68000000 		.4byte	0x68
 4505 05ec 02       		.uleb128 0x2
 4506 05ed 91       		.byte	0x91
 4507 05ee 6C       		.sleb128 -20
 4508 05ef 16       		.uleb128 0x16
 4509 05f0 6C6F7700 		.ascii	"low\000"
 4510 05f4 01       		.byte	0x1
 4511 05f5 0301     		.2byte	0x103
 4512 05f7 81000000 		.4byte	0x81
 4513 05fb 02       		.uleb128 0x2
 4514 05fc 91       		.byte	0x91
 4515 05fd 77       		.sleb128 -9
 4516 05fe 17       		.uleb128 0x17
 4517 05ff C5050000 		.4byte	.LASF91
 4518 0603 01       		.byte	0x1
 4519 0604 0301     		.2byte	0x103
 4520 0606 81000000 		.4byte	0x81
 4521 060a 02       		.uleb128 0x2
ARM GAS  C:\Users\MattiaCP\AppData\Local\Temp\ccVW8gGQ.s 			page 93


 4522 060b 91       		.byte	0x91
 4523 060c 76       		.sleb128 -10
 4524 060d 16       		.uleb128 0x16
 4525 060e 726F7700 		.ascii	"row\000"
 4526 0612 01       		.byte	0x1
 4527 0613 0501     		.2byte	0x105
 4528 0615 68000000 		.4byte	0x68
 4529 0619 02       		.uleb128 0x2
 4530 061a 91       		.byte	0x91
 4531 061b 70       		.sleb128 -16
 4532 061c 00       		.byte	0
 4533 061d 14       		.uleb128 0x14
 4534 061e AF020000 		.4byte	.LASF92
 4535 0622 01       		.byte	0x1
 4536 0623 2901     		.2byte	0x129
 4537 0625 00000000 		.4byte	.LFB71
 4538 0629 04010000 		.4byte	.LFE71-.LFB71
 4539 062d 01       		.uleb128 0x1
 4540 062e 9C       		.byte	0x9c
 4541 062f 6E060000 		.4byte	0x66e
 4542 0633 15       		.uleb128 0x15
 4543 0634 6E00     		.ascii	"n\000"
 4544 0636 01       		.byte	0x1
 4545 0637 2901     		.2byte	0x129
 4546 0639 68000000 		.4byte	0x68
 4547 063d 02       		.uleb128 0x2
 4548 063e 91       		.byte	0x91
 4549 063f 6C       		.sleb128 -20
 4550 0640 16       		.uleb128 0x16
 4551 0641 6C6F7700 		.ascii	"low\000"
 4552 0645 01       		.byte	0x1
 4553 0646 2A01     		.2byte	0x12a
 4554 0648 81000000 		.4byte	0x81
 4555 064c 02       		.uleb128 0x2
 4556 064d 91       		.byte	0x91
 4557 064e 77       		.sleb128 -9
 4558 064f 17       		.uleb128 0x17
 4559 0650 C5050000 		.4byte	.LASF91
 4560 0654 01       		.byte	0x1
 4561 0655 2A01     		.2byte	0x12a
 4562 0657 81000000 		.4byte	0x81
 4563 065b 02       		.uleb128 0x2
 4564 065c 91       		.byte	0x91
 4565 065d 76       		.sleb128 -10
 4566 065e 16       		.uleb128 0x16
 4567 065f 726F7700 		.ascii	"row\000"
 4568 0663 01       		.byte	0x1
 4569 0664 2C01     		.2byte	0x12c
 4570 0666 68000000 		.4byte	0x68
 4571 066a 02       		.uleb128 0x2
 4572 066b 91       		.byte	0x91
 4573 066c 70       		.sleb128 -16
 4574 066d 00       		.byte	0
 4575 066e 14       		.uleb128 0x14
 4576 066f 3B040000 		.4byte	.LASF93
 4577 0673 01       		.byte	0x1
 4578 0674 5101     		.2byte	0x151
ARM GAS  C:\Users\MattiaCP\AppData\Local\Temp\ccVW8gGQ.s 			page 94


 4579 0676 00000000 		.4byte	.LFB72
 4580 067a FC000000 		.4byte	.LFE72-.LFB72
 4581 067e 01       		.uleb128 0x1
 4582 067f 9C       		.byte	0x9c
 4583 0680 BF060000 		.4byte	0x6bf
 4584 0684 15       		.uleb128 0x15
 4585 0685 6E00     		.ascii	"n\000"
 4586 0687 01       		.byte	0x1
 4587 0688 5101     		.2byte	0x151
 4588 068a 68000000 		.4byte	0x68
 4589 068e 02       		.uleb128 0x2
 4590 068f 91       		.byte	0x91
 4591 0690 6C       		.sleb128 -20
 4592 0691 16       		.uleb128 0x16
 4593 0692 6C6F7700 		.ascii	"low\000"
 4594 0696 01       		.byte	0x1
 4595 0697 5301     		.2byte	0x153
 4596 0699 81000000 		.4byte	0x81
 4597 069d 02       		.uleb128 0x2
 4598 069e 91       		.byte	0x91
 4599 069f 73       		.sleb128 -13
 4600 06a0 17       		.uleb128 0x17
 4601 06a1 C5050000 		.4byte	.LASF91
 4602 06a5 01       		.byte	0x1
 4603 06a6 5301     		.2byte	0x153
 4604 06a8 81000000 		.4byte	0x81
 4605 06ac 02       		.uleb128 0x2
 4606 06ad 91       		.byte	0x91
 4607 06ae 72       		.sleb128 -14
 4608 06af 16       		.uleb128 0x16
 4609 06b0 726F7700 		.ascii	"row\000"
 4610 06b4 01       		.byte	0x1
 4611 06b5 5401     		.2byte	0x154
 4612 06b7 68000000 		.4byte	0x68
 4613 06bb 02       		.uleb128 0x2
 4614 06bc 91       		.byte	0x91
 4615 06bd 74       		.sleb128 -12
 4616 06be 00       		.byte	0
 4617 06bf 14       		.uleb128 0x14
 4618 06c0 6A060000 		.4byte	.LASF94
 4619 06c4 01       		.byte	0x1
 4620 06c5 7701     		.2byte	0x177
 4621 06c7 00000000 		.4byte	.LFB73
 4622 06cb 7C000000 		.4byte	.LFE73-.LFB73
 4623 06cf 01       		.uleb128 0x1
 4624 06d0 9C       		.byte	0x9c
 4625 06d1 01070000 		.4byte	0x701
 4626 06d5 15       		.uleb128 0x15
 4627 06d6 6E00     		.ascii	"n\000"
 4628 06d8 01       		.byte	0x1
 4629 06d9 7701     		.2byte	0x177
 4630 06db 68000000 		.4byte	0x68
 4631 06df 02       		.uleb128 0x2
 4632 06e0 91       		.byte	0x91
 4633 06e1 6C       		.sleb128 -20
 4634 06e2 17       		.uleb128 0x17
 4635 06e3 65060000 		.4byte	.LASF95
ARM GAS  C:\Users\MattiaCP\AppData\Local\Temp\ccVW8gGQ.s 			page 95


 4636 06e7 01       		.byte	0x1
 4637 06e8 7901     		.2byte	0x179
 4638 06ea 81000000 		.4byte	0x81
 4639 06ee 02       		.uleb128 0x2
 4640 06ef 91       		.byte	0x91
 4641 06f0 77       		.sleb128 -9
 4642 06f1 16       		.uleb128 0x16
 4643 06f2 726F7700 		.ascii	"row\000"
 4644 06f6 01       		.byte	0x1
 4645 06f7 7A01     		.2byte	0x17a
 4646 06f9 68000000 		.4byte	0x68
 4647 06fd 02       		.uleb128 0x2
 4648 06fe 91       		.byte	0x91
 4649 06ff 70       		.sleb128 -16
 4650 0700 00       		.byte	0
 4651 0701 14       		.uleb128 0x14
 4652 0702 6E050000 		.4byte	.LASF96
 4653 0706 01       		.byte	0x1
 4654 0707 8F01     		.2byte	0x18f
 4655 0709 00000000 		.4byte	.LFB74
 4656 070d 700A0000 		.4byte	.LFE74-.LFB74
 4657 0711 01       		.uleb128 0x1
 4658 0712 9C       		.byte	0x9c
 4659 0713 BC070000 		.4byte	0x7bc
 4660 0717 15       		.uleb128 0x15
 4661 0718 6E00     		.ascii	"n\000"
 4662 071a 01       		.byte	0x1
 4663 071b 8F01     		.2byte	0x18f
 4664 071d 68000000 		.4byte	0x68
 4665 0721 03       		.uleb128 0x3
 4666 0722 91       		.byte	0x91
 4667 0723 FC7E     		.sleb128 -132
 4668 0725 17       		.uleb128 0x17
 4669 0726 88020000 		.4byte	.LASF97
 4670 072a 01       		.byte	0x1
 4671 072b 9101     		.2byte	0x191
 4672 072d B1000000 		.4byte	0xb1
 4673 0731 02       		.uleb128 0x2
 4674 0732 91       		.byte	0x91
 4675 0733 52       		.sleb128 -46
 4676 0734 16       		.uleb128 0x16
 4677 0735 71643000 		.ascii	"qd0\000"
 4678 0739 01       		.byte	0x1
 4679 073a 9201     		.2byte	0x192
 4680 073c D5000000 		.4byte	0xd5
 4681 0740 02       		.uleb128 0x2
 4682 0741 91       		.byte	0x91
 4683 0742 4C       		.sleb128 -52
 4684 0743 16       		.uleb128 0x16
 4685 0744 71643100 		.ascii	"qd1\000"
 4686 0748 01       		.byte	0x1
 4687 0749 9201     		.2byte	0x192
 4688 074b D5000000 		.4byte	0xd5
 4689 074f 02       		.uleb128 0x2
 4690 0750 91       		.byte	0x91
 4691 0751 48       		.sleb128 -56
 4692 0752 16       		.uleb128 0x16
ARM GAS  C:\Users\MattiaCP\AppData\Local\Temp\ccVW8gGQ.s 			page 96


 4693 0753 71643200 		.ascii	"qd2\000"
 4694 0757 01       		.byte	0x1
 4695 0758 9201     		.2byte	0x192
 4696 075a D5000000 		.4byte	0xd5
 4697 075e 02       		.uleb128 0x2
 4698 075f 91       		.byte	0x91
 4699 0760 44       		.sleb128 -60
 4700 0761 16       		.uleb128 0x16
 4701 0762 71643300 		.ascii	"qd3\000"
 4702 0766 01       		.byte	0x1
 4703 0767 9201     		.2byte	0x192
 4704 0769 D5000000 		.4byte	0xd5
 4705 076d 02       		.uleb128 0x2
 4706 076e 91       		.byte	0x91
 4707 076f 40       		.sleb128 -64
 4708 0770 16       		.uleb128 0x16
 4709 0771 615000   		.ascii	"aP\000"
 4710 0774 01       		.byte	0x1
 4711 0775 9301     		.2byte	0x193
 4712 0777 BC070000 		.4byte	0x7bc
 4713 077b 03       		.uleb128 0x3
 4714 077c 91       		.byte	0x91
 4715 077d B47F     		.sleb128 -76
 4716 077f 17       		.uleb128 0x17
 4717 0780 8D060000 		.4byte	.LASF98
 4718 0784 01       		.byte	0x1
 4719 0785 9401     		.2byte	0x194
 4720 0787 E7040000 		.4byte	0x4e7
 4721 078b 03       		.uleb128 0x3
 4722 078c 91       		.byte	0x91
 4723 078d A47F     		.sleb128 -92
 4724 078f 16       		.uleb128 0x16
 4725 0790 6700     		.ascii	"g\000"
 4726 0792 01       		.byte	0x1
 4727 0793 9401     		.2byte	0x194
 4728 0795 E7040000 		.4byte	0x4e7
 4729 0799 03       		.uleb128 0x3
 4730 079a 91       		.byte	0x91
 4731 079b 947F     		.sleb128 -108
 4732 079d 16       		.uleb128 0x16
 4733 079e 714C00   		.ascii	"qL\000"
 4734 07a1 01       		.byte	0x1
 4735 07a2 9401     		.2byte	0x194
 4736 07a4 E7040000 		.4byte	0x4e7
 4737 07a8 03       		.uleb128 0x3
 4738 07a9 91       		.byte	0x91
 4739 07aa 847F     		.sleb128 -124
 4740 07ac 17       		.uleb128 0x17
 4741 07ad 62040000 		.4byte	.LASF99
 4742 07b1 01       		.byte	0x1
 4743 07b2 9501     		.2byte	0x195
 4744 07b4 D5000000 		.4byte	0xd5
 4745 07b8 02       		.uleb128 0x2
 4746 07b9 91       		.byte	0x91
 4747 07ba 54       		.sleb128 -44
 4748 07bb 00       		.byte	0
 4749 07bc 06       		.uleb128 0x6
ARM GAS  C:\Users\MattiaCP\AppData\Local\Temp\ccVW8gGQ.s 			page 97


 4750 07bd D5000000 		.4byte	0xd5
 4751 07c1 CC070000 		.4byte	0x7cc
 4752 07c5 07       		.uleb128 0x7
 4753 07c6 F1000000 		.4byte	0xf1
 4754 07ca 02       		.byte	0x2
 4755 07cb 00       		.byte	0
 4756 07cc 18       		.uleb128 0x18
 4757 07cd D9050000 		.4byte	.LASF101
 4758 07d1 01       		.byte	0x1
 4759 07d2 DE01     		.2byte	0x1de
 4760 07d4 00000000 		.4byte	.LFB75
 4761 07d8 80020000 		.4byte	.LFE75-.LFB75
 4762 07dc 01       		.uleb128 0x1
 4763 07dd 9C       		.byte	0x9c
 4764 07de 11080000 		.4byte	0x811
 4765 07e2 17       		.uleb128 0x17
 4766 07e3 D3050000 		.4byte	.LASF85
 4767 07e7 01       		.byte	0x1
 4768 07e8 DF01     		.2byte	0x1df
 4769 07ea 81000000 		.4byte	0x81
 4770 07ee 05       		.uleb128 0x5
 4771 07ef 03       		.byte	0x3
 4772 07f0 00000000 		.4byte	k_imu.9854
 4773 07f4 16       		.uleb128 0x16
 4774 07f5 746D7000 		.ascii	"tmp\000"
 4775 07f9 01       		.byte	0x1
 4776 07fa E001     		.2byte	0x1e0
 4777 07fc 8D000000 		.4byte	0x8d
 4778 0800 02       		.uleb128 0x2
 4779 0801 91       		.byte	0x91
 4780 0802 64       		.sleb128 -28
 4781 0803 16       		.uleb128 0x16
 4782 0804 6A00     		.ascii	"j\000"
 4783 0806 01       		.byte	0x1
 4784 0807 E001     		.2byte	0x1e0
 4785 0809 8D000000 		.4byte	0x8d
 4786 080d 02       		.uleb128 0x2
 4787 080e 91       		.byte	0x91
 4788 080f 66       		.sleb128 -26
 4789 0810 00       		.byte	0
 4790 0811 14       		.uleb128 0x14
 4791 0812 06060000 		.4byte	.LASF102
 4792 0816 01       		.byte	0x1
 4793 0817 0302     		.2byte	0x203
 4794 0819 00000000 		.4byte	.LFB76
 4795 081d 5C000000 		.4byte	.LFE76-.LFB76
 4796 0821 01       		.uleb128 0x1
 4797 0822 9C       		.byte	0x9c
 4798 0823 62080000 		.4byte	0x862
 4799 0827 15       		.uleb128 0x15
 4800 0828 6E00     		.ascii	"n\000"
 4801 082a 01       		.byte	0x1
 4802 082b 0302     		.2byte	0x203
 4803 082d 68000000 		.4byte	0x68
 4804 0831 02       		.uleb128 0x2
 4805 0832 91       		.byte	0x91
 4806 0833 6C       		.sleb128 -20
ARM GAS  C:\Users\MattiaCP\AppData\Local\Temp\ccVW8gGQ.s 			page 98


 4807 0834 16       		.uleb128 0x16
 4808 0835 6C6F7700 		.ascii	"low\000"
 4809 0839 01       		.byte	0x1
 4810 083a 0502     		.2byte	0x205
 4811 083c 81000000 		.4byte	0x81
 4812 0840 02       		.uleb128 0x2
 4813 0841 91       		.byte	0x91
 4814 0842 77       		.sleb128 -9
 4815 0843 17       		.uleb128 0x17
 4816 0844 C5050000 		.4byte	.LASF91
 4817 0848 01       		.byte	0x1
 4818 0849 0502     		.2byte	0x205
 4819 084b 81000000 		.4byte	0x81
 4820 084f 02       		.uleb128 0x2
 4821 0850 91       		.byte	0x91
 4822 0851 76       		.sleb128 -10
 4823 0852 16       		.uleb128 0x16
 4824 0853 726F7700 		.ascii	"row\000"
 4825 0857 01       		.byte	0x1
 4826 0858 0602     		.2byte	0x206
 4827 085a 68000000 		.4byte	0x68
 4828 085e 02       		.uleb128 0x2
 4829 085f 91       		.byte	0x91
 4830 0860 70       		.sleb128 -16
 4831 0861 00       		.byte	0
 4832 0862 14       		.uleb128 0x14
 4833 0863 03040000 		.4byte	.LASF103
 4834 0867 01       		.byte	0x1
 4835 0868 1602     		.2byte	0x216
 4836 086a 00000000 		.4byte	.LFB77
 4837 086e 54000000 		.4byte	.LFE77-.LFB77
 4838 0872 01       		.uleb128 0x1
 4839 0873 9C       		.byte	0x9c
 4840 0874 97080000 		.4byte	0x897
 4841 0878 19       		.uleb128 0x19
 4842 0879 B4010000 		.4byte	.LASF104
 4843 087d 01       		.byte	0x1
 4844 087e 1602     		.2byte	0x216
 4845 0880 81000000 		.4byte	0x81
 4846 0884 02       		.uleb128 0x2
 4847 0885 91       		.byte	0x91
 4848 0886 77       		.sleb128 -9
 4849 0887 15       		.uleb128 0x15
 4850 0888 64746100 		.ascii	"dta\000"
 4851 088c 01       		.byte	0x1
 4852 088d 1602     		.2byte	0x216
 4853 088f 81000000 		.4byte	0x81
 4854 0893 02       		.uleb128 0x2
 4855 0894 91       		.byte	0x91
 4856 0895 76       		.sleb128 -10
 4857 0896 00       		.byte	0
 4858 0897 1A       		.uleb128 0x1a
 4859 0898 4F000000 		.4byte	.LASF110
 4860 089c 01       		.byte	0x1
 4861 089d 2402     		.2byte	0x224
 4862 089f 81000000 		.4byte	0x81
 4863 08a3 00000000 		.4byte	.LFB78
ARM GAS  C:\Users\MattiaCP\AppData\Local\Temp\ccVW8gGQ.s 			page 99


 4864 08a7 54000000 		.4byte	.LFE78-.LFB78
 4865 08ab 01       		.uleb128 0x1
 4866 08ac 9C       		.byte	0x9c
 4867 08ad D0080000 		.4byte	0x8d0
 4868 08b1 19       		.uleb128 0x19
 4869 08b2 B4010000 		.4byte	.LASF104
 4870 08b6 01       		.byte	0x1
 4871 08b7 2402     		.2byte	0x224
 4872 08b9 81000000 		.4byte	0x81
 4873 08bd 02       		.uleb128 0x2
 4874 08be 91       		.byte	0x91
 4875 08bf 6F       		.sleb128 -17
 4876 08c0 17       		.uleb128 0x17
 4877 08c1 B6060000 		.4byte	.LASF105
 4878 08c5 01       		.byte	0x1
 4879 08c6 2502     		.2byte	0x225
 4880 08c8 81000000 		.4byte	0x81
 4881 08cc 02       		.uleb128 0x2
 4882 08cd 91       		.byte	0x91
 4883 08ce 77       		.sleb128 -9
 4884 08cf 00       		.byte	0
 4885 08d0 1B       		.uleb128 0x1b
 4886 08d1 64050000 		.4byte	.LASF106
 4887 08d5 01       		.byte	0x1
 4888 08d6 3202     		.2byte	0x232
 4889 08d8 00000000 		.4byte	.LFB79
 4890 08dc 2C000000 		.4byte	.LFE79-.LFB79
 4891 08e0 01       		.uleb128 0x1
 4892 08e1 9C       		.byte	0x9c
 4893 08e2 14       		.uleb128 0x14
 4894 08e3 86040000 		.4byte	.LASF107
 4895 08e7 01       		.byte	0x1
 4896 08e8 4202     		.2byte	0x242
 4897 08ea 00000000 		.4byte	.LFB80
 4898 08ee 46000000 		.4byte	.LFE80-.LFB80
 4899 08f2 01       		.uleb128 0x1
 4900 08f3 9C       		.byte	0x9c
 4901 08f4 17090000 		.4byte	0x917
 4902 08f8 19       		.uleb128 0x19
 4903 08f9 B4010000 		.4byte	.LASF104
 4904 08fd 01       		.byte	0x1
 4905 08fe 4202     		.2byte	0x242
 4906 0900 81000000 		.4byte	0x81
 4907 0904 02       		.uleb128 0x2
 4908 0905 91       		.byte	0x91
 4909 0906 77       		.sleb128 -9
 4910 0907 19       		.uleb128 0x19
 4911 0908 A4040000 		.4byte	.LASF108
 4912 090c 01       		.byte	0x1
 4913 090d 4202     		.2byte	0x242
 4914 090f 81000000 		.4byte	0x81
 4915 0913 02       		.uleb128 0x2
 4916 0914 91       		.byte	0x91
 4917 0915 76       		.sleb128 -10
 4918 0916 00       		.byte	0
 4919 0917 14       		.uleb128 0x14
 4920 0918 D7030000 		.4byte	.LASF109
ARM GAS  C:\Users\MattiaCP\AppData\Local\Temp\ccVW8gGQ.s 			page 100


 4921 091c 01       		.byte	0x1
 4922 091d 4E02     		.2byte	0x24e
 4923 091f 00000000 		.4byte	.LFB81
 4924 0923 1A000000 		.4byte	.LFE81-.LFB81
 4925 0927 01       		.uleb128 0x1
 4926 0928 9C       		.byte	0x9c
 4927 0929 3D090000 		.4byte	0x93d
 4928 092d 19       		.uleb128 0x19
 4929 092e A4040000 		.4byte	.LASF108
 4930 0932 01       		.byte	0x1
 4931 0933 4E02     		.2byte	0x24e
 4932 0935 81000000 		.4byte	0x81
 4933 0939 02       		.uleb128 0x2
 4934 093a 91       		.byte	0x91
 4935 093b 77       		.sleb128 -9
 4936 093c 00       		.byte	0
 4937 093d 1A       		.uleb128 0x1a
 4938 093e 5F030000 		.4byte	.LASF111
 4939 0942 01       		.byte	0x1
 4940 0943 5402     		.2byte	0x254
 4941 0945 81000000 		.4byte	0x81
 4942 0949 00000000 		.4byte	.LFB82
 4943 094d 42000000 		.4byte	.LFE82-.LFB82
 4944 0951 01       		.uleb128 0x1
 4945 0952 9C       		.byte	0x9c
 4946 0953 76090000 		.4byte	0x976
 4947 0957 19       		.uleb128 0x19
 4948 0958 B4010000 		.4byte	.LASF104
 4949 095c 01       		.byte	0x1
 4950 095d 5402     		.2byte	0x254
 4951 095f 81000000 		.4byte	0x81
 4952 0963 02       		.uleb128 0x2
 4953 0964 91       		.byte	0x91
 4954 0965 6F       		.sleb128 -17
 4955 0966 17       		.uleb128 0x17
 4956 0967 2A000000 		.4byte	.LASF112
 4957 096b 01       		.byte	0x1
 4958 096c 5602     		.2byte	0x256
 4959 096e 81000000 		.4byte	0x81
 4960 0972 02       		.uleb128 0x2
 4961 0973 91       		.byte	0x91
 4962 0974 77       		.sleb128 -9
 4963 0975 00       		.byte	0
 4964 0976 1C       		.uleb128 0x1c
 4965 0977 7D010000 		.4byte	.LASF113
 4966 097b 01       		.byte	0x1
 4967 097c 6202     		.2byte	0x262
 4968 097e 81000000 		.4byte	0x81
 4969 0982 00000000 		.4byte	.LFB83
 4970 0986 5C000000 		.4byte	.LFE83-.LFB83
 4971 098a 01       		.uleb128 0x1
 4972 098b 9C       		.byte	0x9c
 4973 098c BC090000 		.4byte	0x9bc
 4974 0990 17       		.uleb128 0x17
 4975 0991 5C020000 		.4byte	.LASF114
 4976 0995 01       		.byte	0x1
 4977 0996 6402     		.2byte	0x264
ARM GAS  C:\Users\MattiaCP\AppData\Local\Temp\ccVW8gGQ.s 			page 101


 4978 0998 81000000 		.4byte	0x81
 4979 099c 02       		.uleb128 0x2
 4980 099d 91       		.byte	0x91
 4981 099e 77       		.sleb128 -9
 4982 099f 17       		.uleb128 0x17
 4983 09a0 99040000 		.4byte	.LASF115
 4984 09a4 01       		.byte	0x1
 4985 09a5 6502     		.2byte	0x265
 4986 09a7 81000000 		.4byte	0x81
 4987 09ab 02       		.uleb128 0x2
 4988 09ac 91       		.byte	0x91
 4989 09ad 6F       		.sleb128 -17
 4990 09ae 16       		.uleb128 0x16
 4991 09af 6900     		.ascii	"i\000"
 4992 09b1 01       		.byte	0x1
 4993 09b2 6602     		.2byte	0x266
 4994 09b4 68000000 		.4byte	0x68
 4995 09b8 02       		.uleb128 0x2
 4996 09b9 91       		.byte	0x91
 4997 09ba 70       		.sleb128 -16
 4998 09bb 00       		.byte	0
 4999 09bc 14       		.uleb128 0x14
 5000 09bd 7D050000 		.4byte	.LASF116
 5001 09c1 01       		.byte	0x1
 5002 09c2 7202     		.2byte	0x272
 5003 09c4 00000000 		.4byte	.LFB84
 5004 09c8 4C000000 		.4byte	.LFE84-.LFB84
 5005 09cc 01       		.uleb128 0x1
 5006 09cd 9C       		.byte	0x9c
 5007 09ce EF090000 		.4byte	0x9ef
 5008 09d2 15       		.uleb128 0x15
 5009 09d3 76616C00 		.ascii	"val\000"
 5010 09d7 01       		.byte	0x1
 5011 09d8 7202     		.2byte	0x272
 5012 09da 81000000 		.4byte	0x81
 5013 09de 02       		.uleb128 0x2
 5014 09df 91       		.byte	0x91
 5015 09e0 6F       		.sleb128 -17
 5016 09e1 16       		.uleb128 0x16
 5017 09e2 6900     		.ascii	"i\000"
 5018 09e4 01       		.byte	0x1
 5019 09e5 7402     		.2byte	0x274
 5020 09e7 81000000 		.4byte	0x81
 5021 09eb 02       		.uleb128 0x2
 5022 09ec 91       		.byte	0x91
 5023 09ed 77       		.sleb128 -9
 5024 09ee 00       		.byte	0
 5025 09ef 14       		.uleb128 0x14
 5026 09f0 70030000 		.4byte	.LASF117
 5027 09f4 01       		.byte	0x1
 5028 09f5 7C02     		.2byte	0x27c
 5029 09f7 00000000 		.4byte	.LFB85
 5030 09fb 4C010000 		.4byte	.LFE85-.LFB85
 5031 09ff 01       		.uleb128 0x1
 5032 0a00 9C       		.byte	0x9c
 5033 0a01 4D0A0000 		.4byte	0xa4d
 5034 0a05 19       		.uleb128 0x19
ARM GAS  C:\Users\MattiaCP\AppData\Local\Temp\ccVW8gGQ.s 			page 102


 5035 0a06 43040000 		.4byte	.LASF118
 5036 0a0a 01       		.byte	0x1
 5037 0a0b 7C02     		.2byte	0x27c
 5038 0a0d 4D0A0000 		.4byte	0xa4d
 5039 0a11 02       		.uleb128 0x2
 5040 0a12 91       		.byte	0x91
 5041 0a13 5C       		.sleb128 -36
 5042 0a14 17       		.uleb128 0x17
 5043 0a15 12020000 		.4byte	.LASF119
 5044 0a19 01       		.byte	0x1
 5045 0a1a 7E02     		.2byte	0x27e
 5046 0a1c 99000000 		.4byte	0x99
 5047 0a20 02       		.uleb128 0x2
 5048 0a21 91       		.byte	0x91
 5049 0a22 70       		.sleb128 -16
 5050 0a23 17       		.uleb128 0x17
 5051 0a24 44020000 		.4byte	.LASF120
 5052 0a28 01       		.byte	0x1
 5053 0a29 7F02     		.2byte	0x27f
 5054 0a2b 530A0000 		.4byte	0xa53
 5055 0a2f 02       		.uleb128 0x2
 5056 0a30 91       		.byte	0x91
 5057 0a31 64       		.sleb128 -28
 5058 0a32 16       		.uleb128 0x16
 5059 0a33 6900     		.ascii	"i\000"
 5060 0a35 01       		.byte	0x1
 5061 0a36 8002     		.2byte	0x280
 5062 0a38 81000000 		.4byte	0x81
 5063 0a3c 02       		.uleb128 0x2
 5064 0a3d 91       		.byte	0x91
 5065 0a3e 77       		.sleb128 -9
 5066 0a3f 16       		.uleb128 0x16
 5067 0a40 6A00     		.ascii	"j\000"
 5068 0a42 01       		.byte	0x1
 5069 0a43 8002     		.2byte	0x280
 5070 0a45 81000000 		.4byte	0x81
 5071 0a49 02       		.uleb128 0x2
 5072 0a4a 91       		.byte	0x91
 5073 0a4b 76       		.sleb128 -10
 5074 0a4c 00       		.byte	0
 5075 0a4d 1D       		.uleb128 0x1d
 5076 0a4e 04       		.byte	0x4
 5077 0a4f BD000000 		.4byte	0xbd
 5078 0a53 06       		.uleb128 0x6
 5079 0a54 99000000 		.4byte	0x99
 5080 0a58 630A0000 		.4byte	0xa63
 5081 0a5c 07       		.uleb128 0x7
 5082 0a5d F1000000 		.4byte	0xf1
 5083 0a61 02       		.byte	0x2
 5084 0a62 00       		.byte	0
 5085 0a63 1E       		.uleb128 0x1e
 5086 0a64 26010000 		.4byte	.LASF121
 5087 0a68 06       		.byte	0x6
 5088 0a69 1207     		.2byte	0x712
 5089 0a6b 6F0A0000 		.4byte	0xa6f
 5090 0a6f 1F       		.uleb128 0x1f
 5091 0a70 76000000 		.4byte	0x76
ARM GAS  C:\Users\MattiaCP\AppData\Local\Temp\ccVW8gGQ.s 			page 103


 5092 0a74 1E       		.uleb128 0x1e
 5093 0a75 18000000 		.4byte	.LASF122
 5094 0a79 05       		.byte	0x5
 5095 0a7a 4401     		.2byte	0x144
 5096 0a7c 08010000 		.4byte	0x108
 5097 0a80 1E       		.uleb128 0x1e
 5098 0a81 71010000 		.4byte	.LASF123
 5099 0a85 05       		.byte	0x5
 5100 0a86 4A01     		.2byte	0x14a
 5101 0a88 99000000 		.4byte	0x99
 5102 0a8c 1E       		.uleb128 0x1e
 5103 0a8d 27060000 		.4byte	.LASF124
 5104 0a91 05       		.byte	0x5
 5105 0a92 4B01     		.2byte	0x14b
 5106 0a94 99000000 		.4byte	0x99
 5107 0a98 1E       		.uleb128 0x1e
 5108 0a99 9C010000 		.4byte	.LASF125
 5109 0a9d 05       		.byte	0x5
 5110 0a9e 7501     		.2byte	0x175
 5111 0aa0 81000000 		.4byte	0x81
 5112 0aa4 1E       		.uleb128 0x1e
 5113 0aa5 96030000 		.4byte	.LASF126
 5114 0aa9 05       		.byte	0x5
 5115 0aaa 7601     		.2byte	0x176
 5116 0aac C5030000 		.4byte	0x3c5
 5117 0ab0 1E       		.uleb128 0x1e
 5118 0ab1 21020000 		.4byte	.LASF127
 5119 0ab5 05       		.byte	0x5
 5120 0ab6 7701     		.2byte	0x177
 5121 0ab8 68000000 		.4byte	0x68
 5122 0abc 1E       		.uleb128 0x1e
 5123 0abd B8020000 		.4byte	.LASF128
 5124 0ac1 05       		.byte	0x5
 5125 0ac2 7801     		.2byte	0x178
 5126 0ac4 9A050000 		.4byte	0x59a
 5127 0ac8 06       		.uleb128 0x6
 5128 0ac9 7B040000 		.4byte	0x47b
 5129 0acd D80A0000 		.4byte	0xad8
 5130 0ad1 07       		.uleb128 0x7
 5131 0ad2 F1000000 		.4byte	0xf1
 5132 0ad6 02       		.byte	0x2
 5133 0ad7 00       		.byte	0
 5134 0ad8 1E       		.uleb128 0x1e
 5135 0ad9 75020000 		.4byte	.LASF129
 5136 0add 05       		.byte	0x5
 5137 0ade 7901     		.2byte	0x179
 5138 0ae0 C80A0000 		.4byte	0xac8
 5139 0ae4 1E       		.uleb128 0x1e
 5140 0ae5 F1000000 		.4byte	.LASF130
 5141 0ae9 05       		.byte	0x5
 5142 0aea 7901     		.2byte	0x179
 5143 0aec C80A0000 		.4byte	0xac8
 5144 0af0 06       		.uleb128 0x6
 5145 0af1 81000000 		.4byte	0x81
 5146 0af5 060B0000 		.4byte	0xb06
 5147 0af9 07       		.uleb128 0x7
 5148 0afa F1000000 		.4byte	0xf1
ARM GAS  C:\Users\MattiaCP\AppData\Local\Temp\ccVW8gGQ.s 			page 104


 5149 0afe 02       		.byte	0x2
 5150 0aff 07       		.uleb128 0x7
 5151 0b00 F1000000 		.4byte	0xf1
 5152 0b04 05       		.byte	0x5
 5153 0b05 00       		.byte	0
 5154 0b06 20       		.uleb128 0x20
 5155 0b07 05000000 		.4byte	.LASF131
 5156 0b0b 01       		.byte	0x1
 5157 0b0c 31       		.byte	0x31
 5158 0b0d F00A0000 		.4byte	0xaf0
 5159 0b11 20       		.uleb128 0x20
 5160 0b12 00000000 		.4byte	.LASF132
 5161 0b16 01       		.byte	0x1
 5162 0b17 32       		.byte	0x32
 5163 0b18 F00A0000 		.4byte	0xaf0
 5164 0b1c 21       		.uleb128 0x21
 5165 0b1d 4D616700 		.ascii	"Mag\000"
 5166 0b21 01       		.byte	0x1
 5167 0b22 33       		.byte	0x33
 5168 0b23 F00A0000 		.4byte	0xaf0
 5169 0b27 06       		.uleb128 0x6
 5170 0b28 81000000 		.4byte	0x81
 5171 0b2c 3D0B0000 		.4byte	0xb3d
 5172 0b30 07       		.uleb128 0x7
 5173 0b31 F1000000 		.4byte	0xf1
 5174 0b35 02       		.byte	0x2
 5175 0b36 07       		.uleb128 0x7
 5176 0b37 F1000000 		.4byte	0xf1
 5177 0b3b 02       		.byte	0x2
 5178 0b3c 00       		.byte	0
 5179 0b3d 20       		.uleb128 0x20
 5180 0b3e BC010000 		.4byte	.LASF133
 5181 0b42 01       		.byte	0x1
 5182 0b43 34       		.byte	0x34
 5183 0b44 270B0000 		.4byte	0xb27
 5184 0b48 06       		.uleb128 0x6
 5185 0b49 81000000 		.4byte	0x81
 5186 0b4d 5E0B0000 		.4byte	0xb5e
 5187 0b51 07       		.uleb128 0x7
 5188 0b52 F1000000 		.4byte	0xf1
 5189 0b56 02       		.byte	0x2
 5190 0b57 07       		.uleb128 0x7
 5191 0b58 F1000000 		.4byte	0xf1
 5192 0b5c 01       		.byte	0x1
 5193 0b5d 00       		.byte	0
 5194 0b5e 1E       		.uleb128 0x1e
 5195 0b5f 80060000 		.4byte	.LASF134
 5196 0b63 05       		.byte	0x5
 5197 0b64 7F01     		.2byte	0x17f
 5198 0b66 480B0000 		.4byte	0xb48
 5199 0b6a 1E       		.uleb128 0x1e
 5200 0b6b 5A030000 		.4byte	.LASF135
 5201 0b6f 05       		.byte	0x5
 5202 0b70 8001     		.2byte	0x180
 5203 0b72 E7040000 		.4byte	0x4e7
 5204 0b76 00       		.byte	0
 5205              		.section	.debug_abbrev,"",%progbits
ARM GAS  C:\Users\MattiaCP\AppData\Local\Temp\ccVW8gGQ.s 			page 105


 5206              	.Ldebug_abbrev0:
 5207 0000 01       		.uleb128 0x1
 5208 0001 11       		.uleb128 0x11
 5209 0002 01       		.byte	0x1
 5210 0003 25       		.uleb128 0x25
 5211 0004 0E       		.uleb128 0xe
 5212 0005 13       		.uleb128 0x13
 5213 0006 0B       		.uleb128 0xb
 5214 0007 03       		.uleb128 0x3
 5215 0008 0E       		.uleb128 0xe
 5216 0009 1B       		.uleb128 0x1b
 5217 000a 0E       		.uleb128 0xe
 5218 000b 55       		.uleb128 0x55
 5219 000c 17       		.uleb128 0x17
 5220 000d 11       		.uleb128 0x11
 5221 000e 01       		.uleb128 0x1
 5222 000f 10       		.uleb128 0x10
 5223 0010 17       		.uleb128 0x17
 5224 0011 00       		.byte	0
 5225 0012 00       		.byte	0
 5226 0013 02       		.uleb128 0x2
 5227 0014 24       		.uleb128 0x24
 5228 0015 00       		.byte	0
 5229 0016 0B       		.uleb128 0xb
 5230 0017 0B       		.uleb128 0xb
 5231 0018 3E       		.uleb128 0x3e
 5232 0019 0B       		.uleb128 0xb
 5233 001a 03       		.uleb128 0x3
 5234 001b 0E       		.uleb128 0xe
 5235 001c 00       		.byte	0
 5236 001d 00       		.byte	0
 5237 001e 03       		.uleb128 0x3
 5238 001f 16       		.uleb128 0x16
 5239 0020 00       		.byte	0
 5240 0021 03       		.uleb128 0x3
 5241 0022 0E       		.uleb128 0xe
 5242 0023 3A       		.uleb128 0x3a
 5243 0024 0B       		.uleb128 0xb
 5244 0025 3B       		.uleb128 0x3b
 5245 0026 0B       		.uleb128 0xb
 5246 0027 49       		.uleb128 0x49
 5247 0028 13       		.uleb128 0x13
 5248 0029 00       		.byte	0
 5249 002a 00       		.byte	0
 5250 002b 04       		.uleb128 0x4
 5251 002c 24       		.uleb128 0x24
 5252 002d 00       		.byte	0
 5253 002e 0B       		.uleb128 0xb
 5254 002f 0B       		.uleb128 0xb
 5255 0030 3E       		.uleb128 0x3e
 5256 0031 0B       		.uleb128 0xb
 5257 0032 03       		.uleb128 0x3
 5258 0033 08       		.uleb128 0x8
 5259 0034 00       		.byte	0
 5260 0035 00       		.byte	0
 5261 0036 05       		.uleb128 0x5
 5262 0037 16       		.uleb128 0x16
ARM GAS  C:\Users\MattiaCP\AppData\Local\Temp\ccVW8gGQ.s 			page 106


 5263 0038 00       		.byte	0
 5264 0039 03       		.uleb128 0x3
 5265 003a 0E       		.uleb128 0xe
 5266 003b 3A       		.uleb128 0x3a
 5267 003c 0B       		.uleb128 0xb
 5268 003d 3B       		.uleb128 0x3b
 5269 003e 05       		.uleb128 0x5
 5270 003f 49       		.uleb128 0x49
 5271 0040 13       		.uleb128 0x13
 5272 0041 00       		.byte	0
 5273 0042 00       		.byte	0
 5274 0043 06       		.uleb128 0x6
 5275 0044 01       		.uleb128 0x1
 5276 0045 01       		.byte	0x1
 5277 0046 49       		.uleb128 0x49
 5278 0047 13       		.uleb128 0x13
 5279 0048 01       		.uleb128 0x1
 5280 0049 13       		.uleb128 0x13
 5281 004a 00       		.byte	0
 5282 004b 00       		.byte	0
 5283 004c 07       		.uleb128 0x7
 5284 004d 21       		.uleb128 0x21
 5285 004e 00       		.byte	0
 5286 004f 49       		.uleb128 0x49
 5287 0050 13       		.uleb128 0x13
 5288 0051 2F       		.uleb128 0x2f
 5289 0052 0B       		.uleb128 0xb
 5290 0053 00       		.byte	0
 5291 0054 00       		.byte	0
 5292 0055 08       		.uleb128 0x8
 5293 0056 13       		.uleb128 0x13
 5294 0057 01       		.byte	0x1
 5295 0058 03       		.uleb128 0x3
 5296 0059 0E       		.uleb128 0xe
 5297 005a 0B       		.uleb128 0xb
 5298 005b 05       		.uleb128 0x5
 5299 005c 3A       		.uleb128 0x3a
 5300 005d 0B       		.uleb128 0xb
 5301 005e 3B       		.uleb128 0x3b
 5302 005f 0B       		.uleb128 0xb
 5303 0060 01       		.uleb128 0x1
 5304 0061 13       		.uleb128 0x13
 5305 0062 00       		.byte	0
 5306 0063 00       		.byte	0
 5307 0064 09       		.uleb128 0x9
 5308 0065 0D       		.uleb128 0xd
 5309 0066 00       		.byte	0
 5310 0067 03       		.uleb128 0x3
 5311 0068 0E       		.uleb128 0xe
 5312 0069 3A       		.uleb128 0x3a
 5313 006a 0B       		.uleb128 0xb
 5314 006b 3B       		.uleb128 0x3b
 5315 006c 0B       		.uleb128 0xb
 5316 006d 49       		.uleb128 0x49
 5317 006e 13       		.uleb128 0x13
 5318 006f 38       		.uleb128 0x38
 5319 0070 0B       		.uleb128 0xb
ARM GAS  C:\Users\MattiaCP\AppData\Local\Temp\ccVW8gGQ.s 			page 107


 5320 0071 00       		.byte	0
 5321 0072 00       		.byte	0
 5322 0073 0A       		.uleb128 0xa
 5323 0074 0D       		.uleb128 0xd
 5324 0075 00       		.byte	0
 5325 0076 03       		.uleb128 0x3
 5326 0077 08       		.uleb128 0x8
 5327 0078 3A       		.uleb128 0x3a
 5328 0079 0B       		.uleb128 0xb
 5329 007a 3B       		.uleb128 0x3b
 5330 007b 0B       		.uleb128 0xb
 5331 007c 49       		.uleb128 0x49
 5332 007d 13       		.uleb128 0x13
 5333 007e 38       		.uleb128 0x38
 5334 007f 0B       		.uleb128 0xb
 5335 0080 00       		.byte	0
 5336 0081 00       		.byte	0
 5337 0082 0B       		.uleb128 0xb
 5338 0083 0D       		.uleb128 0xd
 5339 0084 00       		.byte	0
 5340 0085 03       		.uleb128 0x3
 5341 0086 0E       		.uleb128 0xe
 5342 0087 3A       		.uleb128 0x3a
 5343 0088 0B       		.uleb128 0xb
 5344 0089 3B       		.uleb128 0x3b
 5345 008a 05       		.uleb128 0x5
 5346 008b 49       		.uleb128 0x49
 5347 008c 13       		.uleb128 0x13
 5348 008d 38       		.uleb128 0x38
 5349 008e 05       		.uleb128 0x5
 5350 008f 00       		.byte	0
 5351 0090 00       		.byte	0
 5352 0091 0C       		.uleb128 0xc
 5353 0092 13       		.uleb128 0x13
 5354 0093 01       		.byte	0x1
 5355 0094 03       		.uleb128 0x3
 5356 0095 0E       		.uleb128 0xe
 5357 0096 0B       		.uleb128 0xb
 5358 0097 0B       		.uleb128 0xb
 5359 0098 3A       		.uleb128 0x3a
 5360 0099 0B       		.uleb128 0xb
 5361 009a 3B       		.uleb128 0x3b
 5362 009b 05       		.uleb128 0x5
 5363 009c 01       		.uleb128 0x1
 5364 009d 13       		.uleb128 0x13
 5365 009e 00       		.byte	0
 5366 009f 00       		.byte	0
 5367 00a0 0D       		.uleb128 0xd
 5368 00a1 0D       		.uleb128 0xd
 5369 00a2 00       		.byte	0
 5370 00a3 03       		.uleb128 0x3
 5371 00a4 0E       		.uleb128 0xe
 5372 00a5 3A       		.uleb128 0x3a
 5373 00a6 0B       		.uleb128 0xb
 5374 00a7 3B       		.uleb128 0x3b
 5375 00a8 05       		.uleb128 0x5
 5376 00a9 49       		.uleb128 0x49
ARM GAS  C:\Users\MattiaCP\AppData\Local\Temp\ccVW8gGQ.s 			page 108


 5377 00aa 13       		.uleb128 0x13
 5378 00ab 38       		.uleb128 0x38
 5379 00ac 0B       		.uleb128 0xb
 5380 00ad 00       		.byte	0
 5381 00ae 00       		.byte	0
 5382 00af 0E       		.uleb128 0xe
 5383 00b0 2E       		.uleb128 0x2e
 5384 00b1 00       		.byte	0
 5385 00b2 3F       		.uleb128 0x3f
 5386 00b3 19       		.uleb128 0x19
 5387 00b4 03       		.uleb128 0x3
 5388 00b5 0E       		.uleb128 0xe
 5389 00b6 3A       		.uleb128 0x3a
 5390 00b7 0B       		.uleb128 0xb
 5391 00b8 3B       		.uleb128 0x3b
 5392 00b9 0B       		.uleb128 0xb
 5393 00ba 11       		.uleb128 0x11
 5394 00bb 01       		.uleb128 0x1
 5395 00bc 12       		.uleb128 0x12
 5396 00bd 06       		.uleb128 0x6
 5397 00be 40       		.uleb128 0x40
 5398 00bf 18       		.uleb128 0x18
 5399 00c0 9642     		.uleb128 0x2116
 5400 00c2 19       		.uleb128 0x19
 5401 00c3 00       		.byte	0
 5402 00c4 00       		.byte	0
 5403 00c5 0F       		.uleb128 0xf
 5404 00c6 2E       		.uleb128 0x2e
 5405 00c7 01       		.byte	0x1
 5406 00c8 3F       		.uleb128 0x3f
 5407 00c9 19       		.uleb128 0x19
 5408 00ca 03       		.uleb128 0x3
 5409 00cb 0E       		.uleb128 0xe
 5410 00cc 3A       		.uleb128 0x3a
 5411 00cd 0B       		.uleb128 0xb
 5412 00ce 3B       		.uleb128 0x3b
 5413 00cf 0B       		.uleb128 0xb
 5414 00d0 27       		.uleb128 0x27
 5415 00d1 19       		.uleb128 0x19
 5416 00d2 11       		.uleb128 0x11
 5417 00d3 01       		.uleb128 0x1
 5418 00d4 12       		.uleb128 0x12
 5419 00d5 06       		.uleb128 0x6
 5420 00d6 40       		.uleb128 0x40
 5421 00d7 18       		.uleb128 0x18
 5422 00d8 9642     		.uleb128 0x2116
 5423 00da 19       		.uleb128 0x19
 5424 00db 01       		.uleb128 0x1
 5425 00dc 13       		.uleb128 0x13
 5426 00dd 00       		.byte	0
 5427 00de 00       		.byte	0
 5428 00df 10       		.uleb128 0x10
 5429 00e0 05       		.uleb128 0x5
 5430 00e1 00       		.byte	0
 5431 00e2 03       		.uleb128 0x3
 5432 00e3 08       		.uleb128 0x8
 5433 00e4 3A       		.uleb128 0x3a
ARM GAS  C:\Users\MattiaCP\AppData\Local\Temp\ccVW8gGQ.s 			page 109


 5434 00e5 0B       		.uleb128 0xb
 5435 00e6 3B       		.uleb128 0x3b
 5436 00e7 0B       		.uleb128 0xb
 5437 00e8 49       		.uleb128 0x49
 5438 00e9 13       		.uleb128 0x13
 5439 00ea 02       		.uleb128 0x2
 5440 00eb 18       		.uleb128 0x18
 5441 00ec 00       		.byte	0
 5442 00ed 00       		.byte	0
 5443 00ee 11       		.uleb128 0x11
 5444 00ef 2E       		.uleb128 0x2e
 5445 00f0 01       		.byte	0x1
 5446 00f1 3F       		.uleb128 0x3f
 5447 00f2 19       		.uleb128 0x19
 5448 00f3 03       		.uleb128 0x3
 5449 00f4 0E       		.uleb128 0xe
 5450 00f5 3A       		.uleb128 0x3a
 5451 00f6 0B       		.uleb128 0xb
 5452 00f7 3B       		.uleb128 0x3b
 5453 00f8 0B       		.uleb128 0xb
 5454 00f9 11       		.uleb128 0x11
 5455 00fa 01       		.uleb128 0x1
 5456 00fb 12       		.uleb128 0x12
 5457 00fc 06       		.uleb128 0x6
 5458 00fd 40       		.uleb128 0x40
 5459 00fe 18       		.uleb128 0x18
 5460 00ff 9642     		.uleb128 0x2116
 5461 0101 19       		.uleb128 0x19
 5462 0102 01       		.uleb128 0x1
 5463 0103 13       		.uleb128 0x13
 5464 0104 00       		.byte	0
 5465 0105 00       		.byte	0
 5466 0106 12       		.uleb128 0x12
 5467 0107 34       		.uleb128 0x34
 5468 0108 00       		.byte	0
 5469 0109 03       		.uleb128 0x3
 5470 010a 0E       		.uleb128 0xe
 5471 010b 3A       		.uleb128 0x3a
 5472 010c 0B       		.uleb128 0xb
 5473 010d 3B       		.uleb128 0x3b
 5474 010e 0B       		.uleb128 0xb
 5475 010f 49       		.uleb128 0x49
 5476 0110 13       		.uleb128 0x13
 5477 0111 02       		.uleb128 0x2
 5478 0112 18       		.uleb128 0x18
 5479 0113 00       		.byte	0
 5480 0114 00       		.byte	0
 5481 0115 13       		.uleb128 0x13
 5482 0116 34       		.uleb128 0x34
 5483 0117 00       		.byte	0
 5484 0118 03       		.uleb128 0x3
 5485 0119 08       		.uleb128 0x8
 5486 011a 3A       		.uleb128 0x3a
 5487 011b 0B       		.uleb128 0xb
 5488 011c 3B       		.uleb128 0x3b
 5489 011d 0B       		.uleb128 0xb
 5490 011e 49       		.uleb128 0x49
ARM GAS  C:\Users\MattiaCP\AppData\Local\Temp\ccVW8gGQ.s 			page 110


 5491 011f 13       		.uleb128 0x13
 5492 0120 02       		.uleb128 0x2
 5493 0121 18       		.uleb128 0x18
 5494 0122 00       		.byte	0
 5495 0123 00       		.byte	0
 5496 0124 14       		.uleb128 0x14
 5497 0125 2E       		.uleb128 0x2e
 5498 0126 01       		.byte	0x1
 5499 0127 3F       		.uleb128 0x3f
 5500 0128 19       		.uleb128 0x19
 5501 0129 03       		.uleb128 0x3
 5502 012a 0E       		.uleb128 0xe
 5503 012b 3A       		.uleb128 0x3a
 5504 012c 0B       		.uleb128 0xb
 5505 012d 3B       		.uleb128 0x3b
 5506 012e 05       		.uleb128 0x5
 5507 012f 27       		.uleb128 0x27
 5508 0130 19       		.uleb128 0x19
 5509 0131 11       		.uleb128 0x11
 5510 0132 01       		.uleb128 0x1
 5511 0133 12       		.uleb128 0x12
 5512 0134 06       		.uleb128 0x6
 5513 0135 40       		.uleb128 0x40
 5514 0136 18       		.uleb128 0x18
 5515 0137 9642     		.uleb128 0x2116
 5516 0139 19       		.uleb128 0x19
 5517 013a 01       		.uleb128 0x1
 5518 013b 13       		.uleb128 0x13
 5519 013c 00       		.byte	0
 5520 013d 00       		.byte	0
 5521 013e 15       		.uleb128 0x15
 5522 013f 05       		.uleb128 0x5
 5523 0140 00       		.byte	0
 5524 0141 03       		.uleb128 0x3
 5525 0142 08       		.uleb128 0x8
 5526 0143 3A       		.uleb128 0x3a
 5527 0144 0B       		.uleb128 0xb
 5528 0145 3B       		.uleb128 0x3b
 5529 0146 05       		.uleb128 0x5
 5530 0147 49       		.uleb128 0x49
 5531 0148 13       		.uleb128 0x13
 5532 0149 02       		.uleb128 0x2
 5533 014a 18       		.uleb128 0x18
 5534 014b 00       		.byte	0
 5535 014c 00       		.byte	0
 5536 014d 16       		.uleb128 0x16
 5537 014e 34       		.uleb128 0x34
 5538 014f 00       		.byte	0
 5539 0150 03       		.uleb128 0x3
 5540 0151 08       		.uleb128 0x8
 5541 0152 3A       		.uleb128 0x3a
 5542 0153 0B       		.uleb128 0xb
 5543 0154 3B       		.uleb128 0x3b
 5544 0155 05       		.uleb128 0x5
 5545 0156 49       		.uleb128 0x49
 5546 0157 13       		.uleb128 0x13
 5547 0158 02       		.uleb128 0x2
ARM GAS  C:\Users\MattiaCP\AppData\Local\Temp\ccVW8gGQ.s 			page 111


 5548 0159 18       		.uleb128 0x18
 5549 015a 00       		.byte	0
 5550 015b 00       		.byte	0
 5551 015c 17       		.uleb128 0x17
 5552 015d 34       		.uleb128 0x34
 5553 015e 00       		.byte	0
 5554 015f 03       		.uleb128 0x3
 5555 0160 0E       		.uleb128 0xe
 5556 0161 3A       		.uleb128 0x3a
 5557 0162 0B       		.uleb128 0xb
 5558 0163 3B       		.uleb128 0x3b
 5559 0164 05       		.uleb128 0x5
 5560 0165 49       		.uleb128 0x49
 5561 0166 13       		.uleb128 0x13
 5562 0167 02       		.uleb128 0x2
 5563 0168 18       		.uleb128 0x18
 5564 0169 00       		.byte	0
 5565 016a 00       		.byte	0
 5566 016b 18       		.uleb128 0x18
 5567 016c 2E       		.uleb128 0x2e
 5568 016d 01       		.byte	0x1
 5569 016e 3F       		.uleb128 0x3f
 5570 016f 19       		.uleb128 0x19
 5571 0170 03       		.uleb128 0x3
 5572 0171 0E       		.uleb128 0xe
 5573 0172 3A       		.uleb128 0x3a
 5574 0173 0B       		.uleb128 0xb
 5575 0174 3B       		.uleb128 0x3b
 5576 0175 05       		.uleb128 0x5
 5577 0176 11       		.uleb128 0x11
 5578 0177 01       		.uleb128 0x1
 5579 0178 12       		.uleb128 0x12
 5580 0179 06       		.uleb128 0x6
 5581 017a 40       		.uleb128 0x40
 5582 017b 18       		.uleb128 0x18
 5583 017c 9642     		.uleb128 0x2116
 5584 017e 19       		.uleb128 0x19
 5585 017f 01       		.uleb128 0x1
 5586 0180 13       		.uleb128 0x13
 5587 0181 00       		.byte	0
 5588 0182 00       		.byte	0
 5589 0183 19       		.uleb128 0x19
 5590 0184 05       		.uleb128 0x5
 5591 0185 00       		.byte	0
 5592 0186 03       		.uleb128 0x3
 5593 0187 0E       		.uleb128 0xe
 5594 0188 3A       		.uleb128 0x3a
 5595 0189 0B       		.uleb128 0xb
 5596 018a 3B       		.uleb128 0x3b
 5597 018b 05       		.uleb128 0x5
 5598 018c 49       		.uleb128 0x49
 5599 018d 13       		.uleb128 0x13
 5600 018e 02       		.uleb128 0x2
 5601 018f 18       		.uleb128 0x18
 5602 0190 00       		.byte	0
 5603 0191 00       		.byte	0
 5604 0192 1A       		.uleb128 0x1a
ARM GAS  C:\Users\MattiaCP\AppData\Local\Temp\ccVW8gGQ.s 			page 112


 5605 0193 2E       		.uleb128 0x2e
 5606 0194 01       		.byte	0x1
 5607 0195 3F       		.uleb128 0x3f
 5608 0196 19       		.uleb128 0x19
 5609 0197 03       		.uleb128 0x3
 5610 0198 0E       		.uleb128 0xe
 5611 0199 3A       		.uleb128 0x3a
 5612 019a 0B       		.uleb128 0xb
 5613 019b 3B       		.uleb128 0x3b
 5614 019c 05       		.uleb128 0x5
 5615 019d 27       		.uleb128 0x27
 5616 019e 19       		.uleb128 0x19
 5617 019f 49       		.uleb128 0x49
 5618 01a0 13       		.uleb128 0x13
 5619 01a1 11       		.uleb128 0x11
 5620 01a2 01       		.uleb128 0x1
 5621 01a3 12       		.uleb128 0x12
 5622 01a4 06       		.uleb128 0x6
 5623 01a5 40       		.uleb128 0x40
 5624 01a6 18       		.uleb128 0x18
 5625 01a7 9642     		.uleb128 0x2116
 5626 01a9 19       		.uleb128 0x19
 5627 01aa 01       		.uleb128 0x1
 5628 01ab 13       		.uleb128 0x13
 5629 01ac 00       		.byte	0
 5630 01ad 00       		.byte	0
 5631 01ae 1B       		.uleb128 0x1b
 5632 01af 2E       		.uleb128 0x2e
 5633 01b0 00       		.byte	0
 5634 01b1 3F       		.uleb128 0x3f
 5635 01b2 19       		.uleb128 0x19
 5636 01b3 03       		.uleb128 0x3
 5637 01b4 0E       		.uleb128 0xe
 5638 01b5 3A       		.uleb128 0x3a
 5639 01b6 0B       		.uleb128 0xb
 5640 01b7 3B       		.uleb128 0x3b
 5641 01b8 05       		.uleb128 0x5
 5642 01b9 11       		.uleb128 0x11
 5643 01ba 01       		.uleb128 0x1
 5644 01bb 12       		.uleb128 0x12
 5645 01bc 06       		.uleb128 0x6
 5646 01bd 40       		.uleb128 0x40
 5647 01be 18       		.uleb128 0x18
 5648 01bf 9642     		.uleb128 0x2116
 5649 01c1 19       		.uleb128 0x19
 5650 01c2 00       		.byte	0
 5651 01c3 00       		.byte	0
 5652 01c4 1C       		.uleb128 0x1c
 5653 01c5 2E       		.uleb128 0x2e
 5654 01c6 01       		.byte	0x1
 5655 01c7 3F       		.uleb128 0x3f
 5656 01c8 19       		.uleb128 0x19
 5657 01c9 03       		.uleb128 0x3
 5658 01ca 0E       		.uleb128 0xe
 5659 01cb 3A       		.uleb128 0x3a
 5660 01cc 0B       		.uleb128 0xb
 5661 01cd 3B       		.uleb128 0x3b
ARM GAS  C:\Users\MattiaCP\AppData\Local\Temp\ccVW8gGQ.s 			page 113


 5662 01ce 05       		.uleb128 0x5
 5663 01cf 49       		.uleb128 0x49
 5664 01d0 13       		.uleb128 0x13
 5665 01d1 11       		.uleb128 0x11
 5666 01d2 01       		.uleb128 0x1
 5667 01d3 12       		.uleb128 0x12
 5668 01d4 06       		.uleb128 0x6
 5669 01d5 40       		.uleb128 0x40
 5670 01d6 18       		.uleb128 0x18
 5671 01d7 9642     		.uleb128 0x2116
 5672 01d9 19       		.uleb128 0x19
 5673 01da 01       		.uleb128 0x1
 5674 01db 13       		.uleb128 0x13
 5675 01dc 00       		.byte	0
 5676 01dd 00       		.byte	0
 5677 01de 1D       		.uleb128 0x1d
 5678 01df 0F       		.uleb128 0xf
 5679 01e0 00       		.byte	0
 5680 01e1 0B       		.uleb128 0xb
 5681 01e2 0B       		.uleb128 0xb
 5682 01e3 49       		.uleb128 0x49
 5683 01e4 13       		.uleb128 0x13
 5684 01e5 00       		.byte	0
 5685 01e6 00       		.byte	0
 5686 01e7 1E       		.uleb128 0x1e
 5687 01e8 34       		.uleb128 0x34
 5688 01e9 00       		.byte	0
 5689 01ea 03       		.uleb128 0x3
 5690 01eb 0E       		.uleb128 0xe
 5691 01ec 3A       		.uleb128 0x3a
 5692 01ed 0B       		.uleb128 0xb
 5693 01ee 3B       		.uleb128 0x3b
 5694 01ef 05       		.uleb128 0x5
 5695 01f0 49       		.uleb128 0x49
 5696 01f1 13       		.uleb128 0x13
 5697 01f2 3F       		.uleb128 0x3f
 5698 01f3 19       		.uleb128 0x19
 5699 01f4 3C       		.uleb128 0x3c
 5700 01f5 19       		.uleb128 0x19
 5701 01f6 00       		.byte	0
 5702 01f7 00       		.byte	0
 5703 01f8 1F       		.uleb128 0x1f
 5704 01f9 35       		.uleb128 0x35
 5705 01fa 00       		.byte	0
 5706 01fb 49       		.uleb128 0x49
 5707 01fc 13       		.uleb128 0x13
 5708 01fd 00       		.byte	0
 5709 01fe 00       		.byte	0
 5710 01ff 20       		.uleb128 0x20
 5711 0200 34       		.uleb128 0x34
 5712 0201 00       		.byte	0
 5713 0202 03       		.uleb128 0x3
 5714 0203 0E       		.uleb128 0xe
 5715 0204 3A       		.uleb128 0x3a
 5716 0205 0B       		.uleb128 0xb
 5717 0206 3B       		.uleb128 0x3b
 5718 0207 0B       		.uleb128 0xb
ARM GAS  C:\Users\MattiaCP\AppData\Local\Temp\ccVW8gGQ.s 			page 114


 5719 0208 49       		.uleb128 0x49
 5720 0209 13       		.uleb128 0x13
 5721 020a 3F       		.uleb128 0x3f
 5722 020b 19       		.uleb128 0x19
 5723 020c 3C       		.uleb128 0x3c
 5724 020d 19       		.uleb128 0x19
 5725 020e 00       		.byte	0
 5726 020f 00       		.byte	0
 5727 0210 21       		.uleb128 0x21
 5728 0211 34       		.uleb128 0x34
 5729 0212 00       		.byte	0
 5730 0213 03       		.uleb128 0x3
 5731 0214 08       		.uleb128 0x8
 5732 0215 3A       		.uleb128 0x3a
 5733 0216 0B       		.uleb128 0xb
 5734 0217 3B       		.uleb128 0x3b
 5735 0218 0B       		.uleb128 0xb
 5736 0219 49       		.uleb128 0x49
 5737 021a 13       		.uleb128 0x13
 5738 021b 3F       		.uleb128 0x3f
 5739 021c 19       		.uleb128 0x19
 5740 021d 3C       		.uleb128 0x3c
 5741 021e 19       		.uleb128 0x19
 5742 021f 00       		.byte	0
 5743 0220 00       		.byte	0
 5744 0221 00       		.byte	0
 5745              		.section	.debug_aranges,"",%progbits
 5746 0000 C4000000 		.4byte	0xc4
 5747 0004 0200     		.2byte	0x2
 5748 0006 00000000 		.4byte	.Ldebug_info0
 5749 000a 04       		.byte	0x4
 5750 000b 00       		.byte	0
 5751 000c 0000     		.2byte	0
 5752 000e 0000     		.2byte	0
 5753 0010 00000000 		.4byte	.LFB64
 5754 0014 18000000 		.4byte	.LFE64-.LFB64
 5755 0018 00000000 		.4byte	.LFB65
 5756 001c DA000000 		.4byte	.LFE65-.LFB65
 5757 0020 00000000 		.4byte	.LFB66
 5758 0024 DA000000 		.4byte	.LFE66-.LFB66
 5759 0028 00000000 		.4byte	.LFB67
 5760 002c 20000000 		.4byte	.LFE67-.LFB67
 5761 0030 00000000 		.4byte	.LFB68
 5762 0034 7C020000 		.4byte	.LFE68-.LFB68
 5763 0038 00000000 		.4byte	.LFB69
 5764 003c A0000000 		.4byte	.LFE69-.LFB69
 5765 0040 00000000 		.4byte	.LFB70
 5766 0044 04010000 		.4byte	.LFE70-.LFB70
 5767 0048 00000000 		.4byte	.LFB71
 5768 004c 04010000 		.4byte	.LFE71-.LFB71
 5769 0050 00000000 		.4byte	.LFB72
 5770 0054 FC000000 		.4byte	.LFE72-.LFB72
 5771 0058 00000000 		.4byte	.LFB73
 5772 005c 7C000000 		.4byte	.LFE73-.LFB73
 5773 0060 00000000 		.4byte	.LFB74
 5774 0064 700A0000 		.4byte	.LFE74-.LFB74
 5775 0068 00000000 		.4byte	.LFB75
ARM GAS  C:\Users\MattiaCP\AppData\Local\Temp\ccVW8gGQ.s 			page 115


 5776 006c 80020000 		.4byte	.LFE75-.LFB75
 5777 0070 00000000 		.4byte	.LFB76
 5778 0074 5C000000 		.4byte	.LFE76-.LFB76
 5779 0078 00000000 		.4byte	.LFB77
 5780 007c 54000000 		.4byte	.LFE77-.LFB77
 5781 0080 00000000 		.4byte	.LFB78
 5782 0084 54000000 		.4byte	.LFE78-.LFB78
 5783 0088 00000000 		.4byte	.LFB79
 5784 008c 2C000000 		.4byte	.LFE79-.LFB79
 5785 0090 00000000 		.4byte	.LFB80
 5786 0094 46000000 		.4byte	.LFE80-.LFB80
 5787 0098 00000000 		.4byte	.LFB81
 5788 009c 1A000000 		.4byte	.LFE81-.LFB81
 5789 00a0 00000000 		.4byte	.LFB82
 5790 00a4 42000000 		.4byte	.LFE82-.LFB82
 5791 00a8 00000000 		.4byte	.LFB83
 5792 00ac 5C000000 		.4byte	.LFE83-.LFB83
 5793 00b0 00000000 		.4byte	.LFB84
 5794 00b4 4C000000 		.4byte	.LFE84-.LFB84
 5795 00b8 00000000 		.4byte	.LFB85
 5796 00bc 4C010000 		.4byte	.LFE85-.LFB85
 5797 00c0 00000000 		.4byte	0
 5798 00c4 00000000 		.4byte	0
 5799              		.section	.debug_ranges,"",%progbits
 5800              	.Ldebug_ranges0:
 5801 0000 00000000 		.4byte	.LFB64
 5802 0004 18000000 		.4byte	.LFE64
 5803 0008 00000000 		.4byte	.LFB65
 5804 000c DA000000 		.4byte	.LFE65
 5805 0010 00000000 		.4byte	.LFB66
 5806 0014 DA000000 		.4byte	.LFE66
 5807 0018 00000000 		.4byte	.LFB67
 5808 001c 20000000 		.4byte	.LFE67
 5809 0020 00000000 		.4byte	.LFB68
 5810 0024 7C020000 		.4byte	.LFE68
 5811 0028 00000000 		.4byte	.LFB69
 5812 002c A0000000 		.4byte	.LFE69
 5813 0030 00000000 		.4byte	.LFB70
 5814 0034 04010000 		.4byte	.LFE70
 5815 0038 00000000 		.4byte	.LFB71
 5816 003c 04010000 		.4byte	.LFE71
 5817 0040 00000000 		.4byte	.LFB72
 5818 0044 FC000000 		.4byte	.LFE72
 5819 0048 00000000 		.4byte	.LFB73
 5820 004c 7C000000 		.4byte	.LFE73
 5821 0050 00000000 		.4byte	.LFB74
 5822 0054 700A0000 		.4byte	.LFE74
 5823 0058 00000000 		.4byte	.LFB75
 5824 005c 80020000 		.4byte	.LFE75
 5825 0060 00000000 		.4byte	.LFB76
 5826 0064 5C000000 		.4byte	.LFE76
 5827 0068 00000000 		.4byte	.LFB77
 5828 006c 54000000 		.4byte	.LFE77
 5829 0070 00000000 		.4byte	.LFB78
 5830 0074 54000000 		.4byte	.LFE78
 5831 0078 00000000 		.4byte	.LFB79
 5832 007c 2C000000 		.4byte	.LFE79
ARM GAS  C:\Users\MattiaCP\AppData\Local\Temp\ccVW8gGQ.s 			page 116


 5833 0080 00000000 		.4byte	.LFB80
 5834 0084 46000000 		.4byte	.LFE80
 5835 0088 00000000 		.4byte	.LFB81
 5836 008c 1A000000 		.4byte	.LFE81
 5837 0090 00000000 		.4byte	.LFB82
 5838 0094 42000000 		.4byte	.LFE82
 5839 0098 00000000 		.4byte	.LFB83
 5840 009c 5C000000 		.4byte	.LFE83
 5841 00a0 00000000 		.4byte	.LFB84
 5842 00a4 4C000000 		.4byte	.LFE84
 5843 00a8 00000000 		.4byte	.LFB85
 5844 00ac 4C010000 		.4byte	.LFE85
 5845 00b0 00000000 		.4byte	0
 5846 00b4 00000000 		.4byte	0
 5847              		.section	.debug_line,"",%progbits
 5848              	.Ldebug_line0:
 5849 0000 36060000 		.section	.debug_str,"MS",%progbits,1
 5849      02006901 
 5849      00000201 
 5849      FB0E0D00 
 5849      01010101 
 5850              	.LASF132:
 5851 0000 4779726F 		.ascii	"Gyro\000"
 5851      00
 5852              	.LASF131:
 5853 0005 41636365 		.ascii	"Accel\000"
 5853      6C00
 5854              	.LASF86:
 5855 000b 636F756E 		.ascii	"count\000"
 5855      7400
 5856              	.LASF12:
 5857 0011 75696E74 		.ascii	"uint16\000"
 5857      313600
 5858              	.LASF122:
 5859 0018 635F6D65 		.ascii	"c_mem\000"
 5859      6D00
 5860              	.LASF54:
 5861 001e 6D61696E 		.ascii	"maint_month\000"
 5861      745F6D6F 
 5861      6E746800 
 5862              	.LASF112:
 5863 002a 72656164 		.ascii	"readValue\000"
 5863      56616C75 
 5863      6500
 5864              	.LASF75:
 5865 0034 73745F69 		.ascii	"st_imu\000"
 5865      6D7500
 5866              	.LASF68:
 5867 003b 746F7461 		.ascii	"total_time_on\000"
 5867      6C5F7469 
 5867      6D655F6F 
 5867      6E00
 5868              	.LASF36:
 5869 0049 6D5F6F66 		.ascii	"m_off\000"
 5869      6600
 5870              	.LASF110:
 5871 004f 52656164 		.ascii	"ReadControlRegister\000"
ARM GAS  C:\Users\MattiaCP\AppData\Local\Temp\ccVW8gGQ.s 			page 117


 5871      436F6E74 
 5871      726F6C52 
 5871      65676973 
 5871      74657200 
 5872              	.LASF136:
 5873 0063 474E5520 		.ascii	"GNU C11 5.4.1 20160609 (release) [ARM/embedded-5-br"
 5873      43313120 
 5873      352E342E 
 5873      31203230 
 5873      31363036 
 5874 0096 616E6368 		.ascii	"anch revision 237715] -mcpu=cortex-m3 -mthumb -g -O"
 5874      20726576 
 5874      6973696F 
 5874      6E203233 
 5874      37373135 
 5875 00c9 30202D66 		.ascii	"0 -ffunction-sections -ffat-lto-objects\000"
 5875      66756E63 
 5875      74696F6E 
 5875      2D736563 
 5875      74696F6E 
 5876              	.LASF130:
 5877 00f1 675F696D 		.ascii	"g_imuNew\000"
 5877      754E6577 
 5877      00
 5878              	.LASF7:
 5879 00fa 6C6F6E67 		.ascii	"long long unsigned int\000"
 5879      206C6F6E 
 5879      6720756E 
 5879      7369676E 
 5879      65642069 
 5880              	.LASF52:
 5881 0111 62617564 		.ascii	"baud_rate\000"
 5881      5F726174 
 5881      6500
 5882              	.LASF57:
 5883 011b 72657374 		.ascii	"rest_delay\000"
 5883      5F64656C 
 5883      617900
 5884              	.LASF121:
 5885 0126 49544D5F 		.ascii	"ITM_RxBuffer\000"
 5885      52784275 
 5885      66666572 
 5885      00
 5886              	.LASF58:
 5887 0133 72657374 		.ascii	"rest_vel\000"
 5887      5F76656C 
 5887      00
 5888              	.LASF44:
 5889 013c 656D675F 		.ascii	"emg_threshold\000"
 5889      74687265 
 5889      73686F6C 
 5889      6400
 5890              	.LASF6:
 5891 014a 6C6F6E67 		.ascii	"long long int\000"
 5891      206C6F6E 
 5891      6720696E 
 5891      7400
ARM GAS  C:\Users\MattiaCP\AppData\Local\Temp\ccVW8gGQ.s 			page 118


 5892              	.LASF0:
 5893 0158 7369676E 		.ascii	"signed char\000"
 5893      65642063 
 5893      68617200 
 5894              	.LASF41:
 5895 0164 6D61785F 		.ascii	"max_step_neg\000"
 5895      73746570 
 5895      5F6E6567 
 5895      00
 5896              	.LASF123:
 5897 0171 74696D65 		.ascii	"timer_value\000"
 5897      725F7661 
 5897      6C756500 
 5898              	.LASF113:
 5899 017d 44533133 		.ascii	"DS1302_readByte\000"
 5899      30325F72 
 5899      65616442 
 5899      79746500 
 5900              	.LASF16:
 5901 018d 696E7433 		.ascii	"int32\000"
 5901      3200
 5902              	.LASF4:
 5903 0193 6C6F6E67 		.ascii	"long int\000"
 5903      20696E74 
 5903      00
 5904              	.LASF125:
 5905 019c 4E5F494D 		.ascii	"N_IMU_Connected\000"
 5905      555F436F 
 5905      6E6E6563 
 5905      74656400 
 5906              	.LASF87:
 5907 01ac 494D555F 		.ascii	"IMU_ack\000"
 5907      61636B00 
 5908              	.LASF104:
 5909 01b4 61646472 		.ascii	"address\000"
 5909      65737300 
 5910              	.LASF133:
 5911 01bc 4D616743 		.ascii	"MagCal\000"
 5911      616C00
 5912              	.LASF67:
 5913 01c3 77697265 		.ascii	"wire_disp\000"
 5913      5F646973 
 5913      7000
 5914              	.LASF77:
 5915 01cd 61636365 		.ascii	"accel_value\000"
 5915      6C5F7661 
 5915      6C756500 
 5916              	.LASF35:
 5917 01d9 636F6E74 		.ascii	"control_mode\000"
 5917      726F6C5F 
 5917      6D6F6465 
 5917      00
 5918              	.LASF71:
 5919 01e6 756E7573 		.ascii	"unused_bytes1\000"
 5919      65645F62 
 5919      79746573 
 5919      3100
ARM GAS  C:\Users\MattiaCP\AppData\Local\Temp\ccVW8gGQ.s 			page 119


 5920              	.LASF50:
 5921 01f4 61637469 		.ascii	"activate_pwm_rescaling\000"
 5921      76617465 
 5921      5F70776D 
 5921      5F726573 
 5921      63616C69 
 5922              	.LASF74:
 5923 020b 73745F6D 		.ascii	"st_mem\000"
 5923      656D00
 5924              	.LASF119:
 5925 0212 63757272 		.ascii	"currBit\000"
 5925      42697400 
 5926              	.LASF13:
 5927 021a 75696E74 		.ascii	"uint32\000"
 5927      333200
 5928              	.LASF127:
 5929 0221 696D7573 		.ascii	"imus_data_size\000"
 5929      5F646174 
 5929      615F7369 
 5929      7A6500
 5930              	.LASF30:
 5931 0230 6B5F705F 		.ascii	"k_p_c_dl\000"
 5931      635F646C 
 5931      00
 5932              	.LASF61:
 5933 0239 73776974 		.ascii	"switch_emg\000"
 5933      63685F65 
 5933      6D6700
 5934              	.LASF120:
 5935 0244 64617461 		.ascii	"data_encoder\000"
 5935      5F656E63 
 5935      6F646572 
 5935      00
 5936              	.LASF34:
 5937 0251 696E7075 		.ascii	"input_mode\000"
 5937      745F6D6F 
 5937      646500
 5938              	.LASF114:
 5939 025c 76616C75 		.ascii	"value\000"
 5939      6500
 5940              	.LASF49:
 5941 0262 6D6F746F 		.ascii	"motor_handle_ratio\000"
 5941      725F6861 
 5941      6E646C65 
 5941      5F726174 
 5941      696F00
 5942              	.LASF129:
 5943 0275 675F696D 		.ascii	"g_imu\000"
 5943      7500
 5944              	.LASF8:
 5945 027b 756E7369 		.ascii	"unsigned int\000"
 5945      676E6564 
 5945      20696E74 
 5945      00
 5946              	.LASF97:
 5947 0288 7661725F 		.ascii	"var_h\000"
 5947      6800
ARM GAS  C:\Users\MattiaCP\AppData\Local\Temp\ccVW8gGQ.s 			page 120


 5948              	.LASF28:
 5949 028e 6B5F695F 		.ascii	"k_i_dl\000"
 5949      646C00
 5950              	.LASF83:
 5951 0295 496E6974 		.ascii	"InitIMU\000"
 5951      494D5500 
 5952              	.LASF5:
 5953 029d 6C6F6E67 		.ascii	"long unsigned int\000"
 5953      20756E73 
 5953      69676E65 
 5953      6420696E 
 5953      7400
 5954              	.LASF92:
 5955 02af 52656164 		.ascii	"ReadGyro\000"
 5955      4779726F 
 5955      00
 5956              	.LASF128:
 5957 02b8 73696E67 		.ascii	"single_imu_size\000"
 5957      6C655F69 
 5957      6D755F73 
 5957      697A6500 
 5958              	.LASF11:
 5959 02c8 75696E74 		.ascii	"uint8\000"
 5959      3800
 5960              	.LASF138:
 5961 02ce 433A5C55 		.ascii	"C:\\Users\\MattiaCP\\Dropbox (workgroup)\\Personal\\"
 5961      73657273 
 5961      5C4D6174 
 5961      74696143 
 5961      505C4472 
 5962 02fd 4D617474 		.ascii	"Mattia Poggiani\\FIRMWARES (local)\\SoftPro firmwar"
 5962      69612050 
 5962      6F676769 
 5962      616E695C 
 5962      4649524D 
 5963 032e 65202850 		.ascii	"e (PSoC5)\\firmware.cydsn\000"
 5963      536F4335 
 5963      295C6669 
 5963      726D7761 
 5963      72652E63 
 5964              	.LASF3:
 5965 0347 73686F72 		.ascii	"short unsigned int\000"
 5965      7420756E 
 5965      7369676E 
 5965      65642069 
 5965      6E7400
 5966              	.LASF135:
 5967 035a 51756174 		.ascii	"Quat\000"
 5967      00
 5968              	.LASF111:
 5969 035f 44533133 		.ascii	"DS1302_read\000"
 5969      30325F72 
 5969      65616400 
 5970              	.LASF14:
 5971 036b 696E7438 		.ascii	"int8\000"
 5971      00
 5972              	.LASF117:
ARM GAS  C:\Users\MattiaCP\AppData\Local\Temp\ccVW8gGQ.s 			page 121


 5973 0370 656E636F 		.ascii	"encoder_read\000"
 5973      6465725F 
 5973      72656164 
 5973      00
 5974              	.LASF39:
 5975 037d 706F735F 		.ascii	"pos_lim_inf\000"
 5975      6C696D5F 
 5975      696E6600 
 5976              	.LASF62:
 5977 0389 756E7573 		.ascii	"unused_bytes\000"
 5977      65645F62 
 5977      79746573 
 5977      00
 5978              	.LASF126:
 5979 0396 494D555F 		.ascii	"IMU_connected\000"
 5979      636F6E6E 
 5979      65637465 
 5979      6400
 5980              	.LASF78:
 5981 03a4 6779726F 		.ascii	"gyro_value\000"
 5981      5F76616C 
 5981      756500
 5982              	.LASF82:
 5983 03af 496D7573 		.ascii	"ImusReset\000"
 5983      52657365 
 5983      7400
 5984              	.LASF64:
 5985 03b9 706F7369 		.ascii	"position_hist\000"
 5985      74696F6E 
 5985      5F686973 
 5985      7400
 5986              	.LASF9:
 5987 03c7 5F5F696E 		.ascii	"__int32_t\000"
 5987      7433325F 
 5987      7400
 5988              	.LASF26:
 5989 03d1 6B5F645F 		.ascii	"k_d_c\000"
 5989      6300
 5990              	.LASF109:
 5991 03d7 44533133 		.ascii	"DS1302_writeByte\000"
 5991      30325F77 
 5991      72697465 
 5991      42797465 
 5991      00
 5992              	.LASF73:
 5993 03e8 494D555F 		.ascii	"IMU_conf\000"
 5993      636F6E66 
 5993      00
 5994              	.LASF79:
 5995 03f1 6D61675F 		.ascii	"mag_value\000"
 5995      76616C75 
 5995      6500
 5996              	.LASF17:
 5997 03fb 666C6F61 		.ascii	"float32\000"
 5997      74333200 
 5998              	.LASF103:
 5999 0403 57726974 		.ascii	"WriteControlRegister\000"
ARM GAS  C:\Users\MattiaCP\AppData\Local\Temp\ccVW8gGQ.s 			page 122


 5999      65436F6E 
 5999      74726F6C 
 5999      52656769 
 5999      73746572 
 6000              	.LASF22:
 6001 0418 73697A65 		.ascii	"sizetype\000"
 6001      74797065 
 6001      00
 6002              	.LASF84:
 6003 0421 496E6974 		.ascii	"InitIMUMagCal\000"
 6003      494D554D 
 6003      61674361 
 6003      6C00
 6004              	.LASF21:
 6005 042f 6C6F6E67 		.ascii	"long double\000"
 6005      20646F75 
 6005      626C6500 
 6006              	.LASF93:
 6007 043b 52656164 		.ascii	"ReadMag\000"
 6007      4D616700 
 6008              	.LASF118:
 6009 0443 63757272 		.ascii	"currValue\000"
 6009      56616C75 
 6009      6500
 6010              	.LASF56:
 6011 044d 72657374 		.ascii	"rest_pos\000"
 6011      5F706F73 
 6011      00
 6012              	.LASF40:
 6013 0456 706F735F 		.ascii	"pos_lim_sup\000"
 6013      6C696D5F 
 6013      73757000 
 6014              	.LASF99:
 6015 0462 74696D65 		.ascii	"time\000"
 6015      00
 6016              	.LASF89:
 6017 0467 52656164 		.ascii	"ReadIMU\000"
 6017      494D5500 
 6018              	.LASF65:
 6019 046f 63757272 		.ascii	"current_hist\000"
 6019      656E745F 
 6019      68697374 
 6019      00
 6020              	.LASF70:
 6021 047c 63757272 		.ascii	"curr_time\000"
 6021      5F74696D 
 6021      6500
 6022              	.LASF107:
 6023 0486 44533133 		.ascii	"DS1302_write\000"
 6023      30325F77 
 6023      72697465 
 6023      00
 6024              	.LASF33:
 6025 0493 61637469 		.ascii	"activ\000"
 6025      7600
 6026              	.LASF115:
 6027 0499 63757272 		.ascii	"currentBit\000"
ARM GAS  C:\Users\MattiaCP\AppData\Local\Temp\ccVW8gGQ.s 			page 123


 6027      656E7442 
 6027      697400
 6028              	.LASF108:
 6029 04a4 64617461 		.ascii	"data_wr\000"
 6029      5F777200 
 6030              	.LASF10:
 6031 04ac 696E7433 		.ascii	"int32_t\000"
 6031      325F7400 
 6032              	.LASF1:
 6033 04b4 756E7369 		.ascii	"unsigned char\000"
 6033      676E6564 
 6033      20636861 
 6033      7200
 6034              	.LASF37:
 6035 04c2 6D5F6D75 		.ascii	"m_mult\000"
 6035      6C7400
 6036              	.LASF2:
 6037 04c9 73686F72 		.ascii	"short int\000"
 6037      7420696E 
 6037      7400
 6038              	.LASF53:
 6039 04d3 6D61696E 		.ascii	"maint_day\000"
 6039      745F6461 
 6039      7900
 6040              	.LASF80:
 6041 04dd 71756174 		.ascii	"quat_value\000"
 6041      5F76616C 
 6041      756500
 6042              	.LASF23:
 6043 04e8 666C6167 		.ascii	"flag\000"
 6043      00
 6044              	.LASF24:
 6045 04ed 6B5F705F 		.ascii	"k_p_c\000"
 6045      6300
 6046              	.LASF43:
 6047 04f3 63757272 		.ascii	"current_limit\000"
 6047      656E745F 
 6047      6C696D69 
 6047      7400
 6048              	.LASF55:
 6049 0501 6D61696E 		.ascii	"maint_year\000"
 6049      745F7965 
 6049      617200
 6050              	.LASF63:
 6051 050c 656D675F 		.ascii	"emg_counter\000"
 6051      636F756E 
 6051      74657200 
 6052              	.LASF15:
 6053 0518 696E7431 		.ascii	"int16\000"
 6053      3600
 6054              	.LASF38:
 6055 051e 706F735F 		.ascii	"pos_lim_flag\000"
 6055      6C696D5F 
 6055      666C6167 
 6055      00
 6056              	.LASF42:
 6057 052b 6D61785F 		.ascii	"max_step_pos\000"
ARM GAS  C:\Users\MattiaCP\AppData\Local\Temp\ccVW8gGQ.s 			page 124


 6057      73746570 
 6057      5F706F73 
 6057      00
 6058              	.LASF69:
 6059 0538 746F7461 		.ascii	"total_time_rest\000"
 6059      6C5F7469 
 6059      6D655F72 
 6059      65737400 
 6060              	.LASF72:
 6061 0548 5350495F 		.ascii	"SPI_read_delay\000"
 6061      72656164 
 6061      5F64656C 
 6061      617900
 6062              	.LASF66:
 6063 0557 72657374 		.ascii	"rest_counter\000"
 6063      5F636F75 
 6063      6E746572 
 6063      00
 6064              	.LASF106:
 6065 0564 5350495F 		.ascii	"SPI_delay\000"
 6065      64656C61 
 6065      7900
 6066              	.LASF96:
 6067 056e 52656164 		.ascii	"ReadQuat\000"
 6067      51756174 
 6067      00
 6068              	.LASF18:
 6069 0577 666C6F61 		.ascii	"float\000"
 6069      7400
 6070              	.LASF116:
 6071 057d 73686966 		.ascii	"shiftOut_RTC\000"
 6071      744F7574 
 6071      5F525443 
 6071      00
 6072              	.LASF20:
 6073 058a 63686172 		.ascii	"char\000"
 6073      00
 6074              	.LASF60:
 6075 058f 72657374 		.ascii	"rest_position_flag\000"
 6075      5F706F73 
 6075      6974696F 
 6075      6E5F666C 
 6075      616700
 6076              	.LASF88:
 6077 05a2 43686970 		.ascii	"ChipSelector\000"
 6077      53656C65 
 6077      63746F72 
 6077      00
 6078              	.LASF29:
 6079 05af 6B5F645F 		.ascii	"k_d_dl\000"
 6079      646C00
 6080              	.LASF100:
 6081 05b6 496E6974 		.ascii	"InitIMUgeneral\000"
 6081      494D5567 
 6081      656E6572 
 6081      616C00
 6082              	.LASF91:
ARM GAS  C:\Users\MattiaCP\AppData\Local\Temp\ccVW8gGQ.s 			page 125


 6083 05c5 68696768 		.ascii	"high\000"
 6083      00
 6084              	.LASF31:
 6085 05ca 6B5F695F 		.ascii	"k_i_c_dl\000"
 6085      635F646C 
 6085      00
 6086              	.LASF85:
 6087 05d3 6B5F696D 		.ascii	"k_imu\000"
 6087      7500
 6088              	.LASF101:
 6089 05d9 52656164 		.ascii	"ReadAllIMUs\000"
 6089      416C6C49 
 6089      4D557300 
 6090              	.LASF45:
 6091 05e5 656D675F 		.ascii	"emg_calibration_flag\000"
 6091      63616C69 
 6091      62726174 
 6091      696F6E5F 
 6091      666C6167 
 6092              	.LASF51:
 6093 05fa 63757272 		.ascii	"curr_lookup\000"
 6093      5F6C6F6F 
 6093      6B757000 
 6094              	.LASF102:
 6095 0606 52656164 		.ascii	"ReadTemp\000"
 6095      54656D70 
 6095      00
 6096              	.LASF47:
 6097 060f 656D675F 		.ascii	"emg_speed\000"
 6097      73706565 
 6097      6400
 6098              	.LASF46:
 6099 0619 656D675F 		.ascii	"emg_max_value\000"
 6099      6D61785F 
 6099      76616C75 
 6099      6500
 6100              	.LASF124:
 6101 0627 74696D65 		.ascii	"timer_value0\000"
 6101      725F7661 
 6101      6C756530 
 6101      00
 6102              	.LASF32:
 6103 0634 6B5F645F 		.ascii	"k_d_c_dl\000"
 6103      635F646C 
 6103      00
 6104              	.LASF76:
 6105 063d 666C6167 		.ascii	"flags\000"
 6105      7300
 6106              	.LASF81:
 6107 0643 74656D70 		.ascii	"temp_value\000"
 6107      5F76616C 
 6107      756500
 6108              	.LASF137:
 6109 064e 2E2E5C73 		.ascii	"..\\src\\SPI_functions.c\000"
 6109      72635C53 
 6109      50495F66 
 6109      756E6374 
ARM GAS  C:\Users\MattiaCP\AppData\Local\Temp\ccVW8gGQ.s 			page 126


 6109      696F6E73 
 6110              	.LASF95:
 6111 0665 72656164 		.ascii	"read\000"
 6111      00
 6112              	.LASF94:
 6113 066a 52656164 		.ascii	"ReadMagCal\000"
 6113      4D616743 
 6113      616C00
 6114              	.LASF59:
 6115 0675 72657374 		.ascii	"rest_ratio\000"
 6115      5F726174 
 6115      696F00
 6116              	.LASF134:
 6117 0680 54656D70 		.ascii	"Temp\000"
 6117      00
 6118              	.LASF90:
 6119 0685 52656164 		.ascii	"ReadAcc\000"
 6119      41636300 
 6120              	.LASF98:
 6121 068d 4E61706C 		.ascii	"Napla\000"
 6121      6100
 6122              	.LASF48:
 6123 0693 646F7562 		.ascii	"double_encoder_on_off\000"
 6123      6C655F65 
 6123      6E636F64 
 6123      65725F6F 
 6123      6E5F6F66 
 6124              	.LASF25:
 6125 06a9 6B5F695F 		.ascii	"k_i_c\000"
 6125      6300
 6126              	.LASF19:
 6127 06af 646F7562 		.ascii	"double\000"
 6127      6C6500
 6128              	.LASF105:
 6129 06b6 636F6E74 		.ascii	"controlreg\000"
 6129      726F6C72 
 6129      656700
 6130              	.LASF27:
 6131 06c1 6B5F705F 		.ascii	"k_p_dl\000"
 6131      646C00
 6132              		.ident	"GCC: (GNU Tools for ARM Embedded Processors) 5.4.1 20160609 (release) [ARM/embedded-5-bran
