ARM GAS  C:\Users\MattiaCP\AppData\Local\Temp\ccVW8gGQ.s 			page 1


   1              		.syntax unified
   2              		.cpu cortex-m3
   3              		.fpu softvfp
   4              		.eabi_attribute 20, 1
   5              		.eabi_attribute 21, 1
   6              		.eabi_attribute 23, 3
   7              		.eabi_attribute 24, 1
   8              		.eabi_attribute 25, 1
   9              		.eabi_attribute 26, 1
  10              		.eabi_attribute 30, 6
  11              		.eabi_attribute 34, 1
  12              		.eabi_attribute 18, 4
  13              		.thumb
  14              		.syntax unified
  15              		.file	"SPI_functions.c"
  16              		.text
  17              	.Ltext0:
  18              		.cfi_sections	.debug_frame
  19              		.section	.text.ImusReset,"ax",%progbits
  20              		.align	2
  21              		.global	ImusReset
  22              		.thumb
  23              		.thumb_func
  24              		.type	ImusReset, %function
  25              	ImusReset:
  26              	.LFB64:
  27              		.file 1 "..\\src\\SPI_functions.c"
   1:..\src/SPI_functions.c **** // ----------------------------------------------------------------------------
   2:..\src/SPI_functions.c **** // BSD 3-Clause License
   3:..\src/SPI_functions.c **** 
   4:..\src/SPI_functions.c **** // Copyright (c) 2016, qbrobotics
   5:..\src/SPI_functions.c **** // Copyright (c) 2017-2018, Centro "E.Piaggio"
   6:..\src/SPI_functions.c **** // All rights reserved.
   7:..\src/SPI_functions.c **** 
   8:..\src/SPI_functions.c **** // Redistribution and use in source and binary forms, with or without
   9:..\src/SPI_functions.c **** // modification, are permitted provided that the following conditions are met:
  10:..\src/SPI_functions.c **** 
  11:..\src/SPI_functions.c **** // * Redistributions of source code must retain the above copyright notice, this
  12:..\src/SPI_functions.c **** //   list of conditions and the following disclaimer.
  13:..\src/SPI_functions.c **** 
  14:..\src/SPI_functions.c **** // * Redistributions in binary form must reproduce the above copyright notice,
  15:..\src/SPI_functions.c **** //   this list of conditions and the following disclaimer in the documentation
  16:..\src/SPI_functions.c **** //   and/or other materials provided with the distribution.
  17:..\src/SPI_functions.c **** 
  18:..\src/SPI_functions.c **** // * Neither the name of the copyright holder nor the names of its
  19:..\src/SPI_functions.c **** //   contributors may be used to endorse or promote products derived from
  20:..\src/SPI_functions.c **** //   this software without specific prior written permission.
  21:..\src/SPI_functions.c **** 
  22:..\src/SPI_functions.c **** // THIS SOFTWARE IS PROVIDED BY THE COPYRIGHT HOLDERS AND CONTRIBUTORS "AS IS"
  23:..\src/SPI_functions.c **** // AND ANY EXPRESS OR IMPLIED WARRANTIES, INCLUDING, BUT NOT LIMITED TO, THE
  24:..\src/SPI_functions.c **** // IMPLIED WARRANTIES OF MERCHANTABILITY AND FITNESS FOR A PARTICULAR PURPOSE ARE
  25:..\src/SPI_functions.c **** // DISCLAIMED. IN NO EVENT SHALL THE COPYRIGHT HOLDER OR CONTRIBUTORS BE LIABLE
  26:..\src/SPI_functions.c **** // FOR ANY DIRECT, INDIRECT, INCIDENTAL, SPECIAL, EXEMPLARY, OR CONSEQUENTIAL
  27:..\src/SPI_functions.c **** // DAMAGES (INCLUDING, BUT NOT LIMITED TO, PROCUREMENT OF SUBSTITUTE GOODS OR
  28:..\src/SPI_functions.c **** // SERVICES; LOSS OF USE, DATA, OR PROFITS; OR BUSINESS INTERRUPTION) HOWEVER
  29:..\src/SPI_functions.c **** // CAUSED AND ON ANY THEORY OF LIABILITY, WHETHER IN CONTRACT, STRICT LIABILITY,
  30:..\src/SPI_functions.c **** // OR TORT (INCLUDING NEGLIGENCE OR OTHERWISE) ARISING IN ANY WAY OUT OF THE USE
ARM GAS  C:\Users\MattiaCP\AppData\Local\Temp\ccVW8gGQ.s 			page 2


  31:..\src/SPI_functions.c **** // OF THIS SOFTWARE, EVEN IF ADVISED OF THE POSSIBILITY OF SUCH DAMAGE.
  32:..\src/SPI_functions.c **** // POSSIBILITY OF SUCH DAMAGE.
  33:..\src/SPI_functions.c **** // ----------------------------------------------------------------------------
  34:..\src/SPI_functions.c **** 
  35:..\src/SPI_functions.c **** /**
  36:..\src/SPI_functions.c **** * \file         SPI_functions.c
  37:..\src/SPI_functions.c **** *
  38:..\src/SPI_functions.c **** * \brief        Implementation of SPI module functions.
  39:..\src/SPI_functions.c **** * \date         February 01, 2018
  40:..\src/SPI_functions.c **** * \author       _Centro "E.Piaggio"_
  41:..\src/SPI_functions.c **** * \copyright    (C) 2012-2016 qbrobotics. All rights reserved.
  42:..\src/SPI_functions.c **** * \copyright    (C) 2017-2018 Centro "E.Piaggio". All rights reserved.
  43:..\src/SPI_functions.c **** */
  44:..\src/SPI_functions.c **** 
  45:..\src/SPI_functions.c **** #include "SPI_functions.h"
  46:..\src/SPI_functions.c **** #include "utils.h"
  47:..\src/SPI_functions.c **** #include <SPI_IMU.h>
  48:..\src/SPI_functions.c **** 
  49:..\src/SPI_functions.c **** extern uint8 Accel[N_IMU_MAX][6];
  50:..\src/SPI_functions.c **** extern uint8 Gyro[N_IMU_MAX][6];
  51:..\src/SPI_functions.c **** extern uint8 Mag[N_IMU_MAX][6];
  52:..\src/SPI_functions.c **** extern uint8 MagCal[N_IMU_MAX][3];
  53:..\src/SPI_functions.c **** 
  54:..\src/SPI_functions.c **** /*******************************************************************************
  55:..\src/SPI_functions.c **** * Function Name: Imus Reset
  56:..\src/SPI_functions.c **** *********************************************************************************/	
  57:..\src/SPI_functions.c **** void ImusReset() {
  28              		.loc 1 57 0
  29              		.cfi_startproc
  30              		@ args = 0, pretend = 0, frame = 0
  31              		@ frame_needed = 1, uses_anonymous_args = 0
  32 0000 80B5     		push	{r7, lr}
  33              		.cfi_def_cfa_offset 8
  34              		.cfi_offset 7, -8
  35              		.cfi_offset 14, -4
  36 0002 00AF     		add	r7, sp, #0
  37              		.cfi_def_cfa_register 7
  58:..\src/SPI_functions.c **** 
  59:..\src/SPI_functions.c ****     CyDelay(10);
  38              		.loc 1 59 0
  39 0004 0A20     		movs	r0, #10
  40 0006 FFF7FEFF 		bl	CyDelay
  60:..\src/SPI_functions.c ****     InitIMUgeneral();
  41              		.loc 1 60 0
  42 000a FFF7FEFF 		bl	InitIMUgeneral
  61:..\src/SPI_functions.c **** 
  62:..\src/SPI_functions.c ****     CyDelay(10);
  43              		.loc 1 62 0
  44 000e 0A20     		movs	r0, #10
  45 0010 FFF7FEFF 		bl	CyDelay
  63:..\src/SPI_functions.c ****     
  64:..\src/SPI_functions.c **** }
  46              		.loc 1 64 0
  47 0014 00BF     		nop
  48 0016 80BD     		pop	{r7, pc}
  49              		.cfi_endproc
  50              	.LFE64:
ARM GAS  C:\Users\MattiaCP\AppData\Local\Temp\ccVW8gGQ.s 			page 3


  51              		.size	ImusReset, .-ImusReset
  52              		.section	.text.InitIMU,"ax",%progbits
  53              		.align	2
  54              		.global	InitIMU
  55              		.thumb
  56              		.thumb_func
  57              		.type	InitIMU, %function
  58              	InitIMU:
  59              	.LFB65:
  65:..\src/SPI_functions.c **** 
  66:..\src/SPI_functions.c **** /*******************************************************************************
  67:..\src/SPI_functions.c **** * Function Name: IMU Initialization
  68:..\src/SPI_functions.c **** *********************************************************************************/
  69:..\src/SPI_functions.c **** void InitIMU(){	
  60              		.loc 1 69 0
  61              		.cfi_startproc
  62              		@ args = 0, pretend = 0, frame = 0
  63              		@ frame_needed = 1, uses_anonymous_args = 0
  64 0000 80B5     		push	{r7, lr}
  65              		.cfi_def_cfa_offset 8
  66              		.cfi_offset 7, -8
  67              		.cfi_offset 14, -4
  68 0002 00AF     		add	r7, sp, #0
  69              		.cfi_def_cfa_register 7
  70:..\src/SPI_functions.c ****     
  71:..\src/SPI_functions.c **** 	WriteControlRegister(MPU9250_PWR_MGMT_1, 0x10); 
  70              		.loc 1 71 0
  71 0004 1021     		movs	r1, #16
  72 0006 6B20     		movs	r0, #107
  73 0008 FFF7FEFF 		bl	WriteControlRegister
  72:..\src/SPI_functions.c **** 	CyDelay(10);	
  74              		.loc 1 72 0
  75 000c 0A20     		movs	r0, #10
  76 000e FFF7FEFF 		bl	CyDelay
  73:..\src/SPI_functions.c **** 	WriteControlRegister(MPU9250_USER_CTRL, 0x20);  //I2C master enable - disable I2C (prima 0x30)
  77              		.loc 1 73 0
  78 0012 2021     		movs	r1, #32
  79 0014 6A20     		movs	r0, #106
  80 0016 FFF7FEFF 		bl	WriteControlRegister
  74:..\src/SPI_functions.c **** 	CyDelay(10);
  81              		.loc 1 74 0
  82 001a 0A20     		movs	r0, #10
  83 001c FFF7FEFF 		bl	CyDelay
  75:..\src/SPI_functions.c ****     WriteControlRegister(MPU9250_CONFIG, 0x06); //Gyro & Temp Low Pass Filter 0x01 = 184Hz, 0x02 = 
  84              		.loc 1 75 0
  85 0020 0621     		movs	r1, #6
  86 0022 1A20     		movs	r0, #26
  87 0024 FFF7FEFF 		bl	WriteControlRegister
  76:..\src/SPI_functions.c ****     CyDelay(10);	
  88              		.loc 1 76 0
  89 0028 0A20     		movs	r0, #10
  90 002a FFF7FEFF 		bl	CyDelay
  77:..\src/SPI_functions.c **** 	WriteControlRegister(MPU9250_GYRO_CONFIG , GYRO_SF_2000); //Gyro full scale select 0x00=250°/s 0x
  91              		.loc 1 77 0
  92 002e 1821     		movs	r1, #24
  93 0030 1B20     		movs	r0, #27
  94 0032 FFF7FEFF 		bl	WriteControlRegister
ARM GAS  C:\Users\MattiaCP\AppData\Local\Temp\ccVW8gGQ.s 			page 4


  78:..\src/SPI_functions.c **** 	CyDelay(10);
  95              		.loc 1 78 0
  96 0036 0A20     		movs	r0, #10
  97 0038 FFF7FEFF 		bl	CyDelay
  79:..\src/SPI_functions.c ****     WriteControlRegister(MPU9250_ACCEL_CONFIG, ACC_SF_2G); // Acc full scale select 0x00 = 2g 0x08 
  98              		.loc 1 79 0
  99 003c 0021     		movs	r1, #0
 100 003e 1C20     		movs	r0, #28
 101 0040 FFF7FEFF 		bl	WriteControlRegister
  80:..\src/SPI_functions.c ****     CyDelay(10);
 102              		.loc 1 80 0
 103 0044 0A20     		movs	r0, #10
 104 0046 FFF7FEFF 		bl	CyDelay
  81:..\src/SPI_functions.c ****     WriteControlRegister(MPU9250_ACCEL_CONFIG2, LP_ACC_FREQ_10);   
 105              		.loc 1 81 0
 106 004a 0521     		movs	r1, #5
 107 004c 1D20     		movs	r0, #29
 108 004e FFF7FEFF 		bl	WriteControlRegister
  82:..\src/SPI_functions.c ****     CyDelay(10);
 109              		.loc 1 82 0
 110 0052 0A20     		movs	r0, #10
 111 0054 FFF7FEFF 		bl	CyDelay
  83:..\src/SPI_functions.c **** 	//mag register
  84:..\src/SPI_functions.c **** 	WriteControlRegister(MPU9250_I2C_MST_CTRL, 0x0D); //set slave I2C speed
 112              		.loc 1 84 0
 113 0058 0D21     		movs	r1, #13
 114 005a 2420     		movs	r0, #36
 115 005c FFF7FEFF 		bl	WriteControlRegister
  85:..\src/SPI_functions.c **** 	CyDelay(10);
 116              		.loc 1 85 0
 117 0060 0A20     		movs	r0, #10
 118 0062 FFF7FEFF 		bl	CyDelay
  86:..\src/SPI_functions.c **** 	//SLV0 (use to write)
  87:..\src/SPI_functions.c **** 	WriteControlRegister(MPU9250_I2C_SLV0_ADDR, 0x0C); //set compass address
 119              		.loc 1 87 0
 120 0066 0C21     		movs	r1, #12
 121 0068 2520     		movs	r0, #37
 122 006a FFF7FEFF 		bl	WriteControlRegister
  88:..\src/SPI_functions.c **** 	CyDelay(10);			
 123              		.loc 1 88 0
 124 006e 0A20     		movs	r0, #10
 125 0070 FFF7FEFF 		bl	CyDelay
  89:..\src/SPI_functions.c **** 	WriteControlRegister(MPU9250_I2C_SLV0_REG, AK8936_CNTL); //compass mode register
 126              		.loc 1 89 0
 127 0074 0A21     		movs	r1, #10
 128 0076 2620     		movs	r0, #38
 129 0078 FFF7FEFF 		bl	WriteControlRegister
  90:..\src/SPI_functions.c **** 	CyDelay(10);	
 130              		.loc 1 90 0
 131 007c 0A20     		movs	r0, #10
 132 007e FFF7FEFF 		bl	CyDelay
  91:..\src/SPI_functions.c **** 	// Istruction used to read Compass
  92:..\src/SPI_functions.c **** 	WriteControlRegister(MPU9250_I2C_SLV0_D0, 0x16); //0x12 continuous mode1  0x16 continuous mode2
 133              		.loc 1 92 0
 134 0082 1621     		movs	r1, #22
 135 0084 6320     		movs	r0, #99
 136 0086 FFF7FEFF 		bl	WriteControlRegister
ARM GAS  C:\Users\MattiaCP\AppData\Local\Temp\ccVW8gGQ.s 			page 5


  93:..\src/SPI_functions.c **** 	CyDelay(10);
 137              		.loc 1 93 0
 138 008a 0A20     		movs	r0, #10
 139 008c FFF7FEFF 		bl	CyDelay
  94:..\src/SPI_functions.c **** 	WriteControlRegister(MPU9250_I2C_SLV0_CTRL, 0x81); //enable data from register + 1 bit to write
 140              		.loc 1 94 0
 141 0090 8121     		movs	r1, #129
 142 0092 2720     		movs	r0, #39
 143 0094 FFF7FEFF 		bl	WriteControlRegister
  95:..\src/SPI_functions.c **** 	CyDelay(10);
 144              		.loc 1 95 0
 145 0098 0A20     		movs	r0, #10
 146 009a FFF7FEFF 		bl	CyDelay
  96:..\src/SPI_functions.c **** 	//SLV0 (use to read)
  97:..\src/SPI_functions.c **** 	WriteControlRegister(MPU9250_I2C_SLV0_ADDR, 0x8C); // RCR  | AK8963_address (0x0C) 
 147              		.loc 1 97 0
 148 009e 8C21     		movs	r1, #140
 149 00a0 2520     		movs	r0, #37
 150 00a2 FFF7FEFF 		bl	WriteControlRegister
  98:..\src/SPI_functions.c **** 	CyDelay(10);
 151              		.loc 1 98 0
 152 00a6 0A20     		movs	r0, #10
 153 00a8 FFF7FEFF 		bl	CyDelay
  99:..\src/SPI_functions.c **** 	// Istruction used to read Compass
 100:..\src/SPI_functions.c **** 	WriteControlRegister(MPU9250_I2C_SLV0_REG, 0x03); // 0x03:start from Xout Low in case of calibrati
 154              		.loc 1 100 0
 155 00ac 0321     		movs	r1, #3
 156 00ae 2620     		movs	r0, #38
 157 00b0 FFF7FEFF 		bl	WriteControlRegister
 101:..\src/SPI_functions.c **** 	CyDelay(10);
 158              		.loc 1 101 0
 159 00b4 0A20     		movs	r0, #10
 160 00b6 FFF7FEFF 		bl	CyDelay
 102:..\src/SPI_functions.c **** 	// Istruction used to read Compass
 103:..\src/SPI_functions.c **** 	WriteControlRegister(MPU9250_I2C_SLV0_CTRL, 0x8D); //How many bits read  SEMPRE DISPARI 0x8D era q
 161              		.loc 1 103 0
 162 00ba 8D21     		movs	r1, #141
 163 00bc 2720     		movs	r0, #39
 164 00be FFF7FEFF 		bl	WriteControlRegister
 104:..\src/SPI_functions.c **** 	CyDelay(10);
 165              		.loc 1 104 0
 166 00c2 0A20     		movs	r0, #10
 167 00c4 FFF7FEFF 		bl	CyDelay
 105:..\src/SPI_functions.c **** 	WriteControlRegister(MPU9250_PWR_MGMT_1, 0x00); 
 168              		.loc 1 105 0
 169 00c8 0021     		movs	r1, #0
 170 00ca 6B20     		movs	r0, #107
 171 00cc FFF7FEFF 		bl	WriteControlRegister
 106:..\src/SPI_functions.c **** 	CyDelay(20);
 172              		.loc 1 106 0
 173 00d0 1420     		movs	r0, #20
 174 00d2 FFF7FEFF 		bl	CyDelay
 107:..\src/SPI_functions.c **** }	
 175              		.loc 1 107 0
 176 00d6 00BF     		nop
 177 00d8 80BD     		pop	{r7, pc}
 178              		.cfi_endproc
ARM GAS  C:\Users\MattiaCP\AppData\Local\Temp\ccVW8gGQ.s 			page 6


 179              	.LFE65:
 180              		.size	InitIMU, .-InitIMU
 181 00da 00BF     		.section	.text.InitIMUMagCal,"ax",%progbits
 182              		.align	2
 183              		.global	InitIMUMagCal
 184              		.thumb
 185              		.thumb_func
 186              		.type	InitIMUMagCal, %function
 187              	InitIMUMagCal:
 188              	.LFB66:
 108:..\src/SPI_functions.c **** 
 109:..\src/SPI_functions.c **** /*******************************************************************************
 110:..\src/SPI_functions.c **** * Function Name: IMU Mag Cal Initialization
 111:..\src/SPI_functions.c **** *********************************************************************************/
 112:..\src/SPI_functions.c **** void InitIMUMagCal(){	
 189              		.loc 1 112 0
 190              		.cfi_startproc
 191              		@ args = 0, pretend = 0, frame = 0
 192              		@ frame_needed = 1, uses_anonymous_args = 0
 193 0000 80B5     		push	{r7, lr}
 194              		.cfi_def_cfa_offset 8
 195              		.cfi_offset 7, -8
 196              		.cfi_offset 14, -4
 197 0002 00AF     		add	r7, sp, #0
 198              		.cfi_def_cfa_register 7
 113:..\src/SPI_functions.c ****     
 114:..\src/SPI_functions.c **** 	WriteControlRegister(MPU9250_PWR_MGMT_1, 0x10); 
 199              		.loc 1 114 0
 200 0004 1021     		movs	r1, #16
 201 0006 6B20     		movs	r0, #107
 202 0008 FFF7FEFF 		bl	WriteControlRegister
 115:..\src/SPI_functions.c **** 	CyDelay(10);	
 203              		.loc 1 115 0
 204 000c 0A20     		movs	r0, #10
 205 000e FFF7FEFF 		bl	CyDelay
 116:..\src/SPI_functions.c **** 	WriteControlRegister(MPU9250_USER_CTRL, 0x20);  //I2C master enable - disable I2C (prima 0x30)
 206              		.loc 1 116 0
 207 0012 2021     		movs	r1, #32
 208 0014 6A20     		movs	r0, #106
 209 0016 FFF7FEFF 		bl	WriteControlRegister
 117:..\src/SPI_functions.c **** 	CyDelay(10);
 210              		.loc 1 117 0
 211 001a 0A20     		movs	r0, #10
 212 001c FFF7FEFF 		bl	CyDelay
 118:..\src/SPI_functions.c ****     WriteControlRegister(MPU9250_CONFIG, 0x06); //Gyro & Temp Low Pass Filter 0x01 = 184Hz, 0x02 = 
 213              		.loc 1 118 0
 214 0020 0621     		movs	r1, #6
 215 0022 1A20     		movs	r0, #26
 216 0024 FFF7FEFF 		bl	WriteControlRegister
 119:..\src/SPI_functions.c ****     CyDelay(10);	
 217              		.loc 1 119 0
 218 0028 0A20     		movs	r0, #10
 219 002a FFF7FEFF 		bl	CyDelay
 120:..\src/SPI_functions.c **** 	WriteControlRegister(MPU9250_GYRO_CONFIG , GYRO_SF_2000); //Gyro full scale select 0x00=250°/s 0x
 220              		.loc 1 120 0
 221 002e 1821     		movs	r1, #24
 222 0030 1B20     		movs	r0, #27
ARM GAS  C:\Users\MattiaCP\AppData\Local\Temp\ccVW8gGQ.s 			page 7


 223 0032 FFF7FEFF 		bl	WriteControlRegister
 121:..\src/SPI_functions.c **** 	CyDelay(10);
 224              		.loc 1 121 0
 225 0036 0A20     		movs	r0, #10
 226 0038 FFF7FEFF 		bl	CyDelay
 122:..\src/SPI_functions.c ****     WriteControlRegister(MPU9250_ACCEL_CONFIG, ACC_SF_2G); // Acc full scale select 0x00 = 2g 0x08 
 227              		.loc 1 122 0
 228 003c 0021     		movs	r1, #0
 229 003e 1C20     		movs	r0, #28
 230 0040 FFF7FEFF 		bl	WriteControlRegister
 123:..\src/SPI_functions.c ****     CyDelay(10);
 231              		.loc 1 123 0
 232 0044 0A20     		movs	r0, #10
 233 0046 FFF7FEFF 		bl	CyDelay
 124:..\src/SPI_functions.c ****     WriteControlRegister(MPU9250_ACCEL_CONFIG2, 0x05);
 234              		.loc 1 124 0
 235 004a 0521     		movs	r1, #5
 236 004c 1D20     		movs	r0, #29
 237 004e FFF7FEFF 		bl	WriteControlRegister
 125:..\src/SPI_functions.c ****     CyDelay(10);
 238              		.loc 1 125 0
 239 0052 0A20     		movs	r0, #10
 240 0054 FFF7FEFF 		bl	CyDelay
 126:..\src/SPI_functions.c **** 	//mag register
 127:..\src/SPI_functions.c **** 	WriteControlRegister(MPU9250_I2C_MST_CTRL, 0x0D); //set slave I2C speed
 241              		.loc 1 127 0
 242 0058 0D21     		movs	r1, #13
 243 005a 2420     		movs	r0, #36
 244 005c FFF7FEFF 		bl	WriteControlRegister
 128:..\src/SPI_functions.c **** 	CyDelay(10);
 245              		.loc 1 128 0
 246 0060 0A20     		movs	r0, #10
 247 0062 FFF7FEFF 		bl	CyDelay
 129:..\src/SPI_functions.c **** 	//SLV0 (use to write)
 130:..\src/SPI_functions.c **** 	WriteControlRegister(MPU9250_I2C_SLV0_ADDR, 0x0C); //set compass address
 248              		.loc 1 130 0
 249 0066 0C21     		movs	r1, #12
 250 0068 2520     		movs	r0, #37
 251 006a FFF7FEFF 		bl	WriteControlRegister
 131:..\src/SPI_functions.c **** 	CyDelay(10);			
 252              		.loc 1 131 0
 253 006e 0A20     		movs	r0, #10
 254 0070 FFF7FEFF 		bl	CyDelay
 132:..\src/SPI_functions.c **** 	WriteControlRegister(MPU9250_I2C_SLV0_REG, AK8936_CNTL); //compass mode register
 255              		.loc 1 132 0
 256 0074 0A21     		movs	r1, #10
 257 0076 2620     		movs	r0, #38
 258 0078 FFF7FEFF 		bl	WriteControlRegister
 133:..\src/SPI_functions.c **** 	CyDelay(10);	
 259              		.loc 1 133 0
 260 007c 0A20     		movs	r0, #10
 261 007e FFF7FEFF 		bl	CyDelay
 134:..\src/SPI_functions.c **** 	WriteControlRegister(MPU9250_I2C_SLV0_D0, 0x1F); //0x1F ROM access
 262              		.loc 1 134 0
 263 0082 1F21     		movs	r1, #31
 264 0084 6320     		movs	r0, #99
 265 0086 FFF7FEFF 		bl	WriteControlRegister
ARM GAS  C:\Users\MattiaCP\AppData\Local\Temp\ccVW8gGQ.s 			page 8


 135:..\src/SPI_functions.c **** 	CyDelay(10);
 266              		.loc 1 135 0
 267 008a 0A20     		movs	r0, #10
 268 008c FFF7FEFF 		bl	CyDelay
 136:..\src/SPI_functions.c **** 	WriteControlRegister(MPU9250_I2C_SLV0_CTRL, 0x81); //enable data from register + 1 bit to write
 269              		.loc 1 136 0
 270 0090 8121     		movs	r1, #129
 271 0092 2720     		movs	r0, #39
 272 0094 FFF7FEFF 		bl	WriteControlRegister
 137:..\src/SPI_functions.c **** 	CyDelay(10);
 273              		.loc 1 137 0
 274 0098 0A20     		movs	r0, #10
 275 009a FFF7FEFF 		bl	CyDelay
 138:..\src/SPI_functions.c **** 	//SLV0 (use to read)
 139:..\src/SPI_functions.c **** 	WriteControlRegister(MPU9250_I2C_SLV0_ADDR, 0x8C); // RCR  | AK8963_address (0x0C) 
 276              		.loc 1 139 0
 277 009e 8C21     		movs	r1, #140
 278 00a0 2520     		movs	r0, #37
 279 00a2 FFF7FEFF 		bl	WriteControlRegister
 140:..\src/SPI_functions.c **** 	CyDelay(10);
 280              		.loc 1 140 0
 281 00a6 0A20     		movs	r0, #10
 282 00a8 FFF7FEFF 		bl	CyDelay
 141:..\src/SPI_functions.c **** 	WriteControlRegister(MPU9250_I2C_SLV0_REG, 0x10); // 0x10:start from ASAX
 283              		.loc 1 141 0
 284 00ac 1021     		movs	r1, #16
 285 00ae 2620     		movs	r0, #38
 286 00b0 FFF7FEFF 		bl	WriteControlRegister
 142:..\src/SPI_functions.c **** 	CyDelay(10);
 287              		.loc 1 142 0
 288 00b4 0A20     		movs	r0, #10
 289 00b6 FFF7FEFF 		bl	CyDelay
 143:..\src/SPI_functions.c **** 	WriteControlRegister(MPU9250_I2C_SLV0_CTRL, 0x83);
 290              		.loc 1 143 0
 291 00ba 8321     		movs	r1, #131
 292 00bc 2720     		movs	r0, #39
 293 00be FFF7FEFF 		bl	WriteControlRegister
 144:..\src/SPI_functions.c **** 	CyDelay(10);
 294              		.loc 1 144 0
 295 00c2 0A20     		movs	r0, #10
 296 00c4 FFF7FEFF 		bl	CyDelay
 145:..\src/SPI_functions.c **** 	WriteControlRegister(MPU9250_PWR_MGMT_1, 0x00); 
 297              		.loc 1 145 0
 298 00c8 0021     		movs	r1, #0
 299 00ca 6B20     		movs	r0, #107
 300 00cc FFF7FEFF 		bl	WriteControlRegister
 146:..\src/SPI_functions.c **** 	CyDelay(20);
 301              		.loc 1 146 0
 302 00d0 1420     		movs	r0, #20
 303 00d2 FFF7FEFF 		bl	CyDelay
 147:..\src/SPI_functions.c **** }
 304              		.loc 1 147 0
 305 00d6 00BF     		nop
 306 00d8 80BD     		pop	{r7, pc}
 307              		.cfi_endproc
 308              	.LFE66:
 309              		.size	InitIMUMagCal, .-InitIMUMagCal
ARM GAS  C:\Users\MattiaCP\AppData\Local\Temp\ccVW8gGQ.s 			page 9


 310 00da 00BF     		.section	.text.ChipSelector,"ax",%progbits
 311              		.align	2
 312              		.global	ChipSelector
 313              		.thumb
 314              		.thumb_func
 315              		.type	ChipSelector, %function
 316              	ChipSelector:
 317              	.LFB67:
 148:..\src/SPI_functions.c **** 
 149:..\src/SPI_functions.c **** /********************************************************************************
 150:..\src/SPI_functions.c **** * Function Name: ChipSelector                                                   *
 151:..\src/SPI_functions.c **** *********************************************************************************/
 152:..\src/SPI_functions.c **** void ChipSelector(int n)
 153:..\src/SPI_functions.c **** {
 318              		.loc 1 153 0
 319              		.cfi_startproc
 320              		@ args = 0, pretend = 0, frame = 8
 321              		@ frame_needed = 1, uses_anonymous_args = 0
 322 0000 80B5     		push	{r7, lr}
 323              		.cfi_def_cfa_offset 8
 324              		.cfi_offset 7, -8
 325              		.cfi_offset 14, -4
 326 0002 82B0     		sub	sp, sp, #8
 327              		.cfi_def_cfa_offset 16
 328 0004 00AF     		add	r7, sp, #0
 329              		.cfi_def_cfa_register 7
 330 0006 7860     		str	r0, [r7, #4]
 154:..\src/SPI_functions.c ****     Chip_Select_A_Write(3);
 331              		.loc 1 154 0
 332 0008 0320     		movs	r0, #3
 333 000a FFF7FEFF 		bl	Chip_Select_A_Write
 155:..\src/SPI_functions.c ****     
 156:..\src/SPI_functions.c ****     Chip_Select_A_Write(n);
 334              		.loc 1 156 0
 335 000e 7B68     		ldr	r3, [r7, #4]
 336 0010 DBB2     		uxtb	r3, r3
 337 0012 1846     		mov	r0, r3
 338 0014 FFF7FEFF 		bl	Chip_Select_A_Write
 157:..\src/SPI_functions.c **** }
 339              		.loc 1 157 0
 340 0018 00BF     		nop
 341 001a 0837     		adds	r7, r7, #8
 342              		.cfi_def_cfa_offset 8
 343 001c BD46     		mov	sp, r7
 344              		.cfi_def_cfa_register 13
 345              		@ sp needed
 346 001e 80BD     		pop	{r7, pc}
 347              		.cfi_endproc
 348              	.LFE67:
 349              		.size	ChipSelector, .-ChipSelector
 350              		.section	.text.InitIMUgeneral,"ax",%progbits
 351              		.align	2
 352              		.global	InitIMUgeneral
 353              		.thumb
 354              		.thumb_func
 355              		.type	InitIMUgeneral, %function
 356              	InitIMUgeneral:
ARM GAS  C:\Users\MattiaCP\AppData\Local\Temp\ccVW8gGQ.s 			page 10


 357              	.LFB68:
 158:..\src/SPI_functions.c **** 
 159:..\src/SPI_functions.c **** /********************************************************************************
 160:..\src/SPI_functions.c **** * Function Name: InitIMUGeneral                                                 *
 161:..\src/SPI_functions.c **** *********************************************************************************/
 162:..\src/SPI_functions.c **** void InitIMUgeneral()
 163:..\src/SPI_functions.c **** {
 358              		.loc 1 163 0
 359              		.cfi_startproc
 360              		@ args = 0, pretend = 0, frame = 24
 361              		@ frame_needed = 1, uses_anonymous_args = 0
 362 0000 90B5     		push	{r4, r7, lr}
 363              		.cfi_def_cfa_offset 12
 364              		.cfi_offset 4, -12
 365              		.cfi_offset 7, -8
 366              		.cfi_offset 14, -4
 367 0002 87B0     		sub	sp, sp, #28
 368              		.cfi_def_cfa_offset 40
 369 0004 00AF     		add	r7, sp, #0
 370              		.cfi_def_cfa_register 7
 164:..\src/SPI_functions.c ****     uint8 k_imu;
 165:..\src/SPI_functions.c ****     uint8 count = 0;
 371              		.loc 1 165 0
 372 0006 0023     		movs	r3, #0
 373 0008 BB75     		strb	r3, [r7, #22]
 166:..\src/SPI_functions.c ****     int IMU_ack;
 167:..\src/SPI_functions.c ****     int tmp[N_IMU_MAX];
 168:..\src/SPI_functions.c **** 
 169:..\src/SPI_functions.c ****     // Initialize Memory Structure 
 170:..\src/SPI_functions.c ****     memset(&g_imu, 0, sizeof(struct st_imu));
 374              		.loc 1 170 0
 375 000a 2822     		movs	r2, #40
 376 000c 0021     		movs	r1, #0
 377 000e 9548     		ldr	r0, .L21
 378 0010 FFF7FEFF 		bl	memset
 171:..\src/SPI_functions.c ****     memset(&IMU_connected, 0, sizeof(IMU_connected));
 379              		.loc 1 171 0
 380 0014 0322     		movs	r2, #3
 381 0016 0021     		movs	r1, #0
 382 0018 9348     		ldr	r0, .L21+4
 383 001a FFF7FEFF 		bl	memset
 172:..\src/SPI_functions.c **** 
 173:..\src/SPI_functions.c ****     // First ping to be sure to wakeup IMUs
 174:..\src/SPI_functions.c ****     for (k_imu=0; k_imu < N_IMU_MAX; k_imu++) 
 384              		.loc 1 174 0
 385 001e 0023     		movs	r3, #0
 386 0020 FB75     		strb	r3, [r7, #23]
 387 0022 0CE0     		b	.L6
 388              	.L7:
 175:..\src/SPI_functions.c ****     {	
 176:..\src/SPI_functions.c **** 	    ChipSelector(k_imu);
 389              		.loc 1 176 0 discriminator 3
 390 0024 FB7D     		ldrb	r3, [r7, #23]	@ zero_extendqisi2
 391 0026 1846     		mov	r0, r3
 392 0028 FFF7FEFF 		bl	ChipSelector
 177:..\src/SPI_functions.c **** 	    CyDelay(10);
 393              		.loc 1 177 0 discriminator 3
ARM GAS  C:\Users\MattiaCP\AppData\Local\Temp\ccVW8gGQ.s 			page 11


 394 002c 0A20     		movs	r0, #10
 395 002e FFF7FEFF 		bl	CyDelay
 178:..\src/SPI_functions.c **** 	    ReadControlRegister(MPU9250_WHO_AM_I);
 396              		.loc 1 178 0 discriminator 3
 397 0032 7520     		movs	r0, #117
 398 0034 FFF7FEFF 		bl	ReadControlRegister
 174:..\src/SPI_functions.c ****     {	
 399              		.loc 1 174 0 discriminator 3
 400 0038 FB7D     		ldrb	r3, [r7, #23]	@ zero_extendqisi2
 401 003a 0133     		adds	r3, r3, #1
 402 003c FB75     		strb	r3, [r7, #23]
 403              	.L6:
 174:..\src/SPI_functions.c ****     {	
 404              		.loc 1 174 0 is_stmt 0 discriminator 1
 405 003e FB7D     		ldrb	r3, [r7, #23]	@ zero_extendqisi2
 406 0040 022B     		cmp	r3, #2
 407 0042 EFD9     		bls	.L7
 179:..\src/SPI_functions.c ****     }
 180:..\src/SPI_functions.c ****     
 181:..\src/SPI_functions.c ****     // Identify IMU connected
 182:..\src/SPI_functions.c ****     ChipSelector(0);
 408              		.loc 1 182 0 is_stmt 1
 409 0044 0020     		movs	r0, #0
 410 0046 FFF7FEFF 		bl	ChipSelector
 183:..\src/SPI_functions.c ****     CyDelay(10);
 411              		.loc 1 183 0
 412 004a 0A20     		movs	r0, #10
 413 004c FFF7FEFF 		bl	CyDelay
 184:..\src/SPI_functions.c ****     IMU_ack = ReadControlRegister(MPU9250_WHO_AM_I);
 414              		.loc 1 184 0
 415 0050 7520     		movs	r0, #117
 416 0052 FFF7FEFF 		bl	ReadControlRegister
 417 0056 0346     		mov	r3, r0
 418 0058 3B61     		str	r3, [r7, #16]
 185:..\src/SPI_functions.c ****     IMU_ack = 0;
 419              		.loc 1 185 0
 420 005a 0023     		movs	r3, #0
 421 005c 3B61     		str	r3, [r7, #16]
 186:..\src/SPI_functions.c ****     N_IMU_Connected = 0;    
 422              		.loc 1 186 0
 423 005e 834B     		ldr	r3, .L21+8
 424 0060 0022     		movs	r2, #0
 425 0062 1A70     		strb	r2, [r3]
 187:..\src/SPI_functions.c ****     for (k_imu = 0; k_imu < N_IMU_MAX; k_imu++) 
 426              		.loc 1 187 0
 427 0064 0023     		movs	r3, #0
 428 0066 FB75     		strb	r3, [r7, #23]
 429 0068 2AE0     		b	.L8
 430              	.L11:
 188:..\src/SPI_functions.c ****     {      
 189:..\src/SPI_functions.c ****     	ChipSelector(k_imu);
 431              		.loc 1 189 0
 432 006a FB7D     		ldrb	r3, [r7, #23]	@ zero_extendqisi2
 433 006c 1846     		mov	r0, r3
 434 006e FFF7FEFF 		bl	ChipSelector
 190:..\src/SPI_functions.c ****         CyDelay(10);
 435              		.loc 1 190 0
ARM GAS  C:\Users\MattiaCP\AppData\Local\Temp\ccVW8gGQ.s 			page 12


 436 0072 0A20     		movs	r0, #10
 437 0074 FFF7FEFF 		bl	CyDelay
 191:..\src/SPI_functions.c ****         IMU_ack = ReadControlRegister(MPU9250_WHO_AM_I);
 438              		.loc 1 191 0
 439 0078 7520     		movs	r0, #117
 440 007a FFF7FEFF 		bl	ReadControlRegister
 441 007e 0346     		mov	r3, r0
 442 0080 3B61     		str	r3, [r7, #16]
 192:..\src/SPI_functions.c ****         if (IMU_ack == 0x71) 
 443              		.loc 1 192 0
 444 0082 3B69     		ldr	r3, [r7, #16]
 445 0084 712B     		cmp	r3, #113
 446 0086 10D1     		bne	.L9
 193:..\src/SPI_functions.c ****         {
 194:..\src/SPI_functions.c ****             N_IMU_Connected++;
 447              		.loc 1 194 0
 448 0088 784B     		ldr	r3, .L21+8
 449 008a 1B78     		ldrb	r3, [r3]	@ zero_extendqisi2
 450 008c 0133     		adds	r3, r3, #1
 451 008e DAB2     		uxtb	r2, r3
 452 0090 764B     		ldr	r3, .L21+8
 453 0092 1A70     		strb	r2, [r3]
 195:..\src/SPI_functions.c ****             IMU_ack = 0;
 454              		.loc 1 195 0
 455 0094 0023     		movs	r3, #0
 456 0096 3B61     		str	r3, [r7, #16]
 196:..\src/SPI_functions.c ****             tmp[k_imu] = 1;
 457              		.loc 1 196 0
 458 0098 FB7D     		ldrb	r3, [r7, #23]	@ zero_extendqisi2
 459 009a 9B00     		lsls	r3, r3, #2
 460 009c 07F11802 		add	r2, r7, #24
 461 00a0 1344     		add	r3, r3, r2
 462 00a2 0122     		movs	r2, #1
 463 00a4 43F8142C 		str	r2, [r3, #-20]
 464 00a8 07E0     		b	.L10
 465              	.L9:
 197:..\src/SPI_functions.c ****         }
 198:..\src/SPI_functions.c ****         else
 199:..\src/SPI_functions.c ****             tmp[k_imu] = 0;
 466              		.loc 1 199 0
 467 00aa FB7D     		ldrb	r3, [r7, #23]	@ zero_extendqisi2
 468 00ac 9B00     		lsls	r3, r3, #2
 469 00ae 07F11802 		add	r2, r7, #24
 470 00b2 1344     		add	r3, r3, r2
 471 00b4 0022     		movs	r2, #0
 472 00b6 43F8142C 		str	r2, [r3, #-20]
 473              	.L10:
 187:..\src/SPI_functions.c ****     {      
 474              		.loc 1 187 0 discriminator 2
 475 00ba FB7D     		ldrb	r3, [r7, #23]	@ zero_extendqisi2
 476 00bc 0133     		adds	r3, r3, #1
 477 00be FB75     		strb	r3, [r7, #23]
 478              	.L8:
 187:..\src/SPI_functions.c ****     {      
 479              		.loc 1 187 0 is_stmt 0 discriminator 1
 480 00c0 FB7D     		ldrb	r3, [r7, #23]	@ zero_extendqisi2
 481 00c2 022B     		cmp	r3, #2
ARM GAS  C:\Users\MattiaCP\AppData\Local\Temp\ccVW8gGQ.s 			page 13


 482 00c4 D1D9     		bls	.L11
 200:..\src/SPI_functions.c ****     }
 201:..\src/SPI_functions.c **** 
 202:..\src/SPI_functions.c ****     for(k_imu = 0; k_imu < N_IMU_MAX; k_imu++)
 483              		.loc 1 202 0 is_stmt 1
 484 00c6 0023     		movs	r3, #0
 485 00c8 FB75     		strb	r3, [r7, #23]
 486 00ca 12E0     		b	.L12
 487              	.L14:
 203:..\src/SPI_functions.c ****     {
 204:..\src/SPI_functions.c ****         if(tmp[k_imu] == 1)
 488              		.loc 1 204 0
 489 00cc FB7D     		ldrb	r3, [r7, #23]	@ zero_extendqisi2
 490 00ce 9B00     		lsls	r3, r3, #2
 491 00d0 07F11802 		add	r2, r7, #24
 492 00d4 1344     		add	r3, r3, r2
 493 00d6 53F8143C 		ldr	r3, [r3, #-20]
 494 00da 012B     		cmp	r3, #1
 495 00dc 06D1     		bne	.L13
 205:..\src/SPI_functions.c ****         {
 206:..\src/SPI_functions.c ****             IMU_connected[count] = k_imu;
 496              		.loc 1 206 0
 497 00de BB7D     		ldrb	r3, [r7, #22]	@ zero_extendqisi2
 498 00e0 6149     		ldr	r1, .L21+4
 499 00e2 FA7D     		ldrb	r2, [r7, #23]
 500 00e4 CA54     		strb	r2, [r1, r3]
 207:..\src/SPI_functions.c ****             count++;
 501              		.loc 1 207 0
 502 00e6 BB7D     		ldrb	r3, [r7, #22]	@ zero_extendqisi2
 503 00e8 0133     		adds	r3, r3, #1
 504 00ea BB75     		strb	r3, [r7, #22]
 505              	.L13:
 202:..\src/SPI_functions.c ****     {
 506              		.loc 1 202 0 discriminator 2
 507 00ec FB7D     		ldrb	r3, [r7, #23]	@ zero_extendqisi2
 508 00ee 0133     		adds	r3, r3, #1
 509 00f0 FB75     		strb	r3, [r7, #23]
 510              	.L12:
 202:..\src/SPI_functions.c ****     {
 511              		.loc 1 202 0 is_stmt 0 discriminator 1
 512 00f2 FB7D     		ldrb	r3, [r7, #23]	@ zero_extendqisi2
 513 00f4 022B     		cmp	r3, #2
 514 00f6 E9D9     		bls	.L14
 208:..\src/SPI_functions.c ****         }
 209:..\src/SPI_functions.c ****     }
 210:..\src/SPI_functions.c ****             
 211:..\src/SPI_functions.c ****     // Standard Initialization of the IMU
 212:..\src/SPI_functions.c ****     CyDelay(10);
 515              		.loc 1 212 0 is_stmt 1
 516 00f8 0A20     		movs	r0, #10
 517 00fa FFF7FEFF 		bl	CyDelay
 213:..\src/SPI_functions.c ****     for (k_imu=0; k_imu < N_IMU_MAX; k_imu++) 
 518              		.loc 1 213 0
 519 00fe 0023     		movs	r3, #0
 520 0100 FB75     		strb	r3, [r7, #23]
 521 0102 13E0     		b	.L15
 522              	.L16:
ARM GAS  C:\Users\MattiaCP\AppData\Local\Temp\ccVW8gGQ.s 			page 14


 214:..\src/SPI_functions.c ****     {	
 215:..\src/SPI_functions.c **** 	    ChipSelector(k_imu);
 523              		.loc 1 215 0 discriminator 3
 524 0104 FB7D     		ldrb	r3, [r7, #23]	@ zero_extendqisi2
 525 0106 1846     		mov	r0, r3
 526 0108 FFF7FEFF 		bl	ChipSelector
 216:..\src/SPI_functions.c **** 	    CyDelay(10);
 527              		.loc 1 216 0 discriminator 3
 528 010c 0A20     		movs	r0, #10
 529 010e FFF7FEFF 		bl	CyDelay
 217:..\src/SPI_functions.c **** 	    InitIMU();
 530              		.loc 1 217 0 discriminator 3
 531 0112 FFF7FEFF 		bl	InitIMU
 218:..\src/SPI_functions.c **** 	    CyDelay(10); 
 532              		.loc 1 218 0 discriminator 3
 533 0116 0A20     		movs	r0, #10
 534 0118 FFF7FEFF 		bl	CyDelay
 219:..\src/SPI_functions.c ****         InitIMUMagCal();      // Initialize IMU to Read MagCal Parameters
 535              		.loc 1 219 0 discriminator 3
 536 011c FFF7FEFF 		bl	InitIMUMagCal
 220:..\src/SPI_functions.c **** 	    CyDelay(10); 
 537              		.loc 1 220 0 discriminator 3
 538 0120 0A20     		movs	r0, #10
 539 0122 FFF7FEFF 		bl	CyDelay
 213:..\src/SPI_functions.c ****     {	
 540              		.loc 1 213 0 discriminator 3
 541 0126 FB7D     		ldrb	r3, [r7, #23]	@ zero_extendqisi2
 542 0128 0133     		adds	r3, r3, #1
 543 012a FB75     		strb	r3, [r7, #23]
 544              	.L15:
 213:..\src/SPI_functions.c ****     {	
 545              		.loc 1 213 0 is_stmt 0 discriminator 1
 546 012c FB7D     		ldrb	r3, [r7, #23]	@ zero_extendqisi2
 547 012e 022B     		cmp	r3, #2
 548 0130 E8D9     		bls	.L16
 221:..\src/SPI_functions.c ****     }
 222:..\src/SPI_functions.c ****     CyDelay(50);
 549              		.loc 1 222 0 is_stmt 1
 550 0132 3220     		movs	r0, #50
 551 0134 FFF7FEFF 		bl	CyDelay
 223:..\src/SPI_functions.c ****     
 224:..\src/SPI_functions.c ****     // Reading of MagCal Parameters
 225:..\src/SPI_functions.c ****     for (k_imu = 0; k_imu < N_IMU_MAX; k_imu++){
 552              		.loc 1 225 0
 553 0138 0023     		movs	r3, #0
 554 013a FB75     		strb	r3, [r7, #23]
 555 013c 0AE0     		b	.L17
 556              	.L18:
 226:..\src/SPI_functions.c ****         ChipSelector(k_imu);
 557              		.loc 1 226 0 discriminator 3
 558 013e FB7D     		ldrb	r3, [r7, #23]	@ zero_extendqisi2
 559 0140 1846     		mov	r0, r3
 560 0142 FFF7FEFF 		bl	ChipSelector
 227:..\src/SPI_functions.c ****         ReadMagCal(k_imu); 
 561              		.loc 1 227 0 discriminator 3
 562 0146 FB7D     		ldrb	r3, [r7, #23]	@ zero_extendqisi2
 563 0148 1846     		mov	r0, r3
ARM GAS  C:\Users\MattiaCP\AppData\Local\Temp\ccVW8gGQ.s 			page 15


 564 014a FFF7FEFF 		bl	ReadMagCal
 225:..\src/SPI_functions.c ****         ChipSelector(k_imu);
 565              		.loc 1 225 0 discriminator 3
 566 014e FB7D     		ldrb	r3, [r7, #23]	@ zero_extendqisi2
 567 0150 0133     		adds	r3, r3, #1
 568 0152 FB75     		strb	r3, [r7, #23]
 569              	.L17:
 225:..\src/SPI_functions.c ****         ChipSelector(k_imu);
 570              		.loc 1 225 0 is_stmt 0 discriminator 1
 571 0154 FB7D     		ldrb	r3, [r7, #23]	@ zero_extendqisi2
 572 0156 022B     		cmp	r3, #2
 573 0158 F1D9     		bls	.L18
 228:..\src/SPI_functions.c ****     }
 229:..\src/SPI_functions.c ****     CyDelay(50);
 574              		.loc 1 229 0 is_stmt 1
 575 015a 3220     		movs	r0, #50
 576 015c FFF7FEFF 		bl	CyDelay
 230:..\src/SPI_functions.c ****     
 231:..\src/SPI_functions.c ****     // Set Standard Read for the IMU
 232:..\src/SPI_functions.c ****     memset(&single_imu_size, 0, sizeof(single_imu_size));
 577              		.loc 1 232 0
 578 0160 0C22     		movs	r2, #12
 579 0162 0021     		movs	r1, #0
 580 0164 4248     		ldr	r0, .L21+12
 581 0166 FFF7FEFF 		bl	memset
 233:..\src/SPI_functions.c ****     imus_data_size = 1; //header    
 582              		.loc 1 233 0
 583 016a 424B     		ldr	r3, .L21+16
 584 016c 0122     		movs	r2, #1
 585 016e 1A60     		str	r2, [r3]
 234:..\src/SPI_functions.c ****     for (k_imu = 0; k_imu < N_IMU_Connected; k_imu++)
 586              		.loc 1 234 0
 587 0170 0023     		movs	r3, #0
 588 0172 FB75     		strb	r3, [r7, #23]
 589 0174 68E0     		b	.L19
 590              	.L20:
 235:..\src/SPI_functions.c ****     {
 236:..\src/SPI_functions.c ****         single_imu_size[IMU_connected[k_imu]] = 1 + 6*c_mem.IMU_conf[IMU_connected[k_imu]][0] + 6*c
 591              		.loc 1 236 0 discriminator 3
 592 0176 FB7D     		ldrb	r3, [r7, #23]	@ zero_extendqisi2
 593 0178 3B4A     		ldr	r2, .L21+4
 594 017a D35C     		ldrb	r3, [r2, r3]	@ zero_extendqisi2
 595 017c 1C46     		mov	r4, r3
 596 017e FB7D     		ldrb	r3, [r7, #23]	@ zero_extendqisi2
 597 0180 394A     		ldr	r2, .L21+4
 598 0182 D35C     		ldrb	r3, [r2, r3]	@ zero_extendqisi2
 599 0184 1946     		mov	r1, r3
 600 0186 3C4A     		ldr	r2, .L21+20
 601 0188 0B46     		mov	r3, r1
 602 018a 9B00     		lsls	r3, r3, #2
 603 018c 0B44     		add	r3, r3, r1
 604 018e 1344     		add	r3, r3, r2
 605 0190 03F22113 		addw	r3, r3, #289
 606 0194 1B78     		ldrb	r3, [r3]	@ zero_extendqisi2
 607 0196 1A46     		mov	r2, r3
 608 0198 1346     		mov	r3, r2
 609 019a 5B00     		lsls	r3, r3, #1
ARM GAS  C:\Users\MattiaCP\AppData\Local\Temp\ccVW8gGQ.s 			page 16


 610 019c 1344     		add	r3, r3, r2
 611 019e 5B00     		lsls	r3, r3, #1
 612 01a0 5A1C     		adds	r2, r3, #1
 613 01a2 FB7D     		ldrb	r3, [r7, #23]	@ zero_extendqisi2
 614 01a4 3049     		ldr	r1, .L21+4
 615 01a6 CB5C     		ldrb	r3, [r1, r3]	@ zero_extendqisi2
 616 01a8 1846     		mov	r0, r3
 617 01aa 3349     		ldr	r1, .L21+20
 618 01ac 0346     		mov	r3, r0
 619 01ae 9B00     		lsls	r3, r3, #2
 620 01b0 0344     		add	r3, r3, r0
 621 01b2 0B44     		add	r3, r3, r1
 622 01b4 03F59173 		add	r3, r3, #290
 623 01b8 1B78     		ldrb	r3, [r3]	@ zero_extendqisi2
 624 01ba 1946     		mov	r1, r3
 625 01bc 0B46     		mov	r3, r1
 626 01be 5B00     		lsls	r3, r3, #1
 627 01c0 0B44     		add	r3, r3, r1
 628 01c2 5B00     		lsls	r3, r3, #1
 629 01c4 1A44     		add	r2, r2, r3
 630 01c6 FB7D     		ldrb	r3, [r7, #23]	@ zero_extendqisi2
 631 01c8 2749     		ldr	r1, .L21+4
 632 01ca CB5C     		ldrb	r3, [r1, r3]	@ zero_extendqisi2
 633 01cc 1846     		mov	r0, r3
 634 01ce 2A49     		ldr	r1, .L21+20
 635 01d0 0346     		mov	r3, r0
 636 01d2 9B00     		lsls	r3, r3, #2
 637 01d4 0344     		add	r3, r3, r0
 638 01d6 0B44     		add	r3, r3, r1
 639 01d8 03F22313 		addw	r3, r3, #291
 640 01dc 1B78     		ldrb	r3, [r3]	@ zero_extendqisi2
 641 01de 1946     		mov	r1, r3
 642 01e0 0B46     		mov	r3, r1
 643 01e2 5B00     		lsls	r3, r3, #1
 644 01e4 0B44     		add	r3, r3, r1
 645 01e6 5B00     		lsls	r3, r3, #1
 646 01e8 1A44     		add	r2, r2, r3
 647 01ea FB7D     		ldrb	r3, [r7, #23]	@ zero_extendqisi2
 648 01ec 1E49     		ldr	r1, .L21+4
 649 01ee CB5C     		ldrb	r3, [r1, r3]	@ zero_extendqisi2
 650 01f0 1846     		mov	r0, r3
 651 01f2 2149     		ldr	r1, .L21+20
 652 01f4 0346     		mov	r3, r0
 653 01f6 9B00     		lsls	r3, r3, #2
 654 01f8 0344     		add	r3, r3, r0
 655 01fa 0B44     		add	r3, r3, r1
 656 01fc 03F59273 		add	r3, r3, #292
 657 0200 1B78     		ldrb	r3, [r3]	@ zero_extendqisi2
 658 0202 1B01     		lsls	r3, r3, #4
 659 0204 1A44     		add	r2, r2, r3
 660 0206 FB7D     		ldrb	r3, [r7, #23]	@ zero_extendqisi2
 661 0208 1749     		ldr	r1, .L21+4
 662 020a CB5C     		ldrb	r3, [r1, r3]	@ zero_extendqisi2
 663 020c 1846     		mov	r0, r3
 664 020e 1A49     		ldr	r1, .L21+20
 665 0210 0346     		mov	r3, r0
 666 0212 9B00     		lsls	r3, r3, #2
ARM GAS  C:\Users\MattiaCP\AppData\Local\Temp\ccVW8gGQ.s 			page 17


 667 0214 0344     		add	r3, r3, r0
 668 0216 0B44     		add	r3, r3, r1
 669 0218 03F22513 		addw	r3, r3, #293
 670 021c 1B78     		ldrb	r3, [r3]	@ zero_extendqisi2
 671 021e 5B00     		lsls	r3, r3, #1
 672 0220 1344     		add	r3, r3, r2
 673 0222 0133     		adds	r3, r3, #1
 674 0224 124A     		ldr	r2, .L21+12
 675 0226 42F82430 		str	r3, [r2, r4, lsl #2]
 237:..\src/SPI_functions.c ****         imus_data_size = imus_data_size + single_imu_size[IMU_connected[k_imu]];
 676              		.loc 1 237 0 discriminator 3
 677 022a FB7D     		ldrb	r3, [r7, #23]	@ zero_extendqisi2
 678 022c 0E4A     		ldr	r2, .L21+4
 679 022e D35C     		ldrb	r3, [r2, r3]	@ zero_extendqisi2
 680 0230 1A46     		mov	r2, r3
 681 0232 0F4B     		ldr	r3, .L21+12
 682 0234 53F82220 		ldr	r2, [r3, r2, lsl #2]
 683 0238 0E4B     		ldr	r3, .L21+16
 684 023a 1B68     		ldr	r3, [r3]
 685 023c 1344     		add	r3, r3, r2
 686 023e 0D4A     		ldr	r2, .L21+16
 687 0240 1360     		str	r3, [r2]
 234:..\src/SPI_functions.c ****     for (k_imu = 0; k_imu < N_IMU_Connected; k_imu++)
 688              		.loc 1 234 0 discriminator 3
 689 0242 FB7D     		ldrb	r3, [r7, #23]	@ zero_extendqisi2
 690 0244 0133     		adds	r3, r3, #1
 691 0246 FB75     		strb	r3, [r7, #23]
 692              	.L19:
 234:..\src/SPI_functions.c ****     for (k_imu = 0; k_imu < N_IMU_Connected; k_imu++)
 693              		.loc 1 234 0 is_stmt 0 discriminator 1
 694 0248 084B     		ldr	r3, .L21+8
 695 024a 1B78     		ldrb	r3, [r3]	@ zero_extendqisi2
 696 024c FA7D     		ldrb	r2, [r7, #23]	@ zero_extendqisi2
 697 024e 9A42     		cmp	r2, r3
 698 0250 91D3     		bcc	.L20
 238:..\src/SPI_functions.c ****     }
 239:..\src/SPI_functions.c ****     imus_data_size = imus_data_size + 1;    //checksum*/
 699              		.loc 1 239 0 is_stmt 1
 700 0252 084B     		ldr	r3, .L21+16
 701 0254 1B68     		ldr	r3, [r3]
 702 0256 0133     		adds	r3, r3, #1
 703 0258 064A     		ldr	r2, .L21+16
 704 025a 1360     		str	r3, [r2]
 240:..\src/SPI_functions.c **** }
 705              		.loc 1 240 0
 706 025c 00BF     		nop
 707 025e 1C37     		adds	r7, r7, #28
 708              		.cfi_def_cfa_offset 12
 709 0260 BD46     		mov	sp, r7
 710              		.cfi_def_cfa_register 13
 711              		@ sp needed
 712 0262 90BD     		pop	{r4, r7, pc}
 713              	.L22:
 714              		.align	2
 715              	.L21:
 716 0264 00000000 		.word	g_imu
 717 0268 00000000 		.word	IMU_connected
ARM GAS  C:\Users\MattiaCP\AppData\Local\Temp\ccVW8gGQ.s 			page 18


 718 026c 00000000 		.word	N_IMU_Connected
 719 0270 00000000 		.word	single_imu_size
 720 0274 00000000 		.word	imus_data_size
 721 0278 00000000 		.word	c_mem
 722              		.cfi_endproc
 723              	.LFE68:
 724              		.size	InitIMUgeneral, .-InitIMUgeneral
 725              		.section	.text.ReadIMU,"ax",%progbits
 726              		.align	2
 727              		.global	ReadIMU
 728              		.thumb
 729              		.thumb_func
 730              		.type	ReadIMU, %function
 731              	ReadIMU:
 732              	.LFB69:
 241:..\src/SPI_functions.c **** 
 242:..\src/SPI_functions.c **** /*******************************************************************************
 243:..\src/SPI_functions.c **** * Function Name: IMU Read
 244:..\src/SPI_functions.c **** *********************************************************************************/	
 245:..\src/SPI_functions.c **** void ReadIMU(int n)
 246:..\src/SPI_functions.c **** {
 733              		.loc 1 246 0
 734              		.cfi_startproc
 735              		@ args = 0, pretend = 0, frame = 8
 736              		@ frame_needed = 1, uses_anonymous_args = 0
 737 0000 80B5     		push	{r7, lr}
 738              		.cfi_def_cfa_offset 8
 739              		.cfi_offset 7, -8
 740              		.cfi_offset 14, -4
 741 0002 82B0     		sub	sp, sp, #8
 742              		.cfi_def_cfa_offset 16
 743 0004 00AF     		add	r7, sp, #0
 744              		.cfi_def_cfa_register 7
 745 0006 7860     		str	r0, [r7, #4]
 247:..\src/SPI_functions.c ****     if (c_mem.IMU_conf[n][0]) ReadAcc(n);
 746              		.loc 1 247 0
 747 0008 2449     		ldr	r1, .L30
 748 000a 7A68     		ldr	r2, [r7, #4]
 749 000c 1346     		mov	r3, r2
 750 000e 9B00     		lsls	r3, r3, #2
 751 0010 1344     		add	r3, r3, r2
 752 0012 0B44     		add	r3, r3, r1
 753 0014 03F22113 		addw	r3, r3, #289
 754 0018 1B78     		ldrb	r3, [r3]	@ zero_extendqisi2
 755 001a 002B     		cmp	r3, #0
 756 001c 02D0     		beq	.L24
 757              		.loc 1 247 0 is_stmt 0 discriminator 1
 758 001e 7868     		ldr	r0, [r7, #4]
 759 0020 FFF7FEFF 		bl	ReadAcc
 760              	.L24:
 248:..\src/SPI_functions.c ****     if (c_mem.IMU_conf[n][1]) ReadGyro(n);
 761              		.loc 1 248 0 is_stmt 1
 762 0024 1D49     		ldr	r1, .L30
 763 0026 7A68     		ldr	r2, [r7, #4]
 764 0028 1346     		mov	r3, r2
 765 002a 9B00     		lsls	r3, r3, #2
 766 002c 1344     		add	r3, r3, r2
ARM GAS  C:\Users\MattiaCP\AppData\Local\Temp\ccVW8gGQ.s 			page 19


 767 002e 0B44     		add	r3, r3, r1
 768 0030 03F59173 		add	r3, r3, #290
 769 0034 1B78     		ldrb	r3, [r3]	@ zero_extendqisi2
 770 0036 002B     		cmp	r3, #0
 771 0038 02D0     		beq	.L25
 772              		.loc 1 248 0 is_stmt 0 discriminator 1
 773 003a 7868     		ldr	r0, [r7, #4]
 774 003c FFF7FEFF 		bl	ReadGyro
 775              	.L25:
 249:..\src/SPI_functions.c ****     if (c_mem.IMU_conf[n][2]) ReadMag(n);
 776              		.loc 1 249 0 is_stmt 1
 777 0040 1649     		ldr	r1, .L30
 778 0042 7A68     		ldr	r2, [r7, #4]
 779 0044 1346     		mov	r3, r2
 780 0046 9B00     		lsls	r3, r3, #2
 781 0048 1344     		add	r3, r3, r2
 782 004a 0B44     		add	r3, r3, r1
 783 004c 03F22313 		addw	r3, r3, #291
 784 0050 1B78     		ldrb	r3, [r3]	@ zero_extendqisi2
 785 0052 002B     		cmp	r3, #0
 786 0054 02D0     		beq	.L26
 787              		.loc 1 249 0 is_stmt 0 discriminator 1
 788 0056 7868     		ldr	r0, [r7, #4]
 789 0058 FFF7FEFF 		bl	ReadMag
 790              	.L26:
 250:..\src/SPI_functions.c ****     if (c_mem.IMU_conf[n][3]) ReadQuat(n);
 791              		.loc 1 250 0 is_stmt 1
 792 005c 0F49     		ldr	r1, .L30
 793 005e 7A68     		ldr	r2, [r7, #4]
 794 0060 1346     		mov	r3, r2
 795 0062 9B00     		lsls	r3, r3, #2
 796 0064 1344     		add	r3, r3, r2
 797 0066 0B44     		add	r3, r3, r1
 798 0068 03F59273 		add	r3, r3, #292
 799 006c 1B78     		ldrb	r3, [r3]	@ zero_extendqisi2
 800 006e 002B     		cmp	r3, #0
 801 0070 02D0     		beq	.L27
 802              		.loc 1 250 0 is_stmt 0 discriminator 1
 803 0072 7868     		ldr	r0, [r7, #4]
 804 0074 FFF7FEFF 		bl	ReadQuat
 805              	.L27:
 251:..\src/SPI_functions.c ****     if (c_mem.IMU_conf[n][4]) ReadTemp(n);
 806              		.loc 1 251 0 is_stmt 1
 807 0078 0849     		ldr	r1, .L30
 808 007a 7A68     		ldr	r2, [r7, #4]
 809 007c 1346     		mov	r3, r2
 810 007e 9B00     		lsls	r3, r3, #2
 811 0080 1344     		add	r3, r3, r2
 812 0082 0B44     		add	r3, r3, r1
 813 0084 03F22513 		addw	r3, r3, #293
 814 0088 1B78     		ldrb	r3, [r3]	@ zero_extendqisi2
 815 008a 002B     		cmp	r3, #0
 816 008c 02D0     		beq	.L29
 817              		.loc 1 251 0 is_stmt 0 discriminator 1
 818 008e 7868     		ldr	r0, [r7, #4]
 819 0090 FFF7FEFF 		bl	ReadTemp
 820              	.L29:
ARM GAS  C:\Users\MattiaCP\AppData\Local\Temp\ccVW8gGQ.s 			page 20


 252:..\src/SPI_functions.c **** }
 821              		.loc 1 252 0 is_stmt 1
 822 0094 00BF     		nop
 823 0096 0837     		adds	r7, r7, #8
 824              		.cfi_def_cfa_offset 8
 825 0098 BD46     		mov	sp, r7
 826              		.cfi_def_cfa_register 13
 827              		@ sp needed
 828 009a 80BD     		pop	{r7, pc}
 829              	.L31:
 830              		.align	2
 831              	.L30:
 832 009c 00000000 		.word	c_mem
 833              		.cfi_endproc
 834              	.LFE69:
 835              		.size	ReadIMU, .-ReadIMU
 836              		.section	.text.ReadAcc,"ax",%progbits
 837              		.align	2
 838              		.global	ReadAcc
 839              		.thumb
 840              		.thumb_func
 841              		.type	ReadAcc, %function
 842              	ReadAcc:
 843              	.LFB70:
 253:..\src/SPI_functions.c **** 
 254:..\src/SPI_functions.c **** /*******************************************************************************
 255:..\src/SPI_functions.c **** * Function Name: Read Acc's Data of IMU n
 256:..\src/SPI_functions.c **** *********************************************************************************/
 257:..\src/SPI_functions.c **** void ReadAcc(int n)
 258:..\src/SPI_functions.c **** {
 844              		.loc 1 258 0
 845              		.cfi_startproc
 846              		@ args = 0, pretend = 0, frame = 16
 847              		@ frame_needed = 1, uses_anonymous_args = 0
 848 0000 80B5     		push	{r7, lr}
 849              		.cfi_def_cfa_offset 8
 850              		.cfi_offset 7, -8
 851              		.cfi_offset 14, -4
 852 0002 84B0     		sub	sp, sp, #16
 853              		.cfi_def_cfa_offset 24
 854 0004 00AF     		add	r7, sp, #0
 855              		.cfi_def_cfa_register 7
 856 0006 7860     		str	r0, [r7, #4]
 259:..\src/SPI_functions.c **** 	uint8 low=0, high=0;
 857              		.loc 1 259 0
 858 0008 0023     		movs	r3, #0
 859 000a FB73     		strb	r3, [r7, #15]
 860 000c 0023     		movs	r3, #0
 861 000e BB73     		strb	r3, [r7, #14]
 260:..\src/SPI_functions.c **** 	
 261:..\src/SPI_functions.c **** 	int row = n;
 862              		.loc 1 261 0
 863 0010 7B68     		ldr	r3, [r7, #4]
 864 0012 BB60     		str	r3, [r7, #8]
 262:..\src/SPI_functions.c **** 	
 263:..\src/SPI_functions.c **** 	//read X
 264:..\src/SPI_functions.c ****     low=ReadControlRegister(MPU9250_ACCEL_XOUT_L);
ARM GAS  C:\Users\MattiaCP\AppData\Local\Temp\ccVW8gGQ.s 			page 21


 865              		.loc 1 264 0
 866 0014 3C20     		movs	r0, #60
 867 0016 FFF7FEFF 		bl	ReadControlRegister
 868 001a 0346     		mov	r3, r0
 869 001c FB73     		strb	r3, [r7, #15]
 265:..\src/SPI_functions.c ****     SPI_delay();
 870              		.loc 1 265 0
 871 001e FFF7FEFF 		bl	SPI_delay
 266:..\src/SPI_functions.c ****     high=ReadControlRegister(MPU9250_ACCEL_XOUT_H);
 872              		.loc 1 266 0
 873 0022 3B20     		movs	r0, #59
 874 0024 FFF7FEFF 		bl	ReadControlRegister
 875 0028 0346     		mov	r3, r0
 876 002a BB73     		strb	r3, [r7, #14]
 267:..\src/SPI_functions.c ****     SPI_delay();
 877              		.loc 1 267 0
 878 002c FFF7FEFF 		bl	SPI_delay
 268:..\src/SPI_functions.c ****     
 269:..\src/SPI_functions.c **** 	Accel[row][0] = high; 
 879              		.loc 1 269 0
 880 0030 3349     		ldr	r1, .L33
 881 0032 BA68     		ldr	r2, [r7, #8]
 882 0034 1346     		mov	r3, r2
 883 0036 5B00     		lsls	r3, r3, #1
 884 0038 1344     		add	r3, r3, r2
 885 003a 5B00     		lsls	r3, r3, #1
 886 003c 0B44     		add	r3, r3, r1
 887 003e BA7B     		ldrb	r2, [r7, #14]
 888 0040 1A70     		strb	r2, [r3]
 270:..\src/SPI_functions.c **** 	Accel[row][1] = low; 
 889              		.loc 1 270 0
 890 0042 2F49     		ldr	r1, .L33
 891 0044 BA68     		ldr	r2, [r7, #8]
 892 0046 1346     		mov	r3, r2
 893 0048 5B00     		lsls	r3, r3, #1
 894 004a 1344     		add	r3, r3, r2
 895 004c 5B00     		lsls	r3, r3, #1
 896 004e 0B44     		add	r3, r3, r1
 897 0050 0133     		adds	r3, r3, #1
 898 0052 FA7B     		ldrb	r2, [r7, #15]
 899 0054 1A70     		strb	r2, [r3]
 271:..\src/SPI_functions.c **** 	low=0, high=0;
 900              		.loc 1 271 0
 901 0056 0023     		movs	r3, #0
 902 0058 FB73     		strb	r3, [r7, #15]
 903 005a 0023     		movs	r3, #0
 904 005c BB73     		strb	r3, [r7, #14]
 272:..\src/SPI_functions.c **** 			
 273:..\src/SPI_functions.c **** 	//read Y
 274:..\src/SPI_functions.c ****     low=ReadControlRegister(MPU9250_ACCEL_YOUT_L);
 905              		.loc 1 274 0
 906 005e 3E20     		movs	r0, #62
 907 0060 FFF7FEFF 		bl	ReadControlRegister
 908 0064 0346     		mov	r3, r0
 909 0066 FB73     		strb	r3, [r7, #15]
 275:..\src/SPI_functions.c ****     SPI_delay();
 910              		.loc 1 275 0
ARM GAS  C:\Users\MattiaCP\AppData\Local\Temp\ccVW8gGQ.s 			page 22


 911 0068 FFF7FEFF 		bl	SPI_delay
 276:..\src/SPI_functions.c **** 	high=ReadControlRegister(MPU9250_ACCEL_YOUT_H);
 912              		.loc 1 276 0
 913 006c 3D20     		movs	r0, #61
 914 006e FFF7FEFF 		bl	ReadControlRegister
 915 0072 0346     		mov	r3, r0
 916 0074 BB73     		strb	r3, [r7, #14]
 277:..\src/SPI_functions.c ****     SPI_delay();
 917              		.loc 1 277 0
 918 0076 FFF7FEFF 		bl	SPI_delay
 278:..\src/SPI_functions.c **** 
 279:..\src/SPI_functions.c **** 	Accel[row][2] = high; 
 919              		.loc 1 279 0
 920 007a 2149     		ldr	r1, .L33
 921 007c BA68     		ldr	r2, [r7, #8]
 922 007e 1346     		mov	r3, r2
 923 0080 5B00     		lsls	r3, r3, #1
 924 0082 1344     		add	r3, r3, r2
 925 0084 5B00     		lsls	r3, r3, #1
 926 0086 0B44     		add	r3, r3, r1
 927 0088 0233     		adds	r3, r3, #2
 928 008a BA7B     		ldrb	r2, [r7, #14]
 929 008c 1A70     		strb	r2, [r3]
 280:..\src/SPI_functions.c **** 	Accel[row][3] = low; 
 930              		.loc 1 280 0
 931 008e 1C49     		ldr	r1, .L33
 932 0090 BA68     		ldr	r2, [r7, #8]
 933 0092 1346     		mov	r3, r2
 934 0094 5B00     		lsls	r3, r3, #1
 935 0096 1344     		add	r3, r3, r2
 936 0098 5B00     		lsls	r3, r3, #1
 937 009a 0B44     		add	r3, r3, r1
 938 009c 0333     		adds	r3, r3, #3
 939 009e FA7B     		ldrb	r2, [r7, #15]
 940 00a0 1A70     		strb	r2, [r3]
 281:..\src/SPI_functions.c **** 	low=0, high=0;
 941              		.loc 1 281 0
 942 00a2 0023     		movs	r3, #0
 943 00a4 FB73     		strb	r3, [r7, #15]
 944 00a6 0023     		movs	r3, #0
 945 00a8 BB73     		strb	r3, [r7, #14]
 282:..\src/SPI_functions.c **** 		
 283:..\src/SPI_functions.c **** 	//read Z
 284:..\src/SPI_functions.c ****     low=ReadControlRegister(MPU9250_ACCEL_ZOUT_L);
 946              		.loc 1 284 0
 947 00aa 4020     		movs	r0, #64
 948 00ac FFF7FEFF 		bl	ReadControlRegister
 949 00b0 0346     		mov	r3, r0
 950 00b2 FB73     		strb	r3, [r7, #15]
 285:..\src/SPI_functions.c ****     SPI_delay();
 951              		.loc 1 285 0
 952 00b4 FFF7FEFF 		bl	SPI_delay
 286:..\src/SPI_functions.c ****     high=ReadControlRegister(MPU9250_ACCEL_ZOUT_H);
 953              		.loc 1 286 0
 954 00b8 3F20     		movs	r0, #63
 955 00ba FFF7FEFF 		bl	ReadControlRegister
 956 00be 0346     		mov	r3, r0
ARM GAS  C:\Users\MattiaCP\AppData\Local\Temp\ccVW8gGQ.s 			page 23


 957 00c0 BB73     		strb	r3, [r7, #14]
 287:..\src/SPI_functions.c ****     SPI_delay();
 958              		.loc 1 287 0
 959 00c2 FFF7FEFF 		bl	SPI_delay
 288:..\src/SPI_functions.c ****     
 289:..\src/SPI_functions.c **** 	Accel[row][4] = high; 
 960              		.loc 1 289 0
 961 00c6 0E49     		ldr	r1, .L33
 962 00c8 BA68     		ldr	r2, [r7, #8]
 963 00ca 1346     		mov	r3, r2
 964 00cc 5B00     		lsls	r3, r3, #1
 965 00ce 1344     		add	r3, r3, r2
 966 00d0 5B00     		lsls	r3, r3, #1
 967 00d2 0B44     		add	r3, r3, r1
 968 00d4 0433     		adds	r3, r3, #4
 969 00d6 BA7B     		ldrb	r2, [r7, #14]
 970 00d8 1A70     		strb	r2, [r3]
 290:..\src/SPI_functions.c **** 	Accel[row][5] = low;
 971              		.loc 1 290 0
 972 00da 0949     		ldr	r1, .L33
 973 00dc BA68     		ldr	r2, [r7, #8]
 974 00de 1346     		mov	r3, r2
 975 00e0 5B00     		lsls	r3, r3, #1
 976 00e2 1344     		add	r3, r3, r2
 977 00e4 5B00     		lsls	r3, r3, #1
 978 00e6 0B44     		add	r3, r3, r1
 979 00e8 0533     		adds	r3, r3, #5
 980 00ea FA7B     		ldrb	r2, [r7, #15]
 981 00ec 1A70     		strb	r2, [r3]
 291:..\src/SPI_functions.c **** 	low=0, high=0;
 982              		.loc 1 291 0
 983 00ee 0023     		movs	r3, #0
 984 00f0 FB73     		strb	r3, [r7, #15]
 985 00f2 0023     		movs	r3, #0
 986 00f4 BB73     		strb	r3, [r7, #14]
 292:..\src/SPI_functions.c **** }
 987              		.loc 1 292 0
 988 00f6 00BF     		nop
 989 00f8 1037     		adds	r7, r7, #16
 990              		.cfi_def_cfa_offset 8
 991 00fa BD46     		mov	sp, r7
 992              		.cfi_def_cfa_register 13
 993              		@ sp needed
 994 00fc 80BD     		pop	{r7, pc}
 995              	.L34:
 996 00fe 00BF     		.align	2
 997              	.L33:
 998 0100 00000000 		.word	Accel
 999              		.cfi_endproc
 1000              	.LFE70:
 1001              		.size	ReadAcc, .-ReadAcc
 1002              		.section	.text.ReadGyro,"ax",%progbits
 1003              		.align	2
 1004              		.global	ReadGyro
 1005              		.thumb
 1006              		.thumb_func
 1007              		.type	ReadGyro, %function
ARM GAS  C:\Users\MattiaCP\AppData\Local\Temp\ccVW8gGQ.s 			page 24


 1008              	ReadGyro:
 1009              	.LFB71:
 293:..\src/SPI_functions.c **** 
 294:..\src/SPI_functions.c **** /*******************************************************************************
 295:..\src/SPI_functions.c **** * Function Name: Read Gyro's Data of IMU n
 296:..\src/SPI_functions.c **** *********************************************************************************/
 297:..\src/SPI_functions.c **** void ReadGyro(int n){
 1010              		.loc 1 297 0
 1011              		.cfi_startproc
 1012              		@ args = 0, pretend = 0, frame = 16
 1013              		@ frame_needed = 1, uses_anonymous_args = 0
 1014 0000 80B5     		push	{r7, lr}
 1015              		.cfi_def_cfa_offset 8
 1016              		.cfi_offset 7, -8
 1017              		.cfi_offset 14, -4
 1018 0002 84B0     		sub	sp, sp, #16
 1019              		.cfi_def_cfa_offset 24
 1020 0004 00AF     		add	r7, sp, #0
 1021              		.cfi_def_cfa_register 7
 1022 0006 7860     		str	r0, [r7, #4]
 298:..\src/SPI_functions.c **** 	uint8 low=0, high=0;
 1023              		.loc 1 298 0
 1024 0008 0023     		movs	r3, #0
 1025 000a FB73     		strb	r3, [r7, #15]
 1026 000c 0023     		movs	r3, #0
 1027 000e BB73     		strb	r3, [r7, #14]
 299:..\src/SPI_functions.c ****  
 300:..\src/SPI_functions.c **** 	int row = n;
 1028              		.loc 1 300 0
 1029 0010 7B68     		ldr	r3, [r7, #4]
 1030 0012 BB60     		str	r3, [r7, #8]
 301:..\src/SPI_functions.c **** 	
 302:..\src/SPI_functions.c **** 	//read X
 303:..\src/SPI_functions.c **** 	low=ReadControlRegister(MPU9250_GYRO_XOUT_L);
 1031              		.loc 1 303 0
 1032 0014 4420     		movs	r0, #68
 1033 0016 FFF7FEFF 		bl	ReadControlRegister
 1034 001a 0346     		mov	r3, r0
 1035 001c FB73     		strb	r3, [r7, #15]
 304:..\src/SPI_functions.c ****     SPI_delay();
 1036              		.loc 1 304 0
 1037 001e FFF7FEFF 		bl	SPI_delay
 305:..\src/SPI_functions.c **** 	high=ReadControlRegister(MPU9250_GYRO_XOUT_H);
 1038              		.loc 1 305 0
 1039 0022 4320     		movs	r0, #67
 1040 0024 FFF7FEFF 		bl	ReadControlRegister
 1041 0028 0346     		mov	r3, r0
 1042 002a BB73     		strb	r3, [r7, #14]
 306:..\src/SPI_functions.c ****     SPI_delay();
 1043              		.loc 1 306 0
 1044 002c FFF7FEFF 		bl	SPI_delay
 307:..\src/SPI_functions.c ****     
 308:..\src/SPI_functions.c **** 	Gyro[row][0] = high; 
 1045              		.loc 1 308 0
 1046 0030 3349     		ldr	r1, .L36
 1047 0032 BA68     		ldr	r2, [r7, #8]
 1048 0034 1346     		mov	r3, r2
ARM GAS  C:\Users\MattiaCP\AppData\Local\Temp\ccVW8gGQ.s 			page 25


 1049 0036 5B00     		lsls	r3, r3, #1
 1050 0038 1344     		add	r3, r3, r2
 1051 003a 5B00     		lsls	r3, r3, #1
 1052 003c 0B44     		add	r3, r3, r1
 1053 003e BA7B     		ldrb	r2, [r7, #14]
 1054 0040 1A70     		strb	r2, [r3]
 309:..\src/SPI_functions.c **** 	Gyro[row][1] = low;
 1055              		.loc 1 309 0
 1056 0042 2F49     		ldr	r1, .L36
 1057 0044 BA68     		ldr	r2, [r7, #8]
 1058 0046 1346     		mov	r3, r2
 1059 0048 5B00     		lsls	r3, r3, #1
 1060 004a 1344     		add	r3, r3, r2
 1061 004c 5B00     		lsls	r3, r3, #1
 1062 004e 0B44     		add	r3, r3, r1
 1063 0050 0133     		adds	r3, r3, #1
 1064 0052 FA7B     		ldrb	r2, [r7, #15]
 1065 0054 1A70     		strb	r2, [r3]
 310:..\src/SPI_functions.c **** 	low=0, high=0;
 1066              		.loc 1 310 0
 1067 0056 0023     		movs	r3, #0
 1068 0058 FB73     		strb	r3, [r7, #15]
 1069 005a 0023     		movs	r3, #0
 1070 005c BB73     		strb	r3, [r7, #14]
 311:..\src/SPI_functions.c ****     
 312:..\src/SPI_functions.c **** 	//read Y
 313:..\src/SPI_functions.c **** 	low=ReadControlRegister(MPU9250_GYRO_YOUT_L);
 1071              		.loc 1 313 0
 1072 005e 4620     		movs	r0, #70
 1073 0060 FFF7FEFF 		bl	ReadControlRegister
 1074 0064 0346     		mov	r3, r0
 1075 0066 FB73     		strb	r3, [r7, #15]
 314:..\src/SPI_functions.c ****     SPI_delay();
 1076              		.loc 1 314 0
 1077 0068 FFF7FEFF 		bl	SPI_delay
 315:..\src/SPI_functions.c **** 	high=ReadControlRegister(MPU9250_GYRO_YOUT_H);
 1078              		.loc 1 315 0
 1079 006c 4520     		movs	r0, #69
 1080 006e FFF7FEFF 		bl	ReadControlRegister
 1081 0072 0346     		mov	r3, r0
 1082 0074 BB73     		strb	r3, [r7, #14]
 316:..\src/SPI_functions.c ****     SPI_delay();
 1083              		.loc 1 316 0
 1084 0076 FFF7FEFF 		bl	SPI_delay
 317:..\src/SPI_functions.c ****     
 318:..\src/SPI_functions.c **** 	Gyro[row][2] = high; 
 1085              		.loc 1 318 0
 1086 007a 2149     		ldr	r1, .L36
 1087 007c BA68     		ldr	r2, [r7, #8]
 1088 007e 1346     		mov	r3, r2
 1089 0080 5B00     		lsls	r3, r3, #1
 1090 0082 1344     		add	r3, r3, r2
 1091 0084 5B00     		lsls	r3, r3, #1
 1092 0086 0B44     		add	r3, r3, r1
 1093 0088 0233     		adds	r3, r3, #2
 1094 008a BA7B     		ldrb	r2, [r7, #14]
 1095 008c 1A70     		strb	r2, [r3]
ARM GAS  C:\Users\MattiaCP\AppData\Local\Temp\ccVW8gGQ.s 			page 26


 319:..\src/SPI_functions.c **** 	Gyro[row][3] = low;
 1096              		.loc 1 319 0
 1097 008e 1C49     		ldr	r1, .L36
 1098 0090 BA68     		ldr	r2, [r7, #8]
 1099 0092 1346     		mov	r3, r2
 1100 0094 5B00     		lsls	r3, r3, #1
 1101 0096 1344     		add	r3, r3, r2
 1102 0098 5B00     		lsls	r3, r3, #1
 1103 009a 0B44     		add	r3, r3, r1
 1104 009c 0333     		adds	r3, r3, #3
 1105 009e FA7B     		ldrb	r2, [r7, #15]
 1106 00a0 1A70     		strb	r2, [r3]
 320:..\src/SPI_functions.c **** 	low=0, high=0;
 1107              		.loc 1 320 0
 1108 00a2 0023     		movs	r3, #0
 1109 00a4 FB73     		strb	r3, [r7, #15]
 1110 00a6 0023     		movs	r3, #0
 1111 00a8 BB73     		strb	r3, [r7, #14]
 321:..\src/SPI_functions.c **** 
 322:..\src/SPI_functions.c **** 	//read Z
 323:..\src/SPI_functions.c ****     low=ReadControlRegister(MPU9250_GYRO_ZOUT_L);
 1112              		.loc 1 323 0
 1113 00aa 4820     		movs	r0, #72
 1114 00ac FFF7FEFF 		bl	ReadControlRegister
 1115 00b0 0346     		mov	r3, r0
 1116 00b2 FB73     		strb	r3, [r7, #15]
 324:..\src/SPI_functions.c ****     SPI_delay();
 1117              		.loc 1 324 0
 1118 00b4 FFF7FEFF 		bl	SPI_delay
 325:..\src/SPI_functions.c **** 	high=ReadControlRegister(MPU9250_GYRO_ZOUT_H);
 1119              		.loc 1 325 0
 1120 00b8 4720     		movs	r0, #71
 1121 00ba FFF7FEFF 		bl	ReadControlRegister
 1122 00be 0346     		mov	r3, r0
 1123 00c0 BB73     		strb	r3, [r7, #14]
 326:..\src/SPI_functions.c ****     SPI_delay();
 1124              		.loc 1 326 0
 1125 00c2 FFF7FEFF 		bl	SPI_delay
 327:..\src/SPI_functions.c ****     
 328:..\src/SPI_functions.c **** 	Gyro[row][4] = high; 
 1126              		.loc 1 328 0
 1127 00c6 0E49     		ldr	r1, .L36
 1128 00c8 BA68     		ldr	r2, [r7, #8]
 1129 00ca 1346     		mov	r3, r2
 1130 00cc 5B00     		lsls	r3, r3, #1
 1131 00ce 1344     		add	r3, r3, r2
 1132 00d0 5B00     		lsls	r3, r3, #1
 1133 00d2 0B44     		add	r3, r3, r1
 1134 00d4 0433     		adds	r3, r3, #4
 1135 00d6 BA7B     		ldrb	r2, [r7, #14]
 1136 00d8 1A70     		strb	r2, [r3]
 329:..\src/SPI_functions.c **** 	Gyro[row][5] = low;        
 1137              		.loc 1 329 0
 1138 00da 0949     		ldr	r1, .L36
 1139 00dc BA68     		ldr	r2, [r7, #8]
 1140 00de 1346     		mov	r3, r2
 1141 00e0 5B00     		lsls	r3, r3, #1
ARM GAS  C:\Users\MattiaCP\AppData\Local\Temp\ccVW8gGQ.s 			page 27


 1142 00e2 1344     		add	r3, r3, r2
 1143 00e4 5B00     		lsls	r3, r3, #1
 1144 00e6 0B44     		add	r3, r3, r1
 1145 00e8 0533     		adds	r3, r3, #5
 1146 00ea FA7B     		ldrb	r2, [r7, #15]
 1147 00ec 1A70     		strb	r2, [r3]
 330:..\src/SPI_functions.c **** 
 331:..\src/SPI_functions.c **** 	low=0, high=0;
 1148              		.loc 1 331 0
 1149 00ee 0023     		movs	r3, #0
 1150 00f0 FB73     		strb	r3, [r7, #15]
 1151 00f2 0023     		movs	r3, #0
 1152 00f4 BB73     		strb	r3, [r7, #14]
 332:..\src/SPI_functions.c **** }
 1153              		.loc 1 332 0
 1154 00f6 00BF     		nop
 1155 00f8 1037     		adds	r7, r7, #16
 1156              		.cfi_def_cfa_offset 8
 1157 00fa BD46     		mov	sp, r7
 1158              		.cfi_def_cfa_register 13
 1159              		@ sp needed
 1160 00fc 80BD     		pop	{r7, pc}
 1161              	.L37:
 1162 00fe 00BF     		.align	2
 1163              	.L36:
 1164 0100 00000000 		.word	Gyro
 1165              		.cfi_endproc
 1166              	.LFE71:
 1167              		.size	ReadGyro, .-ReadGyro
 1168              		.section	.text.ReadMag,"ax",%progbits
 1169              		.align	2
 1170              		.global	ReadMag
 1171              		.thumb
 1172              		.thumb_func
 1173              		.type	ReadMag, %function
 1174              	ReadMag:
 1175              	.LFB72:
 333:..\src/SPI_functions.c **** 
 334:..\src/SPI_functions.c **** /*******************************************************************************
 335:..\src/SPI_functions.c **** * Function Name: Read Compas' Data of IMU n
 336:..\src/SPI_functions.c **** *********************************************************************************/
 337:..\src/SPI_functions.c **** void ReadMag(int n){
 1176              		.loc 1 337 0
 1177              		.cfi_startproc
 1178              		@ args = 0, pretend = 0, frame = 16
 1179              		@ frame_needed = 1, uses_anonymous_args = 0
 1180 0000 80B5     		push	{r7, lr}
 1181              		.cfi_def_cfa_offset 8
 1182              		.cfi_offset 7, -8
 1183              		.cfi_offset 14, -4
 1184 0002 84B0     		sub	sp, sp, #16
 1185              		.cfi_def_cfa_offset 24
 1186 0004 00AF     		add	r7, sp, #0
 1187              		.cfi_def_cfa_register 7
 1188 0006 7860     		str	r0, [r7, #4]
 338:..\src/SPI_functions.c **** 	
 339:..\src/SPI_functions.c **** 	uint8 low, high;
ARM GAS  C:\Users\MattiaCP\AppData\Local\Temp\ccVW8gGQ.s 			page 28


 340:..\src/SPI_functions.c **** 	int row = n;	
 1189              		.loc 1 340 0
 1190 0008 7B68     		ldr	r3, [r7, #4]
 1191 000a FB60     		str	r3, [r7, #12]
 341:..\src/SPI_functions.c **** 	//read X
 342:..\src/SPI_functions.c **** 	low = ReadControlRegister(MPU9250_EXT_SENS_DATA_00);
 1192              		.loc 1 342 0
 1193 000c 4920     		movs	r0, #73
 1194 000e FFF7FEFF 		bl	ReadControlRegister
 1195 0012 0346     		mov	r3, r0
 1196 0014 FB72     		strb	r3, [r7, #11]
 343:..\src/SPI_functions.c ****     SPI_delay();
 1197              		.loc 1 343 0
 1198 0016 FFF7FEFF 		bl	SPI_delay
 344:..\src/SPI_functions.c **** 	high = ReadControlRegister(MPU9250_EXT_SENS_DATA_01);		
 1199              		.loc 1 344 0
 1200 001a 4A20     		movs	r0, #74
 1201 001c FFF7FEFF 		bl	ReadControlRegister
 1202 0020 0346     		mov	r3, r0
 1203 0022 BB72     		strb	r3, [r7, #10]
 345:..\src/SPI_functions.c ****     SPI_delay();
 1204              		.loc 1 345 0
 1205 0024 FFF7FEFF 		bl	SPI_delay
 346:..\src/SPI_functions.c ****     
 347:..\src/SPI_functions.c **** 	Mag[row][0] = high; 
 1206              		.loc 1 347 0
 1207 0028 3349     		ldr	r1, .L39
 1208 002a FA68     		ldr	r2, [r7, #12]
 1209 002c 1346     		mov	r3, r2
 1210 002e 5B00     		lsls	r3, r3, #1
 1211 0030 1344     		add	r3, r3, r2
 1212 0032 5B00     		lsls	r3, r3, #1
 1213 0034 0B44     		add	r3, r3, r1
 1214 0036 BA7A     		ldrb	r2, [r7, #10]
 1215 0038 1A70     		strb	r2, [r3]
 348:..\src/SPI_functions.c **** 	Mag[row][1] = low;
 1216              		.loc 1 348 0
 1217 003a 2F49     		ldr	r1, .L39
 1218 003c FA68     		ldr	r2, [r7, #12]
 1219 003e 1346     		mov	r3, r2
 1220 0040 5B00     		lsls	r3, r3, #1
 1221 0042 1344     		add	r3, r3, r2
 1222 0044 5B00     		lsls	r3, r3, #1
 1223 0046 0B44     		add	r3, r3, r1
 1224 0048 0133     		adds	r3, r3, #1
 1225 004a FA7A     		ldrb	r2, [r7, #11]
 1226 004c 1A70     		strb	r2, [r3]
 349:..\src/SPI_functions.c **** 	low=0, high=0;
 1227              		.loc 1 349 0
 1228 004e 0023     		movs	r3, #0
 1229 0050 FB72     		strb	r3, [r7, #11]
 1230 0052 0023     		movs	r3, #0
 1231 0054 BB72     		strb	r3, [r7, #10]
 350:..\src/SPI_functions.c ****     
 351:..\src/SPI_functions.c **** 	//read Y
 352:..\src/SPI_functions.c **** 	low = ReadControlRegister(MPU9250_EXT_SENS_DATA_02);
 1232              		.loc 1 352 0
ARM GAS  C:\Users\MattiaCP\AppData\Local\Temp\ccVW8gGQ.s 			page 29


 1233 0056 4B20     		movs	r0, #75
 1234 0058 FFF7FEFF 		bl	ReadControlRegister
 1235 005c 0346     		mov	r3, r0
 1236 005e FB72     		strb	r3, [r7, #11]
 353:..\src/SPI_functions.c ****     SPI_delay();
 1237              		.loc 1 353 0
 1238 0060 FFF7FEFF 		bl	SPI_delay
 354:..\src/SPI_functions.c **** 	high = ReadControlRegister(MPU9250_EXT_SENS_DATA_03);		
 1239              		.loc 1 354 0
 1240 0064 4C20     		movs	r0, #76
 1241 0066 FFF7FEFF 		bl	ReadControlRegister
 1242 006a 0346     		mov	r3, r0
 1243 006c BB72     		strb	r3, [r7, #10]
 355:..\src/SPI_functions.c ****     SPI_delay();
 1244              		.loc 1 355 0
 1245 006e FFF7FEFF 		bl	SPI_delay
 356:..\src/SPI_functions.c ****     
 357:..\src/SPI_functions.c **** 	Mag[row][2] = high; 
 1246              		.loc 1 357 0
 1247 0072 2149     		ldr	r1, .L39
 1248 0074 FA68     		ldr	r2, [r7, #12]
 1249 0076 1346     		mov	r3, r2
 1250 0078 5B00     		lsls	r3, r3, #1
 1251 007a 1344     		add	r3, r3, r2
 1252 007c 5B00     		lsls	r3, r3, #1
 1253 007e 0B44     		add	r3, r3, r1
 1254 0080 0233     		adds	r3, r3, #2
 1255 0082 BA7A     		ldrb	r2, [r7, #10]
 1256 0084 1A70     		strb	r2, [r3]
 358:..\src/SPI_functions.c **** 	Mag[row][3] = low;
 1257              		.loc 1 358 0
 1258 0086 1C49     		ldr	r1, .L39
 1259 0088 FA68     		ldr	r2, [r7, #12]
 1260 008a 1346     		mov	r3, r2
 1261 008c 5B00     		lsls	r3, r3, #1
 1262 008e 1344     		add	r3, r3, r2
 1263 0090 5B00     		lsls	r3, r3, #1
 1264 0092 0B44     		add	r3, r3, r1
 1265 0094 0333     		adds	r3, r3, #3
 1266 0096 FA7A     		ldrb	r2, [r7, #11]
 1267 0098 1A70     		strb	r2, [r3]
 359:..\src/SPI_functions.c **** 	low=0, high=0;
 1268              		.loc 1 359 0
 1269 009a 0023     		movs	r3, #0
 1270 009c FB72     		strb	r3, [r7, #11]
 1271 009e 0023     		movs	r3, #0
 1272 00a0 BB72     		strb	r3, [r7, #10]
 360:..\src/SPI_functions.c ****     
 361:..\src/SPI_functions.c **** 	//read Z
 362:..\src/SPI_functions.c **** 	low = ReadControlRegister(MPU9250_EXT_SENS_DATA_04);
 1273              		.loc 1 362 0
 1274 00a2 4D20     		movs	r0, #77
 1275 00a4 FFF7FEFF 		bl	ReadControlRegister
 1276 00a8 0346     		mov	r3, r0
 1277 00aa FB72     		strb	r3, [r7, #11]
 363:..\src/SPI_functions.c ****     SPI_delay();
 1278              		.loc 1 363 0
ARM GAS  C:\Users\MattiaCP\AppData\Local\Temp\ccVW8gGQ.s 			page 30


 1279 00ac FFF7FEFF 		bl	SPI_delay
 364:..\src/SPI_functions.c **** 	high = ReadControlRegister(MPU9250_EXT_SENS_DATA_05);
 1280              		.loc 1 364 0
 1281 00b0 4E20     		movs	r0, #78
 1282 00b2 FFF7FEFF 		bl	ReadControlRegister
 1283 00b6 0346     		mov	r3, r0
 1284 00b8 BB72     		strb	r3, [r7, #10]
 365:..\src/SPI_functions.c ****     SPI_delay();
 1285              		.loc 1 365 0
 1286 00ba FFF7FEFF 		bl	SPI_delay
 366:..\src/SPI_functions.c **** 		
 367:..\src/SPI_functions.c **** 	Mag[row][4] = high; 
 1287              		.loc 1 367 0
 1288 00be 0E49     		ldr	r1, .L39
 1289 00c0 FA68     		ldr	r2, [r7, #12]
 1290 00c2 1346     		mov	r3, r2
 1291 00c4 5B00     		lsls	r3, r3, #1
 1292 00c6 1344     		add	r3, r3, r2
 1293 00c8 5B00     		lsls	r3, r3, #1
 1294 00ca 0B44     		add	r3, r3, r1
 1295 00cc 0433     		adds	r3, r3, #4
 1296 00ce BA7A     		ldrb	r2, [r7, #10]
 1297 00d0 1A70     		strb	r2, [r3]
 368:..\src/SPI_functions.c **** 	Mag[row][5] = low;
 1298              		.loc 1 368 0
 1299 00d2 0949     		ldr	r1, .L39
 1300 00d4 FA68     		ldr	r2, [r7, #12]
 1301 00d6 1346     		mov	r3, r2
 1302 00d8 5B00     		lsls	r3, r3, #1
 1303 00da 1344     		add	r3, r3, r2
 1304 00dc 5B00     		lsls	r3, r3, #1
 1305 00de 0B44     		add	r3, r3, r1
 1306 00e0 0533     		adds	r3, r3, #5
 1307 00e2 FA7A     		ldrb	r2, [r7, #11]
 1308 00e4 1A70     		strb	r2, [r3]
 369:..\src/SPI_functions.c **** 	low=0, high=0;
 1309              		.loc 1 369 0
 1310 00e6 0023     		movs	r3, #0
 1311 00e8 FB72     		strb	r3, [r7, #11]
 1312 00ea 0023     		movs	r3, #0
 1313 00ec BB72     		strb	r3, [r7, #10]
 370:..\src/SPI_functions.c **** }
 1314              		.loc 1 370 0
 1315 00ee 00BF     		nop
 1316 00f0 1037     		adds	r7, r7, #16
 1317              		.cfi_def_cfa_offset 8
 1318 00f2 BD46     		mov	sp, r7
 1319              		.cfi_def_cfa_register 13
 1320              		@ sp needed
 1321 00f4 80BD     		pop	{r7, pc}
 1322              	.L40:
 1323 00f6 00BF     		.align	2
 1324              	.L39:
 1325 00f8 00000000 		.word	Mag
 1326              		.cfi_endproc
 1327              	.LFE72:
 1328              		.size	ReadMag, .-ReadMag
ARM GAS  C:\Users\MattiaCP\AppData\Local\Temp\ccVW8gGQ.s 			page 31


 1329              		.section	.text.ReadMagCal,"ax",%progbits
 1330              		.align	2
 1331              		.global	ReadMagCal
 1332              		.thumb
 1333              		.thumb_func
 1334              		.type	ReadMagCal, %function
 1335              	ReadMagCal:
 1336              	.LFB73:
 371:..\src/SPI_functions.c **** 
 372:..\src/SPI_functions.c **** /********************************************************************************
 373:..\src/SPI_functions.c **** * Function Name: ReadMagCal
 374:..\src/SPI_functions.c **** *********************************************************************************/
 375:..\src/SPI_functions.c **** void ReadMagCal(int n){
 1337              		.loc 1 375 0
 1338              		.cfi_startproc
 1339              		@ args = 0, pretend = 0, frame = 16
 1340              		@ frame_needed = 1, uses_anonymous_args = 0
 1341 0000 80B5     		push	{r7, lr}
 1342              		.cfi_def_cfa_offset 8
 1343              		.cfi_offset 7, -8
 1344              		.cfi_offset 14, -4
 1345 0002 84B0     		sub	sp, sp, #16
 1346              		.cfi_def_cfa_offset 24
 1347 0004 00AF     		add	r7, sp, #0
 1348              		.cfi_def_cfa_register 7
 1349 0006 7860     		str	r0, [r7, #4]
 376:..\src/SPI_functions.c **** 	
 377:..\src/SPI_functions.c ****     uint8 read = 0; 
 1350              		.loc 1 377 0
 1351 0008 0023     		movs	r3, #0
 1352 000a FB73     		strb	r3, [r7, #15]
 378:..\src/SPI_functions.c **** 	int row = n;	
 1353              		.loc 1 378 0
 1354 000c 7B68     		ldr	r3, [r7, #4]
 1355 000e BB60     		str	r3, [r7, #8]
 379:..\src/SPI_functions.c **** 	//read X
 380:..\src/SPI_functions.c **** 	read = ReadControlRegister(MPU9250_EXT_SENS_DATA_00);
 1356              		.loc 1 380 0
 1357 0010 4920     		movs	r0, #73
 1358 0012 FFF7FEFF 		bl	ReadControlRegister
 1359 0016 0346     		mov	r3, r0
 1360 0018 FB73     		strb	r3, [r7, #15]
 381:..\src/SPI_functions.c ****     MagCal[row][0] = read; 
 1361              		.loc 1 381 0
 1362 001a 1749     		ldr	r1, .L42
 1363 001c BA68     		ldr	r2, [r7, #8]
 1364 001e 1346     		mov	r3, r2
 1365 0020 5B00     		lsls	r3, r3, #1
 1366 0022 1344     		add	r3, r3, r2
 1367 0024 0B44     		add	r3, r3, r1
 1368 0026 FA7B     		ldrb	r2, [r7, #15]
 1369 0028 1A70     		strb	r2, [r3]
 382:..\src/SPI_functions.c ****     read = 0;
 1370              		.loc 1 382 0
 1371 002a 0023     		movs	r3, #0
 1372 002c FB73     		strb	r3, [r7, #15]
 383:..\src/SPI_functions.c ****     
ARM GAS  C:\Users\MattiaCP\AppData\Local\Temp\ccVW8gGQ.s 			page 32


 384:..\src/SPI_functions.c **** 	//read Y
 385:..\src/SPI_functions.c **** 	read = ReadControlRegister(MPU9250_EXT_SENS_DATA_01);			
 1373              		.loc 1 385 0
 1374 002e 4A20     		movs	r0, #74
 1375 0030 FFF7FEFF 		bl	ReadControlRegister
 1376 0034 0346     		mov	r3, r0
 1377 0036 FB73     		strb	r3, [r7, #15]
 386:..\src/SPI_functions.c **** 	MagCal[row][1] = read; 
 1378              		.loc 1 386 0
 1379 0038 0F49     		ldr	r1, .L42
 1380 003a BA68     		ldr	r2, [r7, #8]
 1381 003c 1346     		mov	r3, r2
 1382 003e 5B00     		lsls	r3, r3, #1
 1383 0040 1344     		add	r3, r3, r2
 1384 0042 0B44     		add	r3, r3, r1
 1385 0044 0133     		adds	r3, r3, #1
 1386 0046 FA7B     		ldrb	r2, [r7, #15]
 1387 0048 1A70     		strb	r2, [r3]
 387:..\src/SPI_functions.c **** 	read = 0;
 1388              		.loc 1 387 0
 1389 004a 0023     		movs	r3, #0
 1390 004c FB73     		strb	r3, [r7, #15]
 388:..\src/SPI_functions.c ****     
 389:..\src/SPI_functions.c **** 	//read Z
 390:..\src/SPI_functions.c **** 	read = ReadControlRegister(MPU9250_EXT_SENS_DATA_02);			
 1391              		.loc 1 390 0
 1392 004e 4B20     		movs	r0, #75
 1393 0050 FFF7FEFF 		bl	ReadControlRegister
 1394 0054 0346     		mov	r3, r0
 1395 0056 FB73     		strb	r3, [r7, #15]
 391:..\src/SPI_functions.c **** 	MagCal[row][2] = read; 
 1396              		.loc 1 391 0
 1397 0058 0749     		ldr	r1, .L42
 1398 005a BA68     		ldr	r2, [r7, #8]
 1399 005c 1346     		mov	r3, r2
 1400 005e 5B00     		lsls	r3, r3, #1
 1401 0060 1344     		add	r3, r3, r2
 1402 0062 0B44     		add	r3, r3, r1
 1403 0064 0233     		adds	r3, r3, #2
 1404 0066 FA7B     		ldrb	r2, [r7, #15]
 1405 0068 1A70     		strb	r2, [r3]
 392:..\src/SPI_functions.c **** 	read = 0;
 1406              		.loc 1 392 0
 1407 006a 0023     		movs	r3, #0
 1408 006c FB73     		strb	r3, [r7, #15]
 393:..\src/SPI_functions.c ****     
 394:..\src/SPI_functions.c **** }
 1409              		.loc 1 394 0
 1410 006e 00BF     		nop
 1411 0070 1037     		adds	r7, r7, #16
 1412              		.cfi_def_cfa_offset 8
 1413 0072 BD46     		mov	sp, r7
 1414              		.cfi_def_cfa_register 13
 1415              		@ sp needed
 1416 0074 80BD     		pop	{r7, pc}
 1417              	.L43:
 1418 0076 00BF     		.align	2
ARM GAS  C:\Users\MattiaCP\AppData\Local\Temp\ccVW8gGQ.s 			page 33


 1419              	.L42:
 1420 0078 00000000 		.word	MagCal
 1421              		.cfi_endproc
 1422              	.LFE73:
 1423              		.size	ReadMagCal, .-ReadMagCal
 1424              		.global	__aeabi_ui2f
 1425              		.global	__aeabi_fdiv
 1426              		.global	__aeabi_i2f
 1427              		.global	__aeabi_i2d
 1428              		.global	__aeabi_dmul
 1429              		.global	__aeabi_d2f
 1430              		.global	__aeabi_f2d
 1431              		.global	__aeabi_dcmplt
 1432              		.global	__aeabi_fmul
 1433              		.global	__aeabi_fsub
 1434              		.global	__aeabi_fadd
 1435              		.global	__aeabi_dsub
 1436              		.global	__aeabi_dadd
 1437              		.section	.text.ReadQuat,"ax",%progbits
 1438              		.align	2
 1439              		.global	ReadQuat
 1440              		.thumb
 1441              		.thumb_func
 1442              		.type	ReadQuat, %function
 1443              	ReadQuat:
 1444              	.LFB74:
 395:..\src/SPI_functions.c ****     
 396:..\src/SPI_functions.c **** /*******************************************************************************
 397:..\src/SPI_functions.c **** * Function Name: Read Quaternion of IMU n
 398:..\src/SPI_functions.c **** *********************************************************************************/
 399:..\src/SPI_functions.c **** void ReadQuat(int n)
 400:..\src/SPI_functions.c **** {
 1445              		.loc 1 400 0
 1446              		.cfi_startproc
 1447              		@ args = 0, pretend = 0, frame = 96
 1448              		@ frame_needed = 1, uses_anonymous_args = 0
 1449 0000 2DE9F04F 		push	{r4, r5, r6, r7, r8, r9, r10, fp, lr}
 1450              		.cfi_def_cfa_offset 36
 1451              		.cfi_offset 4, -36
 1452              		.cfi_offset 5, -32
 1453              		.cfi_offset 6, -28
 1454              		.cfi_offset 7, -24
 1455              		.cfi_offset 8, -20
 1456              		.cfi_offset 9, -16
 1457              		.cfi_offset 10, -12
 1458              		.cfi_offset 11, -8
 1459              		.cfi_offset 14, -4
 1460 0004 99B0     		sub	sp, sp, #100
 1461              		.cfi_def_cfa_offset 136
 1462 0006 00AF     		add	r7, sp, #0
 1463              		.cfi_def_cfa_register 7
 1464 0008 7860     		str	r0, [r7, #4]
 401:..\src/SPI_functions.c ****     int16 var_h;
 402:..\src/SPI_functions.c ****     float qd0,qd1,qd2,qd3;        
 403:..\src/SPI_functions.c ****     float aP[3]; //, fa[3];
 404:..\src/SPI_functions.c ****     float Napla[4],g[4],qL[4];
 405:..\src/SPI_functions.c ****     float time = 0;
ARM GAS  C:\Users\MattiaCP\AppData\Local\Temp\ccVW8gGQ.s 			page 34


 1465              		.loc 1 405 0
 1466 000a 4FF00003 		mov	r3, #0
 1467 000e FB65     		str	r3, [r7, #92]	@ float
 406:..\src/SPI_functions.c ****         
 407:..\src/SPI_functions.c ****     if (N_IMU_Connected == 1) {
 1468              		.loc 1 407 0
 1469 0010 BB4B     		ldr	r3, .L58+16
 1470 0012 1B78     		ldrb	r3, [r3]	@ zero_extendqisi2
 1471 0014 012B     		cmp	r3, #1
 1472 0016 40F02285 		bne	.L44
 408:..\src/SPI_functions.c ****         // Compute quaternion only if 1 IMU is connected
 409:..\src/SPI_functions.c ****         
 410:..\src/SPI_functions.c ****         if (!c_mem.IMU_conf[n][0]) ReadAcc(n);
 1473              		.loc 1 410 0
 1474 001a BA49     		ldr	r1, .L58+20
 1475 001c 7A68     		ldr	r2, [r7, #4]
 1476 001e 1346     		mov	r3, r2
 1477 0020 9B00     		lsls	r3, r3, #2
 1478 0022 1344     		add	r3, r3, r2
 1479 0024 0B44     		add	r3, r3, r1
 1480 0026 03F22113 		addw	r3, r3, #289
 1481 002a 1B78     		ldrb	r3, [r3]	@ zero_extendqisi2
 1482 002c 002B     		cmp	r3, #0
 1483 002e 02D1     		bne	.L46
 1484              		.loc 1 410 0 is_stmt 0 discriminator 1
 1485 0030 7868     		ldr	r0, [r7, #4]
 1486 0032 FFF7FEFF 		bl	ReadAcc
 1487              	.L46:
 411:..\src/SPI_functions.c ****         if (!c_mem.IMU_conf[n][1]) ReadGyro(n);
 1488              		.loc 1 411 0 is_stmt 1
 1489 0036 B349     		ldr	r1, .L58+20
 1490 0038 7A68     		ldr	r2, [r7, #4]
 1491 003a 1346     		mov	r3, r2
 1492 003c 9B00     		lsls	r3, r3, #2
 1493 003e 1344     		add	r3, r3, r2
 1494 0040 0B44     		add	r3, r3, r1
 1495 0042 03F59173 		add	r3, r3, #290
 1496 0046 1B78     		ldrb	r3, [r3]	@ zero_extendqisi2
 1497 0048 002B     		cmp	r3, #0
 1498 004a 02D1     		bne	.L47
 1499              		.loc 1 411 0 is_stmt 0 discriminator 1
 1500 004c 7868     		ldr	r0, [r7, #4]
 1501 004e FFF7FEFF 		bl	ReadGyro
 1502              	.L47:
 412:..\src/SPI_functions.c ****         
 413:..\src/SPI_functions.c ****         // assume cycle time is the same of last function_scheduler execution,
 414:..\src/SPI_functions.c ****         // without adding another counter
 415:..\src/SPI_functions.c ****         time = (float)((uint32)timer_value0 - (uint32)timer_value) / 1000000.0;
 1503              		.loc 1 415 0 is_stmt 1
 1504 0052 AD4B     		ldr	r3, .L58+24
 1505 0054 1A68     		ldr	r2, [r3]
 1506 0056 AD4B     		ldr	r3, .L58+28
 1507 0058 1B68     		ldr	r3, [r3]
 1508 005a D31A     		subs	r3, r2, r3
 1509 005c 1846     		mov	r0, r3
 1510 005e FFF7FEFF 		bl	__aeabi_ui2f
 1511 0062 0346     		mov	r3, r0
ARM GAS  C:\Users\MattiaCP\AppData\Local\Temp\ccVW8gGQ.s 			page 35


 1512 0064 AA49     		ldr	r1, .L58+32
 1513 0066 1846     		mov	r0, r3
 1514 0068 FFF7FEFF 		bl	__aeabi_fdiv
 1515 006c 0346     		mov	r3, r0
 1516 006e FB65     		str	r3, [r7, #92]	@ float
 416:..\src/SPI_functions.c ****         
 417:..\src/SPI_functions.c ****         // how N sees P; N is 'Earth' equivalent, P is for sensor
 418:..\src/SPI_functions.c ****         // e.g. N = imu1, P = imu0, how imu1 sees imu0
 419:..\src/SPI_functions.c **** 
 420:..\src/SPI_functions.c ****         var_h = Accel[n][0];
 1517              		.loc 1 420 0
 1518 0070 A849     		ldr	r1, .L58+36
 1519 0072 7A68     		ldr	r2, [r7, #4]
 1520 0074 1346     		mov	r3, r2
 1521 0076 5B00     		lsls	r3, r3, #1
 1522 0078 1344     		add	r3, r3, r2
 1523 007a 5B00     		lsls	r3, r3, #1
 1524 007c 0B44     		add	r3, r3, r1
 1525 007e 1B78     		ldrb	r3, [r3]	@ zero_extendqisi2
 1526 0080 A7F85A30 		strh	r3, [r7, #90]	@ movhi
 421:..\src/SPI_functions.c ****         aP[0] = (int16)(var_h << 8 | Accel[n][1]); 
 1527              		.loc 1 421 0
 1528 0084 B7F95A30 		ldrsh	r3, [r7, #90]
 1529 0088 1B02     		lsls	r3, r3, #8
 1530 008a 19B2     		sxth	r1, r3
 1531 008c A148     		ldr	r0, .L58+36
 1532 008e 7A68     		ldr	r2, [r7, #4]
 1533 0090 1346     		mov	r3, r2
 1534 0092 5B00     		lsls	r3, r3, #1
 1535 0094 1344     		add	r3, r3, r2
 1536 0096 5B00     		lsls	r3, r3, #1
 1537 0098 0344     		add	r3, r3, r0
 1538 009a 0133     		adds	r3, r3, #1
 1539 009c 1B78     		ldrb	r3, [r3]	@ zero_extendqisi2
 1540 009e 1BB2     		sxth	r3, r3
 1541 00a0 0B43     		orrs	r3, r3, r1
 1542 00a2 1BB2     		sxth	r3, r3
 1543 00a4 1846     		mov	r0, r3
 1544 00a6 FFF7FEFF 		bl	__aeabi_i2f
 1545 00aa 0346     		mov	r3, r0
 1546 00ac FB63     		str	r3, [r7, #60]	@ float
 422:..\src/SPI_functions.c ****         var_h = Accel[n][2];
 1547              		.loc 1 422 0
 1548 00ae 9949     		ldr	r1, .L58+36
 1549 00b0 7A68     		ldr	r2, [r7, #4]
 1550 00b2 1346     		mov	r3, r2
 1551 00b4 5B00     		lsls	r3, r3, #1
 1552 00b6 1344     		add	r3, r3, r2
 1553 00b8 5B00     		lsls	r3, r3, #1
 1554 00ba 0B44     		add	r3, r3, r1
 1555 00bc 0233     		adds	r3, r3, #2
 1556 00be 1B78     		ldrb	r3, [r3]	@ zero_extendqisi2
 1557 00c0 A7F85A30 		strh	r3, [r7, #90]	@ movhi
 423:..\src/SPI_functions.c ****         aP[1] = (int16)(var_h << 8 | Accel[n][3]); 
 1558              		.loc 1 423 0
 1559 00c4 B7F95A30 		ldrsh	r3, [r7, #90]
 1560 00c8 1B02     		lsls	r3, r3, #8
ARM GAS  C:\Users\MattiaCP\AppData\Local\Temp\ccVW8gGQ.s 			page 36


 1561 00ca 19B2     		sxth	r1, r3
 1562 00cc 9148     		ldr	r0, .L58+36
 1563 00ce 7A68     		ldr	r2, [r7, #4]
 1564 00d0 1346     		mov	r3, r2
 1565 00d2 5B00     		lsls	r3, r3, #1
 1566 00d4 1344     		add	r3, r3, r2
 1567 00d6 5B00     		lsls	r3, r3, #1
 1568 00d8 0344     		add	r3, r3, r0
 1569 00da 0333     		adds	r3, r3, #3
 1570 00dc 1B78     		ldrb	r3, [r3]	@ zero_extendqisi2
 1571 00de 1BB2     		sxth	r3, r3
 1572 00e0 0B43     		orrs	r3, r3, r1
 1573 00e2 1BB2     		sxth	r3, r3
 1574 00e4 1846     		mov	r0, r3
 1575 00e6 FFF7FEFF 		bl	__aeabi_i2f
 1576 00ea 0346     		mov	r3, r0
 1577 00ec 3B64     		str	r3, [r7, #64]	@ float
 424:..\src/SPI_functions.c ****         var_h = Accel[n][4];
 1578              		.loc 1 424 0
 1579 00ee 8949     		ldr	r1, .L58+36
 1580 00f0 7A68     		ldr	r2, [r7, #4]
 1581 00f2 1346     		mov	r3, r2
 1582 00f4 5B00     		lsls	r3, r3, #1
 1583 00f6 1344     		add	r3, r3, r2
 1584 00f8 5B00     		lsls	r3, r3, #1
 1585 00fa 0B44     		add	r3, r3, r1
 1586 00fc 0433     		adds	r3, r3, #4
 1587 00fe 1B78     		ldrb	r3, [r3]	@ zero_extendqisi2
 1588 0100 A7F85A30 		strh	r3, [r7, #90]	@ movhi
 425:..\src/SPI_functions.c ****         aP[2] = (int16)(var_h << 8 | Accel[n][5]);
 1589              		.loc 1 425 0
 1590 0104 B7F95A30 		ldrsh	r3, [r7, #90]
 1591 0108 1B02     		lsls	r3, r3, #8
 1592 010a 19B2     		sxth	r1, r3
 1593 010c 8148     		ldr	r0, .L58+36
 1594 010e 7A68     		ldr	r2, [r7, #4]
 1595 0110 1346     		mov	r3, r2
 1596 0112 5B00     		lsls	r3, r3, #1
 1597 0114 1344     		add	r3, r3, r2
 1598 0116 5B00     		lsls	r3, r3, #1
 1599 0118 0344     		add	r3, r3, r0
 1600 011a 0533     		adds	r3, r3, #5
 1601 011c 1B78     		ldrb	r3, [r3]	@ zero_extendqisi2
 1602 011e 1BB2     		sxth	r3, r3
 1603 0120 0B43     		orrs	r3, r3, r1
 1604 0122 1BB2     		sxth	r3, r3
 1605 0124 1846     		mov	r0, r3
 1606 0126 FFF7FEFF 		bl	__aeabi_i2f
 1607 012a 0346     		mov	r3, r0
 1608 012c 7B64     		str	r3, [r7, #68]	@ float
 426:..\src/SPI_functions.c ****         
 427:..\src/SPI_functions.c ****         g[0] = 0;
 1609              		.loc 1 427 0
 1610 012e 4FF00003 		mov	r3, #0
 1611 0132 FB61     		str	r3, [r7, #28]	@ float
 428:..\src/SPI_functions.c ****         var_h = Gyro[n][0];
 1612              		.loc 1 428 0
ARM GAS  C:\Users\MattiaCP\AppData\Local\Temp\ccVW8gGQ.s 			page 37


 1613 0134 7849     		ldr	r1, .L58+40
 1614 0136 7A68     		ldr	r2, [r7, #4]
 1615 0138 1346     		mov	r3, r2
 1616 013a 5B00     		lsls	r3, r3, #1
 1617 013c 1344     		add	r3, r3, r2
 1618 013e 5B00     		lsls	r3, r3, #1
 1619 0140 0B44     		add	r3, r3, r1
 1620 0142 1B78     		ldrb	r3, [r3]	@ zero_extendqisi2
 1621 0144 A7F85A30 		strh	r3, [r7, #90]	@ movhi
 429:..\src/SPI_functions.c ****         g[1] = ((int16)(var_h << 8 | Gyro[n][1]))*TICK2GYRO;
 1622              		.loc 1 429 0
 1623 0148 B7F95A30 		ldrsh	r3, [r7, #90]
 1624 014c 1B02     		lsls	r3, r3, #8
 1625 014e 19B2     		sxth	r1, r3
 1626 0150 7148     		ldr	r0, .L58+40
 1627 0152 7A68     		ldr	r2, [r7, #4]
 1628 0154 1346     		mov	r3, r2
 1629 0156 5B00     		lsls	r3, r3, #1
 1630 0158 1344     		add	r3, r3, r2
 1631 015a 5B00     		lsls	r3, r3, #1
 1632 015c 0344     		add	r3, r3, r0
 1633 015e 0133     		adds	r3, r3, #1
 1634 0160 1B78     		ldrb	r3, [r3]	@ zero_extendqisi2
 1635 0162 1BB2     		sxth	r3, r3
 1636 0164 0B43     		orrs	r3, r3, r1
 1637 0166 1BB2     		sxth	r3, r3
 1638 0168 1846     		mov	r0, r3
 1639 016a FFF7FEFF 		bl	__aeabi_i2d
 1640 016e 60A3     		adr	r3, .L58
 1641 0170 D3E90023 		ldrd	r2, [r3]
 1642 0174 FFF7FEFF 		bl	__aeabi_dmul
 1643 0178 0346     		mov	r3, r0
 1644 017a 0C46     		mov	r4, r1
 1645 017c 1846     		mov	r0, r3
 1646 017e 2146     		mov	r1, r4
 1647 0180 FFF7FEFF 		bl	__aeabi_d2f
 1648 0184 0346     		mov	r3, r0
 1649 0186 3B62     		str	r3, [r7, #32]	@ float
 430:..\src/SPI_functions.c ****         if ( fabs(g[1]) < GYRO_THR ) g[1] = 0;
 1650              		.loc 1 430 0
 1651 0188 3B6A     		ldr	r3, [r7, #32]	@ float
 1652 018a 23F00043 		bic	r3, r3, #-2147483648
 1653 018e 1846     		mov	r0, r3
 1654 0190 FFF7FEFF 		bl	__aeabi_f2d
 1655 0194 58A3     		adr	r3, .L58+8
 1656 0196 D3E90023 		ldrd	r2, [r3]
 1657 019a FFF7FEFF 		bl	__aeabi_dcmplt
 1658 019e 0346     		mov	r3, r0
 1659 01a0 002B     		cmp	r3, #0
 1660 01a2 02D0     		beq	.L48
 1661              		.loc 1 430 0 is_stmt 0 discriminator 1
 1662 01a4 4FF00003 		mov	r3, #0
 1663 01a8 3B62     		str	r3, [r7, #32]	@ float
 1664              	.L48:
 431:..\src/SPI_functions.c ****         var_h = Gyro[n][2];
 1665              		.loc 1 431 0 is_stmt 1
 1666 01aa 5B49     		ldr	r1, .L58+40
ARM GAS  C:\Users\MattiaCP\AppData\Local\Temp\ccVW8gGQ.s 			page 38


 1667 01ac 7A68     		ldr	r2, [r7, #4]
 1668 01ae 1346     		mov	r3, r2
 1669 01b0 5B00     		lsls	r3, r3, #1
 1670 01b2 1344     		add	r3, r3, r2
 1671 01b4 5B00     		lsls	r3, r3, #1
 1672 01b6 0B44     		add	r3, r3, r1
 1673 01b8 0233     		adds	r3, r3, #2
 1674 01ba 1B78     		ldrb	r3, [r3]	@ zero_extendqisi2
 1675 01bc A7F85A30 		strh	r3, [r7, #90]	@ movhi
 432:..\src/SPI_functions.c ****         g[2] = ((int16)(var_h << 8 | Gyro[n][3]))*TICK2GYRO; 
 1676              		.loc 1 432 0
 1677 01c0 B7F95A30 		ldrsh	r3, [r7, #90]
 1678 01c4 1B02     		lsls	r3, r3, #8
 1679 01c6 19B2     		sxth	r1, r3
 1680 01c8 5348     		ldr	r0, .L58+40
 1681 01ca 7A68     		ldr	r2, [r7, #4]
 1682 01cc 1346     		mov	r3, r2
 1683 01ce 5B00     		lsls	r3, r3, #1
 1684 01d0 1344     		add	r3, r3, r2
 1685 01d2 5B00     		lsls	r3, r3, #1
 1686 01d4 0344     		add	r3, r3, r0
 1687 01d6 0333     		adds	r3, r3, #3
 1688 01d8 1B78     		ldrb	r3, [r3]	@ zero_extendqisi2
 1689 01da 1BB2     		sxth	r3, r3
 1690 01dc 0B43     		orrs	r3, r3, r1
 1691 01de 1BB2     		sxth	r3, r3
 1692 01e0 1846     		mov	r0, r3
 1693 01e2 FFF7FEFF 		bl	__aeabi_i2d
 1694 01e6 42A3     		adr	r3, .L58
 1695 01e8 D3E90023 		ldrd	r2, [r3]
 1696 01ec FFF7FEFF 		bl	__aeabi_dmul
 1697 01f0 0346     		mov	r3, r0
 1698 01f2 0C46     		mov	r4, r1
 1699 01f4 1846     		mov	r0, r3
 1700 01f6 2146     		mov	r1, r4
 1701 01f8 FFF7FEFF 		bl	__aeabi_d2f
 1702 01fc 0346     		mov	r3, r0
 1703 01fe 7B62     		str	r3, [r7, #36]	@ float
 433:..\src/SPI_functions.c ****         if ( fabs(g[2]) < GYRO_THR ) g[2] = 0;
 1704              		.loc 1 433 0
 1705 0200 7B6A     		ldr	r3, [r7, #36]	@ float
 1706 0202 23F00043 		bic	r3, r3, #-2147483648
 1707 0206 1846     		mov	r0, r3
 1708 0208 FFF7FEFF 		bl	__aeabi_f2d
 1709 020c 3AA3     		adr	r3, .L58+8
 1710 020e D3E90023 		ldrd	r2, [r3]
 1711 0212 FFF7FEFF 		bl	__aeabi_dcmplt
 1712 0216 0346     		mov	r3, r0
 1713 0218 002B     		cmp	r3, #0
 1714 021a 02D0     		beq	.L50
 1715              		.loc 1 433 0 is_stmt 0 discriminator 1
 1716 021c 4FF00003 		mov	r3, #0
 1717 0220 7B62     		str	r3, [r7, #36]	@ float
 1718              	.L50:
 434:..\src/SPI_functions.c ****         var_h = Gyro[n][4];
 1719              		.loc 1 434 0 is_stmt 1
 1720 0222 3D49     		ldr	r1, .L58+40
ARM GAS  C:\Users\MattiaCP\AppData\Local\Temp\ccVW8gGQ.s 			page 39


 1721 0224 7A68     		ldr	r2, [r7, #4]
 1722 0226 1346     		mov	r3, r2
 1723 0228 5B00     		lsls	r3, r3, #1
 1724 022a 1344     		add	r3, r3, r2
 1725 022c 5B00     		lsls	r3, r3, #1
 1726 022e 0B44     		add	r3, r3, r1
 1727 0230 0433     		adds	r3, r3, #4
 1728 0232 1B78     		ldrb	r3, [r3]	@ zero_extendqisi2
 1729 0234 A7F85A30 		strh	r3, [r7, #90]	@ movhi
 435:..\src/SPI_functions.c ****         g[3] = ((int16)(var_h << 8 | Gyro[n][5]))*TICK2GYRO;
 1730              		.loc 1 435 0
 1731 0238 B7F95A30 		ldrsh	r3, [r7, #90]
 1732 023c 1B02     		lsls	r3, r3, #8
 1733 023e 19B2     		sxth	r1, r3
 1734 0240 3548     		ldr	r0, .L58+40
 1735 0242 7A68     		ldr	r2, [r7, #4]
 1736 0244 1346     		mov	r3, r2
 1737 0246 5B00     		lsls	r3, r3, #1
 1738 0248 1344     		add	r3, r3, r2
 1739 024a 5B00     		lsls	r3, r3, #1
 1740 024c 0344     		add	r3, r3, r0
 1741 024e 0533     		adds	r3, r3, #5
 1742 0250 1B78     		ldrb	r3, [r3]	@ zero_extendqisi2
 1743 0252 1BB2     		sxth	r3, r3
 1744 0254 0B43     		orrs	r3, r3, r1
 1745 0256 1BB2     		sxth	r3, r3
 1746 0258 1846     		mov	r0, r3
 1747 025a FFF7FEFF 		bl	__aeabi_i2d
 1748 025e 24A3     		adr	r3, .L58
 1749 0260 D3E90023 		ldrd	r2, [r3]
 1750 0264 FFF7FEFF 		bl	__aeabi_dmul
 1751 0268 0346     		mov	r3, r0
 1752 026a 0C46     		mov	r4, r1
 1753 026c 1846     		mov	r0, r3
 1754 026e 2146     		mov	r1, r4
 1755 0270 FFF7FEFF 		bl	__aeabi_d2f
 1756 0274 0346     		mov	r3, r0
 1757 0276 BB62     		str	r3, [r7, #40]	@ float
 436:..\src/SPI_functions.c ****         if ( fabs(g[3]) < GYRO_THR ) g[3] = 0;
 1758              		.loc 1 436 0
 1759 0278 BB6A     		ldr	r3, [r7, #40]	@ float
 1760 027a 23F00043 		bic	r3, r3, #-2147483648
 1761 027e 1846     		mov	r0, r3
 1762 0280 FFF7FEFF 		bl	__aeabi_f2d
 1763 0284 1CA3     		adr	r3, .L58+8
 1764 0286 D3E90023 		ldrd	r2, [r3]
 1765 028a FFF7FEFF 		bl	__aeabi_dcmplt
 1766 028e 0346     		mov	r3, r0
 1767 0290 002B     		cmp	r3, #0
 1768 0292 02D0     		beq	.L52
 1769              		.loc 1 436 0 is_stmt 0 discriminator 1
 1770 0294 4FF00003 		mov	r3, #0
 1771 0298 BB62     		str	r3, [r7, #40]	@ float
 1772              	.L52:
 437:..\src/SPI_functions.c ****         
 438:..\src/SPI_functions.c ****         // Normalize to 1
 439:..\src/SPI_functions.c ****         v3_normalize(aP);
ARM GAS  C:\Users\MattiaCP\AppData\Local\Temp\ccVW8gGQ.s 			page 40


 1773              		.loc 1 439 0 is_stmt 1
 1774 029a 07F13C03 		add	r3, r7, #60
 1775 029e 1846     		mov	r0, r3
 1776 02a0 FFF7FEFF 		bl	v3_normalize
 440:..\src/SPI_functions.c ****         
 441:..\src/SPI_functions.c ****         // Current quaternion assignment
 442:..\src/SPI_functions.c ****         qL[0] = Quat[0];
 1777              		.loc 1 442 0
 1778 02a4 1D4B     		ldr	r3, .L58+44
 1779 02a6 1B68     		ldr	r3, [r3]	@ float
 1780 02a8 FB60     		str	r3, [r7, #12]	@ float
 443:..\src/SPI_functions.c ****         qL[1] = Quat[1];
 1781              		.loc 1 443 0
 1782 02aa 1C4B     		ldr	r3, .L58+44
 1783 02ac 5B68     		ldr	r3, [r3, #4]	@ float
 1784 02ae 3B61     		str	r3, [r7, #16]	@ float
 444:..\src/SPI_functions.c ****         qL[2] = Quat[2];
 1785              		.loc 1 444 0
 1786 02b0 1A4B     		ldr	r3, .L58+44
 1787 02b2 9B68     		ldr	r3, [r3, #8]	@ float
 1788 02b4 7B61     		str	r3, [r7, #20]	@ float
 445:..\src/SPI_functions.c ****         qL[3] = Quat[3];   
 1789              		.loc 1 445 0
 1790 02b6 194B     		ldr	r3, .L58+44
 1791 02b8 DB68     		ldr	r3, [r3, #12]	@ float
 1792 02ba BB61     		str	r3, [r7, #24]	@ float
 446:..\src/SPI_functions.c ****         
 447:..\src/SPI_functions.c ****         // Napla computation
 448:..\src/SPI_functions.c ****         Napla[0] = (-qL[2]*((2*(qL[1]*qL[3]-qL[0]*qL[2]) - aP[0])) + qL[1]*((2*(qL[0]*qL[1] + qL[2]
 1793              		.loc 1 448 0
 1794 02bc 7B69     		ldr	r3, [r7, #20]	@ float
 1795 02be 83F00044 		eor	r4, r3, #-2147483648
 1796 02c2 3B69     		ldr	r3, [r7, #16]	@ float
 1797 02c4 BA69     		ldr	r2, [r7, #24]	@ float
 1798 02c6 1146     		mov	r1, r2
 1799 02c8 1846     		mov	r0, r3
 1800 02ca FFF7FEFF 		bl	__aeabi_fmul
 1801 02ce 0346     		mov	r3, r0
 1802 02d0 1D46     		mov	r5, r3
 1803 02d2 FB68     		ldr	r3, [r7, #12]	@ float
 1804 02d4 7A69     		ldr	r2, [r7, #20]	@ float
 1805 02d6 1146     		mov	r1, r2
 1806 02d8 1846     		mov	r0, r3
 1807 02da FFF7FEFF 		bl	__aeabi_fmul
 1808 02de 0346     		mov	r3, r0
 1809 02e0 1946     		mov	r1, r3
 1810 02e2 2846     		mov	r0, r5
 1811 02e4 FFF7FEFF 		bl	__aeabi_fsub
 1812 02e8 0346     		mov	r3, r0
 1813 02ea 19E0     		b	.L59
 1814              	.L60:
 1815 02ec AFF30080 		.align	3
 1816              	.L58:
 1817 02f0 D1ACA982 		.word	-2102809391
 1818 02f4 0A74213F 		.word	1059157002
 1819 02f8 6FF085C9 		.word	-913969041
 1820 02fc 54C1D03F 		.word	1070645588
ARM GAS  C:\Users\MattiaCP\AppData\Local\Temp\ccVW8gGQ.s 			page 41


 1821 0300 00000000 		.word	N_IMU_Connected
 1822 0304 00000000 		.word	c_mem
 1823 0308 00000000 		.word	timer_value0
 1824 030c 00000000 		.word	timer_value
 1825 0310 00247449 		.word	1232348160
 1826 0314 00000000 		.word	Accel
 1827 0318 00000000 		.word	Gyro
 1828 031c 00000000 		.word	Quat
 1829              	.L59:
 1830 0320 1946     		mov	r1, r3
 1831 0322 1846     		mov	r0, r3
 1832 0324 FFF7FEFF 		bl	__aeabi_fadd
 1833 0328 0346     		mov	r3, r0
 1834 032a 1A46     		mov	r2, r3
 1835 032c FB6B     		ldr	r3, [r7, #60]	@ float
 1836 032e 1946     		mov	r1, r3
 1837 0330 1046     		mov	r0, r2
 1838 0332 FFF7FEFF 		bl	__aeabi_fsub
 1839 0336 0346     		mov	r3, r0
 1840 0338 1946     		mov	r1, r3
 1841 033a 2046     		mov	r0, r4
 1842 033c FFF7FEFF 		bl	__aeabi_fmul
 1843 0340 0346     		mov	r3, r0
 1844 0342 1D46     		mov	r5, r3
 1845 0344 3C69     		ldr	r4, [r7, #16]	@ float
 1846 0346 FB68     		ldr	r3, [r7, #12]	@ float
 1847 0348 3A69     		ldr	r2, [r7, #16]	@ float
 1848 034a 1146     		mov	r1, r2
 1849 034c 1846     		mov	r0, r3
 1850 034e FFF7FEFF 		bl	__aeabi_fmul
 1851 0352 0346     		mov	r3, r0
 1852 0354 1E46     		mov	r6, r3
 1853 0356 7B69     		ldr	r3, [r7, #20]	@ float
 1854 0358 BA69     		ldr	r2, [r7, #24]	@ float
 1855 035a 1146     		mov	r1, r2
 1856 035c 1846     		mov	r0, r3
 1857 035e FFF7FEFF 		bl	__aeabi_fmul
 1858 0362 0346     		mov	r3, r0
 1859 0364 1946     		mov	r1, r3
 1860 0366 3046     		mov	r0, r6
 1861 0368 FFF7FEFF 		bl	__aeabi_fadd
 1862 036c 0346     		mov	r3, r0
 1863 036e 1946     		mov	r1, r3
 1864 0370 1846     		mov	r0, r3
 1865 0372 FFF7FEFF 		bl	__aeabi_fadd
 1866 0376 0346     		mov	r3, r0
 1867 0378 1A46     		mov	r2, r3
 1868 037a 3B6C     		ldr	r3, [r7, #64]	@ float
 1869 037c 1946     		mov	r1, r3
 1870 037e 1046     		mov	r0, r2
 1871 0380 FFF7FEFF 		bl	__aeabi_fsub
 1872 0384 0346     		mov	r3, r0
 1873 0386 1946     		mov	r1, r3
 1874 0388 2046     		mov	r0, r4
 1875 038a FFF7FEFF 		bl	__aeabi_fmul
 1876 038e 0346     		mov	r3, r0
 1877 0390 1946     		mov	r1, r3
ARM GAS  C:\Users\MattiaCP\AppData\Local\Temp\ccVW8gGQ.s 			page 42


 1878 0392 2846     		mov	r0, r5
 1879 0394 FFF7FEFF 		bl	__aeabi_fadd
 1880 0398 0346     		mov	r3, r0
 1881 039a 1846     		mov	r0, r3
 1882 039c FFF7FEFF 		bl	__aeabi_f2d
 1883 03a0 ADA3     		adr	r3, .L61
 1884 03a2 D3E90023 		ldrd	r2, [r3]
 1885 03a6 FFF7FEFF 		bl	__aeabi_dmul
 1886 03aa 0346     		mov	r3, r0
 1887 03ac 0C46     		mov	r4, r1
 1888 03ae 1846     		mov	r0, r3
 1889 03b0 2146     		mov	r1, r4
 1890 03b2 ABA3     		adr	r3, .L61+8
 1891 03b4 D3E90023 		ldrd	r2, [r3]
 1892 03b8 FFF7FEFF 		bl	__aeabi_dmul
 1893 03bc 0346     		mov	r3, r0
 1894 03be 0C46     		mov	r4, r1
 1895 03c0 1846     		mov	r0, r3
 1896 03c2 2146     		mov	r1, r4
 1897 03c4 FFF7FEFF 		bl	__aeabi_d2f
 1898 03c8 0346     		mov	r3, r0
 1899 03ca FB62     		str	r3, [r7, #44]	@ float
 449:..\src/SPI_functions.c ****         Napla[1] = (qL[3]*((2*(qL[1]*qL[3]-qL[0]*qL[2]) - aP[0])) + qL[0]*((2*(qL[0]*qL[1] + qL[2]*
 1900              		.loc 1 449 0
 1901 03cc BC69     		ldr	r4, [r7, #24]	@ float
 1902 03ce 3B69     		ldr	r3, [r7, #16]	@ float
 1903 03d0 BA69     		ldr	r2, [r7, #24]	@ float
 1904 03d2 1146     		mov	r1, r2
 1905 03d4 1846     		mov	r0, r3
 1906 03d6 FFF7FEFF 		bl	__aeabi_fmul
 1907 03da 0346     		mov	r3, r0
 1908 03dc 1D46     		mov	r5, r3
 1909 03de FB68     		ldr	r3, [r7, #12]	@ float
 1910 03e0 7A69     		ldr	r2, [r7, #20]	@ float
 1911 03e2 1146     		mov	r1, r2
 1912 03e4 1846     		mov	r0, r3
 1913 03e6 FFF7FEFF 		bl	__aeabi_fmul
 1914 03ea 0346     		mov	r3, r0
 1915 03ec 1946     		mov	r1, r3
 1916 03ee 2846     		mov	r0, r5
 1917 03f0 FFF7FEFF 		bl	__aeabi_fsub
 1918 03f4 0346     		mov	r3, r0
 1919 03f6 1946     		mov	r1, r3
 1920 03f8 1846     		mov	r0, r3
 1921 03fa FFF7FEFF 		bl	__aeabi_fadd
 1922 03fe 0346     		mov	r3, r0
 1923 0400 1A46     		mov	r2, r3
 1924 0402 FB6B     		ldr	r3, [r7, #60]	@ float
 1925 0404 1946     		mov	r1, r3
 1926 0406 1046     		mov	r0, r2
 1927 0408 FFF7FEFF 		bl	__aeabi_fsub
 1928 040c 0346     		mov	r3, r0
 1929 040e 1946     		mov	r1, r3
 1930 0410 2046     		mov	r0, r4
 1931 0412 FFF7FEFF 		bl	__aeabi_fmul
 1932 0416 0346     		mov	r3, r0
 1933 0418 1D46     		mov	r5, r3
ARM GAS  C:\Users\MattiaCP\AppData\Local\Temp\ccVW8gGQ.s 			page 43


 1934 041a FC68     		ldr	r4, [r7, #12]	@ float
 1935 041c FB68     		ldr	r3, [r7, #12]	@ float
 1936 041e 3A69     		ldr	r2, [r7, #16]	@ float
 1937 0420 1146     		mov	r1, r2
 1938 0422 1846     		mov	r0, r3
 1939 0424 FFF7FEFF 		bl	__aeabi_fmul
 1940 0428 0346     		mov	r3, r0
 1941 042a 1E46     		mov	r6, r3
 1942 042c 7B69     		ldr	r3, [r7, #20]	@ float
 1943 042e BA69     		ldr	r2, [r7, #24]	@ float
 1944 0430 1146     		mov	r1, r2
 1945 0432 1846     		mov	r0, r3
 1946 0434 FFF7FEFF 		bl	__aeabi_fmul
 1947 0438 0346     		mov	r3, r0
 1948 043a 1946     		mov	r1, r3
 1949 043c 3046     		mov	r0, r6
 1950 043e FFF7FEFF 		bl	__aeabi_fadd
 1951 0442 0346     		mov	r3, r0
 1952 0444 1946     		mov	r1, r3
 1953 0446 1846     		mov	r0, r3
 1954 0448 FFF7FEFF 		bl	__aeabi_fadd
 1955 044c 0346     		mov	r3, r0
 1956 044e 1A46     		mov	r2, r3
 1957 0450 3B6C     		ldr	r3, [r7, #64]	@ float
 1958 0452 1946     		mov	r1, r3
 1959 0454 1046     		mov	r0, r2
 1960 0456 FFF7FEFF 		bl	__aeabi_fsub
 1961 045a 0346     		mov	r3, r0
 1962 045c 1946     		mov	r1, r3
 1963 045e 2046     		mov	r0, r4
 1964 0460 FFF7FEFF 		bl	__aeabi_fmul
 1965 0464 0346     		mov	r3, r0
 1966 0466 1946     		mov	r1, r3
 1967 0468 2846     		mov	r0, r5
 1968 046a FFF7FEFF 		bl	__aeabi_fadd
 1969 046e 0346     		mov	r3, r0
 1970 0470 1846     		mov	r0, r3
 1971 0472 FFF7FEFF 		bl	__aeabi_f2d
 1972 0476 0446     		mov	r4, r0
 1973 0478 0D46     		mov	r5, r1
 1974 047a 3B69     		ldr	r3, [r7, #16]	@ float
 1975 047c 1946     		mov	r1, r3
 1976 047e 1846     		mov	r0, r3
 1977 0480 FFF7FEFF 		bl	__aeabi_fadd
 1978 0484 0346     		mov	r3, r0
 1979 0486 1846     		mov	r0, r3
 1980 0488 FFF7FEFF 		bl	__aeabi_f2d
 1981 048c 8046     		mov	r8, r0
 1982 048e 8946     		mov	r9, r1
 1983 0490 3B69     		ldr	r3, [r7, #16]	@ float
 1984 0492 3A69     		ldr	r2, [r7, #16]	@ float
 1985 0494 1146     		mov	r1, r2
 1986 0496 1846     		mov	r0, r3
 1987 0498 FFF7FEFF 		bl	__aeabi_fmul
 1988 049c 0346     		mov	r3, r0
 1989 049e 1846     		mov	r0, r3
 1990 04a0 FFF7FEFF 		bl	__aeabi_f2d
ARM GAS  C:\Users\MattiaCP\AppData\Local\Temp\ccVW8gGQ.s 			page 44


 1991 04a4 0246     		mov	r2, r0
 1992 04a6 0B46     		mov	r3, r1
 1993 04a8 4FF00000 		mov	r0, #0
 1994 04ac 6E49     		ldr	r1, .L61+16
 1995 04ae FFF7FEFF 		bl	__aeabi_dsub
 1996 04b2 0246     		mov	r2, r0
 1997 04b4 0B46     		mov	r3, r1
 1998 04b6 9246     		mov	r10, r2
 1999 04b8 9B46     		mov	fp, r3
 2000 04ba 7B69     		ldr	r3, [r7, #20]	@ float
 2001 04bc 7A69     		ldr	r2, [r7, #20]	@ float
 2002 04be 1146     		mov	r1, r2
 2003 04c0 1846     		mov	r0, r3
 2004 04c2 FFF7FEFF 		bl	__aeabi_fmul
 2005 04c6 0346     		mov	r3, r0
 2006 04c8 1846     		mov	r0, r3
 2007 04ca FFF7FEFF 		bl	__aeabi_f2d
 2008 04ce 0246     		mov	r2, r0
 2009 04d0 0B46     		mov	r3, r1
 2010 04d2 5046     		mov	r0, r10
 2011 04d4 5946     		mov	r1, fp
 2012 04d6 FFF7FEFF 		bl	__aeabi_dsub
 2013 04da 0246     		mov	r2, r0
 2014 04dc 0B46     		mov	r3, r1
 2015 04de 1046     		mov	r0, r2
 2016 04e0 1946     		mov	r1, r3
 2017 04e2 0246     		mov	r2, r0
 2018 04e4 0B46     		mov	r3, r1
 2019 04e6 FFF7FEFF 		bl	__aeabi_dadd
 2020 04ea 0246     		mov	r2, r0
 2021 04ec 0B46     		mov	r3, r1
 2022 04ee 9246     		mov	r10, r2
 2023 04f0 9B46     		mov	fp, r3
 2024 04f2 7B6C     		ldr	r3, [r7, #68]	@ float
 2025 04f4 1846     		mov	r0, r3
 2026 04f6 FFF7FEFF 		bl	__aeabi_f2d
 2027 04fa 0246     		mov	r2, r0
 2028 04fc 0B46     		mov	r3, r1
 2029 04fe 5046     		mov	r0, r10
 2030 0500 5946     		mov	r1, fp
 2031 0502 FFF7FEFF 		bl	__aeabi_dsub
 2032 0506 0246     		mov	r2, r0
 2033 0508 0B46     		mov	r3, r1
 2034 050a 4046     		mov	r0, r8
 2035 050c 4946     		mov	r1, r9
 2036 050e FFF7FEFF 		bl	__aeabi_dmul
 2037 0512 0246     		mov	r2, r0
 2038 0514 0B46     		mov	r3, r1
 2039 0516 2046     		mov	r0, r4
 2040 0518 2946     		mov	r1, r5
 2041 051a FFF7FEFF 		bl	__aeabi_dsub
 2042 051e 0346     		mov	r3, r0
 2043 0520 0C46     		mov	r4, r1
 2044 0522 1846     		mov	r0, r3
 2045 0524 2146     		mov	r1, r4
 2046 0526 4CA3     		adr	r3, .L61
 2047 0528 D3E90023 		ldrd	r2, [r3]
ARM GAS  C:\Users\MattiaCP\AppData\Local\Temp\ccVW8gGQ.s 			page 45


 2048 052c FFF7FEFF 		bl	__aeabi_dmul
 2049 0530 0346     		mov	r3, r0
 2050 0532 0C46     		mov	r4, r1
 2051 0534 1846     		mov	r0, r3
 2052 0536 2146     		mov	r1, r4
 2053 0538 49A3     		adr	r3, .L61+8
 2054 053a D3E90023 		ldrd	r2, [r3]
 2055 053e FFF7FEFF 		bl	__aeabi_dmul
 2056 0542 0346     		mov	r3, r0
 2057 0544 0C46     		mov	r4, r1
 2058 0546 1846     		mov	r0, r3
 2059 0548 2146     		mov	r1, r4
 2060 054a FFF7FEFF 		bl	__aeabi_d2f
 2061 054e 0346     		mov	r3, r0
 2062 0550 3B63     		str	r3, [r7, #48]	@ float
 450:..\src/SPI_functions.c ****         Napla[2] = (-qL[0]*((2*(qL[1]*qL[3]-qL[0]*qL[2]) - aP[0])) +qL[3]*((2*(qL[0]*qL[1] + qL[2]*
 2063              		.loc 1 450 0
 2064 0552 FB68     		ldr	r3, [r7, #12]	@ float
 2065 0554 83F00044 		eor	r4, r3, #-2147483648
 2066 0558 3B69     		ldr	r3, [r7, #16]	@ float
 2067 055a BA69     		ldr	r2, [r7, #24]	@ float
 2068 055c 1146     		mov	r1, r2
 2069 055e 1846     		mov	r0, r3
 2070 0560 FFF7FEFF 		bl	__aeabi_fmul
 2071 0564 0346     		mov	r3, r0
 2072 0566 1D46     		mov	r5, r3
 2073 0568 FB68     		ldr	r3, [r7, #12]	@ float
 2074 056a 7A69     		ldr	r2, [r7, #20]	@ float
 2075 056c 1146     		mov	r1, r2
 2076 056e 1846     		mov	r0, r3
 2077 0570 FFF7FEFF 		bl	__aeabi_fmul
 2078 0574 0346     		mov	r3, r0
 2079 0576 1946     		mov	r1, r3
 2080 0578 2846     		mov	r0, r5
 2081 057a FFF7FEFF 		bl	__aeabi_fsub
 2082 057e 0346     		mov	r3, r0
 2083 0580 1946     		mov	r1, r3
 2084 0582 1846     		mov	r0, r3
 2085 0584 FFF7FEFF 		bl	__aeabi_fadd
 2086 0588 0346     		mov	r3, r0
 2087 058a 1A46     		mov	r2, r3
 2088 058c FB6B     		ldr	r3, [r7, #60]	@ float
 2089 058e 1946     		mov	r1, r3
 2090 0590 1046     		mov	r0, r2
 2091 0592 FFF7FEFF 		bl	__aeabi_fsub
 2092 0596 0346     		mov	r3, r0
 2093 0598 1946     		mov	r1, r3
 2094 059a 2046     		mov	r0, r4
 2095 059c FFF7FEFF 		bl	__aeabi_fmul
 2096 05a0 0346     		mov	r3, r0
 2097 05a2 1D46     		mov	r5, r3
 2098 05a4 BC69     		ldr	r4, [r7, #24]	@ float
 2099 05a6 FB68     		ldr	r3, [r7, #12]	@ float
 2100 05a8 3A69     		ldr	r2, [r7, #16]	@ float
 2101 05aa 1146     		mov	r1, r2
 2102 05ac 1846     		mov	r0, r3
 2103 05ae FFF7FEFF 		bl	__aeabi_fmul
ARM GAS  C:\Users\MattiaCP\AppData\Local\Temp\ccVW8gGQ.s 			page 46


 2104 05b2 0346     		mov	r3, r0
 2105 05b4 1E46     		mov	r6, r3
 2106 05b6 7B69     		ldr	r3, [r7, #20]	@ float
 2107 05b8 BA69     		ldr	r2, [r7, #24]	@ float
 2108 05ba 1146     		mov	r1, r2
 2109 05bc 1846     		mov	r0, r3
 2110 05be FFF7FEFF 		bl	__aeabi_fmul
 2111 05c2 0346     		mov	r3, r0
 2112 05c4 1946     		mov	r1, r3
 2113 05c6 3046     		mov	r0, r6
 2114 05c8 FFF7FEFF 		bl	__aeabi_fadd
 2115 05cc 0346     		mov	r3, r0
 2116 05ce 1946     		mov	r1, r3
 2117 05d0 1846     		mov	r0, r3
 2118 05d2 FFF7FEFF 		bl	__aeabi_fadd
 2119 05d6 0346     		mov	r3, r0
 2120 05d8 1A46     		mov	r2, r3
 2121 05da 3B6C     		ldr	r3, [r7, #64]	@ float
 2122 05dc 1946     		mov	r1, r3
 2123 05de 1046     		mov	r0, r2
 2124 05e0 FFF7FEFF 		bl	__aeabi_fsub
 2125 05e4 0346     		mov	r3, r0
 2126 05e6 1946     		mov	r1, r3
 2127 05e8 2046     		mov	r0, r4
 2128 05ea FFF7FEFF 		bl	__aeabi_fmul
 2129 05ee 0346     		mov	r3, r0
 2130 05f0 1946     		mov	r1, r3
 2131 05f2 2846     		mov	r0, r5
 2132 05f4 FFF7FEFF 		bl	__aeabi_fadd
 2133 05f8 0346     		mov	r3, r0
 2134 05fa 1846     		mov	r0, r3
 2135 05fc FFF7FEFF 		bl	__aeabi_f2d
 2136 0600 0446     		mov	r4, r0
 2137 0602 0D46     		mov	r5, r1
 2138 0604 7B69     		ldr	r3, [r7, #20]	@ float
 2139 0606 1946     		mov	r1, r3
 2140 0608 1846     		mov	r0, r3
 2141 060a FFF7FEFF 		bl	__aeabi_fadd
 2142 060e 0346     		mov	r3, r0
 2143 0610 1846     		mov	r0, r3
 2144 0612 FFF7FEFF 		bl	__aeabi_f2d
 2145 0616 8046     		mov	r8, r0
 2146 0618 8946     		mov	r9, r1
 2147 061a 3B69     		ldr	r3, [r7, #16]	@ float
 2148 061c 3A69     		ldr	r2, [r7, #16]	@ float
 2149 061e 1146     		mov	r1, r2
 2150 0620 1846     		mov	r0, r3
 2151 0622 FFF7FEFF 		bl	__aeabi_fmul
 2152 0626 0346     		mov	r3, r0
 2153 0628 1846     		mov	r0, r3
 2154 062a FFF7FEFF 		bl	__aeabi_f2d
 2155 062e 0246     		mov	r2, r0
 2156 0630 0B46     		mov	r3, r1
 2157 0632 4FF00000 		mov	r0, #0
 2158 0636 0C49     		ldr	r1, .L61+16
 2159 0638 FFF7FEFF 		bl	__aeabi_dsub
 2160 063c 0246     		mov	r2, r0
ARM GAS  C:\Users\MattiaCP\AppData\Local\Temp\ccVW8gGQ.s 			page 47


 2161 063e 0B46     		mov	r3, r1
 2162 0640 9246     		mov	r10, r2
 2163 0642 9B46     		mov	fp, r3
 2164 0644 7B69     		ldr	r3, [r7, #20]	@ float
 2165 0646 7A69     		ldr	r2, [r7, #20]	@ float
 2166 0648 1146     		mov	r1, r2
 2167 064a 1846     		mov	r0, r3
 2168 064c FFF7FEFF 		bl	__aeabi_fmul
 2169 0650 0346     		mov	r3, r0
 2170 0652 1846     		mov	r0, r3
 2171 0654 0AE0     		b	.L62
 2172              	.L63:
 2173 0656 00BF     		.align	3
 2174              	.L61:
 2175 0658 08F4E5AC 		.word	-1394215928
 2176 065c 1F00103F 		.word	1058013215
 2177 0660 00000000 		.word	0
 2178 0664 006AF840 		.word	1090021888
 2179 0668 0000E03F 		.word	1071644672
 2180              	.L62:
 2181 066c FFF7FEFF 		bl	__aeabi_f2d
 2182 0670 0246     		mov	r2, r0
 2183 0672 0B46     		mov	r3, r1
 2184 0674 5046     		mov	r0, r10
 2185 0676 5946     		mov	r1, fp
 2186 0678 FFF7FEFF 		bl	__aeabi_dsub
 2187 067c 0246     		mov	r2, r0
 2188 067e 0B46     		mov	r3, r1
 2189 0680 1046     		mov	r0, r2
 2190 0682 1946     		mov	r1, r3
 2191 0684 0246     		mov	r2, r0
 2192 0686 0B46     		mov	r3, r1
 2193 0688 FFF7FEFF 		bl	__aeabi_dadd
 2194 068c 0246     		mov	r2, r0
 2195 068e 0B46     		mov	r3, r1
 2196 0690 9246     		mov	r10, r2
 2197 0692 9B46     		mov	fp, r3
 2198 0694 7B6C     		ldr	r3, [r7, #68]	@ float
 2199 0696 1846     		mov	r0, r3
 2200 0698 FFF7FEFF 		bl	__aeabi_f2d
 2201 069c 0246     		mov	r2, r0
 2202 069e 0B46     		mov	r3, r1
 2203 06a0 5046     		mov	r0, r10
 2204 06a2 5946     		mov	r1, fp
 2205 06a4 FFF7FEFF 		bl	__aeabi_dsub
 2206 06a8 0246     		mov	r2, r0
 2207 06aa 0B46     		mov	r3, r1
 2208 06ac 4046     		mov	r0, r8
 2209 06ae 4946     		mov	r1, r9
 2210 06b0 FFF7FEFF 		bl	__aeabi_dmul
 2211 06b4 0246     		mov	r2, r0
 2212 06b6 0B46     		mov	r3, r1
 2213 06b8 2046     		mov	r0, r4
 2214 06ba 2946     		mov	r1, r5
 2215 06bc FFF7FEFF 		bl	__aeabi_dsub
 2216 06c0 0346     		mov	r3, r0
 2217 06c2 0C46     		mov	r4, r1
ARM GAS  C:\Users\MattiaCP\AppData\Local\Temp\ccVW8gGQ.s 			page 48


 2218 06c4 1846     		mov	r0, r3
 2219 06c6 2146     		mov	r1, r4
 2220 06c8 A9A3     		adr	r3, .L64
 2221 06ca D3E90023 		ldrd	r2, [r3]
 2222 06ce FFF7FEFF 		bl	__aeabi_dmul
 2223 06d2 0346     		mov	r3, r0
 2224 06d4 0C46     		mov	r4, r1
 2225 06d6 1846     		mov	r0, r3
 2226 06d8 2146     		mov	r1, r4
 2227 06da A7A3     		adr	r3, .L64+8
 2228 06dc D3E90023 		ldrd	r2, [r3]
 2229 06e0 FFF7FEFF 		bl	__aeabi_dmul
 2230 06e4 0346     		mov	r3, r0
 2231 06e6 0C46     		mov	r4, r1
 2232 06e8 1846     		mov	r0, r3
 2233 06ea 2146     		mov	r1, r4
 2234 06ec FFF7FEFF 		bl	__aeabi_d2f
 2235 06f0 0346     		mov	r3, r0
 2236 06f2 7B63     		str	r3, [r7, #52]	@ float
 451:..\src/SPI_functions.c ****         Napla[3] = (qL[1]*((2*(qL[1]*qL[3]-qL[0]*qL[2]) - aP[0])) + qL[2]*((2*(qL[0]*qL[1] + qL[2]*
 2237              		.loc 1 451 0
 2238 06f4 3C69     		ldr	r4, [r7, #16]	@ float
 2239 06f6 3B69     		ldr	r3, [r7, #16]	@ float
 2240 06f8 BA69     		ldr	r2, [r7, #24]	@ float
 2241 06fa 1146     		mov	r1, r2
 2242 06fc 1846     		mov	r0, r3
 2243 06fe FFF7FEFF 		bl	__aeabi_fmul
 2244 0702 0346     		mov	r3, r0
 2245 0704 1D46     		mov	r5, r3
 2246 0706 FB68     		ldr	r3, [r7, #12]	@ float
 2247 0708 7A69     		ldr	r2, [r7, #20]	@ float
 2248 070a 1146     		mov	r1, r2
 2249 070c 1846     		mov	r0, r3
 2250 070e FFF7FEFF 		bl	__aeabi_fmul
 2251 0712 0346     		mov	r3, r0
 2252 0714 1946     		mov	r1, r3
 2253 0716 2846     		mov	r0, r5
 2254 0718 FFF7FEFF 		bl	__aeabi_fsub
 2255 071c 0346     		mov	r3, r0
 2256 071e 1946     		mov	r1, r3
 2257 0720 1846     		mov	r0, r3
 2258 0722 FFF7FEFF 		bl	__aeabi_fadd
 2259 0726 0346     		mov	r3, r0
 2260 0728 1A46     		mov	r2, r3
 2261 072a FB6B     		ldr	r3, [r7, #60]	@ float
 2262 072c 1946     		mov	r1, r3
 2263 072e 1046     		mov	r0, r2
 2264 0730 FFF7FEFF 		bl	__aeabi_fsub
 2265 0734 0346     		mov	r3, r0
 2266 0736 1946     		mov	r1, r3
 2267 0738 2046     		mov	r0, r4
 2268 073a FFF7FEFF 		bl	__aeabi_fmul
 2269 073e 0346     		mov	r3, r0
 2270 0740 1D46     		mov	r5, r3
 2271 0742 7C69     		ldr	r4, [r7, #20]	@ float
 2272 0744 FB68     		ldr	r3, [r7, #12]	@ float
 2273 0746 3A69     		ldr	r2, [r7, #16]	@ float
ARM GAS  C:\Users\MattiaCP\AppData\Local\Temp\ccVW8gGQ.s 			page 49


 2274 0748 1146     		mov	r1, r2
 2275 074a 1846     		mov	r0, r3
 2276 074c FFF7FEFF 		bl	__aeabi_fmul
 2277 0750 0346     		mov	r3, r0
 2278 0752 1E46     		mov	r6, r3
 2279 0754 7B69     		ldr	r3, [r7, #20]	@ float
 2280 0756 BA69     		ldr	r2, [r7, #24]	@ float
 2281 0758 1146     		mov	r1, r2
 2282 075a 1846     		mov	r0, r3
 2283 075c FFF7FEFF 		bl	__aeabi_fmul
 2284 0760 0346     		mov	r3, r0
 2285 0762 1946     		mov	r1, r3
 2286 0764 3046     		mov	r0, r6
 2287 0766 FFF7FEFF 		bl	__aeabi_fadd
 2288 076a 0346     		mov	r3, r0
 2289 076c 1946     		mov	r1, r3
 2290 076e 1846     		mov	r0, r3
 2291 0770 FFF7FEFF 		bl	__aeabi_fadd
 2292 0774 0346     		mov	r3, r0
 2293 0776 1A46     		mov	r2, r3
 2294 0778 3B6C     		ldr	r3, [r7, #64]	@ float
 2295 077a 1946     		mov	r1, r3
 2296 077c 1046     		mov	r0, r2
 2297 077e FFF7FEFF 		bl	__aeabi_fsub
 2298 0782 0346     		mov	r3, r0
 2299 0784 1946     		mov	r1, r3
 2300 0786 2046     		mov	r0, r4
 2301 0788 FFF7FEFF 		bl	__aeabi_fmul
 2302 078c 0346     		mov	r3, r0
 2303 078e 1946     		mov	r1, r3
 2304 0790 2846     		mov	r0, r5
 2305 0792 FFF7FEFF 		bl	__aeabi_fadd
 2306 0796 0346     		mov	r3, r0
 2307 0798 1846     		mov	r0, r3
 2308 079a FFF7FEFF 		bl	__aeabi_f2d
 2309 079e 74A3     		adr	r3, .L64
 2310 07a0 D3E90023 		ldrd	r2, [r3]
 2311 07a4 FFF7FEFF 		bl	__aeabi_dmul
 2312 07a8 0346     		mov	r3, r0
 2313 07aa 0C46     		mov	r4, r1
 2314 07ac 1846     		mov	r0, r3
 2315 07ae 2146     		mov	r1, r4
 2316 07b0 71A3     		adr	r3, .L64+8
 2317 07b2 D3E90023 		ldrd	r2, [r3]
 2318 07b6 FFF7FEFF 		bl	__aeabi_dmul
 2319 07ba 0346     		mov	r3, r0
 2320 07bc 0C46     		mov	r4, r1
 2321 07be 1846     		mov	r0, r3
 2322 07c0 2146     		mov	r1, r4
 2323 07c2 FFF7FEFF 		bl	__aeabi_d2f
 2324 07c6 0346     		mov	r3, r0
 2325 07c8 BB63     		str	r3, [r7, #56]	@ float
 452:..\src/SPI_functions.c ****         
 453:..\src/SPI_functions.c ****         qd0 = 0.5*(-(qL[1]*g[1] + qL[2]*g[2] + qL[3]*g[3])) - Napla[0];
 2326              		.loc 1 453 0
 2327 07ca 3B69     		ldr	r3, [r7, #16]	@ float
 2328 07cc 3A6A     		ldr	r2, [r7, #32]	@ float
ARM GAS  C:\Users\MattiaCP\AppData\Local\Temp\ccVW8gGQ.s 			page 50


 2329 07ce 1146     		mov	r1, r2
 2330 07d0 1846     		mov	r0, r3
 2331 07d2 FFF7FEFF 		bl	__aeabi_fmul
 2332 07d6 0346     		mov	r3, r0
 2333 07d8 1C46     		mov	r4, r3
 2334 07da 7B69     		ldr	r3, [r7, #20]	@ float
 2335 07dc 7A6A     		ldr	r2, [r7, #36]	@ float
 2336 07de 1146     		mov	r1, r2
 2337 07e0 1846     		mov	r0, r3
 2338 07e2 FFF7FEFF 		bl	__aeabi_fmul
 2339 07e6 0346     		mov	r3, r0
 2340 07e8 1946     		mov	r1, r3
 2341 07ea 2046     		mov	r0, r4
 2342 07ec FFF7FEFF 		bl	__aeabi_fadd
 2343 07f0 0346     		mov	r3, r0
 2344 07f2 1C46     		mov	r4, r3
 2345 07f4 BB69     		ldr	r3, [r7, #24]	@ float
 2346 07f6 BA6A     		ldr	r2, [r7, #40]	@ float
 2347 07f8 1146     		mov	r1, r2
 2348 07fa 1846     		mov	r0, r3
 2349 07fc FFF7FEFF 		bl	__aeabi_fmul
 2350 0800 0346     		mov	r3, r0
 2351 0802 1946     		mov	r1, r3
 2352 0804 2046     		mov	r0, r4
 2353 0806 FFF7FEFF 		bl	__aeabi_fadd
 2354 080a 0346     		mov	r3, r0
 2355 080c 83F00043 		eor	r3, r3, #-2147483648
 2356 0810 1846     		mov	r0, r3
 2357 0812 FFF7FEFF 		bl	__aeabi_f2d
 2358 0816 4FF00002 		mov	r2, #0
 2359 081a 594B     		ldr	r3, .L64+16
 2360 081c FFF7FEFF 		bl	__aeabi_dmul
 2361 0820 0346     		mov	r3, r0
 2362 0822 0C46     		mov	r4, r1
 2363 0824 2546     		mov	r5, r4
 2364 0826 1C46     		mov	r4, r3
 2365 0828 FB6A     		ldr	r3, [r7, #44]	@ float
 2366 082a 1846     		mov	r0, r3
 2367 082c FFF7FEFF 		bl	__aeabi_f2d
 2368 0830 0246     		mov	r2, r0
 2369 0832 0B46     		mov	r3, r1
 2370 0834 2046     		mov	r0, r4
 2371 0836 2946     		mov	r1, r5
 2372 0838 FFF7FEFF 		bl	__aeabi_dsub
 2373 083c 0346     		mov	r3, r0
 2374 083e 0C46     		mov	r4, r1
 2375 0840 1846     		mov	r0, r3
 2376 0842 2146     		mov	r1, r4
 2377 0844 FFF7FEFF 		bl	__aeabi_d2f
 2378 0848 0346     		mov	r3, r0
 2379 084a 7B65     		str	r3, [r7, #84]	@ float
 454:..\src/SPI_functions.c ****         qd1 = 0.5*(qL[0]*g[1] + (qL[2]*g[3] - qL[3]*g[2])) - Napla[1];
 2380              		.loc 1 454 0
 2381 084c FB68     		ldr	r3, [r7, #12]	@ float
 2382 084e 3A6A     		ldr	r2, [r7, #32]	@ float
 2383 0850 1146     		mov	r1, r2
 2384 0852 1846     		mov	r0, r3
ARM GAS  C:\Users\MattiaCP\AppData\Local\Temp\ccVW8gGQ.s 			page 51


 2385 0854 FFF7FEFF 		bl	__aeabi_fmul
 2386 0858 0346     		mov	r3, r0
 2387 085a 1C46     		mov	r4, r3
 2388 085c 7B69     		ldr	r3, [r7, #20]	@ float
 2389 085e BA6A     		ldr	r2, [r7, #40]	@ float
 2390 0860 1146     		mov	r1, r2
 2391 0862 1846     		mov	r0, r3
 2392 0864 FFF7FEFF 		bl	__aeabi_fmul
 2393 0868 0346     		mov	r3, r0
 2394 086a 1D46     		mov	r5, r3
 2395 086c BB69     		ldr	r3, [r7, #24]	@ float
 2396 086e 7A6A     		ldr	r2, [r7, #36]	@ float
 2397 0870 1146     		mov	r1, r2
 2398 0872 1846     		mov	r0, r3
 2399 0874 FFF7FEFF 		bl	__aeabi_fmul
 2400 0878 0346     		mov	r3, r0
 2401 087a 1946     		mov	r1, r3
 2402 087c 2846     		mov	r0, r5
 2403 087e FFF7FEFF 		bl	__aeabi_fsub
 2404 0882 0346     		mov	r3, r0
 2405 0884 1946     		mov	r1, r3
 2406 0886 2046     		mov	r0, r4
 2407 0888 FFF7FEFF 		bl	__aeabi_fadd
 2408 088c 0346     		mov	r3, r0
 2409 088e 1846     		mov	r0, r3
 2410 0890 FFF7FEFF 		bl	__aeabi_f2d
 2411 0894 4FF00002 		mov	r2, #0
 2412 0898 394B     		ldr	r3, .L64+16
 2413 089a FFF7FEFF 		bl	__aeabi_dmul
 2414 089e 0346     		mov	r3, r0
 2415 08a0 0C46     		mov	r4, r1
 2416 08a2 2546     		mov	r5, r4
 2417 08a4 1C46     		mov	r4, r3
 2418 08a6 3B6B     		ldr	r3, [r7, #48]	@ float
 2419 08a8 1846     		mov	r0, r3
 2420 08aa FFF7FEFF 		bl	__aeabi_f2d
 2421 08ae 0246     		mov	r2, r0
 2422 08b0 0B46     		mov	r3, r1
 2423 08b2 2046     		mov	r0, r4
 2424 08b4 2946     		mov	r1, r5
 2425 08b6 FFF7FEFF 		bl	__aeabi_dsub
 2426 08ba 0346     		mov	r3, r0
 2427 08bc 0C46     		mov	r4, r1
 2428 08be 1846     		mov	r0, r3
 2429 08c0 2146     		mov	r1, r4
 2430 08c2 FFF7FEFF 		bl	__aeabi_d2f
 2431 08c6 0346     		mov	r3, r0
 2432 08c8 3B65     		str	r3, [r7, #80]	@ float
 455:..\src/SPI_functions.c ****         qd2 = 0.5*(qL[0]*g[2] + (qL[3]*g[1] - qL[1]*g[3])) - Napla[2];
 2433              		.loc 1 455 0
 2434 08ca FB68     		ldr	r3, [r7, #12]	@ float
 2435 08cc 7A6A     		ldr	r2, [r7, #36]	@ float
 2436 08ce 1146     		mov	r1, r2
 2437 08d0 1846     		mov	r0, r3
 2438 08d2 FFF7FEFF 		bl	__aeabi_fmul
 2439 08d6 0346     		mov	r3, r0
 2440 08d8 1C46     		mov	r4, r3
ARM GAS  C:\Users\MattiaCP\AppData\Local\Temp\ccVW8gGQ.s 			page 52


 2441 08da BB69     		ldr	r3, [r7, #24]	@ float
 2442 08dc 3A6A     		ldr	r2, [r7, #32]	@ float
 2443 08de 1146     		mov	r1, r2
 2444 08e0 1846     		mov	r0, r3
 2445 08e2 FFF7FEFF 		bl	__aeabi_fmul
 2446 08e6 0346     		mov	r3, r0
 2447 08e8 1D46     		mov	r5, r3
 2448 08ea 3B69     		ldr	r3, [r7, #16]	@ float
 2449 08ec BA6A     		ldr	r2, [r7, #40]	@ float
 2450 08ee 1146     		mov	r1, r2
 2451 08f0 1846     		mov	r0, r3
 2452 08f2 FFF7FEFF 		bl	__aeabi_fmul
 2453 08f6 0346     		mov	r3, r0
 2454 08f8 1946     		mov	r1, r3
 2455 08fa 2846     		mov	r0, r5
 2456 08fc FFF7FEFF 		bl	__aeabi_fsub
 2457 0900 0346     		mov	r3, r0
 2458 0902 1946     		mov	r1, r3
 2459 0904 2046     		mov	r0, r4
 2460 0906 FFF7FEFF 		bl	__aeabi_fadd
 2461 090a 0346     		mov	r3, r0
 2462 090c 1846     		mov	r0, r3
 2463 090e FFF7FEFF 		bl	__aeabi_f2d
 2464 0912 4FF00002 		mov	r2, #0
 2465 0916 1A4B     		ldr	r3, .L64+16
 2466 0918 FFF7FEFF 		bl	__aeabi_dmul
 2467 091c 0346     		mov	r3, r0
 2468 091e 0C46     		mov	r4, r1
 2469 0920 2546     		mov	r5, r4
 2470 0922 1C46     		mov	r4, r3
 2471 0924 7B6B     		ldr	r3, [r7, #52]	@ float
 2472 0926 1846     		mov	r0, r3
 2473 0928 FFF7FEFF 		bl	__aeabi_f2d
 2474 092c 0246     		mov	r2, r0
 2475 092e 0B46     		mov	r3, r1
 2476 0930 2046     		mov	r0, r4
 2477 0932 2946     		mov	r1, r5
 2478 0934 FFF7FEFF 		bl	__aeabi_dsub
 2479 0938 0346     		mov	r3, r0
 2480 093a 0C46     		mov	r4, r1
 2481 093c 1846     		mov	r0, r3
 2482 093e 2146     		mov	r1, r4
 2483 0940 FFF7FEFF 		bl	__aeabi_d2f
 2484 0944 0346     		mov	r3, r0
 2485 0946 FB64     		str	r3, [r7, #76]	@ float
 456:..\src/SPI_functions.c ****         qd3 = 0.5*(qL[0]*g[3] + (qL[1]*g[2] - qL[2]*g[1])) - Napla[3];
 2486              		.loc 1 456 0
 2487 0948 FB68     		ldr	r3, [r7, #12]	@ float
 2488 094a BA6A     		ldr	r2, [r7, #40]	@ float
 2489 094c 1146     		mov	r1, r2
 2490 094e 1846     		mov	r0, r3
 2491 0950 FFF7FEFF 		bl	__aeabi_fmul
 2492 0954 0346     		mov	r3, r0
 2493 0956 1C46     		mov	r4, r3
 2494 0958 3B69     		ldr	r3, [r7, #16]	@ float
 2495 095a 7A6A     		ldr	r2, [r7, #36]	@ float
 2496 095c 1146     		mov	r1, r2
ARM GAS  C:\Users\MattiaCP\AppData\Local\Temp\ccVW8gGQ.s 			page 53


 2497 095e 1846     		mov	r0, r3
 2498 0960 FFF7FEFF 		bl	__aeabi_fmul
 2499 0964 0346     		mov	r3, r0
 2500 0966 1D46     		mov	r5, r3
 2501 0968 7B69     		ldr	r3, [r7, #20]	@ float
 2502 096a 3A6A     		ldr	r2, [r7, #32]	@ float
 2503 096c 1146     		mov	r1, r2
 2504 096e 09E0     		b	.L65
 2505              	.L66:
 2506              		.align	3
 2507              	.L64:
 2508 0970 08F4E5AC 		.word	-1394215928
 2509 0974 1F00103F 		.word	1058013215
 2510 0978 00000000 		.word	0
 2511 097c 006AF840 		.word	1090021888
 2512 0980 0000E03F 		.word	1071644672
 2513              	.L65:
 2514 0984 1846     		mov	r0, r3
 2515 0986 FFF7FEFF 		bl	__aeabi_fmul
 2516 098a 0346     		mov	r3, r0
 2517 098c 1946     		mov	r1, r3
 2518 098e 2846     		mov	r0, r5
 2519 0990 FFF7FEFF 		bl	__aeabi_fsub
 2520 0994 0346     		mov	r3, r0
 2521 0996 1946     		mov	r1, r3
 2522 0998 2046     		mov	r0, r4
 2523 099a FFF7FEFF 		bl	__aeabi_fadd
 2524 099e 0346     		mov	r3, r0
 2525 09a0 1846     		mov	r0, r3
 2526 09a2 FFF7FEFF 		bl	__aeabi_f2d
 2527 09a6 4FF00002 		mov	r2, #0
 2528 09aa 2F4B     		ldr	r3, .L67
 2529 09ac FFF7FEFF 		bl	__aeabi_dmul
 2530 09b0 0346     		mov	r3, r0
 2531 09b2 0C46     		mov	r4, r1
 2532 09b4 2546     		mov	r5, r4
 2533 09b6 1C46     		mov	r4, r3
 2534 09b8 BB6B     		ldr	r3, [r7, #56]	@ float
 2535 09ba 1846     		mov	r0, r3
 2536 09bc FFF7FEFF 		bl	__aeabi_f2d
 2537 09c0 0246     		mov	r2, r0
 2538 09c2 0B46     		mov	r3, r1
 2539 09c4 2046     		mov	r0, r4
 2540 09c6 2946     		mov	r1, r5
 2541 09c8 FFF7FEFF 		bl	__aeabi_dsub
 2542 09cc 0346     		mov	r3, r0
 2543 09ce 0C46     		mov	r4, r1
 2544 09d0 1846     		mov	r0, r3
 2545 09d2 2146     		mov	r1, r4
 2546 09d4 FFF7FEFF 		bl	__aeabi_d2f
 2547 09d8 0346     		mov	r3, r0
 2548 09da BB64     		str	r3, [r7, #72]	@ float
 457:..\src/SPI_functions.c ****                 
 458:..\src/SPI_functions.c ****         qL[0] = qL[0] + qd0*time;
 2549              		.loc 1 458 0
 2550 09dc FC68     		ldr	r4, [r7, #12]	@ float
 2551 09de F96D     		ldr	r1, [r7, #92]	@ float
ARM GAS  C:\Users\MattiaCP\AppData\Local\Temp\ccVW8gGQ.s 			page 54


 2552 09e0 786D     		ldr	r0, [r7, #84]	@ float
 2553 09e2 FFF7FEFF 		bl	__aeabi_fmul
 2554 09e6 0346     		mov	r3, r0
 2555 09e8 1946     		mov	r1, r3
 2556 09ea 2046     		mov	r0, r4
 2557 09ec FFF7FEFF 		bl	__aeabi_fadd
 2558 09f0 0346     		mov	r3, r0
 2559 09f2 FB60     		str	r3, [r7, #12]	@ float
 459:..\src/SPI_functions.c ****         qL[1] = qL[1] + qd1*time;
 2560              		.loc 1 459 0
 2561 09f4 3C69     		ldr	r4, [r7, #16]	@ float
 2562 09f6 F96D     		ldr	r1, [r7, #92]	@ float
 2563 09f8 386D     		ldr	r0, [r7, #80]	@ float
 2564 09fa FFF7FEFF 		bl	__aeabi_fmul
 2565 09fe 0346     		mov	r3, r0
 2566 0a00 1946     		mov	r1, r3
 2567 0a02 2046     		mov	r0, r4
 2568 0a04 FFF7FEFF 		bl	__aeabi_fadd
 2569 0a08 0346     		mov	r3, r0
 2570 0a0a 3B61     		str	r3, [r7, #16]	@ float
 460:..\src/SPI_functions.c ****         qL[2] = qL[2] + qd2*time;
 2571              		.loc 1 460 0
 2572 0a0c 7C69     		ldr	r4, [r7, #20]	@ float
 2573 0a0e F96D     		ldr	r1, [r7, #92]	@ float
 2574 0a10 F86C     		ldr	r0, [r7, #76]	@ float
 2575 0a12 FFF7FEFF 		bl	__aeabi_fmul
 2576 0a16 0346     		mov	r3, r0
 2577 0a18 1946     		mov	r1, r3
 2578 0a1a 2046     		mov	r0, r4
 2579 0a1c FFF7FEFF 		bl	__aeabi_fadd
 2580 0a20 0346     		mov	r3, r0
 2581 0a22 7B61     		str	r3, [r7, #20]	@ float
 461:..\src/SPI_functions.c ****         qL[3] = qL[3] + qd3*time;
 2582              		.loc 1 461 0
 2583 0a24 BC69     		ldr	r4, [r7, #24]	@ float
 2584 0a26 F96D     		ldr	r1, [r7, #92]	@ float
 2585 0a28 B86C     		ldr	r0, [r7, #72]	@ float
 2586 0a2a FFF7FEFF 		bl	__aeabi_fmul
 2587 0a2e 0346     		mov	r3, r0
 2588 0a30 1946     		mov	r1, r3
 2589 0a32 2046     		mov	r0, r4
 2590 0a34 FFF7FEFF 		bl	__aeabi_fadd
 2591 0a38 0346     		mov	r3, r0
 2592 0a3a BB61     		str	r3, [r7, #24]	@ float
 462:..\src/SPI_functions.c ****         v4_normalize(qL);
 2593              		.loc 1 462 0
 2594 0a3c 07F10C03 		add	r3, r7, #12
 2595 0a40 1846     		mov	r0, r3
 2596 0a42 FFF7FEFF 		bl	v4_normalize
 463:..\src/SPI_functions.c ****         
 464:..\src/SPI_functions.c ****         // Quaternion update      
 465:..\src/SPI_functions.c ****         Quat[0] = qL[0];
 2597              		.loc 1 465 0
 2598 0a46 FB68     		ldr	r3, [r7, #12]	@ float
 2599 0a48 084A     		ldr	r2, .L67+4
 2600 0a4a 1360     		str	r3, [r2]	@ float
 466:..\src/SPI_functions.c ****         Quat[1] = qL[1];
ARM GAS  C:\Users\MattiaCP\AppData\Local\Temp\ccVW8gGQ.s 			page 55


 2601              		.loc 1 466 0
 2602 0a4c 3B69     		ldr	r3, [r7, #16]	@ float
 2603 0a4e 074A     		ldr	r2, .L67+4
 2604 0a50 5360     		str	r3, [r2, #4]	@ float
 467:..\src/SPI_functions.c ****         Quat[2] = qL[2];
 2605              		.loc 1 467 0
 2606 0a52 7B69     		ldr	r3, [r7, #20]	@ float
 2607 0a54 054A     		ldr	r2, .L67+4
 2608 0a56 9360     		str	r3, [r2, #8]	@ float
 468:..\src/SPI_functions.c ****         Quat[3] = qL[3];
 2609              		.loc 1 468 0
 2610 0a58 BB69     		ldr	r3, [r7, #24]	@ float
 2611 0a5a 044A     		ldr	r2, .L67+4
 2612 0a5c D360     		str	r3, [r2, #12]	@ float
 2613              	.L44:
 469:..\src/SPI_functions.c ****     }
 470:..\src/SPI_functions.c ****     else {
 471:..\src/SPI_functions.c ****         return;
 472:..\src/SPI_functions.c ****     }
 473:..\src/SPI_functions.c **** }
 2614              		.loc 1 473 0
 2615 0a5e 6437     		adds	r7, r7, #100
 2616              		.cfi_def_cfa_offset 36
 2617 0a60 BD46     		mov	sp, r7
 2618              		.cfi_def_cfa_register 13
 2619              		@ sp needed
 2620 0a62 BDE8F08F 		pop	{r4, r5, r6, r7, r8, r9, r10, fp, pc}
 2621              	.L68:
 2622 0a66 00BF     		.align	2
 2623              	.L67:
 2624 0a68 0000E03F 		.word	1071644672
 2625 0a6c 00000000 		.word	Quat
 2626              		.cfi_endproc
 2627              	.LFE74:
 2628              		.size	ReadQuat, .-ReadQuat
 2629              		.section	.text.ReadAllIMUs,"ax",%progbits
 2630              		.align	2
 2631              		.global	ReadAllIMUs
 2632              		.thumb
 2633              		.thumb_func
 2634              		.type	ReadAllIMUs, %function
 2635              	ReadAllIMUs:
 2636              	.LFB75:
 474:..\src/SPI_functions.c **** 
 475:..\src/SPI_functions.c **** /********************************************************************************
 476:..\src/SPI_functions.c **** * Function Name: ReadAllIMUs
 477:..\src/SPI_functions.c **** *********************************************************************************/
 478:..\src/SPI_functions.c **** void ReadAllIMUs(){
 2637              		.loc 1 478 0
 2638              		.cfi_startproc
 2639              		@ args = 0, pretend = 0, frame = 8
 2640              		@ frame_needed = 1, uses_anonymous_args = 0
 2641 0000 F0B5     		push	{r4, r5, r6, r7, lr}
 2642              		.cfi_def_cfa_offset 20
 2643              		.cfi_offset 4, -20
 2644              		.cfi_offset 5, -16
 2645              		.cfi_offset 6, -12
ARM GAS  C:\Users\MattiaCP\AppData\Local\Temp\ccVW8gGQ.s 			page 56


 2646              		.cfi_offset 7, -8
 2647              		.cfi_offset 14, -4
 2648 0002 83B0     		sub	sp, sp, #12
 2649              		.cfi_def_cfa_offset 32
 2650 0004 00AF     		add	r7, sp, #0
 2651              		.cfi_def_cfa_register 7
 479:..\src/SPI_functions.c ****     static uint8 k_imu = 0;
 480:..\src/SPI_functions.c ****     uint16 tmp = 0, j = 0;
 2652              		.loc 1 480 0
 2653 0006 0023     		movs	r3, #0
 2654 0008 BB80     		strh	r3, [r7, #4]	@ movhi
 2655 000a 0023     		movs	r3, #0
 2656 000c FB80     		strh	r3, [r7, #6]	@ movhi
 481:..\src/SPI_functions.c **** 
 482:..\src/SPI_functions.c ****     for (k_imu = 0; k_imu < N_IMU_Connected; k_imu++){ 
 2657              		.loc 1 482 0
 2658 000e 934B     		ldr	r3, .L81
 2659 0010 0022     		movs	r2, #0
 2660 0012 1A70     		strb	r2, [r3]
 2661 0014 17E1     		b	.L70
 2662              	.L80:
 483:..\src/SPI_functions.c ****         // Read k_imu IMU
 484:..\src/SPI_functions.c ****         ChipSelector(IMU_connected[k_imu]);
 2663              		.loc 1 484 0
 2664 0016 914B     		ldr	r3, .L81
 2665 0018 1B78     		ldrb	r3, [r3]	@ zero_extendqisi2
 2666 001a 1A46     		mov	r2, r3
 2667 001c 904B     		ldr	r3, .L81+4
 2668 001e 9B5C     		ldrb	r3, [r3, r2]	@ zero_extendqisi2
 2669 0020 1846     		mov	r0, r3
 2670 0022 FFF7FEFF 		bl	ChipSelector
 485:..\src/SPI_functions.c ****         ReadIMU(IMU_connected[k_imu]);
 2671              		.loc 1 485 0
 2672 0026 8D4B     		ldr	r3, .L81
 2673 0028 1B78     		ldrb	r3, [r3]	@ zero_extendqisi2
 2674 002a 1A46     		mov	r2, r3
 2675 002c 8C4B     		ldr	r3, .L81+4
 2676 002e 9B5C     		ldrb	r3, [r3, r2]	@ zero_extendqisi2
 2677 0030 1846     		mov	r0, r3
 2678 0032 FFF7FEFF 		bl	ReadIMU
 486:..\src/SPI_functions.c ****         
 487:..\src/SPI_functions.c ****         for (j = 0; j < 3; j++) {
 2679              		.loc 1 487 0
 2680 0036 0023     		movs	r3, #0
 2681 0038 FB80     		strh	r3, [r7, #6]	@ movhi
 2682 003a 38E0     		b	.L71
 2683              	.L72:
 488:..\src/SPI_functions.c ****             tmp = Accel[IMU_connected[k_imu]][2*j];
 2684              		.loc 1 488 0 discriminator 3
 2685 003c 874B     		ldr	r3, .L81
 2686 003e 1B78     		ldrb	r3, [r3]	@ zero_extendqisi2
 2687 0040 1A46     		mov	r2, r3
 2688 0042 874B     		ldr	r3, .L81+4
 2689 0044 9B5C     		ldrb	r3, [r3, r2]	@ zero_extendqisi2
 2690 0046 1846     		mov	r0, r3
 2691 0048 FB88     		ldrh	r3, [r7, #6]
 2692 004a 5A00     		lsls	r2, r3, #1
ARM GAS  C:\Users\MattiaCP\AppData\Local\Temp\ccVW8gGQ.s 			page 57


 2693 004c 8549     		ldr	r1, .L81+8
 2694 004e 0346     		mov	r3, r0
 2695 0050 5B00     		lsls	r3, r3, #1
 2696 0052 0344     		add	r3, r3, r0
 2697 0054 5B00     		lsls	r3, r3, #1
 2698 0056 0B44     		add	r3, r3, r1
 2699 0058 1344     		add	r3, r3, r2
 2700 005a 1B78     		ldrb	r3, [r3]	@ zero_extendqisi2
 2701 005c BB80     		strh	r3, [r7, #4]	@ movhi
 489:..\src/SPI_functions.c ****             g_imuNew[k_imu].accel_value[j] = (int16)(tmp<<8 | Accel[IMU_connected[k_imu]][2*j + 1])
 2702              		.loc 1 489 0 discriminator 3
 2703 005e 7F4B     		ldr	r3, .L81
 2704 0060 1B78     		ldrb	r3, [r3]	@ zero_extendqisi2
 2705 0062 1D46     		mov	r5, r3
 2706 0064 FA88     		ldrh	r2, [r7, #6]
 2707 0066 BB88     		ldrh	r3, [r7, #4]
 2708 0068 1B02     		lsls	r3, r3, #8
 2709 006a 19B2     		sxth	r1, r3
 2710 006c 7B4B     		ldr	r3, .L81
 2711 006e 1B78     		ldrb	r3, [r3]	@ zero_extendqisi2
 2712 0070 1846     		mov	r0, r3
 2713 0072 7B4B     		ldr	r3, .L81+4
 2714 0074 1B5C     		ldrb	r3, [r3, r0]	@ zero_extendqisi2
 2715 0076 1E46     		mov	r6, r3
 2716 0078 FB88     		ldrh	r3, [r7, #6]
 2717 007a 5B00     		lsls	r3, r3, #1
 2718 007c 581C     		adds	r0, r3, #1
 2719 007e 794C     		ldr	r4, .L81+8
 2720 0080 3346     		mov	r3, r6
 2721 0082 5B00     		lsls	r3, r3, #1
 2722 0084 3344     		add	r3, r3, r6
 2723 0086 5B00     		lsls	r3, r3, #1
 2724 0088 2344     		add	r3, r3, r4
 2725 008a 0344     		add	r3, r3, r0
 2726 008c 1B78     		ldrb	r3, [r3]	@ zero_extendqisi2
 2727 008e 1BB2     		sxth	r3, r3
 2728 0090 0B43     		orrs	r3, r3, r1
 2729 0092 18B2     		sxth	r0, r3
 2730 0094 7449     		ldr	r1, .L81+12
 2731 0096 2B46     		mov	r3, r5
 2732 0098 9B00     		lsls	r3, r3, #2
 2733 009a 2B44     		add	r3, r3, r5
 2734 009c 9B00     		lsls	r3, r3, #2
 2735 009e 1344     		add	r3, r3, r2
 2736 00a0 5B00     		lsls	r3, r3, #1
 2737 00a2 0B44     		add	r3, r3, r1
 2738 00a4 0246     		mov	r2, r0	@ movhi
 2739 00a6 5A80     		strh	r2, [r3, #2]	@ movhi
 487:..\src/SPI_functions.c ****             tmp = Accel[IMU_connected[k_imu]][2*j];
 2740              		.loc 1 487 0 discriminator 3
 2741 00a8 FB88     		ldrh	r3, [r7, #6]
 2742 00aa 0133     		adds	r3, r3, #1
 2743 00ac FB80     		strh	r3, [r7, #6]	@ movhi
 2744              	.L71:
 487:..\src/SPI_functions.c ****             tmp = Accel[IMU_connected[k_imu]][2*j];
 2745              		.loc 1 487 0 is_stmt 0 discriminator 1
 2746 00ae FB88     		ldrh	r3, [r7, #6]
ARM GAS  C:\Users\MattiaCP\AppData\Local\Temp\ccVW8gGQ.s 			page 58


 2747 00b0 022B     		cmp	r3, #2
 2748 00b2 C3D9     		bls	.L72
 490:..\src/SPI_functions.c ****         }
 491:..\src/SPI_functions.c ****         
 492:..\src/SPI_functions.c ****         for (j = 0; j < 3; j++) {
 2749              		.loc 1 492 0 is_stmt 1
 2750 00b4 0023     		movs	r3, #0
 2751 00b6 FB80     		strh	r3, [r7, #6]	@ movhi
 2752 00b8 38E0     		b	.L73
 2753              	.L74:
 493:..\src/SPI_functions.c ****             tmp = Gyro[IMU_connected[k_imu]][2*j];
 2754              		.loc 1 493 0 discriminator 3
 2755 00ba 684B     		ldr	r3, .L81
 2756 00bc 1B78     		ldrb	r3, [r3]	@ zero_extendqisi2
 2757 00be 1A46     		mov	r2, r3
 2758 00c0 674B     		ldr	r3, .L81+4
 2759 00c2 9B5C     		ldrb	r3, [r3, r2]	@ zero_extendqisi2
 2760 00c4 1846     		mov	r0, r3
 2761 00c6 FB88     		ldrh	r3, [r7, #6]
 2762 00c8 5A00     		lsls	r2, r3, #1
 2763 00ca 6849     		ldr	r1, .L81+16
 2764 00cc 0346     		mov	r3, r0
 2765 00ce 5B00     		lsls	r3, r3, #1
 2766 00d0 0344     		add	r3, r3, r0
 2767 00d2 5B00     		lsls	r3, r3, #1
 2768 00d4 0B44     		add	r3, r3, r1
 2769 00d6 1344     		add	r3, r3, r2
 2770 00d8 1B78     		ldrb	r3, [r3]	@ zero_extendqisi2
 2771 00da BB80     		strh	r3, [r7, #4]	@ movhi
 494:..\src/SPI_functions.c ****             g_imuNew[k_imu].gyro_value[j] = (int16)(tmp<<8 | Gyro[IMU_connected[k_imu]][2*j + 1]);
 2772              		.loc 1 494 0 discriminator 3
 2773 00dc 5F4B     		ldr	r3, .L81
 2774 00de 1B78     		ldrb	r3, [r3]	@ zero_extendqisi2
 2775 00e0 1D46     		mov	r5, r3
 2776 00e2 FA88     		ldrh	r2, [r7, #6]
 2777 00e4 BB88     		ldrh	r3, [r7, #4]
 2778 00e6 1B02     		lsls	r3, r3, #8
 2779 00e8 19B2     		sxth	r1, r3
 2780 00ea 5C4B     		ldr	r3, .L81
 2781 00ec 1B78     		ldrb	r3, [r3]	@ zero_extendqisi2
 2782 00ee 1846     		mov	r0, r3
 2783 00f0 5B4B     		ldr	r3, .L81+4
 2784 00f2 1B5C     		ldrb	r3, [r3, r0]	@ zero_extendqisi2
 2785 00f4 1E46     		mov	r6, r3
 2786 00f6 FB88     		ldrh	r3, [r7, #6]
 2787 00f8 5B00     		lsls	r3, r3, #1
 2788 00fa 581C     		adds	r0, r3, #1
 2789 00fc 5B4C     		ldr	r4, .L81+16
 2790 00fe 3346     		mov	r3, r6
 2791 0100 5B00     		lsls	r3, r3, #1
 2792 0102 3344     		add	r3, r3, r6
 2793 0104 5B00     		lsls	r3, r3, #1
 2794 0106 2344     		add	r3, r3, r4
 2795 0108 0344     		add	r3, r3, r0
 2796 010a 1B78     		ldrb	r3, [r3]	@ zero_extendqisi2
 2797 010c 1BB2     		sxth	r3, r3
 2798 010e 0B43     		orrs	r3, r3, r1
ARM GAS  C:\Users\MattiaCP\AppData\Local\Temp\ccVW8gGQ.s 			page 59


 2799 0110 18B2     		sxth	r0, r3
 2800 0112 5549     		ldr	r1, .L81+12
 2801 0114 2B46     		mov	r3, r5
 2802 0116 9B00     		lsls	r3, r3, #2
 2803 0118 2B44     		add	r3, r3, r5
 2804 011a 9B00     		lsls	r3, r3, #2
 2805 011c 1344     		add	r3, r3, r2
 2806 011e 0433     		adds	r3, r3, #4
 2807 0120 0246     		mov	r2, r0	@ movhi
 2808 0122 21F81320 		strh	r2, [r1, r3, lsl #1]	@ movhi
 492:..\src/SPI_functions.c ****             tmp = Gyro[IMU_connected[k_imu]][2*j];
 2809              		.loc 1 492 0 discriminator 3
 2810 0126 FB88     		ldrh	r3, [r7, #6]
 2811 0128 0133     		adds	r3, r3, #1
 2812 012a FB80     		strh	r3, [r7, #6]	@ movhi
 2813              	.L73:
 492:..\src/SPI_functions.c ****             tmp = Gyro[IMU_connected[k_imu]][2*j];
 2814              		.loc 1 492 0 is_stmt 0 discriminator 1
 2815 012c FB88     		ldrh	r3, [r7, #6]
 2816 012e 022B     		cmp	r3, #2
 2817 0130 C3D9     		bls	.L74
 495:..\src/SPI_functions.c ****         }
 496:..\src/SPI_functions.c ****                 
 497:..\src/SPI_functions.c ****         for (j = 0; j < 3; j++) {
 2818              		.loc 1 497 0 is_stmt 1
 2819 0132 0023     		movs	r3, #0
 2820 0134 FB80     		strh	r3, [r7, #6]	@ movhi
 2821 0136 39E0     		b	.L75
 2822              	.L76:
 498:..\src/SPI_functions.c ****             tmp = Mag[IMU_connected[k_imu]][2*j];
 2823              		.loc 1 498 0 discriminator 3
 2824 0138 484B     		ldr	r3, .L81
 2825 013a 1B78     		ldrb	r3, [r3]	@ zero_extendqisi2
 2826 013c 1A46     		mov	r2, r3
 2827 013e 484B     		ldr	r3, .L81+4
 2828 0140 9B5C     		ldrb	r3, [r3, r2]	@ zero_extendqisi2
 2829 0142 1846     		mov	r0, r3
 2830 0144 FB88     		ldrh	r3, [r7, #6]
 2831 0146 5A00     		lsls	r2, r3, #1
 2832 0148 4949     		ldr	r1, .L81+20
 2833 014a 0346     		mov	r3, r0
 2834 014c 5B00     		lsls	r3, r3, #1
 2835 014e 0344     		add	r3, r3, r0
 2836 0150 5B00     		lsls	r3, r3, #1
 2837 0152 0B44     		add	r3, r3, r1
 2838 0154 1344     		add	r3, r3, r2
 2839 0156 1B78     		ldrb	r3, [r3]	@ zero_extendqisi2
 2840 0158 BB80     		strh	r3, [r7, #4]	@ movhi
 499:..\src/SPI_functions.c ****             g_imuNew[k_imu].mag_value[j] = (int16)(tmp<<8 | Mag[IMU_connected[k_imu]][2*j + 1]);
 2841              		.loc 1 499 0 discriminator 3
 2842 015a 404B     		ldr	r3, .L81
 2843 015c 1B78     		ldrb	r3, [r3]	@ zero_extendqisi2
 2844 015e 1D46     		mov	r5, r3
 2845 0160 FA88     		ldrh	r2, [r7, #6]
 2846 0162 BB88     		ldrh	r3, [r7, #4]
 2847 0164 1B02     		lsls	r3, r3, #8
 2848 0166 19B2     		sxth	r1, r3
ARM GAS  C:\Users\MattiaCP\AppData\Local\Temp\ccVW8gGQ.s 			page 60


 2849 0168 3C4B     		ldr	r3, .L81
 2850 016a 1B78     		ldrb	r3, [r3]	@ zero_extendqisi2
 2851 016c 1846     		mov	r0, r3
 2852 016e 3C4B     		ldr	r3, .L81+4
 2853 0170 1B5C     		ldrb	r3, [r3, r0]	@ zero_extendqisi2
 2854 0172 1E46     		mov	r6, r3
 2855 0174 FB88     		ldrh	r3, [r7, #6]
 2856 0176 5B00     		lsls	r3, r3, #1
 2857 0178 581C     		adds	r0, r3, #1
 2858 017a 3D4C     		ldr	r4, .L81+20
 2859 017c 3346     		mov	r3, r6
 2860 017e 5B00     		lsls	r3, r3, #1
 2861 0180 3344     		add	r3, r3, r6
 2862 0182 5B00     		lsls	r3, r3, #1
 2863 0184 2344     		add	r3, r3, r4
 2864 0186 0344     		add	r3, r3, r0
 2865 0188 1B78     		ldrb	r3, [r3]	@ zero_extendqisi2
 2866 018a 1BB2     		sxth	r3, r3
 2867 018c 0B43     		orrs	r3, r3, r1
 2868 018e 18B2     		sxth	r0, r3
 2869 0190 3549     		ldr	r1, .L81+12
 2870 0192 2B46     		mov	r3, r5
 2871 0194 9B00     		lsls	r3, r3, #2
 2872 0196 2B44     		add	r3, r3, r5
 2873 0198 9B00     		lsls	r3, r3, #2
 2874 019a 1344     		add	r3, r3, r2
 2875 019c 0433     		adds	r3, r3, #4
 2876 019e 5B00     		lsls	r3, r3, #1
 2877 01a0 0B44     		add	r3, r3, r1
 2878 01a2 0246     		mov	r2, r0	@ movhi
 2879 01a4 DA80     		strh	r2, [r3, #6]	@ movhi
 497:..\src/SPI_functions.c ****             tmp = Mag[IMU_connected[k_imu]][2*j];
 2880              		.loc 1 497 0 discriminator 3
 2881 01a6 FB88     		ldrh	r3, [r7, #6]
 2882 01a8 0133     		adds	r3, r3, #1
 2883 01aa FB80     		strh	r3, [r7, #6]	@ movhi
 2884              	.L75:
 497:..\src/SPI_functions.c ****             tmp = Mag[IMU_connected[k_imu]][2*j];
 2885              		.loc 1 497 0 is_stmt 0 discriminator 1
 2886 01ac FB88     		ldrh	r3, [r7, #6]
 2887 01ae 022B     		cmp	r3, #2
 2888 01b0 C2D9     		bls	.L76
 500:..\src/SPI_functions.c ****         }  
 501:..\src/SPI_functions.c ****         
 502:..\src/SPI_functions.c ****         // Save quaternion only for first IMU
 503:..\src/SPI_functions.c ****         for (j = 0; k_imu == 0 && j < 4; j++) {
 2889              		.loc 1 503 0 is_stmt 1
 2890 01b2 0023     		movs	r3, #0
 2891 01b4 FB80     		strh	r3, [r7, #6]	@ movhi
 2892 01b6 14E0     		b	.L77
 2893              	.L79:
 504:..\src/SPI_functions.c ****             g_imuNew[k_imu].quat_value[j] = (float)Quat[j];
 2894              		.loc 1 504 0 discriminator 4
 2895 01b8 284B     		ldr	r3, .L81
 2896 01ba 1B78     		ldrb	r3, [r3]	@ zero_extendqisi2
 2897 01bc 1C46     		mov	r4, r3
 2898 01be F988     		ldrh	r1, [r7, #6]
ARM GAS  C:\Users\MattiaCP\AppData\Local\Temp\ccVW8gGQ.s 			page 61


 2899 01c0 FB88     		ldrh	r3, [r7, #6]
 2900 01c2 2C4A     		ldr	r2, .L81+24
 2901 01c4 52F82320 		ldr	r2, [r2, r3, lsl #2]	@ float
 2902 01c8 2748     		ldr	r0, .L81+12
 2903 01ca 2346     		mov	r3, r4
 2904 01cc 9B00     		lsls	r3, r3, #2
 2905 01ce 2344     		add	r3, r3, r4
 2906 01d0 5B00     		lsls	r3, r3, #1
 2907 01d2 0B44     		add	r3, r3, r1
 2908 01d4 0433     		adds	r3, r3, #4
 2909 01d6 9B00     		lsls	r3, r3, #2
 2910 01d8 0344     		add	r3, r3, r0
 2911 01da 5A60     		str	r2, [r3, #4]	@ float
 503:..\src/SPI_functions.c ****             g_imuNew[k_imu].quat_value[j] = (float)Quat[j];
 2912              		.loc 1 503 0 discriminator 4
 2913 01dc FB88     		ldrh	r3, [r7, #6]
 2914 01de 0133     		adds	r3, r3, #1
 2915 01e0 FB80     		strh	r3, [r7, #6]	@ movhi
 2916              	.L77:
 503:..\src/SPI_functions.c ****             g_imuNew[k_imu].quat_value[j] = (float)Quat[j];
 2917              		.loc 1 503 0 is_stmt 0 discriminator 1
 2918 01e2 1E4B     		ldr	r3, .L81
 2919 01e4 1B78     		ldrb	r3, [r3]	@ zero_extendqisi2
 2920 01e6 002B     		cmp	r3, #0
 2921 01e8 02D1     		bne	.L78
 503:..\src/SPI_functions.c ****             g_imuNew[k_imu].quat_value[j] = (float)Quat[j];
 2922              		.loc 1 503 0 discriminator 3
 2923 01ea FB88     		ldrh	r3, [r7, #6]
 2924 01ec 032B     		cmp	r3, #3
 2925 01ee E3D9     		bls	.L79
 2926              	.L78:
 505:..\src/SPI_functions.c ****         }
 506:..\src/SPI_functions.c ****         
 507:..\src/SPI_functions.c ****         tmp = Temp[IMU_connected[k_imu]][0];
 2927              		.loc 1 507 0 is_stmt 1 discriminator 2
 2928 01f0 1A4B     		ldr	r3, .L81
 2929 01f2 1B78     		ldrb	r3, [r3]	@ zero_extendqisi2
 2930 01f4 1A46     		mov	r2, r3
 2931 01f6 1A4B     		ldr	r3, .L81+4
 2932 01f8 9B5C     		ldrb	r3, [r3, r2]	@ zero_extendqisi2
 2933 01fa 1A46     		mov	r2, r3
 2934 01fc 1E4B     		ldr	r3, .L81+28
 2935 01fe 13F81230 		ldrb	r3, [r3, r2, lsl #1]	@ zero_extendqisi2
 2936 0202 BB80     		strh	r3, [r7, #4]	@ movhi
 508:..\src/SPI_functions.c ****         g_imuNew[k_imu].temp_value = (int16)(tmp<<8 | Temp[IMU_connected[k_imu]][1]);
 2937              		.loc 1 508 0 discriminator 2
 2938 0204 154B     		ldr	r3, .L81
 2939 0206 1B78     		ldrb	r3, [r3]	@ zero_extendqisi2
 2940 0208 1846     		mov	r0, r3
 2941 020a BB88     		ldrh	r3, [r7, #4]
 2942 020c 1B02     		lsls	r3, r3, #8
 2943 020e 1AB2     		sxth	r2, r3
 2944 0210 124B     		ldr	r3, .L81
 2945 0212 1B78     		ldrb	r3, [r3]	@ zero_extendqisi2
 2946 0214 1946     		mov	r1, r3
 2947 0216 124B     		ldr	r3, .L81+4
 2948 0218 5B5C     		ldrb	r3, [r3, r1]	@ zero_extendqisi2
ARM GAS  C:\Users\MattiaCP\AppData\Local\Temp\ccVW8gGQ.s 			page 62


 2949 021a 1749     		ldr	r1, .L81+28
 2950 021c 5B00     		lsls	r3, r3, #1
 2951 021e 0B44     		add	r3, r3, r1
 2952 0220 5B78     		ldrb	r3, [r3, #1]	@ zero_extendqisi2
 2953 0222 1BB2     		sxth	r3, r3
 2954 0224 1343     		orrs	r3, r3, r2
 2955 0226 19B2     		sxth	r1, r3
 2956 0228 0F4A     		ldr	r2, .L81+12
 2957 022a 0346     		mov	r3, r0
 2958 022c 9B00     		lsls	r3, r3, #2
 2959 022e 0344     		add	r3, r3, r0
 2960 0230 DB00     		lsls	r3, r3, #3
 2961 0232 1344     		add	r3, r3, r2
 2962 0234 2433     		adds	r3, r3, #36
 2963 0236 0A46     		mov	r2, r1	@ movhi
 2964 0238 1A80     		strh	r2, [r3]	@ movhi
 482:..\src/SPI_functions.c ****         // Read k_imu IMU
 2965              		.loc 1 482 0 discriminator 2
 2966 023a 084B     		ldr	r3, .L81
 2967 023c 1B78     		ldrb	r3, [r3]	@ zero_extendqisi2
 2968 023e 0133     		adds	r3, r3, #1
 2969 0240 DAB2     		uxtb	r2, r3
 2970 0242 064B     		ldr	r3, .L81
 2971 0244 1A70     		strb	r2, [r3]
 2972              	.L70:
 482:..\src/SPI_functions.c ****         // Read k_imu IMU
 2973              		.loc 1 482 0 is_stmt 0 discriminator 1
 2974 0246 054B     		ldr	r3, .L81
 2975 0248 1A78     		ldrb	r2, [r3]	@ zero_extendqisi2
 2976 024a 0C4B     		ldr	r3, .L81+32
 2977 024c 1B78     		ldrb	r3, [r3]	@ zero_extendqisi2
 2978 024e 9A42     		cmp	r2, r3
 2979 0250 FFF4E1AE 		bcc	.L80
 509:..\src/SPI_functions.c ****     }
 510:..\src/SPI_functions.c **** }
 2980              		.loc 1 510 0 is_stmt 1
 2981 0254 00BF     		nop
 2982 0256 0C37     		adds	r7, r7, #12
 2983              		.cfi_def_cfa_offset 20
 2984 0258 BD46     		mov	sp, r7
 2985              		.cfi_def_cfa_register 13
 2986              		@ sp needed
 2987 025a F0BD     		pop	{r4, r5, r6, r7, pc}
 2988              	.L82:
 2989              		.align	2
 2990              	.L81:
 2991 025c 00000000 		.word	k_imu.9854
 2992 0260 00000000 		.word	IMU_connected
 2993 0264 00000000 		.word	Accel
 2994 0268 00000000 		.word	g_imuNew
 2995 026c 00000000 		.word	Gyro
 2996 0270 00000000 		.word	Mag
 2997 0274 00000000 		.word	Quat
 2998 0278 00000000 		.word	Temp
 2999 027c 00000000 		.word	N_IMU_Connected
 3000              		.cfi_endproc
 3001              	.LFE75:
ARM GAS  C:\Users\MattiaCP\AppData\Local\Temp\ccVW8gGQ.s 			page 63


 3002              		.size	ReadAllIMUs, .-ReadAllIMUs
 3003              		.section	.text.ReadTemp,"ax",%progbits
 3004              		.align	2
 3005              		.global	ReadTemp
 3006              		.thumb
 3007              		.thumb_func
 3008              		.type	ReadTemp, %function
 3009              	ReadTemp:
 3010              	.LFB76:
 511:..\src/SPI_functions.c **** 
 512:..\src/SPI_functions.c **** /*******************************************************************************
 513:..\src/SPI_functions.c **** * Function Name: Read Temperature Data of IMU n
 514:..\src/SPI_functions.c **** *********************************************************************************/
 515:..\src/SPI_functions.c **** void ReadTemp(int n)
 516:..\src/SPI_functions.c **** {
 3011              		.loc 1 516 0
 3012              		.cfi_startproc
 3013              		@ args = 0, pretend = 0, frame = 16
 3014              		@ frame_needed = 1, uses_anonymous_args = 0
 3015 0000 80B5     		push	{r7, lr}
 3016              		.cfi_def_cfa_offset 8
 3017              		.cfi_offset 7, -8
 3018              		.cfi_offset 14, -4
 3019 0002 84B0     		sub	sp, sp, #16
 3020              		.cfi_def_cfa_offset 24
 3021 0004 00AF     		add	r7, sp, #0
 3022              		.cfi_def_cfa_register 7
 3023 0006 7860     		str	r0, [r7, #4]
 517:..\src/SPI_functions.c **** 	uint8 low=0, high=0;	
 3024              		.loc 1 517 0
 3025 0008 0023     		movs	r3, #0
 3026 000a FB73     		strb	r3, [r7, #15]
 3027 000c 0023     		movs	r3, #0
 3028 000e BB73     		strb	r3, [r7, #14]
 518:..\src/SPI_functions.c **** 	int row = n;
 3029              		.loc 1 518 0
 3030 0010 7B68     		ldr	r3, [r7, #4]
 3031 0012 BB60     		str	r3, [r7, #8]
 519:..\src/SPI_functions.c **** 	
 520:..\src/SPI_functions.c **** 	//read X
 521:..\src/SPI_functions.c ****     low=ReadControlRegister(MPU9250_TEMP_OUT_L);
 3032              		.loc 1 521 0
 3033 0014 4220     		movs	r0, #66
 3034 0016 FFF7FEFF 		bl	ReadControlRegister
 3035 001a 0346     		mov	r3, r0
 3036 001c FB73     		strb	r3, [r7, #15]
 522:..\src/SPI_functions.c ****     SPI_delay();
 3037              		.loc 1 522 0
 3038 001e FFF7FEFF 		bl	SPI_delay
 523:..\src/SPI_functions.c **** 	high=ReadControlRegister(MPU9250_TEMP_OUT_H);
 3039              		.loc 1 523 0
 3040 0022 4120     		movs	r0, #65
 3041 0024 FFF7FEFF 		bl	ReadControlRegister
 3042 0028 0346     		mov	r3, r0
 3043 002a BB73     		strb	r3, [r7, #14]
 524:..\src/SPI_functions.c ****     SPI_delay();
 3044              		.loc 1 524 0
ARM GAS  C:\Users\MattiaCP\AppData\Local\Temp\ccVW8gGQ.s 			page 64


 3045 002c FFF7FEFF 		bl	SPI_delay
 525:..\src/SPI_functions.c **** 
 526:..\src/SPI_functions.c **** 	Temp[row][0] = high; 
 3046              		.loc 1 526 0
 3047 0030 0949     		ldr	r1, .L84
 3048 0032 BB68     		ldr	r3, [r7, #8]
 3049 0034 BA7B     		ldrb	r2, [r7, #14]
 3050 0036 01F81320 		strb	r2, [r1, r3, lsl #1]
 527:..\src/SPI_functions.c **** 	Temp[row][1] = low; 
 3051              		.loc 1 527 0
 3052 003a 074A     		ldr	r2, .L84
 3053 003c BB68     		ldr	r3, [r7, #8]
 3054 003e 5B00     		lsls	r3, r3, #1
 3055 0040 1344     		add	r3, r3, r2
 3056 0042 FA7B     		ldrb	r2, [r7, #15]
 3057 0044 5A70     		strb	r2, [r3, #1]
 528:..\src/SPI_functions.c **** 	low=0, high=0;
 3058              		.loc 1 528 0
 3059 0046 0023     		movs	r3, #0
 3060 0048 FB73     		strb	r3, [r7, #15]
 3061 004a 0023     		movs	r3, #0
 3062 004c BB73     		strb	r3, [r7, #14]
 529:..\src/SPI_functions.c **** }
 3063              		.loc 1 529 0
 3064 004e 00BF     		nop
 3065 0050 1037     		adds	r7, r7, #16
 3066              		.cfi_def_cfa_offset 8
 3067 0052 BD46     		mov	sp, r7
 3068              		.cfi_def_cfa_register 13
 3069              		@ sp needed
 3070 0054 80BD     		pop	{r7, pc}
 3071              	.L85:
 3072 0056 00BF     		.align	2
 3073              	.L84:
 3074 0058 00000000 		.word	Temp
 3075              		.cfi_endproc
 3076              	.LFE76:
 3077              		.size	ReadTemp, .-ReadTemp
 3078              		.section	.text.WriteControlRegister,"ax",%progbits
 3079              		.align	2
 3080              		.global	WriteControlRegister
 3081              		.thumb
 3082              		.thumb_func
 3083              		.type	WriteControlRegister, %function
 3084              	WriteControlRegister:
 3085              	.LFB77:
 530:..\src/SPI_functions.c **** 
 531:..\src/SPI_functions.c **** /********************************** *********************************************
 532:..\src/SPI_functions.c **** * Function Name: Write Control Register
 533:..\src/SPI_functions.c **** *********************************************************************************/
 534:..\src/SPI_functions.c **** void WriteControlRegister(uint8 address, uint8 dta){
 3086              		.loc 1 534 0
 3087              		.cfi_startproc
 3088              		@ args = 0, pretend = 0, frame = 8
 3089              		@ frame_needed = 1, uses_anonymous_args = 0
 3090 0000 80B5     		push	{r7, lr}
 3091              		.cfi_def_cfa_offset 8
ARM GAS  C:\Users\MattiaCP\AppData\Local\Temp\ccVW8gGQ.s 			page 65


 3092              		.cfi_offset 7, -8
 3093              		.cfi_offset 14, -4
 3094 0002 82B0     		sub	sp, sp, #8
 3095              		.cfi_def_cfa_offset 16
 3096 0004 00AF     		add	r7, sp, #0
 3097              		.cfi_def_cfa_register 7
 3098 0006 0346     		mov	r3, r0
 3099 0008 0A46     		mov	r2, r1
 3100 000a FB71     		strb	r3, [r7, #7]
 3101 000c 1346     		mov	r3, r2
 3102 000e BB71     		strb	r3, [r7, #6]
 535:..\src/SPI_functions.c **** 	
 536:..\src/SPI_functions.c **** 	SPI_IMU_ClearRxBuffer();
 3103              		.loc 1 536 0
 3104 0010 FFF7FEFF 		bl	SPI_IMU_ClearRxBuffer
 537:..\src/SPI_functions.c **** 	SPI_IMU_ClearTxBuffer();
 3105              		.loc 1 537 0
 3106 0014 FFF7FEFF 		bl	SPI_IMU_ClearTxBuffer
 538:..\src/SPI_functions.c **** 	SPI_IMU_ClearFIFO();
 3107              		.loc 1 538 0
 3108 0018 FFF7FEFF 		bl	SPI_IMU_ClearFIFO
 539:..\src/SPI_functions.c **** 	SPI_IMU_WriteByte(MPU9250_WCR | address);
 3109              		.loc 1 539 0
 3110 001c FB79     		ldrb	r3, [r7, #7]	@ zero_extendqisi2
 3111 001e 1846     		mov	r0, r3
 3112 0020 FFF7FEFF 		bl	SPI_IMU_WriteTxData
 540:..\src/SPI_functions.c **** 	while(!( SPI_IMU_ReadStatus() & SPI_IMU_STS_TX_FIFO_EMPTY));		
 3113              		.loc 1 540 0
 3114 0024 00BF     		nop
 3115              	.L87:
 3116              		.loc 1 540 0 is_stmt 0 discriminator 1
 3117 0026 FFF7FEFF 		bl	SPI_IMU_ReadStatus
 3118 002a 0346     		mov	r3, r0
 3119 002c 03F00203 		and	r3, r3, #2
 3120 0030 002B     		cmp	r3, #0
 3121 0032 F8D0     		beq	.L87
 541:..\src/SPI_functions.c **** 	SPI_IMU_WriteByte(dta);
 3122              		.loc 1 541 0 is_stmt 1
 3123 0034 BB79     		ldrb	r3, [r7, #6]	@ zero_extendqisi2
 3124 0036 1846     		mov	r0, r3
 3125 0038 FFF7FEFF 		bl	SPI_IMU_WriteTxData
 542:..\src/SPI_functions.c **** 	while(!( SPI_IMU_ReadStatus() & SPI_IMU_STS_TX_FIFO_EMPTY));
 3126              		.loc 1 542 0
 3127 003c 00BF     		nop
 3128              	.L88:
 3129              		.loc 1 542 0 is_stmt 0 discriminator 1
 3130 003e FFF7FEFF 		bl	SPI_IMU_ReadStatus
 3131 0042 0346     		mov	r3, r0
 3132 0044 03F00203 		and	r3, r3, #2
 3133 0048 002B     		cmp	r3, #0
 3134 004a F8D0     		beq	.L88
 543:..\src/SPI_functions.c **** }
 3135              		.loc 1 543 0 is_stmt 1
 3136 004c 00BF     		nop
 3137 004e 0837     		adds	r7, r7, #8
 3138              		.cfi_def_cfa_offset 8
 3139 0050 BD46     		mov	sp, r7
ARM GAS  C:\Users\MattiaCP\AppData\Local\Temp\ccVW8gGQ.s 			page 66


 3140              		.cfi_def_cfa_register 13
 3141              		@ sp needed
 3142 0052 80BD     		pop	{r7, pc}
 3143              		.cfi_endproc
 3144              	.LFE77:
 3145              		.size	WriteControlRegister, .-WriteControlRegister
 3146              		.section	.text.ReadControlRegister,"ax",%progbits
 3147              		.align	2
 3148              		.global	ReadControlRegister
 3149              		.thumb
 3150              		.thumb_func
 3151              		.type	ReadControlRegister, %function
 3152              	ReadControlRegister:
 3153              	.LFB78:
 544:..\src/SPI_functions.c **** 
 545:..\src/SPI_functions.c **** /*******************************************************************************
 546:..\src/SPI_functions.c **** * Function Name: Read Control Register
 547:..\src/SPI_functions.c **** *********************************************************************************/
 548:..\src/SPI_functions.c **** uint8 ReadControlRegister(uint8 address){
 3154              		.loc 1 548 0
 3155              		.cfi_startproc
 3156              		@ args = 0, pretend = 0, frame = 16
 3157              		@ frame_needed = 1, uses_anonymous_args = 0
 3158 0000 80B5     		push	{r7, lr}
 3159              		.cfi_def_cfa_offset 8
 3160              		.cfi_offset 7, -8
 3161              		.cfi_offset 14, -4
 3162 0002 84B0     		sub	sp, sp, #16
 3163              		.cfi_def_cfa_offset 24
 3164 0004 00AF     		add	r7, sp, #0
 3165              		.cfi_def_cfa_register 7
 3166 0006 0346     		mov	r3, r0
 3167 0008 FB71     		strb	r3, [r7, #7]
 549:..\src/SPI_functions.c **** 	uint8 controlreg = 0;
 3168              		.loc 1 549 0
 3169 000a 0023     		movs	r3, #0
 3170 000c FB73     		strb	r3, [r7, #15]
 550:..\src/SPI_functions.c **** 	
 551:..\src/SPI_functions.c **** 	SPI_IMU_WriteByte(MPU9250_RCR | address);
 3171              		.loc 1 551 0
 3172 000e FB79     		ldrb	r3, [r7, #7]
 3173 0010 63F07F03 		orn	r3, r3, #127
 3174 0014 DBB2     		uxtb	r3, r3
 3175 0016 1846     		mov	r0, r3
 3176 0018 FFF7FEFF 		bl	SPI_IMU_WriteTxData
 552:..\src/SPI_functions.c ****     while(!( SPI_IMU_ReadStatus() & SPI_IMU_STS_TX_FIFO_EMPTY));
 3177              		.loc 1 552 0
 3178 001c 00BF     		nop
 3179              	.L90:
 3180              		.loc 1 552 0 is_stmt 0 discriminator 1
 3181 001e FFF7FEFF 		bl	SPI_IMU_ReadStatus
 3182 0022 0346     		mov	r3, r0
 3183 0024 03F00203 		and	r3, r3, #2
 3184 0028 002B     		cmp	r3, #0
 3185 002a F8D0     		beq	.L90
 553:..\src/SPI_functions.c ****     SPI_IMU_WriteByte(0x00);
 3186              		.loc 1 553 0 is_stmt 1
ARM GAS  C:\Users\MattiaCP\AppData\Local\Temp\ccVW8gGQ.s 			page 67


 3187 002c 0020     		movs	r0, #0
 3188 002e FFF7FEFF 		bl	SPI_IMU_WriteTxData
 554:..\src/SPI_functions.c **** 	while(!( SPI_IMU_ReadStatus() & SPI_IMU_STS_SPI_DONE));
 3189              		.loc 1 554 0
 3190 0032 00BF     		nop
 3191              	.L91:
 3192              		.loc 1 554 0 is_stmt 0 discriminator 1
 3193 0034 FFF7FEFF 		bl	SPI_IMU_ReadStatus
 3194 0038 0346     		mov	r3, r0
 3195 003a 03F00103 		and	r3, r3, #1
 3196 003e 002B     		cmp	r3, #0
 3197 0040 F8D0     		beq	.L91
 555:..\src/SPI_functions.c **** 	controlreg = SPI_IMU_ReadByte();        //real data
 3198              		.loc 1 555 0 is_stmt 1
 3199 0042 FFF7FEFF 		bl	SPI_IMU_ReadRxData
 3200 0046 0346     		mov	r3, r0
 3201 0048 FB73     		strb	r3, [r7, #15]
 556:..\src/SPI_functions.c **** 	return controlreg;
 3202              		.loc 1 556 0
 3203 004a FB7B     		ldrb	r3, [r7, #15]	@ zero_extendqisi2
 557:..\src/SPI_functions.c **** }
 3204              		.loc 1 557 0
 3205 004c 1846     		mov	r0, r3
 3206 004e 1037     		adds	r7, r7, #16
 3207              		.cfi_def_cfa_offset 8
 3208 0050 BD46     		mov	sp, r7
 3209              		.cfi_def_cfa_register 13
 3210              		@ sp needed
 3211 0052 80BD     		pop	{r7, pc}
 3212              		.cfi_endproc
 3213              	.LFE78:
 3214              		.size	ReadControlRegister, .-ReadControlRegister
 3215              		.section	.text.SPI_delay,"ax",%progbits
 3216              		.align	2
 3217              		.global	SPI_delay
 3218              		.thumb
 3219              		.thumb_func
 3220              		.type	SPI_delay, %function
 3221              	SPI_delay:
 3222              	.LFB79:
 558:..\src/SPI_functions.c **** 
 559:..\src/SPI_functions.c **** /*******************************************************************************
 560:..\src/SPI_functions.c **** * Function Name: SPI delay
 561:..\src/SPI_functions.c **** *********************************************************************************/
 562:..\src/SPI_functions.c **** void SPI_delay(){
 3223              		.loc 1 562 0
 3224              		.cfi_startproc
 3225              		@ args = 0, pretend = 0, frame = 0
 3226              		@ frame_needed = 1, uses_anonymous_args = 0
 3227 0000 80B5     		push	{r7, lr}
 3228              		.cfi_def_cfa_offset 8
 3229              		.cfi_offset 7, -8
 3230              		.cfi_offset 14, -4
 3231 0002 00AF     		add	r7, sp, #0
 3232              		.cfi_def_cfa_register 7
 563:..\src/SPI_functions.c ****     switch( c_mem.SPI_read_delay ) {
 3233              		.loc 1 563 0
ARM GAS  C:\Users\MattiaCP\AppData\Local\Temp\ccVW8gGQ.s 			page 68


 3234 0004 084B     		ldr	r3, .L98
 3235 0006 93F82031 		ldrb	r3, [r3, #288]	@ zero_extendqisi2
 3236 000a 012B     		cmp	r3, #1
 3237 000c 02D0     		beq	.L95
 3238 000e 022B     		cmp	r3, #2
 3239 0010 04D0     		beq	.L96
 564:..\src/SPI_functions.c ****         case 1:     // Low
 565:..\src/SPI_functions.c ****             CyDelayUs((uint16)SPI_DELAY_LOW);
 566:..\src/SPI_functions.c ****             break;
 567:..\src/SPI_functions.c ****         case 2:     // High
 568:..\src/SPI_functions.c ****             CyDelayUs((uint16)SPI_DELAY_HIGH);
 569:..\src/SPI_functions.c ****             break;
 570:..\src/SPI_functions.c ****         default:    // None
 571:..\src/SPI_functions.c ****             break;
 3240              		.loc 1 571 0
 3241 0012 07E0     		b	.L97
 3242              	.L95:
 565:..\src/SPI_functions.c ****             break;
 3243              		.loc 1 565 0
 3244 0014 0A20     		movs	r0, #10
 3245 0016 FFF7FEFF 		bl	CyDelayUs
 566:..\src/SPI_functions.c ****         case 2:     // High
 3246              		.loc 1 566 0
 3247 001a 03E0     		b	.L97
 3248              	.L96:
 568:..\src/SPI_functions.c ****             break;
 3249              		.loc 1 568 0
 3250 001c 6420     		movs	r0, #100
 3251 001e FFF7FEFF 		bl	CyDelayUs
 569:..\src/SPI_functions.c ****         default:    // None
 3252              		.loc 1 569 0
 3253 0022 00BF     		nop
 3254              	.L97:
 572:..\src/SPI_functions.c ****     }
 573:..\src/SPI_functions.c **** }
 3255              		.loc 1 573 0
 3256 0024 00BF     		nop
 3257 0026 80BD     		pop	{r7, pc}
 3258              	.L99:
 3259              		.align	2
 3260              	.L98:
 3261 0028 00000000 		.word	c_mem
 3262              		.cfi_endproc
 3263              	.LFE79:
 3264              		.size	SPI_delay, .-SPI_delay
 3265              		.section	.text.DS1302_write,"ax",%progbits
 3266              		.align	2
 3267              		.global	DS1302_write
 3268              		.thumb
 3269              		.thumb_func
 3270              		.type	DS1302_write, %function
 3271              	DS1302_write:
 3272              	.LFB80:
 574:..\src/SPI_functions.c **** 
 575:..\src/SPI_functions.c **** 
 576:..\src/SPI_functions.c **** // --------------------------------------------------------
 577:..\src/SPI_functions.c **** // DS1302_write
ARM GAS  C:\Users\MattiaCP\AppData\Local\Temp\ccVW8gGQ.s 			page 69


 578:..\src/SPI_functions.c **** void DS1302_write(uint8 address, uint8 data_wr) {
 3273              		.loc 1 578 0
 3274              		.cfi_startproc
 3275              		@ args = 0, pretend = 0, frame = 8
 3276              		@ frame_needed = 1, uses_anonymous_args = 0
 3277 0000 80B5     		push	{r7, lr}
 3278              		.cfi_def_cfa_offset 8
 3279              		.cfi_offset 7, -8
 3280              		.cfi_offset 14, -4
 3281 0002 82B0     		sub	sp, sp, #8
 3282              		.cfi_def_cfa_offset 16
 3283 0004 00AF     		add	r7, sp, #0
 3284              		.cfi_def_cfa_register 7
 3285 0006 0346     		mov	r3, r0
 3286 0008 0A46     		mov	r2, r1
 3287 000a FB71     		strb	r3, [r7, #7]
 3288 000c 1346     		mov	r3, r2
 3289 000e BB71     		strb	r3, [r7, #6]
 579:..\src/SPI_functions.c **** 
 580:..\src/SPI_functions.c ****   RTC_Clock_Write(0);  
 3290              		.loc 1 580 0
 3291 0010 0020     		movs	r0, #0
 3292 0012 FFF7FEFF 		bl	RTC_Clock_Write
 581:..\src/SPI_functions.c ****   RTC_CS_Write(1);
 3293              		.loc 1 581 0
 3294 0016 0120     		movs	r0, #1
 3295 0018 FFF7FEFF 		bl	RTC_CS_Write
 582:..\src/SPI_functions.c ****   CyDelayUs(5); // [GS] 
 3296              		.loc 1 582 0
 3297 001c 0520     		movs	r0, #5
 3298 001e FFF7FEFF 		bl	CyDelayUs
 583:..\src/SPI_functions.c ****   DS1302_writeByte(address);
 3299              		.loc 1 583 0
 3300 0022 FB79     		ldrb	r3, [r7, #7]	@ zero_extendqisi2
 3301 0024 1846     		mov	r0, r3
 3302 0026 FFF7FEFF 		bl	DS1302_writeByte
 584:..\src/SPI_functions.c ****   DS1302_writeByte(data_wr);
 3303              		.loc 1 584 0
 3304 002a BB79     		ldrb	r3, [r7, #6]	@ zero_extendqisi2
 3305 002c 1846     		mov	r0, r3
 3306 002e FFF7FEFF 		bl	DS1302_writeByte
 585:..\src/SPI_functions.c ****   
 586:..\src/SPI_functions.c ****   RTC_CS_Write(0);
 3307              		.loc 1 586 0
 3308 0032 0020     		movs	r0, #0
 3309 0034 FFF7FEFF 		bl	RTC_CS_Write
 587:..\src/SPI_functions.c ****   CyDelayUs(5); // [GS] 
 3310              		.loc 1 587 0
 3311 0038 0520     		movs	r0, #5
 3312 003a FFF7FEFF 		bl	CyDelayUs
 588:..\src/SPI_functions.c **** }
 3313              		.loc 1 588 0
 3314 003e 00BF     		nop
 3315 0040 0837     		adds	r7, r7, #8
 3316              		.cfi_def_cfa_offset 8
 3317 0042 BD46     		mov	sp, r7
 3318              		.cfi_def_cfa_register 13
ARM GAS  C:\Users\MattiaCP\AppData\Local\Temp\ccVW8gGQ.s 			page 70


 3319              		@ sp needed
 3320 0044 80BD     		pop	{r7, pc}
 3321              		.cfi_endproc
 3322              	.LFE80:
 3323              		.size	DS1302_write, .-DS1302_write
 3324 0046 00BF     		.section	.text.DS1302_writeByte,"ax",%progbits
 3325              		.align	2
 3326              		.global	DS1302_writeByte
 3327              		.thumb
 3328              		.thumb_func
 3329              		.type	DS1302_writeByte, %function
 3330              	DS1302_writeByte:
 3331              	.LFB81:
 589:..\src/SPI_functions.c **** 
 590:..\src/SPI_functions.c **** void DS1302_writeByte(uint8 data_wr) {
 3332              		.loc 1 590 0
 3333              		.cfi_startproc
 3334              		@ args = 0, pretend = 0, frame = 8
 3335              		@ frame_needed = 1, uses_anonymous_args = 0
 3336 0000 80B5     		push	{r7, lr}
 3337              		.cfi_def_cfa_offset 8
 3338              		.cfi_offset 7, -8
 3339              		.cfi_offset 14, -4
 3340 0002 82B0     		sub	sp, sp, #8
 3341              		.cfi_def_cfa_offset 16
 3342 0004 00AF     		add	r7, sp, #0
 3343              		.cfi_def_cfa_register 7
 3344 0006 0346     		mov	r3, r0
 3345 0008 FB71     		strb	r3, [r7, #7]
 591:..\src/SPI_functions.c ****   
 592:..\src/SPI_functions.c ****   shiftOut_RTC(data_wr);
 3346              		.loc 1 592 0
 3347 000a FB79     		ldrb	r3, [r7, #7]	@ zero_extendqisi2
 3348 000c 1846     		mov	r0, r3
 3349 000e FFF7FEFF 		bl	shiftOut_RTC
 593:..\src/SPI_functions.c **** 
 594:..\src/SPI_functions.c **** }
 3350              		.loc 1 594 0
 3351 0012 00BF     		nop
 3352 0014 0837     		adds	r7, r7, #8
 3353              		.cfi_def_cfa_offset 8
 3354 0016 BD46     		mov	sp, r7
 3355              		.cfi_def_cfa_register 13
 3356              		@ sp needed
 3357 0018 80BD     		pop	{r7, pc}
 3358              		.cfi_endproc
 3359              	.LFE81:
 3360              		.size	DS1302_writeByte, .-DS1302_writeByte
 3361 001a 00BF     		.section	.text.DS1302_read,"ax",%progbits
 3362              		.align	2
 3363              		.global	DS1302_read
 3364              		.thumb
 3365              		.thumb_func
 3366              		.type	DS1302_read, %function
 3367              	DS1302_read:
 3368              	.LFB82:
 595:..\src/SPI_functions.c **** 
ARM GAS  C:\Users\MattiaCP\AppData\Local\Temp\ccVW8gGQ.s 			page 71


 596:..\src/SPI_functions.c **** uint8 DS1302_read(uint8 address) {
 3369              		.loc 1 596 0
 3370              		.cfi_startproc
 3371              		@ args = 0, pretend = 0, frame = 16
 3372              		@ frame_needed = 1, uses_anonymous_args = 0
 3373 0000 80B5     		push	{r7, lr}
 3374              		.cfi_def_cfa_offset 8
 3375              		.cfi_offset 7, -8
 3376              		.cfi_offset 14, -4
 3377 0002 84B0     		sub	sp, sp, #16
 3378              		.cfi_def_cfa_offset 24
 3379 0004 00AF     		add	r7, sp, #0
 3380              		.cfi_def_cfa_register 7
 3381 0006 0346     		mov	r3, r0
 3382 0008 FB71     		strb	r3, [r7, #7]
 597:..\src/SPI_functions.c **** 
 598:..\src/SPI_functions.c ****   uint8 readValue;
 599:..\src/SPI_functions.c ****   RTC_Clock_Write(0); 
 3383              		.loc 1 599 0
 3384 000a 0020     		movs	r0, #0
 3385 000c FFF7FEFF 		bl	RTC_Clock_Write
 600:..\src/SPI_functions.c ****   RTC_CS_Write(1);
 3386              		.loc 1 600 0
 3387 0010 0120     		movs	r0, #1
 3388 0012 FFF7FEFF 		bl	RTC_CS_Write
 601:..\src/SPI_functions.c ****   CyDelayUs(5); // [GS]
 3389              		.loc 1 601 0
 3390 0016 0520     		movs	r0, #5
 3391 0018 FFF7FEFF 		bl	CyDelayUs
 602:..\src/SPI_functions.c ****   DS1302_writeByte(address);
 3392              		.loc 1 602 0
 3393 001c FB79     		ldrb	r3, [r7, #7]	@ zero_extendqisi2
 3394 001e 1846     		mov	r0, r3
 3395 0020 FFF7FEFF 		bl	DS1302_writeByte
 603:..\src/SPI_functions.c ****   readValue = DS1302_readByte();
 3396              		.loc 1 603 0
 3397 0024 FFF7FEFF 		bl	DS1302_readByte
 3398 0028 0346     		mov	r3, r0
 3399 002a FB73     		strb	r3, [r7, #15]
 604:..\src/SPI_functions.c ****   RTC_CS_Write(0);
 3400              		.loc 1 604 0
 3401 002c 0020     		movs	r0, #0
 3402 002e FFF7FEFF 		bl	RTC_CS_Write
 605:..\src/SPI_functions.c ****   CyDelayUs(5); // [GS]
 3403              		.loc 1 605 0
 3404 0032 0520     		movs	r0, #5
 3405 0034 FFF7FEFF 		bl	CyDelayUs
 606:..\src/SPI_functions.c ****   return readValue;
 3406              		.loc 1 606 0
 3407 0038 FB7B     		ldrb	r3, [r7, #15]	@ zero_extendqisi2
 607:..\src/SPI_functions.c ****   
 608:..\src/SPI_functions.c **** }
 3408              		.loc 1 608 0
 3409 003a 1846     		mov	r0, r3
 3410 003c 1037     		adds	r7, r7, #16
 3411              		.cfi_def_cfa_offset 8
 3412 003e BD46     		mov	sp, r7
ARM GAS  C:\Users\MattiaCP\AppData\Local\Temp\ccVW8gGQ.s 			page 72


 3413              		.cfi_def_cfa_register 13
 3414              		@ sp needed
 3415 0040 80BD     		pop	{r7, pc}
 3416              		.cfi_endproc
 3417              	.LFE82:
 3418              		.size	DS1302_read, .-DS1302_read
 3419 0042 00BF     		.section	.text.DS1302_readByte,"ax",%progbits
 3420              		.align	2
 3421              		.global	DS1302_readByte
 3422              		.thumb
 3423              		.thumb_func
 3424              		.type	DS1302_readByte, %function
 3425              	DS1302_readByte:
 3426              	.LFB83:
 609:..\src/SPI_functions.c **** 
 610:..\src/SPI_functions.c **** uint8 DS1302_readByte() {
 3427              		.loc 1 610 0
 3428              		.cfi_startproc
 3429              		@ args = 0, pretend = 0, frame = 16
 3430              		@ frame_needed = 1, uses_anonymous_args = 0
 3431 0000 80B5     		push	{r7, lr}
 3432              		.cfi_def_cfa_offset 8
 3433              		.cfi_offset 7, -8
 3434              		.cfi_offset 14, -4
 3435 0002 84B0     		sub	sp, sp, #16
 3436              		.cfi_def_cfa_offset 24
 3437 0004 00AF     		add	r7, sp, #0
 3438              		.cfi_def_cfa_register 7
 611:..\src/SPI_functions.c **** 
 612:..\src/SPI_functions.c ****   uint8 value = 0;
 3439              		.loc 1 612 0
 3440 0006 0023     		movs	r3, #0
 3441 0008 FB73     		strb	r3, [r7, #15]
 613:..\src/SPI_functions.c ****   uint8 currentBit = 0;
 3442              		.loc 1 613 0
 3443 000a 0023     		movs	r3, #0
 3444 000c FB71     		strb	r3, [r7, #7]
 614:..\src/SPI_functions.c ****   int i=0;
 3445              		.loc 1 614 0
 3446 000e 0023     		movs	r3, #0
 3447 0010 BB60     		str	r3, [r7, #8]
 615:..\src/SPI_functions.c ****   for (i = 0; i < 8; ++i)
 3448              		.loc 1 615 0
 3449 0012 0023     		movs	r3, #0
 3450 0014 BB60     		str	r3, [r7, #8]
 3451 0016 19E0     		b	.L105
 3452              	.L106:
 616:..\src/SPI_functions.c ****   {
 617:..\src/SPI_functions.c ****     currentBit = RTC_IN_Read();
 3453              		.loc 1 617 0 discriminator 3
 3454 0018 FFF7FEFF 		bl	RTC_IN_Read
 3455 001c 0346     		mov	r3, r0
 3456 001e FB71     		strb	r3, [r7, #7]
 618:..\src/SPI_functions.c ****     value |= (currentBit << i);
 3457              		.loc 1 618 0 discriminator 3
 3458 0020 FA79     		ldrb	r2, [r7, #7]	@ zero_extendqisi2
 3459 0022 BB68     		ldr	r3, [r7, #8]
ARM GAS  C:\Users\MattiaCP\AppData\Local\Temp\ccVW8gGQ.s 			page 73


 3460 0024 02FA03F3 		lsl	r3, r2, r3
 3461 0028 5AB2     		sxtb	r2, r3
 3462 002a 97F90F30 		ldrsb	r3, [r7, #15]
 3463 002e 1343     		orrs	r3, r3, r2
 3464 0030 5BB2     		sxtb	r3, r3
 3465 0032 FB73     		strb	r3, [r7, #15]
 619:..\src/SPI_functions.c ****     RTC_Clock_Write(1);
 3466              		.loc 1 619 0 discriminator 3
 3467 0034 0120     		movs	r0, #1
 3468 0036 FFF7FEFF 		bl	RTC_Clock_Write
 620:..\src/SPI_functions.c ****     CyDelayUs(1);
 3469              		.loc 1 620 0 discriminator 3
 3470 003a 0120     		movs	r0, #1
 3471 003c FFF7FEFF 		bl	CyDelayUs
 621:..\src/SPI_functions.c ****     RTC_Clock_Write(0);
 3472              		.loc 1 621 0 discriminator 3
 3473 0040 0020     		movs	r0, #0
 3474 0042 FFF7FEFF 		bl	RTC_Clock_Write
 615:..\src/SPI_functions.c ****   {
 3475              		.loc 1 615 0 discriminator 3
 3476 0046 BB68     		ldr	r3, [r7, #8]
 3477 0048 0133     		adds	r3, r3, #1
 3478 004a BB60     		str	r3, [r7, #8]
 3479              	.L105:
 615:..\src/SPI_functions.c ****   {
 3480              		.loc 1 615 0 is_stmt 0 discriminator 1
 3481 004c BB68     		ldr	r3, [r7, #8]
 3482 004e 072B     		cmp	r3, #7
 3483 0050 E2DD     		ble	.L106
 622:..\src/SPI_functions.c ****   }
 623:..\src/SPI_functions.c ****   return value;
 3484              		.loc 1 623 0 is_stmt 1
 3485 0052 FB7B     		ldrb	r3, [r7, #15]	@ zero_extendqisi2
 624:..\src/SPI_functions.c **** }
 3486              		.loc 1 624 0
 3487 0054 1846     		mov	r0, r3
 3488 0056 1037     		adds	r7, r7, #16
 3489              		.cfi_def_cfa_offset 8
 3490 0058 BD46     		mov	sp, r7
 3491              		.cfi_def_cfa_register 13
 3492              		@ sp needed
 3493 005a 80BD     		pop	{r7, pc}
 3494              		.cfi_endproc
 3495              	.LFE83:
 3496              		.size	DS1302_readByte, .-DS1302_readByte
 3497              		.section	.text.shiftOut_RTC,"ax",%progbits
 3498              		.align	2
 3499              		.global	shiftOut_RTC
 3500              		.thumb
 3501              		.thumb_func
 3502              		.type	shiftOut_RTC, %function
 3503              	shiftOut_RTC:
 3504              	.LFB84:
 625:..\src/SPI_functions.c **** 
 626:..\src/SPI_functions.c **** void shiftOut_RTC(uint8 val)
 627:..\src/SPI_functions.c **** {
 3505              		.loc 1 627 0
ARM GAS  C:\Users\MattiaCP\AppData\Local\Temp\ccVW8gGQ.s 			page 74


 3506              		.cfi_startproc
 3507              		@ args = 0, pretend = 0, frame = 16
 3508              		@ frame_needed = 1, uses_anonymous_args = 0
 3509 0000 80B5     		push	{r7, lr}
 3510              		.cfi_def_cfa_offset 8
 3511              		.cfi_offset 7, -8
 3512              		.cfi_offset 14, -4
 3513 0002 84B0     		sub	sp, sp, #16
 3514              		.cfi_def_cfa_offset 24
 3515 0004 00AF     		add	r7, sp, #0
 3516              		.cfi_def_cfa_register 7
 3517 0006 0346     		mov	r3, r0
 3518 0008 FB71     		strb	r3, [r7, #7]
 628:..\src/SPI_functions.c ****     uint8 i;
 629:..\src/SPI_functions.c ****     for (i = 0; i < 8; i++)  {
 3519              		.loc 1 629 0
 3520 000a 0023     		movs	r3, #0
 3521 000c FB73     		strb	r3, [r7, #15]
 3522 000e 16E0     		b	.L109
 3523              	.L110:
 630:..\src/SPI_functions.c ****         RTC_OUT_Write(!!(val & (1 << i)));
 3524              		.loc 1 630 0 discriminator 3
 3525 0010 FA79     		ldrb	r2, [r7, #7]	@ zero_extendqisi2
 3526 0012 FB7B     		ldrb	r3, [r7, #15]	@ zero_extendqisi2
 3527 0014 42FA03F3 		asr	r3, r2, r3
 3528 0018 03F00103 		and	r3, r3, #1
 3529 001c 002B     		cmp	r3, #0
 3530 001e 14BF     		ite	ne
 3531 0020 0123     		movne	r3, #1
 3532 0022 0023     		moveq	r3, #0
 3533 0024 DBB2     		uxtb	r3, r3
 3534 0026 1846     		mov	r0, r3
 3535 0028 FFF7FEFF 		bl	RTC_OUT_Write
 631:..\src/SPI_functions.c ****         RTC_Clock_Write(1);
 3536              		.loc 1 631 0 discriminator 3
 3537 002c 0120     		movs	r0, #1
 3538 002e FFF7FEFF 		bl	RTC_Clock_Write
 632:..\src/SPI_functions.c ****         RTC_Clock_Write(0);
 3539              		.loc 1 632 0 discriminator 3
 3540 0032 0020     		movs	r0, #0
 3541 0034 FFF7FEFF 		bl	RTC_Clock_Write
 629:..\src/SPI_functions.c ****         RTC_OUT_Write(!!(val & (1 << i)));
 3542              		.loc 1 629 0 discriminator 3
 3543 0038 FB7B     		ldrb	r3, [r7, #15]	@ zero_extendqisi2
 3544 003a 0133     		adds	r3, r3, #1
 3545 003c FB73     		strb	r3, [r7, #15]
 3546              	.L109:
 629:..\src/SPI_functions.c ****         RTC_OUT_Write(!!(val & (1 << i)));
 3547              		.loc 1 629 0 is_stmt 0 discriminator 1
 3548 003e FB7B     		ldrb	r3, [r7, #15]	@ zero_extendqisi2
 3549 0040 072B     		cmp	r3, #7
 3550 0042 E5D9     		bls	.L110
 633:..\src/SPI_functions.c ****     }
 634:..\src/SPI_functions.c **** }
 3551              		.loc 1 634 0 is_stmt 1
 3552 0044 00BF     		nop
 3553 0046 1037     		adds	r7, r7, #16
ARM GAS  C:\Users\MattiaCP\AppData\Local\Temp\ccVW8gGQ.s 			page 75


 3554              		.cfi_def_cfa_offset 8
 3555 0048 BD46     		mov	sp, r7
 3556              		.cfi_def_cfa_register 13
 3557              		@ sp needed
 3558 004a 80BD     		pop	{r7, pc}
 3559              		.cfi_endproc
 3560              	.LFE84:
 3561              		.size	shiftOut_RTC, .-shiftOut_RTC
 3562              		.section	.text.encoder_read,"ax",%progbits
 3563              		.align	2
 3564              		.global	encoder_read
 3565              		.thumb
 3566              		.thumb_func
 3567              		.type	encoder_read, %function
 3568              	encoder_read:
 3569              	.LFB85:
 635:..\src/SPI_functions.c **** 
 636:..\src/SPI_functions.c **** void encoder_read(int32* currValue) {
 3570              		.loc 1 636 0
 3571              		.cfi_startproc
 3572              		@ args = 0, pretend = 0, frame = 32
 3573              		@ frame_needed = 1, uses_anonymous_args = 0
 3574 0000 80B5     		push	{r7, lr}
 3575              		.cfi_def_cfa_offset 8
 3576              		.cfi_offset 7, -8
 3577              		.cfi_offset 14, -4
 3578 0002 88B0     		sub	sp, sp, #32
 3579              		.cfi_def_cfa_offset 40
 3580 0004 00AF     		add	r7, sp, #0
 3581              		.cfi_def_cfa_register 7
 3582 0006 7860     		str	r0, [r7, #4]
 637:..\src/SPI_functions.c **** 
 638:..\src/SPI_functions.c ****     uint32 currBit = 0;
 3583              		.loc 1 638 0
 3584 0008 0023     		movs	r3, #0
 3585 000a BB61     		str	r3, [r7, #24]
 639:..\src/SPI_functions.c ****     uint32 data_encoder[N_ENCODERS];
 640:..\src/SPI_functions.c ****     uint8 i=0, j=0;
 3586              		.loc 1 640 0
 3587 000c 0023     		movs	r3, #0
 3588 000e FB77     		strb	r3, [r7, #31]
 3589 0010 0023     		movs	r3, #0
 3590 0012 BB77     		strb	r3, [r7, #30]
 641:..\src/SPI_functions.c ****     // Start of SSI comunication
 642:..\src/SPI_functions.c ****     ENC_CS_Write(1);
 3591              		.loc 1 642 0
 3592 0014 0120     		movs	r0, #1
 3593 0016 FFF7FEFF 		bl	ENC_CS_Write
 643:..\src/SPI_functions.c ****     ENC_SCLK_Write(1);
 3594              		.loc 1 643 0
 3595 001a 0120     		movs	r0, #1
 3596 001c FFF7FEFF 		bl	ENC_SCLK_Write
 644:..\src/SPI_functions.c ****     ENC_CS_Write(0);
 3597              		.loc 1 644 0
 3598 0020 0020     		movs	r0, #0
 3599 0022 FFF7FEFF 		bl	ENC_CS_Write
 645:..\src/SPI_functions.c ****     CyDelayUs(1);           // Wait t_CLK_FE = 500 ns
ARM GAS  C:\Users\MattiaCP\AppData\Local\Temp\ccVW8gGQ.s 			page 76


 3600              		.loc 1 645 0
 3601 0026 0120     		movs	r0, #1
 3602 0028 FFF7FEFF 		bl	CyDelayUs
 646:..\src/SPI_functions.c ****     ENC_SCLK_Write(0);
 3603              		.loc 1 646 0
 3604 002c 0020     		movs	r0, #0
 3605 002e FFF7FEFF 		bl	ENC_SCLK_Write
 647:..\src/SPI_functions.c ****     CyDelayUs(1);           // Wait T_CLK/2 = 500 ns
 3606              		.loc 1 647 0
 3607 0032 0120     		movs	r0, #1
 3608 0034 FFF7FEFF 		bl	CyDelayUs
 648:..\src/SPI_functions.c **** 
 649:..\src/SPI_functions.c ****     for (i=0; i<N_ENCODERS; i++) {
 3609              		.loc 1 649 0
 3610 0038 0023     		movs	r3, #0
 3611 003a FB77     		strb	r3, [r7, #31]
 3612 003c 47E0     		b	.L112
 3613              	.L116:
 650:..\src/SPI_functions.c ****         data_encoder[i] = 0;
 3614              		.loc 1 650 0
 3615 003e FB7F     		ldrb	r3, [r7, #31]	@ zero_extendqisi2
 3616 0040 9B00     		lsls	r3, r3, #2
 3617 0042 07F12002 		add	r2, r7, #32
 3618 0046 1344     		add	r3, r3, r2
 3619 0048 0022     		movs	r2, #0
 3620 004a 43F8142C 		str	r2, [r3, #-20]
 651:..\src/SPI_functions.c ****         for (j=0; j<N_BITS_ENCODER; j++) {
 3621              		.loc 1 651 0
 3622 004e 0023     		movs	r3, #0
 3623 0050 BB77     		strb	r3, [r7, #30]
 3624 0052 27E0     		b	.L113
 3625              	.L114:
 652:..\src/SPI_functions.c ****             // Read bit between high and low edge of clock
 653:..\src/SPI_functions.c ****             ENC_SCLK_Write(1);
 3626              		.loc 1 653 0 discriminator 3
 3627 0054 0120     		movs	r0, #1
 3628 0056 FFF7FEFF 		bl	ENC_SCLK_Write
 654:..\src/SPI_functions.c ****             CyDelayUs(1);
 3629              		.loc 1 654 0 discriminator 3
 3630 005a 0120     		movs	r0, #1
 3631 005c FFF7FEFF 		bl	CyDelayUs
 655:..\src/SPI_functions.c ****             currBit = (uint32)ENC_MISO_Read();
 3632              		.loc 1 655 0 discriminator 3
 3633 0060 FFF7FEFF 		bl	ENC_MISO_Read
 3634 0064 0346     		mov	r3, r0
 3635 0066 BB61     		str	r3, [r7, #24]
 656:..\src/SPI_functions.c ****             data_encoder[i] |= (currBit << (17-j));
 3636              		.loc 1 656 0 discriminator 3
 3637 0068 F97F     		ldrb	r1, [r7, #31]	@ zero_extendqisi2
 3638 006a FB7F     		ldrb	r3, [r7, #31]	@ zero_extendqisi2
 3639 006c 9B00     		lsls	r3, r3, #2
 3640 006e 07F12002 		add	r2, r7, #32
 3641 0072 1344     		add	r3, r3, r2
 3642 0074 53F8142C 		ldr	r2, [r3, #-20]
 3643 0078 BB7F     		ldrb	r3, [r7, #30]	@ zero_extendqisi2
 3644 007a C3F11103 		rsb	r3, r3, #17
 3645 007e B869     		ldr	r0, [r7, #24]
ARM GAS  C:\Users\MattiaCP\AppData\Local\Temp\ccVW8gGQ.s 			page 77


 3646 0080 00FA03F3 		lsl	r3, r0, r3
 3647 0084 1A43     		orrs	r2, r2, r3
 3648 0086 8B00     		lsls	r3, r1, #2
 3649 0088 07F12001 		add	r1, r7, #32
 3650 008c 0B44     		add	r3, r3, r1
 3651 008e 43F8142C 		str	r2, [r3, #-20]
 657:..\src/SPI_functions.c ****             ENC_SCLK_Write(0);
 3652              		.loc 1 657 0 discriminator 3
 3653 0092 0020     		movs	r0, #0
 3654 0094 FFF7FEFF 		bl	ENC_SCLK_Write
 658:..\src/SPI_functions.c ****             CyDelayUs(1);
 3655              		.loc 1 658 0 discriminator 3
 3656 0098 0120     		movs	r0, #1
 3657 009a FFF7FEFF 		bl	CyDelayUs
 651:..\src/SPI_functions.c ****             // Read bit between high and low edge of clock
 3658              		.loc 1 651 0 discriminator 3
 3659 009e BB7F     		ldrb	r3, [r7, #30]	@ zero_extendqisi2
 3660 00a0 0133     		adds	r3, r3, #1
 3661 00a2 BB77     		strb	r3, [r7, #30]
 3662              	.L113:
 651:..\src/SPI_functions.c ****             // Read bit between high and low edge of clock
 3663              		.loc 1 651 0 is_stmt 0 discriminator 1
 3664 00a4 BB7F     		ldrb	r3, [r7, #30]	@ zero_extendqisi2
 3665 00a6 112B     		cmp	r3, #17
 3666 00a8 D4D9     		bls	.L114
 659:..\src/SPI_functions.c ****         }
 660:..\src/SPI_functions.c ****         
 661:..\src/SPI_functions.c ****         if (i < N_ENCODERS-1) {
 3667              		.loc 1 661 0 is_stmt 1
 3668 00aa FB7F     		ldrb	r3, [r7, #31]	@ zero_extendqisi2
 3669 00ac 012B     		cmp	r3, #1
 3670 00ae 0BD8     		bhi	.L115
 662:..\src/SPI_functions.c ****             //Skip bit between two consecutive encoders
 663:..\src/SPI_functions.c ****             ENC_SCLK_Write(1);
 3671              		.loc 1 663 0
 3672 00b0 0120     		movs	r0, #1
 3673 00b2 FFF7FEFF 		bl	ENC_SCLK_Write
 664:..\src/SPI_functions.c ****             CyDelayUs(1);
 3674              		.loc 1 664 0
 3675 00b6 0120     		movs	r0, #1
 3676 00b8 FFF7FEFF 		bl	CyDelayUs
 665:..\src/SPI_functions.c ****             ENC_SCLK_Write(0);
 3677              		.loc 1 665 0
 3678 00bc 0020     		movs	r0, #0
 3679 00be FFF7FEFF 		bl	ENC_SCLK_Write
 666:..\src/SPI_functions.c ****             CyDelayUs(1);
 3680              		.loc 1 666 0
 3681 00c2 0120     		movs	r0, #1
 3682 00c4 FFF7FEFF 		bl	CyDelayUs
 3683              	.L115:
 649:..\src/SPI_functions.c ****         data_encoder[i] = 0;
 3684              		.loc 1 649 0 discriminator 2
 3685 00c8 FB7F     		ldrb	r3, [r7, #31]	@ zero_extendqisi2
 3686 00ca 0133     		adds	r3, r3, #1
 3687 00cc FB77     		strb	r3, [r7, #31]
 3688              	.L112:
 649:..\src/SPI_functions.c ****         data_encoder[i] = 0;
ARM GAS  C:\Users\MattiaCP\AppData\Local\Temp\ccVW8gGQ.s 			page 78


 3689              		.loc 1 649 0 is_stmt 0 discriminator 1
 3690 00ce FB7F     		ldrb	r3, [r7, #31]	@ zero_extendqisi2
 3691 00d0 022B     		cmp	r3, #2
 3692 00d2 B4D9     		bls	.L116
 667:..\src/SPI_functions.c ****         }
 668:..\src/SPI_functions.c ****     }
 669:..\src/SPI_functions.c **** 
 670:..\src/SPI_functions.c ****     ENC_SCLK_Write(1);
 3693              		.loc 1 670 0 is_stmt 1
 3694 00d4 0120     		movs	r0, #1
 3695 00d6 FFF7FEFF 		bl	ENC_SCLK_Write
 671:..\src/SPI_functions.c ****     CyDelayUs(1);
 3696              		.loc 1 671 0
 3697 00da 0120     		movs	r0, #1
 3698 00dc FFF7FEFF 		bl	CyDelayUs
 672:..\src/SPI_functions.c ****     ENC_CS_Write(1); 
 3699              		.loc 1 672 0
 3700 00e0 0120     		movs	r0, #1
 3701 00e2 FFF7FEFF 		bl	ENC_CS_Write
 673:..\src/SPI_functions.c ****          
 674:..\src/SPI_functions.c ****     for (i=0; i<N_ENCODERS; i++) {
 3702              		.loc 1 674 0
 3703 00e6 0023     		movs	r3, #0
 3704 00e8 FB77     		strb	r3, [r7, #31]
 3705 00ea 25E0     		b	.L117
 3706              	.L120:
 675:..\src/SPI_functions.c ****         if (check_enc_data(&data_encoder[i])) {
 3707              		.loc 1 675 0
 3708 00ec FB7F     		ldrb	r3, [r7, #31]	@ zero_extendqisi2
 3709 00ee 07F10C02 		add	r2, r7, #12
 3710 00f2 9B00     		lsls	r3, r3, #2
 3711 00f4 1344     		add	r3, r3, r2
 3712 00f6 1846     		mov	r0, r3
 3713 00f8 FFF7FEFF 		bl	check_enc_data
 3714 00fc 0346     		mov	r3, r0
 3715 00fe 002B     		cmp	r3, #0
 3716 0100 11D0     		beq	.L118
 676:..\src/SPI_functions.c ****             currValue[i] = ((data_encoder[i] & 0x3FFC0) - 0x20000) >> 2;
 3717              		.loc 1 676 0
 3718 0102 FB7F     		ldrb	r3, [r7, #31]	@ zero_extendqisi2
 3719 0104 9B00     		lsls	r3, r3, #2
 3720 0106 7A68     		ldr	r2, [r7, #4]
 3721 0108 1A44     		add	r2, r2, r3
 3722 010a FB7F     		ldrb	r3, [r7, #31]	@ zero_extendqisi2
 3723 010c 9B00     		lsls	r3, r3, #2
 3724 010e 07F12001 		add	r1, r7, #32
 3725 0112 0B44     		add	r3, r3, r1
 3726 0114 53F8141C 		ldr	r1, [r3, #-20]
 3727 0118 0B4B     		ldr	r3, .L121
 3728 011a 0B40     		ands	r3, r3, r1
 3729 011c A3F50033 		sub	r3, r3, #131072
 3730 0120 9B08     		lsrs	r3, r3, #2
 3731 0122 1360     		str	r3, [r2]
 3732 0124 05E0     		b	.L119
 3733              	.L118:
 677:..\src/SPI_functions.c ****                                                 // reset last 6 bit 
 678:..\src/SPI_functions.c ****                                                 // -> |:|:|id|dim|CMD|CHK|(data---
ARM GAS  C:\Users\MattiaCP\AppData\Local\Temp\ccVW8gGQ.s 			page 79


 679:..\src/SPI_functions.c ****                                                 // subtract half of max value
 680:..\src/SPI_functions.c ****                                                 // and shift to have 16 bit val
 681:..\src/SPI_functions.c ****         }
 682:..\src/SPI_functions.c ****         else {
 683:..\src/SPI_functions.c ****             currValue[i] = 0;
 3734              		.loc 1 683 0
 3735 0126 FB7F     		ldrb	r3, [r7, #31]	@ zero_extendqisi2
 3736 0128 9B00     		lsls	r3, r3, #2
 3737 012a 7A68     		ldr	r2, [r7, #4]
 3738 012c 1344     		add	r3, r3, r2
 3739 012e 0022     		movs	r2, #0
 3740 0130 1A60     		str	r2, [r3]
 3741              	.L119:
 674:..\src/SPI_functions.c ****         if (check_enc_data(&data_encoder[i])) {
 3742              		.loc 1 674 0 discriminator 2
 3743 0132 FB7F     		ldrb	r3, [r7, #31]	@ zero_extendqisi2
 3744 0134 0133     		adds	r3, r3, #1
 3745 0136 FB77     		strb	r3, [r7, #31]
 3746              	.L117:
 674:..\src/SPI_functions.c ****         if (check_enc_data(&data_encoder[i])) {
 3747              		.loc 1 674 0 is_stmt 0 discriminator 1
 3748 0138 FB7F     		ldrb	r3, [r7, #31]	@ zero_extendqisi2
 3749 013a 022B     		cmp	r3, #2
 3750 013c D6D9     		bls	.L120
 684:..\src/SPI_functions.c ****         }
 685:..\src/SPI_functions.c ****     }
 686:..\src/SPI_functions.c **** }
 3751              		.loc 1 686 0 is_stmt 1
 3752 013e 00BF     		nop
 3753 0140 2037     		adds	r7, r7, #32
 3754              		.cfi_def_cfa_offset 8
 3755 0142 BD46     		mov	sp, r7
 3756              		.cfi_def_cfa_register 13
 3757              		@ sp needed
 3758 0144 80BD     		pop	{r7, pc}
 3759              	.L122:
 3760 0146 00BF     		.align	2
 3761              	.L121:
 3762 0148 C0FF0300 		.word	262080
 3763              		.cfi_endproc
 3764              	.LFE85:
 3765              		.size	encoder_read, .-encoder_read
 3766              		.bss
 3767              	k_imu.9854:
 3768 0000 00       		.space	1
 3769              		.text
 3770              	.Letext0:
 3771              		.file 2 "c:\\program files (x86)\\cypress\\psoc creator\\4.2\\psoc creator\\import\\gnu\\arm\\5.4.
 3772              		.file 3 "c:\\program files (x86)\\cypress\\psoc creator\\4.2\\psoc creator\\import\\gnu\\arm\\5.4.
 3773              		.file 4 "Generated_Source\\PSoC5/cytypes.h"
 3774              		.file 5 "..\\src\\globals.h"
 3775              		.file 6 "Generated_Source\\PSoC5/core_cm3.h"