ARM GAS  C:\Users\MattiaCP\AppData\Local\Temp\cc5xw3YS.s 			page 1


   1              		.syntax unified
   2              		.cpu cortex-m3
   3              		.fpu softvfp
   4              		.eabi_attribute 20, 1
   5              		.eabi_attribute 21, 1
   6              		.eabi_attribute 23, 3
   7              		.eabi_attribute 24, 1
   8              		.eabi_attribute 25, 1
   9              		.eabi_attribute 26, 1
  10              		.eabi_attribute 30, 6
  11              		.eabi_attribute 34, 1
  12              		.eabi_attribute 18, 4
  13              		.thumb
  14              		.syntax unified
  15              		.file	"utils.c"
  16              		.text
  17              	.Ltext0:
  18              		.cfi_sections	.debug_frame
  19              		.global	__aeabi_i2f
  20              		.global	__aeabi_fmul
  21              		.global	__aeabi_fadd
  22              		.global	__aeabi_fdiv
  23              		.global	__aeabi_f2iz
  24              		.section	.text.curr_estim,"ax",%progbits
  25              		.align	2
  26              		.global	curr_estim
  27              		.thumb
  28              		.thumb_func
  29              		.type	curr_estim, %function
  30              	curr_estim:
  31              	.LFB64:
  32              		.file 1 "..\\src\\utils.c"
   1:..\src/utils.c **** // ----------------------------------------------------------------------------
   2:..\src/utils.c **** // BSD 3-Clause License
   3:..\src/utils.c **** 
   4:..\src/utils.c **** // Copyright (c) 2016, qbrobotics
   5:..\src/utils.c **** // Copyright (c) 2017-2019, Centro "E.Piaggio"
   6:..\src/utils.c **** // All rights reserved.
   7:..\src/utils.c **** 
   8:..\src/utils.c **** // Redistribution and use in source and binary forms, with or without
   9:..\src/utils.c **** // modification, are permitted provided that the following conditions are met:
  10:..\src/utils.c **** 
  11:..\src/utils.c **** // * Redistributions of source code must retain the above copyright notice, this
  12:..\src/utils.c **** //   list of conditions and the following disclaimer.
  13:..\src/utils.c **** 
  14:..\src/utils.c **** // * Redistributions in binary form must reproduce the above copyright notice,
  15:..\src/utils.c **** //   this list of conditions and the following disclaimer in the documentation
  16:..\src/utils.c **** //   and/or other materials provided with the distribution.
  17:..\src/utils.c **** 
  18:..\src/utils.c **** // * Neither the name of the copyright holder nor the names of its
  19:..\src/utils.c **** //   contributors may be used to endorse or promote products derived from
  20:..\src/utils.c **** //   this software without specific prior written permission.
  21:..\src/utils.c **** 
  22:..\src/utils.c **** // THIS SOFTWARE IS PROVIDED BY THE COPYRIGHT HOLDERS AND CONTRIBUTORS "AS IS"
  23:..\src/utils.c **** // AND ANY EXPRESS OR IMPLIED WARRANTIES, INCLUDING, BUT NOT LIMITED TO, THE
  24:..\src/utils.c **** // IMPLIED WARRANTIES OF MERCHANTABILITY AND FITNESS FOR A PARTICULAR PURPOSE ARE
  25:..\src/utils.c **** // DISCLAIMED. IN NO EVENT SHALL THE COPYRIGHT HOLDER OR CONTRIBUTORS BE LIABLE
ARM GAS  C:\Users\MattiaCP\AppData\Local\Temp\cc5xw3YS.s 			page 2


  26:..\src/utils.c **** // FOR ANY DIRECT, INDIRECT, INCIDENTAL, SPECIAL, EXEMPLARY, OR CONSEQUENTIAL
  27:..\src/utils.c **** // DAMAGES (INCLUDING, BUT NOT LIMITED TO, PROCUREMENT OF SUBSTITUTE GOODS OR
  28:..\src/utils.c **** // SERVICES; LOSS OF USE, DATA, OR PROFITS; OR BUSINESS INTERRUPTION) HOWEVER
  29:..\src/utils.c **** // CAUSED AND ON ANY THEORY OF LIABILITY, WHETHER IN CONTRACT, STRICT LIABILITY,
  30:..\src/utils.c **** // OR TORT (INCLUDING NEGLIGENCE OR OTHERWISE) ARISING IN ANY WAY OUT OF THE USE
  31:..\src/utils.c **** // OF THIS SOFTWARE, EVEN IF ADVISED OF THE POSSIBILITY OF SUCH DAMAGE.
  32:..\src/utils.c **** // POSSIBILITY OF SUCH DAMAGE.
  33:..\src/utils.c **** // ----------------------------------------------------------------------------
  34:..\src/utils.c **** 
  35:..\src/utils.c **** /**
  36:..\src/utils.c **** * \file         utils.c
  37:..\src/utils.c **** *
  38:..\src/utils.c **** * \brief        Definition of utility functions.
  39:..\src/utils.c **** * \date         October 01, 2017
  40:..\src/utils.c **** * \author       _Centro "E.Piaggio"_
  41:..\src/utils.c **** * \copyright    (C) 2012-2016 qbrobotics. All rights reserved.
  42:..\src/utils.c **** * \copyright    (C) 2017-2019 Centro "E.Piaggio". All rights reserved.
  43:..\src/utils.c **** */
  44:..\src/utils.c **** 
  45:..\src/utils.c **** #include "utils.h"
  46:..\src/utils.c **** 
  47:..\src/utils.c **** //==============================================================================
  48:..\src/utils.c **** //                                                            Current Estimation
  49:..\src/utils.c **** //==============================================================================
  50:..\src/utils.c **** 
  51:..\src/utils.c **** int32 curr_estim ( uint8 idx, int32 pos, int32 vel, int32 ref ) {
  33              		.loc 1 51 0
  34              		.cfi_startproc
  35              		@ args = 0, pretend = 0, frame = 24
  36              		@ frame_needed = 1, uses_anonymous_args = 0
  37 0000 B0B5     		push	{r4, r5, r7, lr}
  38              		.cfi_def_cfa_offset 16
  39              		.cfi_offset 4, -16
  40              		.cfi_offset 5, -12
  41              		.cfi_offset 7, -8
  42              		.cfi_offset 14, -4
  43 0002 86B0     		sub	sp, sp, #24
  44              		.cfi_def_cfa_offset 40
  45 0004 00AF     		add	r7, sp, #0
  46              		.cfi_def_cfa_register 7
  47 0006 B960     		str	r1, [r7, #8]
  48 0008 7A60     		str	r2, [r7, #4]
  49 000a 3B60     		str	r3, [r7]
  50 000c 0346     		mov	r3, r0
  51 000e FB73     		strb	r3, [r7, #15]
  52:..\src/utils.c **** 
  53:..\src/utils.c ****         static int32 virtual_pos_friction[NUM_OF_MOTORS]; 	// Virtual position used to estimate fri
  54:..\src/utils.c ****         static int32 err_pos_dt[NUM_OF_MOTORS];			    // Temporal evolution of error position.
  55:..\src/utils.c **** 											// Needed to model the current transients due to reference steps.
  56:..\src/utils.c ****         int32 curr_estimate;
  57:..\src/utils.c **** 
  58:..\src/utils.c ****         if (pos < ZERO_TOL) 
  52              		.loc 1 58 0
  53 0010 BB68     		ldr	r3, [r7, #8]
  54 0012 632B     		cmp	r3, #99
  55 0014 05DC     		bgt	.L2
  59:..\src/utils.c **** 			virtual_pos_friction[idx] = pos;
ARM GAS  C:\Users\MattiaCP\AppData\Local\Temp\cc5xw3YS.s 			page 3


  56              		.loc 1 59 0
  57 0016 FB7B     		ldrb	r3, [r7, #15]	@ zero_extendqisi2
  58 0018 9049     		ldr	r1, .L9
  59 001a BA68     		ldr	r2, [r7, #8]
  60 001c 41F82320 		str	r2, [r1, r3, lsl #2]
  61 0020 1DE0     		b	.L3
  62              	.L2:
  60:..\src/utils.c ****         else {
  61:..\src/utils.c **** 			if ((pos - virtual_pos_friction[idx]) > ZMAX) 
  63              		.loc 1 61 0
  64 0022 FB7B     		ldrb	r3, [r7, #15]	@ zero_extendqisi2
  65 0024 8D4A     		ldr	r2, .L9
  66 0026 52F82330 		ldr	r3, [r2, r3, lsl #2]
  67 002a BA68     		ldr	r2, [r7, #8]
  68 002c D31A     		subs	r3, r2, r3
  69 002e 052B     		cmp	r3, #5
  70 0030 06DD     		ble	.L4
  62:..\src/utils.c **** 				virtual_pos_friction[idx] =  pos - ZMAX;
  71              		.loc 1 62 0
  72 0032 FB7B     		ldrb	r3, [r7, #15]	@ zero_extendqisi2
  73 0034 BA68     		ldr	r2, [r7, #8]
  74 0036 053A     		subs	r2, r2, #5
  75 0038 8849     		ldr	r1, .L9
  76 003a 41F82320 		str	r2, [r1, r3, lsl #2]
  77 003e 0EE0     		b	.L3
  78              	.L4:
  63:..\src/utils.c ****         	else { 
  64:..\src/utils.c **** 				if ((pos - virtual_pos_friction[idx]) < -ZMAX) 
  79              		.loc 1 64 0
  80 0040 FB7B     		ldrb	r3, [r7, #15]	@ zero_extendqisi2
  81 0042 864A     		ldr	r2, .L9
  82 0044 52F82330 		ldr	r3, [r2, r3, lsl #2]
  83 0048 BA68     		ldr	r2, [r7, #8]
  84 004a D31A     		subs	r3, r2, r3
  85 004c 13F1050F 		cmn	r3, #5
  86 0050 05DA     		bge	.L3
  65:..\src/utils.c **** 					virtual_pos_friction[idx] =  pos + ZMAX;
  87              		.loc 1 65 0
  88 0052 FB7B     		ldrb	r3, [r7, #15]	@ zero_extendqisi2
  89 0054 BA68     		ldr	r2, [r7, #8]
  90 0056 0532     		adds	r2, r2, #5
  91 0058 8049     		ldr	r1, .L9
  92 005a 41F82320 		str	r2, [r1, r3, lsl #2]
  93              	.L3:
  66:..\src/utils.c **** 			}
  67:..\src/utils.c **** 		}        
  68:..\src/utils.c ****        
  69:..\src/utils.c ****         curr_estimate = pos * g_mem.motor[idx].curr_lookup[0] * (1 + pos * g_mem.motor[idx].curr_lo
  94              		.loc 1 69 0
  95 005e B868     		ldr	r0, [r7, #8]
  96 0060 FFF7FEFF 		bl	__aeabi_i2f
  97 0064 FA7B     		ldrb	r2, [r7, #15]	@ zero_extendqisi2
  98 0066 7E49     		ldr	r1, .L9+4
  99 0068 1346     		mov	r3, r2
 100 006a DB00     		lsls	r3, r3, #3
 101 006c 9B1A     		subs	r3, r3, r2
 102 006e 1B01     		lsls	r3, r3, #4
ARM GAS  C:\Users\MattiaCP\AppData\Local\Temp\cc5xw3YS.s 			page 4


 103 0070 0B44     		add	r3, r3, r1
 104 0072 F433     		adds	r3, r3, #244
 105 0074 1B68     		ldr	r3, [r3]	@ float
 106 0076 1946     		mov	r1, r3
 107 0078 FFF7FEFF 		bl	__aeabi_fmul
 108 007c 0346     		mov	r3, r0
 109 007e 1C46     		mov	r4, r3
 110 0080 B868     		ldr	r0, [r7, #8]
 111 0082 FFF7FEFF 		bl	__aeabi_i2f
 112 0086 FA7B     		ldrb	r2, [r7, #15]	@ zero_extendqisi2
 113 0088 7549     		ldr	r1, .L9+4
 114 008a 1346     		mov	r3, r2
 115 008c DB00     		lsls	r3, r3, #3
 116 008e 9B1A     		subs	r3, r3, r2
 117 0090 1B01     		lsls	r3, r3, #4
 118 0092 0B44     		add	r3, r3, r1
 119 0094 F833     		adds	r3, r3, #248
 120 0096 1B68     		ldr	r3, [r3]	@ float
 121 0098 1946     		mov	r1, r3
 122 009a FFF7FEFF 		bl	__aeabi_fmul
 123 009e 0346     		mov	r3, r0
 124 00a0 4FF07E51 		mov	r1, #1065353216
 125 00a4 1846     		mov	r0, r3
 126 00a6 FFF7FEFF 		bl	__aeabi_fadd
 127 00aa 0346     		mov	r3, r0
 128 00ac 1946     		mov	r1, r3
 129 00ae 2046     		mov	r0, r4
 130 00b0 FFF7FEFF 		bl	__aeabi_fmul
 131 00b4 0346     		mov	r3, r0
 132 00b6 1C46     		mov	r4, r3
 133 00b8 FB7B     		ldrb	r3, [r7, #15]	@ zero_extendqisi2
 134 00ba 684A     		ldr	r2, .L9
 135 00bc 52F82330 		ldr	r3, [r2, r3, lsl #2]
 136 00c0 BA68     		ldr	r2, [r7, #8]
 137 00c2 D31A     		subs	r3, r2, r3
 138 00c4 1846     		mov	r0, r3
 139 00c6 FFF7FEFF 		bl	__aeabi_i2f
 140 00ca 0546     		mov	r5, r0
 141 00cc FA7B     		ldrb	r2, [r7, #15]	@ zero_extendqisi2
 142 00ce 6449     		ldr	r1, .L9+4
 143 00d0 1346     		mov	r3, r2
 144 00d2 DB00     		lsls	r3, r3, #3
 145 00d4 9B1A     		subs	r3, r3, r2
 146 00d6 1B01     		lsls	r3, r3, #4
 147 00d8 0B44     		add	r3, r3, r1
 148 00da FC33     		adds	r3, r3, #252
 149 00dc 1B68     		ldr	r3, [r3]	@ float
 150 00de 6149     		ldr	r1, .L9+8
 151 00e0 1846     		mov	r0, r3
 152 00e2 FFF7FEFF 		bl	__aeabi_fdiv
 153 00e6 0346     		mov	r3, r0
 154 00e8 1946     		mov	r1, r3
 155 00ea 2846     		mov	r0, r5
 156 00ec FFF7FEFF 		bl	__aeabi_fmul
 157 00f0 0346     		mov	r3, r0
 158 00f2 1946     		mov	r1, r3
 159 00f4 2046     		mov	r0, r4
ARM GAS  C:\Users\MattiaCP\AppData\Local\Temp\cc5xw3YS.s 			page 5


 160 00f6 FFF7FEFF 		bl	__aeabi_fadd
 161 00fa 0346     		mov	r3, r0
 162 00fc 1C46     		mov	r4, r3
 163 00fe 7868     		ldr	r0, [r7, #4]
 164 0100 FFF7FEFF 		bl	__aeabi_i2f
 165 0104 FA7B     		ldrb	r2, [r7, #15]	@ zero_extendqisi2
 166 0106 5649     		ldr	r1, .L9+4
 167 0108 1346     		mov	r3, r2
 168 010a DB00     		lsls	r3, r3, #3
 169 010c 9B1A     		subs	r3, r3, r2
 170 010e 1B01     		lsls	r3, r3, #4
 171 0110 0B44     		add	r3, r3, r1
 172 0112 03F58073 		add	r3, r3, #256
 173 0116 1B68     		ldr	r3, [r3]	@ float
 174 0118 1946     		mov	r1, r3
 175 011a FFF7FEFF 		bl	__aeabi_fmul
 176 011e 0346     		mov	r3, r0
 177 0120 1D46     		mov	r5, r3
 178 0122 7B68     		ldr	r3, [r7, #4]
 179 0124 002B     		cmp	r3, #0
 180 0126 B8BF     		it	lt
 181 0128 5B42     		rsblt	r3, r3, #0
 182 012a 1846     		mov	r0, r3
 183 012c FFF7FEFF 		bl	__aeabi_i2f
 184 0130 FA7B     		ldrb	r2, [r7, #15]	@ zero_extendqisi2
 185 0132 4B49     		ldr	r1, .L9+4
 186 0134 1346     		mov	r3, r2
 187 0136 DB00     		lsls	r3, r3, #3
 188 0138 9B1A     		subs	r3, r3, r2
 189 013a 1B01     		lsls	r3, r3, #4
 190 013c 0B44     		add	r3, r3, r1
 191 013e 03F58273 		add	r3, r3, #260
 192 0142 1B68     		ldr	r3, [r3]	@ float
 193 0144 1946     		mov	r1, r3
 194 0146 FFF7FEFF 		bl	__aeabi_fmul
 195 014a 0346     		mov	r3, r0
 196 014c 4FF07E51 		mov	r1, #1065353216
 197 0150 1846     		mov	r0, r3
 198 0152 FFF7FEFF 		bl	__aeabi_fadd
 199 0156 0346     		mov	r3, r0
 200 0158 1946     		mov	r1, r3
 201 015a 2846     		mov	r0, r5
 202 015c FFF7FEFF 		bl	__aeabi_fmul
 203 0160 0346     		mov	r3, r0
 204 0162 1946     		mov	r1, r3
 205 0164 2046     		mov	r0, r4
 206 0166 FFF7FEFF 		bl	__aeabi_fadd
 207 016a 0346     		mov	r3, r0
 208 016c 1C46     		mov	r4, r3
 209 016e FB7B     		ldrb	r3, [r7, #15]	@ zero_extendqisi2
 210 0170 3D4A     		ldr	r2, .L9+12
 211 0172 52F82330 		ldr	r3, [r2, r3, lsl #2]
 212 0176 3A68     		ldr	r2, [r7]
 213 0178 D31A     		subs	r3, r2, r3
 214 017a 1846     		mov	r0, r3
 215 017c FFF7FEFF 		bl	__aeabi_i2f
 216 0180 FA7B     		ldrb	r2, [r7, #15]	@ zero_extendqisi2
ARM GAS  C:\Users\MattiaCP\AppData\Local\Temp\cc5xw3YS.s 			page 6


 217 0182 3749     		ldr	r1, .L9+4
 218 0184 1346     		mov	r3, r2
 219 0186 DB00     		lsls	r3, r3, #3
 220 0188 9B1A     		subs	r3, r3, r2
 221 018a 1B01     		lsls	r3, r3, #4
 222 018c 0B44     		add	r3, r3, r1
 223 018e 03F58473 		add	r3, r3, #264
 224 0192 1B68     		ldr	r3, [r3]	@ float
 225 0194 1946     		mov	r1, r3
 226 0196 FFF7FEFF 		bl	__aeabi_fmul
 227 019a 0346     		mov	r3, r0
 228 019c 1946     		mov	r1, r3
 229 019e 2046     		mov	r0, r4
 230 01a0 FFF7FEFF 		bl	__aeabi_fadd
 231 01a4 0346     		mov	r3, r0
 232 01a6 1846     		mov	r0, r3
 233 01a8 FFF7FEFF 		bl	__aeabi_f2iz
 234 01ac 0346     		mov	r3, r0
 235 01ae 7B61     		str	r3, [r7, #20]
  70:..\src/utils.c ****         
  71:..\src/utils.c ****         if (curr_estimate > c_mem.motor[idx].current_limit) 
 236              		.loc 1 71 0
 237 01b0 FA7B     		ldrb	r2, [r7, #15]	@ zero_extendqisi2
 238 01b2 2E49     		ldr	r1, .L9+16
 239 01b4 1346     		mov	r3, r2
 240 01b6 DB00     		lsls	r3, r3, #3
 241 01b8 9B1A     		subs	r3, r3, r2
 242 01ba 1B01     		lsls	r3, r3, #4
 243 01bc 0B44     		add	r3, r3, r1
 244 01be 03F58673 		add	r3, r3, #268
 245 01c2 B3F90030 		ldrsh	r3, [r3]
 246 01c6 1A46     		mov	r2, r3
 247 01c8 7B69     		ldr	r3, [r7, #20]
 248 01ca 9A42     		cmp	r2, r3
 249 01cc 0CDA     		bge	.L5
  72:..\src/utils.c ****             curr_estimate = c_mem.motor[idx].current_limit;
 250              		.loc 1 72 0
 251 01ce FA7B     		ldrb	r2, [r7, #15]	@ zero_extendqisi2
 252 01d0 2649     		ldr	r1, .L9+16
 253 01d2 1346     		mov	r3, r2
 254 01d4 DB00     		lsls	r3, r3, #3
 255 01d6 9B1A     		subs	r3, r3, r2
 256 01d8 1B01     		lsls	r3, r3, #4
 257 01da 0B44     		add	r3, r3, r1
 258 01dc 03F58673 		add	r3, r3, #268
 259 01e0 B3F90030 		ldrsh	r3, [r3]
 260 01e4 7B61     		str	r3, [r7, #20]
 261 01e6 1BE0     		b	.L6
 262              	.L5:
  73:..\src/utils.c ****         else {
  74:..\src/utils.c **** 			if (curr_estimate < -c_mem.motor[idx].current_limit)
 263              		.loc 1 74 0
 264 01e8 FA7B     		ldrb	r2, [r7, #15]	@ zero_extendqisi2
 265 01ea 2049     		ldr	r1, .L9+16
 266 01ec 1346     		mov	r3, r2
 267 01ee DB00     		lsls	r3, r3, #3
 268 01f0 9B1A     		subs	r3, r3, r2
ARM GAS  C:\Users\MattiaCP\AppData\Local\Temp\cc5xw3YS.s 			page 7


 269 01f2 1B01     		lsls	r3, r3, #4
 270 01f4 0B44     		add	r3, r3, r1
 271 01f6 03F58673 		add	r3, r3, #268
 272 01fa B3F90030 		ldrsh	r3, [r3]
 273 01fe 5A42     		negs	r2, r3
 274 0200 7B69     		ldr	r3, [r7, #20]
 275 0202 9A42     		cmp	r2, r3
 276 0204 0CDD     		ble	.L6
  75:..\src/utils.c ****             	curr_estimate = -c_mem.motor[idx].current_limit;
 277              		.loc 1 75 0
 278 0206 FA7B     		ldrb	r2, [r7, #15]	@ zero_extendqisi2
 279 0208 1849     		ldr	r1, .L9+16
 280 020a 1346     		mov	r3, r2
 281 020c DB00     		lsls	r3, r3, #3
 282 020e 9B1A     		subs	r3, r3, r2
 283 0210 1B01     		lsls	r3, r3, #4
 284 0212 0B44     		add	r3, r3, r1
 285 0214 03F58673 		add	r3, r3, #268
 286 0218 B3F90030 		ldrsh	r3, [r3]
 287 021c 5B42     		negs	r3, r3
 288 021e 7B61     		str	r3, [r7, #20]
 289              	.L6:
  76:..\src/utils.c **** 		}
  77:..\src/utils.c **** 
  78:..\src/utils.c ****         err_pos_dt[idx] = (REFSPEED * ref + (1024 - REFSPEED) * err_pos_dt[idx]) / 1024;         
 290              		.loc 1 78 0
 291 0220 F97B     		ldrb	r1, [r7, #15]	@ zero_extendqisi2
 292 0222 3A68     		ldr	r2, [r7]
 293 0224 1346     		mov	r3, r2
 294 0226 9B00     		lsls	r3, r3, #2
 295 0228 1344     		add	r3, r3, r2
 296 022a 9B00     		lsls	r3, r3, #2
 297 022c 1846     		mov	r0, r3
 298 022e FB7B     		ldrb	r3, [r7, #15]	@ zero_extendqisi2
 299 0230 0D4A     		ldr	r2, .L9+12
 300 0232 52F82330 		ldr	r3, [r2, r3, lsl #2]
 301 0236 4FF47B72 		mov	r2, #1004
 302 023a 02FB03F3 		mul	r3, r2, r3
 303 023e 0344     		add	r3, r3, r0
 304 0240 002B     		cmp	r3, #0
 305 0242 01DA     		bge	.L7
 306 0244 03F2FF33 		addw	r3, r3, #1023
 307              	.L7:
 308 0248 9B12     		asrs	r3, r3, #10
 309 024a 1A46     		mov	r2, r3
 310 024c 064B     		ldr	r3, .L9+12
 311 024e 43F82120 		str	r2, [r3, r1, lsl #2]
  79:..\src/utils.c ****         
  80:..\src/utils.c ****         return curr_estimate; 
 312              		.loc 1 80 0
 313 0252 7B69     		ldr	r3, [r7, #20]
  81:..\src/utils.c ****     
  82:..\src/utils.c **** }
 314              		.loc 1 82 0
 315 0254 1846     		mov	r0, r3
 316 0256 1837     		adds	r7, r7, #24
 317              		.cfi_def_cfa_offset 16
ARM GAS  C:\Users\MattiaCP\AppData\Local\Temp\cc5xw3YS.s 			page 8


 318 0258 BD46     		mov	sp, r7
 319              		.cfi_def_cfa_register 13
 320              		@ sp needed
 321 025a B0BD     		pop	{r4, r5, r7, pc}
 322              	.L10:
 323              		.align	2
 324              	.L9:
 325 025c 00000000 		.word	virtual_pos_friction.10130
 326 0260 00000000 		.word	g_mem
 327 0264 0000A040 		.word	1084227584
 328 0268 08000000 		.word	err_pos_dt.10131
 329 026c 00000000 		.word	c_mem
 330              		.cfi_endproc
 331              	.LFE64:
 332              		.size	curr_estim, .-curr_estim
 333              		.section	.text.filter,"ax",%progbits
 334              		.align	2
 335              		.global	filter
 336              		.thumb
 337              		.thumb_func
 338              		.type	filter, %function
 339              	filter:
 340              	.LFB65:
  83:..\src/utils.c **** 
  84:..\src/utils.c **** //==============================================================================
  85:..\src/utils.c **** //                                                                General filter
  86:..\src/utils.c **** //==============================================================================
  87:..\src/utils.c **** int32 filter(int32 new_value, struct st_filter *f) {
 341              		.loc 1 87 0
 342              		.cfi_startproc
 343              		@ args = 0, pretend = 0, frame = 16
 344              		@ frame_needed = 1, uses_anonymous_args = 0
 345              		@ link register save eliminated.
 346 0000 80B4     		push	{r7}
 347              		.cfi_def_cfa_offset 4
 348              		.cfi_offset 7, -4
 349 0002 85B0     		sub	sp, sp, #20
 350              		.cfi_def_cfa_offset 24
 351 0004 00AF     		add	r7, sp, #0
 352              		.cfi_def_cfa_register 7
 353 0006 7860     		str	r0, [r7, #4]
 354 0008 3960     		str	r1, [r7]
  88:..\src/utils.c **** 
  89:..\src/utils.c ****     int32 aux;
  90:..\src/utils.c **** 
  91:..\src/utils.c ****     aux = (f->old_value * (1024 - f->gain) + (new_value << 6) * (f->gain)) /1024;
 355              		.loc 1 91 0
 356 000a 3B68     		ldr	r3, [r7]
 357 000c 1B68     		ldr	r3, [r3]
 358 000e 3A68     		ldr	r2, [r7]
 359 0010 5268     		ldr	r2, [r2, #4]
 360 0012 C2F58062 		rsb	r2, r2, #1024
 361 0016 02FB03F2 		mul	r2, r2, r3
 362 001a 7B68     		ldr	r3, [r7, #4]
 363 001c 9B01     		lsls	r3, r3, #6
 364 001e 3968     		ldr	r1, [r7]
 365 0020 4968     		ldr	r1, [r1, #4]
ARM GAS  C:\Users\MattiaCP\AppData\Local\Temp\cc5xw3YS.s 			page 9


 366 0022 01FB03F3 		mul	r3, r1, r3
 367 0026 1344     		add	r3, r3, r2
 368 0028 002B     		cmp	r3, #0
 369 002a 01DA     		bge	.L12
 370 002c 03F2FF33 		addw	r3, r3, #1023
 371              	.L12:
 372 0030 9B12     		asrs	r3, r3, #10
 373 0032 FB60     		str	r3, [r7, #12]
  92:..\src/utils.c **** 
  93:..\src/utils.c ****     f->old_value = aux;
 374              		.loc 1 93 0
 375 0034 3B68     		ldr	r3, [r7]
 376 0036 FA68     		ldr	r2, [r7, #12]
 377 0038 1A60     		str	r2, [r3]
  94:..\src/utils.c **** 
  95:..\src/utils.c ****     return (aux / 64);
 378              		.loc 1 95 0
 379 003a FB68     		ldr	r3, [r7, #12]
 380 003c 002B     		cmp	r3, #0
 381 003e 00DA     		bge	.L13
 382 0040 3F33     		adds	r3, r3, #63
 383              	.L13:
 384 0042 9B11     		asrs	r3, r3, #6
  96:..\src/utils.c **** }
 385              		.loc 1 96 0
 386 0044 1846     		mov	r0, r3
 387 0046 1437     		adds	r7, r7, #20
 388              		.cfi_def_cfa_offset 4
 389 0048 BD46     		mov	sp, r7
 390              		.cfi_def_cfa_register 13
 391              		@ sp needed
 392 004a 80BC     		pop	{r7}
 393              		.cfi_restore 7
 394              		.cfi_def_cfa_offset 0
 395 004c 7047     		bx	lr
 396              		.cfi_endproc
 397              	.LFE65:
 398              		.size	filter, .-filter
 399 004e 00BF     		.section	.text.my_mod,"ax",%progbits
 400              		.align	2
 401              		.global	my_mod
 402              		.thumb
 403              		.thumb_func
 404              		.type	my_mod, %function
 405              	my_mod:
 406              	.LFB66:
  97:..\src/utils.c **** 
  98:..\src/utils.c **** //==============================================================================
  99:..\src/utils.c **** //                                                                        MODULE
 100:..\src/utils.c **** //==============================================================================
 101:..\src/utils.c **** 
 102:..\src/utils.c **** uint32 my_mod(int32 val, int32 divisor) {
 407              		.loc 1 102 0
 408              		.cfi_startproc
 409              		@ args = 0, pretend = 0, frame = 8
 410              		@ frame_needed = 1, uses_anonymous_args = 0
 411              		@ link register save eliminated.
ARM GAS  C:\Users\MattiaCP\AppData\Local\Temp\cc5xw3YS.s 			page 10


 412 0000 80B4     		push	{r7}
 413              		.cfi_def_cfa_offset 4
 414              		.cfi_offset 7, -4
 415 0002 83B0     		sub	sp, sp, #12
 416              		.cfi_def_cfa_offset 16
 417 0004 00AF     		add	r7, sp, #0
 418              		.cfi_def_cfa_register 7
 419 0006 7860     		str	r0, [r7, #4]
 420 0008 3960     		str	r1, [r7]
 103:..\src/utils.c **** 
 104:..\src/utils.c ****     if (val >= 0) {
 421              		.loc 1 104 0
 422 000a 7B68     		ldr	r3, [r7, #4]
 423 000c 002B     		cmp	r3, #0
 424 000e 08DB     		blt	.L16
 105:..\src/utils.c ****         return (int32)(val % divisor);
 425              		.loc 1 105 0
 426 0010 7B68     		ldr	r3, [r7, #4]
 427 0012 3A68     		ldr	r2, [r7]
 428 0014 93FBF2F2 		sdiv	r2, r3, r2
 429 0018 3968     		ldr	r1, [r7]
 430 001a 01FB02F2 		mul	r2, r1, r2
 431 001e 9B1A     		subs	r3, r3, r2
 432 0020 11E0     		b	.L17
 433              	.L16:
 106:..\src/utils.c ****     } else {
 107:..\src/utils.c ****         return (int32)((divisor - (-val % divisor)) % divisor);
 434              		.loc 1 107 0
 435 0022 7B68     		ldr	r3, [r7, #4]
 436 0024 5B42     		negs	r3, r3
 437 0026 3A68     		ldr	r2, [r7]
 438 0028 93FBF2F2 		sdiv	r2, r3, r2
 439 002c 3968     		ldr	r1, [r7]
 440 002e 01FB02F2 		mul	r2, r1, r2
 441 0032 9B1A     		subs	r3, r3, r2
 442 0034 3A68     		ldr	r2, [r7]
 443 0036 D31A     		subs	r3, r2, r3
 444 0038 3A68     		ldr	r2, [r7]
 445 003a 93FBF2F2 		sdiv	r2, r3, r2
 446 003e 3968     		ldr	r1, [r7]
 447 0040 01FB02F2 		mul	r2, r1, r2
 448 0044 9B1A     		subs	r3, r3, r2
 449              	.L17:
 108:..\src/utils.c ****     }
 109:..\src/utils.c **** }
 450              		.loc 1 109 0
 451 0046 1846     		mov	r0, r3
 452 0048 0C37     		adds	r7, r7, #12
 453              		.cfi_def_cfa_offset 4
 454 004a BD46     		mov	sp, r7
 455              		.cfi_def_cfa_register 13
 456              		@ sp needed
 457 004c 80BC     		pop	{r7}
 458              		.cfi_restore 7
 459              		.cfi_def_cfa_offset 0
 460 004e 7047     		bx	lr
 461              		.cfi_endproc
ARM GAS  C:\Users\MattiaCP\AppData\Local\Temp\cc5xw3YS.s 			page 11


 462              	.LFE66:
 463              		.size	my_mod, .-my_mod
 464              		.section	.text.calibration,"ax",%progbits
 465              		.align	2
 466              		.global	calibration
 467              		.thumb
 468              		.thumb_func
 469              		.type	calibration, %function
 470              	calibration:
 471              	.LFB67:
 110:..\src/utils.c **** 
 111:..\src/utils.c **** 
 112:..\src/utils.c **** //==============================================================================
 113:..\src/utils.c **** //                                                                     CALIBRATE
 114:..\src/utils.c **** //==============================================================================
 115:..\src/utils.c **** 
 116:..\src/utils.c **** void calibration(void) {
 472              		.loc 1 116 0
 473              		.cfi_startproc
 474              		@ args = 0, pretend = 0, frame = 0
 475              		@ frame_needed = 1, uses_anonymous_args = 0
 476              		@ link register save eliminated.
 477 0000 90B4     		push	{r4, r7}
 478              		.cfi_def_cfa_offset 8
 479              		.cfi_offset 4, -8
 480              		.cfi_offset 7, -4
 481 0002 00AF     		add	r7, sp, #0
 482              		.cfi_def_cfa_register 7
 117:..\src/utils.c ****     static uint8 direction;                 //0 closing, 1 opening.
 118:..\src/utils.c ****     static uint16 closure_counter = 0;          //Range [0 - 2^16].
 119:..\src/utils.c ****     //static CYBIT count_one = 1;             //Used to count only one cycle, when inputs are gener
 120:..\src/utils.c ****                                             //and pass the threshold, having the condition verified
 121:..\src/utils.c **** 
 122:..\src/utils.c ****     // closing
 123:..\src/utils.c ****     if (direction == 0) {
 483              		.loc 1 123 0
 484 0004 2E4B     		ldr	r3, .L23
 485 0006 1B78     		ldrb	r3, [r3]	@ zero_extendqisi2
 486 0008 002B     		cmp	r3, #0
 487 000a 22D1     		bne	.L19
 124:..\src/utils.c ****         g_refNew[0].pos += (calib.speed << g_mem.enc[g_mem.motor[0].encoder_line].res[0]);
 488              		.loc 1 124 0
 489 000c 2D4B     		ldr	r3, .L23+4
 490 000e 1A68     		ldr	r2, [r3]
 491 0010 2D4B     		ldr	r3, .L23+8
 492 0012 B3F90230 		ldrsh	r3, [r3, #2]
 493 0016 1C46     		mov	r4, r3
 494 0018 2C4B     		ldr	r3, .L23+12
 495 001a 93F81031 		ldrb	r3, [r3, #272]	@ zero_extendqisi2
 496 001e 1846     		mov	r0, r3
 497 0020 2A49     		ldr	r1, .L23+12
 498 0022 0346     		mov	r3, r0
 499 0024 5B00     		lsls	r3, r3, #1
 500 0026 0344     		add	r3, r3, r0
 501 0028 1B01     		lsls	r3, r3, #4
 502 002a 0B44     		add	r3, r3, r1
 503 002c 03F29513 		addw	r3, r3, #405
ARM GAS  C:\Users\MattiaCP\AppData\Local\Temp\cc5xw3YS.s 			page 12


 504 0030 1B78     		ldrb	r3, [r3]	@ zero_extendqisi2
 505 0032 04FA03F3 		lsl	r3, r4, r3
 506 0036 1344     		add	r3, r3, r2
 507 0038 224A     		ldr	r2, .L23+4
 508 003a 1360     		str	r3, [r2]
 125:..\src/utils.c ****         
 126:..\src/utils.c ****         if ((g_refNew[0].pos) > g_mem.motor[0].pos_lim_sup) {
 509              		.loc 1 126 0
 510 003c 214B     		ldr	r3, .L23+4
 511 003e 1A68     		ldr	r2, [r3]
 512 0040 224B     		ldr	r3, .L23+12
 513 0042 D3F8E830 		ldr	r3, [r3, #232]
 514 0046 9A42     		cmp	r2, r3
 515 0048 36DD     		ble	.L22
 127:..\src/utils.c ****             direction = 1;
 516              		.loc 1 127 0
 517 004a 1D4B     		ldr	r3, .L23
 518 004c 0122     		movs	r2, #1
 519 004e 1A70     		strb	r2, [r3]
 128:..\src/utils.c ****         }
 129:..\src/utils.c ****     } else { //opening
 130:..\src/utils.c ****         g_refNew[0].pos -= (calib.speed << g_mem.enc[g_mem.motor[0].encoder_line].res[0]);
 131:..\src/utils.c ****         if (SIGN(g_refNew[0].pos) != 1) {
 132:..\src/utils.c ****             direction = 0;
 133:..\src/utils.c ****             closure_counter++;
 134:..\src/utils.c **** //            count_one = 1;          // Enables back the cycles counter
 135:..\src/utils.c ****             if (closure_counter == calib.repetitions) {
 136:..\src/utils.c ****                 closure_counter = 0;
 137:..\src/utils.c ****                 calib.enabled = FALSE;
 138:..\src/utils.c ****             }
 139:..\src/utils.c ****         }
 140:..\src/utils.c ****     }
 141:..\src/utils.c **** }
 520              		.loc 1 141 0
 521 0050 32E0     		b	.L22
 522              	.L19:
 130:..\src/utils.c ****         if (SIGN(g_refNew[0].pos) != 1) {
 523              		.loc 1 130 0
 524 0052 1C4B     		ldr	r3, .L23+4
 525 0054 1A68     		ldr	r2, [r3]
 526 0056 1C4B     		ldr	r3, .L23+8
 527 0058 B3F90230 		ldrsh	r3, [r3, #2]
 528 005c 1C46     		mov	r4, r3
 529 005e 1B4B     		ldr	r3, .L23+12
 530 0060 93F81031 		ldrb	r3, [r3, #272]	@ zero_extendqisi2
 531 0064 1846     		mov	r0, r3
 532 0066 1949     		ldr	r1, .L23+12
 533 0068 0346     		mov	r3, r0
 534 006a 5B00     		lsls	r3, r3, #1
 535 006c 0344     		add	r3, r3, r0
 536 006e 1B01     		lsls	r3, r3, #4
 537 0070 0B44     		add	r3, r3, r1
 538 0072 03F29513 		addw	r3, r3, #405
 539 0076 1B78     		ldrb	r3, [r3]	@ zero_extendqisi2
 540 0078 04FA03F3 		lsl	r3, r4, r3
 541 007c D31A     		subs	r3, r2, r3
 542 007e 114A     		ldr	r2, .L23+4
ARM GAS  C:\Users\MattiaCP\AppData\Local\Temp\cc5xw3YS.s 			page 13


 543 0080 1360     		str	r3, [r2]
 131:..\src/utils.c ****             direction = 0;
 544              		.loc 1 131 0
 545 0082 104B     		ldr	r3, .L23+4
 546 0084 1B68     		ldr	r3, [r3]
 547 0086 002B     		cmp	r3, #0
 548 0088 16DA     		bge	.L22
 132:..\src/utils.c ****             closure_counter++;
 549              		.loc 1 132 0
 550 008a 0D4B     		ldr	r3, .L23
 551 008c 0022     		movs	r2, #0
 552 008e 1A70     		strb	r2, [r3]
 133:..\src/utils.c **** //            count_one = 1;          // Enables back the cycles counter
 553              		.loc 1 133 0
 554 0090 0F4B     		ldr	r3, .L23+16
 555 0092 1B88     		ldrh	r3, [r3]
 556 0094 0133     		adds	r3, r3, #1
 557 0096 9AB2     		uxth	r2, r3
 558 0098 0D4B     		ldr	r3, .L23+16
 559 009a 1A80     		strh	r2, [r3]	@ movhi
 135:..\src/utils.c ****                 closure_counter = 0;
 560              		.loc 1 135 0
 561 009c 0C4B     		ldr	r3, .L23+16
 562 009e 1B88     		ldrh	r3, [r3]
 563 00a0 1A46     		mov	r2, r3
 564 00a2 094B     		ldr	r3, .L23+8
 565 00a4 B3F90430 		ldrsh	r3, [r3, #4]
 566 00a8 9A42     		cmp	r2, r3
 567 00aa 05D1     		bne	.L22
 136:..\src/utils.c ****                 calib.enabled = FALSE;
 568              		.loc 1 136 0
 569 00ac 084B     		ldr	r3, .L23+16
 570 00ae 0022     		movs	r2, #0
 571 00b0 1A80     		strh	r2, [r3]	@ movhi
 137:..\src/utils.c ****             }
 572              		.loc 1 137 0
 573 00b2 054B     		ldr	r3, .L23+8
 574 00b4 0022     		movs	r2, #0
 575 00b6 1A70     		strb	r2, [r3]
 576              	.L22:
 577              		.loc 1 141 0
 578 00b8 00BF     		nop
 579 00ba BD46     		mov	sp, r7
 580              		.cfi_def_cfa_register 13
 581              		@ sp needed
 582 00bc 90BC     		pop	{r4, r7}
 583              		.cfi_restore 7
 584              		.cfi_restore 4
 585              		.cfi_def_cfa_offset 0
 586 00be 7047     		bx	lr
 587              	.L24:
 588              		.align	2
 589              	.L23:
 590 00c0 10000000 		.word	direction.10145
 591 00c4 00000000 		.word	g_refNew
 592 00c8 00000000 		.word	calib
 593 00cc 00000000 		.word	g_mem
ARM GAS  C:\Users\MattiaCP\AppData\Local\Temp\cc5xw3YS.s 			page 14


 594 00d0 12000000 		.word	closure_counter.10146
 595              		.cfi_endproc
 596              	.LFE67:
 597              		.size	calibration, .-calibration
 598              		.section	.text.calc_turns_fcn,"ax",%progbits
 599              		.align	2
 600              		.global	calc_turns_fcn
 601              		.thumb
 602              		.thumb_func
 603              		.type	calc_turns_fcn, %function
 604              	calc_turns_fcn:
 605              	.LFB68:
 142:..\src/utils.c **** 
 143:..\src/utils.c **** 
 144:..\src/utils.c **** //==============================================================================
 145:..\src/utils.c **** //                                                      DOUBLE ENCODER CALC TURN
 146:..\src/utils.c **** //==============================================================================
 147:..\src/utils.c **** 
 148:..\src/utils.c **** // Use this matlab function to calculate I1 and I2
 149:..\src/utils.c **** //
 150:..\src/utils.c **** // function [inv_a, inv_b] = mod_mul_inv(a, b)
 151:..\src/utils.c **** //     a = int32(a);
 152:..\src/utils.c **** //     b = int32(b);
 153:..\src/utils.c **** //     if b == 0
 154:..\src/utils.c **** //         inv_a = 1;
 155:..\src/utils.c **** //         inv_b = 0;
 156:..\src/utils.c **** //         return
 157:..\src/utils.c **** //     else
 158:..\src/utils.c **** //         q = idivide(a,b,'floor');
 159:..\src/utils.c **** //         r = mod(a,b);
 160:..\src/utils.c **** //         [s, t] = mod_mul_inv(b, r);
 161:..\src/utils.c **** //     end
 162:..\src/utils.c **** //     inv_a = t;
 163:..\src/utils.c **** //     inv_b = s - q * t;
 164:..\src/utils.c **** // return
 165:..\src/utils.c **** 
 166:..\src/utils.c **** // Number of teeth of the two wheels
 167:..\src/utils.c **** #define N1 35           ///< Teeth of the first encoder wheel.
 168:..\src/utils.c **** #define N2 3            ///< Teeth of the second encoder wheel.
 169:..\src/utils.c **** 
 170:..\src/utils.c **** #define I1 -1           ///< First wheel invariant value.
 171:..\src/utils.c **** //#define I2 12         ///< Second wheel invariant value.
 172:..\src/utils.c **** 
 173:..\src/utils.c **** // Number of ticks per turn
 174:..\src/utils.c **** #define M 65536          ///< Number of encoder ticks per turn.
 175:..\src/utils.c **** 
 176:..\src/utils.c **** 
 177:..\src/utils.c **** int calc_turns_fcn(const int32 pos1, const int32 pos2) { 
 606              		.loc 1 177 0
 607              		.cfi_startproc
 608              		@ args = 0, pretend = 0, frame = 16
 609              		@ frame_needed = 1, uses_anonymous_args = 0
 610 0000 80B5     		push	{r7, lr}
 611              		.cfi_def_cfa_offset 8
 612              		.cfi_offset 7, -8
 613              		.cfi_offset 14, -4
 614 0002 84B0     		sub	sp, sp, #16
ARM GAS  C:\Users\MattiaCP\AppData\Local\Temp\cc5xw3YS.s 			page 15


 615              		.cfi_def_cfa_offset 24
 616 0004 00AF     		add	r7, sp, #0
 617              		.cfi_def_cfa_register 7
 618 0006 7860     		str	r0, [r7, #4]
 619 0008 3960     		str	r1, [r7]
 178:..\src/utils.c ****     
 179:..\src/utils.c ****     int32 x;
 180:..\src/utils.c ****     int32 aux;
 181:..\src/utils.c ****     
 182:..\src/utils.c ****     switch (c_mem.dev.right_left){
 620              		.loc 1 182 0
 621 000a 284B     		ldr	r3, .L32
 622 000c 93F8A730 		ldrb	r3, [r3, #167]	@ zero_extendqisi2
 623 0010 002B     		cmp	r3, #0
 624 0012 02D0     		beq	.L27
 625 0014 012B     		cmp	r3, #1
 626 0016 26D0     		beq	.L28
 627 0018 43E0     		b	.L26
 628              	.L27:
 183:..\src/utils.c ****         case RIGHT_HAND:
 184:..\src/utils.c ****             x = (my_mod( - N2*(pos2) - N1*pos1, M*N2) + M/2) / M;
 629              		.loc 1 184 0
 630 001a 3B68     		ldr	r3, [r7]
 631 001c 1A46     		mov	r2, r3
 632 001e 9B00     		lsls	r3, r3, #2
 633 0020 D21A     		subs	r2, r2, r3
 634 0022 7B68     		ldr	r3, [r7, #4]
 635 0024 6FF02201 		mvn	r1, #34
 636 0028 01FB03F3 		mul	r3, r1, r3
 637 002c 1344     		add	r3, r3, r2
 638 002e 4FF44031 		mov	r1, #196608
 639 0032 1846     		mov	r0, r3
 640 0034 FFF7FEFF 		bl	my_mod
 641 0038 0346     		mov	r3, r0
 642 003a 03F50043 		add	r3, r3, #32768
 643 003e 1B0C     		lsrs	r3, r3, #16
 644 0040 BB60     		str	r3, [r7, #8]
 185:..\src/utils.c ****             
 186:..\src/utils.c ****             aux = my_mod(x*I1, N2);       // Module between x*I1 and N2.
 645              		.loc 1 186 0
 646 0042 BB68     		ldr	r3, [r7, #8]
 647 0044 5B42     		negs	r3, r3
 648 0046 0321     		movs	r1, #3
 649 0048 1846     		mov	r0, r3
 650 004a FFF7FEFF 		bl	my_mod
 651 004e 0346     		mov	r3, r0
 652 0050 FB60     		str	r3, [r7, #12]
 187:..\src/utils.c ****             
 188:..\src/utils.c ****             // Wrap turns
 189:..\src/utils.c ****             aux -= N2;      //N2 (teeth of the second encoder wheel)
 653              		.loc 1 189 0
 654 0052 FB68     		ldr	r3, [r7, #12]
 655 0054 033B     		subs	r3, r3, #3
 656 0056 FB60     		str	r3, [r7, #12]
 190:..\src/utils.c ****             if (aux == -N2){
 657              		.loc 1 190 0
 658 0058 FB68     		ldr	r3, [r7, #12]
ARM GAS  C:\Users\MattiaCP\AppData\Local\Temp\cc5xw3YS.s 			page 16


 659 005a 13F1030F 		cmn	r3, #3
 660 005e 1FD1     		bne	.L31
 191:..\src/utils.c ****                 aux = 0;
 661              		.loc 1 191 0
 662 0060 0023     		movs	r3, #0
 663 0062 FB60     		str	r3, [r7, #12]
 192:..\src/utils.c ****             }
 193:..\src/utils.c ****             
 194:..\src/utils.c ****             break;
 664              		.loc 1 194 0
 665 0064 1CE0     		b	.L31
 666              	.L28:
 195:..\src/utils.c ****         case LEFT_HAND:
 196:..\src/utils.c ****             x = (my_mod( - N2*(-pos2) - N1*pos1, M*N2) + M/2) / M;
 667              		.loc 1 196 0
 668 0066 3A68     		ldr	r2, [r7]
 669 0068 1346     		mov	r3, r2
 670 006a 5B00     		lsls	r3, r3, #1
 671 006c 1A44     		add	r2, r2, r3
 672 006e 7B68     		ldr	r3, [r7, #4]
 673 0070 6FF02201 		mvn	r1, #34
 674 0074 01FB03F3 		mul	r3, r1, r3
 675 0078 1344     		add	r3, r3, r2
 676 007a 4FF44031 		mov	r1, #196608
 677 007e 1846     		mov	r0, r3
 678 0080 FFF7FEFF 		bl	my_mod
 679 0084 0346     		mov	r3, r0
 680 0086 03F50043 		add	r3, r3, #32768
 681 008a 1B0C     		lsrs	r3, r3, #16
 682 008c BB60     		str	r3, [r7, #8]
 197:..\src/utils.c ****             
 198:..\src/utils.c ****             aux = my_mod(x*I1, N2);       // Module between x*I1 and N2.
 683              		.loc 1 198 0
 684 008e BB68     		ldr	r3, [r7, #8]
 685 0090 5B42     		negs	r3, r3
 686 0092 0321     		movs	r1, #3
 687 0094 1846     		mov	r0, r3
 688 0096 FFF7FEFF 		bl	my_mod
 689 009a 0346     		mov	r3, r0
 690 009c FB60     		str	r3, [r7, #12]
 199:..\src/utils.c ****             
 200:..\src/utils.c ****             break;
 691              		.loc 1 200 0
 692 009e 00E0     		b	.L26
 693              	.L31:
 194:..\src/utils.c ****         case LEFT_HAND:
 694              		.loc 1 194 0
 695 00a0 00BF     		nop
 696              	.L26:
 201:..\src/utils.c ****     }
 202:..\src/utils.c ****   
 203:..\src/utils.c ****     // SoftHand Pro firmware turns computation does not have to take into account turns shift like 
 204:..\src/utils.c ****     return aux; 
 697              		.loc 1 204 0
 698 00a2 FB68     		ldr	r3, [r7, #12]
 205:..\src/utils.c **** 
 206:..\src/utils.c **** }
ARM GAS  C:\Users\MattiaCP\AppData\Local\Temp\cc5xw3YS.s 			page 17


 699              		.loc 1 206 0
 700 00a4 1846     		mov	r0, r3
 701 00a6 1037     		adds	r7, r7, #16
 702              		.cfi_def_cfa_offset 8
 703 00a8 BD46     		mov	sp, r7
 704              		.cfi_def_cfa_register 13
 705              		@ sp needed
 706 00aa 80BD     		pop	{r7, pc}
 707              	.L33:
 708              		.align	2
 709              	.L32:
 710 00ac 00000000 		.word	c_mem
 711              		.cfi_endproc
 712              	.LFE68:
 713              		.size	calc_turns_fcn, .-calc_turns_fcn
 714              		.section	.text.check_rest_position,"ax",%progbits
 715              		.align	2
 716              		.global	check_rest_position
 717              		.thumb
 718              		.thumb_func
 719              		.type	check_rest_position, %function
 720              	check_rest_position:
 721              	.LFB69:
 207:..\src/utils.c **** 
 208:..\src/utils.c **** //==============================================================================
 209:..\src/utils.c **** //                                                                 REST POSITION
 210:..\src/utils.c **** //==============================================================================
 211:..\src/utils.c **** #ifdef SOFTHAND_FW
 212:..\src/utils.c **** void check_rest_position(void) {     // 100 Hz frequency.
 722              		.loc 1 212 0
 723              		.cfi_startproc
 724              		@ args = 0, pretend = 0, frame = 8
 725              		@ frame_needed = 1, uses_anonymous_args = 0
 726 0000 90B5     		push	{r4, r7, lr}
 727              		.cfi_def_cfa_offset 12
 728              		.cfi_offset 4, -12
 729              		.cfi_offset 7, -8
 730              		.cfi_offset 14, -4
 731 0002 83B0     		sub	sp, sp, #12
 732              		.cfi_def_cfa_offset 24
 733 0004 00AF     		add	r7, sp, #0
 734              		.cfi_def_cfa_register 7
 213:..\src/utils.c ****     
 214:..\src/utils.c ****     static uint32 count = 0;        // Range [0 - 2^31].
 215:..\src/utils.c ****     static uint8 flag_count = 1;
 216:..\src/utils.c ****     static uint8 first_time = 1;
 217:..\src/utils.c ****     static float m = 0;
 218:..\src/utils.c ****     static int32 abs_err_thr = 0;
 219:..\src/utils.c ****     static int32 delta_inc = 0;
 220:..\src/utils.c ****     int32 curr_pos = 0;
 735              		.loc 1 220 0
 736 0006 0023     		movs	r3, #0
 737 0008 7B60     		str	r3, [r7, #4]
 221:..\src/utils.c ****     static int32 rest_error;
 222:..\src/utils.c ****     float rest_vel_ticks_ms = ((float)g_mem.SH.rest_vel)/1000.0;    //[ticks/s] -> [ticks/ms]
 738              		.loc 1 222 0
 739 000a 8F4B     		ldr	r3, .L47
ARM GAS  C:\Users\MattiaCP\AppData\Local\Temp\cc5xw3YS.s 			page 18


 740 000c D3F84832 		ldr	r3, [r3, #584]
 741 0010 1846     		mov	r0, r3
 742 0012 FFF7FEFF 		bl	__aeabi_i2f
 743 0016 0346     		mov	r3, r0
 744 0018 8C49     		ldr	r1, .L47+4
 745 001a 1846     		mov	r0, r3
 746 001c FFF7FEFF 		bl	__aeabi_fdiv
 747 0020 0346     		mov	r3, r0
 748 0022 3B60     		str	r3, [r7]	@ float
 223:..\src/utils.c ****     
 224:..\src/utils.c ****     if (first_time){
 749              		.loc 1 224 0
 750 0024 8A4B     		ldr	r3, .L47+8
 751 0026 1B78     		ldrb	r3, [r3]	@ zero_extendqisi2
 752 0028 002B     		cmp	r3, #0
 753 002a 05D0     		beq	.L35
 225:..\src/utils.c ****         count = 0;
 754              		.loc 1 225 0
 755 002c 894B     		ldr	r3, .L47+12
 756 002e 0022     		movs	r2, #0
 757 0030 1A60     		str	r2, [r3]
 226:..\src/utils.c ****         first_time = 0;
 758              		.loc 1 226 0
 759 0032 874B     		ldr	r3, .L47+8
 760 0034 0022     		movs	r2, #0
 761 0036 1A70     		strb	r2, [r3]
 762              	.L35:
 227:..\src/utils.c ****     }
 228:..\src/utils.c ****     
 229:..\src/utils.c ****     curr_pos = (int32)(g_meas[g_mem.motor[0].encoder_line].pos[0] >> g_mem.enc[g_mem.motor[0].encod
 763              		.loc 1 229 0
 764 0038 834B     		ldr	r3, .L47
 765 003a 93F81031 		ldrb	r3, [r3, #272]	@ zero_extendqisi2
 766 003e 1946     		mov	r1, r3
 767 0040 854A     		ldr	r2, .L47+16
 768 0042 0B46     		mov	r3, r1
 769 0044 5B00     		lsls	r3, r3, #1
 770 0046 0B44     		add	r3, r3, r1
 771 0048 1B01     		lsls	r3, r3, #4
 772 004a 1344     		add	r3, r3, r2
 773 004c 1A68     		ldr	r2, [r3]
 774 004e 7E4B     		ldr	r3, .L47
 775 0050 93F81031 		ldrb	r3, [r3, #272]	@ zero_extendqisi2
 776 0054 1846     		mov	r0, r3
 777 0056 7C49     		ldr	r1, .L47
 778 0058 0346     		mov	r3, r0
 779 005a 5B00     		lsls	r3, r3, #1
 780 005c 0344     		add	r3, r3, r0
 781 005e 1B01     		lsls	r3, r3, #4
 782 0060 0B44     		add	r3, r3, r1
 783 0062 03F29513 		addw	r3, r3, #405
 784 0066 1B78     		ldrb	r3, [r3]	@ zero_extendqisi2
 785 0068 42FA03F3 		asr	r3, r2, r3
 786 006c 7B60     		str	r3, [r7, #4]
 230:..\src/utils.c ****     
 231:..\src/utils.c ****     if ( ( (c_mem.motor[0].input_mode >= 2 && g_emg_meas.emg[0] < 200 && g_emg_meas.emg[1] < 200) )
 787              		.loc 1 231 0
ARM GAS  C:\Users\MattiaCP\AppData\Local\Temp\cc5xw3YS.s 			page 19


 788 006e 7B4B     		ldr	r3, .L47+20
 789 0070 93F80E31 		ldrb	r3, [r3, #270]	@ zero_extendqisi2
 790 0074 012B     		cmp	r3, #1
 791 0076 16D9     		bls	.L36
 792              		.loc 1 231 0 is_stmt 0 discriminator 1
 793 0078 794B     		ldr	r3, .L47+24
 794 007a 1B68     		ldr	r3, [r3]
 795 007c C72B     		cmp	r3, #199
 796 007e 12DC     		bgt	.L36
 797              		.loc 1 231 0 discriminator 2
 798 0080 774B     		ldr	r3, .L47+24
 799 0082 5B68     		ldr	r3, [r3, #4]
 800 0084 C72B     		cmp	r3, #199
 801 0086 0EDC     		bgt	.L36
 802              		.loc 1 231 0 discriminator 3
 803 0088 7B68     		ldr	r3, [r7, #4]
 804 008a 42F20F72 		movw	r2, #9999
 805 008e 9342     		cmp	r3, r2
 806 0090 09DC     		bgt	.L36
 232:..\src/utils.c ****         if (flag_count == 1){
 807              		.loc 1 232 0 is_stmt 1
 808 0092 744B     		ldr	r3, .L47+28
 809 0094 1B78     		ldrb	r3, [r3]	@ zero_extendqisi2
 810 0096 012B     		cmp	r3, #1
 811 0098 0ED1     		bne	.L38
 233:..\src/utils.c ****             count = count + 1;
 812              		.loc 1 233 0
 813 009a 6E4B     		ldr	r3, .L47+12
 814 009c 1B68     		ldr	r3, [r3]
 815 009e 0133     		adds	r3, r3, #1
 816 00a0 6C4A     		ldr	r2, .L47+12
 817 00a2 1360     		str	r3, [r2]
 232:..\src/utils.c ****         if (flag_count == 1){
 818              		.loc 1 232 0
 819 00a4 08E0     		b	.L38
 820              	.L36:
 234:..\src/utils.c ****         }
 235:..\src/utils.c ****     }
 236:..\src/utils.c ****     else {
 237:..\src/utils.c ****         count = 0;
 821              		.loc 1 237 0
 822 00a6 6B4B     		ldr	r3, .L47+12
 823 00a8 0022     		movs	r2, #0
 824 00aa 1A60     		str	r2, [r3]
 238:..\src/utils.c ****         rest_enabled = 0;
 825              		.loc 1 238 0
 826 00ac 6E4B     		ldr	r3, .L47+32
 827 00ae 0022     		movs	r2, #0
 828 00b0 1A70     		strb	r2, [r3]
 239:..\src/utils.c ****         flag_count = 1;
 829              		.loc 1 239 0
 830 00b2 6C4B     		ldr	r3, .L47+28
 831 00b4 0122     		movs	r2, #1
 832 00b6 1A70     		strb	r2, [r3]
 833              	.L38:
 240:..\src/utils.c ****     }
 241:..\src/utils.c ****   
ARM GAS  C:\Users\MattiaCP\AppData\Local\Temp\cc5xw3YS.s 			page 20


 242:..\src/utils.c ****     /********** Velocity closure procedure *************
 243:..\src/utils.c ****     * m = error/time
 244:..\src/utils.c ****     * m = (g_mem.rest_pos - init_pos)/time
 245:..\src/utils.c ****     * time = g_mem.rest_pos/rest_vel_ticks_ms (rest_vel_ticks_ms is in [ticks/ms])
 246:..\src/utils.c ****     ***************************************************/
 247:..\src/utils.c **** 
 248:..\src/utils.c ****     if (count == (uint32)(g_mem.SH.rest_delay/CALIBRATION_DIV)){ 
 834              		.loc 1 248 0
 835 00b8 634B     		ldr	r3, .L47
 836 00ba D3F84432 		ldr	r3, [r3, #580]
 837 00be 6B4A     		ldr	r2, .L47+36
 838 00c0 82FB0312 		smull	r1, r2, r2, r3
 839 00c4 9210     		asrs	r2, r2, #2
 840 00c6 DB17     		asrs	r3, r3, #31
 841 00c8 D31A     		subs	r3, r2, r3
 842 00ca 1A46     		mov	r2, r3
 843 00cc 614B     		ldr	r3, .L47+12
 844 00ce 1B68     		ldr	r3, [r3]
 845 00d0 9A42     		cmp	r2, r3
 846 00d2 40F09780 		bne	.L39
 249:..\src/utils.c ****         // This routine is executed every 10 firmware cycles -> g_mem.rest_delay must be major than
 250:..\src/utils.c ****         rest_enabled = 1;
 847              		.loc 1 250 0
 848 00d6 644B     		ldr	r3, .L47+32
 849 00d8 0122     		movs	r2, #1
 850 00da 1A70     		strb	r2, [r3]
 251:..\src/utils.c ****         rest_pos_curr_ref = g_meas[g_mem.motor[0].encoder_line].pos[0];
 851              		.loc 1 251 0
 852 00dc 5A4B     		ldr	r3, .L47
 853 00de 93F81031 		ldrb	r3, [r3, #272]	@ zero_extendqisi2
 854 00e2 1946     		mov	r1, r3
 855 00e4 5C4A     		ldr	r2, .L47+16
 856 00e6 0B46     		mov	r3, r1
 857 00e8 5B00     		lsls	r3, r3, #1
 858 00ea 0B44     		add	r3, r3, r1
 859 00ec 1B01     		lsls	r3, r3, #4
 860 00ee 1344     		add	r3, r3, r2
 861 00f0 1B68     		ldr	r3, [r3]
 862 00f2 5F4A     		ldr	r2, .L47+40
 863 00f4 1360     		str	r3, [r2]
 252:..\src/utils.c ****         
 253:..\src/utils.c ****         // Ramp angular coefficient
 254:..\src/utils.c ****         m = ((float)(g_mem.SH.rest_pos - g_meas[g_mem.motor[0].encoder_line].pos[0])/((float)g_mem.
 864              		.loc 1 254 0
 865 00f6 544B     		ldr	r3, .L47
 866 00f8 D3F84022 		ldr	r2, [r3, #576]
 867 00fc 524B     		ldr	r3, .L47
 868 00fe 93F81031 		ldrb	r3, [r3, #272]	@ zero_extendqisi2
 869 0102 1846     		mov	r0, r3
 870 0104 5449     		ldr	r1, .L47+16
 871 0106 0346     		mov	r3, r0
 872 0108 5B00     		lsls	r3, r3, #1
 873 010a 0344     		add	r3, r3, r0
 874 010c 1B01     		lsls	r3, r3, #4
 875 010e 0B44     		add	r3, r3, r1
 876 0110 1B68     		ldr	r3, [r3]
 877 0112 D31A     		subs	r3, r2, r3
ARM GAS  C:\Users\MattiaCP\AppData\Local\Temp\cc5xw3YS.s 			page 21


 878 0114 1846     		mov	r0, r3
 879 0116 FFF7FEFF 		bl	__aeabi_i2f
 880 011a 0446     		mov	r4, r0
 881 011c 4A4B     		ldr	r3, .L47
 882 011e D3F84032 		ldr	r3, [r3, #576]
 883 0122 1846     		mov	r0, r3
 884 0124 FFF7FEFF 		bl	__aeabi_i2f
 885 0128 0346     		mov	r3, r0
 886 012a 1946     		mov	r1, r3
 887 012c 2046     		mov	r0, r4
 888 012e FFF7FEFF 		bl	__aeabi_fdiv
 889 0132 0346     		mov	r3, r0
 890 0134 3968     		ldr	r1, [r7]	@ float
 891 0136 1846     		mov	r0, r3
 892 0138 FFF7FEFF 		bl	__aeabi_fmul
 893 013c 0346     		mov	r3, r0
 894 013e 1A46     		mov	r2, r3
 895 0140 4C4B     		ldr	r3, .L47+44
 896 0142 1A60     		str	r2, [r3]	@ float
 255:..\src/utils.c ****         
 256:..\src/utils.c ****         // Stop condition threshold is related to m coefficient by REST_RATIO value
 257:..\src/utils.c ****         abs_err_thr = (int32)( (int32)(((float)REST_POS_ERR_THR_GAIN)*m*((float)CALIBRATION_DIV)) <
 897              		.loc 1 257 0
 898 0144 4B4B     		ldr	r3, .L47+44
 899 0146 1B68     		ldr	r3, [r3]	@ float
 900 0148 4B49     		ldr	r1, .L47+48
 901 014a 1846     		mov	r0, r3
 902 014c FFF7FEFF 		bl	__aeabi_fmul
 903 0150 0346     		mov	r3, r0
 904 0152 4949     		ldr	r1, .L47+48
 905 0154 1846     		mov	r0, r3
 906 0156 FFF7FEFF 		bl	__aeabi_fmul
 907 015a 0346     		mov	r3, r0
 908 015c 1846     		mov	r0, r3
 909 015e FFF7FEFF 		bl	__aeabi_f2iz
 910 0162 394B     		ldr	r3, .L47
 911 0164 93F81031 		ldrb	r3, [r3, #272]	@ zero_extendqisi2
 912 0168 1946     		mov	r1, r3
 913 016a 374A     		ldr	r2, .L47
 914 016c 0B46     		mov	r3, r1
 915 016e 5B00     		lsls	r3, r3, #1
 916 0170 0B44     		add	r3, r3, r1
 917 0172 1B01     		lsls	r3, r3, #4
 918 0174 1344     		add	r3, r3, r2
 919 0176 03F29513 		addw	r3, r3, #405
 920 017a 1B78     		ldrb	r3, [r3]	@ zero_extendqisi2
 921 017c 00FA03F3 		lsl	r3, r0, r3
 922 0180 3E4A     		ldr	r2, .L47+52
 923 0182 1360     		str	r3, [r2]
 258:..\src/utils.c ****         abs_err_thr = (abs_err_thr>0)?abs_err_thr:(0-abs_err_thr);
 924              		.loc 1 258 0
 925 0184 3D4B     		ldr	r3, .L47+52
 926 0186 1B68     		ldr	r3, [r3]
 927 0188 002B     		cmp	r3, #0
 928 018a B8BF     		it	lt
 929 018c 5B42     		rsblt	r3, r3, #0
 930 018e 3B4A     		ldr	r2, .L47+52
ARM GAS  C:\Users\MattiaCP\AppData\Local\Temp\cc5xw3YS.s 			page 22


 931 0190 1360     		str	r3, [r2]
 259:..\src/utils.c ****         
 260:..\src/utils.c ****         rest_error = g_mem.SH.rest_pos - g_meas[g_mem.motor[0].encoder_line].pos[0];    
 932              		.loc 1 260 0
 933 0192 2D4B     		ldr	r3, .L47
 934 0194 D3F84022 		ldr	r2, [r3, #576]
 935 0198 2B4B     		ldr	r3, .L47
 936 019a 93F81031 		ldrb	r3, [r3, #272]	@ zero_extendqisi2
 937 019e 1846     		mov	r0, r3
 938 01a0 2D49     		ldr	r1, .L47+16
 939 01a2 0346     		mov	r3, r0
 940 01a4 5B00     		lsls	r3, r3, #1
 941 01a6 0344     		add	r3, r3, r0
 942 01a8 1B01     		lsls	r3, r3, #4
 943 01aa 0B44     		add	r3, r3, r1
 944 01ac 1B68     		ldr	r3, [r3]
 945 01ae D31A     		subs	r3, r2, r3
 946 01b0 334A     		ldr	r2, .L47+56
 947 01b2 1360     		str	r3, [r2]
 261:..\src/utils.c ****         
 262:..\src/utils.c ****         delta_inc = (int32)( ((int32)(m*(float)CALIBRATION_DIV)) << g_mem.enc[g_mem.motor[0].encode
 948              		.loc 1 262 0
 949 01b4 2F4B     		ldr	r3, .L47+44
 950 01b6 1B68     		ldr	r3, [r3]	@ float
 951 01b8 2F49     		ldr	r1, .L47+48
 952 01ba 1846     		mov	r0, r3
 953 01bc FFF7FEFF 		bl	__aeabi_fmul
 954 01c0 0346     		mov	r3, r0
 955 01c2 1846     		mov	r0, r3
 956 01c4 FFF7FEFF 		bl	__aeabi_f2iz
 957 01c8 1F4B     		ldr	r3, .L47
 958 01ca 93F81031 		ldrb	r3, [r3, #272]	@ zero_extendqisi2
 959 01ce 1946     		mov	r1, r3
 960 01d0 1D4A     		ldr	r2, .L47
 961 01d2 0B46     		mov	r3, r1
 962 01d4 5B00     		lsls	r3, r3, #1
 963 01d6 0B44     		add	r3, r3, r1
 964 01d8 1B01     		lsls	r3, r3, #4
 965 01da 1344     		add	r3, r3, r2
 966 01dc 03F29513 		addw	r3, r3, #405
 967 01e0 1B78     		ldrb	r3, [r3]	@ zero_extendqisi2
 968 01e2 00FA03F3 		lsl	r3, r0, r3
 969 01e6 274A     		ldr	r2, .L47+60
 970 01e8 1360     		str	r3, [r2]
 263:..\src/utils.c ****         delta_inc = (delta_inc>0)?delta_inc:(0-delta_inc);
 971              		.loc 1 263 0
 972 01ea 264B     		ldr	r3, .L47+60
 973 01ec 1B68     		ldr	r3, [r3]
 974 01ee 002B     		cmp	r3, #0
 975 01f0 B8BF     		it	lt
 976 01f2 5B42     		rsblt	r3, r3, #0
 977 01f4 234A     		ldr	r2, .L47+60
 978 01f6 1360     		str	r3, [r2]
 264:..\src/utils.c ****         
 265:..\src/utils.c ****         count = 0;
 979              		.loc 1 265 0
 980 01f8 164B     		ldr	r3, .L47+12
ARM GAS  C:\Users\MattiaCP\AppData\Local\Temp\cc5xw3YS.s 			page 23


 981 01fa 0022     		movs	r2, #0
 982 01fc 1A60     		str	r2, [r3]
 266:..\src/utils.c ****         flag_count = 0;
 983              		.loc 1 266 0
 984 01fe 194B     		ldr	r3, .L47+28
 985 0200 0022     		movs	r2, #0
 986 0202 1A70     		strb	r2, [r3]
 987              	.L39:
 267:..\src/utils.c ****     }
 268:..\src/utils.c ****     
 269:..\src/utils.c ****     if (rest_enabled){
 988              		.loc 1 269 0
 989 0204 184B     		ldr	r3, .L47+32
 990 0206 1B78     		ldrb	r3, [r3]	@ zero_extendqisi2
 991 0208 002B     		cmp	r3, #0
 992 020a 66D0     		beq	.L40
 270:..\src/utils.c **** 
 271:..\src/utils.c ****         if (rest_error < abs_err_thr && rest_error > -abs_err_thr){
 993              		.loc 1 271 0
 994 020c 1C4B     		ldr	r3, .L47+56
 995 020e 1A68     		ldr	r2, [r3]
 996 0210 1A4B     		ldr	r3, .L47+52
 997 0212 1B68     		ldr	r3, [r3]
 998 0214 9A42     		cmp	r2, r3
 999 0216 39DA     		bge	.L41
 1000              		.loc 1 271 0 is_stmt 0 discriminator 1
 1001 0218 184B     		ldr	r3, .L47+52
 1002 021a 1B68     		ldr	r3, [r3]
 1003 021c 5A42     		negs	r2, r3
 1004 021e 184B     		ldr	r3, .L47+56
 1005 0220 1B68     		ldr	r3, [r3]
 1006 0222 9A42     		cmp	r2, r3
 1007 0224 32DA     		bge	.L41
 272:..\src/utils.c ****             // Stop condition
 273:..\src/utils.c ****             rest_pos_curr_ref = g_mem.SH.rest_pos;
 1008              		.loc 1 273 0 is_stmt 1
 1009 0226 084B     		ldr	r3, .L47
 1010 0228 D3F84032 		ldr	r3, [r3, #576]
 1011 022c 104A     		ldr	r2, .L47+40
 1012 022e 1360     		str	r3, [r2]
 274:..\src/utils.c ****             
 275:..\src/utils.c ****             if (c_mem.motor[0].input_mode >= 2)   // EMG input mode
 1013              		.loc 1 275 0
 1014 0230 0A4B     		ldr	r3, .L47+20
 1015 0232 93F80E31 		ldrb	r3, [r3, #270]	@ zero_extendqisi2
 1016 0236 012B     		cmp	r3, #1
 1017 0238 02D9     		bls	.L42
 276:..\src/utils.c ****                 forced_open = 1; 
 1018              		.loc 1 276 0
 1019 023a 134B     		ldr	r3, .L47+64
 1020 023c 0122     		movs	r2, #1
 1021 023e 1A70     		strb	r2, [r3]
 1022              	.L42:
 277:..\src/utils.c ****             
 278:..\src/utils.c ****             count = 0;
 1023              		.loc 1 278 0
 1024 0240 044B     		ldr	r3, .L47+12
ARM GAS  C:\Users\MattiaCP\AppData\Local\Temp\cc5xw3YS.s 			page 24


 1025 0242 0022     		movs	r2, #0
 1026 0244 1A60     		str	r2, [r3]
 1027 0246 48E0     		b	.L40
 1028              	.L48:
 1029              		.align	2
 1030              	.L47:
 1031 0248 00000000 		.word	g_mem
 1032 024c 00007A44 		.word	1148846080
 1033 0250 00000000 		.word	first_time.10161
 1034 0254 14000000 		.word	count.10159
 1035 0258 00000000 		.word	g_meas
 1036 025c 00000000 		.word	c_mem
 1037 0260 00000000 		.word	g_emg_meas
 1038 0264 01000000 		.word	flag_count.10160
 1039 0268 00000000 		.word	rest_enabled
 1040 026c 67666666 		.word	1717986919
 1041 0270 00000000 		.word	rest_pos_curr_ref
 1042 0274 18000000 		.word	m.10162
 1043 0278 00002041 		.word	1092616192
 1044 027c 1C000000 		.word	abs_err_thr.10163
 1045 0280 20000000 		.word	rest_error.10166
 1046 0284 24000000 		.word	delta_inc.10164
 1047 0288 00000000 		.word	forced_open
 1048              	.L41:
 279:..\src/utils.c ****         }
 280:..\src/utils.c ****         else {
 281:..\src/utils.c ****             rest_error = g_mem.SH.rest_pos - g_meas[g_mem.motor[0].encoder_line].pos[0];        
 1049              		.loc 1 281 0
 1050 028c 234B     		ldr	r3, .L49
 1051 028e D3F84022 		ldr	r2, [r3, #576]
 1052 0292 224B     		ldr	r3, .L49
 1053 0294 93F81031 		ldrb	r3, [r3, #272]	@ zero_extendqisi2
 1054 0298 1846     		mov	r0, r3
 1055 029a 2149     		ldr	r1, .L49+4
 1056 029c 0346     		mov	r3, r0
 1057 029e 5B00     		lsls	r3, r3, #1
 1058 02a0 0344     		add	r3, r3, r0
 1059 02a2 1B01     		lsls	r3, r3, #4
 1060 02a4 0B44     		add	r3, r3, r1
 1061 02a6 1B68     		ldr	r3, [r3]
 1062 02a8 D31A     		subs	r3, r2, r3
 1063 02aa 1E4A     		ldr	r2, .L49+8
 1064 02ac 1360     		str	r3, [r2]
 282:..\src/utils.c **** 
 283:..\src/utils.c ****             if (rest_error > 0){
 1065              		.loc 1 283 0
 1066 02ae 1D4B     		ldr	r3, .L49+8
 1067 02b0 1B68     		ldr	r3, [r3]
 1068 02b2 002B     		cmp	r3, #0
 1069 02b4 06DD     		ble	.L43
 284:..\src/utils.c ****                 rest_pos_curr_ref = rest_pos_curr_ref + delta_inc;
 1070              		.loc 1 284 0
 1071 02b6 1C4B     		ldr	r3, .L49+12
 1072 02b8 1A68     		ldr	r2, [r3]
 1073 02ba 1C4B     		ldr	r3, .L49+16
 1074 02bc 1B68     		ldr	r3, [r3]
 1075 02be 1344     		add	r3, r3, r2
ARM GAS  C:\Users\MattiaCP\AppData\Local\Temp\cc5xw3YS.s 			page 25


 1076 02c0 194A     		ldr	r2, .L49+12
 1077 02c2 1360     		str	r3, [r2]
 1078              	.L43:
 285:..\src/utils.c ****             }
 286:..\src/utils.c ****             if (rest_error < 0){
 1079              		.loc 1 286 0
 1080 02c4 174B     		ldr	r3, .L49+8
 1081 02c6 1B68     		ldr	r3, [r3]
 1082 02c8 002B     		cmp	r3, #0
 1083 02ca 06DA     		bge	.L40
 287:..\src/utils.c ****                 rest_pos_curr_ref = rest_pos_curr_ref - delta_inc;
 1084              		.loc 1 287 0
 1085 02cc 164B     		ldr	r3, .L49+12
 1086 02ce 1A68     		ldr	r2, [r3]
 1087 02d0 164B     		ldr	r3, .L49+16
 1088 02d2 1B68     		ldr	r3, [r3]
 1089 02d4 D31A     		subs	r3, r2, r3
 1090 02d6 144A     		ldr	r2, .L49+12
 1091 02d8 1360     		str	r3, [r2]
 1092              	.L40:
 288:..\src/utils.c ****             }
 289:..\src/utils.c ****         } 
 290:..\src/utils.c ****     }
 291:..\src/utils.c ****     
 292:..\src/utils.c ****     // Position limit saturation
 293:..\src/utils.c ****     if (c_mem.motor[0].pos_lim_flag) {
 1093              		.loc 1 293 0
 1094 02da 154B     		ldr	r3, .L49+20
 1095 02dc 93F8E330 		ldrb	r3, [r3, #227]	@ zero_extendqisi2
 1096 02e0 002B     		cmp	r3, #0
 1097 02e2 17D0     		beq	.L46
 294:..\src/utils.c ****         if (rest_pos_curr_ref < c_mem.motor[0].pos_lim_inf) 
 1098              		.loc 1 294 0
 1099 02e4 124B     		ldr	r3, .L49+20
 1100 02e6 D3F8E420 		ldr	r2, [r3, #228]
 1101 02ea 0F4B     		ldr	r3, .L49+12
 1102 02ec 1B68     		ldr	r3, [r3]
 1103 02ee 9A42     		cmp	r2, r3
 1104 02f0 04DD     		ble	.L45
 295:..\src/utils.c ****             rest_pos_curr_ref = c_mem.motor[0].pos_lim_inf;
 1105              		.loc 1 295 0
 1106 02f2 0F4B     		ldr	r3, .L49+20
 1107 02f4 D3F8E430 		ldr	r3, [r3, #228]
 1108 02f8 0B4A     		ldr	r2, .L49+12
 1109 02fa 1360     		str	r3, [r2]
 1110              	.L45:
 296:..\src/utils.c ****         if (rest_pos_curr_ref > c_mem.motor[0].pos_lim_sup) 
 1111              		.loc 1 296 0
 1112 02fc 0C4B     		ldr	r3, .L49+20
 1113 02fe D3F8E820 		ldr	r2, [r3, #232]
 1114 0302 094B     		ldr	r3, .L49+12
 1115 0304 1B68     		ldr	r3, [r3]
 1116 0306 9A42     		cmp	r2, r3
 1117 0308 04DA     		bge	.L46
 297:..\src/utils.c ****             rest_pos_curr_ref = c_mem.motor[0].pos_lim_sup;
 1118              		.loc 1 297 0
 1119 030a 094B     		ldr	r3, .L49+20
ARM GAS  C:\Users\MattiaCP\AppData\Local\Temp\cc5xw3YS.s 			page 26


 1120 030c D3F8E830 		ldr	r3, [r3, #232]
 1121 0310 054A     		ldr	r2, .L49+12
 1122 0312 1360     		str	r3, [r2]
 1123              	.L46:
 298:..\src/utils.c ****     }
 299:..\src/utils.c **** 
 300:..\src/utils.c **** }
 1124              		.loc 1 300 0
 1125 0314 00BF     		nop
 1126 0316 0C37     		adds	r7, r7, #12
 1127              		.cfi_def_cfa_offset 12
 1128 0318 BD46     		mov	sp, r7
 1129              		.cfi_def_cfa_register 13
 1130              		@ sp needed
 1131 031a 90BD     		pop	{r4, r7, pc}
 1132              	.L50:
 1133              		.align	2
 1134              	.L49:
 1135 031c 00000000 		.word	g_mem
 1136 0320 00000000 		.word	g_meas
 1137 0324 20000000 		.word	rest_error.10166
 1138 0328 00000000 		.word	rest_pos_curr_ref
 1139 032c 24000000 		.word	delta_inc.10164
 1140 0330 00000000 		.word	c_mem
 1141              		.cfi_endproc
 1142              	.LFE69:
 1143              		.size	check_rest_position, .-check_rest_position
 1144              		.section	.text.LED_control,"ax",%progbits
 1145              		.align	2
 1146              		.global	LED_control
 1147              		.thumb
 1148              		.thumb_func
 1149              		.type	LED_control, %function
 1150              	LED_control:
 1151              	.LFB70:
 301:..\src/utils.c **** #endif
 302:..\src/utils.c **** 
 303:..\src/utils.c **** //==============================================================================
 304:..\src/utils.c **** //                                                                   LED CONTROL
 305:..\src/utils.c **** //==============================================================================
 306:..\src/utils.c **** 
 307:..\src/utils.c **** void LED_control(uint8 mode) {
 1152              		.loc 1 307 0
 1153              		.cfi_startproc
 1154              		@ args = 0, pretend = 0, frame = 8
 1155              		@ frame_needed = 1, uses_anonymous_args = 0
 1156 0000 80B5     		push	{r7, lr}
 1157              		.cfi_def_cfa_offset 8
 1158              		.cfi_offset 7, -8
 1159              		.cfi_offset 14, -4
 1160 0002 82B0     		sub	sp, sp, #8
 1161              		.cfi_def_cfa_offset 16
 1162 0004 00AF     		add	r7, sp, #0
 1163              		.cfi_def_cfa_register 7
 1164 0006 0346     		mov	r3, r0
 1165 0008 FB71     		strb	r3, [r7, #7]
 308:..\src/utils.c ****     
ARM GAS  C:\Users\MattiaCP\AppData\Local\Temp\cc5xw3YS.s 			page 27


 309:..\src/utils.c ****     switch (mode) {
 1166              		.loc 1 309 0
 1167 000a FB79     		ldrb	r3, [r7, #7]	@ zero_extendqisi2
 1168 000c 052B     		cmp	r3, #5
 1169 000e 39D8     		bhi	.L61
 1170 0010 01A2     		adr	r2, .L54
 1171 0012 52F823F0 		ldr	pc, [r2, r3, lsl #2]
 1172 0016 00BF     		.p2align 2
 1173              	.L54:
 1174 0018 31000000 		.word	.L53+1
 1175 001c 3F000000 		.word	.L55+1
 1176 0020 4D000000 		.word	.L56+1
 1177 0024 5B000000 		.word	.L57+1
 1178 0028 69000000 		.word	.L58+1
 1179 002c 77000000 		.word	.L59+1
 1180              		.p2align 1
 1181              	.L53:
 310:..\src/utils.c ****         
 311:..\src/utils.c ****         case 0:     //All LEDs off
 312:..\src/utils.c ****             LED_CTRL_Write(0);
 1182              		.loc 1 312 0
 1183 0030 0020     		movs	r0, #0
 1184 0032 FFF7FEFF 		bl	LED_CTRL_Write
 313:..\src/utils.c ****             BLINK_CTRL_EN_Write(0);
 1185              		.loc 1 313 0
 1186 0036 0020     		movs	r0, #0
 1187 0038 FFF7FEFF 		bl	BLINK_CTRL_EN_Write
 314:..\src/utils.c ****             break;
 1188              		.loc 1 314 0
 1189 003c 23E0     		b	.L60
 1190              	.L55:
 315:..\src/utils.c ****         case 1:     // Green fixed light
 316:..\src/utils.c ****             LED_CTRL_Write(2);
 1191              		.loc 1 316 0
 1192 003e 0220     		movs	r0, #2
 1193 0040 FFF7FEFF 		bl	LED_CTRL_Write
 317:..\src/utils.c ****             BLINK_CTRL_EN_Write(0);
 1194              		.loc 1 317 0
 1195 0044 0020     		movs	r0, #0
 1196 0046 FFF7FEFF 		bl	BLINK_CTRL_EN_Write
 318:..\src/utils.c ****             break;
 1197              		.loc 1 318 0
 1198 004a 1CE0     		b	.L60
 1199              	.L56:
 319:..\src/utils.c ****             
 320:..\src/utils.c ****         case 2:     // Yellow flashing light @ 0.5 Hz
 321:..\src/utils.c ****             LED_CTRL_Write(0);
 1200              		.loc 1 321 0
 1201 004c 0020     		movs	r0, #0
 1202 004e FFF7FEFF 		bl	LED_CTRL_Write
 322:..\src/utils.c ****             BLINK_CTRL_EN_Write(1);        
 1203              		.loc 1 322 0
 1204 0052 0120     		movs	r0, #1
 1205 0054 FFF7FEFF 		bl	BLINK_CTRL_EN_Write
 323:..\src/utils.c ****             break;
 1206              		.loc 1 323 0
 1207 0058 15E0     		b	.L60
ARM GAS  C:\Users\MattiaCP\AppData\Local\Temp\cc5xw3YS.s 			page 28


 1208              	.L57:
 324:..\src/utils.c ****             
 325:..\src/utils.c ****         case 3:     // Red flashing light @ 2.5 Hz
 326:..\src/utils.c ****             LED_CTRL_Write(0);
 1209              		.loc 1 326 0
 1210 005a 0020     		movs	r0, #0
 1211 005c FFF7FEFF 		bl	LED_CTRL_Write
 327:..\src/utils.c ****             BLINK_CTRL_EN_Write(2);        
 1212              		.loc 1 327 0
 1213 0060 0220     		movs	r0, #2
 1214 0062 FFF7FEFF 		bl	BLINK_CTRL_EN_Write
 328:..\src/utils.c ****             break;
 1215              		.loc 1 328 0
 1216 0066 0EE0     		b	.L60
 1217              	.L58:
 329:..\src/utils.c ****             
 330:..\src/utils.c ****         case 4:     // Yellow fixed light - maintenance
 331:..\src/utils.c ****             LED_CTRL_Write(3);
 1218              		.loc 1 331 0
 1219 0068 0320     		movs	r0, #3
 1220 006a FFF7FEFF 		bl	LED_CTRL_Write
 332:..\src/utils.c ****             BLINK_CTRL_EN_Write(0);        
 1221              		.loc 1 332 0
 1222 006e 0020     		movs	r0, #0
 1223 0070 FFF7FEFF 		bl	BLINK_CTRL_EN_Write
 333:..\src/utils.c ****             break;
 1224              		.loc 1 333 0
 1225 0074 07E0     		b	.L60
 1226              	.L59:
 334:..\src/utils.c ****         
 335:..\src/utils.c ****         case 5:     // Red fixed light - uUSB power
 336:..\src/utils.c ****             LED_CTRL_Write(1);
 1227              		.loc 1 336 0
 1228 0076 0120     		movs	r0, #1
 1229 0078 FFF7FEFF 		bl	LED_CTRL_Write
 337:..\src/utils.c ****             BLINK_CTRL_EN_Write(0);        
 1230              		.loc 1 337 0
 1231 007c 0020     		movs	r0, #0
 1232 007e FFF7FEFF 		bl	BLINK_CTRL_EN_Write
 338:..\src/utils.c ****             break; 
 1233              		.loc 1 338 0
 1234 0082 00E0     		b	.L60
 1235              	.L61:
 339:..\src/utils.c ****             
 340:..\src/utils.c ****         default:
 341:..\src/utils.c ****             break;
 1236              		.loc 1 341 0
 1237 0084 00BF     		nop
 1238              	.L60:
 342:..\src/utils.c ****     }   
 343:..\src/utils.c **** }
 1239              		.loc 1 343 0
 1240 0086 00BF     		nop
 1241 0088 0837     		adds	r7, r7, #8
 1242              		.cfi_def_cfa_offset 8
 1243 008a BD46     		mov	sp, r7
 1244              		.cfi_def_cfa_register 13
ARM GAS  C:\Users\MattiaCP\AppData\Local\Temp\cc5xw3YS.s 			page 29


 1245              		@ sp needed
 1246 008c 80BD     		pop	{r7, pc}
 1247              		.cfi_endproc
 1248              	.LFE70:
 1249              		.size	LED_control, .-LED_control
 1250              		.global	__aeabi_i2d
 1251              		.global	__aeabi_dmul
 1252              		.global	__aeabi_dcmpgt
 1253 008e 00BF     		.section	.text.battery_management,"ax",%progbits
 1254              		.align	2
 1255              		.global	battery_management
 1256              		.thumb
 1257              		.thumb_func
 1258              		.type	battery_management, %function
 1259              	battery_management:
 1260              	.LFB71:
 344:..\src/utils.c **** 
 345:..\src/utils.c **** 
 346:..\src/utils.c **** //==============================================================================
 347:..\src/utils.c **** //                                                            BATTERY MANAGEMENT
 348:..\src/utils.c **** //==============================================================================
 349:..\src/utils.c **** void battery_management() {
 1261              		.loc 1 349 0
 1262              		.cfi_startproc
 1263              		@ args = 0, pretend = 0, frame = 0
 1264              		@ frame_needed = 1, uses_anonymous_args = 0
 1265 0000 B0B5     		push	{r4, r5, r7, lr}
 1266              		.cfi_def_cfa_offset 16
 1267              		.cfi_offset 4, -16
 1268              		.cfi_offset 5, -12
 1269              		.cfi_offset 7, -8
 1270              		.cfi_offset 14, -4
 1271 0002 00AF     		add	r7, sp, #0
 1272              		.cfi_def_cfa_register 7
 350:..\src/utils.c ****     static uint32 v_count_lb = 0;
 351:..\src/utils.c ****     
 352:..\src/utils.c ****     // LED handling procedure
 353:..\src/utils.c ****     // The board LED blinks if attached battery is not fully charged
 354:..\src/utils.c **** 
 355:..\src/utils.c ****     if (battery_low_SoC) {
 1273              		.loc 1 355 0
 1274 0004 8E4B     		ldr	r3, .L88+16
 1275 0006 1B78     		ldrb	r3, [r3]	@ zero_extendqisi2
 1276 0008 002B     		cmp	r3, #0
 1277 000a 27D0     		beq	.L63
 356:..\src/utils.c ****         
 357:..\src/utils.c ****         //red light - blink @ 2.5 Hz
 358:..\src/utils.c ****         LED_control(3);
 1278              		.loc 1 358 0
 1279 000c 0320     		movs	r0, #3
 1280 000e FFF7FEFF 		bl	LED_control
 359:..\src/utils.c ****                 
 360:..\src/utils.c ****         rest_enabled = 0;
 1281              		.loc 1 360 0
 1282 0012 8C4B     		ldr	r3, .L88+20
 1283 0014 0022     		movs	r2, #0
 1284 0016 1A70     		strb	r2, [r3]
ARM GAS  C:\Users\MattiaCP\AppData\Local\Temp\cc5xw3YS.s 			page 30


 361:..\src/utils.c ****         if (v_count_lb >= 11000){
 1285              		.loc 1 361 0
 1286 0018 8B4B     		ldr	r3, .L88+24
 1287 001a 1B68     		ldr	r3, [r3]
 1288 001c 42F6F722 		movw	r2, #10999
 1289 0020 9342     		cmp	r3, r2
 1290 0022 15D9     		bls	.L64
 362:..\src/utils.c ****             // Disable motor because we are sure of not fully charged battery and terminal device h
 363:..\src/utils.c ****             g_refNew[0].onoff = 0x00;
 1291              		.loc 1 363 0
 1292 0024 894B     		ldr	r3, .L88+28
 1293 0026 0022     		movs	r2, #0
 1294 0028 1A73     		strb	r2, [r3, #12]
 364:..\src/utils.c ****             enable_motor(0, g_refNew[0].onoff);
 1295              		.loc 1 364 0
 1296 002a 884B     		ldr	r3, .L88+28
 1297 002c 1B7B     		ldrb	r3, [r3, #12]	@ zero_extendqisi2
 1298 002e 1946     		mov	r1, r3
 1299 0030 0020     		movs	r0, #0
 1300 0032 FFF7FEFF 		bl	enable_motor
 365:..\src/utils.c ****             g_refNew[1].onoff = 0x00;
 1301              		.loc 1 365 0
 1302 0036 854B     		ldr	r3, .L88+28
 1303 0038 0022     		movs	r2, #0
 1304 003a 1A77     		strb	r2, [r3, #28]
 366:..\src/utils.c ****             enable_motor(1, g_refNew[1].onoff);     // Deactivate motor
 1305              		.loc 1 366 0
 1306 003c 834B     		ldr	r3, .L88+28
 1307 003e 1B7F     		ldrb	r3, [r3, #28]	@ zero_extendqisi2
 1308 0040 1946     		mov	r1, r3
 1309 0042 0120     		movs	r0, #1
 1310 0044 FFF7FEFF 		bl	enable_motor
 367:..\src/utils.c ****             v_count_lb = 0;
 1311              		.loc 1 367 0
 1312 0048 7F4B     		ldr	r3, .L88+24
 1313 004a 0022     		movs	r2, #0
 1314 004c 1A60     		str	r2, [r3]
 368:..\src/utils.c ****         }
 369:..\src/utils.c ****         else
 370:..\src/utils.c ****             v_count_lb = v_count_lb + 1;
 371:..\src/utils.c ****         
 372:..\src/utils.c ****     }
 373:..\src/utils.c ****     else {
 374:..\src/utils.c **** 
 375:..\src/utils.c ****         // The board LED is still or blinks depending on attached battery State of Charge
 376:..\src/utils.c ****         if (tension_valid == TRUE && ((c_mem.motor[0].input_mode <= 1)  ||
 377:..\src/utils.c ****             (c_mem.motor[0].input_mode > 1 && emg_1_status == NORMAL && emg_2_status == NORMAL)) ){
 378:..\src/utils.c ****             dev_tension_f[0] = filter(dev_tension[0], &filt_v[0]);            
 379:..\src/utils.c ****             if (c_mem.dev.use_2nd_motor_flag == TRUE) {
 380:..\src/utils.c ****                 dev_tension_f[1] = filter(dev_tension[1], &filt_v[1]);
 381:..\src/utils.c ****             }
 382:..\src/utils.c ****             
 383:..\src/utils.c ****             // Note: Sometimes pow_tension is not well computed when using power supply
 384:..\src/utils.c ****             // Parrot/Renata: 0.9, 0.87
 385:..\src/utils.c ****             // ARTS: 0.87, 0.8
 386:..\src/utils.c ****             if (dev_tension_f[0] > 0.95 * pow_tension[0] && (c_mem.dev.use_2nd_motor_flag == FALSE 
 387:..\src/utils.c ****                 //fixed
ARM GAS  C:\Users\MattiaCP\AppData\Local\Temp\cc5xw3YS.s 			page 31


 388:..\src/utils.c ****                 if (!maintenance_flag)
 389:..\src/utils.c ****                     LED_control(0);     // NO LIGHT - all leds off
 390:..\src/utils.c ****                 else
 391:..\src/utils.c ****                     LED_control(4);     // yellow light - fixed
 392:..\src/utils.c ****             }
 393:..\src/utils.c ****             
 394:..\src/utils.c ****             else {
 395:..\src/utils.c ****                 if (dev_tension_f[0] > 0.9 * pow_tension[0] && (c_mem.dev.use_2nd_motor_flag == FAL
 396:..\src/utils.c ****                     //yellow light - blink @ 0.5 Hz
 397:..\src/utils.c ****                     //LED_control(2);   
 398:..\src/utils.c ****                     
 399:..\src/utils.c ****                     if (!maintenance_flag)
 400:..\src/utils.c ****                         LED_control(0);     // NO LIGHT - all leds off
 401:..\src/utils.c ****                     else
 402:..\src/utils.c ****                         LED_control(4);     // yellow light - fixed
 403:..\src/utils.c ****                     
 404:..\src/utils.c ****                     v_count_lb = 0;    // Reset counter whenever battery is not totally out of char
 405:..\src/utils.c ****                 }
 406:..\src/utils.c ****                 else {
 407:..\src/utils.c ****                     //red light - blink @ 2.5 Hz
 408:..\src/utils.c ****                     //LED_control(3);
 409:..\src/utils.c ****                 
 410:..\src/utils.c ****                     if (v_count_lb >= 10000){                    
 411:..\src/utils.c ****                         
 412:..\src/utils.c ****                         //battery_low_SoC = 1;
 413:..\src/utils.c ****                         
 414:..\src/utils.c ****                         //red light - blink @ 2.5 Hz
 415:..\src/utils.c ****                         LED_control(3);
 416:..\src/utils.c ****                         
 417:..\src/utils.c ****                         rest_enabled = 0;
 418:..\src/utils.c ****                     }
 419:..\src/utils.c ****                     else{
 420:..\src/utils.c ****                         v_count_lb = v_count_lb + 1;
 421:..\src/utils.c ****                     }                
 422:..\src/utils.c ****                 }
 423:..\src/utils.c ****             }
 424:..\src/utils.c ****             
 425:..\src/utils.c ****         }
 426:..\src/utils.c ****         else {
 427:..\src/utils.c ****             if ((c_mem.motor[0].input_mode <= 1) || (c_mem.motor[0].input_mode > 1 && emg_1_status 
 428:..\src/utils.c ****                 LED_control(5);     // Default - red light
 429:..\src/utils.c ****             }
 430:..\src/utils.c ****         }
 431:..\src/utils.c ****     }  
 432:..\src/utils.c **** }
 1315              		.loc 1 432 0
 1316 004e EDE0     		b	.L87
 1317              	.L64:
 370:..\src/utils.c ****         
 1318              		.loc 1 370 0
 1319 0050 7D4B     		ldr	r3, .L88+24
 1320 0052 1B68     		ldr	r3, [r3]
 1321 0054 0133     		adds	r3, r3, #1
 1322 0056 7C4A     		ldr	r2, .L88+24
 1323 0058 1360     		str	r3, [r2]
 1324              		.loc 1 432 0
 1325 005a E7E0     		b	.L87
ARM GAS  C:\Users\MattiaCP\AppData\Local\Temp\cc5xw3YS.s 			page 32


 1326              	.L63:
 376:..\src/utils.c ****             (c_mem.motor[0].input_mode > 1 && emg_1_status == NORMAL && emg_2_status == NORMAL)) ){
 1327              		.loc 1 376 0
 1328 005c 7C4B     		ldr	r3, .L88+32
 1329 005e 1B78     		ldrb	r3, [r3]	@ zero_extendqisi2
 1330 0060 012B     		cmp	r3, #1
 1331 0062 40F0CD80 		bne	.L67
 376:..\src/utils.c ****             (c_mem.motor[0].input_mode > 1 && emg_1_status == NORMAL && emg_2_status == NORMAL)) ){
 1332              		.loc 1 376 0 is_stmt 0 discriminator 1
 1333 0066 7B4B     		ldr	r3, .L88+36
 1334 0068 93F80E31 		ldrb	r3, [r3, #270]	@ zero_extendqisi2
 1335 006c 012B     		cmp	r3, #1
 1336 006e 0FD9     		bls	.L68
 377:..\src/utils.c ****             dev_tension_f[0] = filter(dev_tension[0], &filt_v[0]);            
 1337              		.loc 1 377 0 is_stmt 1 discriminator 2
 1338 0070 784B     		ldr	r3, .L88+36
 1339 0072 93F80E31 		ldrb	r3, [r3, #270]	@ zero_extendqisi2
 376:..\src/utils.c ****             (c_mem.motor[0].input_mode > 1 && emg_1_status == NORMAL && emg_2_status == NORMAL)) ){
 1340              		.loc 1 376 0 discriminator 2
 1341 0076 012B     		cmp	r3, #1
 1342 0078 40F2C280 		bls	.L67
 377:..\src/utils.c ****             dev_tension_f[0] = filter(dev_tension[0], &filt_v[0]);            
 1343              		.loc 1 377 0
 1344 007c 764B     		ldr	r3, .L88+40
 1345 007e 1B78     		ldrb	r3, [r3]	@ zero_extendqisi2
 1346 0080 002B     		cmp	r3, #0
 1347 0082 40F0BD80 		bne	.L67
 377:..\src/utils.c ****             dev_tension_f[0] = filter(dev_tension[0], &filt_v[0]);            
 1348              		.loc 1 377 0 is_stmt 0 discriminator 1
 1349 0086 754B     		ldr	r3, .L88+44
 1350 0088 1B78     		ldrb	r3, [r3]	@ zero_extendqisi2
 1351 008a 002B     		cmp	r3, #0
 1352 008c 40F0B880 		bne	.L67
 1353              	.L68:
 378:..\src/utils.c ****             if (c_mem.dev.use_2nd_motor_flag == TRUE) {
 1354              		.loc 1 378 0 is_stmt 1
 1355 0090 734B     		ldr	r3, .L88+48
 1356 0092 1B68     		ldr	r3, [r3]
 1357 0094 7349     		ldr	r1, .L88+52
 1358 0096 1846     		mov	r0, r3
 1359 0098 FFF7FEFF 		bl	filter
 1360 009c 0246     		mov	r2, r0
 1361 009e 724B     		ldr	r3, .L88+56
 1362 00a0 1A60     		str	r2, [r3]
 379:..\src/utils.c ****                 dev_tension_f[1] = filter(dev_tension[1], &filt_v[1]);
 1363              		.loc 1 379 0
 1364 00a2 6C4B     		ldr	r3, .L88+36
 1365 00a4 93F8A930 		ldrb	r3, [r3, #169]	@ zero_extendqisi2
 1366 00a8 012B     		cmp	r3, #1
 1367 00aa 08D1     		bne	.L69
 380:..\src/utils.c ****             }
 1368              		.loc 1 380 0
 1369 00ac 6C4B     		ldr	r3, .L88+48
 1370 00ae 5B68     		ldr	r3, [r3, #4]
 1371 00b0 6E49     		ldr	r1, .L88+60
 1372 00b2 1846     		mov	r0, r3
 1373 00b4 FFF7FEFF 		bl	filter
ARM GAS  C:\Users\MattiaCP\AppData\Local\Temp\cc5xw3YS.s 			page 33


 1374 00b8 0246     		mov	r2, r0
 1375 00ba 6B4B     		ldr	r3, .L88+56
 1376 00bc 5A60     		str	r2, [r3, #4]
 1377              	.L69:
 386:..\src/utils.c ****                 //fixed
 1378              		.loc 1 386 0
 1379 00be 6A4B     		ldr	r3, .L88+56
 1380 00c0 1B68     		ldr	r3, [r3]
 1381 00c2 1846     		mov	r0, r3
 1382 00c4 FFF7FEFF 		bl	__aeabi_i2d
 1383 00c8 0446     		mov	r4, r0
 1384 00ca 0D46     		mov	r5, r1
 1385 00cc 684B     		ldr	r3, .L88+64
 1386 00ce 1B68     		ldr	r3, [r3]
 1387 00d0 1846     		mov	r0, r3
 1388 00d2 FFF7FEFF 		bl	__aeabi_i2d
 1389 00d6 56A3     		adr	r3, .L88
 1390 00d8 D3E90023 		ldrd	r2, [r3]
 1391 00dc FFF7FEFF 		bl	__aeabi_dmul
 1392 00e0 0246     		mov	r2, r0
 1393 00e2 0B46     		mov	r3, r1
 1394 00e4 2046     		mov	r0, r4
 1395 00e6 2946     		mov	r1, r5
 1396 00e8 FFF7FEFF 		bl	__aeabi_dcmpgt
 1397 00ec 0346     		mov	r3, r0
 1398 00ee 002B     		cmp	r3, #0
 1399 00f0 2AD0     		beq	.L70
 386:..\src/utils.c ****                 //fixed
 1400              		.loc 1 386 0 is_stmt 0 discriminator 1
 1401 00f2 584B     		ldr	r3, .L88+36
 1402 00f4 93F8A930 		ldrb	r3, [r3, #169]	@ zero_extendqisi2
 1403 00f8 002B     		cmp	r3, #0
 1404 00fa 19D0     		beq	.L72
 386:..\src/utils.c ****                 //fixed
 1405              		.loc 1 386 0 discriminator 2
 1406 00fc 5A4B     		ldr	r3, .L88+56
 1407 00fe 5B68     		ldr	r3, [r3, #4]
 1408 0100 1846     		mov	r0, r3
 1409 0102 FFF7FEFF 		bl	__aeabi_i2d
 1410 0106 0446     		mov	r4, r0
 1411 0108 0D46     		mov	r5, r1
 1412 010a 594B     		ldr	r3, .L88+64
 1413 010c 5B68     		ldr	r3, [r3, #4]
 1414 010e 1846     		mov	r0, r3
 1415 0110 FFF7FEFF 		bl	__aeabi_i2d
 1416 0114 46A3     		adr	r3, .L88
 1417 0116 D3E90023 		ldrd	r2, [r3]
 1418 011a FFF7FEFF 		bl	__aeabi_dmul
 1419 011e 0246     		mov	r2, r0
 1420 0120 0B46     		mov	r3, r1
 1421 0122 2046     		mov	r0, r4
 1422 0124 2946     		mov	r1, r5
 1423 0126 FFF7FEFF 		bl	__aeabi_dcmpgt
 1424 012a 0346     		mov	r3, r0
 1425 012c 002B     		cmp	r3, #0
 1426 012e 0BD0     		beq	.L70
 1427              	.L72:
ARM GAS  C:\Users\MattiaCP\AppData\Local\Temp\cc5xw3YS.s 			page 34


 388:..\src/utils.c ****                     LED_control(0);     // NO LIGHT - all leds off
 1428              		.loc 1 388 0 is_stmt 1
 1429 0130 504B     		ldr	r3, .L88+68
 1430 0132 1B78     		ldrb	r3, [r3]	@ zero_extendqisi2
 1431 0134 002B     		cmp	r3, #0
 1432 0136 03D1     		bne	.L74
 389:..\src/utils.c ****                 else
 1433              		.loc 1 389 0
 1434 0138 0020     		movs	r0, #0
 1435 013a FFF7FEFF 		bl	LED_control
 388:..\src/utils.c ****                     LED_control(0);     // NO LIGHT - all leds off
 1436              		.loc 1 388 0
 1437 013e 5EE0     		b	.L76
 1438              	.L74:
 391:..\src/utils.c ****             }
 1439              		.loc 1 391 0
 1440 0140 0420     		movs	r0, #4
 1441 0142 FFF7FEFF 		bl	LED_control
 388:..\src/utils.c ****                     LED_control(0);     // NO LIGHT - all leds off
 1442              		.loc 1 388 0
 1443 0146 5AE0     		b	.L76
 1444              	.L70:
 395:..\src/utils.c ****                     //yellow light - blink @ 0.5 Hz
 1445              		.loc 1 395 0
 1446 0148 474B     		ldr	r3, .L88+56
 1447 014a 1B68     		ldr	r3, [r3]
 1448 014c 1846     		mov	r0, r3
 1449 014e FFF7FEFF 		bl	__aeabi_i2d
 1450 0152 0446     		mov	r4, r0
 1451 0154 0D46     		mov	r5, r1
 1452 0156 464B     		ldr	r3, .L88+64
 1453 0158 1B68     		ldr	r3, [r3]
 1454 015a 1846     		mov	r0, r3
 1455 015c FFF7FEFF 		bl	__aeabi_i2d
 1456 0160 35A3     		adr	r3, .L88+8
 1457 0162 D3E90023 		ldrd	r2, [r3]
 1458 0166 FFF7FEFF 		bl	__aeabi_dmul
 1459 016a 0246     		mov	r2, r0
 1460 016c 0B46     		mov	r3, r1
 1461 016e 2046     		mov	r0, r4
 1462 0170 2946     		mov	r1, r5
 1463 0172 FFF7FEFF 		bl	__aeabi_dcmpgt
 1464 0176 0346     		mov	r3, r0
 1465 0178 002B     		cmp	r3, #0
 1466 017a 2DD0     		beq	.L77
 395:..\src/utils.c ****                     //yellow light - blink @ 0.5 Hz
 1467              		.loc 1 395 0 is_stmt 0 discriminator 1
 1468 017c 354B     		ldr	r3, .L88+36
 1469 017e 93F8A930 		ldrb	r3, [r3, #169]	@ zero_extendqisi2
 1470 0182 002B     		cmp	r3, #0
 1471 0184 19D0     		beq	.L79
 395:..\src/utils.c ****                     //yellow light - blink @ 0.5 Hz
 1472              		.loc 1 395 0 discriminator 2
 1473 0186 384B     		ldr	r3, .L88+56
 1474 0188 5B68     		ldr	r3, [r3, #4]
 1475 018a 1846     		mov	r0, r3
 1476 018c FFF7FEFF 		bl	__aeabi_i2d
ARM GAS  C:\Users\MattiaCP\AppData\Local\Temp\cc5xw3YS.s 			page 35


 1477 0190 0446     		mov	r4, r0
 1478 0192 0D46     		mov	r5, r1
 1479 0194 364B     		ldr	r3, .L88+64
 1480 0196 5B68     		ldr	r3, [r3, #4]
 1481 0198 1846     		mov	r0, r3
 1482 019a FFF7FEFF 		bl	__aeabi_i2d
 1483 019e 26A3     		adr	r3, .L88+8
 1484 01a0 D3E90023 		ldrd	r2, [r3]
 1485 01a4 FFF7FEFF 		bl	__aeabi_dmul
 1486 01a8 0246     		mov	r2, r0
 1487 01aa 0B46     		mov	r3, r1
 1488 01ac 2046     		mov	r0, r4
 1489 01ae 2946     		mov	r1, r5
 1490 01b0 FFF7FEFF 		bl	__aeabi_dcmpgt
 1491 01b4 0346     		mov	r3, r0
 1492 01b6 002B     		cmp	r3, #0
 1493 01b8 0ED0     		beq	.L77
 1494              	.L79:
 399:..\src/utils.c ****                         LED_control(0);     // NO LIGHT - all leds off
 1495              		.loc 1 399 0 is_stmt 1
 1496 01ba 2E4B     		ldr	r3, .L88+68
 1497 01bc 1B78     		ldrb	r3, [r3]	@ zero_extendqisi2
 1498 01be 002B     		cmp	r3, #0
 1499 01c0 03D1     		bne	.L81
 400:..\src/utils.c ****                     else
 1500              		.loc 1 400 0
 1501 01c2 0020     		movs	r0, #0
 1502 01c4 FFF7FEFF 		bl	LED_control
 1503 01c8 02E0     		b	.L82
 1504              	.L81:
 402:..\src/utils.c ****                     
 1505              		.loc 1 402 0
 1506 01ca 0420     		movs	r0, #4
 1507 01cc FFF7FEFF 		bl	LED_control
 1508              	.L82:
 404:..\src/utils.c ****                 }
 1509              		.loc 1 404 0
 1510 01d0 1D4B     		ldr	r3, .L88+24
 1511 01d2 0022     		movs	r2, #0
 1512 01d4 1A60     		str	r2, [r3]
 1513 01d6 12E0     		b	.L76
 1514              	.L77:
 410:..\src/utils.c ****                         
 1515              		.loc 1 410 0
 1516 01d8 1B4B     		ldr	r3, .L88+24
 1517 01da 1B68     		ldr	r3, [r3]
 1518 01dc 42F20F72 		movw	r2, #9999
 1519 01e0 9342     		cmp	r3, r2
 1520 01e2 06D9     		bls	.L83
 415:..\src/utils.c ****                         
 1521              		.loc 1 415 0
 1522 01e4 0320     		movs	r0, #3
 1523 01e6 FFF7FEFF 		bl	LED_control
 417:..\src/utils.c ****                     }
 1524              		.loc 1 417 0
 1525 01ea 164B     		ldr	r3, .L88+20
 1526 01ec 0022     		movs	r2, #0
ARM GAS  C:\Users\MattiaCP\AppData\Local\Temp\cc5xw3YS.s 			page 36


 1527 01ee 1A70     		strb	r2, [r3]
 386:..\src/utils.c ****                 //fixed
 1528              		.loc 1 386 0
 1529 01f0 1CE0     		b	.L66
 1530              	.L83:
 420:..\src/utils.c ****                     }                
 1531              		.loc 1 420 0
 1532 01f2 154B     		ldr	r3, .L88+24
 1533 01f4 1B68     		ldr	r3, [r3]
 1534 01f6 0133     		adds	r3, r3, #1
 1535 01f8 134A     		ldr	r2, .L88+24
 1536 01fa 1360     		str	r3, [r2]
 386:..\src/utils.c ****                 //fixed
 1537              		.loc 1 386 0
 1538 01fc 16E0     		b	.L66
 1539              	.L76:
 386:..\src/utils.c ****                 //fixed
 1540              		.loc 1 386 0 is_stmt 0 discriminator 1
 1541 01fe 15E0     		b	.L66
 1542              	.L67:
 427:..\src/utils.c ****                 LED_control(5);     // Default - red light
 1543              		.loc 1 427 0 is_stmt 1
 1544 0200 144B     		ldr	r3, .L88+36
 1545 0202 93F80E31 		ldrb	r3, [r3, #270]	@ zero_extendqisi2
 1546 0206 012B     		cmp	r3, #1
 1547 0208 0CD9     		bls	.L84
 427:..\src/utils.c ****                 LED_control(5);     // Default - red light
 1548              		.loc 1 427 0 is_stmt 0 discriminator 1
 1549 020a 124B     		ldr	r3, .L88+36
 1550 020c 93F80E31 		ldrb	r3, [r3, #270]	@ zero_extendqisi2
 1551 0210 012B     		cmp	r3, #1
 1552 0212 0BD9     		bls	.L87
 427:..\src/utils.c ****                 LED_control(5);     // Default - red light
 1553              		.loc 1 427 0 discriminator 2
 1554 0214 104B     		ldr	r3, .L88+40
 1555 0216 1B78     		ldrb	r3, [r3]	@ zero_extendqisi2
 1556 0218 002B     		cmp	r3, #0
 1557 021a 07D1     		bne	.L87
 427:..\src/utils.c ****                 LED_control(5);     // Default - red light
 1558              		.loc 1 427 0 discriminator 3
 1559 021c 0F4B     		ldr	r3, .L88+44
 1560 021e 1B78     		ldrb	r3, [r3]	@ zero_extendqisi2
 1561 0220 002B     		cmp	r3, #0
 1562 0222 03D1     		bne	.L87
 1563              	.L84:
 428:..\src/utils.c ****             }
 1564              		.loc 1 428 0 is_stmt 1
 1565 0224 0520     		movs	r0, #5
 1566 0226 FFF7FEFF 		bl	LED_control
 1567              		.loc 1 432 0
 1568 022a FFE7     		b	.L87
 1569              	.L66:
 1570              	.L87:
 1571 022c 00BF     		nop
 1572 022e B0BD     		pop	{r4, r5, r7, pc}
 1573              	.L89:
 1574              		.align	3
ARM GAS  C:\Users\MattiaCP\AppData\Local\Temp\cc5xw3YS.s 			page 37


 1575              	.L88:
 1576 0230 66666666 		.word	1717986918
 1577 0234 6666EE3F 		.word	1072588390
 1578 0238 CDCCCCCC 		.word	-858993459
 1579 023c CCCCEC3F 		.word	1072483532
 1580 0240 00000000 		.word	battery_low_SoC
 1581 0244 00000000 		.word	rest_enabled
 1582 0248 28000000 		.word	v_count_lb.10181
 1583 024c 00000000 		.word	g_refNew
 1584 0250 00000000 		.word	tension_valid
 1585 0254 00000000 		.word	c_mem
 1586 0258 00000000 		.word	emg_1_status
 1587 025c 00000000 		.word	emg_2_status
 1588 0260 00000000 		.word	dev_tension
 1589 0264 00000000 		.word	filt_v
 1590 0268 00000000 		.word	dev_tension_f
 1591 026c 08000000 		.word	filt_v+8
 1592 0270 00000000 		.word	pow_tension
 1593 0274 00000000 		.word	maintenance_flag
 1594              		.cfi_endproc
 1595              	.LFE71:
 1596              		.size	battery_management, .-battery_management
 1597              		.section	.text.ADC_Set_N_Channels,"ax",%progbits
 1598              		.align	2
 1599              		.global	ADC_Set_N_Channels
 1600              		.thumb
 1601              		.thumb_func
 1602              		.type	ADC_Set_N_Channels, %function
 1603              	ADC_Set_N_Channels:
 1604              	.LFB72:
 433:..\src/utils.c **** 
 434:..\src/utils.c **** //==============================================================================
 435:..\src/utils.c **** //                                                         ADC SET CHANNELS USED
 436:..\src/utils.c **** //==============================================================================
 437:..\src/utils.c **** void ADC_Set_N_Channels() {
 1605              		.loc 1 437 0
 1606              		.cfi_startproc
 1607              		@ args = 0, pretend = 0, frame = 0
 1608              		@ frame_needed = 1, uses_anonymous_args = 0
 1609 0000 80B5     		push	{r7, lr}
 1610              		.cfi_def_cfa_offset 8
 1611              		.cfi_offset 7, -8
 1612              		.cfi_offset 14, -4
 1613 0002 00AF     		add	r7, sp, #0
 1614              		.cfi_def_cfa_register 7
 438:..\src/utils.c ****     // Set right number of ADC channels to sample according to chosen flags
 439:..\src/utils.c ****     
 440:..\src/utils.c ****     NUM_OF_ANALOG_INPUTS = 4;       // Voltage_Sense_1
 1615              		.loc 1 440 0
 1616 0004 054B     		ldr	r3, .L91
 1617 0006 0422     		movs	r2, #4
 1618 0008 1A70     		strb	r2, [r3]
 441:..\src/utils.c ****                                     // Current_Sense_1
 442:..\src/utils.c ****                                     // EMG_A
 443:..\src/utils.c ****                                     // EMG_B
 444:..\src/utils.c **** 
 445:..\src/utils.c **** #ifdef GENERIC_FW    
ARM GAS  C:\Users\MattiaCP\AppData\Local\Temp\cc5xw3YS.s 			page 38


 446:..\src/utils.c ****     if (c_mem.dev.use_2nd_motor_flag == TRUE){
 447:..\src/utils.c ****         // add 2nd power
 448:..\src/utils.c ****         NUM_OF_ANALOG_INPUTS = 6;   // Voltage_Sense_2
 449:..\src/utils.c ****                                     // Current_Sense_2
 450:..\src/utils.c ****     }
 451:..\src/utils.c ****     
 452:..\src/utils.c ****     if (c_mem.exp.read_ADC_sensors_port_flag == TRUE){
 453:..\src/utils.c ****         // add all emg channels
 454:..\src/utils.c ****         NUM_OF_ANALOG_INPUTS = 12;  // EMG_1
 455:..\src/utils.c ****                                     // EMG_2
 456:..\src/utils.c ****                                     // EMG_3
 457:..\src/utils.c ****                                     // EMG_4
 458:..\src/utils.c ****                                     // EMG_5
 459:..\src/utils.c ****                                     // EMG_6
 460:..\src/utils.c ****     }
 461:..\src/utils.c **** #endif
 462:..\src/utils.c **** 
 463:..\src/utils.c ****     ADC_N_CHANNELS_USED_Write(NUM_OF_ANALOG_INPUTS - 1);
 1619              		.loc 1 463 0
 1620 000a 044B     		ldr	r3, .L91
 1621 000c 1B78     		ldrb	r3, [r3]	@ zero_extendqisi2
 1622 000e 013B     		subs	r3, r3, #1
 1623 0010 DBB2     		uxtb	r3, r3
 1624 0012 1846     		mov	r0, r3
 1625 0014 FFF7FEFF 		bl	ADC_N_CHANNELS_USED_Write
 464:..\src/utils.c ****     
 465:..\src/utils.c **** }
 1626              		.loc 1 465 0
 1627 0018 00BF     		nop
 1628 001a 80BD     		pop	{r7, pc}
 1629              	.L92:
 1630              		.align	2
 1631              	.L91:
 1632 001c 00000000 		.word	NUM_OF_ANALOG_INPUTS
 1633              		.cfi_endproc
 1634              	.LFE72:
 1635              		.size	ADC_Set_N_Channels, .-ADC_Set_N_Channels
 1636              		.section	.text.enable_motor,"ax",%progbits
 1637              		.align	2
 1638              		.global	enable_motor
 1639              		.thumb
 1640              		.thumb_func
 1641              		.type	enable_motor, %function
 1642              	enable_motor:
 1643              	.LFB73:
 466:..\src/utils.c **** 
 467:..\src/utils.c **** //==============================================================================
 468:..\src/utils.c **** //                                                                  ENABLE MOTOR
 469:..\src/utils.c **** //==============================================================================
 470:..\src/utils.c **** void enable_motor(uint8 idx, uint8 val){
 1644              		.loc 1 470 0
 1645              		.cfi_startproc
 1646              		@ args = 0, pretend = 0, frame = 8
 1647              		@ frame_needed = 1, uses_anonymous_args = 0
 1648 0000 80B5     		push	{r7, lr}
 1649              		.cfi_def_cfa_offset 8
 1650              		.cfi_offset 7, -8
ARM GAS  C:\Users\MattiaCP\AppData\Local\Temp\cc5xw3YS.s 			page 39


 1651              		.cfi_offset 14, -4
 1652 0002 82B0     		sub	sp, sp, #8
 1653              		.cfi_def_cfa_offset 16
 1654 0004 00AF     		add	r7, sp, #0
 1655              		.cfi_def_cfa_register 7
 1656 0006 0346     		mov	r3, r0
 1657 0008 0A46     		mov	r2, r1
 1658 000a FB71     		strb	r3, [r7, #7]
 1659 000c 1346     		mov	r3, r2
 1660 000e BB71     		strb	r3, [r7, #6]
 471:..\src/utils.c ****     // Enables motor idx, according to val value
 472:..\src/utils.c ****     if (idx == 0) {
 1661              		.loc 1 472 0
 1662 0010 FB79     		ldrb	r3, [r7, #7]	@ zero_extendqisi2
 1663 0012 002B     		cmp	r3, #0
 1664 0014 03D1     		bne	.L94
 473:..\src/utils.c ****         MOTOR_ON_OFF_1_Write(val);
 1665              		.loc 1 473 0
 1666 0016 BB79     		ldrb	r3, [r7, #6]	@ zero_extendqisi2
 1667 0018 1846     		mov	r0, r3
 1668 001a FFF7FEFF 		bl	MOTOR_ON_OFF_1_Write
 1669              	.L94:
 474:..\src/utils.c ****     }   
 475:..\src/utils.c ****     if (idx == 1) {
 1670              		.loc 1 475 0
 1671 001e FB79     		ldrb	r3, [r7, #7]	@ zero_extendqisi2
 1672 0020 012B     		cmp	r3, #1
 1673 0022 03D1     		bne	.L96
 476:..\src/utils.c ****         MOTOR_ON_OFF_2_Write(val);
 1674              		.loc 1 476 0
 1675 0024 BB79     		ldrb	r3, [r7, #6]	@ zero_extendqisi2
 1676 0026 1846     		mov	r0, r3
 1677 0028 FFF7FEFF 		bl	MOTOR_ON_OFF_2_Write
 1678              	.L96:
 477:..\src/utils.c ****     }
 478:..\src/utils.c **** }
 1679              		.loc 1 478 0
 1680 002c 00BF     		nop
 1681 002e 0837     		adds	r7, r7, #8
 1682              		.cfi_def_cfa_offset 8
 1683 0030 BD46     		mov	sp, r7
 1684              		.cfi_def_cfa_register 13
 1685              		@ sp needed
 1686 0032 80BD     		pop	{r7, pc}
 1687              		.cfi_endproc
 1688              	.LFE73:
 1689              		.size	enable_motor, .-enable_motor
 1690              		.section	.text.reset_counters,"ax",%progbits
 1691              		.align	2
 1692              		.global	reset_counters
 1693              		.thumb
 1694              		.thumb_func
 1695              		.type	reset_counters, %function
 1696              	reset_counters:
 1697              	.LFB74:
 479:..\src/utils.c **** 
 480:..\src/utils.c **** 
ARM GAS  C:\Users\MattiaCP\AppData\Local\Temp\cc5xw3YS.s 			page 40


 481:..\src/utils.c **** 
 482:..\src/utils.c **** //==============================================================================
 483:..\src/utils.c **** //                                                              RESET COUNTERS
 484:..\src/utils.c **** //==============================================================================
 485:..\src/utils.c **** void reset_counters() {
 1698              		.loc 1 485 0
 1699              		.cfi_startproc
 1700              		@ args = 0, pretend = 0, frame = 8
 1701              		@ frame_needed = 1, uses_anonymous_args = 0
 1702              		@ link register save eliminated.
 1703 0000 80B4     		push	{r7}
 1704              		.cfi_def_cfa_offset 4
 1705              		.cfi_offset 7, -4
 1706 0002 83B0     		sub	sp, sp, #12
 1707              		.cfi_def_cfa_offset 16
 1708 0004 00AF     		add	r7, sp, #0
 1709              		.cfi_def_cfa_register 7
 486:..\src/utils.c ****     uint8 i;
 487:..\src/utils.c ****     
 488:..\src/utils.c ****     // Initialize counters        
 489:..\src/utils.c ****     g_mem.cnt.emg_counter[0] = g_mem.cnt.emg_counter[1] = 0;
 1710              		.loc 1 489 0
 1711 0006 1B4B     		ldr	r3, .L102
 1712 0008 0022     		movs	r2, #0
 1713 000a 5A61     		str	r2, [r3, #20]
 1714 000c 194B     		ldr	r3, .L102
 1715 000e 5B69     		ldr	r3, [r3, #20]
 1716 0010 184A     		ldr	r2, .L102
 1717 0012 1361     		str	r3, [r2, #16]
 490:..\src/utils.c ****     for(i = 0; i< 10; i++){
 1718              		.loc 1 490 0
 1719 0014 0023     		movs	r3, #0
 1720 0016 FB71     		strb	r3, [r7, #7]
 1721 0018 08E0     		b	.L98
 1722              	.L99:
 491:..\src/utils.c ****         g_mem.cnt.position_hist[i] = 0;
 1723              		.loc 1 491 0 discriminator 3
 1724 001a FB79     		ldrb	r3, [r7, #7]	@ zero_extendqisi2
 1725 001c 154A     		ldr	r2, .L102
 1726 001e 0633     		adds	r3, r3, #6
 1727 0020 0021     		movs	r1, #0
 1728 0022 42F82310 		str	r1, [r2, r3, lsl #2]
 490:..\src/utils.c ****     for(i = 0; i< 10; i++){
 1729              		.loc 1 490 0 discriminator 3
 1730 0026 FB79     		ldrb	r3, [r7, #7]	@ zero_extendqisi2
 1731 0028 0133     		adds	r3, r3, #1
 1732 002a FB71     		strb	r3, [r7, #7]
 1733              	.L98:
 490:..\src/utils.c ****     for(i = 0; i< 10; i++){
 1734              		.loc 1 490 0 is_stmt 0 discriminator 1
 1735 002c FB79     		ldrb	r3, [r7, #7]	@ zero_extendqisi2
 1736 002e 092B     		cmp	r3, #9
 1737 0030 F3D9     		bls	.L99
 492:..\src/utils.c ****     }
 493:..\src/utils.c ****     for(i = 0; i< 4; i++){
 1738              		.loc 1 493 0 is_stmt 1
 1739 0032 0023     		movs	r3, #0
ARM GAS  C:\Users\MattiaCP\AppData\Local\Temp\cc5xw3YS.s 			page 41


 1740 0034 FB71     		strb	r3, [r7, #7]
 1741 0036 08E0     		b	.L100
 1742              	.L101:
 494:..\src/utils.c ****         g_mem.cnt.current_hist[i] = 0;
 1743              		.loc 1 494 0 discriminator 3
 1744 0038 FB79     		ldrb	r3, [r7, #7]	@ zero_extendqisi2
 1745 003a 0E4A     		ldr	r2, .L102
 1746 003c 1033     		adds	r3, r3, #16
 1747 003e 0021     		movs	r1, #0
 1748 0040 42F82310 		str	r1, [r2, r3, lsl #2]
 493:..\src/utils.c ****         g_mem.cnt.current_hist[i] = 0;
 1749              		.loc 1 493 0 discriminator 3
 1750 0044 FB79     		ldrb	r3, [r7, #7]	@ zero_extendqisi2
 1751 0046 0133     		adds	r3, r3, #1
 1752 0048 FB71     		strb	r3, [r7, #7]
 1753              	.L100:
 493:..\src/utils.c ****         g_mem.cnt.current_hist[i] = 0;
 1754              		.loc 1 493 0 is_stmt 0 discriminator 1
 1755 004a FB79     		ldrb	r3, [r7, #7]	@ zero_extendqisi2
 1756 004c 032B     		cmp	r3, #3
 1757 004e F3D9     		bls	.L101
 495:..\src/utils.c ****     }
 496:..\src/utils.c ****     g_mem.cnt.rest_counter = 0;
 1758              		.loc 1 496 0 is_stmt 1
 1759 0050 084B     		ldr	r3, .L102
 1760 0052 0022     		movs	r2, #0
 1761 0054 1A65     		str	r2, [r3, #80]
 497:..\src/utils.c ****     g_mem.cnt.wire_disp = 0;
 1762              		.loc 1 497 0
 1763 0056 074B     		ldr	r3, .L102
 1764 0058 0022     		movs	r2, #0
 1765 005a 5A65     		str	r2, [r3, #84]
 498:..\src/utils.c ****     g_mem.cnt.total_time_on = 0;
 1766              		.loc 1 498 0
 1767 005c 054B     		ldr	r3, .L102
 1768 005e 0022     		movs	r2, #0
 1769 0060 9A65     		str	r2, [r3, #88]
 499:..\src/utils.c ****     g_mem.cnt.total_time_rest = 0; 
 1770              		.loc 1 499 0
 1771 0062 044B     		ldr	r3, .L102
 1772 0064 0022     		movs	r2, #0
 1773 0066 DA65     		str	r2, [r3, #92]
 500:..\src/utils.c **** }
 1774              		.loc 1 500 0
 1775 0068 00BF     		nop
 1776 006a 0C37     		adds	r7, r7, #12
 1777              		.cfi_def_cfa_offset 4
 1778 006c BD46     		mov	sp, r7
 1779              		.cfi_def_cfa_register 13
 1780              		@ sp needed
 1781 006e 80BC     		pop	{r7}
 1782              		.cfi_restore 7
 1783              		.cfi_def_cfa_offset 0
 1784 0070 7047     		bx	lr
 1785              	.L103:
 1786 0072 00BF     		.align	2
 1787              	.L102:
ARM GAS  C:\Users\MattiaCP\AppData\Local\Temp\cc5xw3YS.s 			page 42


 1788 0074 00000000 		.word	g_mem
 1789              		.cfi_endproc
 1790              	.LFE74:
 1791              		.size	reset_counters, .-reset_counters
 1792              		.global	__aeabi_fsub
 1793              		.section	.text.invSqrt,"ax",%progbits
 1794              		.align	2
 1795              		.global	invSqrt
 1796              		.thumb
 1797              		.thumb_func
 1798              		.type	invSqrt, %function
 1799              	invSqrt:
 1800              	.LFB75:
 501:..\src/utils.c **** 
 502:..\src/utils.c **** 
 503:..\src/utils.c **** //==============================================================================
 504:..\src/utils.c **** //                                                                       INVSQRT
 505:..\src/utils.c **** //==============================================================================
 506:..\src/utils.c **** float invSqrt(float x) {
 1801              		.loc 1 506 0
 1802              		.cfi_startproc
 1803              		@ args = 0, pretend = 0, frame = 24
 1804              		@ frame_needed = 1, uses_anonymous_args = 0
 1805 0000 80B5     		push	{r7, lr}
 1806              		.cfi_def_cfa_offset 8
 1807              		.cfi_offset 7, -8
 1808              		.cfi_offset 14, -4
 1809 0002 86B0     		sub	sp, sp, #24
 1810              		.cfi_def_cfa_offset 32
 1811 0004 00AF     		add	r7, sp, #0
 1812              		.cfi_def_cfa_register 7
 1813 0006 7860     		str	r0, [r7, #4]	@ float
 507:..\src/utils.c **** 	float halfx = 0.5f * x;
 1814              		.loc 1 507 0
 1815 0008 4FF07C51 		mov	r1, #1056964608
 1816 000c 7868     		ldr	r0, [r7, #4]	@ float
 1817 000e FFF7FEFF 		bl	__aeabi_fmul
 1818 0012 0346     		mov	r3, r0
 1819 0014 7B61     		str	r3, [r7, #20]	@ float
 508:..\src/utils.c **** 	float y = x;
 1820              		.loc 1 508 0
 1821 0016 7B68     		ldr	r3, [r7, #4]	@ float
 1822 0018 3B61     		str	r3, [r7, #16]	@ float
 509:..\src/utils.c **** 	long i = *(long*)&y;
 1823              		.loc 1 509 0
 1824 001a 07F11003 		add	r3, r7, #16
 1825 001e 1B68     		ldr	r3, [r3]
 1826 0020 FB60     		str	r3, [r7, #12]
 510:..\src/utils.c **** 	i = 0x5f3759df - (i>>1);
 1827              		.loc 1 510 0
 1828 0022 FB68     		ldr	r3, [r7, #12]
 1829 0024 5A10     		asrs	r2, r3, #1
 1830 0026 134B     		ldr	r3, .L106
 1831 0028 9B1A     		subs	r3, r3, r2
 1832 002a FB60     		str	r3, [r7, #12]
 511:..\src/utils.c **** 	y = *(float*)&i;
 1833              		.loc 1 511 0
ARM GAS  C:\Users\MattiaCP\AppData\Local\Temp\cc5xw3YS.s 			page 43


 1834 002c 07F10C03 		add	r3, r7, #12
 1835 0030 1B68     		ldr	r3, [r3]	@ float
 1836 0032 3B61     		str	r3, [r7, #16]	@ float
 512:..\src/utils.c **** 	y = y * (1.5f - (halfx * y * y));
 1837              		.loc 1 512 0
 1838 0034 3B69     		ldr	r3, [r7, #16]	@ float
 1839 0036 7969     		ldr	r1, [r7, #20]	@ float
 1840 0038 1846     		mov	r0, r3
 1841 003a FFF7FEFF 		bl	__aeabi_fmul
 1842 003e 0346     		mov	r3, r0
 1843 0040 1A46     		mov	r2, r3
 1844 0042 3B69     		ldr	r3, [r7, #16]	@ float
 1845 0044 1946     		mov	r1, r3
 1846 0046 1046     		mov	r0, r2
 1847 0048 FFF7FEFF 		bl	__aeabi_fmul
 1848 004c 0346     		mov	r3, r0
 1849 004e 1946     		mov	r1, r3
 1850 0050 4FF07F50 		mov	r0, #1069547520
 1851 0054 FFF7FEFF 		bl	__aeabi_fsub
 1852 0058 0346     		mov	r3, r0
 1853 005a 1A46     		mov	r2, r3
 1854 005c 3B69     		ldr	r3, [r7, #16]	@ float
 1855 005e 1946     		mov	r1, r3
 1856 0060 1046     		mov	r0, r2
 1857 0062 FFF7FEFF 		bl	__aeabi_fmul
 1858 0066 0346     		mov	r3, r0
 1859 0068 3B61     		str	r3, [r7, #16]	@ float
 513:..\src/utils.c **** 	return y;
 1860              		.loc 1 513 0
 1861 006a 3B69     		ldr	r3, [r7, #16]	@ float
 514:..\src/utils.c **** }
 1862              		.loc 1 514 0
 1863 006c 1846     		mov	r0, r3
 1864 006e 1837     		adds	r7, r7, #24
 1865              		.cfi_def_cfa_offset 8
 1866 0070 BD46     		mov	sp, r7
 1867              		.cfi_def_cfa_register 13
 1868              		@ sp needed
 1869 0072 80BD     		pop	{r7, pc}
 1870              	.L107:
 1871              		.align	2
 1872              	.L106:
 1873 0074 DF59375F 		.word	1597463007
 1874              		.cfi_endproc
 1875              	.LFE75:
 1876              		.size	invSqrt, .-invSqrt
 1877              		.section	.text.v3_normalize,"ax",%progbits
 1878              		.align	2
 1879              		.global	v3_normalize
 1880              		.thumb
 1881              		.thumb_func
 1882              		.type	v3_normalize, %function
 1883              	v3_normalize:
 1884              	.LFB76:
 515:..\src/utils.c **** 
 516:..\src/utils.c **** //==============================================================================
 517:..\src/utils.c **** //                                                                  V3_NORMALIZE
ARM GAS  C:\Users\MattiaCP\AppData\Local\Temp\cc5xw3YS.s 			page 44


 518:..\src/utils.c **** //==============================================================================
 519:..\src/utils.c **** void v3_normalize(float v3_in[3]){
 1885              		.loc 1 519 0
 1886              		.cfi_startproc
 1887              		@ args = 0, pretend = 0, frame = 16
 1888              		@ frame_needed = 1, uses_anonymous_args = 0
 1889 0000 90B5     		push	{r4, r7, lr}
 1890              		.cfi_def_cfa_offset 12
 1891              		.cfi_offset 4, -12
 1892              		.cfi_offset 7, -8
 1893              		.cfi_offset 14, -4
 1894 0002 85B0     		sub	sp, sp, #20
 1895              		.cfi_def_cfa_offset 32
 1896 0004 00AF     		add	r7, sp, #0
 1897              		.cfi_def_cfa_register 7
 1898 0006 7860     		str	r0, [r7, #4]
 520:..\src/utils.c ****     // Vector 3 normalization
 521:..\src/utils.c ****     float norm = invSqrt(v3_in[0] * v3_in[0] + v3_in[1] * v3_in[1] + v3_in[2] * v3_in[2]);
 1899              		.loc 1 521 0
 1900 0008 7B68     		ldr	r3, [r7, #4]
 1901 000a 1A68     		ldr	r2, [r3]	@ float
 1902 000c 7B68     		ldr	r3, [r7, #4]
 1903 000e 1B68     		ldr	r3, [r3]	@ float
 1904 0010 1946     		mov	r1, r3
 1905 0012 1046     		mov	r0, r2
 1906 0014 FFF7FEFF 		bl	__aeabi_fmul
 1907 0018 0346     		mov	r3, r0
 1908 001a 1C46     		mov	r4, r3
 1909 001c 7B68     		ldr	r3, [r7, #4]
 1910 001e 0433     		adds	r3, r3, #4
 1911 0020 1A68     		ldr	r2, [r3]	@ float
 1912 0022 7B68     		ldr	r3, [r7, #4]
 1913 0024 0433     		adds	r3, r3, #4
 1914 0026 1B68     		ldr	r3, [r3]	@ float
 1915 0028 1946     		mov	r1, r3
 1916 002a 1046     		mov	r0, r2
 1917 002c FFF7FEFF 		bl	__aeabi_fmul
 1918 0030 0346     		mov	r3, r0
 1919 0032 1946     		mov	r1, r3
 1920 0034 2046     		mov	r0, r4
 1921 0036 FFF7FEFF 		bl	__aeabi_fadd
 1922 003a 0346     		mov	r3, r0
 1923 003c 1C46     		mov	r4, r3
 1924 003e 7B68     		ldr	r3, [r7, #4]
 1925 0040 0833     		adds	r3, r3, #8
 1926 0042 1A68     		ldr	r2, [r3]	@ float
 1927 0044 7B68     		ldr	r3, [r7, #4]
 1928 0046 0833     		adds	r3, r3, #8
 1929 0048 1B68     		ldr	r3, [r3]	@ float
 1930 004a 1946     		mov	r1, r3
 1931 004c 1046     		mov	r0, r2
 1932 004e FFF7FEFF 		bl	__aeabi_fmul
 1933 0052 0346     		mov	r3, r0
 1934 0054 1946     		mov	r1, r3
 1935 0056 2046     		mov	r0, r4
 1936 0058 FFF7FEFF 		bl	__aeabi_fadd
 1937 005c 0346     		mov	r3, r0
ARM GAS  C:\Users\MattiaCP\AppData\Local\Temp\cc5xw3YS.s 			page 45


 1938 005e 1846     		mov	r0, r3
 1939 0060 FFF7FEFF 		bl	invSqrt
 1940 0064 F860     		str	r0, [r7, #12]	@ float
 522:..\src/utils.c ****     
 523:..\src/utils.c ****     v3_in[0] = v3_in[0]*norm;
 1941              		.loc 1 523 0
 1942 0066 7B68     		ldr	r3, [r7, #4]
 1943 0068 1B68     		ldr	r3, [r3]	@ float
 1944 006a F968     		ldr	r1, [r7, #12]	@ float
 1945 006c 1846     		mov	r0, r3
 1946 006e FFF7FEFF 		bl	__aeabi_fmul
 1947 0072 0346     		mov	r3, r0
 1948 0074 1A46     		mov	r2, r3
 1949 0076 7B68     		ldr	r3, [r7, #4]
 1950 0078 1A60     		str	r2, [r3]	@ float
 524:..\src/utils.c ****     v3_in[1] = v3_in[1]*norm;
 1951              		.loc 1 524 0
 1952 007a 7B68     		ldr	r3, [r7, #4]
 1953 007c 1C1D     		adds	r4, r3, #4
 1954 007e 7B68     		ldr	r3, [r7, #4]
 1955 0080 0433     		adds	r3, r3, #4
 1956 0082 1B68     		ldr	r3, [r3]	@ float
 1957 0084 F968     		ldr	r1, [r7, #12]	@ float
 1958 0086 1846     		mov	r0, r3
 1959 0088 FFF7FEFF 		bl	__aeabi_fmul
 1960 008c 0346     		mov	r3, r0
 1961 008e 2360     		str	r3, [r4]	@ float
 525:..\src/utils.c ****     v3_in[2] = v3_in[2]*norm;
 1962              		.loc 1 525 0
 1963 0090 7B68     		ldr	r3, [r7, #4]
 1964 0092 03F10804 		add	r4, r3, #8
 1965 0096 7B68     		ldr	r3, [r7, #4]
 1966 0098 0833     		adds	r3, r3, #8
 1967 009a 1B68     		ldr	r3, [r3]	@ float
 1968 009c F968     		ldr	r1, [r7, #12]	@ float
 1969 009e 1846     		mov	r0, r3
 1970 00a0 FFF7FEFF 		bl	__aeabi_fmul
 1971 00a4 0346     		mov	r3, r0
 1972 00a6 2360     		str	r3, [r4]	@ float
 526:..\src/utils.c **** }
 1973              		.loc 1 526 0
 1974 00a8 00BF     		nop
 1975 00aa 1437     		adds	r7, r7, #20
 1976              		.cfi_def_cfa_offset 12
 1977 00ac BD46     		mov	sp, r7
 1978              		.cfi_def_cfa_register 13
 1979              		@ sp needed
 1980 00ae 90BD     		pop	{r4, r7, pc}
 1981              		.cfi_endproc
 1982              	.LFE76:
 1983              		.size	v3_normalize, .-v3_normalize
 1984              		.section	.text.v4_normalize,"ax",%progbits
 1985              		.align	2
 1986              		.global	v4_normalize
 1987              		.thumb
 1988              		.thumb_func
 1989              		.type	v4_normalize, %function
ARM GAS  C:\Users\MattiaCP\AppData\Local\Temp\cc5xw3YS.s 			page 46


 1990              	v4_normalize:
 1991              	.LFB77:
 527:..\src/utils.c ****  
 528:..\src/utils.c **** //==============================================================================
 529:..\src/utils.c **** //                                                                  V4_NORMALIZE
 530:..\src/utils.c **** //==============================================================================
 531:..\src/utils.c **** void v4_normalize(float v4_in[4]){
 1992              		.loc 1 531 0
 1993              		.cfi_startproc
 1994              		@ args = 0, pretend = 0, frame = 16
 1995              		@ frame_needed = 1, uses_anonymous_args = 0
 1996 0000 90B5     		push	{r4, r7, lr}
 1997              		.cfi_def_cfa_offset 12
 1998              		.cfi_offset 4, -12
 1999              		.cfi_offset 7, -8
 2000              		.cfi_offset 14, -4
 2001 0002 85B0     		sub	sp, sp, #20
 2002              		.cfi_def_cfa_offset 32
 2003 0004 00AF     		add	r7, sp, #0
 2004              		.cfi_def_cfa_register 7
 2005 0006 7860     		str	r0, [r7, #4]
 532:..\src/utils.c ****     // Vector 4 normalization
 533:..\src/utils.c ****     float norm = invSqrt(v4_in[0] * v4_in[0] + v4_in[1] * v4_in[1] + v4_in[2] * v4_in[2] + v4_in[3]
 2006              		.loc 1 533 0
 2007 0008 7B68     		ldr	r3, [r7, #4]
 2008 000a 1A68     		ldr	r2, [r3]	@ float
 2009 000c 7B68     		ldr	r3, [r7, #4]
 2010 000e 1B68     		ldr	r3, [r3]	@ float
 2011 0010 1946     		mov	r1, r3
 2012 0012 1046     		mov	r0, r2
 2013 0014 FFF7FEFF 		bl	__aeabi_fmul
 2014 0018 0346     		mov	r3, r0
 2015 001a 1C46     		mov	r4, r3
 2016 001c 7B68     		ldr	r3, [r7, #4]
 2017 001e 0433     		adds	r3, r3, #4
 2018 0020 1A68     		ldr	r2, [r3]	@ float
 2019 0022 7B68     		ldr	r3, [r7, #4]
 2020 0024 0433     		adds	r3, r3, #4
 2021 0026 1B68     		ldr	r3, [r3]	@ float
 2022 0028 1946     		mov	r1, r3
 2023 002a 1046     		mov	r0, r2
 2024 002c FFF7FEFF 		bl	__aeabi_fmul
 2025 0030 0346     		mov	r3, r0
 2026 0032 1946     		mov	r1, r3
 2027 0034 2046     		mov	r0, r4
 2028 0036 FFF7FEFF 		bl	__aeabi_fadd
 2029 003a 0346     		mov	r3, r0
 2030 003c 1C46     		mov	r4, r3
 2031 003e 7B68     		ldr	r3, [r7, #4]
 2032 0040 0833     		adds	r3, r3, #8
 2033 0042 1A68     		ldr	r2, [r3]	@ float
 2034 0044 7B68     		ldr	r3, [r7, #4]
 2035 0046 0833     		adds	r3, r3, #8
 2036 0048 1B68     		ldr	r3, [r3]	@ float
 2037 004a 1946     		mov	r1, r3
 2038 004c 1046     		mov	r0, r2
 2039 004e FFF7FEFF 		bl	__aeabi_fmul
ARM GAS  C:\Users\MattiaCP\AppData\Local\Temp\cc5xw3YS.s 			page 47


 2040 0052 0346     		mov	r3, r0
 2041 0054 1946     		mov	r1, r3
 2042 0056 2046     		mov	r0, r4
 2043 0058 FFF7FEFF 		bl	__aeabi_fadd
 2044 005c 0346     		mov	r3, r0
 2045 005e 1C46     		mov	r4, r3
 2046 0060 7B68     		ldr	r3, [r7, #4]
 2047 0062 0C33     		adds	r3, r3, #12
 2048 0064 1A68     		ldr	r2, [r3]	@ float
 2049 0066 7B68     		ldr	r3, [r7, #4]
 2050 0068 0C33     		adds	r3, r3, #12
 2051 006a 1B68     		ldr	r3, [r3]	@ float
 2052 006c 1946     		mov	r1, r3
 2053 006e 1046     		mov	r0, r2
 2054 0070 FFF7FEFF 		bl	__aeabi_fmul
 2055 0074 0346     		mov	r3, r0
 2056 0076 1946     		mov	r1, r3
 2057 0078 2046     		mov	r0, r4
 2058 007a FFF7FEFF 		bl	__aeabi_fadd
 2059 007e 0346     		mov	r3, r0
 2060 0080 1846     		mov	r0, r3
 2061 0082 FFF7FEFF 		bl	invSqrt
 2062 0086 F860     		str	r0, [r7, #12]	@ float
 534:..\src/utils.c ****     
 535:..\src/utils.c ****     v4_in[0] = v4_in[0]*norm;
 2063              		.loc 1 535 0
 2064 0088 7B68     		ldr	r3, [r7, #4]
 2065 008a 1B68     		ldr	r3, [r3]	@ float
 2066 008c F968     		ldr	r1, [r7, #12]	@ float
 2067 008e 1846     		mov	r0, r3
 2068 0090 FFF7FEFF 		bl	__aeabi_fmul
 2069 0094 0346     		mov	r3, r0
 2070 0096 1A46     		mov	r2, r3
 2071 0098 7B68     		ldr	r3, [r7, #4]
 2072 009a 1A60     		str	r2, [r3]	@ float
 536:..\src/utils.c ****     v4_in[1] = v4_in[1]*norm;
 2073              		.loc 1 536 0
 2074 009c 7B68     		ldr	r3, [r7, #4]
 2075 009e 1C1D     		adds	r4, r3, #4
 2076 00a0 7B68     		ldr	r3, [r7, #4]
 2077 00a2 0433     		adds	r3, r3, #4
 2078 00a4 1B68     		ldr	r3, [r3]	@ float
 2079 00a6 F968     		ldr	r1, [r7, #12]	@ float
 2080 00a8 1846     		mov	r0, r3
 2081 00aa FFF7FEFF 		bl	__aeabi_fmul
 2082 00ae 0346     		mov	r3, r0
 2083 00b0 2360     		str	r3, [r4]	@ float
 537:..\src/utils.c ****     v4_in[2] = v4_in[2]*norm;
 2084              		.loc 1 537 0
 2085 00b2 7B68     		ldr	r3, [r7, #4]
 2086 00b4 03F10804 		add	r4, r3, #8
 2087 00b8 7B68     		ldr	r3, [r7, #4]
 2088 00ba 0833     		adds	r3, r3, #8
 2089 00bc 1B68     		ldr	r3, [r3]	@ float
 2090 00be F968     		ldr	r1, [r7, #12]	@ float
 2091 00c0 1846     		mov	r0, r3
 2092 00c2 FFF7FEFF 		bl	__aeabi_fmul
ARM GAS  C:\Users\MattiaCP\AppData\Local\Temp\cc5xw3YS.s 			page 48


 2093 00c6 0346     		mov	r3, r0
 2094 00c8 2360     		str	r3, [r4]	@ float
 538:..\src/utils.c ****     v4_in[3] = v4_in[3]*norm;
 2095              		.loc 1 538 0
 2096 00ca 7B68     		ldr	r3, [r7, #4]
 2097 00cc 03F10C04 		add	r4, r3, #12
 2098 00d0 7B68     		ldr	r3, [r7, #4]
 2099 00d2 0C33     		adds	r3, r3, #12
 2100 00d4 1B68     		ldr	r3, [r3]	@ float
 2101 00d6 F968     		ldr	r1, [r7, #12]	@ float
 2102 00d8 1846     		mov	r0, r3
 2103 00da FFF7FEFF 		bl	__aeabi_fmul
 2104 00de 0346     		mov	r3, r0
 2105 00e0 2360     		str	r3, [r4]	@ float
 539:..\src/utils.c **** }
 2106              		.loc 1 539 0
 2107 00e2 00BF     		nop
 2108 00e4 1437     		adds	r7, r7, #20
 2109              		.cfi_def_cfa_offset 12
 2110 00e6 BD46     		mov	sp, r7
 2111              		.cfi_def_cfa_register 13
 2112              		@ sp needed
 2113 00e8 90BD     		pop	{r4, r7, pc}
 2114              		.cfi_endproc
 2115              	.LFE77:
 2116              		.size	v4_normalize, .-v4_normalize
 2117 00ea 00BF     		.bss
 2118              		.align	2
 2119              	virtual_pos_friction.10130:
 2120 0000 00000000 		.space	8
 2120      00000000 
 2121              		.align	2
 2122              	err_pos_dt.10131:
 2123 0008 00000000 		.space	8
 2123      00000000 
 2124              	direction.10145:
 2125 0010 00       		.space	1
 2126 0011 00       		.align	1
 2127              	closure_counter.10146:
 2128 0012 0000     		.space	2
 2129              		.data
 2130              		.type	first_time.10161, %object
 2131              		.size	first_time.10161, 1
 2132              	first_time.10161:
 2133 0000 01       		.byte	1
 2134              		.bss
 2135              		.align	2
 2136              	count.10159:
 2137 0014 00000000 		.space	4
 2138              		.data
 2139              		.type	flag_count.10160, %object
 2140              		.size	flag_count.10160, 1
 2141              	flag_count.10160:
 2142 0001 01       		.byte	1
 2143              		.bss
 2144              		.align	2
 2145              	m.10162:
ARM GAS  C:\Users\MattiaCP\AppData\Local\Temp\cc5xw3YS.s 			page 49


 2146 0018 00000000 		.space	4
 2147              		.align	2
 2148              	abs_err_thr.10163:
 2149 001c 00000000 		.space	4
 2150              		.align	2
 2151              	rest_error.10166:
 2152 0020 00000000 		.space	4
 2153              		.align	2
 2154              	delta_inc.10164:
 2155 0024 00000000 		.space	4
 2156              		.align	2
 2157              	v_count_lb.10181:
 2158 0028 00000000 		.space	4
 2159              		.text
 2160              	.Letext0:
 2161              		.file 2 "c:\\program files (x86)\\cypress\\psoc creator\\4.2\\psoc creator\\import\\gnu\\arm\\5.4.
 2162              		.file 3 "c:\\program files (x86)\\cypress\\psoc creator\\4.2\\psoc creator\\import\\gnu\\arm\\5.4.
 2163              		.file 4 "Generated_Source\\PSoC5/cytypes.h"
 2164              		.file 5 "..\\src\\globals.h"
 2165              		.file 6 "Generated_Source\\PSoC5/core_cm3.h"
 2166              		.section	.debug_info,"",%progbits
 2167              	.Ldebug_info0:
 2168 0000 5B0D0000 		.4byte	0xd5b
 2169 0004 0400     		.2byte	0x4
 2170 0006 00000000 		.4byte	.Ldebug_abbrev0
 2171 000a 04       		.byte	0x4
 2172 000b 01       		.uleb128 0x1
 2173 000c 7B000000 		.4byte	.LASF173
 2174 0010 0C       		.byte	0xc
 2175 0011 B3060000 		.4byte	.LASF174
 2176 0015 E5020000 		.4byte	.LASF175
 2177 0019 00000000 		.4byte	.Ldebug_ranges0+0
 2178 001d 00000000 		.4byte	0
 2179 0021 00000000 		.4byte	.Ldebug_line0
 2180 0025 02       		.uleb128 0x2
 2181 0026 01       		.byte	0x1
 2182 0027 06       		.byte	0x6
 2183 0028 8E010000 		.4byte	.LASF0
 2184 002c 02       		.uleb128 0x2
 2185 002d 01       		.byte	0x1
 2186 002e 08       		.byte	0x8
 2187 002f 19070000 		.4byte	.LASF1
 2188 0033 02       		.uleb128 0x2
 2189 0034 02       		.byte	0x2
 2190 0035 05       		.byte	0x5
 2191 0036 DA050000 		.4byte	.LASF2
 2192 003a 02       		.uleb128 0x2
 2193 003b 02       		.byte	0x2
 2194 003c 07       		.byte	0x7
 2195 003d 06070000 		.4byte	.LASF3
 2196 0041 03       		.uleb128 0x3
 2197 0042 86040000 		.4byte	.LASF9
 2198 0046 02       		.byte	0x2
 2199 0047 3F       		.byte	0x3f
 2200 0048 4C000000 		.4byte	0x4c
 2201 004c 02       		.uleb128 0x2
 2202 004d 04       		.byte	0x4
ARM GAS  C:\Users\MattiaCP\AppData\Local\Temp\cc5xw3YS.s 			page 50


 2203 004e 05       		.byte	0x5
 2204 004f D8010000 		.4byte	.LASF4
 2205 0053 02       		.uleb128 0x2
 2206 0054 04       		.byte	0x4
 2207 0055 07       		.byte	0x7
 2208 0056 AB030000 		.4byte	.LASF5
 2209 005a 02       		.uleb128 0x2
 2210 005b 08       		.byte	0x8
 2211 005c 05       		.byte	0x5
 2212 005d 80010000 		.4byte	.LASF6
 2213 0061 02       		.uleb128 0x2
 2214 0062 08       		.byte	0x8
 2215 0063 07       		.byte	0x7
 2216 0064 24010000 		.4byte	.LASF7
 2217 0068 04       		.uleb128 0x4
 2218 0069 04       		.byte	0x4
 2219 006a 05       		.byte	0x5
 2220 006b 696E7400 		.ascii	"int\000"
 2221 006f 02       		.uleb128 0x2
 2222 0070 04       		.byte	0x4
 2223 0071 07       		.byte	0x7
 2224 0072 60030000 		.4byte	.LASF8
 2225 0076 03       		.uleb128 0x3
 2226 0077 A2050000 		.4byte	.LASF10
 2227 007b 03       		.byte	0x3
 2228 007c 2C       		.byte	0x2c
 2229 007d 41000000 		.4byte	0x41
 2230 0081 05       		.uleb128 0x5
 2231 0082 F8030000 		.4byte	.LASF11
 2232 0086 04       		.byte	0x4
 2233 0087 E401     		.2byte	0x1e4
 2234 0089 2C000000 		.4byte	0x2c
 2235 008d 05       		.uleb128 0x5
 2236 008e DE020000 		.4byte	.LASF12
 2237 0092 04       		.byte	0x4
 2238 0093 E501     		.2byte	0x1e5
 2239 0095 3A000000 		.4byte	0x3a
 2240 0099 05       		.uleb128 0x5
 2241 009a A8020000 		.4byte	.LASF13
 2242 009e 04       		.byte	0x4
 2243 009f E601     		.2byte	0x1e6
 2244 00a1 53000000 		.4byte	0x53
 2245 00a5 05       		.uleb128 0x5
 2246 00a6 22040000 		.4byte	.LASF14
 2247 00aa 04       		.byte	0x4
 2248 00ab E701     		.2byte	0x1e7
 2249 00ad 25000000 		.4byte	0x25
 2250 00b1 05       		.uleb128 0x5
 2251 00b2 D6070000 		.4byte	.LASF15
 2252 00b6 04       		.byte	0x4
 2253 00b7 E801     		.2byte	0x1e8
 2254 00b9 33000000 		.4byte	0x33
 2255 00bd 05       		.uleb128 0x5
 2256 00be C7010000 		.4byte	.LASF16
 2257 00c2 04       		.byte	0x4
 2258 00c3 E901     		.2byte	0x1e9
 2259 00c5 4C000000 		.4byte	0x4c
ARM GAS  C:\Users\MattiaCP\AppData\Local\Temp\cc5xw3YS.s 			page 51


 2260 00c9 05       		.uleb128 0x5
 2261 00ca D0040000 		.4byte	.LASF17
 2262 00ce 04       		.byte	0x4
 2263 00cf EA01     		.2byte	0x1ea
 2264 00d1 D5000000 		.4byte	0xd5
 2265 00d5 02       		.uleb128 0x2
 2266 00d6 04       		.byte	0x4
 2267 00d7 04       		.byte	0x4
 2268 00d8 85060000 		.4byte	.LASF18
 2269 00dc 02       		.uleb128 0x2
 2270 00dd 08       		.byte	0x8
 2271 00de 04       		.byte	0x4
 2272 00df 6C080000 		.4byte	.LASF19
 2273 00e3 02       		.uleb128 0x2
 2274 00e4 01       		.byte	0x1
 2275 00e5 08       		.byte	0x8
 2276 00e6 A2060000 		.4byte	.LASF20
 2277 00ea 02       		.uleb128 0x2
 2278 00eb 08       		.byte	0x8
 2279 00ec 04       		.byte	0x4
 2280 00ed EE040000 		.4byte	.LASF21
 2281 00f1 02       		.uleb128 0x2
 2282 00f2 04       		.byte	0x4
 2283 00f3 07       		.byte	0x7
 2284 00f4 E5040000 		.4byte	.LASF22
 2285 00f8 06       		.uleb128 0x6
 2286 00f9 E3000000 		.4byte	0xe3
 2287 00fd 08010000 		.4byte	0x108
 2288 0101 07       		.uleb128 0x7
 2289 0102 F1000000 		.4byte	0xf1
 2290 0106 07       		.byte	0x7
 2291 0107 00       		.byte	0
 2292 0108 08       		.uleb128 0x8
 2293 0109 6D030000 		.4byte	.LASF25
 2294 010d 10       		.byte	0x10
 2295 010e 05       		.byte	0x5
 2296 010f A8       		.byte	0xa8
 2297 0110 45010000 		.4byte	0x145
 2298 0114 09       		.uleb128 0x9
 2299 0115 706F7300 		.ascii	"pos\000"
 2300 0119 05       		.byte	0x5
 2301 011a A9       		.byte	0xa9
 2302 011b BD000000 		.4byte	0xbd
 2303 011f 00       		.byte	0
 2304 0120 0A       		.uleb128 0xa
 2305 0121 B8050000 		.4byte	.LASF23
 2306 0125 05       		.byte	0x5
 2307 0126 AA       		.byte	0xaa
 2308 0127 BD000000 		.4byte	0xbd
 2309 012b 04       		.byte	0x4
 2310 012c 09       		.uleb128 0x9
 2311 012d 70776D00 		.ascii	"pwm\000"
 2312 0131 05       		.byte	0x5
 2313 0132 AB       		.byte	0xab
 2314 0133 BD000000 		.4byte	0xbd
 2315 0137 08       		.byte	0x8
 2316 0138 0A       		.uleb128 0xa
ARM GAS  C:\Users\MattiaCP\AppData\Local\Temp\cc5xw3YS.s 			page 52


 2317 0139 45010000 		.4byte	.LASF24
 2318 013d 05       		.byte	0x5
 2319 013e AC       		.byte	0xac
 2320 013f 81000000 		.4byte	0x81
 2321 0143 0C       		.byte	0xc
 2322 0144 00       		.byte	0
 2323 0145 08       		.uleb128 0x8
 2324 0146 19000000 		.4byte	.LASF26
 2325 014a 30       		.byte	0x30
 2326 014b 05       		.byte	0x5
 2327 014c B3       		.byte	0xb3
 2328 014d 9A010000 		.4byte	0x19a
 2329 0151 09       		.uleb128 0x9
 2330 0152 706F7300 		.ascii	"pos\000"
 2331 0156 05       		.byte	0x5
 2332 0157 B4       		.byte	0xb4
 2333 0158 9A010000 		.4byte	0x19a
 2334 015c 00       		.byte	0
 2335 015d 0A       		.uleb128 0xa
 2336 015e B8050000 		.4byte	.LASF23
 2337 0162 05       		.byte	0x5
 2338 0163 B5       		.byte	0xb5
 2339 0164 BD000000 		.4byte	0xbd
 2340 0168 0C       		.byte	0xc
 2341 0169 0A       		.uleb128 0xa
 2342 016a AA010000 		.4byte	.LASF27
 2343 016e 05       		.byte	0x5
 2344 016f B6       		.byte	0xb6
 2345 0170 BD000000 		.4byte	0xbd
 2346 0174 10       		.byte	0x10
 2347 0175 09       		.uleb128 0x9
 2348 0176 726F7400 		.ascii	"rot\000"
 2349 017a 05       		.byte	0x5
 2350 017b B7       		.byte	0xb7
 2351 017c AA010000 		.4byte	0x1aa
 2352 0180 14       		.byte	0x14
 2353 0181 09       		.uleb128 0x9
 2354 0182 76656C00 		.ascii	"vel\000"
 2355 0186 05       		.byte	0x5
 2356 0187 B8       		.byte	0xb8
 2357 0188 9A010000 		.4byte	0x19a
 2358 018c 18       		.byte	0x18
 2359 018d 09       		.uleb128 0x9
 2360 018e 61636300 		.ascii	"acc\000"
 2361 0192 05       		.byte	0x5
 2362 0193 B9       		.byte	0xb9
 2363 0194 9A010000 		.4byte	0x19a
 2364 0198 24       		.byte	0x24
 2365 0199 00       		.byte	0
 2366 019a 06       		.uleb128 0x6
 2367 019b BD000000 		.4byte	0xbd
 2368 019f AA010000 		.4byte	0x1aa
 2369 01a3 07       		.uleb128 0x7
 2370 01a4 F1000000 		.4byte	0xf1
 2371 01a8 02       		.byte	0x2
 2372 01a9 00       		.byte	0
 2373 01aa 06       		.uleb128 0x6
ARM GAS  C:\Users\MattiaCP\AppData\Local\Temp\cc5xw3YS.s 			page 53


 2374 01ab A5000000 		.4byte	0xa5
 2375 01af BA010000 		.4byte	0x1ba
 2376 01b3 07       		.uleb128 0x7
 2377 01b4 F1000000 		.4byte	0xf1
 2378 01b8 02       		.byte	0x2
 2379 01b9 00       		.byte	0
 2380 01ba 08       		.uleb128 0x8
 2381 01bb 8C020000 		.4byte	.LASF28
 2382 01bf 20       		.byte	0x20
 2383 01c0 05       		.byte	0x5
 2384 01c1 BC       		.byte	0xbc
 2385 01c2 DF010000 		.4byte	0x1df
 2386 01c6 09       		.uleb128 0x9
 2387 01c7 656D6700 		.ascii	"emg\000"
 2388 01cb 05       		.byte	0x5
 2389 01cc BD       		.byte	0xbd
 2390 01cd DF010000 		.4byte	0x1df
 2391 01d1 00       		.byte	0
 2392 01d2 0A       		.uleb128 0xa
 2393 01d3 DC060000 		.4byte	.LASF29
 2394 01d7 05       		.byte	0x5
 2395 01d8 BE       		.byte	0xbe
 2396 01d9 EF010000 		.4byte	0x1ef
 2397 01dd 08       		.byte	0x8
 2398 01de 00       		.byte	0
 2399 01df 06       		.uleb128 0x6
 2400 01e0 BD000000 		.4byte	0xbd
 2401 01e4 EF010000 		.4byte	0x1ef
 2402 01e8 07       		.uleb128 0x7
 2403 01e9 F1000000 		.4byte	0xf1
 2404 01ed 01       		.byte	0x1
 2405 01ee 00       		.byte	0
 2406 01ef 06       		.uleb128 0x6
 2407 01f0 BD000000 		.4byte	0xbd
 2408 01f4 FF010000 		.4byte	0x1ff
 2409 01f8 07       		.uleb128 0x7
 2410 01f9 F1000000 		.4byte	0xf1
 2411 01fd 05       		.byte	0x5
 2412 01fe 00       		.byte	0
 2413 01ff 08       		.uleb128 0x8
 2414 0200 17060000 		.4byte	.LASF30
 2415 0204 50       		.byte	0x50
 2416 0205 05       		.byte	0x5
 2417 0206 D1       		.byte	0xd1
 2418 0207 60020000 		.4byte	0x260
 2419 020b 0A       		.uleb128 0xa
 2420 020c 37060000 		.4byte	.LASF31
 2421 0210 05       		.byte	0x5
 2422 0211 D2       		.byte	0xd2
 2423 0212 60020000 		.4byte	0x260
 2424 0216 00       		.byte	0
 2425 0217 0A       		.uleb128 0xa
 2426 0218 78040000 		.4byte	.LASF32
 2427 021c 05       		.byte	0x5
 2428 021d D3       		.byte	0xd3
 2429 021e 70020000 		.4byte	0x270
 2430 0222 08       		.byte	0x8
ARM GAS  C:\Users\MattiaCP\AppData\Local\Temp\cc5xw3YS.s 			page 54


 2431 0223 0A       		.uleb128 0xa
 2432 0224 5B050000 		.4byte	.LASF33
 2433 0228 05       		.byte	0x5
 2434 0229 D4       		.byte	0xd4
 2435 022a 80020000 		.4byte	0x280
 2436 022e 30       		.byte	0x30
 2437 022f 0A       		.uleb128 0xa
 2438 0230 6C060000 		.4byte	.LASF34
 2439 0234 05       		.byte	0x5
 2440 0235 D5       		.byte	0xd5
 2441 0236 99000000 		.4byte	0x99
 2442 023a 40       		.byte	0x40
 2443 023b 0A       		.uleb128 0xa
 2444 023c 26020000 		.4byte	.LASF35
 2445 0240 05       		.byte	0x5
 2446 0241 D6       		.byte	0xd6
 2447 0242 99000000 		.4byte	0x99
 2448 0246 44       		.byte	0x44
 2449 0247 0A       		.uleb128 0xa
 2450 0248 49000000 		.4byte	.LASF36
 2451 024c 05       		.byte	0x5
 2452 024d D7       		.byte	0xd7
 2453 024e 99000000 		.4byte	0x99
 2454 0252 48       		.byte	0x48
 2455 0253 0A       		.uleb128 0xa
 2456 0254 12080000 		.4byte	.LASF37
 2457 0258 05       		.byte	0x5
 2458 0259 D8       		.byte	0xd8
 2459 025a 99000000 		.4byte	0x99
 2460 025e 4C       		.byte	0x4c
 2461 025f 00       		.byte	0
 2462 0260 06       		.uleb128 0x6
 2463 0261 99000000 		.4byte	0x99
 2464 0265 70020000 		.4byte	0x270
 2465 0269 07       		.uleb128 0x7
 2466 026a F1000000 		.4byte	0xf1
 2467 026e 01       		.byte	0x1
 2468 026f 00       		.byte	0
 2469 0270 06       		.uleb128 0x6
 2470 0271 99000000 		.4byte	0x99
 2471 0275 80020000 		.4byte	0x280
 2472 0279 07       		.uleb128 0x7
 2473 027a F1000000 		.4byte	0xf1
 2474 027e 09       		.byte	0x9
 2475 027f 00       		.byte	0
 2476 0280 06       		.uleb128 0x6
 2477 0281 99000000 		.4byte	0x99
 2478 0285 90020000 		.4byte	0x290
 2479 0289 07       		.uleb128 0x7
 2480 028a F1000000 		.4byte	0xf1
 2481 028e 03       		.byte	0x3
 2482 028f 00       		.byte	0
 2483 0290 08       		.uleb128 0x8
 2484 0291 FA040000 		.4byte	.LASF38
 2485 0295 10       		.byte	0x10
 2486 0296 05       		.byte	0x5
 2487 0297 DB       		.byte	0xdb
ARM GAS  C:\Users\MattiaCP\AppData\Local\Temp\cc5xw3YS.s 			page 55


 2488 0298 FC020000 		.4byte	0x2fc
 2489 029c 09       		.uleb128 0x9
 2490 029d 696400   		.ascii	"id\000"
 2491 02a0 05       		.byte	0x5
 2492 02a1 DC       		.byte	0xdc
 2493 02a2 81000000 		.4byte	0x81
 2494 02a6 00       		.byte	0
 2495 02a7 0A       		.uleb128 0xa
 2496 02a8 A2040000 		.4byte	.LASF39
 2497 02ac 05       		.byte	0x5
 2498 02ad DD       		.byte	0xdd
 2499 02ae FC020000 		.4byte	0x2fc
 2500 02b2 01       		.byte	0x1
 2501 02b3 0A       		.uleb128 0xa
 2502 02b4 54080000 		.4byte	.LASF40
 2503 02b8 05       		.byte	0x5
 2504 02b9 DE       		.byte	0xde
 2505 02ba FC020000 		.4byte	0x2fc
 2506 02be 04       		.byte	0x4
 2507 02bf 0A       		.uleb128 0xa
 2508 02c0 1B020000 		.4byte	.LASF41
 2509 02c4 05       		.byte	0x5
 2510 02c5 DF       		.byte	0xdf
 2511 02c6 81000000 		.4byte	0x81
 2512 02ca 07       		.byte	0x7
 2513 02cb 0A       		.uleb128 0xa
 2514 02cc 51030000 		.4byte	.LASF42
 2515 02d0 05       		.byte	0x5
 2516 02d1 E0       		.byte	0xe0
 2517 02d2 81000000 		.4byte	0x81
 2518 02d6 08       		.byte	0x8
 2519 02d7 0A       		.uleb128 0xa
 2520 02d8 06000000 		.4byte	.LASF43
 2521 02dc 05       		.byte	0x5
 2522 02dd E1       		.byte	0xe1
 2523 02de 81000000 		.4byte	0x81
 2524 02e2 09       		.byte	0x9
 2525 02e3 0A       		.uleb128 0xa
 2526 02e4 3B010000 		.4byte	.LASF44
 2527 02e8 05       		.byte	0x5
 2528 02e9 E2       		.byte	0xe2
 2529 02ea 81000000 		.4byte	0x81
 2530 02ee 0A       		.byte	0xa
 2531 02ef 0A       		.uleb128 0xa
 2532 02f0 6B040000 		.4byte	.LASF45
 2533 02f4 05       		.byte	0x5
 2534 02f5 E3       		.byte	0xe3
 2535 02f6 0C030000 		.4byte	0x30c
 2536 02fa 0B       		.byte	0xb
 2537 02fb 00       		.byte	0
 2538 02fc 06       		.uleb128 0x6
 2539 02fd 81000000 		.4byte	0x81
 2540 0301 0C030000 		.4byte	0x30c
 2541 0305 07       		.uleb128 0x7
 2542 0306 F1000000 		.4byte	0xf1
 2543 030a 02       		.byte	0x2
 2544 030b 00       		.byte	0
ARM GAS  C:\Users\MattiaCP\AppData\Local\Temp\cc5xw3YS.s 			page 56


 2545 030c 06       		.uleb128 0x6
 2546 030d 81000000 		.4byte	0x81
 2547 0311 1C030000 		.4byte	0x31c
 2548 0315 07       		.uleb128 0x7
 2549 0316 F1000000 		.4byte	0xf1
 2550 031a 04       		.byte	0x4
 2551 031b 00       		.byte	0
 2552 031c 08       		.uleb128 0x8
 2553 031d 2F070000 		.4byte	.LASF46
 2554 0321 70       		.byte	0x70
 2555 0322 05       		.byte	0x5
 2556 0323 E6       		.byte	0xe6
 2557 0324 7C040000 		.4byte	0x47c
 2558 0328 09       		.uleb128 0x9
 2559 0329 6B5F7000 		.ascii	"k_p\000"
 2560 032d 05       		.byte	0x5
 2561 032e E7       		.byte	0xe7
 2562 032f BD000000 		.4byte	0xbd
 2563 0333 00       		.byte	0
 2564 0334 09       		.uleb128 0x9
 2565 0335 6B5F6900 		.ascii	"k_i\000"
 2566 0339 05       		.byte	0x5
 2567 033a E8       		.byte	0xe8
 2568 033b BD000000 		.4byte	0xbd
 2569 033f 04       		.byte	0x4
 2570 0340 09       		.uleb128 0x9
 2571 0341 6B5F6400 		.ascii	"k_d\000"
 2572 0345 05       		.byte	0x5
 2573 0346 E9       		.byte	0xe9
 2574 0347 BD000000 		.4byte	0xbd
 2575 034b 08       		.byte	0x8
 2576 034c 0A       		.uleb128 0xa
 2577 034d 40050000 		.4byte	.LASF47
 2578 0351 05       		.byte	0x5
 2579 0352 EA       		.byte	0xea
 2580 0353 BD000000 		.4byte	0xbd
 2581 0357 0C       		.byte	0xc
 2582 0358 0A       		.uleb128 0xa
 2583 0359 00070000 		.4byte	.LASF48
 2584 035d 05       		.byte	0x5
 2585 035e EB       		.byte	0xeb
 2586 035f BD000000 		.4byte	0xbd
 2587 0363 10       		.byte	0x10
 2588 0364 0A       		.uleb128 0xa
 2589 0365 5F070000 		.4byte	.LASF49
 2590 0369 05       		.byte	0x5
 2591 036a EC       		.byte	0xec
 2592 036b BD000000 		.4byte	0xbd
 2593 036f 14       		.byte	0x14
 2594 0370 0A       		.uleb128 0xa
 2595 0371 73080000 		.4byte	.LASF50
 2596 0375 05       		.byte	0x5
 2597 0376 ED       		.byte	0xed
 2598 0377 BD000000 		.4byte	0xbd
 2599 037b 18       		.byte	0x18
 2600 037c 0A       		.uleb128 0xa
 2601 037d 8F030000 		.4byte	.LASF51
ARM GAS  C:\Users\MattiaCP\AppData\Local\Temp\cc5xw3YS.s 			page 57


 2602 0381 05       		.byte	0x5
 2603 0382 EE       		.byte	0xee
 2604 0383 BD000000 		.4byte	0xbd
 2605 0387 1C       		.byte	0x1c
 2606 0388 0A       		.uleb128 0xa
 2607 0389 4A030000 		.4byte	.LASF52
 2608 038d 05       		.byte	0x5
 2609 038e EF       		.byte	0xef
 2610 038f BD000000 		.4byte	0xbd
 2611 0393 20       		.byte	0x20
 2612 0394 0A       		.uleb128 0xa
 2613 0395 C9020000 		.4byte	.LASF53
 2614 0399 05       		.byte	0x5
 2615 039a F0       		.byte	0xf0
 2616 039b BD000000 		.4byte	0xbd
 2617 039f 24       		.byte	0x24
 2618 03a0 0A       		.uleb128 0xa
 2619 03a1 E4060000 		.4byte	.LASF54
 2620 03a5 05       		.byte	0x5
 2621 03a6 F1       		.byte	0xf1
 2622 03a7 BD000000 		.4byte	0xbd
 2623 03ab 28       		.byte	0x28
 2624 03ac 0A       		.uleb128 0xa
 2625 03ad BB070000 		.4byte	.LASF55
 2626 03b1 05       		.byte	0x5
 2627 03b2 F2       		.byte	0xf2
 2628 03b3 BD000000 		.4byte	0xbd
 2629 03b7 2C       		.byte	0x2c
 2630 03b8 0A       		.uleb128 0xa
 2631 03b9 72050000 		.4byte	.LASF56
 2632 03bd 05       		.byte	0x5
 2633 03be F3       		.byte	0xf3
 2634 03bf 81000000 		.4byte	0x81
 2635 03c3 30       		.byte	0x30
 2636 03c4 0A       		.uleb128 0xa
 2637 03c5 8B060000 		.4byte	.LASF57
 2638 03c9 05       		.byte	0x5
 2639 03ca F4       		.byte	0xf4
 2640 03cb 81000000 		.4byte	0x81
 2641 03cf 31       		.byte	0x31
 2642 03d0 0A       		.uleb128 0xa
 2643 03d1 4D040000 		.4byte	.LASF58
 2644 03d5 05       		.byte	0x5
 2645 03d6 F5       		.byte	0xf5
 2646 03d7 81000000 		.4byte	0x81
 2647 03db 32       		.byte	0x32
 2648 03dc 0A       		.uleb128 0xa
 2649 03dd 43060000 		.4byte	.LASF59
 2650 03e1 05       		.byte	0x5
 2651 03e2 F6       		.byte	0xf6
 2652 03e3 81000000 		.4byte	0x81
 2653 03e7 33       		.byte	0x33
 2654 03e8 0A       		.uleb128 0xa
 2655 03e9 5F040000 		.4byte	.LASF60
 2656 03ed 05       		.byte	0x5
 2657 03ee F7       		.byte	0xf7
 2658 03ef BD000000 		.4byte	0xbd
ARM GAS  C:\Users\MattiaCP\AppData\Local\Temp\cc5xw3YS.s 			page 58


 2659 03f3 34       		.byte	0x34
 2660 03f4 0A       		.uleb128 0xa
 2661 03f5 4F050000 		.4byte	.LASF61
 2662 03f9 05       		.byte	0x5
 2663 03fa F8       		.byte	0xf8
 2664 03fb BD000000 		.4byte	0xbd
 2665 03ff 38       		.byte	0x38
 2666 0400 0A       		.uleb128 0xa
 2667 0401 D0030000 		.4byte	.LASF62
 2668 0405 05       		.byte	0x5
 2669 0406 F9       		.byte	0xf9
 2670 0407 BD000000 		.4byte	0xbd
 2671 040b 3C       		.byte	0x3c
 2672 040c 0A       		.uleb128 0xa
 2673 040d 57060000 		.4byte	.LASF63
 2674 0411 05       		.byte	0x5
 2675 0412 FA       		.byte	0xfa
 2676 0413 BD000000 		.4byte	0xbd
 2677 0417 40       		.byte	0x40
 2678 0418 0A       		.uleb128 0xa
 2679 0419 7A070000 		.4byte	.LASF64
 2680 041d 05       		.byte	0x5
 2681 041e FB       		.byte	0xfb
 2682 041f 7C040000 		.4byte	0x47c
 2683 0423 44       		.byte	0x44
 2684 0424 0A       		.uleb128 0xa
 2685 0425 09060000 		.4byte	.LASF65
 2686 0429 05       		.byte	0x5
 2687 042a FC       		.byte	0xfc
 2688 042b B1000000 		.4byte	0xb1
 2689 042f 5C       		.byte	0x5c
 2690 0430 0A       		.uleb128 0xa
 2691 0431 2A030000 		.4byte	.LASF66
 2692 0435 05       		.byte	0x5
 2693 0436 FD       		.byte	0xfd
 2694 0437 81000000 		.4byte	0x81
 2695 043b 5E       		.byte	0x5e
 2696 043c 0A       		.uleb128 0xa
 2697 043d 3C020000 		.4byte	.LASF67
 2698 0441 05       		.byte	0x5
 2699 0442 FE       		.byte	0xfe
 2700 0443 81000000 		.4byte	0x81
 2701 0447 5F       		.byte	0x5f
 2702 0448 0A       		.uleb128 0xa
 2703 0449 5D000000 		.4byte	.LASF68
 2704 044d 05       		.byte	0x5
 2705 044e FF       		.byte	0xff
 2706 044f 81000000 		.4byte	0x81
 2707 0453 60       		.byte	0x60
 2708 0454 0B       		.uleb128 0xb
 2709 0455 7A080000 		.4byte	.LASF69
 2710 0459 05       		.byte	0x5
 2711 045a 0001     		.2byte	0x100
 2712 045c 81000000 		.4byte	0x81
 2713 0460 61       		.byte	0x61
 2714 0461 0B       		.uleb128 0xb
 2715 0462 F9010000 		.4byte	.LASF70
ARM GAS  C:\Users\MattiaCP\AppData\Local\Temp\cc5xw3YS.s 			page 59


 2716 0466 05       		.byte	0x5
 2717 0467 0101     		.2byte	0x101
 2718 0469 81000000 		.4byte	0x81
 2719 046d 62       		.byte	0x62
 2720 046e 0B       		.uleb128 0xb
 2721 046f 6B040000 		.4byte	.LASF45
 2722 0473 05       		.byte	0x5
 2723 0474 0201     		.2byte	0x102
 2724 0476 8C040000 		.4byte	0x48c
 2725 047a 63       		.byte	0x63
 2726 047b 00       		.byte	0
 2727 047c 06       		.uleb128 0x6
 2728 047d D5000000 		.4byte	0xd5
 2729 0481 8C040000 		.4byte	0x48c
 2730 0485 07       		.uleb128 0x7
 2731 0486 F1000000 		.4byte	0xf1
 2732 048a 05       		.byte	0x5
 2733 048b 00       		.byte	0
 2734 048c 06       		.uleb128 0x6
 2735 048d 81000000 		.4byte	0x81
 2736 0491 9C040000 		.4byte	0x49c
 2737 0495 07       		.uleb128 0x7
 2738 0496 F1000000 		.4byte	0xf1
 2739 049a 0C       		.byte	0xc
 2740 049b 00       		.byte	0
 2741 049c 0C       		.uleb128 0xc
 2742 049d EE050000 		.4byte	.LASF71
 2743 04a1 30       		.byte	0x30
 2744 04a2 05       		.byte	0x5
 2745 04a3 0501     		.2byte	0x105
 2746 04a5 05050000 		.4byte	0x505
 2747 04a9 0B       		.uleb128 0xb
 2748 04aa 0C040000 		.4byte	.LASF72
 2749 04ae 05       		.byte	0x5
 2750 04af 0601     		.2byte	0x106
 2751 04b1 0C030000 		.4byte	0x30c
 2752 04b5 00       		.byte	0
 2753 04b6 0D       		.uleb128 0xd
 2754 04b7 72657300 		.ascii	"res\000"
 2755 04bb 05       		.byte	0x5
 2756 04bc 0701     		.2byte	0x107
 2757 04be FC020000 		.4byte	0x2fc
 2758 04c2 05       		.byte	0x5
 2759 04c3 0B       		.uleb128 0xb
 2760 04c4 57000000 		.4byte	.LASF73
 2761 04c8 05       		.byte	0x5
 2762 04c9 0801     		.2byte	0x108
 2763 04cb 9A010000 		.4byte	0x19a
 2764 04cf 08       		.byte	0x8
 2765 04d0 0B       		.uleb128 0xb
 2766 04d1 BD050000 		.4byte	.LASF74
 2767 04d5 05       		.byte	0x5
 2768 04d6 0901     		.2byte	0x109
 2769 04d8 05050000 		.4byte	0x505
 2770 04dc 14       		.byte	0x14
 2771 04dd 0B       		.uleb128 0xb
 2772 04de 22080000 		.4byte	.LASF75
ARM GAS  C:\Users\MattiaCP\AppData\Local\Temp\cc5xw3YS.s 			page 60


 2773 04e2 05       		.byte	0x5
 2774 04e3 0A01     		.2byte	0x10a
 2775 04e5 81000000 		.4byte	0x81
 2776 04e9 20       		.byte	0x20
 2777 04ea 0B       		.uleb128 0xb
 2778 04eb 74030000 		.4byte	.LASF76
 2779 04ef 05       		.byte	0x5
 2780 04f0 0B01     		.2byte	0x10b
 2781 04f2 A5000000 		.4byte	0xa5
 2782 04f6 21       		.byte	0x21
 2783 04f7 0B       		.uleb128 0xb
 2784 04f8 6B040000 		.4byte	.LASF45
 2785 04fc 05       		.byte	0x5
 2786 04fd 0C01     		.2byte	0x10c
 2787 04ff 15050000 		.4byte	0x515
 2788 0503 22       		.byte	0x22
 2789 0504 00       		.byte	0
 2790 0505 06       		.uleb128 0x6
 2791 0506 C9000000 		.4byte	0xc9
 2792 050a 15050000 		.4byte	0x515
 2793 050e 07       		.uleb128 0x7
 2794 050f F1000000 		.4byte	0xf1
 2795 0513 02       		.byte	0x2
 2796 0514 00       		.byte	0
 2797 0515 06       		.uleb128 0x6
 2798 0516 81000000 		.4byte	0x81
 2799 051a 25050000 		.4byte	0x525
 2800 051e 07       		.uleb128 0x7
 2801 051f F1000000 		.4byte	0xf1
 2802 0523 0D       		.byte	0xd
 2803 0524 00       		.byte	0
 2804 0525 0C       		.uleb128 0xc
 2805 0526 50060000 		.4byte	.LASF77
 2806 052a 10       		.byte	0x10
 2807 052b 05       		.byte	0x5
 2808 052c 0F01     		.2byte	0x10f
 2809 052e 81050000 		.4byte	0x581
 2810 0532 0B       		.uleb128 0xb
 2811 0533 72010000 		.4byte	.LASF78
 2812 0537 05       		.byte	0x5
 2813 0538 1001     		.2byte	0x110
 2814 053a 81050000 		.4byte	0x581
 2815 053e 00       		.byte	0
 2816 053f 0B       		.uleb128 0xb
 2817 0540 78050000 		.4byte	.LASF79
 2818 0544 05       		.byte	0x5
 2819 0545 1101     		.2byte	0x111
 2820 0547 60020000 		.4byte	0x260
 2821 054b 04       		.byte	0x4
 2822 054c 0B       		.uleb128 0xb
 2823 054d 9D070000 		.4byte	.LASF80
 2824 0551 05       		.byte	0x5
 2825 0552 1201     		.2byte	0x112
 2826 0554 81000000 		.4byte	0x81
 2827 0558 0C       		.byte	0xc
 2828 0559 0B       		.uleb128 0xb
 2829 055a 4A070000 		.4byte	.LASF81
ARM GAS  C:\Users\MattiaCP\AppData\Local\Temp\cc5xw3YS.s 			page 61


 2830 055e 05       		.byte	0x5
 2831 055f 1301     		.2byte	0x113
 2832 0561 81000000 		.4byte	0x81
 2833 0565 0D       		.byte	0xd
 2834 0566 0B       		.uleb128 0xb
 2835 0567 65070000 		.4byte	.LASF82
 2836 056b 05       		.byte	0x5
 2837 056c 1401     		.2byte	0x114
 2838 056e 81000000 		.4byte	0x81
 2839 0572 0E       		.byte	0xe
 2840 0573 0B       		.uleb128 0xb
 2841 0574 6B040000 		.4byte	.LASF45
 2842 0578 05       		.byte	0x5
 2843 0579 1501     		.2byte	0x115
 2844 057b 91050000 		.4byte	0x591
 2845 057f 0F       		.byte	0xf
 2846 0580 00       		.byte	0
 2847 0581 06       		.uleb128 0x6
 2848 0582 8D000000 		.4byte	0x8d
 2849 0586 91050000 		.4byte	0x591
 2850 058a 07       		.uleb128 0x7
 2851 058b F1000000 		.4byte	0xf1
 2852 058f 01       		.byte	0x1
 2853 0590 00       		.byte	0
 2854 0591 06       		.uleb128 0x6
 2855 0592 81000000 		.4byte	0x81
 2856 0596 A1050000 		.4byte	0x5a1
 2857 059a 07       		.uleb128 0x7
 2858 059b F1000000 		.4byte	0xf1
 2859 059f 00       		.byte	0
 2860 05a0 00       		.byte	0
 2861 05a1 0C       		.uleb128 0xc
 2862 05a2 27000000 		.4byte	.LASF83
 2863 05a6 20       		.byte	0x20
 2864 05a7 05       		.byte	0x5
 2865 05a8 1801     		.2byte	0x118
 2866 05aa E3050000 		.4byte	0x5e3
 2867 05ae 0B       		.uleb128 0xb
 2868 05af 86070000 		.4byte	.LASF84
 2869 05b3 05       		.byte	0x5
 2870 05b4 1901     		.2byte	0x119
 2871 05b6 81000000 		.4byte	0x81
 2872 05ba 00       		.byte	0
 2873 05bb 0B       		.uleb128 0xb
 2874 05bc 7D020000 		.4byte	.LASF85
 2875 05c0 05       		.byte	0x5
 2876 05c1 1A01     		.2byte	0x11a
 2877 05c3 81000000 		.4byte	0x81
 2878 05c7 01       		.byte	0x1
 2879 05c8 0B       		.uleb128 0xb
 2880 05c9 B6040000 		.4byte	.LASF86
 2881 05cd 05       		.byte	0x5
 2882 05ce 1B01     		.2byte	0x11b
 2883 05d0 E3050000 		.4byte	0x5e3
 2884 05d4 02       		.byte	0x2
 2885 05d5 0B       		.uleb128 0xb
 2886 05d6 6B040000 		.4byte	.LASF45
ARM GAS  C:\Users\MattiaCP\AppData\Local\Temp\cc5xw3YS.s 			page 62


 2887 05da 05       		.byte	0x5
 2888 05db 1C01     		.2byte	0x11c
 2889 05dd 0C030000 		.4byte	0x30c
 2890 05e1 1B       		.byte	0x1b
 2891 05e2 00       		.byte	0
 2892 05e3 06       		.uleb128 0x6
 2893 05e4 81000000 		.4byte	0x81
 2894 05e8 F9050000 		.4byte	0x5f9
 2895 05ec 07       		.uleb128 0x7
 2896 05ed F1000000 		.4byte	0xf1
 2897 05f1 04       		.byte	0x4
 2898 05f2 07       		.uleb128 0x7
 2899 05f3 F1000000 		.4byte	0xf1
 2900 05f7 04       		.byte	0x4
 2901 05f8 00       		.byte	0
 2902 05f9 0C       		.uleb128 0xc
 2903 05fa CF060000 		.4byte	.LASF87
 2904 05fe 20       		.byte	0x20
 2905 05ff 05       		.byte	0x5
 2906 0600 1F01     		.2byte	0x11f
 2907 0602 55060000 		.4byte	0x655
 2908 0606 0B       		.uleb128 0xb
 2909 0607 68050000 		.4byte	.LASF88
 2910 060b 05       		.byte	0x5
 2911 060c 2001     		.2byte	0x120
 2912 060e 55060000 		.4byte	0x655
 2913 0612 00       		.byte	0
 2914 0613 0B       		.uleb128 0xb
 2915 0614 BF040000 		.4byte	.LASF89
 2916 0618 05       		.byte	0x5
 2917 0619 2101     		.2byte	0x121
 2918 061b F8000000 		.4byte	0xf8
 2919 061f 06       		.byte	0x6
 2920 0620 0B       		.uleb128 0xb
 2921 0621 DC070000 		.4byte	.LASF90
 2922 0625 05       		.byte	0x5
 2923 0626 2201     		.2byte	0x122
 2924 0628 81000000 		.4byte	0x81
 2925 062c 0E       		.byte	0xe
 2926 062d 0B       		.uleb128 0xb
 2927 062e DD030000 		.4byte	.LASF91
 2928 0632 05       		.byte	0x5
 2929 0633 2301     		.2byte	0x123
 2930 0635 81000000 		.4byte	0x81
 2931 0639 0F       		.byte	0xf
 2932 063a 0B       		.uleb128 0xb
 2933 063b D1050000 		.4byte	.LASF92
 2934 063f 05       		.byte	0x5
 2935 0640 2401     		.2byte	0x124
 2936 0642 65060000 		.4byte	0x665
 2937 0646 10       		.byte	0x10
 2938 0647 0B       		.uleb128 0xb
 2939 0648 6B040000 		.4byte	.LASF45
 2940 064c 05       		.byte	0x5
 2941 064d 2501     		.2byte	0x125
 2942 064f 75060000 		.4byte	0x675
 2943 0653 1C       		.byte	0x1c
ARM GAS  C:\Users\MattiaCP\AppData\Local\Temp\cc5xw3YS.s 			page 63


 2944 0654 00       		.byte	0
 2945 0655 06       		.uleb128 0x6
 2946 0656 81000000 		.4byte	0x81
 2947 065a 65060000 		.4byte	0x665
 2948 065e 07       		.uleb128 0x7
 2949 065f F1000000 		.4byte	0xf1
 2950 0663 05       		.byte	0x5
 2951 0664 00       		.byte	0
 2952 0665 06       		.uleb128 0x6
 2953 0666 81000000 		.4byte	0x81
 2954 066a 75060000 		.4byte	0x675
 2955 066e 07       		.uleb128 0x7
 2956 066f F1000000 		.4byte	0xf1
 2957 0673 0B       		.byte	0xb
 2958 0674 00       		.byte	0
 2959 0675 06       		.uleb128 0x6
 2960 0676 81000000 		.4byte	0x81
 2961 067a 85060000 		.4byte	0x685
 2962 067e 07       		.uleb128 0x7
 2963 067f F1000000 		.4byte	0xf1
 2964 0683 03       		.byte	0x3
 2965 0684 00       		.byte	0
 2966 0685 0C       		.uleb128 0xc
 2967 0686 EF070000 		.4byte	.LASF93
 2968 068a 10       		.byte	0x10
 2969 068b 05       		.byte	0x5
 2970 068c 2801     		.2byte	0x128
 2971 068e D4060000 		.4byte	0x6d4
 2972 0692 0B       		.uleb128 0xb
 2973 0693 46050000 		.4byte	.LASF94
 2974 0697 05       		.byte	0x5
 2975 0698 2901     		.2byte	0x129
 2976 069a BD000000 		.4byte	0xbd
 2977 069e 00       		.byte	0
 2978 069f 0B       		.uleb128 0xb
 2979 06a0 38070000 		.4byte	.LASF95
 2980 06a4 05       		.byte	0x5
 2981 06a5 2A01     		.2byte	0x12a
 2982 06a7 BD000000 		.4byte	0xbd
 2983 06ab 04       		.byte	0x4
 2984 06ac 0B       		.uleb128 0xb
 2985 06ad 69010000 		.4byte	.LASF96
 2986 06b1 05       		.byte	0x5
 2987 06b2 2B01     		.2byte	0x12b
 2988 06b4 BD000000 		.4byte	0xbd
 2989 06b8 08       		.byte	0x8
 2990 06b9 0B       		.uleb128 0xb
 2991 06ba ED060000 		.4byte	.LASF97
 2992 06be 05       		.byte	0x5
 2993 06bf 2C01     		.2byte	0x12c
 2994 06c1 81000000 		.4byte	0x81
 2995 06c5 0C       		.byte	0xc
 2996 06c6 0B       		.uleb128 0xb
 2997 06c7 6B040000 		.4byte	.LASF45
 2998 06cb 05       		.byte	0x5
 2999 06cc 2D01     		.2byte	0x12d
 3000 06ce FC020000 		.4byte	0x2fc
ARM GAS  C:\Users\MattiaCP\AppData\Local\Temp\cc5xw3YS.s 			page 64


 3001 06d2 0D       		.byte	0xd
 3002 06d3 00       		.byte	0
 3003 06d4 0E       		.uleb128 0xe
 3004 06d5 AF020000 		.4byte	.LASF98
 3005 06d9 8402     		.2byte	0x284
 3006 06db 05       		.byte	0x5
 3007 06dc 3201     		.2byte	0x132
 3008 06de 92070000 		.4byte	0x792
 3009 06e2 0B       		.uleb128 0xb
 3010 06e3 F9050000 		.4byte	.LASF99
 3011 06e7 05       		.byte	0x5
 3012 06e8 3401     		.2byte	0x134
 3013 06ea 81000000 		.4byte	0x81
 3014 06ee 00       		.byte	0
 3015 06ef 0B       		.uleb128 0xb
 3016 06f0 6B040000 		.4byte	.LASF45
 3017 06f4 05       		.byte	0x5
 3018 06f5 3501     		.2byte	0x135
 3019 06f7 92070000 		.4byte	0x792
 3020 06fb 01       		.byte	0x1
 3021 06fc 0D       		.uleb128 0xd
 3022 06fd 636E7400 		.ascii	"cnt\000"
 3023 0701 05       		.byte	0x5
 3024 0702 3601     		.2byte	0x136
 3025 0704 FF010000 		.4byte	0x1ff
 3026 0708 10       		.byte	0x10
 3027 0709 0B       		.uleb128 0xb
 3028 070a 49020000 		.4byte	.LASF100
 3029 070e 05       		.byte	0x5
 3030 070f 3701     		.2byte	0x137
 3031 0711 A2070000 		.4byte	0x7a2
 3032 0715 60       		.byte	0x60
 3033 0716 0D       		.uleb128 0xd
 3034 0717 64657600 		.ascii	"dev\000"
 3035 071b 05       		.byte	0x5
 3036 071c 3801     		.2byte	0x138
 3037 071e 90020000 		.4byte	0x290
 3038 0722 A0       		.byte	0xa0
 3039 0723 0B       		.uleb128 0xb
 3040 0724 91050000 		.4byte	.LASF101
 3041 0728 05       		.byte	0x5
 3042 0729 3901     		.2byte	0x139
 3043 072b B2070000 		.4byte	0x7b2
 3044 072f B0       		.byte	0xb0
 3045 0730 0F       		.uleb128 0xf
 3046 0731 656E6300 		.ascii	"enc\000"
 3047 0735 05       		.byte	0x5
 3048 0736 3A01     		.2byte	0x13a
 3049 0738 C2070000 		.4byte	0x7c2
 3050 073c 9001     		.2byte	0x190
 3051 073e 0F       		.uleb128 0xf
 3052 073f 656D6700 		.ascii	"emg\000"
 3053 0743 05       		.byte	0x5
 3054 0744 3B01     		.2byte	0x13b
 3055 0746 25050000 		.4byte	0x525
 3056 074a F001     		.2byte	0x1f0
 3057 074c 0F       		.uleb128 0xf
ARM GAS  C:\Users\MattiaCP\AppData\Local\Temp\cc5xw3YS.s 			page 65


 3058 074d 696D7500 		.ascii	"imu\000"
 3059 0751 05       		.byte	0x5
 3060 0752 3C01     		.2byte	0x13c
 3061 0754 A1050000 		.4byte	0x5a1
 3062 0758 0002     		.2byte	0x200
 3063 075a 0F       		.uleb128 0xf
 3064 075b 65787000 		.ascii	"exp\000"
 3065 075f 05       		.byte	0x5
 3066 0760 3D01     		.2byte	0x13d
 3067 0762 F9050000 		.4byte	0x5f9
 3068 0766 2002     		.2byte	0x220
 3069 0768 0F       		.uleb128 0xf
 3070 0769 534800   		.ascii	"SH\000"
 3071 076c 05       		.byte	0x5
 3072 076d 4001     		.2byte	0x140
 3073 076f 85060000 		.4byte	0x685
 3074 0773 4002     		.2byte	0x240
 3075 0775 10       		.uleb128 0x10
 3076 0776 98020000 		.4byte	.LASF102
 3077 077a 05       		.byte	0x5
 3078 077b 4401     		.2byte	0x144
 3079 077d 81000000 		.4byte	0x81
 3080 0781 5002     		.2byte	0x250
 3081 0783 10       		.uleb128 0x10
 3082 0784 70070000 		.4byte	.LASF103
 3083 0788 05       		.byte	0x5
 3084 0789 4501     		.2byte	0x145
 3085 078b D2070000 		.4byte	0x7d2
 3086 078f 5402     		.2byte	0x254
 3087 0791 00       		.byte	0
 3088 0792 06       		.uleb128 0x6
 3089 0793 81000000 		.4byte	0x81
 3090 0797 A2070000 		.4byte	0x7a2
 3091 079b 07       		.uleb128 0x7
 3092 079c F1000000 		.4byte	0xf1
 3093 07a0 0E       		.byte	0xe
 3094 07a1 00       		.byte	0
 3095 07a2 06       		.uleb128 0x6
 3096 07a3 81000000 		.4byte	0x81
 3097 07a7 B2070000 		.4byte	0x7b2
 3098 07ab 07       		.uleb128 0x7
 3099 07ac F1000000 		.4byte	0xf1
 3100 07b0 3F       		.byte	0x3f
 3101 07b1 00       		.byte	0
 3102 07b2 06       		.uleb128 0x6
 3103 07b3 1C030000 		.4byte	0x31c
 3104 07b7 C2070000 		.4byte	0x7c2
 3105 07bb 07       		.uleb128 0x7
 3106 07bc F1000000 		.4byte	0xf1
 3107 07c0 01       		.byte	0x1
 3108 07c1 00       		.byte	0
 3109 07c2 06       		.uleb128 0x6
 3110 07c3 9C040000 		.4byte	0x49c
 3111 07c7 D2070000 		.4byte	0x7d2
 3112 07cb 07       		.uleb128 0x7
 3113 07cc F1000000 		.4byte	0xf1
 3114 07d0 01       		.byte	0x1
ARM GAS  C:\Users\MattiaCP\AppData\Local\Temp\cc5xw3YS.s 			page 66


 3115 07d1 00       		.byte	0
 3116 07d2 06       		.uleb128 0x6
 3117 07d3 25050000 		.4byte	0x525
 3118 07d7 E2070000 		.4byte	0x7e2
 3119 07db 07       		.uleb128 0x7
 3120 07dc F1000000 		.4byte	0xf1
 3121 07e0 02       		.byte	0x2
 3122 07e1 00       		.byte	0
 3123 07e2 0C       		.uleb128 0xc
 3124 07e3 E4050000 		.4byte	.LASF104
 3125 07e7 08       		.byte	0x8
 3126 07e8 05       		.byte	0x5
 3127 07e9 5D01     		.2byte	0x15d
 3128 07eb 0A080000 		.4byte	0x80a
 3129 07ef 0B       		.uleb128 0xb
 3130 07f0 EF010000 		.4byte	.LASF105
 3131 07f4 05       		.byte	0x5
 3132 07f5 5E01     		.2byte	0x15e
 3133 07f7 BD000000 		.4byte	0xbd
 3134 07fb 00       		.byte	0
 3135 07fc 0B       		.uleb128 0xb
 3136 07fd 9D050000 		.4byte	.LASF106
 3137 0801 05       		.byte	0x5
 3138 0802 5F01     		.2byte	0x15f
 3139 0804 BD000000 		.4byte	0xbd
 3140 0808 04       		.byte	0x4
 3141 0809 00       		.byte	0
 3142 080a 0C       		.uleb128 0xc
 3143 080b 2E060000 		.4byte	.LASF107
 3144 080f 06       		.byte	0x6
 3145 0810 05       		.byte	0x5
 3146 0811 6601     		.2byte	0x166
 3147 0813 4C080000 		.4byte	0x84c
 3148 0817 0B       		.uleb128 0xb
 3149 0818 64060000 		.4byte	.LASF108
 3150 081c 05       		.byte	0x5
 3151 081d 6701     		.2byte	0x167
 3152 081f 81000000 		.4byte	0x81
 3153 0823 00       		.byte	0
 3154 0824 0B       		.uleb128 0xb
 3155 0825 6A000000 		.4byte	.LASF109
 3156 0829 05       		.byte	0x5
 3157 082a 6801     		.2byte	0x168
 3158 082c 81000000 		.4byte	0x81
 3159 0830 01       		.byte	0x1
 3160 0831 0B       		.uleb128 0xb
 3161 0832 FA070000 		.4byte	.LASF110
 3162 0836 05       		.byte	0x5
 3163 0837 6901     		.2byte	0x169
 3164 0839 B1000000 		.4byte	0xb1
 3165 083d 02       		.byte	0x2
 3166 083e 0B       		.uleb128 0xb
 3167 083f D2020000 		.4byte	.LASF111
 3168 0843 05       		.byte	0x5
 3169 0844 6A01     		.2byte	0x16a
 3170 0846 B1000000 		.4byte	0xb1
 3171 084a 04       		.byte	0x4
ARM GAS  C:\Users\MattiaCP\AppData\Local\Temp\cc5xw3YS.s 			page 67


 3172 084b 00       		.byte	0
 3173 084c 11       		.uleb128 0x11
 3174 084d 01       		.byte	0x1
 3175 084e 2C000000 		.4byte	0x2c
 3176 0852 05       		.byte	0x5
 3177 0853 6E01     		.2byte	0x16e
 3178 0855 7E080000 		.4byte	0x87e
 3179 0859 12       		.uleb128 0x12
 3180 085a A1020000 		.4byte	.LASF112
 3181 085e 00       		.byte	0
 3182 085f 12       		.uleb128 0x12
 3183 0860 97050000 		.4byte	.LASF113
 3184 0864 01       		.byte	0x1
 3185 0865 12       		.uleb128 0x12
 3186 0866 27070000 		.4byte	.LASF114
 3187 086a 02       		.byte	0x2
 3188 086b 12       		.uleb128 0x12
 3189 086c 70020000 		.4byte	.LASF115
 3190 0870 03       		.byte	0x3
 3191 0871 12       		.uleb128 0x12
 3192 0872 C4070000 		.4byte	.LASF116
 3193 0876 04       		.byte	0x4
 3194 0877 12       		.uleb128 0x12
 3195 0878 94070000 		.4byte	.LASF117
 3196 087c 05       		.byte	0x5
 3197 087d 00       		.byte	0
 3198 087e 05       		.uleb128 0x5
 3199 087f FE050000 		.4byte	.LASF118
 3200 0883 05       		.byte	0x5
 3201 0884 7601     		.2byte	0x176
 3202 0886 4C080000 		.4byte	0x84c
 3203 088a 13       		.uleb128 0x13
 3204 088b 9A010000 		.4byte	.LASF122
 3205 088f 01       		.byte	0x1
 3206 0890 33       		.byte	0x33
 3207 0891 BD000000 		.4byte	0xbd
 3208 0895 00000000 		.4byte	.LFB64
 3209 0899 70020000 		.4byte	.LFE64-.LFB64
 3210 089d 01       		.uleb128 0x1
 3211 089e 9C       		.byte	0x9c
 3212 089f 0C090000 		.4byte	0x90c
 3213 08a3 14       		.uleb128 0x14
 3214 08a4 69647800 		.ascii	"idx\000"
 3215 08a8 01       		.byte	0x1
 3216 08a9 33       		.byte	0x33
 3217 08aa 81000000 		.4byte	0x81
 3218 08ae 02       		.uleb128 0x2
 3219 08af 91       		.byte	0x91
 3220 08b0 67       		.sleb128 -25
 3221 08b1 14       		.uleb128 0x14
 3222 08b2 706F7300 		.ascii	"pos\000"
 3223 08b6 01       		.byte	0x1
 3224 08b7 33       		.byte	0x33
 3225 08b8 BD000000 		.4byte	0xbd
 3226 08bc 02       		.uleb128 0x2
 3227 08bd 91       		.byte	0x91
 3228 08be 60       		.sleb128 -32
ARM GAS  C:\Users\MattiaCP\AppData\Local\Temp\cc5xw3YS.s 			page 68


 3229 08bf 14       		.uleb128 0x14
 3230 08c0 76656C00 		.ascii	"vel\000"
 3231 08c4 01       		.byte	0x1
 3232 08c5 33       		.byte	0x33
 3233 08c6 BD000000 		.4byte	0xbd
 3234 08ca 02       		.uleb128 0x2
 3235 08cb 91       		.byte	0x91
 3236 08cc 5C       		.sleb128 -36
 3237 08cd 14       		.uleb128 0x14
 3238 08ce 72656600 		.ascii	"ref\000"
 3239 08d2 01       		.byte	0x1
 3240 08d3 33       		.byte	0x33
 3241 08d4 BD000000 		.4byte	0xbd
 3242 08d8 02       		.uleb128 0x2
 3243 08d9 91       		.byte	0x91
 3244 08da 58       		.sleb128 -40
 3245 08db 15       		.uleb128 0x15
 3246 08dc 38040000 		.4byte	.LASF119
 3247 08e0 01       		.byte	0x1
 3248 08e1 35       		.byte	0x35
 3249 08e2 DF010000 		.4byte	0x1df
 3250 08e6 05       		.uleb128 0x5
 3251 08e7 03       		.byte	0x3
 3252 08e8 00000000 		.4byte	virtual_pos_friction.10130
 3253 08ec 15       		.uleb128 0x15
 3254 08ed CD010000 		.4byte	.LASF120
 3255 08f1 01       		.byte	0x1
 3256 08f2 36       		.byte	0x36
 3257 08f3 DF010000 		.4byte	0x1df
 3258 08f7 05       		.uleb128 0x5
 3259 08f8 03       		.byte	0x3
 3260 08f9 08000000 		.4byte	err_pos_dt.10131
 3261 08fd 15       		.uleb128 0x15
 3262 08fe AA050000 		.4byte	.LASF121
 3263 0902 01       		.byte	0x1
 3264 0903 38       		.byte	0x38
 3265 0904 BD000000 		.4byte	0xbd
 3266 0908 02       		.uleb128 0x2
 3267 0909 91       		.byte	0x91
 3268 090a 6C       		.sleb128 -20
 3269 090b 00       		.byte	0
 3270 090c 16       		.uleb128 0x16
 3271 090d 43070000 		.4byte	.LASF123
 3272 0911 01       		.byte	0x1
 3273 0912 57       		.byte	0x57
 3274 0913 BD000000 		.4byte	0xbd
 3275 0917 00000000 		.4byte	.LFB65
 3276 091b 4E000000 		.4byte	.LFE65-.LFB65
 3277 091f 01       		.uleb128 0x1
 3278 0920 9C       		.byte	0x9c
 3279 0921 4E090000 		.4byte	0x94e
 3280 0925 17       		.uleb128 0x17
 3281 0926 BF020000 		.4byte	.LASF124
 3282 092a 01       		.byte	0x1
 3283 092b 57       		.byte	0x57
 3284 092c BD000000 		.4byte	0xbd
 3285 0930 02       		.uleb128 0x2
ARM GAS  C:\Users\MattiaCP\AppData\Local\Temp\cc5xw3YS.s 			page 69


 3286 0931 91       		.byte	0x91
 3287 0932 6C       		.sleb128 -20
 3288 0933 14       		.uleb128 0x14
 3289 0934 6600     		.ascii	"f\000"
 3290 0936 01       		.byte	0x1
 3291 0937 57       		.byte	0x57
 3292 0938 4E090000 		.4byte	0x94e
 3293 093c 02       		.uleb128 0x2
 3294 093d 91       		.byte	0x91
 3295 093e 68       		.sleb128 -24
 3296 093f 18       		.uleb128 0x18
 3297 0940 61757800 		.ascii	"aux\000"
 3298 0944 01       		.byte	0x1
 3299 0945 59       		.byte	0x59
 3300 0946 BD000000 		.4byte	0xbd
 3301 094a 02       		.uleb128 0x2
 3302 094b 91       		.byte	0x91
 3303 094c 74       		.sleb128 -12
 3304 094d 00       		.byte	0
 3305 094e 19       		.uleb128 0x19
 3306 094f 04       		.byte	0x4
 3307 0950 E2070000 		.4byte	0x7e2
 3308 0954 16       		.uleb128 0x16
 3309 0955 62010000 		.4byte	.LASF125
 3310 0959 01       		.byte	0x1
 3311 095a 66       		.byte	0x66
 3312 095b 99000000 		.4byte	0x99
 3313 095f 00000000 		.4byte	.LFB66
 3314 0963 50000000 		.4byte	.LFE66-.LFB66
 3315 0967 01       		.uleb128 0x1
 3316 0968 9C       		.byte	0x9c
 3317 0969 8A090000 		.4byte	0x98a
 3318 096d 14       		.uleb128 0x14
 3319 096e 76616C00 		.ascii	"val\000"
 3320 0972 01       		.byte	0x1
 3321 0973 66       		.byte	0x66
 3322 0974 BD000000 		.4byte	0xbd
 3323 0978 02       		.uleb128 0x2
 3324 0979 91       		.byte	0x91
 3325 097a 74       		.sleb128 -12
 3326 097b 17       		.uleb128 0x17
 3327 097c 11050000 		.4byte	.LASF126
 3328 0980 01       		.byte	0x1
 3329 0981 66       		.byte	0x66
 3330 0982 BD000000 		.4byte	0xbd
 3331 0986 02       		.uleb128 0x2
 3332 0987 91       		.byte	0x91
 3333 0988 70       		.sleb128 -16
 3334 0989 00       		.byte	0
 3335 098a 1A       		.uleb128 0x1a
 3336 098b 34050000 		.4byte	.LASF131
 3337 098f 01       		.byte	0x1
 3338 0990 74       		.byte	0x74
 3339 0991 00000000 		.4byte	.LFB67
 3340 0995 D4000000 		.4byte	.LFE67-.LFB67
 3341 0999 01       		.uleb128 0x1
 3342 099a 9C       		.byte	0x9c
ARM GAS  C:\Users\MattiaCP\AppData\Local\Temp\cc5xw3YS.s 			page 70


 3343 099b C2090000 		.4byte	0x9c2
 3344 099f 15       		.uleb128 0x15
 3345 09a0 6A000000 		.4byte	.LASF109
 3346 09a4 01       		.byte	0x1
 3347 09a5 75       		.byte	0x75
 3348 09a6 81000000 		.4byte	0x81
 3349 09aa 05       		.uleb128 0x5
 3350 09ab 03       		.byte	0x3
 3351 09ac 10000000 		.4byte	direction.10145
 3352 09b0 15       		.uleb128 0x15
 3353 09b1 2E000000 		.4byte	.LASF127
 3354 09b5 01       		.byte	0x1
 3355 09b6 76       		.byte	0x76
 3356 09b7 8D000000 		.4byte	0x8d
 3357 09bb 05       		.uleb128 0x5
 3358 09bc 03       		.byte	0x3
 3359 09bd 12000000 		.4byte	closure_counter.10146
 3360 09c1 00       		.byte	0
 3361 09c2 13       		.uleb128 0x13
 3362 09c3 45080000 		.4byte	.LASF128
 3363 09c7 01       		.byte	0x1
 3364 09c8 B1       		.byte	0xb1
 3365 09c9 68000000 		.4byte	0x68
 3366 09cd 00000000 		.4byte	.LFB68
 3367 09d1 B0000000 		.4byte	.LFE68-.LFB68
 3368 09d5 01       		.uleb128 0x1
 3369 09d6 9C       		.byte	0x9c
 3370 09d7 120A0000 		.4byte	0xa12
 3371 09db 17       		.uleb128 0x17
 3372 09dc 40030000 		.4byte	.LASF129
 3373 09e0 01       		.byte	0x1
 3374 09e1 B1       		.byte	0xb1
 3375 09e2 120A0000 		.4byte	0xa12
 3376 09e6 02       		.uleb128 0x2
 3377 09e7 91       		.byte	0x91
 3378 09e8 6C       		.sleb128 -20
 3379 09e9 17       		.uleb128 0x17
 3380 09ea 45030000 		.4byte	.LASF130
 3381 09ee 01       		.byte	0x1
 3382 09ef B1       		.byte	0xb1
 3383 09f0 120A0000 		.4byte	0xa12
 3384 09f4 02       		.uleb128 0x2
 3385 09f5 91       		.byte	0x91
 3386 09f6 68       		.sleb128 -24
 3387 09f7 18       		.uleb128 0x18
 3388 09f8 7800     		.ascii	"x\000"
 3389 09fa 01       		.byte	0x1
 3390 09fb B3       		.byte	0xb3
 3391 09fc BD000000 		.4byte	0xbd
 3392 0a00 02       		.uleb128 0x2
 3393 0a01 91       		.byte	0x91
 3394 0a02 70       		.sleb128 -16
 3395 0a03 18       		.uleb128 0x18
 3396 0a04 61757800 		.ascii	"aux\000"
 3397 0a08 01       		.byte	0x1
 3398 0a09 B4       		.byte	0xb4
 3399 0a0a BD000000 		.4byte	0xbd
ARM GAS  C:\Users\MattiaCP\AppData\Local\Temp\cc5xw3YS.s 			page 71


 3400 0a0e 02       		.uleb128 0x2
 3401 0a0f 91       		.byte	0x91
 3402 0a10 74       		.sleb128 -12
 3403 0a11 00       		.byte	0
 3404 0a12 1B       		.uleb128 0x1b
 3405 0a13 BD000000 		.4byte	0xbd
 3406 0a17 1C       		.uleb128 0x1c
 3407 0a18 A7070000 		.4byte	.LASF132
 3408 0a1c 01       		.byte	0x1
 3409 0a1d D4       		.byte	0xd4
 3410 0a1e 00000000 		.4byte	.LFB69
 3411 0a22 34030000 		.4byte	.LFE69-.LFB69
 3412 0a26 01       		.uleb128 0x1
 3413 0a27 9C       		.byte	0x9c
 3414 0a28 BE0A0000 		.4byte	0xabe
 3415 0a2c 15       		.uleb128 0x15
 3416 0a2d 00000000 		.4byte	.LASF133
 3417 0a31 01       		.byte	0x1
 3418 0a32 D6       		.byte	0xd6
 3419 0a33 99000000 		.4byte	0x99
 3420 0a37 05       		.uleb128 0x5
 3421 0a38 03       		.byte	0x3
 3422 0a39 14000000 		.4byte	count.10159
 3423 0a3d 15       		.uleb128 0x15
 3424 0a3e 86050000 		.4byte	.LASF134
 3425 0a42 01       		.byte	0x1
 3426 0a43 D7       		.byte	0xd7
 3427 0a44 81000000 		.4byte	0x81
 3428 0a48 05       		.uleb128 0x5
 3429 0a49 03       		.byte	0x3
 3430 0a4a 01000000 		.4byte	flag_count.10160
 3431 0a4e 15       		.uleb128 0x15
 3432 0a4f 23060000 		.4byte	.LASF135
 3433 0a53 01       		.byte	0x1
 3434 0a54 D8       		.byte	0xd8
 3435 0a55 81000000 		.4byte	0x81
 3436 0a59 05       		.uleb128 0x5
 3437 0a5a 03       		.byte	0x3
 3438 0a5b 00000000 		.4byte	first_time.10161
 3439 0a5f 18       		.uleb128 0x18
 3440 0a60 6D00     		.ascii	"m\000"
 3441 0a62 01       		.byte	0x1
 3442 0a63 D9       		.byte	0xd9
 3443 0a64 D5000000 		.4byte	0xd5
 3444 0a68 05       		.uleb128 0x5
 3445 0a69 03       		.byte	0x3
 3446 0a6a 18000000 		.4byte	m.10162
 3447 0a6e 15       		.uleb128 0x15
 3448 0a6f 9F030000 		.4byte	.LASF136
 3449 0a73 01       		.byte	0x1
 3450 0a74 DA       		.byte	0xda
 3451 0a75 BD000000 		.4byte	0xbd
 3452 0a79 05       		.uleb128 0x5
 3453 0a7a 03       		.byte	0x3
 3454 0a7b 1C000000 		.4byte	abs_err_thr.10163
 3455 0a7f 15       		.uleb128 0x15
 3456 0a80 58010000 		.4byte	.LASF137
ARM GAS  C:\Users\MattiaCP\AppData\Local\Temp\cc5xw3YS.s 			page 72


 3457 0a84 01       		.byte	0x1
 3458 0a85 DB       		.byte	0xdb
 3459 0a86 BD000000 		.4byte	0xbd
 3460 0a8a 05       		.uleb128 0x5
 3461 0a8b 03       		.byte	0x3
 3462 0a8c 24000000 		.4byte	delta_inc.10164
 3463 0a90 15       		.uleb128 0x15
 3464 0a91 96030000 		.4byte	.LASF138
 3465 0a95 01       		.byte	0x1
 3466 0a96 DC       		.byte	0xdc
 3467 0a97 BD000000 		.4byte	0xbd
 3468 0a9b 02       		.uleb128 0x2
 3469 0a9c 91       		.byte	0x91
 3470 0a9d 6C       		.sleb128 -20
 3471 0a9e 15       		.uleb128 0x15
 3472 0a9f 3E000000 		.4byte	.LASF139
 3473 0aa3 01       		.byte	0x1
 3474 0aa4 DD       		.byte	0xdd
 3475 0aa5 BD000000 		.4byte	0xbd
 3476 0aa9 05       		.uleb128 0x5
 3477 0aaa 03       		.byte	0x3
 3478 0aab 20000000 		.4byte	rest_error.10166
 3479 0aaf 15       		.uleb128 0x15
 3480 0ab0 00080000 		.4byte	.LASF140
 3481 0ab4 01       		.byte	0x1
 3482 0ab5 DE       		.byte	0xde
 3483 0ab6 D5000000 		.4byte	0xd5
 3484 0aba 02       		.uleb128 0x2
 3485 0abb 91       		.byte	0x91
 3486 0abc 68       		.sleb128 -24
 3487 0abd 00       		.byte	0
 3488 0abe 1D       		.uleb128 0x1d
 3489 0abf 30020000 		.4byte	.LASF141
 3490 0ac3 01       		.byte	0x1
 3491 0ac4 3301     		.2byte	0x133
 3492 0ac6 00000000 		.4byte	.LFB70
 3493 0aca 8E000000 		.4byte	.LFE70-.LFB70
 3494 0ace 01       		.uleb128 0x1
 3495 0acf 9C       		.byte	0x9c
 3496 0ad0 E40A0000 		.4byte	0xae4
 3497 0ad4 1E       		.uleb128 0x1e
 3498 0ad5 AE060000 		.4byte	.LASF142
 3499 0ad9 01       		.byte	0x1
 3500 0ada 3301     		.2byte	0x133
 3501 0adc 81000000 		.4byte	0x81
 3502 0ae0 02       		.uleb128 0x2
 3503 0ae1 91       		.byte	0x91
 3504 0ae2 77       		.sleb128 -9
 3505 0ae3 00       		.byte	0
 3506 0ae4 1F       		.uleb128 0x1f
 3507 0ae5 5D020000 		.4byte	.LASF145
 3508 0ae9 01       		.byte	0x1
 3509 0aea 5D01     		.2byte	0x15d
 3510 0aec 00000000 		.4byte	.LFB71
 3511 0af0 78020000 		.4byte	.LFE71-.LFB71
 3512 0af4 01       		.uleb128 0x1
 3513 0af5 9C       		.byte	0x9c
ARM GAS  C:\Users\MattiaCP\AppData\Local\Temp\cc5xw3YS.s 			page 73


 3514 0af6 0D0B0000 		.4byte	0xb0d
 3515 0afa 20       		.uleb128 0x20
 3516 0afb 09010000 		.4byte	.LASF143
 3517 0aff 01       		.byte	0x1
 3518 0b00 5E01     		.2byte	0x15e
 3519 0b02 99000000 		.4byte	0x99
 3520 0b06 05       		.uleb128 0x5
 3521 0b07 03       		.byte	0x3
 3522 0b08 28000000 		.4byte	v_count_lb.10181
 3523 0b0c 00       		.byte	0
 3524 0b0d 21       		.uleb128 0x21
 3525 0b0e BD030000 		.4byte	.LASF176
 3526 0b12 01       		.byte	0x1
 3527 0b13 B501     		.2byte	0x1b5
 3528 0b15 00000000 		.4byte	.LFB72
 3529 0b19 20000000 		.4byte	.LFE72-.LFB72
 3530 0b1d 01       		.uleb128 0x1
 3531 0b1e 9C       		.byte	0x9c
 3532 0b1f 1D       		.uleb128 0x1d
 3533 0b20 D8040000 		.4byte	.LASF144
 3534 0b24 01       		.byte	0x1
 3535 0b25 D601     		.2byte	0x1d6
 3536 0b27 00000000 		.4byte	.LFB73
 3537 0b2b 34000000 		.4byte	.LFE73-.LFB73
 3538 0b2f 01       		.uleb128 0x1
 3539 0b30 9C       		.byte	0x9c
 3540 0b31 540B0000 		.4byte	0xb54
 3541 0b35 22       		.uleb128 0x22
 3542 0b36 69647800 		.ascii	"idx\000"
 3543 0b3a 01       		.byte	0x1
 3544 0b3b D601     		.2byte	0x1d6
 3545 0b3d 81000000 		.4byte	0x81
 3546 0b41 02       		.uleb128 0x2
 3547 0b42 91       		.byte	0x91
 3548 0b43 77       		.sleb128 -9
 3549 0b44 22       		.uleb128 0x22
 3550 0b45 76616C00 		.ascii	"val\000"
 3551 0b49 01       		.byte	0x1
 3552 0b4a D601     		.2byte	0x1d6
 3553 0b4c 81000000 		.4byte	0x81
 3554 0b50 02       		.uleb128 0x2
 3555 0b51 91       		.byte	0x91
 3556 0b52 76       		.sleb128 -10
 3557 0b53 00       		.byte	0
 3558 0b54 23       		.uleb128 0x23
 3559 0b55 51030000 		.4byte	.LASF42
 3560 0b59 01       		.byte	0x1
 3561 0b5a E501     		.2byte	0x1e5
 3562 0b5c 00000000 		.4byte	.LFB74
 3563 0b60 78000000 		.4byte	.LFE74-.LFB74
 3564 0b64 01       		.uleb128 0x1
 3565 0b65 9C       		.byte	0x9c
 3566 0b66 780B0000 		.4byte	0xb78
 3567 0b6a 24       		.uleb128 0x24
 3568 0b6b 6900     		.ascii	"i\000"
 3569 0b6d 01       		.byte	0x1
 3570 0b6e E601     		.2byte	0x1e6
ARM GAS  C:\Users\MattiaCP\AppData\Local\Temp\cc5xw3YS.s 			page 74


 3571 0b70 81000000 		.4byte	0x81
 3572 0b74 02       		.uleb128 0x2
 3573 0b75 91       		.byte	0x91
 3574 0b76 77       		.sleb128 -9
 3575 0b77 00       		.byte	0
 3576 0b78 25       		.uleb128 0x25
 3577 0b79 87030000 		.4byte	.LASF146
 3578 0b7d 01       		.byte	0x1
 3579 0b7e FA01     		.2byte	0x1fa
 3580 0b80 D5000000 		.4byte	0xd5
 3581 0b84 00000000 		.4byte	.LFB75
 3582 0b88 78000000 		.4byte	.LFE75-.LFB75
 3583 0b8c 01       		.uleb128 0x1
 3584 0b8d 9C       		.byte	0x9c
 3585 0b8e C90B0000 		.4byte	0xbc9
 3586 0b92 22       		.uleb128 0x22
 3587 0b93 7800     		.ascii	"x\000"
 3588 0b95 01       		.byte	0x1
 3589 0b96 FA01     		.2byte	0x1fa
 3590 0b98 D5000000 		.4byte	0xd5
 3591 0b9c 02       		.uleb128 0x2
 3592 0b9d 91       		.byte	0x91
 3593 0b9e 64       		.sleb128 -28
 3594 0b9f 20       		.uleb128 0x20
 3595 0ba0 B9020000 		.4byte	.LASF147
 3596 0ba4 01       		.byte	0x1
 3597 0ba5 FB01     		.2byte	0x1fb
 3598 0ba7 D5000000 		.4byte	0xd5
 3599 0bab 02       		.uleb128 0x2
 3600 0bac 91       		.byte	0x91
 3601 0bad 74       		.sleb128 -12
 3602 0bae 24       		.uleb128 0x24
 3603 0baf 7900     		.ascii	"y\000"
 3604 0bb1 01       		.byte	0x1
 3605 0bb2 FC01     		.2byte	0x1fc
 3606 0bb4 D5000000 		.4byte	0xd5
 3607 0bb8 02       		.uleb128 0x2
 3608 0bb9 91       		.byte	0x91
 3609 0bba 70       		.sleb128 -16
 3610 0bbb 24       		.uleb128 0x24
 3611 0bbc 6900     		.ascii	"i\000"
 3612 0bbe 01       		.byte	0x1
 3613 0bbf FD01     		.2byte	0x1fd
 3614 0bc1 4C000000 		.4byte	0x4c
 3615 0bc5 02       		.uleb128 0x2
 3616 0bc6 91       		.byte	0x91
 3617 0bc7 6C       		.sleb128 -20
 3618 0bc8 00       		.byte	0
 3619 0bc9 1D       		.uleb128 0x1d
 3620 0bca C9070000 		.4byte	.LASF148
 3621 0bce 01       		.byte	0x1
 3622 0bcf 0702     		.2byte	0x207
 3623 0bd1 00000000 		.4byte	.LFB76
 3624 0bd5 B0000000 		.4byte	.LFE76-.LFB76
 3625 0bd9 01       		.uleb128 0x1
 3626 0bda 9C       		.byte	0x9c
 3627 0bdb FE0B0000 		.4byte	0xbfe
ARM GAS  C:\Users\MattiaCP\AppData\Local\Temp\cc5xw3YS.s 			page 75


 3628 0bdf 1E       		.uleb128 0x1e
 3629 0be0 B5010000 		.4byte	.LASF149
 3630 0be4 01       		.byte	0x1
 3631 0be5 0702     		.2byte	0x207
 3632 0be7 FE0B0000 		.4byte	0xbfe
 3633 0beb 02       		.uleb128 0x2
 3634 0bec 91       		.byte	0x91
 3635 0bed 64       		.sleb128 -28
 3636 0bee 20       		.uleb128 0x20
 3637 0bef A5010000 		.4byte	.LASF150
 3638 0bf3 01       		.byte	0x1
 3639 0bf4 0902     		.2byte	0x209
 3640 0bf6 D5000000 		.4byte	0xd5
 3641 0bfa 02       		.uleb128 0x2
 3642 0bfb 91       		.byte	0x91
 3643 0bfc 6C       		.sleb128 -20
 3644 0bfd 00       		.byte	0
 3645 0bfe 19       		.uleb128 0x19
 3646 0bff 04       		.byte	0x4
 3647 0c00 D5000000 		.4byte	0xd5
 3648 0c04 1D       		.uleb128 0x1d
 3649 0c05 C2060000 		.4byte	.LASF151
 3650 0c09 01       		.byte	0x1
 3651 0c0a 1302     		.2byte	0x213
 3652 0c0c 00000000 		.4byte	.LFB77
 3653 0c10 EA000000 		.4byte	.LFE77-.LFB77
 3654 0c14 01       		.uleb128 0x1
 3655 0c15 9C       		.byte	0x9c
 3656 0c16 390C0000 		.4byte	0xc39
 3657 0c1a 1E       		.uleb128 0x1e
 3658 0c1b 57020000 		.4byte	.LASF152
 3659 0c1f 01       		.byte	0x1
 3660 0c20 1302     		.2byte	0x213
 3661 0c22 FE0B0000 		.4byte	0xbfe
 3662 0c26 02       		.uleb128 0x2
 3663 0c27 91       		.byte	0x91
 3664 0c28 64       		.sleb128 -28
 3665 0c29 20       		.uleb128 0x20
 3666 0c2a A5010000 		.4byte	.LASF150
 3667 0c2e 01       		.byte	0x1
 3668 0c2f 1502     		.2byte	0x215
 3669 0c31 D5000000 		.4byte	0xd5
 3670 0c35 02       		.uleb128 0x2
 3671 0c36 91       		.byte	0x91
 3672 0c37 6C       		.sleb128 -20
 3673 0c38 00       		.byte	0
 3674 0c39 26       		.uleb128 0x26
 3675 0c3a 4B010000 		.4byte	.LASF153
 3676 0c3e 06       		.byte	0x6
 3677 0c3f 1207     		.2byte	0x712
 3678 0c41 450C0000 		.4byte	0xc45
 3679 0c45 27       		.uleb128 0x27
 3680 0c46 76000000 		.4byte	0x76
 3681 0c4a 06       		.uleb128 0x6
 3682 0c4b 08010000 		.4byte	0x108
 3683 0c4f 5A0C0000 		.4byte	0xc5a
 3684 0c53 07       		.uleb128 0x7
ARM GAS  C:\Users\MattiaCP\AppData\Local\Temp\cc5xw3YS.s 			page 76


 3685 0c54 F1000000 		.4byte	0xf1
 3686 0c58 01       		.byte	0x1
 3687 0c59 00       		.byte	0
 3688 0c5a 26       		.uleb128 0x26
 3689 0c5b 19040000 		.4byte	.LASF154
 3690 0c5f 05       		.byte	0x5
 3691 0c60 8301     		.2byte	0x183
 3692 0c62 4A0C0000 		.4byte	0xc4a
 3693 0c66 06       		.uleb128 0x6
 3694 0c67 45010000 		.4byte	0x145
 3695 0c6b 760C0000 		.4byte	0xc76
 3696 0c6f 07       		.uleb128 0x7
 3697 0c70 F1000000 		.4byte	0xf1
 3698 0c74 01       		.byte	0x1
 3699 0c75 00       		.byte	0
 3700 0c76 26       		.uleb128 0x26
 3701 0c77 A7060000 		.4byte	.LASF155
 3702 0c7b 05       		.byte	0x5
 3703 0c7c 8401     		.2byte	0x184
 3704 0c7e 660C0000 		.4byte	0xc66
 3705 0c82 26       		.uleb128 0x26
 3706 0c83 35030000 		.4byte	.LASF156
 3707 0c87 05       		.byte	0x5
 3708 0c88 8501     		.2byte	0x185
 3709 0c8a BA010000 		.4byte	0x1ba
 3710 0c8e 26       		.uleb128 0x26
 3711 0c8f 19050000 		.4byte	.LASF157
 3712 0c93 05       		.byte	0x5
 3713 0c94 8701     		.2byte	0x187
 3714 0c96 D4060000 		.4byte	0x6d4
 3715 0c9a 26       		.uleb128 0x26
 3716 0c9b 21000000 		.4byte	.LASF158
 3717 0c9f 05       		.byte	0x5
 3718 0ca0 8701     		.2byte	0x187
 3719 0ca2 D4060000 		.4byte	0x6d4
 3720 0ca6 26       		.uleb128 0x26
 3721 0ca7 B0040000 		.4byte	.LASF159
 3722 0cab 05       		.byte	0x5
 3723 0cac 8801     		.2byte	0x188
 3724 0cae 0A080000 		.4byte	0x80a
 3725 0cb2 06       		.uleb128 0x6
 3726 0cb3 E2070000 		.4byte	0x7e2
 3727 0cb7 C20C0000 		.4byte	0xcc2
 3728 0cbb 07       		.uleb128 0x7
 3729 0cbc F1000000 		.4byte	0xf1
 3730 0cc0 01       		.byte	0x1
 3731 0cc1 00       		.byte	0
 3732 0cc2 26       		.uleb128 0x26
 3733 0cc3 74000000 		.4byte	.LASF160
 3734 0cc7 05       		.byte	0x5
 3735 0cc8 8901     		.2byte	0x189
 3736 0cca B20C0000 		.4byte	0xcb2
 3737 0cce 26       		.uleb128 0x26
 3738 0ccf 79060000 		.4byte	.LASF161
 3739 0cd3 05       		.byte	0x5
 3740 0cd4 9101     		.2byte	0x191
 3741 0cd6 DF010000 		.4byte	0x1df
ARM GAS  C:\Users\MattiaCP\AppData\Local\Temp\cc5xw3YS.s 			page 77


 3742 0cda 26       		.uleb128 0x26
 3743 0cdb FE030000 		.4byte	.LASF162
 3744 0cdf 05       		.byte	0x5
 3745 0ce0 9401     		.2byte	0x194
 3746 0ce2 DF010000 		.4byte	0x1df
 3747 0ce6 26       		.uleb128 0x26
 3748 0ce7 0F020000 		.4byte	.LASF163
 3749 0ceb 05       		.byte	0x5
 3750 0cec 9501     		.2byte	0x195
 3751 0cee DF010000 		.4byte	0x1df
 3752 0cf2 26       		.uleb128 0x26
 3753 0cf3 38080000 		.4byte	.LASF164
 3754 0cf7 05       		.byte	0x5
 3755 0cf8 9801     		.2byte	0x198
 3756 0cfa 7E080000 		.4byte	0x87e
 3757 0cfe 26       		.uleb128 0x26
 3758 0cff C4050000 		.4byte	.LASF165
 3759 0d03 05       		.byte	0x5
 3760 0d04 9901     		.2byte	0x199
 3761 0d06 7E080000 		.4byte	0x87e
 3762 0d0a 26       		.uleb128 0x26
 3763 0d0b E1010000 		.4byte	.LASF166
 3764 0d0f 05       		.byte	0x5
 3765 0d10 9D01     		.2byte	0x19d
 3766 0d12 81000000 		.4byte	0x81
 3767 0d16 26       		.uleb128 0x26
 3768 0d17 27040000 		.4byte	.LASF167
 3769 0d1b 05       		.byte	0x5
 3770 0d1c A001     		.2byte	0x1a0
 3771 0d1e 81000000 		.4byte	0x81
 3772 0d22 26       		.uleb128 0x26
 3773 0d23 04050000 		.4byte	.LASF168
 3774 0d27 05       		.byte	0x5
 3775 0d28 A201     		.2byte	0x1a2
 3776 0d2a 81000000 		.4byte	0x81
 3777 0d2e 26       		.uleb128 0x26
 3778 0d2f BB010000 		.4byte	.LASF169
 3779 0d33 05       		.byte	0x5
 3780 0d34 A301     		.2byte	0x1a3
 3781 0d36 81000000 		.4byte	0x81
 3782 0d3a 26       		.uleb128 0x26
 3783 0d3b 14010000 		.4byte	.LASF170
 3784 0d3f 05       		.byte	0x5
 3785 0d40 A401     		.2byte	0x1a4
 3786 0d42 81000000 		.4byte	0x81
 3787 0d46 26       		.uleb128 0x26
 3788 0d47 1F050000 		.4byte	.LASF171
 3789 0d4b 05       		.byte	0x5
 3790 0d4c AA01     		.2byte	0x1aa
 3791 0d4e 81000000 		.4byte	0x81
 3792 0d52 26       		.uleb128 0x26
 3793 0d53 90040000 		.4byte	.LASF172
 3794 0d57 05       		.byte	0x5
 3795 0d58 B601     		.2byte	0x1b6
 3796 0d5a BD000000 		.4byte	0xbd
 3797 0d5e 00       		.byte	0
 3798              		.section	.debug_abbrev,"",%progbits
ARM GAS  C:\Users\MattiaCP\AppData\Local\Temp\cc5xw3YS.s 			page 78


 3799              	.Ldebug_abbrev0:
 3800 0000 01       		.uleb128 0x1
 3801 0001 11       		.uleb128 0x11
 3802 0002 01       		.byte	0x1
 3803 0003 25       		.uleb128 0x25
 3804 0004 0E       		.uleb128 0xe
 3805 0005 13       		.uleb128 0x13
 3806 0006 0B       		.uleb128 0xb
 3807 0007 03       		.uleb128 0x3
 3808 0008 0E       		.uleb128 0xe
 3809 0009 1B       		.uleb128 0x1b
 3810 000a 0E       		.uleb128 0xe
 3811 000b 55       		.uleb128 0x55
 3812 000c 17       		.uleb128 0x17
 3813 000d 11       		.uleb128 0x11
 3814 000e 01       		.uleb128 0x1
 3815 000f 10       		.uleb128 0x10
 3816 0010 17       		.uleb128 0x17
 3817 0011 00       		.byte	0
 3818 0012 00       		.byte	0
 3819 0013 02       		.uleb128 0x2
 3820 0014 24       		.uleb128 0x24
 3821 0015 00       		.byte	0
 3822 0016 0B       		.uleb128 0xb
 3823 0017 0B       		.uleb128 0xb
 3824 0018 3E       		.uleb128 0x3e
 3825 0019 0B       		.uleb128 0xb
 3826 001a 03       		.uleb128 0x3
 3827 001b 0E       		.uleb128 0xe
 3828 001c 00       		.byte	0
 3829 001d 00       		.byte	0
 3830 001e 03       		.uleb128 0x3
 3831 001f 16       		.uleb128 0x16
 3832 0020 00       		.byte	0
 3833 0021 03       		.uleb128 0x3
 3834 0022 0E       		.uleb128 0xe
 3835 0023 3A       		.uleb128 0x3a
 3836 0024 0B       		.uleb128 0xb
 3837 0025 3B       		.uleb128 0x3b
 3838 0026 0B       		.uleb128 0xb
 3839 0027 49       		.uleb128 0x49
 3840 0028 13       		.uleb128 0x13
 3841 0029 00       		.byte	0
 3842 002a 00       		.byte	0
 3843 002b 04       		.uleb128 0x4
 3844 002c 24       		.uleb128 0x24
 3845 002d 00       		.byte	0
 3846 002e 0B       		.uleb128 0xb
 3847 002f 0B       		.uleb128 0xb
 3848 0030 3E       		.uleb128 0x3e
 3849 0031 0B       		.uleb128 0xb
 3850 0032 03       		.uleb128 0x3
 3851 0033 08       		.uleb128 0x8
 3852 0034 00       		.byte	0
 3853 0035 00       		.byte	0
 3854 0036 05       		.uleb128 0x5
 3855 0037 16       		.uleb128 0x16
ARM GAS  C:\Users\MattiaCP\AppData\Local\Temp\cc5xw3YS.s 			page 79


 3856 0038 00       		.byte	0
 3857 0039 03       		.uleb128 0x3
 3858 003a 0E       		.uleb128 0xe
 3859 003b 3A       		.uleb128 0x3a
 3860 003c 0B       		.uleb128 0xb
 3861 003d 3B       		.uleb128 0x3b
 3862 003e 05       		.uleb128 0x5
 3863 003f 49       		.uleb128 0x49
 3864 0040 13       		.uleb128 0x13
 3865 0041 00       		.byte	0
 3866 0042 00       		.byte	0
 3867 0043 06       		.uleb128 0x6
 3868 0044 01       		.uleb128 0x1
 3869 0045 01       		.byte	0x1
 3870 0046 49       		.uleb128 0x49
 3871 0047 13       		.uleb128 0x13
 3872 0048 01       		.uleb128 0x1
 3873 0049 13       		.uleb128 0x13
 3874 004a 00       		.byte	0
 3875 004b 00       		.byte	0
 3876 004c 07       		.uleb128 0x7
 3877 004d 21       		.uleb128 0x21
 3878 004e 00       		.byte	0
 3879 004f 49       		.uleb128 0x49
 3880 0050 13       		.uleb128 0x13
 3881 0051 2F       		.uleb128 0x2f
 3882 0052 0B       		.uleb128 0xb
 3883 0053 00       		.byte	0
 3884 0054 00       		.byte	0
 3885 0055 08       		.uleb128 0x8
 3886 0056 13       		.uleb128 0x13
 3887 0057 01       		.byte	0x1
 3888 0058 03       		.uleb128 0x3
 3889 0059 0E       		.uleb128 0xe
 3890 005a 0B       		.uleb128 0xb
 3891 005b 0B       		.uleb128 0xb
 3892 005c 3A       		.uleb128 0x3a
 3893 005d 0B       		.uleb128 0xb
 3894 005e 3B       		.uleb128 0x3b
 3895 005f 0B       		.uleb128 0xb
 3896 0060 01       		.uleb128 0x1
 3897 0061 13       		.uleb128 0x13
 3898 0062 00       		.byte	0
 3899 0063 00       		.byte	0
 3900 0064 09       		.uleb128 0x9
 3901 0065 0D       		.uleb128 0xd
 3902 0066 00       		.byte	0
 3903 0067 03       		.uleb128 0x3
 3904 0068 08       		.uleb128 0x8
 3905 0069 3A       		.uleb128 0x3a
 3906 006a 0B       		.uleb128 0xb
 3907 006b 3B       		.uleb128 0x3b
 3908 006c 0B       		.uleb128 0xb
 3909 006d 49       		.uleb128 0x49
 3910 006e 13       		.uleb128 0x13
 3911 006f 38       		.uleb128 0x38
 3912 0070 0B       		.uleb128 0xb
ARM GAS  C:\Users\MattiaCP\AppData\Local\Temp\cc5xw3YS.s 			page 80


 3913 0071 00       		.byte	0
 3914 0072 00       		.byte	0
 3915 0073 0A       		.uleb128 0xa
 3916 0074 0D       		.uleb128 0xd
 3917 0075 00       		.byte	0
 3918 0076 03       		.uleb128 0x3
 3919 0077 0E       		.uleb128 0xe
 3920 0078 3A       		.uleb128 0x3a
 3921 0079 0B       		.uleb128 0xb
 3922 007a 3B       		.uleb128 0x3b
 3923 007b 0B       		.uleb128 0xb
 3924 007c 49       		.uleb128 0x49
 3925 007d 13       		.uleb128 0x13
 3926 007e 38       		.uleb128 0x38
 3927 007f 0B       		.uleb128 0xb
 3928 0080 00       		.byte	0
 3929 0081 00       		.byte	0
 3930 0082 0B       		.uleb128 0xb
 3931 0083 0D       		.uleb128 0xd
 3932 0084 00       		.byte	0
 3933 0085 03       		.uleb128 0x3
 3934 0086 0E       		.uleb128 0xe
 3935 0087 3A       		.uleb128 0x3a
 3936 0088 0B       		.uleb128 0xb
 3937 0089 3B       		.uleb128 0x3b
 3938 008a 05       		.uleb128 0x5
 3939 008b 49       		.uleb128 0x49
 3940 008c 13       		.uleb128 0x13
 3941 008d 38       		.uleb128 0x38
 3942 008e 0B       		.uleb128 0xb
 3943 008f 00       		.byte	0
 3944 0090 00       		.byte	0
 3945 0091 0C       		.uleb128 0xc
 3946 0092 13       		.uleb128 0x13
 3947 0093 01       		.byte	0x1
 3948 0094 03       		.uleb128 0x3
 3949 0095 0E       		.uleb128 0xe
 3950 0096 0B       		.uleb128 0xb
 3951 0097 0B       		.uleb128 0xb
 3952 0098 3A       		.uleb128 0x3a
 3953 0099 0B       		.uleb128 0xb
 3954 009a 3B       		.uleb128 0x3b
 3955 009b 05       		.uleb128 0x5
 3956 009c 01       		.uleb128 0x1
 3957 009d 13       		.uleb128 0x13
 3958 009e 00       		.byte	0
 3959 009f 00       		.byte	0
 3960 00a0 0D       		.uleb128 0xd
 3961 00a1 0D       		.uleb128 0xd
 3962 00a2 00       		.byte	0
 3963 00a3 03       		.uleb128 0x3
 3964 00a4 08       		.uleb128 0x8
 3965 00a5 3A       		.uleb128 0x3a
 3966 00a6 0B       		.uleb128 0xb
 3967 00a7 3B       		.uleb128 0x3b
 3968 00a8 05       		.uleb128 0x5
 3969 00a9 49       		.uleb128 0x49
ARM GAS  C:\Users\MattiaCP\AppData\Local\Temp\cc5xw3YS.s 			page 81


 3970 00aa 13       		.uleb128 0x13
 3971 00ab 38       		.uleb128 0x38
 3972 00ac 0B       		.uleb128 0xb
 3973 00ad 00       		.byte	0
 3974 00ae 00       		.byte	0
 3975 00af 0E       		.uleb128 0xe
 3976 00b0 13       		.uleb128 0x13
 3977 00b1 01       		.byte	0x1
 3978 00b2 03       		.uleb128 0x3
 3979 00b3 0E       		.uleb128 0xe
 3980 00b4 0B       		.uleb128 0xb
 3981 00b5 05       		.uleb128 0x5
 3982 00b6 3A       		.uleb128 0x3a
 3983 00b7 0B       		.uleb128 0xb
 3984 00b8 3B       		.uleb128 0x3b
 3985 00b9 05       		.uleb128 0x5
 3986 00ba 01       		.uleb128 0x1
 3987 00bb 13       		.uleb128 0x13
 3988 00bc 00       		.byte	0
 3989 00bd 00       		.byte	0
 3990 00be 0F       		.uleb128 0xf
 3991 00bf 0D       		.uleb128 0xd
 3992 00c0 00       		.byte	0
 3993 00c1 03       		.uleb128 0x3
 3994 00c2 08       		.uleb128 0x8
 3995 00c3 3A       		.uleb128 0x3a
 3996 00c4 0B       		.uleb128 0xb
 3997 00c5 3B       		.uleb128 0x3b
 3998 00c6 05       		.uleb128 0x5
 3999 00c7 49       		.uleb128 0x49
 4000 00c8 13       		.uleb128 0x13
 4001 00c9 38       		.uleb128 0x38
 4002 00ca 05       		.uleb128 0x5
 4003 00cb 00       		.byte	0
 4004 00cc 00       		.byte	0
 4005 00cd 10       		.uleb128 0x10
 4006 00ce 0D       		.uleb128 0xd
 4007 00cf 00       		.byte	0
 4008 00d0 03       		.uleb128 0x3
 4009 00d1 0E       		.uleb128 0xe
 4010 00d2 3A       		.uleb128 0x3a
 4011 00d3 0B       		.uleb128 0xb
 4012 00d4 3B       		.uleb128 0x3b
 4013 00d5 05       		.uleb128 0x5
 4014 00d6 49       		.uleb128 0x49
 4015 00d7 13       		.uleb128 0x13
 4016 00d8 38       		.uleb128 0x38
 4017 00d9 05       		.uleb128 0x5
 4018 00da 00       		.byte	0
 4019 00db 00       		.byte	0
 4020 00dc 11       		.uleb128 0x11
 4021 00dd 04       		.uleb128 0x4
 4022 00de 01       		.byte	0x1
 4023 00df 0B       		.uleb128 0xb
 4024 00e0 0B       		.uleb128 0xb
 4025 00e1 49       		.uleb128 0x49
 4026 00e2 13       		.uleb128 0x13
ARM GAS  C:\Users\MattiaCP\AppData\Local\Temp\cc5xw3YS.s 			page 82


 4027 00e3 3A       		.uleb128 0x3a
 4028 00e4 0B       		.uleb128 0xb
 4029 00e5 3B       		.uleb128 0x3b
 4030 00e6 05       		.uleb128 0x5
 4031 00e7 01       		.uleb128 0x1
 4032 00e8 13       		.uleb128 0x13
 4033 00e9 00       		.byte	0
 4034 00ea 00       		.byte	0
 4035 00eb 12       		.uleb128 0x12
 4036 00ec 28       		.uleb128 0x28
 4037 00ed 00       		.byte	0
 4038 00ee 03       		.uleb128 0x3
 4039 00ef 0E       		.uleb128 0xe
 4040 00f0 1C       		.uleb128 0x1c
 4041 00f1 0B       		.uleb128 0xb
 4042 00f2 00       		.byte	0
 4043 00f3 00       		.byte	0
 4044 00f4 13       		.uleb128 0x13
 4045 00f5 2E       		.uleb128 0x2e
 4046 00f6 01       		.byte	0x1
 4047 00f7 3F       		.uleb128 0x3f
 4048 00f8 19       		.uleb128 0x19
 4049 00f9 03       		.uleb128 0x3
 4050 00fa 0E       		.uleb128 0xe
 4051 00fb 3A       		.uleb128 0x3a
 4052 00fc 0B       		.uleb128 0xb
 4053 00fd 3B       		.uleb128 0x3b
 4054 00fe 0B       		.uleb128 0xb
 4055 00ff 27       		.uleb128 0x27
 4056 0100 19       		.uleb128 0x19
 4057 0101 49       		.uleb128 0x49
 4058 0102 13       		.uleb128 0x13
 4059 0103 11       		.uleb128 0x11
 4060 0104 01       		.uleb128 0x1
 4061 0105 12       		.uleb128 0x12
 4062 0106 06       		.uleb128 0x6
 4063 0107 40       		.uleb128 0x40
 4064 0108 18       		.uleb128 0x18
 4065 0109 9642     		.uleb128 0x2116
 4066 010b 19       		.uleb128 0x19
 4067 010c 01       		.uleb128 0x1
 4068 010d 13       		.uleb128 0x13
 4069 010e 00       		.byte	0
 4070 010f 00       		.byte	0
 4071 0110 14       		.uleb128 0x14
 4072 0111 05       		.uleb128 0x5
 4073 0112 00       		.byte	0
 4074 0113 03       		.uleb128 0x3
 4075 0114 08       		.uleb128 0x8
 4076 0115 3A       		.uleb128 0x3a
 4077 0116 0B       		.uleb128 0xb
 4078 0117 3B       		.uleb128 0x3b
 4079 0118 0B       		.uleb128 0xb
 4080 0119 49       		.uleb128 0x49
 4081 011a 13       		.uleb128 0x13
 4082 011b 02       		.uleb128 0x2
 4083 011c 18       		.uleb128 0x18
ARM GAS  C:\Users\MattiaCP\AppData\Local\Temp\cc5xw3YS.s 			page 83


 4084 011d 00       		.byte	0
 4085 011e 00       		.byte	0
 4086 011f 15       		.uleb128 0x15
 4087 0120 34       		.uleb128 0x34
 4088 0121 00       		.byte	0
 4089 0122 03       		.uleb128 0x3
 4090 0123 0E       		.uleb128 0xe
 4091 0124 3A       		.uleb128 0x3a
 4092 0125 0B       		.uleb128 0xb
 4093 0126 3B       		.uleb128 0x3b
 4094 0127 0B       		.uleb128 0xb
 4095 0128 49       		.uleb128 0x49
 4096 0129 13       		.uleb128 0x13
 4097 012a 02       		.uleb128 0x2
 4098 012b 18       		.uleb128 0x18
 4099 012c 00       		.byte	0
 4100 012d 00       		.byte	0
 4101 012e 16       		.uleb128 0x16
 4102 012f 2E       		.uleb128 0x2e
 4103 0130 01       		.byte	0x1
 4104 0131 3F       		.uleb128 0x3f
 4105 0132 19       		.uleb128 0x19
 4106 0133 03       		.uleb128 0x3
 4107 0134 0E       		.uleb128 0xe
 4108 0135 3A       		.uleb128 0x3a
 4109 0136 0B       		.uleb128 0xb
 4110 0137 3B       		.uleb128 0x3b
 4111 0138 0B       		.uleb128 0xb
 4112 0139 27       		.uleb128 0x27
 4113 013a 19       		.uleb128 0x19
 4114 013b 49       		.uleb128 0x49
 4115 013c 13       		.uleb128 0x13
 4116 013d 11       		.uleb128 0x11
 4117 013e 01       		.uleb128 0x1
 4118 013f 12       		.uleb128 0x12
 4119 0140 06       		.uleb128 0x6
 4120 0141 40       		.uleb128 0x40
 4121 0142 18       		.uleb128 0x18
 4122 0143 9742     		.uleb128 0x2117
 4123 0145 19       		.uleb128 0x19
 4124 0146 01       		.uleb128 0x1
 4125 0147 13       		.uleb128 0x13
 4126 0148 00       		.byte	0
 4127 0149 00       		.byte	0
 4128 014a 17       		.uleb128 0x17
 4129 014b 05       		.uleb128 0x5
 4130 014c 00       		.byte	0
 4131 014d 03       		.uleb128 0x3
 4132 014e 0E       		.uleb128 0xe
 4133 014f 3A       		.uleb128 0x3a
 4134 0150 0B       		.uleb128 0xb
 4135 0151 3B       		.uleb128 0x3b
 4136 0152 0B       		.uleb128 0xb
 4137 0153 49       		.uleb128 0x49
 4138 0154 13       		.uleb128 0x13
 4139 0155 02       		.uleb128 0x2
 4140 0156 18       		.uleb128 0x18
ARM GAS  C:\Users\MattiaCP\AppData\Local\Temp\cc5xw3YS.s 			page 84


 4141 0157 00       		.byte	0
 4142 0158 00       		.byte	0
 4143 0159 18       		.uleb128 0x18
 4144 015a 34       		.uleb128 0x34
 4145 015b 00       		.byte	0
 4146 015c 03       		.uleb128 0x3
 4147 015d 08       		.uleb128 0x8
 4148 015e 3A       		.uleb128 0x3a
 4149 015f 0B       		.uleb128 0xb
 4150 0160 3B       		.uleb128 0x3b
 4151 0161 0B       		.uleb128 0xb
 4152 0162 49       		.uleb128 0x49
 4153 0163 13       		.uleb128 0x13
 4154 0164 02       		.uleb128 0x2
 4155 0165 18       		.uleb128 0x18
 4156 0166 00       		.byte	0
 4157 0167 00       		.byte	0
 4158 0168 19       		.uleb128 0x19
 4159 0169 0F       		.uleb128 0xf
 4160 016a 00       		.byte	0
 4161 016b 0B       		.uleb128 0xb
 4162 016c 0B       		.uleb128 0xb
 4163 016d 49       		.uleb128 0x49
 4164 016e 13       		.uleb128 0x13
 4165 016f 00       		.byte	0
 4166 0170 00       		.byte	0
 4167 0171 1A       		.uleb128 0x1a
 4168 0172 2E       		.uleb128 0x2e
 4169 0173 01       		.byte	0x1
 4170 0174 3F       		.uleb128 0x3f
 4171 0175 19       		.uleb128 0x19
 4172 0176 03       		.uleb128 0x3
 4173 0177 0E       		.uleb128 0xe
 4174 0178 3A       		.uleb128 0x3a
 4175 0179 0B       		.uleb128 0xb
 4176 017a 3B       		.uleb128 0x3b
 4177 017b 0B       		.uleb128 0xb
 4178 017c 27       		.uleb128 0x27
 4179 017d 19       		.uleb128 0x19
 4180 017e 11       		.uleb128 0x11
 4181 017f 01       		.uleb128 0x1
 4182 0180 12       		.uleb128 0x12
 4183 0181 06       		.uleb128 0x6
 4184 0182 40       		.uleb128 0x40
 4185 0183 18       		.uleb128 0x18
 4186 0184 9742     		.uleb128 0x2117
 4187 0186 19       		.uleb128 0x19
 4188 0187 01       		.uleb128 0x1
 4189 0188 13       		.uleb128 0x13
 4190 0189 00       		.byte	0
 4191 018a 00       		.byte	0
 4192 018b 1B       		.uleb128 0x1b
 4193 018c 26       		.uleb128 0x26
 4194 018d 00       		.byte	0
 4195 018e 49       		.uleb128 0x49
 4196 018f 13       		.uleb128 0x13
 4197 0190 00       		.byte	0
ARM GAS  C:\Users\MattiaCP\AppData\Local\Temp\cc5xw3YS.s 			page 85


 4198 0191 00       		.byte	0
 4199 0192 1C       		.uleb128 0x1c
 4200 0193 2E       		.uleb128 0x2e
 4201 0194 01       		.byte	0x1
 4202 0195 3F       		.uleb128 0x3f
 4203 0196 19       		.uleb128 0x19
 4204 0197 03       		.uleb128 0x3
 4205 0198 0E       		.uleb128 0xe
 4206 0199 3A       		.uleb128 0x3a
 4207 019a 0B       		.uleb128 0xb
 4208 019b 3B       		.uleb128 0x3b
 4209 019c 0B       		.uleb128 0xb
 4210 019d 27       		.uleb128 0x27
 4211 019e 19       		.uleb128 0x19
 4212 019f 11       		.uleb128 0x11
 4213 01a0 01       		.uleb128 0x1
 4214 01a1 12       		.uleb128 0x12
 4215 01a2 06       		.uleb128 0x6
 4216 01a3 40       		.uleb128 0x40
 4217 01a4 18       		.uleb128 0x18
 4218 01a5 9642     		.uleb128 0x2116
 4219 01a7 19       		.uleb128 0x19
 4220 01a8 01       		.uleb128 0x1
 4221 01a9 13       		.uleb128 0x13
 4222 01aa 00       		.byte	0
 4223 01ab 00       		.byte	0
 4224 01ac 1D       		.uleb128 0x1d
 4225 01ad 2E       		.uleb128 0x2e
 4226 01ae 01       		.byte	0x1
 4227 01af 3F       		.uleb128 0x3f
 4228 01b0 19       		.uleb128 0x19
 4229 01b1 03       		.uleb128 0x3
 4230 01b2 0E       		.uleb128 0xe
 4231 01b3 3A       		.uleb128 0x3a
 4232 01b4 0B       		.uleb128 0xb
 4233 01b5 3B       		.uleb128 0x3b
 4234 01b6 05       		.uleb128 0x5
 4235 01b7 27       		.uleb128 0x27
 4236 01b8 19       		.uleb128 0x19
 4237 01b9 11       		.uleb128 0x11
 4238 01ba 01       		.uleb128 0x1
 4239 01bb 12       		.uleb128 0x12
 4240 01bc 06       		.uleb128 0x6
 4241 01bd 40       		.uleb128 0x40
 4242 01be 18       		.uleb128 0x18
 4243 01bf 9642     		.uleb128 0x2116
 4244 01c1 19       		.uleb128 0x19
 4245 01c2 01       		.uleb128 0x1
 4246 01c3 13       		.uleb128 0x13
 4247 01c4 00       		.byte	0
 4248 01c5 00       		.byte	0
 4249 01c6 1E       		.uleb128 0x1e
 4250 01c7 05       		.uleb128 0x5
 4251 01c8 00       		.byte	0
 4252 01c9 03       		.uleb128 0x3
 4253 01ca 0E       		.uleb128 0xe
 4254 01cb 3A       		.uleb128 0x3a
ARM GAS  C:\Users\MattiaCP\AppData\Local\Temp\cc5xw3YS.s 			page 86


 4255 01cc 0B       		.uleb128 0xb
 4256 01cd 3B       		.uleb128 0x3b
 4257 01ce 05       		.uleb128 0x5
 4258 01cf 49       		.uleb128 0x49
 4259 01d0 13       		.uleb128 0x13
 4260 01d1 02       		.uleb128 0x2
 4261 01d2 18       		.uleb128 0x18
 4262 01d3 00       		.byte	0
 4263 01d4 00       		.byte	0
 4264 01d5 1F       		.uleb128 0x1f
 4265 01d6 2E       		.uleb128 0x2e
 4266 01d7 01       		.byte	0x1
 4267 01d8 3F       		.uleb128 0x3f
 4268 01d9 19       		.uleb128 0x19
 4269 01da 03       		.uleb128 0x3
 4270 01db 0E       		.uleb128 0xe
 4271 01dc 3A       		.uleb128 0x3a
 4272 01dd 0B       		.uleb128 0xb
 4273 01de 3B       		.uleb128 0x3b
 4274 01df 05       		.uleb128 0x5
 4275 01e0 11       		.uleb128 0x11
 4276 01e1 01       		.uleb128 0x1
 4277 01e2 12       		.uleb128 0x12
 4278 01e3 06       		.uleb128 0x6
 4279 01e4 40       		.uleb128 0x40
 4280 01e5 18       		.uleb128 0x18
 4281 01e6 9642     		.uleb128 0x2116
 4282 01e8 19       		.uleb128 0x19
 4283 01e9 01       		.uleb128 0x1
 4284 01ea 13       		.uleb128 0x13
 4285 01eb 00       		.byte	0
 4286 01ec 00       		.byte	0
 4287 01ed 20       		.uleb128 0x20
 4288 01ee 34       		.uleb128 0x34
 4289 01ef 00       		.byte	0
 4290 01f0 03       		.uleb128 0x3
 4291 01f1 0E       		.uleb128 0xe
 4292 01f2 3A       		.uleb128 0x3a
 4293 01f3 0B       		.uleb128 0xb
 4294 01f4 3B       		.uleb128 0x3b
 4295 01f5 05       		.uleb128 0x5
 4296 01f6 49       		.uleb128 0x49
 4297 01f7 13       		.uleb128 0x13
 4298 01f8 02       		.uleb128 0x2
 4299 01f9 18       		.uleb128 0x18
 4300 01fa 00       		.byte	0
 4301 01fb 00       		.byte	0
 4302 01fc 21       		.uleb128 0x21
 4303 01fd 2E       		.uleb128 0x2e
 4304 01fe 00       		.byte	0
 4305 01ff 3F       		.uleb128 0x3f
 4306 0200 19       		.uleb128 0x19
 4307 0201 03       		.uleb128 0x3
 4308 0202 0E       		.uleb128 0xe
 4309 0203 3A       		.uleb128 0x3a
 4310 0204 0B       		.uleb128 0xb
 4311 0205 3B       		.uleb128 0x3b
ARM GAS  C:\Users\MattiaCP\AppData\Local\Temp\cc5xw3YS.s 			page 87


 4312 0206 05       		.uleb128 0x5
 4313 0207 11       		.uleb128 0x11
 4314 0208 01       		.uleb128 0x1
 4315 0209 12       		.uleb128 0x12
 4316 020a 06       		.uleb128 0x6
 4317 020b 40       		.uleb128 0x40
 4318 020c 18       		.uleb128 0x18
 4319 020d 9642     		.uleb128 0x2116
 4320 020f 19       		.uleb128 0x19
 4321 0210 00       		.byte	0
 4322 0211 00       		.byte	0
 4323 0212 22       		.uleb128 0x22
 4324 0213 05       		.uleb128 0x5
 4325 0214 00       		.byte	0
 4326 0215 03       		.uleb128 0x3
 4327 0216 08       		.uleb128 0x8
 4328 0217 3A       		.uleb128 0x3a
 4329 0218 0B       		.uleb128 0xb
 4330 0219 3B       		.uleb128 0x3b
 4331 021a 05       		.uleb128 0x5
 4332 021b 49       		.uleb128 0x49
 4333 021c 13       		.uleb128 0x13
 4334 021d 02       		.uleb128 0x2
 4335 021e 18       		.uleb128 0x18
 4336 021f 00       		.byte	0
 4337 0220 00       		.byte	0
 4338 0221 23       		.uleb128 0x23
 4339 0222 2E       		.uleb128 0x2e
 4340 0223 01       		.byte	0x1
 4341 0224 3F       		.uleb128 0x3f
 4342 0225 19       		.uleb128 0x19
 4343 0226 03       		.uleb128 0x3
 4344 0227 0E       		.uleb128 0xe
 4345 0228 3A       		.uleb128 0x3a
 4346 0229 0B       		.uleb128 0xb
 4347 022a 3B       		.uleb128 0x3b
 4348 022b 05       		.uleb128 0x5
 4349 022c 11       		.uleb128 0x11
 4350 022d 01       		.uleb128 0x1
 4351 022e 12       		.uleb128 0x12
 4352 022f 06       		.uleb128 0x6
 4353 0230 40       		.uleb128 0x40
 4354 0231 18       		.uleb128 0x18
 4355 0232 9742     		.uleb128 0x2117
 4356 0234 19       		.uleb128 0x19
 4357 0235 01       		.uleb128 0x1
 4358 0236 13       		.uleb128 0x13
 4359 0237 00       		.byte	0
 4360 0238 00       		.byte	0
 4361 0239 24       		.uleb128 0x24
 4362 023a 34       		.uleb128 0x34
 4363 023b 00       		.byte	0
 4364 023c 03       		.uleb128 0x3
 4365 023d 08       		.uleb128 0x8
 4366 023e 3A       		.uleb128 0x3a
 4367 023f 0B       		.uleb128 0xb
 4368 0240 3B       		.uleb128 0x3b
ARM GAS  C:\Users\MattiaCP\AppData\Local\Temp\cc5xw3YS.s 			page 88


 4369 0241 05       		.uleb128 0x5
 4370 0242 49       		.uleb128 0x49
 4371 0243 13       		.uleb128 0x13
 4372 0244 02       		.uleb128 0x2
 4373 0245 18       		.uleb128 0x18
 4374 0246 00       		.byte	0
 4375 0247 00       		.byte	0
 4376 0248 25       		.uleb128 0x25
 4377 0249 2E       		.uleb128 0x2e
 4378 024a 01       		.byte	0x1
 4379 024b 3F       		.uleb128 0x3f
 4380 024c 19       		.uleb128 0x19
 4381 024d 03       		.uleb128 0x3
 4382 024e 0E       		.uleb128 0xe
 4383 024f 3A       		.uleb128 0x3a
 4384 0250 0B       		.uleb128 0xb
 4385 0251 3B       		.uleb128 0x3b
 4386 0252 05       		.uleb128 0x5
 4387 0253 27       		.uleb128 0x27
 4388 0254 19       		.uleb128 0x19
 4389 0255 49       		.uleb128 0x49
 4390 0256 13       		.uleb128 0x13
 4391 0257 11       		.uleb128 0x11
 4392 0258 01       		.uleb128 0x1
 4393 0259 12       		.uleb128 0x12
 4394 025a 06       		.uleb128 0x6
 4395 025b 40       		.uleb128 0x40
 4396 025c 18       		.uleb128 0x18
 4397 025d 9642     		.uleb128 0x2116
 4398 025f 19       		.uleb128 0x19
 4399 0260 01       		.uleb128 0x1
 4400 0261 13       		.uleb128 0x13
 4401 0262 00       		.byte	0
 4402 0263 00       		.byte	0
 4403 0264 26       		.uleb128 0x26
 4404 0265 34       		.uleb128 0x34
 4405 0266 00       		.byte	0
 4406 0267 03       		.uleb128 0x3
 4407 0268 0E       		.uleb128 0xe
 4408 0269 3A       		.uleb128 0x3a
 4409 026a 0B       		.uleb128 0xb
 4410 026b 3B       		.uleb128 0x3b
 4411 026c 05       		.uleb128 0x5
 4412 026d 49       		.uleb128 0x49
 4413 026e 13       		.uleb128 0x13
 4414 026f 3F       		.uleb128 0x3f
 4415 0270 19       		.uleb128 0x19
 4416 0271 3C       		.uleb128 0x3c
 4417 0272 19       		.uleb128 0x19
 4418 0273 00       		.byte	0
 4419 0274 00       		.byte	0
 4420 0275 27       		.uleb128 0x27
 4421 0276 35       		.uleb128 0x35
 4422 0277 00       		.byte	0
 4423 0278 49       		.uleb128 0x49
 4424 0279 13       		.uleb128 0x13
 4425 027a 00       		.byte	0
ARM GAS  C:\Users\MattiaCP\AppData\Local\Temp\cc5xw3YS.s 			page 89


 4426 027b 00       		.byte	0
 4427 027c 00       		.byte	0
 4428              		.section	.debug_aranges,"",%progbits
 4429 0000 84000000 		.4byte	0x84
 4430 0004 0200     		.2byte	0x2
 4431 0006 00000000 		.4byte	.Ldebug_info0
 4432 000a 04       		.byte	0x4
 4433 000b 00       		.byte	0
 4434 000c 0000     		.2byte	0
 4435 000e 0000     		.2byte	0
 4436 0010 00000000 		.4byte	.LFB64
 4437 0014 70020000 		.4byte	.LFE64-.LFB64
 4438 0018 00000000 		.4byte	.LFB65
 4439 001c 4E000000 		.4byte	.LFE65-.LFB65
 4440 0020 00000000 		.4byte	.LFB66
 4441 0024 50000000 		.4byte	.LFE66-.LFB66
 4442 0028 00000000 		.4byte	.LFB67
 4443 002c D4000000 		.4byte	.LFE67-.LFB67
 4444 0030 00000000 		.4byte	.LFB68
 4445 0034 B0000000 		.4byte	.LFE68-.LFB68
 4446 0038 00000000 		.4byte	.LFB69
 4447 003c 34030000 		.4byte	.LFE69-.LFB69
 4448 0040 00000000 		.4byte	.LFB70
 4449 0044 8E000000 		.4byte	.LFE70-.LFB70
 4450 0048 00000000 		.4byte	.LFB71
 4451 004c 78020000 		.4byte	.LFE71-.LFB71
 4452 0050 00000000 		.4byte	.LFB72
 4453 0054 20000000 		.4byte	.LFE72-.LFB72
 4454 0058 00000000 		.4byte	.LFB73
 4455 005c 34000000 		.4byte	.LFE73-.LFB73
 4456 0060 00000000 		.4byte	.LFB74
 4457 0064 78000000 		.4byte	.LFE74-.LFB74
 4458 0068 00000000 		.4byte	.LFB75
 4459 006c 78000000 		.4byte	.LFE75-.LFB75
 4460 0070 00000000 		.4byte	.LFB76
 4461 0074 B0000000 		.4byte	.LFE76-.LFB76
 4462 0078 00000000 		.4byte	.LFB77
 4463 007c EA000000 		.4byte	.LFE77-.LFB77
 4464 0080 00000000 		.4byte	0
 4465 0084 00000000 		.4byte	0
 4466              		.section	.debug_ranges,"",%progbits
 4467              	.Ldebug_ranges0:
 4468 0000 00000000 		.4byte	.LFB64
 4469 0004 70020000 		.4byte	.LFE64
 4470 0008 00000000 		.4byte	.LFB65
 4471 000c 4E000000 		.4byte	.LFE65
 4472 0010 00000000 		.4byte	.LFB66
 4473 0014 50000000 		.4byte	.LFE66
 4474 0018 00000000 		.4byte	.LFB67
 4475 001c D4000000 		.4byte	.LFE67
 4476 0020 00000000 		.4byte	.LFB68
 4477 0024 B0000000 		.4byte	.LFE68
 4478 0028 00000000 		.4byte	.LFB69
 4479 002c 34030000 		.4byte	.LFE69
 4480 0030 00000000 		.4byte	.LFB70
 4481 0034 8E000000 		.4byte	.LFE70
 4482 0038 00000000 		.4byte	.LFB71
ARM GAS  C:\Users\MattiaCP\AppData\Local\Temp\cc5xw3YS.s 			page 90


 4483 003c 78020000 		.4byte	.LFE71
 4484 0040 00000000 		.4byte	.LFB72
 4485 0044 20000000 		.4byte	.LFE72
 4486 0048 00000000 		.4byte	.LFB73
 4487 004c 34000000 		.4byte	.LFE73
 4488 0050 00000000 		.4byte	.LFB74
 4489 0054 78000000 		.4byte	.LFE74
 4490 0058 00000000 		.4byte	.LFB75
 4491 005c 78000000 		.4byte	.LFE75
 4492 0060 00000000 		.4byte	.LFB76
 4493 0064 B0000000 		.4byte	.LFE76
 4494 0068 00000000 		.4byte	.LFB77
 4495 006c EA000000 		.4byte	.LFE77
 4496 0070 00000000 		.4byte	0
 4497 0074 00000000 		.4byte	0
 4498              		.section	.debug_line,"",%progbits
 4499              	.Ldebug_line0:
 4500 0000 B8030000 		.section	.debug_str,"MS",%progbits,1
 4500      02006101 
 4500      00000201 
 4500      FB0E0D00 
 4500      01010101 
 4501              	.LASF133:
 4502 0000 636F756E 		.ascii	"count\000"
 4502      7400
 4503              	.LASF43:
 4504 0006 7573655F 		.ascii	"use_2nd_motor_flag\000"
 4504      326E645F 
 4504      6D6F746F 
 4504      725F666C 
 4504      616700
 4505              	.LASF26:
 4506 0019 73745F6D 		.ascii	"st_meas\000"
 4506      65617300 
 4507              	.LASF158:
 4508 0021 635F6D65 		.ascii	"c_mem\000"
 4508      6D00
 4509              	.LASF83:
 4510 0027 73745F69 		.ascii	"st_imu\000"
 4510      6D7500
 4511              	.LASF127:
 4512 002e 636C6F73 		.ascii	"closure_counter\000"
 4512      7572655F 
 4512      636F756E 
 4512      74657200 
 4513              	.LASF139:
 4514 003e 72657374 		.ascii	"rest_error\000"
 4514      5F657272 
 4514      6F7200
 4515              	.LASF36:
 4516 0049 746F7461 		.ascii	"total_time_on\000"
 4516      6C5F7469 
 4516      6D655F6F 
 4516      6E00
 4517              	.LASF73:
 4518 0057 6D5F6F66 		.ascii	"m_off\000"
 4518      6600
ARM GAS  C:\Users\MattiaCP\AppData\Local\Temp\cc5xw3YS.s 			page 91


 4519              	.LASF68:
 4520 005d 656E636F 		.ascii	"encoder_line\000"
 4520      6465725F 
 4520      6C696E65 
 4520      00
 4521              	.LASF109:
 4522 006a 64697265 		.ascii	"direction\000"
 4522      6374696F 
 4522      6E00
 4523              	.LASF160:
 4524 0074 66696C74 		.ascii	"filt_v\000"
 4524      5F7600
 4525              	.LASF173:
 4526 007b 474E5520 		.ascii	"GNU C11 5.4.1 20160609 (release) [ARM/embedded-5-br"
 4526      43313120 
 4526      352E342E 
 4526      31203230 
 4526      31363036 
 4527 00ae 616E6368 		.ascii	"anch revision 237715] -mcpu=cortex-m3 -mthumb -g -O"
 4527      20726576 
 4527      6973696F 
 4527      6E203233 
 4527      37373135 
 4528 00e1 30202D66 		.ascii	"0 -ffunction-sections -ffat-lto-objects\000"
 4528      66756E63 
 4528      74696F6E 
 4528      2D736563 
 4528      74696F6E 
 4529              	.LASF143:
 4530 0109 765F636F 		.ascii	"v_count_lb\000"
 4530      756E745F 
 4530      6C6200
 4531              	.LASF170:
 4532 0114 62617474 		.ascii	"battery_low_SoC\000"
 4532      6572795F 
 4532      6C6F775F 
 4532      536F4300 
 4533              	.LASF7:
 4534 0124 6C6F6E67 		.ascii	"long long unsigned int\000"
 4534      206C6F6E 
 4534      6720756E 
 4534      7369676E 
 4534      65642069 
 4535              	.LASF44:
 4536 013b 62617564 		.ascii	"baud_rate\000"
 4536      5F726174 
 4536      6500
 4537              	.LASF24:
 4538 0145 6F6E6F66 		.ascii	"onoff\000"
 4538      6600
 4539              	.LASF153:
 4540 014b 49544D5F 		.ascii	"ITM_RxBuffer\000"
 4540      52784275 
 4540      66666572 
 4540      00
 4541              	.LASF137:
 4542 0158 64656C74 		.ascii	"delta_inc\000"
ARM GAS  C:\Users\MattiaCP\AppData\Local\Temp\cc5xw3YS.s 			page 92


 4542      615F696E 
 4542      6300
 4543              	.LASF125:
 4544 0162 6D795F6D 		.ascii	"my_mod\000"
 4544      6F6400
 4545              	.LASF96:
 4546 0169 72657374 		.ascii	"rest_vel\000"
 4546      5F76656C 
 4546      00
 4547              	.LASF78:
 4548 0172 656D675F 		.ascii	"emg_threshold\000"
 4548      74687265 
 4548      73686F6C 
 4548      6400
 4549              	.LASF6:
 4550 0180 6C6F6E67 		.ascii	"long long int\000"
 4550      206C6F6E 
 4550      6720696E 
 4550      7400
 4551              	.LASF0:
 4552 018e 7369676E 		.ascii	"signed char\000"
 4552      65642063 
 4552      68617200 
 4553              	.LASF122:
 4554 019a 63757272 		.ascii	"curr_estim\000"
 4554      5F657374 
 4554      696D00
 4555              	.LASF150:
 4556 01a5 6E6F726D 		.ascii	"norm\000"
 4556      00
 4557              	.LASF27:
 4558 01aa 65737469 		.ascii	"estim_curr\000"
 4558      6D5F6375 
 4558      727200
 4559              	.LASF149:
 4560 01b5 76335F69 		.ascii	"v3_in\000"
 4560      6E00
 4561              	.LASF169:
 4562 01bb 666F7263 		.ascii	"forced_open\000"
 4562      65645F6F 
 4562      70656E00 
 4563              	.LASF16:
 4564 01c7 696E7433 		.ascii	"int32\000"
 4564      3200
 4565              	.LASF120:
 4566 01cd 6572725F 		.ascii	"err_pos_dt\000"
 4566      706F735F 
 4566      647400
 4567              	.LASF4:
 4568 01d8 6C6F6E67 		.ascii	"long int\000"
 4568      20696E74 
 4568      00
 4569              	.LASF166:
 4570 01e1 74656E73 		.ascii	"tension_valid\000"
 4570      696F6E5F 
 4570      76616C69 
 4570      6400
ARM GAS  C:\Users\MattiaCP\AppData\Local\Temp\cc5xw3YS.s 			page 93


 4571              	.LASF105:
 4572 01ef 6F6C645F 		.ascii	"old_value\000"
 4572      76616C75 
 4572      6500
 4573              	.LASF70:
 4574 01f9 6E6F745F 		.ascii	"not_revers_motor_flag\000"
 4574      72657665 
 4574      72735F6D 
 4574      6F746F72 
 4574      5F666C61 
 4575              	.LASF163:
 4576 020f 706F775F 		.ascii	"pow_tension\000"
 4576      74656E73 
 4576      696F6E00 
 4577              	.LASF41:
 4578 021b 72696768 		.ascii	"right_left\000"
 4578      745F6C65 
 4578      667400
 4579              	.LASF35:
 4580 0226 77697265 		.ascii	"wire_disp\000"
 4580      5F646973 
 4580      7000
 4581              	.LASF141:
 4582 0230 4C45445F 		.ascii	"LED_control\000"
 4582      636F6E74 
 4582      726F6C00 
 4583              	.LASF67:
 4584 023c 636F6E74 		.ascii	"control_mode\000"
 4584      726F6C5F 
 4584      6D6F6465 
 4584      00
 4585              	.LASF100:
 4586 0249 756E7573 		.ascii	"unused_bytes1\000"
 4586      65645F62 
 4586      79746573 
 4586      3100
 4587              	.LASF152:
 4588 0257 76345F69 		.ascii	"v4_in\000"
 4588      6E00
 4589              	.LASF145:
 4590 025d 62617474 		.ascii	"battery_management\000"
 4590      6572795F 
 4590      6D616E61 
 4590      67656D65 
 4590      6E7400
 4591              	.LASF115:
 4592 0270 53554D5F 		.ascii	"SUM_AND_MEAN\000"
 4592      414E445F 
 4592      4D45414E 
 4592      00
 4593              	.LASF85:
 4594 027d 5350495F 		.ascii	"SPI_read_delay\000"
 4594      72656164 
 4594      5F64656C 
 4594      617900
 4595              	.LASF28:
 4596 028c 73745F65 		.ascii	"st_emg_meas\000"
ARM GAS  C:\Users\MattiaCP\AppData\Local\Temp\cc5xw3YS.s 			page 94


 4596      6D675F6D 
 4596      65617300 
 4597              	.LASF102:
 4598 0298 70696C6F 		.ascii	"pilot_id\000"
 4598      745F6964 
 4598      00
 4599              	.LASF112:
 4600 02a1 4E4F524D 		.ascii	"NORMAL\000"
 4600      414C00
 4601              	.LASF13:
 4602 02a8 75696E74 		.ascii	"uint32\000"
 4602      333200
 4603              	.LASF98:
 4604 02af 73745F65 		.ascii	"st_eeprom\000"
 4604      6570726F 
 4604      6D00
 4605              	.LASF147:
 4606 02b9 68616C66 		.ascii	"halfx\000"
 4606      7800
 4607              	.LASF124:
 4608 02bf 6E65775F 		.ascii	"new_value\000"
 4608      76616C75 
 4608      6500
 4609              	.LASF53:
 4610 02c9 6B5F705F 		.ascii	"k_p_c_dl\000"
 4610      635F646C 
 4610      00
 4611              	.LASF111:
 4612 02d2 72657065 		.ascii	"repetitions\000"
 4612      74697469 
 4612      6F6E7300 
 4613              	.LASF12:
 4614 02de 75696E74 		.ascii	"uint16\000"
 4614      313600
 4615              	.LASF175:
 4616 02e5 433A5C55 		.ascii	"C:\\Users\\MattiaCP\\Documents\\GITHUB\\SoftHand-PR"
 4616      73657273 
 4616      5C4D6174 
 4616      74696143 
 4616      505C446F 
 4617 0313 4F2D5053 		.ascii	"O-PSoC5\\firmware.cydsn\000"
 4617      6F43355C 
 4617      6669726D 
 4617      77617265 
 4617      2E637964 
 4618              	.LASF66:
 4619 032a 696E7075 		.ascii	"input_mode\000"
 4619      745F6D6F 
 4619      646500
 4620              	.LASF156:
 4621 0335 675F656D 		.ascii	"g_emg_meas\000"
 4621      675F6D65 
 4621      617300
 4622              	.LASF129:
 4623 0340 706F7331 		.ascii	"pos1\000"
 4623      00
 4624              	.LASF130:
ARM GAS  C:\Users\MattiaCP\AppData\Local\Temp\cc5xw3YS.s 			page 95


 4625 0345 706F7332 		.ascii	"pos2\000"
 4625      00
 4626              	.LASF52:
 4627 034a 6B5F645F 		.ascii	"k_d_dl\000"
 4627      646C00
 4628              	.LASF42:
 4629 0351 72657365 		.ascii	"reset_counters\000"
 4629      745F636F 
 4629      756E7465 
 4629      727300
 4630              	.LASF8:
 4631 0360 756E7369 		.ascii	"unsigned int\000"
 4631      676E6564 
 4631      20696E74 
 4631      00
 4632              	.LASF25:
 4633 036d 73745F72 		.ascii	"st_ref\000"
 4633      656600
 4634              	.LASF76:
 4635 0374 6D6F746F 		.ascii	"motor_handle_ratio\000"
 4635      725F6861 
 4635      6E646C65 
 4635      5F726174 
 4635      696F00
 4636              	.LASF146:
 4637 0387 696E7653 		.ascii	"invSqrt\000"
 4637      71727400 
 4638              	.LASF51:
 4639 038f 6B5F695F 		.ascii	"k_i_dl\000"
 4639      646C00
 4640              	.LASF138:
 4641 0396 63757272 		.ascii	"curr_pos\000"
 4641      5F706F73 
 4641      00
 4642              	.LASF136:
 4643 039f 6162735F 		.ascii	"abs_err_thr\000"
 4643      6572725F 
 4643      74687200 
 4644              	.LASF5:
 4645 03ab 6C6F6E67 		.ascii	"long unsigned int\000"
 4645      20756E73 
 4645      69676E65 
 4645      6420696E 
 4645      7400
 4646              	.LASF176:
 4647 03bd 4144435F 		.ascii	"ADC_Set_N_Channels\000"
 4647      5365745F 
 4647      4E5F4368 
 4647      616E6E65 
 4647      6C7300
 4648              	.LASF62:
 4649 03d0 6D61785F 		.ascii	"max_step_neg\000"
 4649      73746570 
 4649      5F6E6567 
 4649      00
 4650              	.LASF91:
 4651 03dd 72656164 		.ascii	"read_ADC_sensors_port_flag\000"
ARM GAS  C:\Users\MattiaCP\AppData\Local\Temp\cc5xw3YS.s 			page 96


 4651      5F414443 
 4651      5F73656E 
 4651      736F7273 
 4651      5F706F72 
 4652              	.LASF11:
 4653 03f8 75696E74 		.ascii	"uint8\000"
 4653      3800
 4654              	.LASF162:
 4655 03fe 6465765F 		.ascii	"dev_tension_f\000"
 4655      74656E73 
 4655      696F6E5F 
 4655      6600
 4656              	.LASF72:
 4657 040c 456E636F 		.ascii	"Encoder_conf\000"
 4657      6465725F 
 4657      636F6E66 
 4657      00
 4658              	.LASF154:
 4659 0419 675F7265 		.ascii	"g_refNew\000"
 4659      664E6577 
 4659      00
 4660              	.LASF14:
 4661 0422 696E7438 		.ascii	"int8\000"
 4661      00
 4662              	.LASF167:
 4663 0427 6D61696E 		.ascii	"maintenance_flag\000"
 4663      74656E61 
 4663      6E63655F 
 4663      666C6167 
 4663      00
 4664              	.LASF119:
 4665 0438 76697274 		.ascii	"virtual_pos_friction\000"
 4665      75616C5F 
 4665      706F735F 
 4665      66726963 
 4665      74696F6E 
 4666              	.LASF58:
 4667 044d 6D6F746F 		.ascii	"motor_driver_type\000"
 4667      725F6472 
 4667      69766572 
 4667      5F747970 
 4667      6500
 4668              	.LASF60:
 4669 045f 706F735F 		.ascii	"pos_lim_inf\000"
 4669      6C696D5F 
 4669      696E6600 
 4670              	.LASF45:
 4671 046b 756E7573 		.ascii	"unused_bytes\000"
 4671      65645F62 
 4671      79746573 
 4671      00
 4672              	.LASF32:
 4673 0478 706F7369 		.ascii	"position_hist\000"
 4673      74696F6E 
 4673      5F686973 
 4673      7400
 4674              	.LASF9:
ARM GAS  C:\Users\MattiaCP\AppData\Local\Temp\cc5xw3YS.s 			page 97


 4675 0486 5F5F696E 		.ascii	"__int32_t\000"
 4675      7433325F 
 4675      7400
 4676              	.LASF172:
 4677 0490 72657374 		.ascii	"rest_pos_curr_ref\000"
 4677      5F706F73 
 4677      5F637572 
 4677      725F7265 
 4677      6600
 4678              	.LASF39:
 4679 04a2 68775F6D 		.ascii	"hw_maint_date\000"
 4679      61696E74 
 4679      5F646174 
 4679      6500
 4680              	.LASF159:
 4681 04b0 63616C69 		.ascii	"calib\000"
 4681      6200
 4682              	.LASF86:
 4683 04b6 494D555F 		.ascii	"IMU_conf\000"
 4683      636F6E66 
 4683      00
 4684              	.LASF89:
 4685 04bf 75736572 		.ascii	"user_code_string\000"
 4685      5F636F64 
 4685      655F7374 
 4685      72696E67 
 4685      00
 4686              	.LASF17:
 4687 04d0 666C6F61 		.ascii	"float32\000"
 4687      74333200 
 4688              	.LASF144:
 4689 04d8 656E6162 		.ascii	"enable_motor\000"
 4689      6C655F6D 
 4689      6F746F72 
 4689      00
 4690              	.LASF22:
 4691 04e5 73697A65 		.ascii	"sizetype\000"
 4691      74797065 
 4691      00
 4692              	.LASF21:
 4693 04ee 6C6F6E67 		.ascii	"long double\000"
 4693      20646F75 
 4693      626C6500 
 4694              	.LASF38:
 4695 04fa 73745F64 		.ascii	"st_device\000"
 4695      65766963 
 4695      6500
 4696              	.LASF168:
 4697 0504 72657374 		.ascii	"rest_enabled\000"
 4697      5F656E61 
 4697      626C6564 
 4697      00
 4698              	.LASF126:
 4699 0511 64697669 		.ascii	"divisor\000"
 4699      736F7200 
 4700              	.LASF157:
 4701 0519 675F6D65 		.ascii	"g_mem\000"
ARM GAS  C:\Users\MattiaCP\AppData\Local\Temp\cc5xw3YS.s 			page 98


 4701      6D00
 4702              	.LASF171:
 4703 051f 4E554D5F 		.ascii	"NUM_OF_ANALOG_INPUTS\000"
 4703      4F465F41 
 4703      4E414C4F 
 4703      475F494E 
 4703      50555453 
 4704              	.LASF131:
 4705 0534 63616C69 		.ascii	"calibration\000"
 4705      62726174 
 4705      696F6E00 
 4706              	.LASF47:
 4707 0540 6B5F705F 		.ascii	"k_p_c\000"
 4707      6300
 4708              	.LASF94:
 4709 0546 72657374 		.ascii	"rest_pos\000"
 4709      5F706F73 
 4709      00
 4710              	.LASF61:
 4711 054f 706F735F 		.ascii	"pos_lim_sup\000"
 4711      6C696D5F 
 4711      73757000 
 4712              	.LASF33:
 4713 055b 63757272 		.ascii	"current_hist\000"
 4713      656E745F 
 4713      68697374 
 4713      00
 4714              	.LASF88:
 4715 0568 63757272 		.ascii	"curr_time\000"
 4715      5F74696D 
 4715      6500
 4716              	.LASF56:
 4717 0572 61637469 		.ascii	"activ\000"
 4717      7600
 4718              	.LASF79:
 4719 0578 656D675F 		.ascii	"emg_max_value\000"
 4719      6D61785F 
 4719      76616C75 
 4719      6500
 4720              	.LASF134:
 4721 0586 666C6167 		.ascii	"flag_count\000"
 4721      5F636F75 
 4721      6E7400
 4722              	.LASF101:
 4723 0591 6D6F746F 		.ascii	"motor\000"
 4723      7200
 4724              	.LASF113:
 4725 0597 52455345 		.ascii	"RESET\000"
 4725      5400
 4726              	.LASF106:
 4727 059d 6761696E 		.ascii	"gain\000"
 4727      00
 4728              	.LASF10:
 4729 05a2 696E7433 		.ascii	"int32_t\000"
 4729      325F7400 
 4730              	.LASF121:
 4731 05aa 63757272 		.ascii	"curr_estimate\000"
ARM GAS  C:\Users\MattiaCP\AppData\Local\Temp\cc5xw3YS.s 			page 99


 4731      5F657374 
 4731      696D6174 
 4731      6500
 4732              	.LASF23:
 4733 05b8 63757272 		.ascii	"curr\000"
 4733      00
 4734              	.LASF74:
 4735 05bd 6D5F6D75 		.ascii	"m_mult\000"
 4735      6C7400
 4736              	.LASF165:
 4737 05c4 656D675F 		.ascii	"emg_2_status\000"
 4737      325F7374 
 4737      61747573 
 4737      00
 4738              	.LASF92:
 4739 05d1 4144435F 		.ascii	"ADC_conf\000"
 4739      636F6E66 
 4739      00
 4740              	.LASF2:
 4741 05da 73686F72 		.ascii	"short int\000"
 4741      7420696E 
 4741      7400
 4742              	.LASF104:
 4743 05e4 73745F66 		.ascii	"st_filter\000"
 4743      696C7465 
 4743      7200
 4744              	.LASF71:
 4745 05ee 73745F65 		.ascii	"st_encoder\000"
 4745      6E636F64 
 4745      657200
 4746              	.LASF99:
 4747 05f9 666C6167 		.ascii	"flag\000"
 4747      00
 4748              	.LASF118:
 4749 05fe 656D675F 		.ascii	"emg_status\000"
 4749      73746174 
 4749      757300
 4750              	.LASF65:
 4751 0609 63757272 		.ascii	"current_limit\000"
 4751      656E745F 
 4751      6C696D69 
 4751      7400
 4752              	.LASF30:
 4753 0617 73745F63 		.ascii	"st_counters\000"
 4753      6F756E74 
 4753      65727300 
 4754              	.LASF135:
 4755 0623 66697273 		.ascii	"first_time\000"
 4755      745F7469 
 4755      6D6500
 4756              	.LASF107:
 4757 062e 73745F63 		.ascii	"st_calib\000"
 4757      616C6962 
 4757      00
 4758              	.LASF31:
 4759 0637 656D675F 		.ascii	"emg_counter\000"
 4759      636F756E 
ARM GAS  C:\Users\MattiaCP\AppData\Local\Temp\cc5xw3YS.s 			page 100


 4759      74657200 
 4760              	.LASF59:
 4761 0643 706F735F 		.ascii	"pos_lim_flag\000"
 4761      6C696D5F 
 4761      666C6167 
 4761      00
 4762              	.LASF77:
 4763 0650 73745F65 		.ascii	"st_emg\000"
 4763      6D6700
 4764              	.LASF63:
 4765 0657 6D61785F 		.ascii	"max_step_pos\000"
 4765      73746570 
 4765      5F706F73 
 4765      00
 4766              	.LASF108:
 4767 0664 656E6162 		.ascii	"enabled\000"
 4767      6C656400 
 4768              	.LASF34:
 4769 066c 72657374 		.ascii	"rest_counter\000"
 4769      5F636F75 
 4769      6E746572 
 4769      00
 4770              	.LASF161:
 4771 0679 6465765F 		.ascii	"dev_tension\000"
 4771      74656E73 
 4771      696F6E00 
 4772              	.LASF18:
 4773 0685 666C6F61 		.ascii	"float\000"
 4773      7400
 4774              	.LASF57:
 4775 068b 61637469 		.ascii	"activate_pwm_rescaling\000"
 4775      76617465 
 4775      5F70776D 
 4775      5F726573 
 4775      63616C69 
 4776              	.LASF20:
 4777 06a2 63686172 		.ascii	"char\000"
 4777      00
 4778              	.LASF155:
 4779 06a7 675F6D65 		.ascii	"g_meas\000"
 4779      617300
 4780              	.LASF142:
 4781 06ae 6D6F6465 		.ascii	"mode\000"
 4781      00
 4782              	.LASF174:
 4783 06b3 2E2E5C73 		.ascii	"..\\src\\utils.c\000"
 4783      72635C75 
 4783      74696C73 
 4783      2E6300
 4784              	.LASF151:
 4785 06c2 76345F6E 		.ascii	"v4_normalize\000"
 4785      6F726D61 
 4785      6C697A65 
 4785      00
 4786              	.LASF87:
 4787 06cf 73745F65 		.ascii	"st_expansion\000"
 4787      7870616E 
ARM GAS  C:\Users\MattiaCP\AppData\Local\Temp\cc5xw3YS.s 			page 101


 4787      73696F6E 
 4787      00
 4788              	.LASF29:
 4789 06dc 6164645F 		.ascii	"add_emg\000"
 4789      656D6700 
 4790              	.LASF54:
 4791 06e4 6B5F695F 		.ascii	"k_i_c_dl\000"
 4791      635F646C 
 4791      00
 4792              	.LASF97:
 4793 06ed 72657374 		.ascii	"rest_position_flag\000"
 4793      5F706F73 
 4793      6974696F 
 4793      6E5F666C 
 4793      616700
 4794              	.LASF48:
 4795 0700 6B5F695F 		.ascii	"k_i_c\000"
 4795      6300
 4796              	.LASF3:
 4797 0706 73686F72 		.ascii	"short unsigned int\000"
 4797      7420756E 
 4797      7369676E 
 4797      65642069 
 4797      6E7400
 4798              	.LASF1:
 4799 0719 756E7369 		.ascii	"unsigned char\000"
 4799      676E6564 
 4799      20636861 
 4799      7200
 4800              	.LASF114:
 4801 0727 44495343 		.ascii	"DISCARD\000"
 4801      41524400 
 4802              	.LASF46:
 4803 072f 73745F6D 		.ascii	"st_motor\000"
 4803      6F746F72 
 4803      00
 4804              	.LASF95:
 4805 0738 72657374 		.ascii	"rest_delay\000"
 4805      5F64656C 
 4805      617900
 4806              	.LASF123:
 4807 0743 66696C74 		.ascii	"filter\000"
 4807      657200
 4808              	.LASF81:
 4809 074a 656D675F 		.ascii	"emg_calibration_flag\000"
 4809      63616C69 
 4809      62726174 
 4809      696F6E5F 
 4809      666C6167 
 4810              	.LASF49:
 4811 075f 6B5F645F 		.ascii	"k_d_c\000"
 4811      6300
 4812              	.LASF82:
 4813 0765 73776974 		.ascii	"switch_emg\000"
 4813      63685F65 
 4813      6D6700
 4814              	.LASF103:
ARM GAS  C:\Users\MattiaCP\AppData\Local\Temp\cc5xw3YS.s 			page 102


 4815 0770 70696C6F 		.ascii	"pilot_emg\000"
 4815      745F656D 
 4815      6700
 4816              	.LASF64:
 4817 077a 63757272 		.ascii	"curr_lookup\000"
 4817      5F6C6F6F 
 4817      6B757000 
 4818              	.LASF84:
 4819 0786 72656164 		.ascii	"read_imu_flag\000"
 4819      5F696D75 
 4819      5F666C61 
 4819      6700
 4820              	.LASF117:
 4821 0794 57414954 		.ascii	"WAIT_EoC\000"
 4821      5F456F43 
 4821      00
 4822              	.LASF80:
 4823 079d 656D675F 		.ascii	"emg_speed\000"
 4823      73706565 
 4823      6400
 4824              	.LASF132:
 4825 07a7 63686563 		.ascii	"check_rest_position\000"
 4825      6B5F7265 
 4825      73745F70 
 4825      6F736974 
 4825      696F6E00 
 4826              	.LASF55:
 4827 07bb 6B5F645F 		.ascii	"k_d_c_dl\000"
 4827      635F646C 
 4827      00
 4828              	.LASF116:
 4829 07c4 57414954 		.ascii	"WAIT\000"
 4829      00
 4830              	.LASF148:
 4831 07c9 76335F6E 		.ascii	"v3_normalize\000"
 4831      6F726D61 
 4831      6C697A65 
 4831      00
 4832              	.LASF15:
 4833 07d6 696E7431 		.ascii	"int16\000"
 4833      3600
 4834              	.LASF90:
 4835 07dc 72656164 		.ascii	"read_exp_port_flag\000"
 4835      5F657870 
 4835      5F706F72 
 4835      745F666C 
 4835      616700
 4836              	.LASF93:
 4837 07ef 73745F53 		.ascii	"st_SH_spec\000"
 4837      485F7370 
 4837      656300
 4838              	.LASF110:
 4839 07fa 73706565 		.ascii	"speed\000"
 4839      6400
 4840              	.LASF140:
 4841 0800 72657374 		.ascii	"rest_vel_ticks_ms\000"
 4841      5F76656C 
ARM GAS  C:\Users\MattiaCP\AppData\Local\Temp\cc5xw3YS.s 			page 103


 4841      5F746963 
 4841      6B735F6D 
 4841      7300
 4842              	.LASF37:
 4843 0812 746F7461 		.ascii	"total_time_rest\000"
 4843      6C5F7469 
 4843      6D655F72 
 4843      65737400 
 4844              	.LASF75:
 4845 0822 646F7562 		.ascii	"double_encoder_on_off\000"
 4845      6C655F65 
 4845      6E636F64 
 4845      65725F6F 
 4845      6E5F6F66 
 4846              	.LASF164:
 4847 0838 656D675F 		.ascii	"emg_1_status\000"
 4847      315F7374 
 4847      61747573 
 4847      00
 4848              	.LASF128:
 4849 0845 63616C63 		.ascii	"calc_turns_fcn\000"
 4849      5F747572 
 4849      6E735F66 
 4849      636E00
 4850              	.LASF40:
 4851 0854 73746174 		.ascii	"stats_period_begin_date\000"
 4851      735F7065 
 4851      72696F64 
 4851      5F626567 
 4851      696E5F64 
 4852              	.LASF19:
 4853 086c 646F7562 		.ascii	"double\000"
 4853      6C6500
 4854              	.LASF50:
 4855 0873 6B5F705F 		.ascii	"k_p_dl\000"
 4855      646C00
 4856              	.LASF69:
 4857 087a 70776D5F 		.ascii	"pwm_rate_limiter\000"
 4857      72617465 
 4857      5F6C696D 
 4857      69746572 
 4857      00
 4858              		.ident	"GCC: (GNU Tools for ARM Embedded Processors) 5.4.1 20160609 (release) [ARM/embedded-5-bran
