ARM GAS  C:\Users\MattiaCP\AppData\Local\Temp\ccjRb3Rd.s 			page 1


   1              		.syntax unified
   2              		.cpu cortex-m3
   3              		.fpu softvfp
   4              		.eabi_attribute 20, 1
   5              		.eabi_attribute 21, 1
   6              		.eabi_attribute 23, 3
   7              		.eabi_attribute 24, 1
   8              		.eabi_attribute 25, 1
   9              		.eabi_attribute 26, 1
  10              		.eabi_attribute 30, 6
  11              		.eabi_attribute 34, 1
  12              		.eabi_attribute 18, 4
  13              		.thumb
  14              		.syntax unified
  15              		.file	"utils.c"
  16              		.text
  17              	.Ltext0:
  18              		.cfi_sections	.debug_frame
  19              		.global	__aeabi_i2f
  20              		.global	__aeabi_fmul
  21              		.global	__aeabi_fadd
  22              		.global	__aeabi_fdiv
  23              		.global	__aeabi_f2iz
  24              		.section	.text.curr_estim,"ax",%progbits
  25              		.align	2
  26              		.global	curr_estim
  27              		.thumb
  28              		.thumb_func
  29              		.type	curr_estim, %function
  30              	curr_estim:
  31              	.LFB64:
  32              		.file 1 "..\\src\\utils.c"
   1:..\src/utils.c **** // ----------------------------------------------------------------------------
   2:..\src/utils.c **** // BSD 3-Clause License
   3:..\src/utils.c **** 
   4:..\src/utils.c **** // Copyright (c) 2016, qbrobotics
   5:..\src/utils.c **** // Copyright (c) 2017-2019, Centro "E.Piaggio"
   6:..\src/utils.c **** // All rights reserved.
   7:..\src/utils.c **** 
   8:..\src/utils.c **** // Redistribution and use in source and binary forms, with or without
   9:..\src/utils.c **** // modification, are permitted provided that the following conditions are met:
  10:..\src/utils.c **** 
  11:..\src/utils.c **** // * Redistributions of source code must retain the above copyright notice, this
  12:..\src/utils.c **** //   list of conditions and the following disclaimer.
  13:..\src/utils.c **** 
  14:..\src/utils.c **** // * Redistributions in binary form must reproduce the above copyright notice,
  15:..\src/utils.c **** //   this list of conditions and the following disclaimer in the documentation
  16:..\src/utils.c **** //   and/or other materials provided with the distribution.
  17:..\src/utils.c **** 
  18:..\src/utils.c **** // * Neither the name of the copyright holder nor the names of its
  19:..\src/utils.c **** //   contributors may be used to endorse or promote products derived from
  20:..\src/utils.c **** //   this software without specific prior written permission.
  21:..\src/utils.c **** 
  22:..\src/utils.c **** // THIS SOFTWARE IS PROVIDED BY THE COPYRIGHT HOLDERS AND CONTRIBUTORS "AS IS"
  23:..\src/utils.c **** // AND ANY EXPRESS OR IMPLIED WARRANTIES, INCLUDING, BUT NOT LIMITED TO, THE
  24:..\src/utils.c **** // IMPLIED WARRANTIES OF MERCHANTABILITY AND FITNESS FOR A PARTICULAR PURPOSE ARE
  25:..\src/utils.c **** // DISCLAIMED. IN NO EVENT SHALL THE COPYRIGHT HOLDER OR CONTRIBUTORS BE LIABLE
ARM GAS  C:\Users\MattiaCP\AppData\Local\Temp\ccjRb3Rd.s 			page 2


  26:..\src/utils.c **** // FOR ANY DIRECT, INDIRECT, INCIDENTAL, SPECIAL, EXEMPLARY, OR CONSEQUENTIAL
  27:..\src/utils.c **** // DAMAGES (INCLUDING, BUT NOT LIMITED TO, PROCUREMENT OF SUBSTITUTE GOODS OR
  28:..\src/utils.c **** // SERVICES; LOSS OF USE, DATA, OR PROFITS; OR BUSINESS INTERRUPTION) HOWEVER
  29:..\src/utils.c **** // CAUSED AND ON ANY THEORY OF LIABILITY, WHETHER IN CONTRACT, STRICT LIABILITY,
  30:..\src/utils.c **** // OR TORT (INCLUDING NEGLIGENCE OR OTHERWISE) ARISING IN ANY WAY OUT OF THE USE
  31:..\src/utils.c **** // OF THIS SOFTWARE, EVEN IF ADVISED OF THE POSSIBILITY OF SUCH DAMAGE.
  32:..\src/utils.c **** // POSSIBILITY OF SUCH DAMAGE.
  33:..\src/utils.c **** // ----------------------------------------------------------------------------
  34:..\src/utils.c **** 
  35:..\src/utils.c **** /**
  36:..\src/utils.c **** * \file         utils.c
  37:..\src/utils.c **** *
  38:..\src/utils.c **** * \brief        Definition of utility functions.
  39:..\src/utils.c **** * \date         October 01, 2017
  40:..\src/utils.c **** * \author       _Centro "E.Piaggio"_
  41:..\src/utils.c **** * \copyright    (C) 2012-2016 qbrobotics. All rights reserved.
  42:..\src/utils.c **** * \copyright    (C) 2017-2019 Centro "E.Piaggio". All rights reserved.
  43:..\src/utils.c **** */
  44:..\src/utils.c **** 
  45:..\src/utils.c **** #include "utils.h"
  46:..\src/utils.c **** #include <math.h>
  47:..\src/utils.c **** 
  48:..\src/utils.c **** //==============================================================================
  49:..\src/utils.c **** //                                                            Current Estimation
  50:..\src/utils.c **** //==============================================================================
  51:..\src/utils.c **** 
  52:..\src/utils.c **** int32 curr_estim ( int32 pos, int32 vel, int32 ref ) {
  33              		.loc 1 52 0
  34              		.cfi_startproc
  35              		@ args = 0, pretend = 0, frame = 24
  36              		@ frame_needed = 1, uses_anonymous_args = 0
  37 0000 B0B5     		push	{r4, r5, r7, lr}
  38              		.cfi_def_cfa_offset 16
  39              		.cfi_offset 4, -16
  40              		.cfi_offset 5, -12
  41              		.cfi_offset 7, -8
  42              		.cfi_offset 14, -4
  43 0002 86B0     		sub	sp, sp, #24
  44              		.cfi_def_cfa_offset 40
  45 0004 00AF     		add	r7, sp, #0
  46              		.cfi_def_cfa_register 7
  47 0006 F860     		str	r0, [r7, #12]
  48 0008 B960     		str	r1, [r7, #8]
  49 000a 7A60     		str	r2, [r7, #4]
  53:..\src/utils.c **** 
  54:..\src/utils.c ****         static int32 virtual_pos_friction; 	// Virtual position used to estimate friction.
  55:..\src/utils.c ****         static int32 err_pos_dt;			// Temporal evolution of error position.
  56:..\src/utils.c **** 											// Needed to model the current transients due to reference steps.
  57:..\src/utils.c ****         int32 curr_estimate;
  58:..\src/utils.c **** 
  59:..\src/utils.c ****         if (pos < ZERO_TOL) 
  50              		.loc 1 59 0
  51 000c FB68     		ldr	r3, [r7, #12]
  52 000e 632B     		cmp	r3, #99
  53 0010 03DC     		bgt	.L2
  60:..\src/utils.c **** 			virtual_pos_friction = pos;
  54              		.loc 1 60 0
ARM GAS  C:\Users\MattiaCP\AppData\Local\Temp\ccjRb3Rd.s 			page 3


  55 0012 694A     		ldr	r2, .L9
  56 0014 FB68     		ldr	r3, [r7, #12]
  57 0016 1360     		str	r3, [r2]
  58 0018 15E0     		b	.L3
  59              	.L2:
  61:..\src/utils.c ****         else {
  62:..\src/utils.c **** 			if ((pos - virtual_pos_friction) > ZMAX) 
  60              		.loc 1 62 0
  61 001a 674B     		ldr	r3, .L9
  62 001c 1B68     		ldr	r3, [r3]
  63 001e FA68     		ldr	r2, [r7, #12]
  64 0020 D31A     		subs	r3, r2, r3
  65 0022 052B     		cmp	r3, #5
  66 0024 04DD     		ble	.L4
  63:..\src/utils.c **** 				virtual_pos_friction =  pos - ZMAX;
  67              		.loc 1 63 0
  68 0026 FB68     		ldr	r3, [r7, #12]
  69 0028 053B     		subs	r3, r3, #5
  70 002a 634A     		ldr	r2, .L9
  71 002c 1360     		str	r3, [r2]
  72 002e 0AE0     		b	.L3
  73              	.L4:
  64:..\src/utils.c ****         	else { 
  65:..\src/utils.c **** 				if ((pos - virtual_pos_friction) < -ZMAX) 
  74              		.loc 1 65 0
  75 0030 614B     		ldr	r3, .L9
  76 0032 1B68     		ldr	r3, [r3]
  77 0034 FA68     		ldr	r2, [r7, #12]
  78 0036 D31A     		subs	r3, r2, r3
  79 0038 13F1050F 		cmn	r3, #5
  80 003c 03DA     		bge	.L3
  66:..\src/utils.c **** 					virtual_pos_friction =  pos + ZMAX;
  81              		.loc 1 66 0
  82 003e FB68     		ldr	r3, [r7, #12]
  83 0040 0533     		adds	r3, r3, #5
  84 0042 5D4A     		ldr	r2, .L9
  85 0044 1360     		str	r3, [r2]
  86              	.L3:
  67:..\src/utils.c **** 			}
  68:..\src/utils.c **** 		}        
  69:..\src/utils.c ****        
  70:..\src/utils.c ****         curr_estimate = pos * g_mem.curr_lookup[0] * (1 + pos * g_mem.curr_lookup[1]) + (pos - virt
  87              		.loc 1 70 0
  88 0046 F868     		ldr	r0, [r7, #12]
  89 0048 FFF7FEFF 		bl	__aeabi_i2f
  90 004c 0246     		mov	r2, r0
  91 004e 5B4B     		ldr	r3, .L9+4
  92 0050 DB6F     		ldr	r3, [r3, #124]	@ float
  93 0052 1946     		mov	r1, r3
  94 0054 1046     		mov	r0, r2
  95 0056 FFF7FEFF 		bl	__aeabi_fmul
  96 005a 0346     		mov	r3, r0
  97 005c 1C46     		mov	r4, r3
  98 005e F868     		ldr	r0, [r7, #12]
  99 0060 FFF7FEFF 		bl	__aeabi_i2f
 100 0064 0246     		mov	r2, r0
 101 0066 554B     		ldr	r3, .L9+4
ARM GAS  C:\Users\MattiaCP\AppData\Local\Temp\ccjRb3Rd.s 			page 4


 102 0068 D3F88030 		ldr	r3, [r3, #128]	@ float
 103 006c 1946     		mov	r1, r3
 104 006e 1046     		mov	r0, r2
 105 0070 FFF7FEFF 		bl	__aeabi_fmul
 106 0074 0346     		mov	r3, r0
 107 0076 4FF07E51 		mov	r1, #1065353216
 108 007a 1846     		mov	r0, r3
 109 007c FFF7FEFF 		bl	__aeabi_fadd
 110 0080 0346     		mov	r3, r0
 111 0082 1946     		mov	r1, r3
 112 0084 2046     		mov	r0, r4
 113 0086 FFF7FEFF 		bl	__aeabi_fmul
 114 008a 0346     		mov	r3, r0
 115 008c 1C46     		mov	r4, r3
 116 008e 4A4B     		ldr	r3, .L9
 117 0090 1B68     		ldr	r3, [r3]
 118 0092 FA68     		ldr	r2, [r7, #12]
 119 0094 D31A     		subs	r3, r2, r3
 120 0096 1846     		mov	r0, r3
 121 0098 FFF7FEFF 		bl	__aeabi_i2f
 122 009c 0546     		mov	r5, r0
 123 009e 474B     		ldr	r3, .L9+4
 124 00a0 D3F88430 		ldr	r3, [r3, #132]	@ float
 125 00a4 4649     		ldr	r1, .L9+8
 126 00a6 1846     		mov	r0, r3
 127 00a8 FFF7FEFF 		bl	__aeabi_fdiv
 128 00ac 0346     		mov	r3, r0
 129 00ae 1946     		mov	r1, r3
 130 00b0 2846     		mov	r0, r5
 131 00b2 FFF7FEFF 		bl	__aeabi_fmul
 132 00b6 0346     		mov	r3, r0
 133 00b8 1946     		mov	r1, r3
 134 00ba 2046     		mov	r0, r4
 135 00bc FFF7FEFF 		bl	__aeabi_fadd
 136 00c0 0346     		mov	r3, r0
 137 00c2 1C46     		mov	r4, r3
 138 00c4 B868     		ldr	r0, [r7, #8]
 139 00c6 FFF7FEFF 		bl	__aeabi_i2f
 140 00ca 0246     		mov	r2, r0
 141 00cc 3B4B     		ldr	r3, .L9+4
 142 00ce D3F88830 		ldr	r3, [r3, #136]	@ float
 143 00d2 1946     		mov	r1, r3
 144 00d4 1046     		mov	r0, r2
 145 00d6 FFF7FEFF 		bl	__aeabi_fmul
 146 00da 0346     		mov	r3, r0
 147 00dc 1D46     		mov	r5, r3
 148 00de BB68     		ldr	r3, [r7, #8]
 149 00e0 002B     		cmp	r3, #0
 150 00e2 B8BF     		it	lt
 151 00e4 5B42     		rsblt	r3, r3, #0
 152 00e6 1846     		mov	r0, r3
 153 00e8 FFF7FEFF 		bl	__aeabi_i2f
 154 00ec 0246     		mov	r2, r0
 155 00ee 334B     		ldr	r3, .L9+4
 156 00f0 D3F88C30 		ldr	r3, [r3, #140]	@ float
 157 00f4 1946     		mov	r1, r3
 158 00f6 1046     		mov	r0, r2
ARM GAS  C:\Users\MattiaCP\AppData\Local\Temp\ccjRb3Rd.s 			page 5


 159 00f8 FFF7FEFF 		bl	__aeabi_fmul
 160 00fc 0346     		mov	r3, r0
 161 00fe 4FF07E51 		mov	r1, #1065353216
 162 0102 1846     		mov	r0, r3
 163 0104 FFF7FEFF 		bl	__aeabi_fadd
 164 0108 0346     		mov	r3, r0
 165 010a 1946     		mov	r1, r3
 166 010c 2846     		mov	r0, r5
 167 010e FFF7FEFF 		bl	__aeabi_fmul
 168 0112 0346     		mov	r3, r0
 169 0114 1946     		mov	r1, r3
 170 0116 2046     		mov	r0, r4
 171 0118 FFF7FEFF 		bl	__aeabi_fadd
 172 011c 0346     		mov	r3, r0
 173 011e 1C46     		mov	r4, r3
 174 0120 284B     		ldr	r3, .L9+12
 175 0122 1B68     		ldr	r3, [r3]
 176 0124 7A68     		ldr	r2, [r7, #4]
 177 0126 D31A     		subs	r3, r2, r3
 178 0128 1846     		mov	r0, r3
 179 012a FFF7FEFF 		bl	__aeabi_i2f
 180 012e 0246     		mov	r2, r0
 181 0130 224B     		ldr	r3, .L9+4
 182 0132 D3F89030 		ldr	r3, [r3, #144]	@ float
 183 0136 1946     		mov	r1, r3
 184 0138 1046     		mov	r0, r2
 185 013a FFF7FEFF 		bl	__aeabi_fmul
 186 013e 0346     		mov	r3, r0
 187 0140 1946     		mov	r1, r3
 188 0142 2046     		mov	r0, r4
 189 0144 FFF7FEFF 		bl	__aeabi_fadd
 190 0148 0346     		mov	r3, r0
 191 014a 1846     		mov	r0, r3
 192 014c FFF7FEFF 		bl	__aeabi_f2iz
 193 0150 0346     		mov	r3, r0
 194 0152 7B61     		str	r3, [r7, #20]
  71:..\src/utils.c ****         
  72:..\src/utils.c ****         if (curr_estimate > c_mem.current_limit) 
 195              		.loc 1 72 0
 196 0154 1C4B     		ldr	r3, .L9+16
 197 0156 B3F96830 		ldrsh	r3, [r3, #104]
 198 015a 1A46     		mov	r2, r3
 199 015c 7B69     		ldr	r3, [r7, #20]
 200 015e 9A42     		cmp	r2, r3
 201 0160 04DA     		bge	.L5
  73:..\src/utils.c ****             curr_estimate = c_mem.current_limit;
 202              		.loc 1 73 0
 203 0162 194B     		ldr	r3, .L9+16
 204 0164 B3F96830 		ldrsh	r3, [r3, #104]
 205 0168 7B61     		str	r3, [r7, #20]
 206 016a 0BE0     		b	.L6
 207              	.L5:
  74:..\src/utils.c ****         else {
  75:..\src/utils.c **** 			if (curr_estimate < -c_mem.current_limit)
 208              		.loc 1 75 0
 209 016c 164B     		ldr	r3, .L9+16
 210 016e B3F96830 		ldrsh	r3, [r3, #104]
ARM GAS  C:\Users\MattiaCP\AppData\Local\Temp\ccjRb3Rd.s 			page 6


 211 0172 5A42     		negs	r2, r3
 212 0174 7B69     		ldr	r3, [r7, #20]
 213 0176 9A42     		cmp	r2, r3
 214 0178 04DD     		ble	.L6
  76:..\src/utils.c ****             	curr_estimate = -c_mem.current_limit;
 215              		.loc 1 76 0
 216 017a 134B     		ldr	r3, .L9+16
 217 017c B3F96830 		ldrsh	r3, [r3, #104]
 218 0180 5B42     		negs	r3, r3
 219 0182 7B61     		str	r3, [r7, #20]
 220              	.L6:
  77:..\src/utils.c **** 		}
  78:..\src/utils.c **** 
  79:..\src/utils.c ****         err_pos_dt = (REFSPEED * ref + (1024 - REFSPEED) * err_pos_dt) / 1024;         
 221              		.loc 1 79 0
 222 0184 7A68     		ldr	r2, [r7, #4]
 223 0186 1346     		mov	r3, r2
 224 0188 9B00     		lsls	r3, r3, #2
 225 018a 1344     		add	r3, r3, r2
 226 018c 9B00     		lsls	r3, r3, #2
 227 018e 1946     		mov	r1, r3
 228 0190 0C4B     		ldr	r3, .L9+12
 229 0192 1B68     		ldr	r3, [r3]
 230 0194 4FF47B72 		mov	r2, #1004
 231 0198 02FB03F3 		mul	r3, r2, r3
 232 019c 0B44     		add	r3, r3, r1
 233 019e 002B     		cmp	r3, #0
 234 01a0 01DA     		bge	.L7
 235 01a2 03F2FF33 		addw	r3, r3, #1023
 236              	.L7:
 237 01a6 9B12     		asrs	r3, r3, #10
 238 01a8 1A46     		mov	r2, r3
 239 01aa 064B     		ldr	r3, .L9+12
 240 01ac 1A60     		str	r2, [r3]
  80:..\src/utils.c ****         
  81:..\src/utils.c ****         return curr_estimate;        
 241              		.loc 1 81 0
 242 01ae 7B69     		ldr	r3, [r7, #20]
  82:..\src/utils.c **** }
 243              		.loc 1 82 0
 244 01b0 1846     		mov	r0, r3
 245 01b2 1837     		adds	r7, r7, #24
 246              		.cfi_def_cfa_offset 16
 247 01b4 BD46     		mov	sp, r7
 248              		.cfi_def_cfa_register 13
 249              		@ sp needed
 250 01b6 B0BD     		pop	{r4, r5, r7, pc}
 251              	.L10:
 252              		.align	2
 253              	.L9:
 254 01b8 00000000 		.word	virtual_pos_friction.9935
 255 01bc 00000000 		.word	g_mem
 256 01c0 0000A040 		.word	1084227584
 257 01c4 04000000 		.word	err_pos_dt.9936
 258 01c8 00000000 		.word	c_mem
 259              		.cfi_endproc
 260              	.LFE64:
ARM GAS  C:\Users\MattiaCP\AppData\Local\Temp\ccjRb3Rd.s 			page 7


 261              		.size	curr_estim, .-curr_estim
 262              		.section	.text.filter,"ax",%progbits
 263              		.align	2
 264              		.global	filter
 265              		.thumb
 266              		.thumb_func
 267              		.type	filter, %function
 268              	filter:
 269              	.LFB65:
  83:..\src/utils.c **** 
  84:..\src/utils.c **** //==============================================================================
  85:..\src/utils.c **** //                                                                General filter
  86:..\src/utils.c **** //==============================================================================
  87:..\src/utils.c **** int32 filter(int32 new_value, struct st_filter *f) {
 270              		.loc 1 87 0
 271              		.cfi_startproc
 272              		@ args = 0, pretend = 0, frame = 16
 273              		@ frame_needed = 1, uses_anonymous_args = 0
 274              		@ link register save eliminated.
 275 0000 80B4     		push	{r7}
 276              		.cfi_def_cfa_offset 4
 277              		.cfi_offset 7, -4
 278 0002 85B0     		sub	sp, sp, #20
 279              		.cfi_def_cfa_offset 24
 280 0004 00AF     		add	r7, sp, #0
 281              		.cfi_def_cfa_register 7
 282 0006 7860     		str	r0, [r7, #4]
 283 0008 3960     		str	r1, [r7]
  88:..\src/utils.c **** 
  89:..\src/utils.c ****     int32 aux;
  90:..\src/utils.c **** 
  91:..\src/utils.c ****     aux = (f->old_value * (1024 - f->gain) + (new_value << 6) * (f->gain)) /1024;
 284              		.loc 1 91 0
 285 000a 3B68     		ldr	r3, [r7]
 286 000c 1B68     		ldr	r3, [r3]
 287 000e 3A68     		ldr	r2, [r7]
 288 0010 5268     		ldr	r2, [r2, #4]
 289 0012 C2F58062 		rsb	r2, r2, #1024
 290 0016 02FB03F2 		mul	r2, r2, r3
 291 001a 7B68     		ldr	r3, [r7, #4]
 292 001c 9B01     		lsls	r3, r3, #6
 293 001e 3968     		ldr	r1, [r7]
 294 0020 4968     		ldr	r1, [r1, #4]
 295 0022 01FB03F3 		mul	r3, r1, r3
 296 0026 1344     		add	r3, r3, r2
 297 0028 002B     		cmp	r3, #0
 298 002a 01DA     		bge	.L12
 299 002c 03F2FF33 		addw	r3, r3, #1023
 300              	.L12:
 301 0030 9B12     		asrs	r3, r3, #10
 302 0032 FB60     		str	r3, [r7, #12]
  92:..\src/utils.c **** 
  93:..\src/utils.c ****     f->old_value = aux;
 303              		.loc 1 93 0
 304 0034 3B68     		ldr	r3, [r7]
 305 0036 FA68     		ldr	r2, [r7, #12]
 306 0038 1A60     		str	r2, [r3]
ARM GAS  C:\Users\MattiaCP\AppData\Local\Temp\ccjRb3Rd.s 			page 8


  94:..\src/utils.c **** 
  95:..\src/utils.c ****     return (aux / 64);
 307              		.loc 1 95 0
 308 003a FB68     		ldr	r3, [r7, #12]
 309 003c 002B     		cmp	r3, #0
 310 003e 00DA     		bge	.L13
 311 0040 3F33     		adds	r3, r3, #63
 312              	.L13:
 313 0042 9B11     		asrs	r3, r3, #6
  96:..\src/utils.c **** }
 314              		.loc 1 96 0
 315 0044 1846     		mov	r0, r3
 316 0046 1437     		adds	r7, r7, #20
 317              		.cfi_def_cfa_offset 4
 318 0048 BD46     		mov	sp, r7
 319              		.cfi_def_cfa_register 13
 320              		@ sp needed
 321 004a 80BC     		pop	{r7}
 322              		.cfi_restore 7
 323              		.cfi_def_cfa_offset 0
 324 004c 7047     		bx	lr
 325              		.cfi_endproc
 326              	.LFE65:
 327              		.size	filter, .-filter
 328 004e 00BF     		.section	.text.check_enc_data,"ax",%progbits
 329              		.align	2
 330              		.global	check_enc_data
 331              		.thumb
 332              		.thumb_func
 333              		.type	check_enc_data, %function
 334              	check_enc_data:
 335              	.LFB66:
  97:..\src/utils.c **** 
  98:..\src/utils.c **** //==============================================================================
  99:..\src/utils.c **** //                                                                CHECK ENC DATA
 100:..\src/utils.c **** //==============================================================================
 101:..\src/utils.c **** 
 102:..\src/utils.c **** // Returns 1 if the encoder data is correct, 0 otherwise
 103:..\src/utils.c **** 
 104:..\src/utils.c **** CYBIT check_enc_data(const uint32 *value) {
 336              		.loc 1 104 0
 337              		.cfi_startproc
 338              		@ args = 0, pretend = 0, frame = 16
 339              		@ frame_needed = 1, uses_anonymous_args = 0
 340              		@ link register save eliminated.
 341 0000 80B4     		push	{r7}
 342              		.cfi_def_cfa_offset 4
 343              		.cfi_offset 7, -4
 344 0002 85B0     		sub	sp, sp, #20
 345              		.cfi_def_cfa_offset 24
 346 0004 00AF     		add	r7, sp, #0
 347              		.cfi_def_cfa_register 7
 348 0006 7860     		str	r0, [r7, #4]
 105:..\src/utils.c **** 
 106:..\src/utils.c ****     const uint8* CYIDATA p = (const uint8*)value;
 349              		.loc 1 106 0
 350 0008 7B68     		ldr	r3, [r7, #4]
ARM GAS  C:\Users\MattiaCP\AppData\Local\Temp\ccjRb3Rd.s 			page 9


 351 000a FB60     		str	r3, [r7, #12]
 107:..\src/utils.c ****     uint8 CYDATA a = *p;
 352              		.loc 1 107 0
 353 000c FB68     		ldr	r3, [r7, #12]
 354 000e 1B78     		ldrb	r3, [r3]
 355 0010 FB72     		strb	r3, [r7, #11]
 108:..\src/utils.c **** 
 109:..\src/utils.c ****     a = a ^ *(++p);
 356              		.loc 1 109 0
 357 0012 FB68     		ldr	r3, [r7, #12]
 358 0014 0133     		adds	r3, r3, #1
 359 0016 FB60     		str	r3, [r7, #12]
 360 0018 FB68     		ldr	r3, [r7, #12]
 361 001a 1A78     		ldrb	r2, [r3]	@ zero_extendqisi2
 362 001c FB7A     		ldrb	r3, [r7, #11]
 363 001e 5340     		eors	r3, r3, r2
 364 0020 FB72     		strb	r3, [r7, #11]
 110:..\src/utils.c ****     a = a ^ *(++p);
 365              		.loc 1 110 0
 366 0022 FB68     		ldr	r3, [r7, #12]
 367 0024 0133     		adds	r3, r3, #1
 368 0026 FB60     		str	r3, [r7, #12]
 369 0028 FB68     		ldr	r3, [r7, #12]
 370 002a 1A78     		ldrb	r2, [r3]	@ zero_extendqisi2
 371 002c FB7A     		ldrb	r3, [r7, #11]
 372 002e 5340     		eors	r3, r3, r2
 373 0030 FB72     		strb	r3, [r7, #11]
 111:..\src/utils.c ****     a = a ^ *(++p);
 374              		.loc 1 111 0
 375 0032 FB68     		ldr	r3, [r7, #12]
 376 0034 0133     		adds	r3, r3, #1
 377 0036 FB60     		str	r3, [r7, #12]
 378 0038 FB68     		ldr	r3, [r7, #12]
 379 003a 1A78     		ldrb	r2, [r3]	@ zero_extendqisi2
 380 003c FB7A     		ldrb	r3, [r7, #11]
 381 003e 5340     		eors	r3, r3, r2
 382 0040 FB72     		strb	r3, [r7, #11]
 112:..\src/utils.c ****     a = (a & 0x0F) ^ (a>>4);
 383              		.loc 1 112 0
 384 0042 97F90B30 		ldrsb	r3, [r7, #11]
 385 0046 03F00F03 		and	r3, r3, #15
 386 004a 5AB2     		sxtb	r2, r3
 387 004c FB7A     		ldrb	r3, [r7, #11]	@ zero_extendqisi2
 388 004e 1B09     		lsrs	r3, r3, #4
 389 0050 DBB2     		uxtb	r3, r3
 390 0052 5BB2     		sxtb	r3, r3
 391 0054 5340     		eors	r3, r3, r2
 392 0056 5BB2     		sxtb	r3, r3
 393 0058 FB72     		strb	r3, [r7, #11]
 113:..\src/utils.c **** 
 114:..\src/utils.c ****     return (0x9669 >> a) & 0x01;
 394              		.loc 1 114 0
 395 005a FB7A     		ldrb	r3, [r7, #11]	@ zero_extendqisi2
 396 005c 49F26962 		movw	r2, #38505
 397 0060 42FA03F3 		asr	r3, r2, r3
 398 0064 DBB2     		uxtb	r3, r3
 399 0066 03F00103 		and	r3, r3, #1
ARM GAS  C:\Users\MattiaCP\AppData\Local\Temp\ccjRb3Rd.s 			page 10


 400 006a DBB2     		uxtb	r3, r3
 115:..\src/utils.c ****     //0x9669 is a bit vector representing the !(bitwise XOR) of 4bits
 116:..\src/utils.c **** }
 401              		.loc 1 116 0
 402 006c 1846     		mov	r0, r3
 403 006e 1437     		adds	r7, r7, #20
 404              		.cfi_def_cfa_offset 4
 405 0070 BD46     		mov	sp, r7
 406              		.cfi_def_cfa_register 13
 407              		@ sp needed
 408 0072 80BC     		pop	{r7}
 409              		.cfi_restore 7
 410              		.cfi_def_cfa_offset 0
 411 0074 7047     		bx	lr
 412              		.cfi_endproc
 413              	.LFE66:
 414              		.size	check_enc_data, .-check_enc_data
 415 0076 00BF     		.section	.text.my_mod,"ax",%progbits
 416              		.align	2
 417              		.global	my_mod
 418              		.thumb
 419              		.thumb_func
 420              		.type	my_mod, %function
 421              	my_mod:
 422              	.LFB67:
 117:..\src/utils.c **** 
 118:..\src/utils.c **** //==============================================================================
 119:..\src/utils.c **** //                                                                        MODULE
 120:..\src/utils.c **** //==============================================================================
 121:..\src/utils.c **** 
 122:..\src/utils.c **** uint32 my_mod(int32 val, int32 divisor) {
 423              		.loc 1 122 0
 424              		.cfi_startproc
 425              		@ args = 0, pretend = 0, frame = 8
 426              		@ frame_needed = 1, uses_anonymous_args = 0
 427              		@ link register save eliminated.
 428 0000 80B4     		push	{r7}
 429              		.cfi_def_cfa_offset 4
 430              		.cfi_offset 7, -4
 431 0002 83B0     		sub	sp, sp, #12
 432              		.cfi_def_cfa_offset 16
 433 0004 00AF     		add	r7, sp, #0
 434              		.cfi_def_cfa_register 7
 435 0006 7860     		str	r0, [r7, #4]
 436 0008 3960     		str	r1, [r7]
 123:..\src/utils.c **** 
 124:..\src/utils.c ****     if (val >= 0) {
 437              		.loc 1 124 0
 438 000a 7B68     		ldr	r3, [r7, #4]
 439 000c 002B     		cmp	r3, #0
 440 000e 08DB     		blt	.L18
 125:..\src/utils.c ****         return (int32)(val % divisor);
 441              		.loc 1 125 0
 442 0010 7B68     		ldr	r3, [r7, #4]
 443 0012 3A68     		ldr	r2, [r7]
 444 0014 93FBF2F2 		sdiv	r2, r3, r2
 445 0018 3968     		ldr	r1, [r7]
ARM GAS  C:\Users\MattiaCP\AppData\Local\Temp\ccjRb3Rd.s 			page 11


 446 001a 01FB02F2 		mul	r2, r1, r2
 447 001e 9B1A     		subs	r3, r3, r2
 448 0020 11E0     		b	.L19
 449              	.L18:
 126:..\src/utils.c ****     } else {
 127:..\src/utils.c ****         return (int32)((divisor - (-val % divisor)) % divisor);
 450              		.loc 1 127 0
 451 0022 7B68     		ldr	r3, [r7, #4]
 452 0024 5B42     		negs	r3, r3
 453 0026 3A68     		ldr	r2, [r7]
 454 0028 93FBF2F2 		sdiv	r2, r3, r2
 455 002c 3968     		ldr	r1, [r7]
 456 002e 01FB02F2 		mul	r2, r1, r2
 457 0032 9B1A     		subs	r3, r3, r2
 458 0034 3A68     		ldr	r2, [r7]
 459 0036 D31A     		subs	r3, r2, r3
 460 0038 3A68     		ldr	r2, [r7]
 461 003a 93FBF2F2 		sdiv	r2, r3, r2
 462 003e 3968     		ldr	r1, [r7]
 463 0040 01FB02F2 		mul	r2, r1, r2
 464 0044 9B1A     		subs	r3, r3, r2
 465              	.L19:
 128:..\src/utils.c ****     }
 129:..\src/utils.c **** }
 466              		.loc 1 129 0
 467 0046 1846     		mov	r0, r3
 468 0048 0C37     		adds	r7, r7, #12
 469              		.cfi_def_cfa_offset 4
 470 004a BD46     		mov	sp, r7
 471              		.cfi_def_cfa_register 13
 472              		@ sp needed
 473 004c 80BC     		pop	{r7}
 474              		.cfi_restore 7
 475              		.cfi_def_cfa_offset 0
 476 004e 7047     		bx	lr
 477              		.cfi_endproc
 478              	.LFE67:
 479              		.size	my_mod, .-my_mod
 480              		.section	.text.calibration,"ax",%progbits
 481              		.align	2
 482              		.global	calibration
 483              		.thumb
 484              		.thumb_func
 485              		.type	calibration, %function
 486              	calibration:
 487              	.LFB68:
 130:..\src/utils.c **** 
 131:..\src/utils.c **** 
 132:..\src/utils.c **** //==============================================================================
 133:..\src/utils.c **** //                                                                     CALIBRATE
 134:..\src/utils.c **** //==============================================================================
 135:..\src/utils.c **** 
 136:..\src/utils.c **** void calibration(void) {
 488              		.loc 1 136 0
 489              		.cfi_startproc
 490              		@ args = 0, pretend = 0, frame = 0
 491              		@ frame_needed = 1, uses_anonymous_args = 0
ARM GAS  C:\Users\MattiaCP\AppData\Local\Temp\ccjRb3Rd.s 			page 12


 492              		@ link register save eliminated.
 493 0000 80B4     		push	{r7}
 494              		.cfi_def_cfa_offset 4
 495              		.cfi_offset 7, -4
 496 0002 00AF     		add	r7, sp, #0
 497              		.cfi_def_cfa_register 7
 137:..\src/utils.c ****     static uint8 direction;                 //0 closing, 1 opening.
 138:..\src/utils.c ****     static uint16 closure_counter;          //Range [0 - 2^16].
 139:..\src/utils.c ****     static CYBIT count_one = 1;             //Used to count only one cycle, when inputs are generat
 140:..\src/utils.c ****                                             //and pass the threshold, having the condition verified
 141:..\src/utils.c **** 
 142:..\src/utils.c ****     // closing
 143:..\src/utils.c ****     if (direction == 0) {
 498              		.loc 1 143 0
 499 0004 254B     		ldr	r3, .L25
 500 0006 1B78     		ldrb	r3, [r3]	@ zero_extendqisi2
 501 0008 002B     		cmp	r3, #0
 502 000a 17D1     		bne	.L21
 144:..\src/utils.c ****         g_refNew.pos += (calib.speed << g_mem.res[0]);
 503              		.loc 1 144 0
 504 000c 244B     		ldr	r3, .L25+4
 505 000e 1A68     		ldr	r2, [r3]
 506 0010 244B     		ldr	r3, .L25+8
 507 0012 B3F90230 		ldrsh	r3, [r3, #2]
 508 0016 1946     		mov	r1, r3
 509 0018 234B     		ldr	r3, .L25+12
 510 001a 93F83730 		ldrb	r3, [r3, #55]	@ zero_extendqisi2
 511 001e 01FA03F3 		lsl	r3, r1, r3
 512 0022 1344     		add	r3, r3, r2
 513 0024 1E4A     		ldr	r2, .L25+4
 514 0026 1360     		str	r3, [r2]
 145:..\src/utils.c ****         
 146:..\src/utils.c ****         if ((g_refNew.pos) > g_mem.pos_lim_sup) {
 515              		.loc 1 146 0
 516 0028 1D4B     		ldr	r3, .L25+4
 517 002a 1A68     		ldr	r2, [r3]
 518 002c 1E4B     		ldr	r3, .L25+12
 519 002e DB6D     		ldr	r3, [r3, #92]
 520 0030 9A42     		cmp	r2, r3
 521 0032 2FDD     		ble	.L24
 147:..\src/utils.c ****             direction = 1;
 522              		.loc 1 147 0
 523 0034 194B     		ldr	r3, .L25
 524 0036 0122     		movs	r2, #1
 525 0038 1A70     		strb	r2, [r3]
 148:..\src/utils.c ****         }
 149:..\src/utils.c ****     } else { //opening
 150:..\src/utils.c ****         g_refNew.pos -= (calib.speed << g_mem.res[0]);
 151:..\src/utils.c ****         if (SIGN(g_refNew.pos) != 1) {
 152:..\src/utils.c ****             direction = 0;
 153:..\src/utils.c ****             closure_counter++;
 154:..\src/utils.c ****             count_one = 1;          // Enables back the cycles counter
 155:..\src/utils.c ****             if (closure_counter == calib.repetitions) {
 156:..\src/utils.c ****                 closure_counter = 0;
 157:..\src/utils.c ****                 calib.enabled = FALSE;
 158:..\src/utils.c ****             }
 159:..\src/utils.c ****         }
ARM GAS  C:\Users\MattiaCP\AppData\Local\Temp\ccjRb3Rd.s 			page 13


 160:..\src/utils.c ****     }
 161:..\src/utils.c **** }
 526              		.loc 1 161 0
 527 003a 2BE0     		b	.L24
 528              	.L21:
 150:..\src/utils.c ****         if (SIGN(g_refNew.pos) != 1) {
 529              		.loc 1 150 0
 530 003c 184B     		ldr	r3, .L25+4
 531 003e 1A68     		ldr	r2, [r3]
 532 0040 184B     		ldr	r3, .L25+8
 533 0042 B3F90230 		ldrsh	r3, [r3, #2]
 534 0046 1946     		mov	r1, r3
 535 0048 174B     		ldr	r3, .L25+12
 536 004a 93F83730 		ldrb	r3, [r3, #55]	@ zero_extendqisi2
 537 004e 01FA03F3 		lsl	r3, r1, r3
 538 0052 D31A     		subs	r3, r2, r3
 539 0054 124A     		ldr	r2, .L25+4
 540 0056 1360     		str	r3, [r2]
 151:..\src/utils.c ****             direction = 0;
 541              		.loc 1 151 0
 542 0058 114B     		ldr	r3, .L25+4
 543 005a 1B68     		ldr	r3, [r3]
 544 005c 002B     		cmp	r3, #0
 545 005e 19DA     		bge	.L24
 152:..\src/utils.c ****             closure_counter++;
 546              		.loc 1 152 0
 547 0060 0E4B     		ldr	r3, .L25
 548 0062 0022     		movs	r2, #0
 549 0064 1A70     		strb	r2, [r3]
 153:..\src/utils.c ****             count_one = 1;          // Enables back the cycles counter
 550              		.loc 1 153 0
 551 0066 114B     		ldr	r3, .L25+16
 552 0068 1B88     		ldrh	r3, [r3]
 553 006a 0133     		adds	r3, r3, #1
 554 006c 9AB2     		uxth	r2, r3
 555 006e 0F4B     		ldr	r3, .L25+16
 556 0070 1A80     		strh	r2, [r3]	@ movhi
 154:..\src/utils.c ****             if (closure_counter == calib.repetitions) {
 557              		.loc 1 154 0
 558 0072 0F4B     		ldr	r3, .L25+20
 559 0074 0122     		movs	r2, #1
 560 0076 1A70     		strb	r2, [r3]
 155:..\src/utils.c ****                 closure_counter = 0;
 561              		.loc 1 155 0
 562 0078 0C4B     		ldr	r3, .L25+16
 563 007a 1B88     		ldrh	r3, [r3]
 564 007c 1A46     		mov	r2, r3
 565 007e 094B     		ldr	r3, .L25+8
 566 0080 B3F90430 		ldrsh	r3, [r3, #4]
 567 0084 9A42     		cmp	r2, r3
 568 0086 05D1     		bne	.L24
 156:..\src/utils.c ****                 calib.enabled = FALSE;
 569              		.loc 1 156 0
 570 0088 084B     		ldr	r3, .L25+16
 571 008a 0022     		movs	r2, #0
 572 008c 1A80     		strh	r2, [r3]	@ movhi
 157:..\src/utils.c ****             }
ARM GAS  C:\Users\MattiaCP\AppData\Local\Temp\ccjRb3Rd.s 			page 14


 573              		.loc 1 157 0
 574 008e 054B     		ldr	r3, .L25+8
 575 0090 0022     		movs	r2, #0
 576 0092 1A70     		strb	r2, [r3]
 577              	.L24:
 578              		.loc 1 161 0
 579 0094 00BF     		nop
 580 0096 BD46     		mov	sp, r7
 581              		.cfi_def_cfa_register 13
 582              		@ sp needed
 583 0098 80BC     		pop	{r7}
 584              		.cfi_restore 7
 585              		.cfi_def_cfa_offset 0
 586 009a 7047     		bx	lr
 587              	.L26:
 588              		.align	2
 589              	.L25:
 590 009c 08000000 		.word	direction.9955
 591 00a0 00000000 		.word	g_refNew
 592 00a4 00000000 		.word	calib
 593 00a8 00000000 		.word	g_mem
 594 00ac 0A000000 		.word	closure_counter.9956
 595 00b0 00000000 		.word	count_one.9957
 596              		.cfi_endproc
 597              	.LFE68:
 598              		.size	calibration, .-calibration
 599              		.section	.text.calc_turns_fcn,"ax",%progbits
 600              		.align	2
 601              		.global	calc_turns_fcn
 602              		.thumb
 603              		.thumb_func
 604              		.type	calc_turns_fcn, %function
 605              	calc_turns_fcn:
 606              	.LFB69:
 162:..\src/utils.c **** 
 163:..\src/utils.c **** 
 164:..\src/utils.c **** //==============================================================================
 165:..\src/utils.c **** //                                                      DOUBLE ENCODER CALC TURN
 166:..\src/utils.c **** //==============================================================================
 167:..\src/utils.c **** 
 168:..\src/utils.c **** // Use this matlab function to calculate I1 and I2
 169:..\src/utils.c **** //
 170:..\src/utils.c **** // function [inv_a, inv_b] = mod_mul_inv(a, b)
 171:..\src/utils.c **** //     a = int32(a);
 172:..\src/utils.c **** //     b = int32(b);
 173:..\src/utils.c **** //     if b == 0
 174:..\src/utils.c **** //         inv_a = 1;
 175:..\src/utils.c **** //         inv_b = 0;
 176:..\src/utils.c **** //         return
 177:..\src/utils.c **** //     else
 178:..\src/utils.c **** //         q = idivide(a,b,'floor');
 179:..\src/utils.c **** //         r = mod(a,b);
 180:..\src/utils.c **** //         [s, t] = mod_mul_inv(b, r);
 181:..\src/utils.c **** //     end
 182:..\src/utils.c **** //     inv_a = t;
 183:..\src/utils.c **** //     inv_b = s - q * t;
 184:..\src/utils.c **** // return
ARM GAS  C:\Users\MattiaCP\AppData\Local\Temp\ccjRb3Rd.s 			page 15


 185:..\src/utils.c **** 
 186:..\src/utils.c **** // Number of teeth of the two wheels
 187:..\src/utils.c **** #define N1 35           ///< Teeth of the first encoder wheel.
 188:..\src/utils.c **** #define N2 3            ///< Teeth of the second encoder wheel.
 189:..\src/utils.c **** 
 190:..\src/utils.c **** #define I1 -1           ///< First wheel invariant value.
 191:..\src/utils.c **** //#define I2 12         ///< Second wheel invariant value.
 192:..\src/utils.c **** 
 193:..\src/utils.c **** // Number of ticks per turn
 194:..\src/utils.c **** #define M 65536          ///< Number of encoder ticks per turn.
 195:..\src/utils.c **** 
 196:..\src/utils.c **** 
 197:..\src/utils.c **** int calc_turns_fcn(const int32 pos1, const int32 pos2) { 
 607              		.loc 1 197 0
 608              		.cfi_startproc
 609              		@ args = 0, pretend = 0, frame = 16
 610              		@ frame_needed = 1, uses_anonymous_args = 0
 611 0000 80B5     		push	{r7, lr}
 612              		.cfi_def_cfa_offset 8
 613              		.cfi_offset 7, -8
 614              		.cfi_offset 14, -4
 615 0002 84B0     		sub	sp, sp, #16
 616              		.cfi_def_cfa_offset 24
 617 0004 00AF     		add	r7, sp, #0
 618              		.cfi_def_cfa_register 7
 619 0006 7860     		str	r0, [r7, #4]
 620 0008 3960     		str	r1, [r7]
 198:..\src/utils.c ****     
 199:..\src/utils.c ****     int32 x;
 200:..\src/utils.c ****     int32 aux;
 201:..\src/utils.c ****     
 202:..\src/utils.c ****     switch (c_mem.right_left){
 621              		.loc 1 202 0
 622 000a 284B     		ldr	r3, .L34
 623 000c 93F8A630 		ldrb	r3, [r3, #166]	@ zero_extendqisi2
 624 0010 002B     		cmp	r3, #0
 625 0012 02D0     		beq	.L29
 626 0014 012B     		cmp	r3, #1
 627 0016 26D0     		beq	.L30
 628 0018 43E0     		b	.L28
 629              	.L29:
 203:..\src/utils.c ****         case RIGHT_HAND:
 204:..\src/utils.c ****             x = (my_mod( - N2*(pos2) - N1*pos1, M*N2) + M/2) / M;
 630              		.loc 1 204 0
 631 001a 3B68     		ldr	r3, [r7]
 632 001c 1A46     		mov	r2, r3
 633 001e 9B00     		lsls	r3, r3, #2
 634 0020 D21A     		subs	r2, r2, r3
 635 0022 7B68     		ldr	r3, [r7, #4]
 636 0024 6FF02201 		mvn	r1, #34
 637 0028 01FB03F3 		mul	r3, r1, r3
 638 002c 1344     		add	r3, r3, r2
 639 002e 4FF44031 		mov	r1, #196608
 640 0032 1846     		mov	r0, r3
 641 0034 FFF7FEFF 		bl	my_mod
 642 0038 0346     		mov	r3, r0
 643 003a 03F50043 		add	r3, r3, #32768
ARM GAS  C:\Users\MattiaCP\AppData\Local\Temp\ccjRb3Rd.s 			page 16


 644 003e 1B0C     		lsrs	r3, r3, #16
 645 0040 BB60     		str	r3, [r7, #8]
 205:..\src/utils.c ****             
 206:..\src/utils.c ****             aux = my_mod(x*I1, N2);       // Module between x*I1 and N2.
 646              		.loc 1 206 0
 647 0042 BB68     		ldr	r3, [r7, #8]
 648 0044 5B42     		negs	r3, r3
 649 0046 0321     		movs	r1, #3
 650 0048 1846     		mov	r0, r3
 651 004a FFF7FEFF 		bl	my_mod
 652 004e 0346     		mov	r3, r0
 653 0050 FB60     		str	r3, [r7, #12]
 207:..\src/utils.c ****             
 208:..\src/utils.c ****             // Wrap turns
 209:..\src/utils.c ****             aux -= N2;      //N2 (teeth of the second encoder wheel)
 654              		.loc 1 209 0
 655 0052 FB68     		ldr	r3, [r7, #12]
 656 0054 033B     		subs	r3, r3, #3
 657 0056 FB60     		str	r3, [r7, #12]
 210:..\src/utils.c ****             if (aux == -N2){
 658              		.loc 1 210 0
 659 0058 FB68     		ldr	r3, [r7, #12]
 660 005a 13F1030F 		cmn	r3, #3
 661 005e 1FD1     		bne	.L33
 211:..\src/utils.c ****                 aux = 0;
 662              		.loc 1 211 0
 663 0060 0023     		movs	r3, #0
 664 0062 FB60     		str	r3, [r7, #12]
 212:..\src/utils.c ****             }
 213:..\src/utils.c ****             
 214:..\src/utils.c ****             break;
 665              		.loc 1 214 0
 666 0064 1CE0     		b	.L33
 667              	.L30:
 215:..\src/utils.c ****         case LEFT_HAND:
 216:..\src/utils.c ****             x = (my_mod( - N2*(-pos2) - N1*pos1, M*N2) + M/2) / M;
 668              		.loc 1 216 0
 669 0066 3A68     		ldr	r2, [r7]
 670 0068 1346     		mov	r3, r2
 671 006a 5B00     		lsls	r3, r3, #1
 672 006c 1A44     		add	r2, r2, r3
 673 006e 7B68     		ldr	r3, [r7, #4]
 674 0070 6FF02201 		mvn	r1, #34
 675 0074 01FB03F3 		mul	r3, r1, r3
 676 0078 1344     		add	r3, r3, r2
 677 007a 4FF44031 		mov	r1, #196608
 678 007e 1846     		mov	r0, r3
 679 0080 FFF7FEFF 		bl	my_mod
 680 0084 0346     		mov	r3, r0
 681 0086 03F50043 		add	r3, r3, #32768
 682 008a 1B0C     		lsrs	r3, r3, #16
 683 008c BB60     		str	r3, [r7, #8]
 217:..\src/utils.c ****             
 218:..\src/utils.c ****             aux = my_mod(x*I1, N2);       // Module between x*I1 and N2.
 684              		.loc 1 218 0
 685 008e BB68     		ldr	r3, [r7, #8]
 686 0090 5B42     		negs	r3, r3
ARM GAS  C:\Users\MattiaCP\AppData\Local\Temp\ccjRb3Rd.s 			page 17


 687 0092 0321     		movs	r1, #3
 688 0094 1846     		mov	r0, r3
 689 0096 FFF7FEFF 		bl	my_mod
 690 009a 0346     		mov	r3, r0
 691 009c FB60     		str	r3, [r7, #12]
 219:..\src/utils.c ****             
 220:..\src/utils.c ****             break;
 692              		.loc 1 220 0
 693 009e 00E0     		b	.L28
 694              	.L33:
 214:..\src/utils.c ****         case LEFT_HAND:
 695              		.loc 1 214 0
 696 00a0 00BF     		nop
 697              	.L28:
 221:..\src/utils.c ****     }
 222:..\src/utils.c ****   
 223:..\src/utils.c ****     // SoftHand Pro firmware turns computation does not have to take into account turns shift like 
 224:..\src/utils.c ****     return aux; 
 698              		.loc 1 224 0
 699 00a2 FB68     		ldr	r3, [r7, #12]
 225:..\src/utils.c **** 
 226:..\src/utils.c **** }
 700              		.loc 1 226 0
 701 00a4 1846     		mov	r0, r3
 702 00a6 1037     		adds	r7, r7, #16
 703              		.cfi_def_cfa_offset 8
 704 00a8 BD46     		mov	sp, r7
 705              		.cfi_def_cfa_register 13
 706              		@ sp needed
 707 00aa 80BD     		pop	{r7, pc}
 708              	.L35:
 709              		.align	2
 710              	.L34:
 711 00ac 00000000 		.word	c_mem
 712              		.cfi_endproc
 713              	.LFE69:
 714              		.size	calc_turns_fcn, .-calc_turns_fcn
 715              		.section	.text.check_rest_position,"ax",%progbits
 716              		.align	2
 717              		.global	check_rest_position
 718              		.thumb
 719              		.thumb_func
 720              		.type	check_rest_position, %function
 721              	check_rest_position:
 722              	.LFB70:
 227:..\src/utils.c **** 
 228:..\src/utils.c **** //==============================================================================
 229:..\src/utils.c **** //                                                                 REST POSITION
 230:..\src/utils.c **** //==============================================================================
 231:..\src/utils.c **** 
 232:..\src/utils.c **** void check_rest_position(void) {     // 100 Hz frequency.
 723              		.loc 1 232 0
 724              		.cfi_startproc
 725              		@ args = 0, pretend = 0, frame = 8
 726              		@ frame_needed = 1, uses_anonymous_args = 0
 727 0000 90B5     		push	{r4, r7, lr}
 728              		.cfi_def_cfa_offset 12
ARM GAS  C:\Users\MattiaCP\AppData\Local\Temp\ccjRb3Rd.s 			page 18


 729              		.cfi_offset 4, -12
 730              		.cfi_offset 7, -8
 731              		.cfi_offset 14, -4
 732 0002 83B0     		sub	sp, sp, #12
 733              		.cfi_def_cfa_offset 24
 734 0004 00AF     		add	r7, sp, #0
 735              		.cfi_def_cfa_register 7
 233:..\src/utils.c ****     
 234:..\src/utils.c ****     static uint32 count = 0;        // Range [0 - 2^31].
 235:..\src/utils.c ****     static uint8 flag_count = 1;
 236:..\src/utils.c ****     static uint8 first_time = 1;
 237:..\src/utils.c ****     static float m = 0;
 238:..\src/utils.c ****     static int32 abs_err_thr = 0;
 239:..\src/utils.c ****     static int32 delta_inc = 0;
 240:..\src/utils.c ****     int32 curr_pos = 0;
 736              		.loc 1 240 0
 737 0006 0023     		movs	r3, #0
 738 0008 7B60     		str	r3, [r7, #4]
 241:..\src/utils.c ****     static int32 rest_error;
 242:..\src/utils.c ****     float rest_vel_ticks_ms = ((float)g_mem.rest_vel)/1000.0;    //[ticks/s] -> [ticks/ms]
 739              		.loc 1 242 0
 740 000a 8C4B     		ldr	r3, .L49
 741 000c D3F8A030 		ldr	r3, [r3, #160]
 742 0010 1846     		mov	r0, r3
 743 0012 FFF7FEFF 		bl	__aeabi_i2f
 744 0016 0346     		mov	r3, r0
 745 0018 8949     		ldr	r1, .L49+4
 746 001a 1846     		mov	r0, r3
 747 001c FFF7FEFF 		bl	__aeabi_fdiv
 748 0020 0346     		mov	r3, r0
 749 0022 3B60     		str	r3, [r7]	@ float
 243:..\src/utils.c ****     
 244:..\src/utils.c ****     if (first_time){
 750              		.loc 1 244 0
 751 0024 874B     		ldr	r3, .L49+8
 752 0026 1B78     		ldrb	r3, [r3]	@ zero_extendqisi2
 753 0028 002B     		cmp	r3, #0
 754 002a 05D0     		beq	.L37
 245:..\src/utils.c ****         count = 0;
 755              		.loc 1 245 0
 756 002c 864B     		ldr	r3, .L49+12
 757 002e 0022     		movs	r2, #0
 758 0030 1A60     		str	r2, [r3]
 246:..\src/utils.c ****         first_time = 0;
 759              		.loc 1 246 0
 760 0032 844B     		ldr	r3, .L49+8
 761 0034 0022     		movs	r2, #0
 762 0036 1A70     		strb	r2, [r3]
 763              	.L37:
 247:..\src/utils.c ****     }
 248:..\src/utils.c ****     
 249:..\src/utils.c ****     curr_pos = (int32)(g_meas.pos[0] >> g_mem.res[0]);
 764              		.loc 1 249 0
 765 0038 844B     		ldr	r3, .L49+16
 766 003a 1B68     		ldr	r3, [r3]
 767 003c 7F4A     		ldr	r2, .L49
 768 003e 92F83720 		ldrb	r2, [r2, #55]	@ zero_extendqisi2
ARM GAS  C:\Users\MattiaCP\AppData\Local\Temp\ccjRb3Rd.s 			page 19


 769 0042 1341     		asrs	r3, r3, r2
 770 0044 7B60     		str	r3, [r7, #4]
 250:..\src/utils.c ****     
 251:..\src/utils.c ****     if ( ( (c_mem.input_mode >= 2 && g_meas.emg[0] < 200 && g_meas.emg[1] < 200) ) && curr_pos < 10
 771              		.loc 1 251 0
 772 0046 824B     		ldr	r3, .L49+20
 773 0048 93F83530 		ldrb	r3, [r3, #53]	@ zero_extendqisi2
 774 004c 012B     		cmp	r3, #1
 775 004e 16D9     		bls	.L38
 776              		.loc 1 251 0 is_stmt 0 discriminator 1
 777 0050 7E4B     		ldr	r3, .L49+16
 778 0052 9B69     		ldr	r3, [r3, #24]
 779 0054 C72B     		cmp	r3, #199
 780 0056 12DC     		bgt	.L38
 781              		.loc 1 251 0 discriminator 2
 782 0058 7C4B     		ldr	r3, .L49+16
 783 005a DB69     		ldr	r3, [r3, #28]
 784 005c C72B     		cmp	r3, #199
 785 005e 0EDC     		bgt	.L38
 786              		.loc 1 251 0 discriminator 3
 787 0060 7B68     		ldr	r3, [r7, #4]
 788 0062 42F20F72 		movw	r2, #9999
 789 0066 9342     		cmp	r3, r2
 790 0068 09DC     		bgt	.L38
 252:..\src/utils.c ****         if (flag_count == 1){
 791              		.loc 1 252 0 is_stmt 1
 792 006a 7A4B     		ldr	r3, .L49+24
 793 006c 1B78     		ldrb	r3, [r3]	@ zero_extendqisi2
 794 006e 012B     		cmp	r3, #1
 795 0070 0ED1     		bne	.L40
 253:..\src/utils.c ****             count = count + 1;
 796              		.loc 1 253 0
 797 0072 754B     		ldr	r3, .L49+12
 798 0074 1B68     		ldr	r3, [r3]
 799 0076 0133     		adds	r3, r3, #1
 800 0078 734A     		ldr	r2, .L49+12
 801 007a 1360     		str	r3, [r2]
 252:..\src/utils.c ****         if (flag_count == 1){
 802              		.loc 1 252 0
 803 007c 08E0     		b	.L40
 804              	.L38:
 254:..\src/utils.c ****         }
 255:..\src/utils.c ****     }
 256:..\src/utils.c ****     else {
 257:..\src/utils.c ****         count = 0;
 805              		.loc 1 257 0
 806 007e 724B     		ldr	r3, .L49+12
 807 0080 0022     		movs	r2, #0
 808 0082 1A60     		str	r2, [r3]
 258:..\src/utils.c ****         rest_enabled = 0;
 809              		.loc 1 258 0
 810 0084 744B     		ldr	r3, .L49+28
 811 0086 0022     		movs	r2, #0
 812 0088 1A70     		strb	r2, [r3]
 259:..\src/utils.c ****         flag_count = 1;
 813              		.loc 1 259 0
 814 008a 724B     		ldr	r3, .L49+24
ARM GAS  C:\Users\MattiaCP\AppData\Local\Temp\ccjRb3Rd.s 			page 20


 815 008c 0122     		movs	r2, #1
 816 008e 1A70     		strb	r2, [r3]
 817              	.L40:
 260:..\src/utils.c ****     }
 261:..\src/utils.c ****     
 262:..\src/utils.c ****     /********** Velocity closure procedure *************
 263:..\src/utils.c ****     * m = error/time
 264:..\src/utils.c ****     * m = (g_mem.rest_pos - init_pos)/time
 265:..\src/utils.c ****     * time = g_mem.rest_pos/rest_vel_ticks_ms (rest_vel_ticks_ms is in [ticks/ms])
 266:..\src/utils.c ****     ***************************************************/
 267:..\src/utils.c ****     
 268:..\src/utils.c ****     if (count == (uint32)(g_mem.rest_delay/CALIBRATION_DIV)){ 
 818              		.loc 1 268 0
 819 0090 6A4B     		ldr	r3, .L49
 820 0092 D3F89C30 		ldr	r3, [r3, #156]
 821 0096 714A     		ldr	r2, .L49+32
 822 0098 82FB0312 		smull	r1, r2, r2, r3
 823 009c 9210     		asrs	r2, r2, #2
 824 009e DB17     		asrs	r3, r3, #31
 825 00a0 D31A     		subs	r3, r2, r3
 826 00a2 1A46     		mov	r2, r3
 827 00a4 684B     		ldr	r3, .L49+12
 828 00a6 1B68     		ldr	r3, [r3]
 829 00a8 9A42     		cmp	r2, r3
 830 00aa 69D1     		bne	.L41
 269:..\src/utils.c ****         // This routine is executed every 10 firmware cycles -> g_mem.rest_delay must be major than
 270:..\src/utils.c ****         rest_enabled = 1;
 831              		.loc 1 270 0
 832 00ac 6A4B     		ldr	r3, .L49+28
 833 00ae 0122     		movs	r2, #1
 834 00b0 1A70     		strb	r2, [r3]
 271:..\src/utils.c ****         rest_pos_curr_ref = g_meas.pos[0];
 835              		.loc 1 271 0
 836 00b2 664B     		ldr	r3, .L49+16
 837 00b4 1B68     		ldr	r3, [r3]
 838 00b6 6A4A     		ldr	r2, .L49+36
 839 00b8 1360     		str	r3, [r2]
 272:..\src/utils.c ****         
 273:..\src/utils.c ****         // Ramp angular coefficient
 274:..\src/utils.c ****         m = ((float)(g_mem.rest_pos - g_meas.pos[0])/((float)g_mem.rest_pos))*(rest_vel_ticks_ms);
 840              		.loc 1 274 0
 841 00ba 604B     		ldr	r3, .L49
 842 00bc D3F89820 		ldr	r2, [r3, #152]
 843 00c0 624B     		ldr	r3, .L49+16
 844 00c2 1B68     		ldr	r3, [r3]
 845 00c4 D31A     		subs	r3, r2, r3
 846 00c6 1846     		mov	r0, r3
 847 00c8 FFF7FEFF 		bl	__aeabi_i2f
 848 00cc 0446     		mov	r4, r0
 849 00ce 5B4B     		ldr	r3, .L49
 850 00d0 D3F89830 		ldr	r3, [r3, #152]
 851 00d4 1846     		mov	r0, r3
 852 00d6 FFF7FEFF 		bl	__aeabi_i2f
 853 00da 0346     		mov	r3, r0
 854 00dc 1946     		mov	r1, r3
 855 00de 2046     		mov	r0, r4
 856 00e0 FFF7FEFF 		bl	__aeabi_fdiv
ARM GAS  C:\Users\MattiaCP\AppData\Local\Temp\ccjRb3Rd.s 			page 21


 857 00e4 0346     		mov	r3, r0
 858 00e6 3968     		ldr	r1, [r7]	@ float
 859 00e8 1846     		mov	r0, r3
 860 00ea FFF7FEFF 		bl	__aeabi_fmul
 861 00ee 0346     		mov	r3, r0
 862 00f0 1A46     		mov	r2, r3
 863 00f2 5C4B     		ldr	r3, .L49+40
 864 00f4 1A60     		str	r2, [r3]	@ float
 275:..\src/utils.c ****         
 276:..\src/utils.c ****         // Stop condition threshold is related to m coefficient by REST_RATIO value
 277:..\src/utils.c ****         abs_err_thr = (int32)( (int32)(((float)REST_POS_ERR_THR_GAIN)*m*((float)CALIBRATION_DIV)) <
 865              		.loc 1 277 0
 866 00f6 5B4B     		ldr	r3, .L49+40
 867 00f8 1B68     		ldr	r3, [r3]	@ float
 868 00fa 5B49     		ldr	r1, .L49+44
 869 00fc 1846     		mov	r0, r3
 870 00fe FFF7FEFF 		bl	__aeabi_fmul
 871 0102 0346     		mov	r3, r0
 872 0104 5849     		ldr	r1, .L49+44
 873 0106 1846     		mov	r0, r3
 874 0108 FFF7FEFF 		bl	__aeabi_fmul
 875 010c 0346     		mov	r3, r0
 876 010e 1846     		mov	r0, r3
 877 0110 FFF7FEFF 		bl	__aeabi_f2iz
 878 0114 0246     		mov	r2, r0
 879 0116 494B     		ldr	r3, .L49
 880 0118 93F83730 		ldrb	r3, [r3, #55]	@ zero_extendqisi2
 881 011c 02FA03F3 		lsl	r3, r2, r3
 882 0120 524A     		ldr	r2, .L49+48
 883 0122 1360     		str	r3, [r2]
 278:..\src/utils.c ****         abs_err_thr = (abs_err_thr>0)?abs_err_thr:(0-abs_err_thr);
 884              		.loc 1 278 0
 885 0124 514B     		ldr	r3, .L49+48
 886 0126 1B68     		ldr	r3, [r3]
 887 0128 002B     		cmp	r3, #0
 888 012a B8BF     		it	lt
 889 012c 5B42     		rsblt	r3, r3, #0
 890 012e 4F4A     		ldr	r2, .L49+48
 891 0130 1360     		str	r3, [r2]
 279:..\src/utils.c ****         
 280:..\src/utils.c ****         rest_error = g_mem.rest_pos - g_meas.pos[0];    
 892              		.loc 1 280 0
 893 0132 424B     		ldr	r3, .L49
 894 0134 D3F89820 		ldr	r2, [r3, #152]
 895 0138 444B     		ldr	r3, .L49+16
 896 013a 1B68     		ldr	r3, [r3]
 897 013c D31A     		subs	r3, r2, r3
 898 013e 4C4A     		ldr	r2, .L49+52
 899 0140 1360     		str	r3, [r2]
 281:..\src/utils.c ****         
 282:..\src/utils.c ****         delta_inc = (int32)( ((int32)(m*(float)CALIBRATION_DIV)) << g_mem.res[0] );
 900              		.loc 1 282 0
 901 0142 484B     		ldr	r3, .L49+40
 902 0144 1B68     		ldr	r3, [r3]	@ float
 903 0146 4849     		ldr	r1, .L49+44
 904 0148 1846     		mov	r0, r3
 905 014a FFF7FEFF 		bl	__aeabi_fmul
ARM GAS  C:\Users\MattiaCP\AppData\Local\Temp\ccjRb3Rd.s 			page 22


 906 014e 0346     		mov	r3, r0
 907 0150 1846     		mov	r0, r3
 908 0152 FFF7FEFF 		bl	__aeabi_f2iz
 909 0156 0246     		mov	r2, r0
 910 0158 384B     		ldr	r3, .L49
 911 015a 93F83730 		ldrb	r3, [r3, #55]	@ zero_extendqisi2
 912 015e 02FA03F3 		lsl	r3, r2, r3
 913 0162 444A     		ldr	r2, .L49+56
 914 0164 1360     		str	r3, [r2]
 283:..\src/utils.c ****         delta_inc = (delta_inc>0)?delta_inc:(0-delta_inc);
 915              		.loc 1 283 0
 916 0166 434B     		ldr	r3, .L49+56
 917 0168 1B68     		ldr	r3, [r3]
 918 016a 002B     		cmp	r3, #0
 919 016c B8BF     		it	lt
 920 016e 5B42     		rsblt	r3, r3, #0
 921 0170 404A     		ldr	r2, .L49+56
 922 0172 1360     		str	r3, [r2]
 284:..\src/utils.c ****         
 285:..\src/utils.c ****         count = 0;
 923              		.loc 1 285 0
 924 0174 344B     		ldr	r3, .L49+12
 925 0176 0022     		movs	r2, #0
 926 0178 1A60     		str	r2, [r3]
 286:..\src/utils.c ****         flag_count = 0;
 927              		.loc 1 286 0
 928 017a 364B     		ldr	r3, .L49+24
 929 017c 0022     		movs	r2, #0
 930 017e 1A70     		strb	r2, [r3]
 931              	.L41:
 287:..\src/utils.c ****     }
 288:..\src/utils.c ****     
 289:..\src/utils.c ****     if (rest_enabled){
 932              		.loc 1 289 0
 933 0180 354B     		ldr	r3, .L49+28
 934 0182 1B78     		ldrb	r3, [r3]	@ zero_extendqisi2
 935 0184 002B     		cmp	r3, #0
 936 0186 3BD0     		beq	.L42
 290:..\src/utils.c **** 
 291:..\src/utils.c ****         if (rest_error < abs_err_thr && rest_error > -abs_err_thr){
 937              		.loc 1 291 0
 938 0188 394B     		ldr	r3, .L49+52
 939 018a 1A68     		ldr	r2, [r3]
 940 018c 374B     		ldr	r3, .L49+48
 941 018e 1B68     		ldr	r3, [r3]
 942 0190 9A42     		cmp	r2, r3
 943 0192 17DA     		bge	.L43
 944              		.loc 1 291 0 is_stmt 0 discriminator 1
 945 0194 354B     		ldr	r3, .L49+48
 946 0196 1B68     		ldr	r3, [r3]
 947 0198 5A42     		negs	r2, r3
 948 019a 354B     		ldr	r3, .L49+52
 949 019c 1B68     		ldr	r3, [r3]
 950 019e 9A42     		cmp	r2, r3
 951 01a0 10DA     		bge	.L43
 292:..\src/utils.c ****             // Stop condition
 293:..\src/utils.c ****             rest_pos_curr_ref = g_mem.rest_pos;
ARM GAS  C:\Users\MattiaCP\AppData\Local\Temp\ccjRb3Rd.s 			page 23


 952              		.loc 1 293 0 is_stmt 1
 953 01a2 264B     		ldr	r3, .L49
 954 01a4 D3F89830 		ldr	r3, [r3, #152]
 955 01a8 2D4A     		ldr	r2, .L49+36
 956 01aa 1360     		str	r3, [r2]
 294:..\src/utils.c ****             
 295:..\src/utils.c ****             if (c_mem.input_mode >= 2)   // EMG input mode
 957              		.loc 1 295 0
 958 01ac 284B     		ldr	r3, .L49+20
 959 01ae 93F83530 		ldrb	r3, [r3, #53]	@ zero_extendqisi2
 960 01b2 012B     		cmp	r3, #1
 961 01b4 02D9     		bls	.L44
 296:..\src/utils.c ****                 forced_open = 1; 
 962              		.loc 1 296 0
 963 01b6 304B     		ldr	r3, .L49+60
 964 01b8 0122     		movs	r2, #1
 965 01ba 1A70     		strb	r2, [r3]
 966              	.L44:
 297:..\src/utils.c ****             
 298:..\src/utils.c ****             count = 0;
 967              		.loc 1 298 0
 968 01bc 224B     		ldr	r3, .L49+12
 969 01be 0022     		movs	r2, #0
 970 01c0 1A60     		str	r2, [r3]
 971 01c2 1DE0     		b	.L42
 972              	.L43:
 299:..\src/utils.c ****         }
 300:..\src/utils.c ****         else {
 301:..\src/utils.c ****             rest_error = g_mem.rest_pos - g_meas.pos[0];        
 973              		.loc 1 301 0
 974 01c4 1D4B     		ldr	r3, .L49
 975 01c6 D3F89820 		ldr	r2, [r3, #152]
 976 01ca 204B     		ldr	r3, .L49+16
 977 01cc 1B68     		ldr	r3, [r3]
 978 01ce D31A     		subs	r3, r2, r3
 979 01d0 274A     		ldr	r2, .L49+52
 980 01d2 1360     		str	r3, [r2]
 302:..\src/utils.c **** 
 303:..\src/utils.c ****             if (rest_error > 0){
 981              		.loc 1 303 0
 982 01d4 264B     		ldr	r3, .L49+52
 983 01d6 1B68     		ldr	r3, [r3]
 984 01d8 002B     		cmp	r3, #0
 985 01da 06DD     		ble	.L45
 304:..\src/utils.c ****                 rest_pos_curr_ref = rest_pos_curr_ref + delta_inc;
 986              		.loc 1 304 0
 987 01dc 204B     		ldr	r3, .L49+36
 988 01de 1A68     		ldr	r2, [r3]
 989 01e0 244B     		ldr	r3, .L49+56
 990 01e2 1B68     		ldr	r3, [r3]
 991 01e4 1344     		add	r3, r3, r2
 992 01e6 1E4A     		ldr	r2, .L49+36
 993 01e8 1360     		str	r3, [r2]
 994              	.L45:
 305:..\src/utils.c ****             }
 306:..\src/utils.c ****             if (rest_error < 0){
 995              		.loc 1 306 0
ARM GAS  C:\Users\MattiaCP\AppData\Local\Temp\ccjRb3Rd.s 			page 24


 996 01ea 214B     		ldr	r3, .L49+52
 997 01ec 1B68     		ldr	r3, [r3]
 998 01ee 002B     		cmp	r3, #0
 999 01f0 06DA     		bge	.L42
 307:..\src/utils.c ****                 rest_pos_curr_ref = rest_pos_curr_ref - delta_inc;
 1000              		.loc 1 307 0
 1001 01f2 1B4B     		ldr	r3, .L49+36
 1002 01f4 1A68     		ldr	r2, [r3]
 1003 01f6 1F4B     		ldr	r3, .L49+56
 1004 01f8 1B68     		ldr	r3, [r3]
 1005 01fa D31A     		subs	r3, r2, r3
 1006 01fc 184A     		ldr	r2, .L49+36
 1007 01fe 1360     		str	r3, [r2]
 1008              	.L42:
 308:..\src/utils.c ****             }
 309:..\src/utils.c ****         } 
 310:..\src/utils.c ****     }
 311:..\src/utils.c ****     
 312:..\src/utils.c ****     // Position limit saturation
 313:..\src/utils.c ****     if (c_mem.pos_lim_flag) {
 1009              		.loc 1 313 0
 1010 0200 134B     		ldr	r3, .L49+20
 1011 0202 93F85430 		ldrb	r3, [r3, #84]	@ zero_extendqisi2
 1012 0206 002B     		cmp	r3, #0
 1013 0208 13D0     		beq	.L48
 314:..\src/utils.c ****         if (rest_pos_curr_ref < c_mem.pos_lim_inf) 
 1014              		.loc 1 314 0
 1015 020a 114B     		ldr	r3, .L49+20
 1016 020c 9A6D     		ldr	r2, [r3, #88]
 1017 020e 144B     		ldr	r3, .L49+36
 1018 0210 1B68     		ldr	r3, [r3]
 1019 0212 9A42     		cmp	r2, r3
 1020 0214 03DD     		ble	.L47
 315:..\src/utils.c ****             rest_pos_curr_ref = c_mem.pos_lim_inf;
 1021              		.loc 1 315 0
 1022 0216 0E4B     		ldr	r3, .L49+20
 1023 0218 9B6D     		ldr	r3, [r3, #88]
 1024 021a 114A     		ldr	r2, .L49+36
 1025 021c 1360     		str	r3, [r2]
 1026              	.L47:
 316:..\src/utils.c ****         if (rest_pos_curr_ref > c_mem.pos_lim_sup) 
 1027              		.loc 1 316 0
 1028 021e 0C4B     		ldr	r3, .L49+20
 1029 0220 DA6D     		ldr	r2, [r3, #92]
 1030 0222 0F4B     		ldr	r3, .L49+36
 1031 0224 1B68     		ldr	r3, [r3]
 1032 0226 9A42     		cmp	r2, r3
 1033 0228 03DA     		bge	.L48
 317:..\src/utils.c ****             rest_pos_curr_ref = c_mem.pos_lim_sup;
 1034              		.loc 1 317 0
 1035 022a 094B     		ldr	r3, .L49+20
 1036 022c DB6D     		ldr	r3, [r3, #92]
 1037 022e 0C4A     		ldr	r2, .L49+36
 1038 0230 1360     		str	r3, [r2]
 1039              	.L48:
 318:..\src/utils.c ****     }
 319:..\src/utils.c **** 
ARM GAS  C:\Users\MattiaCP\AppData\Local\Temp\ccjRb3Rd.s 			page 25


 320:..\src/utils.c **** }
 1040              		.loc 1 320 0
 1041 0232 00BF     		nop
 1042 0234 0C37     		adds	r7, r7, #12
 1043              		.cfi_def_cfa_offset 12
 1044 0236 BD46     		mov	sp, r7
 1045              		.cfi_def_cfa_register 13
 1046              		@ sp needed
 1047 0238 90BD     		pop	{r4, r7, pc}
 1048              	.L50:
 1049 023a 00BF     		.align	2
 1050              	.L49:
 1051 023c 00000000 		.word	g_mem
 1052 0240 00007A44 		.word	1148846080
 1053 0244 01000000 		.word	first_time.9972
 1054 0248 0C000000 		.word	count.9970
 1055 024c 00000000 		.word	g_meas
 1056 0250 00000000 		.word	c_mem
 1057 0254 02000000 		.word	flag_count.9971
 1058 0258 00000000 		.word	rest_enabled
 1059 025c 67666666 		.word	1717986919
 1060 0260 00000000 		.word	rest_pos_curr_ref
 1061 0264 10000000 		.word	m.9973
 1062 0268 00002041 		.word	1092616192
 1063 026c 14000000 		.word	abs_err_thr.9974
 1064 0270 18000000 		.word	rest_error.9977
 1065 0274 1C000000 		.word	delta_inc.9975
 1066 0278 00000000 		.word	forced_open
 1067              		.cfi_endproc
 1068              	.LFE70:
 1069              		.size	check_rest_position, .-check_rest_position
 1070              		.section	.text.LED_control,"ax",%progbits
 1071              		.align	2
 1072              		.global	LED_control
 1073              		.thumb
 1074              		.thumb_func
 1075              		.type	LED_control, %function
 1076              	LED_control:
 1077              	.LFB71:
 321:..\src/utils.c **** 
 322:..\src/utils.c **** 
 323:..\src/utils.c **** //==============================================================================
 324:..\src/utils.c **** //                                                                   LED CONTROL
 325:..\src/utils.c **** //==============================================================================
 326:..\src/utils.c **** 
 327:..\src/utils.c **** void LED_control(uint8 mode) {
 1078              		.loc 1 327 0
 1079              		.cfi_startproc
 1080              		@ args = 0, pretend = 0, frame = 8
 1081              		@ frame_needed = 1, uses_anonymous_args = 0
 1082 0000 80B5     		push	{r7, lr}
 1083              		.cfi_def_cfa_offset 8
 1084              		.cfi_offset 7, -8
 1085              		.cfi_offset 14, -4
 1086 0002 82B0     		sub	sp, sp, #8
 1087              		.cfi_def_cfa_offset 16
 1088 0004 00AF     		add	r7, sp, #0
ARM GAS  C:\Users\MattiaCP\AppData\Local\Temp\ccjRb3Rd.s 			page 26


 1089              		.cfi_def_cfa_register 7
 1090 0006 0346     		mov	r3, r0
 1091 0008 FB71     		strb	r3, [r7, #7]
 328:..\src/utils.c ****     
 329:..\src/utils.c ****     switch (mode) {
 1092              		.loc 1 329 0
 1093 000a FB79     		ldrb	r3, [r7, #7]	@ zero_extendqisi2
 1094 000c 052B     		cmp	r3, #5
 1095 000e 39D8     		bhi	.L61
 1096 0010 01A2     		adr	r2, .L54
 1097 0012 52F823F0 		ldr	pc, [r2, r3, lsl #2]
 1098 0016 00BF     		.p2align 2
 1099              	.L54:
 1100 0018 31000000 		.word	.L53+1
 1101 001c 3F000000 		.word	.L55+1
 1102 0020 4D000000 		.word	.L56+1
 1103 0024 5B000000 		.word	.L57+1
 1104 0028 69000000 		.word	.L58+1
 1105 002c 77000000 		.word	.L59+1
 1106              		.p2align 1
 1107              	.L53:
 330:..\src/utils.c ****         
 331:..\src/utils.c ****         case 0:     //All LEDs off
 332:..\src/utils.c ****             LED_CTRL_Write(0);
 1108              		.loc 1 332 0
 1109 0030 0020     		movs	r0, #0
 1110 0032 FFF7FEFF 		bl	LED_CTRL_Write
 333:..\src/utils.c ****             BLINK_CTRL_EN_Write(0);
 1111              		.loc 1 333 0
 1112 0036 0020     		movs	r0, #0
 1113 0038 FFF7FEFF 		bl	BLINK_CTRL_EN_Write
 334:..\src/utils.c ****             break;
 1114              		.loc 1 334 0
 1115 003c 23E0     		b	.L60
 1116              	.L55:
 335:..\src/utils.c ****         case 1:     // Green fixed light
 336:..\src/utils.c ****             LED_CTRL_Write(2);
 1117              		.loc 1 336 0
 1118 003e 0220     		movs	r0, #2
 1119 0040 FFF7FEFF 		bl	LED_CTRL_Write
 337:..\src/utils.c ****             BLINK_CTRL_EN_Write(0);
 1120              		.loc 1 337 0
 1121 0044 0020     		movs	r0, #0
 1122 0046 FFF7FEFF 		bl	BLINK_CTRL_EN_Write
 338:..\src/utils.c ****             break;
 1123              		.loc 1 338 0
 1124 004a 1CE0     		b	.L60
 1125              	.L56:
 339:..\src/utils.c ****             
 340:..\src/utils.c ****         case 2:     // Yellow flashing light @ 0.5 Hz
 341:..\src/utils.c ****             LED_CTRL_Write(0);
 1126              		.loc 1 341 0
 1127 004c 0020     		movs	r0, #0
 1128 004e FFF7FEFF 		bl	LED_CTRL_Write
 342:..\src/utils.c ****             BLINK_CTRL_EN_Write(1);        
 1129              		.loc 1 342 0
 1130 0052 0120     		movs	r0, #1
ARM GAS  C:\Users\MattiaCP\AppData\Local\Temp\ccjRb3Rd.s 			page 27


 1131 0054 FFF7FEFF 		bl	BLINK_CTRL_EN_Write
 343:..\src/utils.c ****             break;
 1132              		.loc 1 343 0
 1133 0058 15E0     		b	.L60
 1134              	.L57:
 344:..\src/utils.c ****             
 345:..\src/utils.c ****         case 3:     // Red flashing light @ 2.5 Hz
 346:..\src/utils.c ****             LED_CTRL_Write(0);
 1135              		.loc 1 346 0
 1136 005a 0020     		movs	r0, #0
 1137 005c FFF7FEFF 		bl	LED_CTRL_Write
 347:..\src/utils.c ****             BLINK_CTRL_EN_Write(2);        
 1138              		.loc 1 347 0
 1139 0060 0220     		movs	r0, #2
 1140 0062 FFF7FEFF 		bl	BLINK_CTRL_EN_Write
 348:..\src/utils.c ****             break;
 1141              		.loc 1 348 0
 1142 0066 0EE0     		b	.L60
 1143              	.L58:
 349:..\src/utils.c ****             
 350:..\src/utils.c ****         case 4:     // Yellow fixed light - maintenance
 351:..\src/utils.c ****             LED_CTRL_Write(3);
 1144              		.loc 1 351 0
 1145 0068 0320     		movs	r0, #3
 1146 006a FFF7FEFF 		bl	LED_CTRL_Write
 352:..\src/utils.c ****             BLINK_CTRL_EN_Write(0);        
 1147              		.loc 1 352 0
 1148 006e 0020     		movs	r0, #0
 1149 0070 FFF7FEFF 		bl	BLINK_CTRL_EN_Write
 353:..\src/utils.c ****             break;
 1150              		.loc 1 353 0
 1151 0074 07E0     		b	.L60
 1152              	.L59:
 354:..\src/utils.c ****         
 355:..\src/utils.c ****         case 5:     // Red fixed light - uUSB power
 356:..\src/utils.c ****             LED_CTRL_Write(1);
 1153              		.loc 1 356 0
 1154 0076 0120     		movs	r0, #1
 1155 0078 FFF7FEFF 		bl	LED_CTRL_Write
 357:..\src/utils.c ****             BLINK_CTRL_EN_Write(0);        
 1156              		.loc 1 357 0
 1157 007c 0020     		movs	r0, #0
 1158 007e FFF7FEFF 		bl	BLINK_CTRL_EN_Write
 358:..\src/utils.c ****             break; 
 1159              		.loc 1 358 0
 1160 0082 00E0     		b	.L60
 1161              	.L61:
 359:..\src/utils.c ****             
 360:..\src/utils.c ****         default:
 361:..\src/utils.c ****             break;
 1162              		.loc 1 361 0
 1163 0084 00BF     		nop
 1164              	.L60:
 362:..\src/utils.c ****     }   
 363:..\src/utils.c **** }
 1165              		.loc 1 363 0
 1166 0086 00BF     		nop
ARM GAS  C:\Users\MattiaCP\AppData\Local\Temp\ccjRb3Rd.s 			page 28


 1167 0088 0837     		adds	r7, r7, #8
 1168              		.cfi_def_cfa_offset 8
 1169 008a BD46     		mov	sp, r7
 1170              		.cfi_def_cfa_register 13
 1171              		@ sp needed
 1172 008c 80BD     		pop	{r7, pc}
 1173              		.cfi_endproc
 1174              	.LFE71:
 1175              		.size	LED_control, .-LED_control
 1176              		.global	__aeabi_i2d
 1177              		.global	__aeabi_dmul
 1178              		.global	__aeabi_dcmpgt
 1179 008e 00BF     		.section	.text.battery_management,"ax",%progbits
 1180              		.align	2
 1181              		.global	battery_management
 1182              		.thumb
 1183              		.thumb_func
 1184              		.type	battery_management, %function
 1185              	battery_management:
 1186              	.LFB72:
 364:..\src/utils.c **** 
 365:..\src/utils.c **** 
 366:..\src/utils.c **** //==============================================================================
 367:..\src/utils.c **** //                                                            BATTERY MANAGEMENT
 368:..\src/utils.c **** //==============================================================================
 369:..\src/utils.c **** void battery_management() {
 1187              		.loc 1 369 0
 1188              		.cfi_startproc
 1189              		@ args = 0, pretend = 0, frame = 0
 1190              		@ frame_needed = 1, uses_anonymous_args = 0
 1191 0000 B0B5     		push	{r4, r5, r7, lr}
 1192              		.cfi_def_cfa_offset 16
 1193              		.cfi_offset 4, -16
 1194              		.cfi_offset 5, -12
 1195              		.cfi_offset 7, -8
 1196              		.cfi_offset 14, -4
 1197 0002 00AF     		add	r7, sp, #0
 1198              		.cfi_def_cfa_register 7
 370:..\src/utils.c ****     static uint32 v_count_lb = 0;
 371:..\src/utils.c ****     
 372:..\src/utils.c ****     // LED handling procedure
 373:..\src/utils.c ****     // The board LED blinks if attached battery is not fully charged
 374:..\src/utils.c **** 
 375:..\src/utils.c ****     /*if (battery_low_SoC) {
 376:..\src/utils.c ****         
 377:..\src/utils.c ****         //red light - blink @ 2.5 Hz
 378:..\src/utils.c ****         LED_control(3);
 379:..\src/utils.c ****                 
 380:..\src/utils.c ****         rest_enabled = 0;
 381:..\src/utils.c ****         if (v_count_lb >= 11000){
 382:..\src/utils.c ****             // Disable motor because we are sure of not fully charged battery and terminal device h
 383:..\src/utils.c ****             g_refNew.onoff = 0x00;
 384:..\src/utils.c ****             MOTOR_ON_OFF_Write(g_refNew.onoff); // Deactivate motor
 385:..\src/utils.c ****             v_count_lb = 0;
 386:..\src/utils.c ****         }
 387:..\src/utils.c ****         else
 388:..\src/utils.c ****             v_count_lb = v_count_lb + 1;
ARM GAS  C:\Users\MattiaCP\AppData\Local\Temp\ccjRb3Rd.s 			page 29


 389:..\src/utils.c ****         
 390:..\src/utils.c ****     }
 391:..\src/utils.c ****     else {
 392:..\src/utils.c ****     */   
 393:..\src/utils.c ****         // The board LED is still or blinks depending on attached battery State of Charge
 394:..\src/utils.c ****         if (tension_valid == TRUE && ((c_mem.input_mode <= 1)  ||
 1199              		.loc 1 394 0
 1200 0004 504B     		ldr	r3, .L82+16
 1201 0006 1B78     		ldrb	r3, [r3]	@ zero_extendqisi2
 1202 0008 012B     		cmp	r3, #1
 1203 000a 7CD1     		bne	.L63
 1204              		.loc 1 394 0 is_stmt 0 discriminator 1
 1205 000c 4F4B     		ldr	r3, .L82+20
 1206 000e 93F83530 		ldrb	r3, [r3, #53]	@ zero_extendqisi2
 1207 0012 012B     		cmp	r3, #1
 1208 0014 0CD9     		bls	.L64
 395:..\src/utils.c ****             (c_mem.input_mode > 1 && emg_1_status == NORMAL && emg_2_status == NORMAL)) ){        
 1209              		.loc 1 395 0 is_stmt 1 discriminator 2
 1210 0016 4D4B     		ldr	r3, .L82+20
 1211 0018 93F83530 		ldrb	r3, [r3, #53]	@ zero_extendqisi2
 394:..\src/utils.c ****             (c_mem.input_mode > 1 && emg_1_status == NORMAL && emg_2_status == NORMAL)) ){        
 1212              		.loc 1 394 0 discriminator 2
 1213 001c 012B     		cmp	r3, #1
 1214 001e 72D9     		bls	.L63
 1215              		.loc 1 395 0
 1216 0020 4B4B     		ldr	r3, .L82+24
 1217 0022 1B78     		ldrb	r3, [r3]	@ zero_extendqisi2
 1218 0024 002B     		cmp	r3, #0
 1219 0026 6ED1     		bne	.L63
 1220              		.loc 1 395 0 is_stmt 0 discriminator 1
 1221 0028 4A4B     		ldr	r3, .L82+28
 1222 002a 1B78     		ldrb	r3, [r3]	@ zero_extendqisi2
 1223 002c 002B     		cmp	r3, #0
 1224 002e 6AD1     		bne	.L63
 1225              	.L64:
 396:..\src/utils.c ****             dev_tension_f = filter(dev_tension, &filt_v);
 1226              		.loc 1 396 0 is_stmt 1
 1227 0030 494B     		ldr	r3, .L82+32
 1228 0032 1B68     		ldr	r3, [r3]
 1229 0034 4949     		ldr	r1, .L82+36
 1230 0036 1846     		mov	r0, r3
 1231 0038 FFF7FEFF 		bl	filter
 1232 003c 0246     		mov	r2, r0
 1233 003e 484B     		ldr	r3, .L82+40
 1234 0040 1A60     		str	r2, [r3]
 397:..\src/utils.c ****             // Parrot: 0.9, 0.87
 398:..\src/utils.c ****             // ARTS: 0.87, 0.8
 399:..\src/utils.c ****             if (dev_tension_f > 0.95 * pow_tension){        // Sometimes pow_tension is not well co
 1235              		.loc 1 399 0
 1236 0042 474B     		ldr	r3, .L82+40
 1237 0044 1B68     		ldr	r3, [r3]
 1238 0046 1846     		mov	r0, r3
 1239 0048 FFF7FEFF 		bl	__aeabi_i2d
 1240 004c 0446     		mov	r4, r0
 1241 004e 0D46     		mov	r5, r1
 1242 0050 444B     		ldr	r3, .L82+44
 1243 0052 1B68     		ldr	r3, [r3]
ARM GAS  C:\Users\MattiaCP\AppData\Local\Temp\ccjRb3Rd.s 			page 30


 1244 0054 1846     		mov	r0, r3
 1245 0056 FFF7FEFF 		bl	__aeabi_i2d
 1246 005a 37A3     		adr	r3, .L82
 1247 005c D3E90023 		ldrd	r2, [r3]
 1248 0060 FFF7FEFF 		bl	__aeabi_dmul
 1249 0064 0246     		mov	r2, r0
 1250 0066 0B46     		mov	r3, r1
 1251 0068 2046     		mov	r0, r4
 1252 006a 2946     		mov	r1, r5
 1253 006c FFF7FEFF 		bl	__aeabi_dcmpgt
 1254 0070 0346     		mov	r3, r0
 1255 0072 002B     		cmp	r3, #0
 1256 0074 0BD0     		beq	.L79
 400:..\src/utils.c ****                 //fixed
 401:..\src/utils.c ****                 if (!maintenance_flag)
 1257              		.loc 1 401 0
 1258 0076 3C4B     		ldr	r3, .L82+48
 1259 0078 1B78     		ldrb	r3, [r3]	@ zero_extendqisi2
 1260 007a 002B     		cmp	r3, #0
 1261 007c 03D1     		bne	.L67
 402:..\src/utils.c ****                     LED_control(0);     // NO LIGHT - all leds off
 1262              		.loc 1 402 0
 1263 007e 0020     		movs	r0, #0
 1264 0080 FFF7FEFF 		bl	LED_control
 399:..\src/utils.c ****                 //fixed
 1265              		.loc 1 399 0
 1266 0084 55E0     		b	.L75
 1267              	.L67:
 403:..\src/utils.c ****                 else
 404:..\src/utils.c ****                     LED_control(4);     // yellow light - fixed
 1268              		.loc 1 404 0
 1269 0086 0420     		movs	r0, #4
 1270 0088 FFF7FEFF 		bl	LED_control
 399:..\src/utils.c ****                 //fixed
 1271              		.loc 1 399 0
 1272 008c 51E0     		b	.L75
 1273              	.L79:
 405:..\src/utils.c ****             }
 406:..\src/utils.c ****             
 407:..\src/utils.c ****             else {
 408:..\src/utils.c ****                 if (dev_tension_f > 0.9 * pow_tension) {
 1274              		.loc 1 408 0
 1275 008e 344B     		ldr	r3, .L82+40
 1276 0090 1B68     		ldr	r3, [r3]
 1277 0092 1846     		mov	r0, r3
 1278 0094 FFF7FEFF 		bl	__aeabi_i2d
 1279 0098 0446     		mov	r4, r0
 1280 009a 0D46     		mov	r5, r1
 1281 009c 314B     		ldr	r3, .L82+44
 1282 009e 1B68     		ldr	r3, [r3]
 1283 00a0 1846     		mov	r0, r3
 1284 00a2 FFF7FEFF 		bl	__aeabi_i2d
 1285 00a6 26A3     		adr	r3, .L82+8
 1286 00a8 D3E90023 		ldrd	r2, [r3]
 1287 00ac FFF7FEFF 		bl	__aeabi_dmul
 1288 00b0 0246     		mov	r2, r0
 1289 00b2 0B46     		mov	r3, r1
ARM GAS  C:\Users\MattiaCP\AppData\Local\Temp\ccjRb3Rd.s 			page 31


 1290 00b4 2046     		mov	r0, r4
 1291 00b6 2946     		mov	r1, r5
 1292 00b8 FFF7FEFF 		bl	__aeabi_dcmpgt
 1293 00bc 0346     		mov	r3, r0
 1294 00be 002B     		cmp	r3, #0
 1295 00c0 0ED0     		beq	.L80
 409:..\src/utils.c ****                     //yellow light - blink @ 0.5 Hz
 410:..\src/utils.c ****                     //LED_control(2);   
 411:..\src/utils.c ****                     
 412:..\src/utils.c ****                     if (!maintenance_flag)
 1296              		.loc 1 412 0
 1297 00c2 294B     		ldr	r3, .L82+48
 1298 00c4 1B78     		ldrb	r3, [r3]	@ zero_extendqisi2
 1299 00c6 002B     		cmp	r3, #0
 1300 00c8 03D1     		bne	.L72
 413:..\src/utils.c ****                         LED_control(0);     // NO LIGHT - all leds off
 1301              		.loc 1 413 0
 1302 00ca 0020     		movs	r0, #0
 1303 00cc FFF7FEFF 		bl	LED_control
 1304 00d0 02E0     		b	.L73
 1305              	.L72:
 414:..\src/utils.c ****                     else
 415:..\src/utils.c ****                         LED_control(4);     // yellow light - fixed
 1306              		.loc 1 415 0
 1307 00d2 0420     		movs	r0, #4
 1308 00d4 FFF7FEFF 		bl	LED_control
 1309              	.L73:
 416:..\src/utils.c ****                     
 417:..\src/utils.c ****                     v_count_lb = 0;    // Reset counter whenever battery is not totally out of char
 1310              		.loc 1 417 0
 1311 00d8 244B     		ldr	r3, .L82+52
 1312 00da 0022     		movs	r2, #0
 1313 00dc 1A60     		str	r2, [r3]
 399:..\src/utils.c ****                 //fixed
 1314              		.loc 1 399 0
 1315 00de 28E0     		b	.L75
 1316              	.L80:
 418:..\src/utils.c ****                 }
 419:..\src/utils.c ****                 else {
 420:..\src/utils.c ****                     //red light - blink @ 2.5 Hz
 421:..\src/utils.c ****                     //LED_control(3);
 422:..\src/utils.c ****                 
 423:..\src/utils.c ****                     if (v_count_lb >= 10000){                    
 1317              		.loc 1 423 0
 1318 00e0 224B     		ldr	r3, .L82+52
 1319 00e2 1B68     		ldr	r3, [r3]
 1320 00e4 42F20F72 		movw	r2, #9999
 1321 00e8 9342     		cmp	r3, r2
 1322 00ea 06D9     		bls	.L74
 424:..\src/utils.c ****                         
 425:..\src/utils.c ****                         //battery_low_SoC = 1;
 426:..\src/utils.c ****                         
 427:..\src/utils.c ****                         //red light - blink @ 2.5 Hz
 428:..\src/utils.c ****                         LED_control(3);
 1323              		.loc 1 428 0
 1324 00ec 0320     		movs	r0, #3
 1325 00ee FFF7FEFF 		bl	LED_control
ARM GAS  C:\Users\MattiaCP\AppData\Local\Temp\ccjRb3Rd.s 			page 32


 429:..\src/utils.c ****                         
 430:..\src/utils.c ****                         rest_enabled = 0;
 1326              		.loc 1 430 0
 1327 00f2 1F4B     		ldr	r3, .L82+56
 1328 00f4 0022     		movs	r2, #0
 1329 00f6 1A70     		strb	r2, [r3]
 399:..\src/utils.c ****                 //fixed
 1330              		.loc 1 399 0
 1331 00f8 1BE0     		b	.L75
 1332              	.L74:
 431:..\src/utils.c ****                     }
 432:..\src/utils.c ****                     else{
 433:..\src/utils.c ****                         v_count_lb = v_count_lb + 1;
 1333              		.loc 1 433 0
 1334 00fa 1C4B     		ldr	r3, .L82+52
 1335 00fc 1B68     		ldr	r3, [r3]
 1336 00fe 0133     		adds	r3, r3, #1
 1337 0100 1A4A     		ldr	r2, .L82+52
 1338 0102 1360     		str	r3, [r2]
 399:..\src/utils.c ****                 //fixed
 1339              		.loc 1 399 0
 1340 0104 15E0     		b	.L75
 1341              	.L63:
 434:..\src/utils.c ****                     }                
 435:..\src/utils.c ****                 }
 436:..\src/utils.c ****             }
 437:..\src/utils.c ****             
 438:..\src/utils.c ****         }
 439:..\src/utils.c ****         else {
 440:..\src/utils.c ****             if ((c_mem.input_mode <= 1) || (c_mem.input_mode > 1 && emg_1_status == NORMAL && emg_2
 1342              		.loc 1 440 0
 1343 0106 114B     		ldr	r3, .L82+20
 1344 0108 93F83530 		ldrb	r3, [r3, #53]	@ zero_extendqisi2
 1345 010c 012B     		cmp	r3, #1
 1346 010e 0CD9     		bls	.L76
 1347              		.loc 1 440 0 is_stmt 0 discriminator 1
 1348 0110 0E4B     		ldr	r3, .L82+20
 1349 0112 93F83530 		ldrb	r3, [r3, #53]	@ zero_extendqisi2
 1350 0116 012B     		cmp	r3, #1
 1351 0118 0BD9     		bls	.L81
 1352              		.loc 1 440 0 discriminator 2
 1353 011a 0D4B     		ldr	r3, .L82+24
 1354 011c 1B78     		ldrb	r3, [r3]	@ zero_extendqisi2
 1355 011e 002B     		cmp	r3, #0
 1356 0120 07D1     		bne	.L81
 1357              		.loc 1 440 0 discriminator 3
 1358 0122 0C4B     		ldr	r3, .L82+28
 1359 0124 1B78     		ldrb	r3, [r3]	@ zero_extendqisi2
 1360 0126 002B     		cmp	r3, #0
 1361 0128 03D1     		bne	.L81
 1362              	.L76:
 441:..\src/utils.c ****                 LED_control(5);     // Default - red light
 1363              		.loc 1 441 0 is_stmt 1
 1364 012a 0520     		movs	r0, #5
 1365 012c FFF7FEFF 		bl	LED_control
 442:..\src/utils.c ****             }
 443:..\src/utils.c ****         }
ARM GAS  C:\Users\MattiaCP\AppData\Local\Temp\ccjRb3Rd.s 			page 33


 444:..\src/utils.c ****     /*
 445:..\src/utils.c ****     }
 446:..\src/utils.c ****     */  
 447:..\src/utils.c **** }
 1366              		.loc 1 447 0
 1367 0130 FFE7     		b	.L81
 1368              	.L75:
 1369              	.L81:
 1370 0132 00BF     		nop
 1371 0134 B0BD     		pop	{r4, r5, r7, pc}
 1372              	.L83:
 1373 0136 00BF     		.align	3
 1374              	.L82:
 1375 0138 66666666 		.word	1717986918
 1376 013c 6666EE3F 		.word	1072588390
 1377 0140 CDCCCCCC 		.word	-858993459
 1378 0144 CCCCEC3F 		.word	1072483532
 1379 0148 00000000 		.word	tension_valid
 1380 014c 00000000 		.word	c_mem
 1381 0150 00000000 		.word	emg_1_status
 1382 0154 00000000 		.word	emg_2_status
 1383 0158 00000000 		.word	dev_tension
 1384 015c 00000000 		.word	filt_v
 1385 0160 00000000 		.word	dev_tension_f
 1386 0164 00000000 		.word	pow_tension
 1387 0168 00000000 		.word	maintenance_flag
 1388 016c 20000000 		.word	v_count_lb.9992
 1389 0170 00000000 		.word	rest_enabled
 1390              		.cfi_endproc
 1391              	.LFE72:
 1392              		.size	battery_management, .-battery_management
 1393              		.section	.text.reset_counters,"ax",%progbits
 1394              		.align	2
 1395              		.global	reset_counters
 1396              		.thumb
 1397              		.thumb_func
 1398              		.type	reset_counters, %function
 1399              	reset_counters:
 1400              	.LFB73:
 448:..\src/utils.c **** 
 449:..\src/utils.c **** //==============================================================================
 450:..\src/utils.c **** //                                                              RESET COUNTERS
 451:..\src/utils.c **** //==============================================================================
 452:..\src/utils.c **** void reset_counters() {
 1401              		.loc 1 452 0
 1402              		.cfi_startproc
 1403              		@ args = 0, pretend = 0, frame = 8
 1404              		@ frame_needed = 1, uses_anonymous_args = 0
 1405              		@ link register save eliminated.
 1406 0000 80B4     		push	{r7}
 1407              		.cfi_def_cfa_offset 4
 1408              		.cfi_offset 7, -4
 1409 0002 83B0     		sub	sp, sp, #12
 1410              		.cfi_def_cfa_offset 16
 1411 0004 00AF     		add	r7, sp, #0
 1412              		.cfi_def_cfa_register 7
 453:..\src/utils.c ****     uint8 i;
ARM GAS  C:\Users\MattiaCP\AppData\Local\Temp\ccjRb3Rd.s 			page 34


 454:..\src/utils.c ****     
 455:..\src/utils.c ****     // Initialize counters        
 456:..\src/utils.c ****     g_mem.emg_counter[0] = g_mem.emg_counter[1] = 0;
 1413              		.loc 1 456 0
 1414 0006 1E4B     		ldr	r3, .L89
 1415 0008 0022     		movs	r2, #0
 1416 000a C3F8C420 		str	r2, [r3, #196]
 1417 000e 1C4B     		ldr	r3, .L89
 1418 0010 D3F8C430 		ldr	r3, [r3, #196]
 1419 0014 1A4A     		ldr	r2, .L89
 1420 0016 C2F8C030 		str	r3, [r2, #192]
 457:..\src/utils.c ****     for(i = 0; i< 10; i++){
 1421              		.loc 1 457 0
 1422 001a 0023     		movs	r3, #0
 1423 001c FB71     		strb	r3, [r7, #7]
 1424 001e 08E0     		b	.L85
 1425              	.L86:
 458:..\src/utils.c ****         g_mem.position_hist[i] = 0;
 1426              		.loc 1 458 0 discriminator 3
 1427 0020 FB79     		ldrb	r3, [r7, #7]	@ zero_extendqisi2
 1428 0022 174A     		ldr	r2, .L89
 1429 0024 3233     		adds	r3, r3, #50
 1430 0026 0021     		movs	r1, #0
 1431 0028 42F82310 		str	r1, [r2, r3, lsl #2]
 457:..\src/utils.c ****     for(i = 0; i< 10; i++){
 1432              		.loc 1 457 0 discriminator 3
 1433 002c FB79     		ldrb	r3, [r7, #7]	@ zero_extendqisi2
 1434 002e 0133     		adds	r3, r3, #1
 1435 0030 FB71     		strb	r3, [r7, #7]
 1436              	.L85:
 457:..\src/utils.c ****     for(i = 0; i< 10; i++){
 1437              		.loc 1 457 0 is_stmt 0 discriminator 1
 1438 0032 FB79     		ldrb	r3, [r7, #7]	@ zero_extendqisi2
 1439 0034 092B     		cmp	r3, #9
 1440 0036 F3D9     		bls	.L86
 459:..\src/utils.c ****     }
 460:..\src/utils.c ****     for(i = 0; i< 4; i++){
 1441              		.loc 1 460 0 is_stmt 1
 1442 0038 0023     		movs	r3, #0
 1443 003a FB71     		strb	r3, [r7, #7]
 1444 003c 08E0     		b	.L87
 1445              	.L88:
 461:..\src/utils.c ****         g_mem.current_hist[i] = 0;
 1446              		.loc 1 461 0 discriminator 3
 1447 003e FB79     		ldrb	r3, [r7, #7]	@ zero_extendqisi2
 1448 0040 0F4A     		ldr	r2, .L89
 1449 0042 3C33     		adds	r3, r3, #60
 1450 0044 0021     		movs	r1, #0
 1451 0046 42F82310 		str	r1, [r2, r3, lsl #2]
 460:..\src/utils.c ****         g_mem.current_hist[i] = 0;
 1452              		.loc 1 460 0 discriminator 3
 1453 004a FB79     		ldrb	r3, [r7, #7]	@ zero_extendqisi2
 1454 004c 0133     		adds	r3, r3, #1
 1455 004e FB71     		strb	r3, [r7, #7]
 1456              	.L87:
 460:..\src/utils.c ****         g_mem.current_hist[i] = 0;
 1457              		.loc 1 460 0 is_stmt 0 discriminator 1
ARM GAS  C:\Users\MattiaCP\AppData\Local\Temp\ccjRb3Rd.s 			page 35


 1458 0050 FB79     		ldrb	r3, [r7, #7]	@ zero_extendqisi2
 1459 0052 032B     		cmp	r3, #3
 1460 0054 F3D9     		bls	.L88
 462:..\src/utils.c ****     }
 463:..\src/utils.c ****     g_mem.rest_counter = 0;
 1461              		.loc 1 463 0 is_stmt 1
 1462 0056 0A4B     		ldr	r3, .L89
 1463 0058 0022     		movs	r2, #0
 1464 005a C3F80021 		str	r2, [r3, #256]
 464:..\src/utils.c ****     g_mem.wire_disp = 0;
 1465              		.loc 1 464 0
 1466 005e 084B     		ldr	r3, .L89
 1467 0060 0022     		movs	r2, #0
 1468 0062 C3F80421 		str	r2, [r3, #260]
 465:..\src/utils.c ****     g_mem.total_time_on = 0;
 1469              		.loc 1 465 0
 1470 0066 064B     		ldr	r3, .L89
 1471 0068 0022     		movs	r2, #0
 1472 006a C3F80821 		str	r2, [r3, #264]
 466:..\src/utils.c ****     g_mem.total_time_rest = 0; 
 1473              		.loc 1 466 0
 1474 006e 044B     		ldr	r3, .L89
 1475 0070 0022     		movs	r2, #0
 1476 0072 C3F80C21 		str	r2, [r3, #268]
 467:..\src/utils.c **** }
 1477              		.loc 1 467 0
 1478 0076 00BF     		nop
 1479 0078 0C37     		adds	r7, r7, #12
 1480              		.cfi_def_cfa_offset 4
 1481 007a BD46     		mov	sp, r7
 1482              		.cfi_def_cfa_register 13
 1483              		@ sp needed
 1484 007c 80BC     		pop	{r7}
 1485              		.cfi_restore 7
 1486              		.cfi_def_cfa_offset 0
 1487 007e 7047     		bx	lr
 1488              	.L90:
 1489              		.align	2
 1490              	.L89:
 1491 0080 00000000 		.word	g_mem
 1492              		.cfi_endproc
 1493              	.LFE73:
 1494              		.size	reset_counters, .-reset_counters
 1495              		.global	__aeabi_fsub
 1496              		.section	.text.invSqrt,"ax",%progbits
 1497              		.align	2
 1498              		.global	invSqrt
 1499              		.thumb
 1500              		.thumb_func
 1501              		.type	invSqrt, %function
 1502              	invSqrt:
 1503              	.LFB74:
 468:..\src/utils.c **** 
 469:..\src/utils.c **** 
 470:..\src/utils.c **** //==============================================================================
 471:..\src/utils.c **** //                                                                       INVSQRT
 472:..\src/utils.c **** //==============================================================================
ARM GAS  C:\Users\MattiaCP\AppData\Local\Temp\ccjRb3Rd.s 			page 36


 473:..\src/utils.c **** float invSqrt(float x) {
 1504              		.loc 1 473 0
 1505              		.cfi_startproc
 1506              		@ args = 0, pretend = 0, frame = 24
 1507              		@ frame_needed = 1, uses_anonymous_args = 0
 1508 0000 80B5     		push	{r7, lr}
 1509              		.cfi_def_cfa_offset 8
 1510              		.cfi_offset 7, -8
 1511              		.cfi_offset 14, -4
 1512 0002 86B0     		sub	sp, sp, #24
 1513              		.cfi_def_cfa_offset 32
 1514 0004 00AF     		add	r7, sp, #0
 1515              		.cfi_def_cfa_register 7
 1516 0006 7860     		str	r0, [r7, #4]	@ float
 474:..\src/utils.c **** 	float halfx = 0.5f * x;
 1517              		.loc 1 474 0
 1518 0008 4FF07C51 		mov	r1, #1056964608
 1519 000c 7868     		ldr	r0, [r7, #4]	@ float
 1520 000e FFF7FEFF 		bl	__aeabi_fmul
 1521 0012 0346     		mov	r3, r0
 1522 0014 7B61     		str	r3, [r7, #20]	@ float
 475:..\src/utils.c **** 	float y = x;
 1523              		.loc 1 475 0
 1524 0016 7B68     		ldr	r3, [r7, #4]	@ float
 1525 0018 3B61     		str	r3, [r7, #16]	@ float
 476:..\src/utils.c **** 	long i = *(long*)&y;
 1526              		.loc 1 476 0
 1527 001a 07F11003 		add	r3, r7, #16
 1528 001e 1B68     		ldr	r3, [r3]
 1529 0020 FB60     		str	r3, [r7, #12]
 477:..\src/utils.c **** 	i = 0x5f3759df - (i>>1);
 1530              		.loc 1 477 0
 1531 0022 FB68     		ldr	r3, [r7, #12]
 1532 0024 5A10     		asrs	r2, r3, #1
 1533 0026 134B     		ldr	r3, .L93
 1534 0028 9B1A     		subs	r3, r3, r2
 1535 002a FB60     		str	r3, [r7, #12]
 478:..\src/utils.c **** 	y = *(float*)&i;
 1536              		.loc 1 478 0
 1537 002c 07F10C03 		add	r3, r7, #12
 1538 0030 1B68     		ldr	r3, [r3]	@ float
 1539 0032 3B61     		str	r3, [r7, #16]	@ float
 479:..\src/utils.c **** 	y = y * (1.5f - (halfx * y * y));
 1540              		.loc 1 479 0
 1541 0034 3B69     		ldr	r3, [r7, #16]	@ float
 1542 0036 7969     		ldr	r1, [r7, #20]	@ float
 1543 0038 1846     		mov	r0, r3
 1544 003a FFF7FEFF 		bl	__aeabi_fmul
 1545 003e 0346     		mov	r3, r0
 1546 0040 1A46     		mov	r2, r3
 1547 0042 3B69     		ldr	r3, [r7, #16]	@ float
 1548 0044 1946     		mov	r1, r3
 1549 0046 1046     		mov	r0, r2
 1550 0048 FFF7FEFF 		bl	__aeabi_fmul
 1551 004c 0346     		mov	r3, r0
 1552 004e 1946     		mov	r1, r3
 1553 0050 4FF07F50 		mov	r0, #1069547520
ARM GAS  C:\Users\MattiaCP\AppData\Local\Temp\ccjRb3Rd.s 			page 37


 1554 0054 FFF7FEFF 		bl	__aeabi_fsub
 1555 0058 0346     		mov	r3, r0
 1556 005a 1A46     		mov	r2, r3
 1557 005c 3B69     		ldr	r3, [r7, #16]	@ float
 1558 005e 1946     		mov	r1, r3
 1559 0060 1046     		mov	r0, r2
 1560 0062 FFF7FEFF 		bl	__aeabi_fmul
 1561 0066 0346     		mov	r3, r0
 1562 0068 3B61     		str	r3, [r7, #16]	@ float
 480:..\src/utils.c **** 	return y;
 1563              		.loc 1 480 0
 1564 006a 3B69     		ldr	r3, [r7, #16]	@ float
 481:..\src/utils.c **** }
 1565              		.loc 1 481 0
 1566 006c 1846     		mov	r0, r3
 1567 006e 1837     		adds	r7, r7, #24
 1568              		.cfi_def_cfa_offset 8
 1569 0070 BD46     		mov	sp, r7
 1570              		.cfi_def_cfa_register 13
 1571              		@ sp needed
 1572 0072 80BD     		pop	{r7, pc}
 1573              	.L94:
 1574              		.align	2
 1575              	.L93:
 1576 0074 DF59375F 		.word	1597463007
 1577              		.cfi_endproc
 1578              	.LFE74:
 1579              		.size	invSqrt, .-invSqrt
 1580              		.section	.text.v3_normalize,"ax",%progbits
 1581              		.align	2
 1582              		.global	v3_normalize
 1583              		.thumb
 1584              		.thumb_func
 1585              		.type	v3_normalize, %function
 1586              	v3_normalize:
 1587              	.LFB75:
 482:..\src/utils.c **** 
 483:..\src/utils.c **** //==============================================================================
 484:..\src/utils.c **** //                                                                  V3_NORMALIZE
 485:..\src/utils.c **** //==============================================================================
 486:..\src/utils.c **** void v3_normalize(float v3_in[3]){
 1588              		.loc 1 486 0
 1589              		.cfi_startproc
 1590              		@ args = 0, pretend = 0, frame = 16
 1591              		@ frame_needed = 1, uses_anonymous_args = 0
 1592 0000 90B5     		push	{r4, r7, lr}
 1593              		.cfi_def_cfa_offset 12
 1594              		.cfi_offset 4, -12
 1595              		.cfi_offset 7, -8
 1596              		.cfi_offset 14, -4
 1597 0002 85B0     		sub	sp, sp, #20
 1598              		.cfi_def_cfa_offset 32
 1599 0004 00AF     		add	r7, sp, #0
 1600              		.cfi_def_cfa_register 7
 1601 0006 7860     		str	r0, [r7, #4]
 487:..\src/utils.c ****     // Vector 3 normalization
 488:..\src/utils.c ****     float norm = invSqrt(v3_in[0] * v3_in[0] + v3_in[1] * v3_in[1] + v3_in[2] * v3_in[2]);
ARM GAS  C:\Users\MattiaCP\AppData\Local\Temp\ccjRb3Rd.s 			page 38


 1602              		.loc 1 488 0
 1603 0008 7B68     		ldr	r3, [r7, #4]
 1604 000a 1A68     		ldr	r2, [r3]	@ float
 1605 000c 7B68     		ldr	r3, [r7, #4]
 1606 000e 1B68     		ldr	r3, [r3]	@ float
 1607 0010 1946     		mov	r1, r3
 1608 0012 1046     		mov	r0, r2
 1609 0014 FFF7FEFF 		bl	__aeabi_fmul
 1610 0018 0346     		mov	r3, r0
 1611 001a 1C46     		mov	r4, r3
 1612 001c 7B68     		ldr	r3, [r7, #4]
 1613 001e 0433     		adds	r3, r3, #4
 1614 0020 1A68     		ldr	r2, [r3]	@ float
 1615 0022 7B68     		ldr	r3, [r7, #4]
 1616 0024 0433     		adds	r3, r3, #4
 1617 0026 1B68     		ldr	r3, [r3]	@ float
 1618 0028 1946     		mov	r1, r3
 1619 002a 1046     		mov	r0, r2
 1620 002c FFF7FEFF 		bl	__aeabi_fmul
 1621 0030 0346     		mov	r3, r0
 1622 0032 1946     		mov	r1, r3
 1623 0034 2046     		mov	r0, r4
 1624 0036 FFF7FEFF 		bl	__aeabi_fadd
 1625 003a 0346     		mov	r3, r0
 1626 003c 1C46     		mov	r4, r3
 1627 003e 7B68     		ldr	r3, [r7, #4]
 1628 0040 0833     		adds	r3, r3, #8
 1629 0042 1A68     		ldr	r2, [r3]	@ float
 1630 0044 7B68     		ldr	r3, [r7, #4]
 1631 0046 0833     		adds	r3, r3, #8
 1632 0048 1B68     		ldr	r3, [r3]	@ float
 1633 004a 1946     		mov	r1, r3
 1634 004c 1046     		mov	r0, r2
 1635 004e FFF7FEFF 		bl	__aeabi_fmul
 1636 0052 0346     		mov	r3, r0
 1637 0054 1946     		mov	r1, r3
 1638 0056 2046     		mov	r0, r4
 1639 0058 FFF7FEFF 		bl	__aeabi_fadd
 1640 005c 0346     		mov	r3, r0
 1641 005e 1846     		mov	r0, r3
 1642 0060 FFF7FEFF 		bl	invSqrt
 1643 0064 F860     		str	r0, [r7, #12]	@ float
 489:..\src/utils.c ****     
 490:..\src/utils.c ****     v3_in[0] = v3_in[0]*norm;
 1644              		.loc 1 490 0
 1645 0066 7B68     		ldr	r3, [r7, #4]
 1646 0068 1B68     		ldr	r3, [r3]	@ float
 1647 006a F968     		ldr	r1, [r7, #12]	@ float
 1648 006c 1846     		mov	r0, r3
 1649 006e FFF7FEFF 		bl	__aeabi_fmul
 1650 0072 0346     		mov	r3, r0
 1651 0074 1A46     		mov	r2, r3
 1652 0076 7B68     		ldr	r3, [r7, #4]
 1653 0078 1A60     		str	r2, [r3]	@ float
 491:..\src/utils.c ****     v3_in[1] = v3_in[1]*norm;
 1654              		.loc 1 491 0
 1655 007a 7B68     		ldr	r3, [r7, #4]
ARM GAS  C:\Users\MattiaCP\AppData\Local\Temp\ccjRb3Rd.s 			page 39


 1656 007c 1C1D     		adds	r4, r3, #4
 1657 007e 7B68     		ldr	r3, [r7, #4]
 1658 0080 0433     		adds	r3, r3, #4
 1659 0082 1B68     		ldr	r3, [r3]	@ float
 1660 0084 F968     		ldr	r1, [r7, #12]	@ float
 1661 0086 1846     		mov	r0, r3
 1662 0088 FFF7FEFF 		bl	__aeabi_fmul
 1663 008c 0346     		mov	r3, r0
 1664 008e 2360     		str	r3, [r4]	@ float
 492:..\src/utils.c ****     v3_in[2] = v3_in[2]*norm;
 1665              		.loc 1 492 0
 1666 0090 7B68     		ldr	r3, [r7, #4]
 1667 0092 03F10804 		add	r4, r3, #8
 1668 0096 7B68     		ldr	r3, [r7, #4]
 1669 0098 0833     		adds	r3, r3, #8
 1670 009a 1B68     		ldr	r3, [r3]	@ float
 1671 009c F968     		ldr	r1, [r7, #12]	@ float
 1672 009e 1846     		mov	r0, r3
 1673 00a0 FFF7FEFF 		bl	__aeabi_fmul
 1674 00a4 0346     		mov	r3, r0
 1675 00a6 2360     		str	r3, [r4]	@ float
 493:..\src/utils.c **** }
 1676              		.loc 1 493 0
 1677 00a8 00BF     		nop
 1678 00aa 1437     		adds	r7, r7, #20
 1679              		.cfi_def_cfa_offset 12
 1680 00ac BD46     		mov	sp, r7
 1681              		.cfi_def_cfa_register 13
 1682              		@ sp needed
 1683 00ae 90BD     		pop	{r4, r7, pc}
 1684              		.cfi_endproc
 1685              	.LFE75:
 1686              		.size	v3_normalize, .-v3_normalize
 1687              		.section	.text.v4_normalize,"ax",%progbits
 1688              		.align	2
 1689              		.global	v4_normalize
 1690              		.thumb
 1691              		.thumb_func
 1692              		.type	v4_normalize, %function
 1693              	v4_normalize:
 1694              	.LFB76:
 494:..\src/utils.c ****  
 495:..\src/utils.c **** //==============================================================================
 496:..\src/utils.c **** //                                                                  V4_NORMALIZE
 497:..\src/utils.c **** //==============================================================================
 498:..\src/utils.c **** void v4_normalize(float v4_in[4]){
 1695              		.loc 1 498 0
 1696              		.cfi_startproc
 1697              		@ args = 0, pretend = 0, frame = 16
 1698              		@ frame_needed = 1, uses_anonymous_args = 0
 1699 0000 90B5     		push	{r4, r7, lr}
 1700              		.cfi_def_cfa_offset 12
 1701              		.cfi_offset 4, -12
 1702              		.cfi_offset 7, -8
 1703              		.cfi_offset 14, -4
 1704 0002 85B0     		sub	sp, sp, #20
 1705              		.cfi_def_cfa_offset 32
ARM GAS  C:\Users\MattiaCP\AppData\Local\Temp\ccjRb3Rd.s 			page 40


 1706 0004 00AF     		add	r7, sp, #0
 1707              		.cfi_def_cfa_register 7
 1708 0006 7860     		str	r0, [r7, #4]
 499:..\src/utils.c ****     // Vector 4 normalization
 500:..\src/utils.c ****     float norm = invSqrt(v4_in[0] * v4_in[0] + v4_in[1] * v4_in[1] + v4_in[2] * v4_in[2] + v4_in[3]
 1709              		.loc 1 500 0
 1710 0008 7B68     		ldr	r3, [r7, #4]
 1711 000a 1A68     		ldr	r2, [r3]	@ float
 1712 000c 7B68     		ldr	r3, [r7, #4]
 1713 000e 1B68     		ldr	r3, [r3]	@ float
 1714 0010 1946     		mov	r1, r3
 1715 0012 1046     		mov	r0, r2
 1716 0014 FFF7FEFF 		bl	__aeabi_fmul
 1717 0018 0346     		mov	r3, r0
 1718 001a 1C46     		mov	r4, r3
 1719 001c 7B68     		ldr	r3, [r7, #4]
 1720 001e 0433     		adds	r3, r3, #4
 1721 0020 1A68     		ldr	r2, [r3]	@ float
 1722 0022 7B68     		ldr	r3, [r7, #4]
 1723 0024 0433     		adds	r3, r3, #4
 1724 0026 1B68     		ldr	r3, [r3]	@ float
 1725 0028 1946     		mov	r1, r3
 1726 002a 1046     		mov	r0, r2
 1727 002c FFF7FEFF 		bl	__aeabi_fmul
 1728 0030 0346     		mov	r3, r0
 1729 0032 1946     		mov	r1, r3
 1730 0034 2046     		mov	r0, r4
 1731 0036 FFF7FEFF 		bl	__aeabi_fadd
 1732 003a 0346     		mov	r3, r0
 1733 003c 1C46     		mov	r4, r3
 1734 003e 7B68     		ldr	r3, [r7, #4]
 1735 0040 0833     		adds	r3, r3, #8
 1736 0042 1A68     		ldr	r2, [r3]	@ float
 1737 0044 7B68     		ldr	r3, [r7, #4]
 1738 0046 0833     		adds	r3, r3, #8
 1739 0048 1B68     		ldr	r3, [r3]	@ float
 1740 004a 1946     		mov	r1, r3
 1741 004c 1046     		mov	r0, r2
 1742 004e FFF7FEFF 		bl	__aeabi_fmul
 1743 0052 0346     		mov	r3, r0
 1744 0054 1946     		mov	r1, r3
 1745 0056 2046     		mov	r0, r4
 1746 0058 FFF7FEFF 		bl	__aeabi_fadd
 1747 005c 0346     		mov	r3, r0
 1748 005e 1C46     		mov	r4, r3
 1749 0060 7B68     		ldr	r3, [r7, #4]
 1750 0062 0C33     		adds	r3, r3, #12
 1751 0064 1A68     		ldr	r2, [r3]	@ float
 1752 0066 7B68     		ldr	r3, [r7, #4]
 1753 0068 0C33     		adds	r3, r3, #12
 1754 006a 1B68     		ldr	r3, [r3]	@ float
 1755 006c 1946     		mov	r1, r3
 1756 006e 1046     		mov	r0, r2
 1757 0070 FFF7FEFF 		bl	__aeabi_fmul
 1758 0074 0346     		mov	r3, r0
 1759 0076 1946     		mov	r1, r3
 1760 0078 2046     		mov	r0, r4
ARM GAS  C:\Users\MattiaCP\AppData\Local\Temp\ccjRb3Rd.s 			page 41


 1761 007a FFF7FEFF 		bl	__aeabi_fadd
 1762 007e 0346     		mov	r3, r0
 1763 0080 1846     		mov	r0, r3
 1764 0082 FFF7FEFF 		bl	invSqrt
 1765 0086 F860     		str	r0, [r7, #12]	@ float
 501:..\src/utils.c ****     
 502:..\src/utils.c ****     v4_in[0] = v4_in[0]*norm;
 1766              		.loc 1 502 0
 1767 0088 7B68     		ldr	r3, [r7, #4]
 1768 008a 1B68     		ldr	r3, [r3]	@ float
 1769 008c F968     		ldr	r1, [r7, #12]	@ float
 1770 008e 1846     		mov	r0, r3
 1771 0090 FFF7FEFF 		bl	__aeabi_fmul
 1772 0094 0346     		mov	r3, r0
 1773 0096 1A46     		mov	r2, r3
 1774 0098 7B68     		ldr	r3, [r7, #4]
 1775 009a 1A60     		str	r2, [r3]	@ float
 503:..\src/utils.c ****     v4_in[1] = v4_in[1]*norm;
 1776              		.loc 1 503 0
 1777 009c 7B68     		ldr	r3, [r7, #4]
 1778 009e 1C1D     		adds	r4, r3, #4
 1779 00a0 7B68     		ldr	r3, [r7, #4]
 1780 00a2 0433     		adds	r3, r3, #4
 1781 00a4 1B68     		ldr	r3, [r3]	@ float
 1782 00a6 F968     		ldr	r1, [r7, #12]	@ float
 1783 00a8 1846     		mov	r0, r3
 1784 00aa FFF7FEFF 		bl	__aeabi_fmul
 1785 00ae 0346     		mov	r3, r0
 1786 00b0 2360     		str	r3, [r4]	@ float
 504:..\src/utils.c ****     v4_in[2] = v4_in[2]*norm;
 1787              		.loc 1 504 0
 1788 00b2 7B68     		ldr	r3, [r7, #4]
 1789 00b4 03F10804 		add	r4, r3, #8
 1790 00b8 7B68     		ldr	r3, [r7, #4]
 1791 00ba 0833     		adds	r3, r3, #8
 1792 00bc 1B68     		ldr	r3, [r3]	@ float
 1793 00be F968     		ldr	r1, [r7, #12]	@ float
 1794 00c0 1846     		mov	r0, r3
 1795 00c2 FFF7FEFF 		bl	__aeabi_fmul
 1796 00c6 0346     		mov	r3, r0
 1797 00c8 2360     		str	r3, [r4]	@ float
 505:..\src/utils.c ****     v4_in[3] = v4_in[3]*norm;
 1798              		.loc 1 505 0
 1799 00ca 7B68     		ldr	r3, [r7, #4]
 1800 00cc 03F10C04 		add	r4, r3, #12
 1801 00d0 7B68     		ldr	r3, [r7, #4]
 1802 00d2 0C33     		adds	r3, r3, #12
 1803 00d4 1B68     		ldr	r3, [r3]	@ float
 1804 00d6 F968     		ldr	r1, [r7, #12]	@ float
 1805 00d8 1846     		mov	r0, r3
 1806 00da FFF7FEFF 		bl	__aeabi_fmul
 1807 00de 0346     		mov	r3, r0
 1808 00e0 2360     		str	r3, [r4]	@ float
 506:..\src/utils.c **** }
 1809              		.loc 1 506 0
 1810 00e2 00BF     		nop
 1811 00e4 1437     		adds	r7, r7, #20
ARM GAS  C:\Users\MattiaCP\AppData\Local\Temp\ccjRb3Rd.s 			page 42


 1812              		.cfi_def_cfa_offset 12
 1813 00e6 BD46     		mov	sp, r7
 1814              		.cfi_def_cfa_register 13
 1815              		@ sp needed
 1816 00e8 90BD     		pop	{r4, r7, pc}
 1817              		.cfi_endproc
 1818              	.LFE76:
 1819              		.size	v4_normalize, .-v4_normalize
 1820 00ea 00BF     		.bss
 1821              		.align	2
 1822              	virtual_pos_friction.9935:
 1823 0000 00000000 		.space	4
 1824              		.align	2
 1825              	err_pos_dt.9936:
 1826 0004 00000000 		.space	4
 1827              	direction.9955:
 1828 0008 00       		.space	1
 1829 0009 00       		.align	1
 1830              	closure_counter.9956:
 1831 000a 0000     		.space	2
 1832              		.data
 1833              		.type	count_one.9957, %object
 1834              		.size	count_one.9957, 1
 1835              	count_one.9957:
 1836 0000 01       		.byte	1
 1837              		.type	first_time.9972, %object
 1838              		.size	first_time.9972, 1
 1839              	first_time.9972:
 1840 0001 01       		.byte	1
 1841              		.bss
 1842              		.align	2
 1843              	count.9970:
 1844 000c 00000000 		.space	4
 1845              		.data
 1846              		.type	flag_count.9971, %object
 1847              		.size	flag_count.9971, 1
 1848              	flag_count.9971:
 1849 0002 01       		.byte	1
 1850              		.bss
 1851              		.align	2
 1852              	m.9973:
 1853 0010 00000000 		.space	4
 1854              		.align	2
 1855              	abs_err_thr.9974:
 1856 0014 00000000 		.space	4
 1857              		.align	2
 1858              	rest_error.9977:
 1859 0018 00000000 		.space	4
 1860              		.align	2
 1861              	delta_inc.9975:
 1862 001c 00000000 		.space	4
 1863              		.align	2
 1864              	v_count_lb.9992:
 1865 0020 00000000 		.space	4
 1866              		.text
 1867              	.Letext0:
 1868              		.file 2 "c:\\program files (x86)\\cypress\\psoc creator\\4.2\\psoc creator\\import\\gnu\\arm\\5.4.
ARM GAS  C:\Users\MattiaCP\AppData\Local\Temp\ccjRb3Rd.s 			page 43


 1869              		.file 3 "c:\\program files (x86)\\cypress\\psoc creator\\4.2\\psoc creator\\import\\gnu\\arm\\5.4.
 1870              		.file 4 "Generated_Source\\PSoC5/cytypes.h"
 1871              		.file 5 "..\\src\\globals.h"
 1872              		.file 6 "Generated_Source\\PSoC5/core_cm3.h"
 1873              		.section	.debug_info,"",%progbits
 1874              	.Ldebug_info0:
 1875 0000 910A0000 		.4byte	0xa91
 1876 0004 0400     		.2byte	0x4
 1877 0006 00000000 		.4byte	.Ldebug_abbrev0
 1878 000a 04       		.byte	0x4
 1879 000b 01       		.uleb128 0x1
 1880 000c 71000000 		.4byte	.LASF151
 1881 0010 0C       		.byte	0xc
 1882 0011 C9050000 		.4byte	.LASF152
 1883 0015 85020000 		.4byte	.LASF153
 1884 0019 00000000 		.4byte	.Ldebug_ranges0+0
 1885 001d 00000000 		.4byte	0
 1886 0021 00000000 		.4byte	.Ldebug_line0
 1887 0025 02       		.uleb128 0x2
 1888 0026 01       		.byte	0x1
 1889 0027 06       		.byte	0x6
 1890 0028 74010000 		.4byte	.LASF0
 1891 002c 02       		.uleb128 0x2
 1892 002d 01       		.byte	0x1
 1893 002e 08       		.byte	0x8
 1894 002f 04060000 		.4byte	.LASF1
 1895 0033 02       		.uleb128 0x2
 1896 0034 02       		.byte	0x2
 1897 0035 05       		.byte	0x5
 1898 0036 06000000 		.4byte	.LASF2
 1899 003a 02       		.uleb128 0x2
 1900 003b 02       		.byte	0x2
 1901 003c 07       		.byte	0x7
 1902 003d 6A030000 		.4byte	.LASF3
 1903 0041 03       		.uleb128 0x3
 1904 0042 D8050000 		.4byte	.LASF9
 1905 0046 02       		.byte	0x2
 1906 0047 3F       		.byte	0x3f
 1907 0048 4C000000 		.4byte	0x4c
 1908 004c 02       		.uleb128 0x2
 1909 004d 04       		.byte	0x4
 1910 004e 05       		.byte	0x5
 1911 004f BE010000 		.4byte	.LASF4
 1912 0053 02       		.uleb128 0x2
 1913 0054 04       		.byte	0x4
 1914 0055 07       		.byte	0x7
 1915 0056 37030000 		.4byte	.LASF5
 1916 005a 02       		.uleb128 0x2
 1917 005b 08       		.byte	0x8
 1918 005c 05       		.byte	0x5
 1919 005d 66010000 		.4byte	.LASF6
 1920 0061 02       		.uleb128 0x2
 1921 0062 08       		.byte	0x8
 1922 0063 07       		.byte	0x7
 1923 0064 0A010000 		.4byte	.LASF7
 1924 0068 04       		.uleb128 0x4
 1925 0069 04       		.byte	0x4
ARM GAS  C:\Users\MattiaCP\AppData\Local\Temp\ccjRb3Rd.s 			page 44


 1926 006a 05       		.byte	0x5
 1927 006b 696E7400 		.ascii	"int\000"
 1928 006f 02       		.uleb128 0x2
 1929 0070 04       		.byte	0x4
 1930 0071 07       		.byte	0x7
 1931 0072 F4020000 		.4byte	.LASF8
 1932 0076 03       		.uleb128 0x3
 1933 0077 A5040000 		.4byte	.LASF10
 1934 007b 03       		.byte	0x3
 1935 007c 2C       		.byte	0x2c
 1936 007d 41000000 		.4byte	0x41
 1937 0081 05       		.uleb128 0x5
 1938 0082 56030000 		.4byte	.LASF11
 1939 0086 04       		.byte	0x4
 1940 0087 E401     		.2byte	0x1e4
 1941 0089 2C000000 		.4byte	0x2c
 1942 008d 05       		.uleb128 0x5
 1943 008e 10000000 		.4byte	.LASF12
 1944 0092 04       		.byte	0x4
 1945 0093 E501     		.2byte	0x1e5
 1946 0095 3A000000 		.4byte	0x3a
 1947 0099 05       		.uleb128 0x5
 1948 009a 59020000 		.4byte	.LASF13
 1949 009e 04       		.byte	0x4
 1950 009f E601     		.2byte	0x1e6
 1951 00a1 53000000 		.4byte	0x53
 1952 00a5 05       		.uleb128 0x5
 1953 00a6 86030000 		.4byte	.LASF14
 1954 00aa 04       		.byte	0x4
 1955 00ab E701     		.2byte	0x1e7
 1956 00ad 25000000 		.4byte	0x25
 1957 00b1 05       		.uleb128 0x5
 1958 00b2 B2060000 		.4byte	.LASF15
 1959 00b6 04       		.byte	0x4
 1960 00b7 E801     		.2byte	0x1e8
 1961 00b9 33000000 		.4byte	0x33
 1962 00bd 05       		.uleb128 0x5
 1963 00be AD010000 		.4byte	.LASF16
 1964 00c2 04       		.byte	0x4
 1965 00c3 E901     		.2byte	0x1e9
 1966 00c5 4C000000 		.4byte	0x4c
 1967 00c9 05       		.uleb128 0x5
 1968 00ca FA030000 		.4byte	.LASF17
 1969 00ce 04       		.byte	0x4
 1970 00cf EA01     		.2byte	0x1ea
 1971 00d1 D5000000 		.4byte	0xd5
 1972 00d5 02       		.uleb128 0x2
 1973 00d6 04       		.byte	0x4
 1974 00d7 04       		.byte	0x4
 1975 00d8 94050000 		.4byte	.LASF18
 1976 00dc 02       		.uleb128 0x2
 1977 00dd 08       		.byte	0x8
 1978 00de 04       		.byte	0x4
 1979 00df 2C070000 		.4byte	.LASF19
 1980 00e3 02       		.uleb128 0x2
 1981 00e4 01       		.byte	0x1
 1982 00e5 08       		.byte	0x8
ARM GAS  C:\Users\MattiaCP\AppData\Local\Temp\ccjRb3Rd.s 			page 45


 1983 00e6 B1050000 		.4byte	.LASF20
 1984 00ea 02       		.uleb128 0x2
 1985 00eb 08       		.byte	0x8
 1986 00ec 04       		.byte	0x4
 1987 00ed 0B040000 		.4byte	.LASF21
 1988 00f1 02       		.uleb128 0x2
 1989 00f2 04       		.byte	0x4
 1990 00f3 07       		.byte	0x7
 1991 00f4 02040000 		.4byte	.LASF22
 1992 00f8 06       		.uleb128 0x6
 1993 00f9 01030000 		.4byte	.LASF25
 1994 00fd 10       		.byte	0x10
 1995 00fe 05       		.byte	0x5
 1996 00ff A2       		.byte	0xa2
 1997 0100 35010000 		.4byte	0x135
 1998 0104 07       		.uleb128 0x7
 1999 0105 706F7300 		.ascii	"pos\000"
 2000 0109 05       		.byte	0x5
 2001 010a A3       		.byte	0xa3
 2002 010b BD000000 		.4byte	0xbd
 2003 010f 00       		.byte	0
 2004 0110 08       		.uleb128 0x8
 2005 0111 BB040000 		.4byte	.LASF23
 2006 0115 05       		.byte	0x5
 2007 0116 A4       		.byte	0xa4
 2008 0117 BD000000 		.4byte	0xbd
 2009 011b 04       		.byte	0x4
 2010 011c 07       		.uleb128 0x7
 2011 011d 70776D00 		.ascii	"pwm\000"
 2012 0121 05       		.byte	0x5
 2013 0122 A5       		.byte	0xa5
 2014 0123 BD000000 		.4byte	0xbd
 2015 0127 08       		.byte	0x8
 2016 0128 08       		.uleb128 0x8
 2017 0129 2B010000 		.4byte	.LASF24
 2018 012d 05       		.byte	0x5
 2019 012e A6       		.byte	0xa6
 2020 012f 81000000 		.4byte	0x81
 2021 0133 0C       		.byte	0xc
 2022 0134 00       		.byte	0
 2023 0135 06       		.uleb128 0x6
 2024 0136 17000000 		.4byte	.LASF26
 2025 013a 38       		.byte	0x38
 2026 013b 05       		.byte	0x5
 2027 013c AD       		.byte	0xad
 2028 013d 96010000 		.4byte	0x196
 2029 0141 07       		.uleb128 0x7
 2030 0142 706F7300 		.ascii	"pos\000"
 2031 0146 05       		.byte	0x5
 2032 0147 AE       		.byte	0xae
 2033 0148 96010000 		.4byte	0x196
 2034 014c 00       		.byte	0
 2035 014d 08       		.uleb128 0x8
 2036 014e BB040000 		.4byte	.LASF23
 2037 0152 05       		.byte	0x5
 2038 0153 AF       		.byte	0xaf
 2039 0154 BD000000 		.4byte	0xbd
ARM GAS  C:\Users\MattiaCP\AppData\Local\Temp\ccjRb3Rd.s 			page 46


 2040 0158 0C       		.byte	0xc
 2041 0159 08       		.uleb128 0x8
 2042 015a 90010000 		.4byte	.LASF27
 2043 015e 05       		.byte	0x5
 2044 015f B0       		.byte	0xb0
 2045 0160 BD000000 		.4byte	0xbd
 2046 0164 10       		.byte	0x10
 2047 0165 07       		.uleb128 0x7
 2048 0166 726F7400 		.ascii	"rot\000"
 2049 016a 05       		.byte	0x5
 2050 016b B1       		.byte	0xb1
 2051 016c A6010000 		.4byte	0x1a6
 2052 0170 14       		.byte	0x14
 2053 0171 07       		.uleb128 0x7
 2054 0172 656D6700 		.ascii	"emg\000"
 2055 0176 05       		.byte	0x5
 2056 0177 B3       		.byte	0xb3
 2057 0178 B6010000 		.4byte	0x1b6
 2058 017c 18       		.byte	0x18
 2059 017d 07       		.uleb128 0x7
 2060 017e 76656C00 		.ascii	"vel\000"
 2061 0182 05       		.byte	0x5
 2062 0183 B4       		.byte	0xb4
 2063 0184 96010000 		.4byte	0x196
 2064 0188 20       		.byte	0x20
 2065 0189 07       		.uleb128 0x7
 2066 018a 61636300 		.ascii	"acc\000"
 2067 018e 05       		.byte	0x5
 2068 018f B5       		.byte	0xb5
 2069 0190 96010000 		.4byte	0x196
 2070 0194 2C       		.byte	0x2c
 2071 0195 00       		.byte	0
 2072 0196 09       		.uleb128 0x9
 2073 0197 BD000000 		.4byte	0xbd
 2074 019b A6010000 		.4byte	0x1a6
 2075 019f 0A       		.uleb128 0xa
 2076 01a0 F1000000 		.4byte	0xf1
 2077 01a4 02       		.byte	0x2
 2078 01a5 00       		.byte	0
 2079 01a6 09       		.uleb128 0x9
 2080 01a7 A5000000 		.4byte	0xa5
 2081 01ab B6010000 		.4byte	0x1b6
 2082 01af 0A       		.uleb128 0xa
 2083 01b0 F1000000 		.4byte	0xf1
 2084 01b4 02       		.byte	0x2
 2085 01b5 00       		.byte	0
 2086 01b6 09       		.uleb128 0x9
 2087 01b7 BD000000 		.4byte	0xbd
 2088 01bb C6010000 		.4byte	0x1c6
 2089 01bf 0A       		.uleb128 0xa
 2090 01c0 F1000000 		.4byte	0xf1
 2091 01c4 01       		.byte	0x1
 2092 01c5 00       		.byte	0
 2093 01c6 0B       		.uleb128 0xb
 2094 01c7 25070000 		.4byte	.LASF28
 2095 01cb 3001     		.2byte	0x130
 2096 01cd 05       		.byte	0x5
ARM GAS  C:\Users\MattiaCP\AppData\Local\Temp\ccjRb3Rd.s 			page 47


 2097 01ce C8       		.byte	0xc8
 2098 01cf A4040000 		.4byte	0x4a4
 2099 01d3 08       		.uleb128 0x8
 2100 01d4 F5040000 		.4byte	.LASF29
 2101 01d8 05       		.byte	0x5
 2102 01d9 C9       		.byte	0xc9
 2103 01da 81000000 		.4byte	0x81
 2104 01de 00       		.byte	0
 2105 01df 07       		.uleb128 0x7
 2106 01e0 696400   		.ascii	"id\000"
 2107 01e3 05       		.byte	0x5
 2108 01e4 CA       		.byte	0xca
 2109 01e5 81000000 		.4byte	0x81
 2110 01e9 01       		.byte	0x1
 2111 01ea 07       		.uleb128 0x7
 2112 01eb 6B5F7000 		.ascii	"k_p\000"
 2113 01ef 05       		.byte	0x5
 2114 01f0 CC       		.byte	0xcc
 2115 01f1 BD000000 		.4byte	0xbd
 2116 01f5 04       		.byte	0x4
 2117 01f6 07       		.uleb128 0x7
 2118 01f7 6B5F6900 		.ascii	"k_i\000"
 2119 01fb 05       		.byte	0x5
 2120 01fc CD       		.byte	0xcd
 2121 01fd BD000000 		.4byte	0xbd
 2122 0201 08       		.byte	0x8
 2123 0202 07       		.uleb128 0x7
 2124 0203 6B5F6400 		.ascii	"k_d\000"
 2125 0207 05       		.byte	0x5
 2126 0208 CE       		.byte	0xce
 2127 0209 BD000000 		.4byte	0xbd
 2128 020d 0C       		.byte	0xc
 2129 020e 08       		.uleb128 0x8
 2130 020f 3E040000 		.4byte	.LASF30
 2131 0213 05       		.byte	0x5
 2132 0214 D0       		.byte	0xd0
 2133 0215 BD000000 		.4byte	0xbd
 2134 0219 10       		.byte	0x10
 2135 021a 08       		.uleb128 0x8
 2136 021b FE050000 		.4byte	.LASF31
 2137 021f 05       		.byte	0x5
 2138 0220 D1       		.byte	0xd1
 2139 0221 BD000000 		.4byte	0xbd
 2140 0225 14       		.byte	0x14
 2141 0226 08       		.uleb128 0x8
 2142 0227 36060000 		.4byte	.LASF32
 2143 022b 05       		.byte	0x5
 2144 022c D2       		.byte	0xd2
 2145 022d BD000000 		.4byte	0xbd
 2146 0231 18       		.byte	0x18
 2147 0232 08       		.uleb128 0x8
 2148 0233 33070000 		.4byte	.LASF33
 2149 0237 05       		.byte	0x5
 2150 0238 D3       		.byte	0xd3
 2151 0239 BD000000 		.4byte	0xbd
 2152 023d 1C       		.byte	0x1c
 2153 023e 08       		.uleb128 0x8
ARM GAS  C:\Users\MattiaCP\AppData\Local\Temp\ccjRb3Rd.s 			page 48


 2154 023f 1B030000 		.4byte	.LASF34
 2155 0243 05       		.byte	0x5
 2156 0244 D5       		.byte	0xd5
 2157 0245 BD000000 		.4byte	0xbd
 2158 0249 20       		.byte	0x20
 2159 024a 08       		.uleb128 0x8
 2160 024b C2050000 		.4byte	.LASF35
 2161 024f 05       		.byte	0x5
 2162 0250 D6       		.byte	0xd6
 2163 0251 BD000000 		.4byte	0xbd
 2164 0255 24       		.byte	0x24
 2165 0256 08       		.uleb128 0x8
 2166 0257 70020000 		.4byte	.LASF36
 2167 025b 05       		.byte	0x5
 2168 025c D7       		.byte	0xd7
 2169 025d BD000000 		.4byte	0xbd
 2170 0261 28       		.byte	0x28
 2171 0262 08       		.uleb128 0x8
 2172 0263 E2050000 		.4byte	.LASF37
 2173 0267 05       		.byte	0x5
 2174 0268 D8       		.byte	0xd8
 2175 0269 BD000000 		.4byte	0xbd
 2176 026d 2C       		.byte	0x2c
 2177 026e 08       		.uleb128 0x8
 2178 026f 97060000 		.4byte	.LASF38
 2179 0273 05       		.byte	0x5
 2180 0274 DA       		.byte	0xda
 2181 0275 BD000000 		.4byte	0xbd
 2182 0279 30       		.byte	0x30
 2183 027a 08       		.uleb128 0x8
 2184 027b 70040000 		.4byte	.LASF39
 2185 027f 05       		.byte	0x5
 2186 0280 DB       		.byte	0xdb
 2187 0281 81000000 		.4byte	0x81
 2188 0285 34       		.byte	0x34
 2189 0286 08       		.uleb128 0x8
 2190 0287 CA020000 		.4byte	.LASF40
 2191 028b 05       		.byte	0x5
 2192 028c DC       		.byte	0xdc
 2193 028d 81000000 		.4byte	0x81
 2194 0291 35       		.byte	0x35
 2195 0292 08       		.uleb128 0x8
 2196 0293 02020000 		.4byte	.LASF41
 2197 0297 05       		.byte	0x5
 2198 0298 DD       		.byte	0xdd
 2199 0299 81000000 		.4byte	0x81
 2200 029d 36       		.byte	0x36
 2201 029e 07       		.uleb128 0x7
 2202 029f 72657300 		.ascii	"res\000"
 2203 02a3 05       		.byte	0x5
 2204 02a4 DE       		.byte	0xde
 2205 02a5 A4040000 		.4byte	0x4a4
 2206 02a9 37       		.byte	0x37
 2207 02aa 08       		.uleb128 0x8
 2208 02ab 5A000000 		.4byte	.LASF42
 2209 02af 05       		.byte	0x5
 2210 02b0 E0       		.byte	0xe0
ARM GAS  C:\Users\MattiaCP\AppData\Local\Temp\ccjRb3Rd.s 			page 49


 2211 02b1 96010000 		.4byte	0x196
 2212 02b5 3C       		.byte	0x3c
 2213 02b6 08       		.uleb128 0x8
 2214 02b7 C0040000 		.4byte	.LASF43
 2215 02bb 05       		.byte	0x5
 2216 02bc E2       		.byte	0xe2
 2217 02bd B4040000 		.4byte	0x4b4
 2218 02c1 48       		.byte	0x48
 2219 02c2 08       		.uleb128 0x8
 2220 02c3 48050000 		.4byte	.LASF44
 2221 02c7 05       		.byte	0x5
 2222 02c8 E4       		.byte	0xe4
 2223 02c9 81000000 		.4byte	0x81
 2224 02cd 54       		.byte	0x54
 2225 02ce 08       		.uleb128 0x8
 2226 02cf A0030000 		.4byte	.LASF45
 2227 02d3 05       		.byte	0x5
 2228 02d4 E6       		.byte	0xe6
 2229 02d5 BD000000 		.4byte	0xbd
 2230 02d9 58       		.byte	0x58
 2231 02da 08       		.uleb128 0x8
 2232 02db 4D040000 		.4byte	.LASF46
 2233 02df 05       		.byte	0x5
 2234 02e0 E7       		.byte	0xe7
 2235 02e1 BD000000 		.4byte	0xbd
 2236 02e5 5C       		.byte	0x5c
 2237 02e6 08       		.uleb128 0x8
 2238 02e7 49030000 		.4byte	.LASF47
 2239 02eb 05       		.byte	0x5
 2240 02ec E9       		.byte	0xe9
 2241 02ed BD000000 		.4byte	0xbd
 2242 02f1 60       		.byte	0x60
 2243 02f2 08       		.uleb128 0x8
 2244 02f3 66050000 		.4byte	.LASF48
 2245 02f7 05       		.byte	0x5
 2246 02f8 EA       		.byte	0xea
 2247 02f9 BD000000 		.4byte	0xbd
 2248 02fd 64       		.byte	0x64
 2249 02fe 08       		.uleb128 0x8
 2250 02ff 05050000 		.4byte	.LASF49
 2251 0303 05       		.byte	0x5
 2252 0304 EB       		.byte	0xeb
 2253 0305 B1000000 		.4byte	0xb1
 2254 0309 68       		.byte	0x68
 2255 030a 08       		.uleb128 0x8
 2256 030b 58010000 		.4byte	.LASF50
 2257 030f 05       		.byte	0x5
 2258 0310 EC       		.byte	0xec
 2259 0311 C4040000 		.4byte	0x4c4
 2260 0315 6A       		.byte	0x6a
 2261 0316 08       		.uleb128 0x8
 2262 0317 21060000 		.4byte	.LASF51
 2263 031b 05       		.byte	0x5
 2264 031c ED       		.byte	0xed
 2265 031d 81000000 		.4byte	0x81
 2266 0321 6E       		.byte	0x6e
 2267 0322 08       		.uleb128 0x8
ARM GAS  C:\Users\MattiaCP\AppData\Local\Temp\ccjRb3Rd.s 			page 50


 2268 0323 76040000 		.4byte	.LASF52
 2269 0327 05       		.byte	0x5
 2270 0328 F0       		.byte	0xf0
 2271 0329 D4040000 		.4byte	0x4d4
 2272 032d 70       		.byte	0x70
 2273 032e 08       		.uleb128 0x8
 2274 032f 79060000 		.4byte	.LASF53
 2275 0333 05       		.byte	0x5
 2276 0334 F1       		.byte	0xf1
 2277 0335 81000000 		.4byte	0x81
 2278 0339 78       		.byte	0x78
 2279 033a 08       		.uleb128 0x8
 2280 033b F3060000 		.4byte	.LASF54
 2281 033f 05       		.byte	0x5
 2282 0340 F2       		.byte	0xf2
 2283 0341 81000000 		.4byte	0x81
 2284 0345 79       		.byte	0x79
 2285 0346 08       		.uleb128 0x8
 2286 0347 08030000 		.4byte	.LASF55
 2287 034b 05       		.byte	0x5
 2288 034c F3       		.byte	0xf3
 2289 034d A5000000 		.4byte	0xa5
 2290 0351 7A       		.byte	0x7a
 2291 0352 08       		.uleb128 0x8
 2292 0353 9A050000 		.4byte	.LASF56
 2293 0357 05       		.byte	0x5
 2294 0358 F4       		.byte	0xf4
 2295 0359 81000000 		.4byte	0x81
 2296 035d 7B       		.byte	0x7b
 2297 035e 08       		.uleb128 0x8
 2298 035f 47060000 		.4byte	.LASF57
 2299 0363 05       		.byte	0x5
 2300 0364 F5       		.byte	0xf5
 2301 0365 E4040000 		.4byte	0x4e4
 2302 0369 7C       		.byte	0x7c
 2303 036a 08       		.uleb128 0x8
 2304 036b 21010000 		.4byte	.LASF58
 2305 036f 05       		.byte	0x5
 2306 0370 F8       		.byte	0xf8
 2307 0371 81000000 		.4byte	0x81
 2308 0375 94       		.byte	0x94
 2309 0376 08       		.uleb128 0x8
 2310 0377 B9030000 		.4byte	.LASF59
 2311 037b 05       		.byte	0x5
 2312 037c F9       		.byte	0xf9
 2313 037d 81000000 		.4byte	0x81
 2314 0381 95       		.byte	0x95
 2315 0382 08       		.uleb128 0x8
 2316 0383 25000000 		.4byte	.LASF60
 2317 0387 05       		.byte	0x5
 2318 0388 FA       		.byte	0xfa
 2319 0389 81000000 		.4byte	0x81
 2320 038d 96       		.byte	0x96
 2321 038e 08       		.uleb128 0x8
 2322 038f 13050000 		.4byte	.LASF61
 2323 0393 05       		.byte	0x5
 2324 0394 FB       		.byte	0xfb
ARM GAS  C:\Users\MattiaCP\AppData\Local\Temp\ccjRb3Rd.s 			page 51


 2325 0395 81000000 		.4byte	0x81
 2326 0399 97       		.byte	0x97
 2327 039a 08       		.uleb128 0x8
 2328 039b 44040000 		.4byte	.LASF62
 2329 039f 05       		.byte	0x5
 2330 03a0 FC       		.byte	0xfc
 2331 03a1 BD000000 		.4byte	0xbd
 2332 03a5 98       		.byte	0x98
 2333 03a6 08       		.uleb128 0x8
 2334 03a7 8F040000 		.4byte	.LASF63
 2335 03ab 05       		.byte	0x5
 2336 03ac FD       		.byte	0xfd
 2337 03ad BD000000 		.4byte	0xbd
 2338 03b1 9C       		.byte	0x9c
 2339 03b2 08       		.uleb128 0x8
 2340 03b3 4F010000 		.4byte	.LASF64
 2341 03b7 05       		.byte	0x5
 2342 03b8 FF       		.byte	0xff
 2343 03b9 BD000000 		.4byte	0xbd
 2344 03bd A0       		.byte	0xa0
 2345 03be 0C       		.uleb128 0xc
 2346 03bf EB050000 		.4byte	.LASF65
 2347 03c3 05       		.byte	0x5
 2348 03c4 0001     		.2byte	0x100
 2349 03c6 81000000 		.4byte	0x81
 2350 03ca A4       		.byte	0xa4
 2351 03cb 0C       		.uleb128 0xc
 2352 03cc 3C060000 		.4byte	.LASF66
 2353 03d0 05       		.byte	0x5
 2354 03d1 0101     		.2byte	0x101
 2355 03d3 81000000 		.4byte	0x81
 2356 03d7 A5       		.byte	0xa5
 2357 03d8 0C       		.uleb128 0xc
 2358 03d9 EB010000 		.4byte	.LASF67
 2359 03dd 05       		.byte	0x5
 2360 03de 0201     		.2byte	0x102
 2361 03e0 81000000 		.4byte	0x81
 2362 03e4 A6       		.byte	0xa6
 2363 03e5 0C       		.uleb128 0xc
 2364 03e6 53060000 		.4byte	.LASF68
 2365 03ea 05       		.byte	0x5
 2366 03eb 0301     		.2byte	0x103
 2367 03ed 81000000 		.4byte	0x81
 2368 03f1 A7       		.byte	0xa7
 2369 03f2 0C       		.uleb128 0xc
 2370 03f3 B8060000 		.4byte	.LASF69
 2371 03f7 05       		.byte	0x5
 2372 03f8 0401     		.2byte	0x104
 2373 03fa 81000000 		.4byte	0x81
 2374 03fe A8       		.byte	0xa8
 2375 03ff 0C       		.uleb128 0xc
 2376 0400 AC030000 		.4byte	.LASF70
 2377 0404 05       		.byte	0x5
 2378 0405 0501     		.2byte	0x105
 2379 0407 F4040000 		.4byte	0x4f4
 2380 040b A9       		.byte	0xa9
 2381 040c 0C       		.uleb128 0xc
ARM GAS  C:\Users\MattiaCP\AppData\Local\Temp\ccjRb3Rd.s 			page 52


 2382 040d 3C050000 		.4byte	.LASF71
 2383 0411 05       		.byte	0x5
 2384 0412 0701     		.2byte	0x107
 2385 0414 D4040000 		.4byte	0x4d4
 2386 0418 C0       		.byte	0xc0
 2387 0419 0C       		.uleb128 0xc
 2388 041a C3030000 		.4byte	.LASF72
 2389 041e 05       		.byte	0x5
 2390 041f 0901     		.2byte	0x109
 2391 0421 04050000 		.4byte	0x504
 2392 0425 C8       		.byte	0xc8
 2393 0426 0C       		.uleb128 0xc
 2394 0427 59040000 		.4byte	.LASF73
 2395 042b 05       		.byte	0x5
 2396 042c 0B01     		.2byte	0x10b
 2397 042e 14050000 		.4byte	0x514
 2398 0432 F0       		.byte	0xf0
 2399 0433 0D       		.uleb128 0xd
 2400 0434 7B050000 		.4byte	.LASF74
 2401 0438 05       		.byte	0x5
 2402 0439 0D01     		.2byte	0x10d
 2403 043b 99000000 		.4byte	0x99
 2404 043f 0001     		.2byte	0x100
 2405 0441 0D       		.uleb128 0xd
 2406 0442 EB040000 		.4byte	.LASF75
 2407 0446 05       		.byte	0x5
 2408 0447 0E01     		.2byte	0x10e
 2409 0449 99000000 		.4byte	0x99
 2410 044d 0401     		.2byte	0x104
 2411 044f 0D       		.uleb128 0xd
 2412 0450 4C000000 		.4byte	.LASF76
 2413 0454 05       		.byte	0x5
 2414 0455 0F01     		.2byte	0x10f
 2415 0457 99000000 		.4byte	0x99
 2416 045b 0801     		.2byte	0x108
 2417 045d 0D       		.uleb128 0xd
 2418 045e E3060000 		.4byte	.LASF77
 2419 0462 05       		.byte	0x5
 2420 0463 1001     		.2byte	0x110
 2421 0465 99000000 		.4byte	0x99
 2422 0469 0C01     		.2byte	0x10c
 2423 046b 0D       		.uleb128 0xd
 2424 046c 66040000 		.4byte	.LASF78
 2425 0470 05       		.byte	0x5
 2426 0471 1201     		.2byte	0x112
 2427 0473 24050000 		.4byte	0x524
 2428 0477 1001     		.2byte	0x110
 2429 0479 0D       		.uleb128 0xd
 2430 047a 0F020000 		.4byte	.LASF79
 2431 047e 05       		.byte	0x5
 2432 047f 1301     		.2byte	0x113
 2433 0481 34050000 		.4byte	0x534
 2434 0485 1601     		.2byte	0x116
 2435 0487 0D       		.uleb128 0xd
 2436 0488 43020000 		.4byte	.LASF80
 2437 048c 05       		.byte	0x5
 2438 048d 1601     		.2byte	0x116
ARM GAS  C:\Users\MattiaCP\AppData\Local\Temp\ccjRb3Rd.s 			page 53


 2439 048f 81000000 		.4byte	0x81
 2440 0493 2001     		.2byte	0x120
 2441 0495 0D       		.uleb128 0xd
 2442 0496 E9030000 		.4byte	.LASF81
 2443 049a 05       		.byte	0x5
 2444 049b 1701     		.2byte	0x117
 2445 049d 44050000 		.4byte	0x544
 2446 04a1 2101     		.2byte	0x121
 2447 04a3 00       		.byte	0
 2448 04a4 09       		.uleb128 0x9
 2449 04a5 81000000 		.4byte	0x81
 2450 04a9 B4040000 		.4byte	0x4b4
 2451 04ad 0A       		.uleb128 0xa
 2452 04ae F1000000 		.4byte	0xf1
 2453 04b2 02       		.byte	0x2
 2454 04b3 00       		.byte	0
 2455 04b4 09       		.uleb128 0x9
 2456 04b5 C9000000 		.4byte	0xc9
 2457 04b9 C4040000 		.4byte	0x4c4
 2458 04bd 0A       		.uleb128 0xa
 2459 04be F1000000 		.4byte	0xf1
 2460 04c2 02       		.byte	0x2
 2461 04c3 00       		.byte	0
 2462 04c4 09       		.uleb128 0x9
 2463 04c5 8D000000 		.4byte	0x8d
 2464 04c9 D4040000 		.4byte	0x4d4
 2465 04cd 0A       		.uleb128 0xa
 2466 04ce F1000000 		.4byte	0xf1
 2467 04d2 01       		.byte	0x1
 2468 04d3 00       		.byte	0
 2469 04d4 09       		.uleb128 0x9
 2470 04d5 99000000 		.4byte	0x99
 2471 04d9 E4040000 		.4byte	0x4e4
 2472 04dd 0A       		.uleb128 0xa
 2473 04de F1000000 		.4byte	0xf1
 2474 04e2 01       		.byte	0x1
 2475 04e3 00       		.byte	0
 2476 04e4 09       		.uleb128 0x9
 2477 04e5 D5000000 		.4byte	0xd5
 2478 04e9 F4040000 		.4byte	0x4f4
 2479 04ed 0A       		.uleb128 0xa
 2480 04ee F1000000 		.4byte	0xf1
 2481 04f2 05       		.byte	0x5
 2482 04f3 00       		.byte	0
 2483 04f4 09       		.uleb128 0x9
 2484 04f5 81000000 		.4byte	0x81
 2485 04f9 04050000 		.4byte	0x504
 2486 04fd 0A       		.uleb128 0xa
 2487 04fe F1000000 		.4byte	0xf1
 2488 0502 16       		.byte	0x16
 2489 0503 00       		.byte	0
 2490 0504 09       		.uleb128 0x9
 2491 0505 99000000 		.4byte	0x99
 2492 0509 14050000 		.4byte	0x514
 2493 050d 0A       		.uleb128 0xa
 2494 050e F1000000 		.4byte	0xf1
 2495 0512 09       		.byte	0x9
ARM GAS  C:\Users\MattiaCP\AppData\Local\Temp\ccjRb3Rd.s 			page 54


 2496 0513 00       		.byte	0
 2497 0514 09       		.uleb128 0x9
 2498 0515 99000000 		.4byte	0x99
 2499 0519 24050000 		.4byte	0x524
 2500 051d 0A       		.uleb128 0xa
 2501 051e F1000000 		.4byte	0xf1
 2502 0522 03       		.byte	0x3
 2503 0523 00       		.byte	0
 2504 0524 09       		.uleb128 0x9
 2505 0525 81000000 		.4byte	0x81
 2506 0529 34050000 		.4byte	0x534
 2507 052d 0A       		.uleb128 0xa
 2508 052e F1000000 		.4byte	0xf1
 2509 0532 05       		.byte	0x5
 2510 0533 00       		.byte	0
 2511 0534 09       		.uleb128 0x9
 2512 0535 81000000 		.4byte	0x81
 2513 0539 44050000 		.4byte	0x544
 2514 053d 0A       		.uleb128 0xa
 2515 053e F1000000 		.4byte	0xf1
 2516 0542 09       		.byte	0x9
 2517 0543 00       		.byte	0
 2518 0544 09       		.uleb128 0x9
 2519 0545 81000000 		.4byte	0x81
 2520 0549 5A050000 		.4byte	0x55a
 2521 054d 0A       		.uleb128 0xa
 2522 054e F1000000 		.4byte	0xf1
 2523 0552 02       		.byte	0x2
 2524 0553 0A       		.uleb128 0xa
 2525 0554 F1000000 		.4byte	0xf1
 2526 0558 04       		.byte	0x4
 2527 0559 00       		.byte	0
 2528 055a 0E       		.uleb128 0xe
 2529 055b E1040000 		.4byte	.LASF82
 2530 055f 08       		.byte	0x8
 2531 0560 05       		.byte	0x5
 2532 0561 2801     		.2byte	0x128
 2533 0563 82050000 		.4byte	0x582
 2534 0567 0C       		.uleb128 0xc
 2535 0568 D5010000 		.4byte	.LASF83
 2536 056c 05       		.byte	0x5
 2537 056d 2901     		.2byte	0x129
 2538 056f BD000000 		.4byte	0xbd
 2539 0573 00       		.byte	0
 2540 0574 0C       		.uleb128 0xc
 2541 0575 A0040000 		.4byte	.LASF84
 2542 0579 05       		.byte	0x5
 2543 057a 2A01     		.2byte	0x12a
 2544 057c BD000000 		.4byte	0xbd
 2545 0580 04       		.byte	0x4
 2546 0581 00       		.byte	0
 2547 0582 0E       		.uleb128 0xe
 2548 0583 29050000 		.4byte	.LASF85
 2549 0587 06       		.byte	0x6
 2550 0588 05       		.byte	0x5
 2551 0589 3101     		.2byte	0x131
 2552 058b C4050000 		.4byte	0x5c4
ARM GAS  C:\Users\MattiaCP\AppData\Local\Temp\ccjRb3Rd.s 			page 55


 2553 058f 0C       		.uleb128 0xc
 2554 0590 73050000 		.4byte	.LASF86
 2555 0594 05       		.byte	0x5
 2556 0595 3201     		.2byte	0x132
 2557 0597 81000000 		.4byte	0x81
 2558 059b 00       		.byte	0
 2559 059c 0C       		.uleb128 0xc
 2560 059d 60000000 		.4byte	.LASF87
 2561 05a1 05       		.byte	0x5
 2562 05a2 3301     		.2byte	0x133
 2563 05a4 81000000 		.4byte	0x81
 2564 05a8 01       		.byte	0x1
 2565 05a9 0C       		.uleb128 0xc
 2566 05aa CB060000 		.4byte	.LASF88
 2567 05ae 05       		.byte	0x5
 2568 05af 3401     		.2byte	0x134
 2569 05b1 B1000000 		.4byte	0xb1
 2570 05b5 02       		.byte	0x2
 2571 05b6 0C       		.uleb128 0xc
 2572 05b7 79020000 		.4byte	.LASF89
 2573 05bb 05       		.byte	0x5
 2574 05bc 3501     		.2byte	0x135
 2575 05be B1000000 		.4byte	0xb1
 2576 05c2 04       		.byte	0x4
 2577 05c3 00       		.byte	0
 2578 05c4 0F       		.uleb128 0xf
 2579 05c5 01       		.byte	0x1
 2580 05c6 2C000000 		.4byte	0x2c
 2581 05ca 05       		.byte	0x5
 2582 05cb 3901     		.2byte	0x139
 2583 05cd F6050000 		.4byte	0x5f6
 2584 05d1 10       		.uleb128 0x10
 2585 05d2 52020000 		.4byte	.LASF90
 2586 05d6 00       		.byte	0
 2587 05d7 10       		.uleb128 0x10
 2588 05d8 9A040000 		.4byte	.LASF91
 2589 05dc 01       		.byte	0x1
 2590 05dd 10       		.uleb128 0x10
 2591 05de 12060000 		.4byte	.LASF92
 2592 05e2 02       		.byte	0x2
 2593 05e3 10       		.uleb128 0x10
 2594 05e4 36020000 		.4byte	.LASF93
 2595 05e8 03       		.byte	0x3
 2596 05e9 10       		.uleb128 0x10
 2597 05ea A0060000 		.4byte	.LASF94
 2598 05ee 04       		.byte	0x4
 2599 05ef 10       		.uleb128 0x10
 2600 05f0 70060000 		.4byte	.LASF95
 2601 05f4 05       		.byte	0x5
 2602 05f5 00       		.byte	0
 2603 05f6 05       		.uleb128 0x5
 2604 05f7 FA040000 		.4byte	.LASF96
 2605 05fb 05       		.byte	0x5
 2606 05fc 4101     		.2byte	0x141
 2607 05fe C4050000 		.4byte	0x5c4
 2608 0602 11       		.uleb128 0x11
 2609 0603 80010000 		.4byte	.LASF100
ARM GAS  C:\Users\MattiaCP\AppData\Local\Temp\ccjRb3Rd.s 			page 56


 2610 0607 01       		.byte	0x1
 2611 0608 34       		.byte	0x34
 2612 0609 BD000000 		.4byte	0xbd
 2613 060d 00000000 		.4byte	.LFB64
 2614 0611 CC010000 		.4byte	.LFE64-.LFB64
 2615 0615 01       		.uleb128 0x1
 2616 0616 9C       		.byte	0x9c
 2617 0617 76060000 		.4byte	0x676
 2618 061b 12       		.uleb128 0x12
 2619 061c 706F7300 		.ascii	"pos\000"
 2620 0620 01       		.byte	0x1
 2621 0621 34       		.byte	0x34
 2622 0622 BD000000 		.4byte	0xbd
 2623 0626 02       		.uleb128 0x2
 2624 0627 91       		.byte	0x91
 2625 0628 64       		.sleb128 -28
 2626 0629 12       		.uleb128 0x12
 2627 062a 76656C00 		.ascii	"vel\000"
 2628 062e 01       		.byte	0x1
 2629 062f 34       		.byte	0x34
 2630 0630 BD000000 		.4byte	0xbd
 2631 0634 02       		.uleb128 0x2
 2632 0635 91       		.byte	0x91
 2633 0636 60       		.sleb128 -32
 2634 0637 12       		.uleb128 0x12
 2635 0638 72656600 		.ascii	"ref\000"
 2636 063c 01       		.byte	0x1
 2637 063d 34       		.byte	0x34
 2638 063e BD000000 		.4byte	0xbd
 2639 0642 02       		.uleb128 0x2
 2640 0643 91       		.byte	0x91
 2641 0644 5C       		.sleb128 -36
 2642 0645 13       		.uleb128 0x13
 2643 0646 8B030000 		.4byte	.LASF97
 2644 064a 01       		.byte	0x1
 2645 064b 36       		.byte	0x36
 2646 064c BD000000 		.4byte	0xbd
 2647 0650 05       		.uleb128 0x5
 2648 0651 03       		.byte	0x3
 2649 0652 00000000 		.4byte	virtual_pos_friction.9935
 2650 0656 13       		.uleb128 0x13
 2651 0657 B3010000 		.4byte	.LASF98
 2652 065b 01       		.byte	0x1
 2653 065c 37       		.byte	0x37
 2654 065d BD000000 		.4byte	0xbd
 2655 0661 05       		.uleb128 0x5
 2656 0662 03       		.byte	0x3
 2657 0663 04000000 		.4byte	err_pos_dt.9936
 2658 0667 13       		.uleb128 0x13
 2659 0668 AD040000 		.4byte	.LASF99
 2660 066c 01       		.byte	0x1
 2661 066d 39       		.byte	0x39
 2662 066e BD000000 		.4byte	0xbd
 2663 0672 02       		.uleb128 0x2
 2664 0673 91       		.byte	0x91
 2665 0674 6C       		.sleb128 -20
 2666 0675 00       		.byte	0
ARM GAS  C:\Users\MattiaCP\AppData\Local\Temp\ccjRb3Rd.s 			page 57


 2667 0676 14       		.uleb128 0x14
 2668 0677 1A060000 		.4byte	.LASF101
 2669 067b 01       		.byte	0x1
 2670 067c 57       		.byte	0x57
 2671 067d BD000000 		.4byte	0xbd
 2672 0681 00000000 		.4byte	.LFB65
 2673 0685 4E000000 		.4byte	.LFE65-.LFB65
 2674 0689 01       		.uleb128 0x1
 2675 068a 9C       		.byte	0x9c
 2676 068b B8060000 		.4byte	0x6b8
 2677 068f 15       		.uleb128 0x15
 2678 0690 66020000 		.4byte	.LASF102
 2679 0694 01       		.byte	0x1
 2680 0695 57       		.byte	0x57
 2681 0696 BD000000 		.4byte	0xbd
 2682 069a 02       		.uleb128 0x2
 2683 069b 91       		.byte	0x91
 2684 069c 6C       		.sleb128 -20
 2685 069d 12       		.uleb128 0x12
 2686 069e 6600     		.ascii	"f\000"
 2687 06a0 01       		.byte	0x1
 2688 06a1 57       		.byte	0x57
 2689 06a2 B8060000 		.4byte	0x6b8
 2690 06a6 02       		.uleb128 0x2
 2691 06a7 91       		.byte	0x91
 2692 06a8 68       		.sleb128 -24
 2693 06a9 16       		.uleb128 0x16
 2694 06aa 61757800 		.ascii	"aux\000"
 2695 06ae 01       		.byte	0x1
 2696 06af 59       		.byte	0x59
 2697 06b0 BD000000 		.4byte	0xbd
 2698 06b4 02       		.uleb128 0x2
 2699 06b5 91       		.byte	0x91
 2700 06b6 74       		.sleb128 -12
 2701 06b7 00       		.byte	0
 2702 06b8 17       		.uleb128 0x17
 2703 06b9 04       		.byte	0x4
 2704 06ba 5A050000 		.4byte	0x55a
 2705 06be 14       		.uleb128 0x14
 2706 06bf 61060000 		.4byte	.LASF103
 2707 06c3 01       		.byte	0x1
 2708 06c4 68       		.byte	0x68
 2709 06c5 81000000 		.4byte	0x81
 2710 06c9 00000000 		.4byte	.LFB66
 2711 06cd 76000000 		.4byte	.LFE66-.LFB66
 2712 06d1 01       		.uleb128 0x1
 2713 06d2 9C       		.byte	0x9c
 2714 06d3 FE060000 		.4byte	0x6fe
 2715 06d7 15       		.uleb128 0x15
 2716 06d8 DF020000 		.4byte	.LASF104
 2717 06dc 01       		.byte	0x1
 2718 06dd 68       		.byte	0x68
 2719 06de FE060000 		.4byte	0x6fe
 2720 06e2 02       		.uleb128 0x2
 2721 06e3 91       		.byte	0x91
 2722 06e4 6C       		.sleb128 -20
 2723 06e5 16       		.uleb128 0x16
ARM GAS  C:\Users\MattiaCP\AppData\Local\Temp\ccjRb3Rd.s 			page 58


 2724 06e6 7000     		.ascii	"p\000"
 2725 06e8 01       		.byte	0x1
 2726 06e9 6A       		.byte	0x6a
 2727 06ea 09070000 		.4byte	0x709
 2728 06ee 02       		.uleb128 0x2
 2729 06ef 91       		.byte	0x91
 2730 06f0 74       		.sleb128 -12
 2731 06f1 16       		.uleb128 0x16
 2732 06f2 6100     		.ascii	"a\000"
 2733 06f4 01       		.byte	0x1
 2734 06f5 6B       		.byte	0x6b
 2735 06f6 81000000 		.4byte	0x81
 2736 06fa 02       		.uleb128 0x2
 2737 06fb 91       		.byte	0x91
 2738 06fc 73       		.sleb128 -13
 2739 06fd 00       		.byte	0
 2740 06fe 17       		.uleb128 0x17
 2741 06ff 04       		.byte	0x4
 2742 0700 04070000 		.4byte	0x704
 2743 0704 18       		.uleb128 0x18
 2744 0705 99000000 		.4byte	0x99
 2745 0709 17       		.uleb128 0x17
 2746 070a 04       		.byte	0x4
 2747 070b 0F070000 		.4byte	0x70f
 2748 070f 18       		.uleb128 0x18
 2749 0710 81000000 		.4byte	0x81
 2750 0714 14       		.uleb128 0x14
 2751 0715 48010000 		.4byte	.LASF105
 2752 0719 01       		.byte	0x1
 2753 071a 7A       		.byte	0x7a
 2754 071b 99000000 		.4byte	0x99
 2755 071f 00000000 		.4byte	.LFB67
 2756 0723 50000000 		.4byte	.LFE67-.LFB67
 2757 0727 01       		.uleb128 0x1
 2758 0728 9C       		.byte	0x9c
 2759 0729 4A070000 		.4byte	0x74a
 2760 072d 12       		.uleb128 0x12
 2761 072e 76616C00 		.ascii	"val\000"
 2762 0732 01       		.byte	0x1
 2763 0733 7A       		.byte	0x7a
 2764 0734 BD000000 		.4byte	0xbd
 2765 0738 02       		.uleb128 0x2
 2766 0739 91       		.byte	0x91
 2767 073a 74       		.sleb128 -12
 2768 073b 15       		.uleb128 0x15
 2769 073c 24040000 		.4byte	.LASF106
 2770 0740 01       		.byte	0x1
 2771 0741 7A       		.byte	0x7a
 2772 0742 BD000000 		.4byte	0xbd
 2773 0746 02       		.uleb128 0x2
 2774 0747 91       		.byte	0x91
 2775 0748 70       		.sleb128 -16
 2776 0749 00       		.byte	0
 2777 074a 19       		.uleb128 0x19
 2778 074b 32040000 		.4byte	.LASF112
 2779 074f 01       		.byte	0x1
 2780 0750 88       		.byte	0x88
ARM GAS  C:\Users\MattiaCP\AppData\Local\Temp\ccjRb3Rd.s 			page 59


 2781 0751 00000000 		.4byte	.LFB68
 2782 0755 B4000000 		.4byte	.LFE68-.LFB68
 2783 0759 01       		.uleb128 0x1
 2784 075a 9C       		.byte	0x9c
 2785 075b 93070000 		.4byte	0x793
 2786 075f 13       		.uleb128 0x13
 2787 0760 60000000 		.4byte	.LASF87
 2788 0764 01       		.byte	0x1
 2789 0765 89       		.byte	0x89
 2790 0766 81000000 		.4byte	0x81
 2791 076a 05       		.uleb128 0x5
 2792 076b 03       		.byte	0x3
 2793 076c 08000000 		.4byte	direction.9955
 2794 0770 13       		.uleb128 0x13
 2795 0771 31000000 		.4byte	.LASF107
 2796 0775 01       		.byte	0x1
 2797 0776 8A       		.byte	0x8a
 2798 0777 8D000000 		.4byte	0x8d
 2799 077b 05       		.uleb128 0x5
 2800 077c 03       		.byte	0x3
 2801 077d 0A000000 		.4byte	closure_counter.9956
 2802 0781 13       		.uleb128 0x13
 2803 0782 32050000 		.4byte	.LASF108
 2804 0786 01       		.byte	0x1
 2805 0787 8B       		.byte	0x8b
 2806 0788 81000000 		.4byte	0x81
 2807 078c 05       		.uleb128 0x5
 2808 078d 03       		.byte	0x3
 2809 078e 00000000 		.4byte	count_one.9957
 2810 0792 00       		.byte	0
 2811 0793 11       		.uleb128 0x11
 2812 0794 16070000 		.4byte	.LASF109
 2813 0798 01       		.byte	0x1
 2814 0799 C5       		.byte	0xc5
 2815 079a 68000000 		.4byte	0x68
 2816 079e 00000000 		.4byte	.LFB69
 2817 07a2 B0000000 		.4byte	.LFE69-.LFB69
 2818 07a6 01       		.uleb128 0x1
 2819 07a7 9C       		.byte	0x9c
 2820 07a8 E3070000 		.4byte	0x7e3
 2821 07ac 15       		.uleb128 0x15
 2822 07ad D5020000 		.4byte	.LASF110
 2823 07b1 01       		.byte	0x1
 2824 07b2 C5       		.byte	0xc5
 2825 07b3 E3070000 		.4byte	0x7e3
 2826 07b7 02       		.uleb128 0x2
 2827 07b8 91       		.byte	0x91
 2828 07b9 6C       		.sleb128 -20
 2829 07ba 15       		.uleb128 0x15
 2830 07bb DA020000 		.4byte	.LASF111
 2831 07bf 01       		.byte	0x1
 2832 07c0 C5       		.byte	0xc5
 2833 07c1 E3070000 		.4byte	0x7e3
 2834 07c5 02       		.uleb128 0x2
 2835 07c6 91       		.byte	0x91
 2836 07c7 68       		.sleb128 -24
 2837 07c8 16       		.uleb128 0x16
ARM GAS  C:\Users\MattiaCP\AppData\Local\Temp\ccjRb3Rd.s 			page 60


 2838 07c9 7800     		.ascii	"x\000"
 2839 07cb 01       		.byte	0x1
 2840 07cc C7       		.byte	0xc7
 2841 07cd BD000000 		.4byte	0xbd
 2842 07d1 02       		.uleb128 0x2
 2843 07d2 91       		.byte	0x91
 2844 07d3 70       		.sleb128 -16
 2845 07d4 16       		.uleb128 0x16
 2846 07d5 61757800 		.ascii	"aux\000"
 2847 07d9 01       		.byte	0x1
 2848 07da C8       		.byte	0xc8
 2849 07db BD000000 		.4byte	0xbd
 2850 07df 02       		.uleb128 0x2
 2851 07e0 91       		.byte	0x91
 2852 07e1 74       		.sleb128 -12
 2853 07e2 00       		.byte	0
 2854 07e3 18       		.uleb128 0x18
 2855 07e4 BD000000 		.4byte	0xbd
 2856 07e8 1A       		.uleb128 0x1a
 2857 07e9 83060000 		.4byte	.LASF113
 2858 07ed 01       		.byte	0x1
 2859 07ee E8       		.byte	0xe8
 2860 07ef 00000000 		.4byte	.LFB70
 2861 07f3 7C020000 		.4byte	.LFE70-.LFB70
 2862 07f7 01       		.uleb128 0x1
 2863 07f8 9C       		.byte	0x9c
 2864 07f9 8F080000 		.4byte	0x88f
 2865 07fd 13       		.uleb128 0x13
 2866 07fe 00000000 		.4byte	.LASF114
 2867 0802 01       		.byte	0x1
 2868 0803 EA       		.byte	0xea
 2869 0804 99000000 		.4byte	0x99
 2870 0808 05       		.uleb128 0x5
 2871 0809 03       		.byte	0x3
 2872 080a 0C000000 		.4byte	count.9970
 2873 080e 13       		.uleb128 0x13
 2874 080f 84040000 		.4byte	.LASF115
 2875 0813 01       		.byte	0x1
 2876 0814 EB       		.byte	0xeb
 2877 0815 81000000 		.4byte	0x81
 2878 0819 05       		.uleb128 0x5
 2879 081a 03       		.byte	0x3
 2880 081b 02000000 		.4byte	flag_count.9971
 2881 081f 13       		.uleb128 0x13
 2882 0820 1E050000 		.4byte	.LASF116
 2883 0824 01       		.byte	0x1
 2884 0825 EC       		.byte	0xec
 2885 0826 81000000 		.4byte	0x81
 2886 082a 05       		.uleb128 0x5
 2887 082b 03       		.byte	0x3
 2888 082c 01000000 		.4byte	first_time.9972
 2889 0830 16       		.uleb128 0x16
 2890 0831 6D00     		.ascii	"m\000"
 2891 0833 01       		.byte	0x1
 2892 0834 ED       		.byte	0xed
 2893 0835 D5000000 		.4byte	0xd5
 2894 0839 05       		.uleb128 0x5
ARM GAS  C:\Users\MattiaCP\AppData\Local\Temp\ccjRb3Rd.s 			page 61


 2895 083a 03       		.byte	0x3
 2896 083b 10000000 		.4byte	m.9973
 2897 083f 13       		.uleb128 0x13
 2898 0840 2B030000 		.4byte	.LASF117
 2899 0844 01       		.byte	0x1
 2900 0845 EE       		.byte	0xee
 2901 0846 BD000000 		.4byte	0xbd
 2902 084a 05       		.uleb128 0x5
 2903 084b 03       		.byte	0x3
 2904 084c 14000000 		.4byte	abs_err_thr.9974
 2905 0850 13       		.uleb128 0x13
 2906 0851 3E010000 		.4byte	.LASF118
 2907 0855 01       		.byte	0x1
 2908 0856 EF       		.byte	0xef
 2909 0857 BD000000 		.4byte	0xbd
 2910 085b 05       		.uleb128 0x5
 2911 085c 03       		.byte	0x3
 2912 085d 1C000000 		.4byte	delta_inc.9975
 2913 0861 13       		.uleb128 0x13
 2914 0862 22030000 		.4byte	.LASF119
 2915 0866 01       		.byte	0x1
 2916 0867 F0       		.byte	0xf0
 2917 0868 BD000000 		.4byte	0xbd
 2918 086c 02       		.uleb128 0x2
 2919 086d 91       		.byte	0x91
 2920 086e 6C       		.sleb128 -20
 2921 086f 13       		.uleb128 0x13
 2922 0870 41000000 		.4byte	.LASF120
 2923 0874 01       		.byte	0x1
 2924 0875 F1       		.byte	0xf1
 2925 0876 BD000000 		.4byte	0xbd
 2926 087a 05       		.uleb128 0x5
 2927 087b 03       		.byte	0x3
 2928 087c 18000000 		.4byte	rest_error.9977
 2929 0880 13       		.uleb128 0x13
 2930 0881 D1060000 		.4byte	.LASF121
 2931 0885 01       		.byte	0x1
 2932 0886 F2       		.byte	0xf2
 2933 0887 D5000000 		.4byte	0xd5
 2934 088b 02       		.uleb128 0x2
 2935 088c 91       		.byte	0x91
 2936 088d 68       		.sleb128 -24
 2937 088e 00       		.byte	0
 2938 088f 1B       		.uleb128 0x1b
 2939 0890 F6010000 		.4byte	.LASF122
 2940 0894 01       		.byte	0x1
 2941 0895 4701     		.2byte	0x147
 2942 0897 00000000 		.4byte	.LFB71
 2943 089b 8E000000 		.4byte	.LFE71-.LFB71
 2944 089f 01       		.uleb128 0x1
 2945 08a0 9C       		.byte	0x9c
 2946 08a1 B5080000 		.4byte	0x8b5
 2947 08a5 1C       		.uleb128 0x1c
 2948 08a6 BD050000 		.4byte	.LASF123
 2949 08aa 01       		.byte	0x1
 2950 08ab 4701     		.2byte	0x147
 2951 08ad 81000000 		.4byte	0x81
ARM GAS  C:\Users\MattiaCP\AppData\Local\Temp\ccjRb3Rd.s 			page 62


 2952 08b1 02       		.uleb128 0x2
 2953 08b2 91       		.byte	0x91
 2954 08b3 77       		.sleb128 -9
 2955 08b4 00       		.byte	0
 2956 08b5 1D       		.uleb128 0x1d
 2957 08b6 23020000 		.4byte	.LASF125
 2958 08ba 01       		.byte	0x1
 2959 08bb 7101     		.2byte	0x171
 2960 08bd 00000000 		.4byte	.LFB72
 2961 08c1 74010000 		.4byte	.LFE72-.LFB72
 2962 08c5 01       		.uleb128 0x1
 2963 08c6 9C       		.byte	0x9c
 2964 08c7 DE080000 		.4byte	0x8de
 2965 08cb 1E       		.uleb128 0x1e
 2966 08cc FF000000 		.4byte	.LASF124
 2967 08d0 01       		.byte	0x1
 2968 08d1 7201     		.2byte	0x172
 2969 08d3 99000000 		.4byte	0x99
 2970 08d7 05       		.uleb128 0x5
 2971 08d8 03       		.byte	0x3
 2972 08d9 20000000 		.4byte	v_count_lb.9992
 2973 08dd 00       		.byte	0
 2974 08de 1F       		.uleb128 0x1f
 2975 08df E5020000 		.4byte	.LASF126
 2976 08e3 01       		.byte	0x1
 2977 08e4 C401     		.2byte	0x1c4
 2978 08e6 00000000 		.4byte	.LFB73
 2979 08ea 84000000 		.4byte	.LFE73-.LFB73
 2980 08ee 01       		.uleb128 0x1
 2981 08ef 9C       		.byte	0x9c
 2982 08f0 02090000 		.4byte	0x902
 2983 08f4 20       		.uleb128 0x20
 2984 08f5 6900     		.ascii	"i\000"
 2985 08f7 01       		.byte	0x1
 2986 08f8 C501     		.2byte	0x1c5
 2987 08fa 81000000 		.4byte	0x81
 2988 08fe 02       		.uleb128 0x2
 2989 08ff 91       		.byte	0x91
 2990 0900 77       		.sleb128 -9
 2991 0901 00       		.byte	0
 2992 0902 21       		.uleb128 0x21
 2993 0903 F2030000 		.4byte	.LASF127
 2994 0907 01       		.byte	0x1
 2995 0908 D901     		.2byte	0x1d9
 2996 090a D5000000 		.4byte	0xd5
 2997 090e 00000000 		.4byte	.LFB74
 2998 0912 78000000 		.4byte	.LFE74-.LFB74
 2999 0916 01       		.uleb128 0x1
 3000 0917 9C       		.byte	0x9c
 3001 0918 53090000 		.4byte	0x953
 3002 091c 22       		.uleb128 0x22
 3003 091d 7800     		.ascii	"x\000"
 3004 091f 01       		.byte	0x1
 3005 0920 D901     		.2byte	0x1d9
 3006 0922 D5000000 		.4byte	0xd5
 3007 0926 02       		.uleb128 0x2
 3008 0927 91       		.byte	0x91
ARM GAS  C:\Users\MattiaCP\AppData\Local\Temp\ccjRb3Rd.s 			page 63


 3009 0928 64       		.sleb128 -28
 3010 0929 1E       		.uleb128 0x1e
 3011 092a 60020000 		.4byte	.LASF128
 3012 092e 01       		.byte	0x1
 3013 092f DA01     		.2byte	0x1da
 3014 0931 D5000000 		.4byte	0xd5
 3015 0935 02       		.uleb128 0x2
 3016 0936 91       		.byte	0x91
 3017 0937 74       		.sleb128 -12
 3018 0938 20       		.uleb128 0x20
 3019 0939 7900     		.ascii	"y\000"
 3020 093b 01       		.byte	0x1
 3021 093c DB01     		.2byte	0x1db
 3022 093e D5000000 		.4byte	0xd5
 3023 0942 02       		.uleb128 0x2
 3024 0943 91       		.byte	0x91
 3025 0944 70       		.sleb128 -16
 3026 0945 20       		.uleb128 0x20
 3027 0946 6900     		.ascii	"i\000"
 3028 0948 01       		.byte	0x1
 3029 0949 DC01     		.2byte	0x1dc
 3030 094b 4C000000 		.4byte	0x4c
 3031 094f 02       		.uleb128 0x2
 3032 0950 91       		.byte	0x91
 3033 0951 6C       		.sleb128 -20
 3034 0952 00       		.byte	0
 3035 0953 1B       		.uleb128 0x1b
 3036 0954 A5060000 		.4byte	.LASF129
 3037 0958 01       		.byte	0x1
 3038 0959 E601     		.2byte	0x1e6
 3039 095b 00000000 		.4byte	.LFB75
 3040 095f B0000000 		.4byte	.LFE75-.LFB75
 3041 0963 01       		.uleb128 0x1
 3042 0964 9C       		.byte	0x9c
 3043 0965 88090000 		.4byte	0x988
 3044 0969 1C       		.uleb128 0x1c
 3045 096a 9B010000 		.4byte	.LASF130
 3046 096e 01       		.byte	0x1
 3047 096f E601     		.2byte	0x1e6
 3048 0971 88090000 		.4byte	0x988
 3049 0975 02       		.uleb128 0x2
 3050 0976 91       		.byte	0x91
 3051 0977 64       		.sleb128 -28
 3052 0978 1E       		.uleb128 0x1e
 3053 0979 8B010000 		.4byte	.LASF131
 3054 097d 01       		.byte	0x1
 3055 097e E801     		.2byte	0x1e8
 3056 0980 D5000000 		.4byte	0xd5
 3057 0984 02       		.uleb128 0x2
 3058 0985 91       		.byte	0x91
 3059 0986 6C       		.sleb128 -20
 3060 0987 00       		.byte	0
 3061 0988 17       		.uleb128 0x17
 3062 0989 04       		.byte	0x4
 3063 098a D5000000 		.4byte	0xd5
 3064 098e 1B       		.uleb128 0x1b
 3065 098f D4040000 		.4byte	.LASF132
ARM GAS  C:\Users\MattiaCP\AppData\Local\Temp\ccjRb3Rd.s 			page 64


 3066 0993 01       		.byte	0x1
 3067 0994 F201     		.2byte	0x1f2
 3068 0996 00000000 		.4byte	.LFB76
 3069 099a EA000000 		.4byte	.LFE76-.LFB76
 3070 099e 01       		.uleb128 0x1
 3071 099f 9C       		.byte	0x9c
 3072 09a0 C3090000 		.4byte	0x9c3
 3073 09a4 1C       		.uleb128 0x1c
 3074 09a5 1D020000 		.4byte	.LASF133
 3075 09a9 01       		.byte	0x1
 3076 09aa F201     		.2byte	0x1f2
 3077 09ac 88090000 		.4byte	0x988
 3078 09b0 02       		.uleb128 0x2
 3079 09b1 91       		.byte	0x91
 3080 09b2 64       		.sleb128 -28
 3081 09b3 1E       		.uleb128 0x1e
 3082 09b4 8B010000 		.4byte	.LASF131
 3083 09b8 01       		.byte	0x1
 3084 09b9 F401     		.2byte	0x1f4
 3085 09bb D5000000 		.4byte	0xd5
 3086 09bf 02       		.uleb128 0x2
 3087 09c0 91       		.byte	0x91
 3088 09c1 6C       		.sleb128 -20
 3089 09c2 00       		.byte	0
 3090 09c3 23       		.uleb128 0x23
 3091 09c4 31010000 		.4byte	.LASF134
 3092 09c8 06       		.byte	0x6
 3093 09c9 1207     		.2byte	0x712
 3094 09cb CF090000 		.4byte	0x9cf
 3095 09cf 24       		.uleb128 0x24
 3096 09d0 76000000 		.4byte	0x76
 3097 09d4 23       		.uleb128 0x23
 3098 09d5 7D030000 		.4byte	.LASF135
 3099 09d9 05       		.byte	0x5
 3100 09da 4E01     		.2byte	0x14e
 3101 09dc F8000000 		.4byte	0xf8
 3102 09e0 23       		.uleb128 0x23
 3103 09e1 B6050000 		.4byte	.LASF136
 3104 09e5 05       		.byte	0x5
 3105 09e6 4F01     		.2byte	0x14f
 3106 09e8 35010000 		.4byte	0x135
 3107 09ec 23       		.uleb128 0x23
 3108 09ed 2C040000 		.4byte	.LASF137
 3109 09f1 05       		.byte	0x5
 3110 09f2 5101     		.2byte	0x151
 3111 09f4 C6010000 		.4byte	0x1c6
 3112 09f8 23       		.uleb128 0x23
 3113 09f9 1F000000 		.4byte	.LASF138
 3114 09fd 05       		.byte	0x5
 3115 09fe 5101     		.2byte	0x151
 3116 0a00 C6010000 		.4byte	0x1c6
 3117 0a04 23       		.uleb128 0x23
 3118 0a05 E3030000 		.4byte	.LASF139
 3119 0a09 05       		.byte	0x5
 3120 0a0a 5201     		.2byte	0x152
 3121 0a0c 82050000 		.4byte	0x582
 3122 0a10 23       		.uleb128 0x23
ARM GAS  C:\Users\MattiaCP\AppData\Local\Temp\ccjRb3Rd.s 			page 65


 3123 0a11 6A000000 		.4byte	.LASF140
 3124 0a15 05       		.byte	0x5
 3125 0a16 5301     		.2byte	0x153
 3126 0a18 5A050000 		.4byte	0x55a
 3127 0a1c 23       		.uleb128 0x23
 3128 0a1d 88050000 		.4byte	.LASF141
 3129 0a21 05       		.byte	0x5
 3130 0a22 5B01     		.2byte	0x15b
 3131 0a24 BD000000 		.4byte	0xbd
 3132 0a28 23       		.uleb128 0x23
 3133 0a29 5C030000 		.4byte	.LASF142
 3134 0a2d 05       		.byte	0x5
 3135 0a2e 5E01     		.2byte	0x15e
 3136 0a30 BD000000 		.4byte	0xbd
 3137 0a34 23       		.uleb128 0x23
 3138 0a35 DF010000 		.4byte	.LASF143
 3139 0a39 05       		.byte	0x5
 3140 0a3a 5F01     		.2byte	0x15f
 3141 0a3c BD000000 		.4byte	0xbd
 3142 0a40 23       		.uleb128 0x23
 3143 0a41 09070000 		.4byte	.LASF144
 3144 0a45 05       		.byte	0x5
 3145 0a46 6201     		.2byte	0x162
 3146 0a48 F6050000 		.4byte	0x5f6
 3147 0a4c 23       		.uleb128 0x23
 3148 0a4d C7040000 		.4byte	.LASF145
 3149 0a51 05       		.byte	0x5
 3150 0a52 6301     		.2byte	0x163
 3151 0a54 F6050000 		.4byte	0x5f6
 3152 0a58 23       		.uleb128 0x23
 3153 0a59 C7010000 		.4byte	.LASF146
 3154 0a5d 05       		.byte	0x5
 3155 0a5e 6701     		.2byte	0x167
 3156 0a60 81000000 		.4byte	0x81
 3157 0a64 23       		.uleb128 0x23
 3158 0a65 55050000 		.4byte	.LASF147
 3159 0a69 05       		.byte	0x5
 3160 0a6a 6A01     		.2byte	0x16a
 3161 0a6c 81000000 		.4byte	0x81
 3162 0a70 23       		.uleb128 0x23
 3163 0a71 17040000 		.4byte	.LASF148
 3164 0a75 05       		.byte	0x5
 3165 0a76 6C01     		.2byte	0x16c
 3166 0a78 81000000 		.4byte	0x81
 3167 0a7c 23       		.uleb128 0x23
 3168 0a7d A1010000 		.4byte	.LASF149
 3169 0a81 05       		.byte	0x5
 3170 0a82 6D01     		.2byte	0x16d
 3171 0a84 81000000 		.4byte	0x81
 3172 0a88 23       		.uleb128 0x23
 3173 0a89 D1030000 		.4byte	.LASF150
 3174 0a8d 05       		.byte	0x5
 3175 0a8e 7C01     		.2byte	0x17c
 3176 0a90 BD000000 		.4byte	0xbd
 3177 0a94 00       		.byte	0
 3178              		.section	.debug_abbrev,"",%progbits
 3179              	.Ldebug_abbrev0:
ARM GAS  C:\Users\MattiaCP\AppData\Local\Temp\ccjRb3Rd.s 			page 66


 3180 0000 01       		.uleb128 0x1
 3181 0001 11       		.uleb128 0x11
 3182 0002 01       		.byte	0x1
 3183 0003 25       		.uleb128 0x25
 3184 0004 0E       		.uleb128 0xe
 3185 0005 13       		.uleb128 0x13
 3186 0006 0B       		.uleb128 0xb
 3187 0007 03       		.uleb128 0x3
 3188 0008 0E       		.uleb128 0xe
 3189 0009 1B       		.uleb128 0x1b
 3190 000a 0E       		.uleb128 0xe
 3191 000b 55       		.uleb128 0x55
 3192 000c 17       		.uleb128 0x17
 3193 000d 11       		.uleb128 0x11
 3194 000e 01       		.uleb128 0x1
 3195 000f 10       		.uleb128 0x10
 3196 0010 17       		.uleb128 0x17
 3197 0011 00       		.byte	0
 3198 0012 00       		.byte	0
 3199 0013 02       		.uleb128 0x2
 3200 0014 24       		.uleb128 0x24
 3201 0015 00       		.byte	0
 3202 0016 0B       		.uleb128 0xb
 3203 0017 0B       		.uleb128 0xb
 3204 0018 3E       		.uleb128 0x3e
 3205 0019 0B       		.uleb128 0xb
 3206 001a 03       		.uleb128 0x3
 3207 001b 0E       		.uleb128 0xe
 3208 001c 00       		.byte	0
 3209 001d 00       		.byte	0
 3210 001e 03       		.uleb128 0x3
 3211 001f 16       		.uleb128 0x16
 3212 0020 00       		.byte	0
 3213 0021 03       		.uleb128 0x3
 3214 0022 0E       		.uleb128 0xe
 3215 0023 3A       		.uleb128 0x3a
 3216 0024 0B       		.uleb128 0xb
 3217 0025 3B       		.uleb128 0x3b
 3218 0026 0B       		.uleb128 0xb
 3219 0027 49       		.uleb128 0x49
 3220 0028 13       		.uleb128 0x13
 3221 0029 00       		.byte	0
 3222 002a 00       		.byte	0
 3223 002b 04       		.uleb128 0x4
 3224 002c 24       		.uleb128 0x24
 3225 002d 00       		.byte	0
 3226 002e 0B       		.uleb128 0xb
 3227 002f 0B       		.uleb128 0xb
 3228 0030 3E       		.uleb128 0x3e
 3229 0031 0B       		.uleb128 0xb
 3230 0032 03       		.uleb128 0x3
 3231 0033 08       		.uleb128 0x8
 3232 0034 00       		.byte	0
 3233 0035 00       		.byte	0
 3234 0036 05       		.uleb128 0x5
 3235 0037 16       		.uleb128 0x16
 3236 0038 00       		.byte	0
ARM GAS  C:\Users\MattiaCP\AppData\Local\Temp\ccjRb3Rd.s 			page 67


 3237 0039 03       		.uleb128 0x3
 3238 003a 0E       		.uleb128 0xe
 3239 003b 3A       		.uleb128 0x3a
 3240 003c 0B       		.uleb128 0xb
 3241 003d 3B       		.uleb128 0x3b
 3242 003e 05       		.uleb128 0x5
 3243 003f 49       		.uleb128 0x49
 3244 0040 13       		.uleb128 0x13
 3245 0041 00       		.byte	0
 3246 0042 00       		.byte	0
 3247 0043 06       		.uleb128 0x6
 3248 0044 13       		.uleb128 0x13
 3249 0045 01       		.byte	0x1
 3250 0046 03       		.uleb128 0x3
 3251 0047 0E       		.uleb128 0xe
 3252 0048 0B       		.uleb128 0xb
 3253 0049 0B       		.uleb128 0xb
 3254 004a 3A       		.uleb128 0x3a
 3255 004b 0B       		.uleb128 0xb
 3256 004c 3B       		.uleb128 0x3b
 3257 004d 0B       		.uleb128 0xb
 3258 004e 01       		.uleb128 0x1
 3259 004f 13       		.uleb128 0x13
 3260 0050 00       		.byte	0
 3261 0051 00       		.byte	0
 3262 0052 07       		.uleb128 0x7
 3263 0053 0D       		.uleb128 0xd
 3264 0054 00       		.byte	0
 3265 0055 03       		.uleb128 0x3
 3266 0056 08       		.uleb128 0x8
 3267 0057 3A       		.uleb128 0x3a
 3268 0058 0B       		.uleb128 0xb
 3269 0059 3B       		.uleb128 0x3b
 3270 005a 0B       		.uleb128 0xb
 3271 005b 49       		.uleb128 0x49
 3272 005c 13       		.uleb128 0x13
 3273 005d 38       		.uleb128 0x38
 3274 005e 0B       		.uleb128 0xb
 3275 005f 00       		.byte	0
 3276 0060 00       		.byte	0
 3277 0061 08       		.uleb128 0x8
 3278 0062 0D       		.uleb128 0xd
 3279 0063 00       		.byte	0
 3280 0064 03       		.uleb128 0x3
 3281 0065 0E       		.uleb128 0xe
 3282 0066 3A       		.uleb128 0x3a
 3283 0067 0B       		.uleb128 0xb
 3284 0068 3B       		.uleb128 0x3b
 3285 0069 0B       		.uleb128 0xb
 3286 006a 49       		.uleb128 0x49
 3287 006b 13       		.uleb128 0x13
 3288 006c 38       		.uleb128 0x38
 3289 006d 0B       		.uleb128 0xb
 3290 006e 00       		.byte	0
 3291 006f 00       		.byte	0
 3292 0070 09       		.uleb128 0x9
 3293 0071 01       		.uleb128 0x1
ARM GAS  C:\Users\MattiaCP\AppData\Local\Temp\ccjRb3Rd.s 			page 68


 3294 0072 01       		.byte	0x1
 3295 0073 49       		.uleb128 0x49
 3296 0074 13       		.uleb128 0x13
 3297 0075 01       		.uleb128 0x1
 3298 0076 13       		.uleb128 0x13
 3299 0077 00       		.byte	0
 3300 0078 00       		.byte	0
 3301 0079 0A       		.uleb128 0xa
 3302 007a 21       		.uleb128 0x21
 3303 007b 00       		.byte	0
 3304 007c 49       		.uleb128 0x49
 3305 007d 13       		.uleb128 0x13
 3306 007e 2F       		.uleb128 0x2f
 3307 007f 0B       		.uleb128 0xb
 3308 0080 00       		.byte	0
 3309 0081 00       		.byte	0
 3310 0082 0B       		.uleb128 0xb
 3311 0083 13       		.uleb128 0x13
 3312 0084 01       		.byte	0x1
 3313 0085 03       		.uleb128 0x3
 3314 0086 0E       		.uleb128 0xe
 3315 0087 0B       		.uleb128 0xb
 3316 0088 05       		.uleb128 0x5
 3317 0089 3A       		.uleb128 0x3a
 3318 008a 0B       		.uleb128 0xb
 3319 008b 3B       		.uleb128 0x3b
 3320 008c 0B       		.uleb128 0xb
 3321 008d 01       		.uleb128 0x1
 3322 008e 13       		.uleb128 0x13
 3323 008f 00       		.byte	0
 3324 0090 00       		.byte	0
 3325 0091 0C       		.uleb128 0xc
 3326 0092 0D       		.uleb128 0xd
 3327 0093 00       		.byte	0
 3328 0094 03       		.uleb128 0x3
 3329 0095 0E       		.uleb128 0xe
 3330 0096 3A       		.uleb128 0x3a
 3331 0097 0B       		.uleb128 0xb
 3332 0098 3B       		.uleb128 0x3b
 3333 0099 05       		.uleb128 0x5
 3334 009a 49       		.uleb128 0x49
 3335 009b 13       		.uleb128 0x13
 3336 009c 38       		.uleb128 0x38
 3337 009d 0B       		.uleb128 0xb
 3338 009e 00       		.byte	0
 3339 009f 00       		.byte	0
 3340 00a0 0D       		.uleb128 0xd
 3341 00a1 0D       		.uleb128 0xd
 3342 00a2 00       		.byte	0
 3343 00a3 03       		.uleb128 0x3
 3344 00a4 0E       		.uleb128 0xe
 3345 00a5 3A       		.uleb128 0x3a
 3346 00a6 0B       		.uleb128 0xb
 3347 00a7 3B       		.uleb128 0x3b
 3348 00a8 05       		.uleb128 0x5
 3349 00a9 49       		.uleb128 0x49
 3350 00aa 13       		.uleb128 0x13
ARM GAS  C:\Users\MattiaCP\AppData\Local\Temp\ccjRb3Rd.s 			page 69


 3351 00ab 38       		.uleb128 0x38
 3352 00ac 05       		.uleb128 0x5
 3353 00ad 00       		.byte	0
 3354 00ae 00       		.byte	0
 3355 00af 0E       		.uleb128 0xe
 3356 00b0 13       		.uleb128 0x13
 3357 00b1 01       		.byte	0x1
 3358 00b2 03       		.uleb128 0x3
 3359 00b3 0E       		.uleb128 0xe
 3360 00b4 0B       		.uleb128 0xb
 3361 00b5 0B       		.uleb128 0xb
 3362 00b6 3A       		.uleb128 0x3a
 3363 00b7 0B       		.uleb128 0xb
 3364 00b8 3B       		.uleb128 0x3b
 3365 00b9 05       		.uleb128 0x5
 3366 00ba 01       		.uleb128 0x1
 3367 00bb 13       		.uleb128 0x13
 3368 00bc 00       		.byte	0
 3369 00bd 00       		.byte	0
 3370 00be 0F       		.uleb128 0xf
 3371 00bf 04       		.uleb128 0x4
 3372 00c0 01       		.byte	0x1
 3373 00c1 0B       		.uleb128 0xb
 3374 00c2 0B       		.uleb128 0xb
 3375 00c3 49       		.uleb128 0x49
 3376 00c4 13       		.uleb128 0x13
 3377 00c5 3A       		.uleb128 0x3a
 3378 00c6 0B       		.uleb128 0xb
 3379 00c7 3B       		.uleb128 0x3b
 3380 00c8 05       		.uleb128 0x5
 3381 00c9 01       		.uleb128 0x1
 3382 00ca 13       		.uleb128 0x13
 3383 00cb 00       		.byte	0
 3384 00cc 00       		.byte	0
 3385 00cd 10       		.uleb128 0x10
 3386 00ce 28       		.uleb128 0x28
 3387 00cf 00       		.byte	0
 3388 00d0 03       		.uleb128 0x3
 3389 00d1 0E       		.uleb128 0xe
 3390 00d2 1C       		.uleb128 0x1c
 3391 00d3 0B       		.uleb128 0xb
 3392 00d4 00       		.byte	0
 3393 00d5 00       		.byte	0
 3394 00d6 11       		.uleb128 0x11
 3395 00d7 2E       		.uleb128 0x2e
 3396 00d8 01       		.byte	0x1
 3397 00d9 3F       		.uleb128 0x3f
 3398 00da 19       		.uleb128 0x19
 3399 00db 03       		.uleb128 0x3
 3400 00dc 0E       		.uleb128 0xe
 3401 00dd 3A       		.uleb128 0x3a
 3402 00de 0B       		.uleb128 0xb
 3403 00df 3B       		.uleb128 0x3b
 3404 00e0 0B       		.uleb128 0xb
 3405 00e1 27       		.uleb128 0x27
 3406 00e2 19       		.uleb128 0x19
 3407 00e3 49       		.uleb128 0x49
ARM GAS  C:\Users\MattiaCP\AppData\Local\Temp\ccjRb3Rd.s 			page 70


 3408 00e4 13       		.uleb128 0x13
 3409 00e5 11       		.uleb128 0x11
 3410 00e6 01       		.uleb128 0x1
 3411 00e7 12       		.uleb128 0x12
 3412 00e8 06       		.uleb128 0x6
 3413 00e9 40       		.uleb128 0x40
 3414 00ea 18       		.uleb128 0x18
 3415 00eb 9642     		.uleb128 0x2116
 3416 00ed 19       		.uleb128 0x19
 3417 00ee 01       		.uleb128 0x1
 3418 00ef 13       		.uleb128 0x13
 3419 00f0 00       		.byte	0
 3420 00f1 00       		.byte	0
 3421 00f2 12       		.uleb128 0x12
 3422 00f3 05       		.uleb128 0x5
 3423 00f4 00       		.byte	0
 3424 00f5 03       		.uleb128 0x3
 3425 00f6 08       		.uleb128 0x8
 3426 00f7 3A       		.uleb128 0x3a
 3427 00f8 0B       		.uleb128 0xb
 3428 00f9 3B       		.uleb128 0x3b
 3429 00fa 0B       		.uleb128 0xb
 3430 00fb 49       		.uleb128 0x49
 3431 00fc 13       		.uleb128 0x13
 3432 00fd 02       		.uleb128 0x2
 3433 00fe 18       		.uleb128 0x18
 3434 00ff 00       		.byte	0
 3435 0100 00       		.byte	0
 3436 0101 13       		.uleb128 0x13
 3437 0102 34       		.uleb128 0x34
 3438 0103 00       		.byte	0
 3439 0104 03       		.uleb128 0x3
 3440 0105 0E       		.uleb128 0xe
 3441 0106 3A       		.uleb128 0x3a
 3442 0107 0B       		.uleb128 0xb
 3443 0108 3B       		.uleb128 0x3b
 3444 0109 0B       		.uleb128 0xb
 3445 010a 49       		.uleb128 0x49
 3446 010b 13       		.uleb128 0x13
 3447 010c 02       		.uleb128 0x2
 3448 010d 18       		.uleb128 0x18
 3449 010e 00       		.byte	0
 3450 010f 00       		.byte	0
 3451 0110 14       		.uleb128 0x14
 3452 0111 2E       		.uleb128 0x2e
 3453 0112 01       		.byte	0x1
 3454 0113 3F       		.uleb128 0x3f
 3455 0114 19       		.uleb128 0x19
 3456 0115 03       		.uleb128 0x3
 3457 0116 0E       		.uleb128 0xe
 3458 0117 3A       		.uleb128 0x3a
 3459 0118 0B       		.uleb128 0xb
 3460 0119 3B       		.uleb128 0x3b
 3461 011a 0B       		.uleb128 0xb
 3462 011b 27       		.uleb128 0x27
 3463 011c 19       		.uleb128 0x19
 3464 011d 49       		.uleb128 0x49
ARM GAS  C:\Users\MattiaCP\AppData\Local\Temp\ccjRb3Rd.s 			page 71


 3465 011e 13       		.uleb128 0x13
 3466 011f 11       		.uleb128 0x11
 3467 0120 01       		.uleb128 0x1
 3468 0121 12       		.uleb128 0x12
 3469 0122 06       		.uleb128 0x6
 3470 0123 40       		.uleb128 0x40
 3471 0124 18       		.uleb128 0x18
 3472 0125 9742     		.uleb128 0x2117
 3473 0127 19       		.uleb128 0x19
 3474 0128 01       		.uleb128 0x1
 3475 0129 13       		.uleb128 0x13
 3476 012a 00       		.byte	0
 3477 012b 00       		.byte	0
 3478 012c 15       		.uleb128 0x15
 3479 012d 05       		.uleb128 0x5
 3480 012e 00       		.byte	0
 3481 012f 03       		.uleb128 0x3
 3482 0130 0E       		.uleb128 0xe
 3483 0131 3A       		.uleb128 0x3a
 3484 0132 0B       		.uleb128 0xb
 3485 0133 3B       		.uleb128 0x3b
 3486 0134 0B       		.uleb128 0xb
 3487 0135 49       		.uleb128 0x49
 3488 0136 13       		.uleb128 0x13
 3489 0137 02       		.uleb128 0x2
 3490 0138 18       		.uleb128 0x18
 3491 0139 00       		.byte	0
 3492 013a 00       		.byte	0
 3493 013b 16       		.uleb128 0x16
 3494 013c 34       		.uleb128 0x34
 3495 013d 00       		.byte	0
 3496 013e 03       		.uleb128 0x3
 3497 013f 08       		.uleb128 0x8
 3498 0140 3A       		.uleb128 0x3a
 3499 0141 0B       		.uleb128 0xb
 3500 0142 3B       		.uleb128 0x3b
 3501 0143 0B       		.uleb128 0xb
 3502 0144 49       		.uleb128 0x49
 3503 0145 13       		.uleb128 0x13
 3504 0146 02       		.uleb128 0x2
 3505 0147 18       		.uleb128 0x18
 3506 0148 00       		.byte	0
 3507 0149 00       		.byte	0
 3508 014a 17       		.uleb128 0x17
 3509 014b 0F       		.uleb128 0xf
 3510 014c 00       		.byte	0
 3511 014d 0B       		.uleb128 0xb
 3512 014e 0B       		.uleb128 0xb
 3513 014f 49       		.uleb128 0x49
 3514 0150 13       		.uleb128 0x13
 3515 0151 00       		.byte	0
 3516 0152 00       		.byte	0
 3517 0153 18       		.uleb128 0x18
 3518 0154 26       		.uleb128 0x26
 3519 0155 00       		.byte	0
 3520 0156 49       		.uleb128 0x49
 3521 0157 13       		.uleb128 0x13
ARM GAS  C:\Users\MattiaCP\AppData\Local\Temp\ccjRb3Rd.s 			page 72


 3522 0158 00       		.byte	0
 3523 0159 00       		.byte	0
 3524 015a 19       		.uleb128 0x19
 3525 015b 2E       		.uleb128 0x2e
 3526 015c 01       		.byte	0x1
 3527 015d 3F       		.uleb128 0x3f
 3528 015e 19       		.uleb128 0x19
 3529 015f 03       		.uleb128 0x3
 3530 0160 0E       		.uleb128 0xe
 3531 0161 3A       		.uleb128 0x3a
 3532 0162 0B       		.uleb128 0xb
 3533 0163 3B       		.uleb128 0x3b
 3534 0164 0B       		.uleb128 0xb
 3535 0165 27       		.uleb128 0x27
 3536 0166 19       		.uleb128 0x19
 3537 0167 11       		.uleb128 0x11
 3538 0168 01       		.uleb128 0x1
 3539 0169 12       		.uleb128 0x12
 3540 016a 06       		.uleb128 0x6
 3541 016b 40       		.uleb128 0x40
 3542 016c 18       		.uleb128 0x18
 3543 016d 9742     		.uleb128 0x2117
 3544 016f 19       		.uleb128 0x19
 3545 0170 01       		.uleb128 0x1
 3546 0171 13       		.uleb128 0x13
 3547 0172 00       		.byte	0
 3548 0173 00       		.byte	0
 3549 0174 1A       		.uleb128 0x1a
 3550 0175 2E       		.uleb128 0x2e
 3551 0176 01       		.byte	0x1
 3552 0177 3F       		.uleb128 0x3f
 3553 0178 19       		.uleb128 0x19
 3554 0179 03       		.uleb128 0x3
 3555 017a 0E       		.uleb128 0xe
 3556 017b 3A       		.uleb128 0x3a
 3557 017c 0B       		.uleb128 0xb
 3558 017d 3B       		.uleb128 0x3b
 3559 017e 0B       		.uleb128 0xb
 3560 017f 27       		.uleb128 0x27
 3561 0180 19       		.uleb128 0x19
 3562 0181 11       		.uleb128 0x11
 3563 0182 01       		.uleb128 0x1
 3564 0183 12       		.uleb128 0x12
 3565 0184 06       		.uleb128 0x6
 3566 0185 40       		.uleb128 0x40
 3567 0186 18       		.uleb128 0x18
 3568 0187 9642     		.uleb128 0x2116
 3569 0189 19       		.uleb128 0x19
 3570 018a 01       		.uleb128 0x1
 3571 018b 13       		.uleb128 0x13
 3572 018c 00       		.byte	0
 3573 018d 00       		.byte	0
 3574 018e 1B       		.uleb128 0x1b
 3575 018f 2E       		.uleb128 0x2e
 3576 0190 01       		.byte	0x1
 3577 0191 3F       		.uleb128 0x3f
 3578 0192 19       		.uleb128 0x19
ARM GAS  C:\Users\MattiaCP\AppData\Local\Temp\ccjRb3Rd.s 			page 73


 3579 0193 03       		.uleb128 0x3
 3580 0194 0E       		.uleb128 0xe
 3581 0195 3A       		.uleb128 0x3a
 3582 0196 0B       		.uleb128 0xb
 3583 0197 3B       		.uleb128 0x3b
 3584 0198 05       		.uleb128 0x5
 3585 0199 27       		.uleb128 0x27
 3586 019a 19       		.uleb128 0x19
 3587 019b 11       		.uleb128 0x11
 3588 019c 01       		.uleb128 0x1
 3589 019d 12       		.uleb128 0x12
 3590 019e 06       		.uleb128 0x6
 3591 019f 40       		.uleb128 0x40
 3592 01a0 18       		.uleb128 0x18
 3593 01a1 9642     		.uleb128 0x2116
 3594 01a3 19       		.uleb128 0x19
 3595 01a4 01       		.uleb128 0x1
 3596 01a5 13       		.uleb128 0x13
 3597 01a6 00       		.byte	0
 3598 01a7 00       		.byte	0
 3599 01a8 1C       		.uleb128 0x1c
 3600 01a9 05       		.uleb128 0x5
 3601 01aa 00       		.byte	0
 3602 01ab 03       		.uleb128 0x3
 3603 01ac 0E       		.uleb128 0xe
 3604 01ad 3A       		.uleb128 0x3a
 3605 01ae 0B       		.uleb128 0xb
 3606 01af 3B       		.uleb128 0x3b
 3607 01b0 05       		.uleb128 0x5
 3608 01b1 49       		.uleb128 0x49
 3609 01b2 13       		.uleb128 0x13
 3610 01b3 02       		.uleb128 0x2
 3611 01b4 18       		.uleb128 0x18
 3612 01b5 00       		.byte	0
 3613 01b6 00       		.byte	0
 3614 01b7 1D       		.uleb128 0x1d
 3615 01b8 2E       		.uleb128 0x2e
 3616 01b9 01       		.byte	0x1
 3617 01ba 3F       		.uleb128 0x3f
 3618 01bb 19       		.uleb128 0x19
 3619 01bc 03       		.uleb128 0x3
 3620 01bd 0E       		.uleb128 0xe
 3621 01be 3A       		.uleb128 0x3a
 3622 01bf 0B       		.uleb128 0xb
 3623 01c0 3B       		.uleb128 0x3b
 3624 01c1 05       		.uleb128 0x5
 3625 01c2 11       		.uleb128 0x11
 3626 01c3 01       		.uleb128 0x1
 3627 01c4 12       		.uleb128 0x12
 3628 01c5 06       		.uleb128 0x6
 3629 01c6 40       		.uleb128 0x40
 3630 01c7 18       		.uleb128 0x18
 3631 01c8 9642     		.uleb128 0x2116
 3632 01ca 19       		.uleb128 0x19
 3633 01cb 01       		.uleb128 0x1
 3634 01cc 13       		.uleb128 0x13
 3635 01cd 00       		.byte	0
ARM GAS  C:\Users\MattiaCP\AppData\Local\Temp\ccjRb3Rd.s 			page 74


 3636 01ce 00       		.byte	0
 3637 01cf 1E       		.uleb128 0x1e
 3638 01d0 34       		.uleb128 0x34
 3639 01d1 00       		.byte	0
 3640 01d2 03       		.uleb128 0x3
 3641 01d3 0E       		.uleb128 0xe
 3642 01d4 3A       		.uleb128 0x3a
 3643 01d5 0B       		.uleb128 0xb
 3644 01d6 3B       		.uleb128 0x3b
 3645 01d7 05       		.uleb128 0x5
 3646 01d8 49       		.uleb128 0x49
 3647 01d9 13       		.uleb128 0x13
 3648 01da 02       		.uleb128 0x2
 3649 01db 18       		.uleb128 0x18
 3650 01dc 00       		.byte	0
 3651 01dd 00       		.byte	0
 3652 01de 1F       		.uleb128 0x1f
 3653 01df 2E       		.uleb128 0x2e
 3654 01e0 01       		.byte	0x1
 3655 01e1 3F       		.uleb128 0x3f
 3656 01e2 19       		.uleb128 0x19
 3657 01e3 03       		.uleb128 0x3
 3658 01e4 0E       		.uleb128 0xe
 3659 01e5 3A       		.uleb128 0x3a
 3660 01e6 0B       		.uleb128 0xb
 3661 01e7 3B       		.uleb128 0x3b
 3662 01e8 05       		.uleb128 0x5
 3663 01e9 11       		.uleb128 0x11
 3664 01ea 01       		.uleb128 0x1
 3665 01eb 12       		.uleb128 0x12
 3666 01ec 06       		.uleb128 0x6
 3667 01ed 40       		.uleb128 0x40
 3668 01ee 18       		.uleb128 0x18
 3669 01ef 9742     		.uleb128 0x2117
 3670 01f1 19       		.uleb128 0x19
 3671 01f2 01       		.uleb128 0x1
 3672 01f3 13       		.uleb128 0x13
 3673 01f4 00       		.byte	0
 3674 01f5 00       		.byte	0
 3675 01f6 20       		.uleb128 0x20
 3676 01f7 34       		.uleb128 0x34
 3677 01f8 00       		.byte	0
 3678 01f9 03       		.uleb128 0x3
 3679 01fa 08       		.uleb128 0x8
 3680 01fb 3A       		.uleb128 0x3a
 3681 01fc 0B       		.uleb128 0xb
 3682 01fd 3B       		.uleb128 0x3b
 3683 01fe 05       		.uleb128 0x5
 3684 01ff 49       		.uleb128 0x49
 3685 0200 13       		.uleb128 0x13
 3686 0201 02       		.uleb128 0x2
 3687 0202 18       		.uleb128 0x18
 3688 0203 00       		.byte	0
 3689 0204 00       		.byte	0
 3690 0205 21       		.uleb128 0x21
 3691 0206 2E       		.uleb128 0x2e
 3692 0207 01       		.byte	0x1
ARM GAS  C:\Users\MattiaCP\AppData\Local\Temp\ccjRb3Rd.s 			page 75


 3693 0208 3F       		.uleb128 0x3f
 3694 0209 19       		.uleb128 0x19
 3695 020a 03       		.uleb128 0x3
 3696 020b 0E       		.uleb128 0xe
 3697 020c 3A       		.uleb128 0x3a
 3698 020d 0B       		.uleb128 0xb
 3699 020e 3B       		.uleb128 0x3b
 3700 020f 05       		.uleb128 0x5
 3701 0210 27       		.uleb128 0x27
 3702 0211 19       		.uleb128 0x19
 3703 0212 49       		.uleb128 0x49
 3704 0213 13       		.uleb128 0x13
 3705 0214 11       		.uleb128 0x11
 3706 0215 01       		.uleb128 0x1
 3707 0216 12       		.uleb128 0x12
 3708 0217 06       		.uleb128 0x6
 3709 0218 40       		.uleb128 0x40
 3710 0219 18       		.uleb128 0x18
 3711 021a 9642     		.uleb128 0x2116
 3712 021c 19       		.uleb128 0x19
 3713 021d 01       		.uleb128 0x1
 3714 021e 13       		.uleb128 0x13
 3715 021f 00       		.byte	0
 3716 0220 00       		.byte	0
 3717 0221 22       		.uleb128 0x22
 3718 0222 05       		.uleb128 0x5
 3719 0223 00       		.byte	0
 3720 0224 03       		.uleb128 0x3
 3721 0225 08       		.uleb128 0x8
 3722 0226 3A       		.uleb128 0x3a
 3723 0227 0B       		.uleb128 0xb
 3724 0228 3B       		.uleb128 0x3b
 3725 0229 05       		.uleb128 0x5
 3726 022a 49       		.uleb128 0x49
 3727 022b 13       		.uleb128 0x13
 3728 022c 02       		.uleb128 0x2
 3729 022d 18       		.uleb128 0x18
 3730 022e 00       		.byte	0
 3731 022f 00       		.byte	0
 3732 0230 23       		.uleb128 0x23
 3733 0231 34       		.uleb128 0x34
 3734 0232 00       		.byte	0
 3735 0233 03       		.uleb128 0x3
 3736 0234 0E       		.uleb128 0xe
 3737 0235 3A       		.uleb128 0x3a
 3738 0236 0B       		.uleb128 0xb
 3739 0237 3B       		.uleb128 0x3b
 3740 0238 05       		.uleb128 0x5
 3741 0239 49       		.uleb128 0x49
 3742 023a 13       		.uleb128 0x13
 3743 023b 3F       		.uleb128 0x3f
 3744 023c 19       		.uleb128 0x19
 3745 023d 3C       		.uleb128 0x3c
 3746 023e 19       		.uleb128 0x19
 3747 023f 00       		.byte	0
 3748 0240 00       		.byte	0
 3749 0241 24       		.uleb128 0x24
ARM GAS  C:\Users\MattiaCP\AppData\Local\Temp\ccjRb3Rd.s 			page 76


 3750 0242 35       		.uleb128 0x35
 3751 0243 00       		.byte	0
 3752 0244 49       		.uleb128 0x49
 3753 0245 13       		.uleb128 0x13
 3754 0246 00       		.byte	0
 3755 0247 00       		.byte	0
 3756 0248 00       		.byte	0
 3757              		.section	.debug_aranges,"",%progbits
 3758 0000 7C000000 		.4byte	0x7c
 3759 0004 0200     		.2byte	0x2
 3760 0006 00000000 		.4byte	.Ldebug_info0
 3761 000a 04       		.byte	0x4
 3762 000b 00       		.byte	0
 3763 000c 0000     		.2byte	0
 3764 000e 0000     		.2byte	0
 3765 0010 00000000 		.4byte	.LFB64
 3766 0014 CC010000 		.4byte	.LFE64-.LFB64
 3767 0018 00000000 		.4byte	.LFB65
 3768 001c 4E000000 		.4byte	.LFE65-.LFB65
 3769 0020 00000000 		.4byte	.LFB66
 3770 0024 76000000 		.4byte	.LFE66-.LFB66
 3771 0028 00000000 		.4byte	.LFB67
 3772 002c 50000000 		.4byte	.LFE67-.LFB67
 3773 0030 00000000 		.4byte	.LFB68
 3774 0034 B4000000 		.4byte	.LFE68-.LFB68
 3775 0038 00000000 		.4byte	.LFB69
 3776 003c B0000000 		.4byte	.LFE69-.LFB69
 3777 0040 00000000 		.4byte	.LFB70
 3778 0044 7C020000 		.4byte	.LFE70-.LFB70
 3779 0048 00000000 		.4byte	.LFB71
 3780 004c 8E000000 		.4byte	.LFE71-.LFB71
 3781 0050 00000000 		.4byte	.LFB72
 3782 0054 74010000 		.4byte	.LFE72-.LFB72
 3783 0058 00000000 		.4byte	.LFB73
 3784 005c 84000000 		.4byte	.LFE73-.LFB73
 3785 0060 00000000 		.4byte	.LFB74
 3786 0064 78000000 		.4byte	.LFE74-.LFB74
 3787 0068 00000000 		.4byte	.LFB75
 3788 006c B0000000 		.4byte	.LFE75-.LFB75
 3789 0070 00000000 		.4byte	.LFB76
 3790 0074 EA000000 		.4byte	.LFE76-.LFB76
 3791 0078 00000000 		.4byte	0
 3792 007c 00000000 		.4byte	0
 3793              		.section	.debug_ranges,"",%progbits
 3794              	.Ldebug_ranges0:
 3795 0000 00000000 		.4byte	.LFB64
 3796 0004 CC010000 		.4byte	.LFE64
 3797 0008 00000000 		.4byte	.LFB65
 3798 000c 4E000000 		.4byte	.LFE65
 3799 0010 00000000 		.4byte	.LFB66
 3800 0014 76000000 		.4byte	.LFE66
 3801 0018 00000000 		.4byte	.LFB67
 3802 001c 50000000 		.4byte	.LFE67
 3803 0020 00000000 		.4byte	.LFB68
 3804 0024 B4000000 		.4byte	.LFE68
 3805 0028 00000000 		.4byte	.LFB69
 3806 002c B0000000 		.4byte	.LFE69
ARM GAS  C:\Users\MattiaCP\AppData\Local\Temp\ccjRb3Rd.s 			page 77


 3807 0030 00000000 		.4byte	.LFB70
 3808 0034 7C020000 		.4byte	.LFE70
 3809 0038 00000000 		.4byte	.LFB71
 3810 003c 8E000000 		.4byte	.LFE71
 3811 0040 00000000 		.4byte	.LFB72
 3812 0044 74010000 		.4byte	.LFE72
 3813 0048 00000000 		.4byte	.LFB73
 3814 004c 84000000 		.4byte	.LFE73
 3815 0050 00000000 		.4byte	.LFB74
 3816 0054 78000000 		.4byte	.LFE74
 3817 0058 00000000 		.4byte	.LFB75
 3818 005c B0000000 		.4byte	.LFE75
 3819 0060 00000000 		.4byte	.LFB76
 3820 0064 EA000000 		.4byte	.LFE76
 3821 0068 00000000 		.4byte	0
 3822 006c 00000000 		.4byte	0
 3823              		.section	.debug_line,"",%progbits
 3824              	.Ldebug_line0:
 3825 0000 70030000 		.section	.debug_str,"MS",%progbits,1
 3825      02006101 
 3825      00000201 
 3825      FB0E0D00 
 3825      01010101 
 3826              	.LASF114:
 3827 0000 636F756E 		.ascii	"count\000"
 3827      7400
 3828              	.LASF2:
 3829 0006 73686F72 		.ascii	"short int\000"
 3829      7420696E 
 3829      7400
 3830              	.LASF12:
 3831 0010 75696E74 		.ascii	"uint16\000"
 3831      313600
 3832              	.LASF26:
 3833 0017 73745F6D 		.ascii	"st_meas\000"
 3833      65617300 
 3834              	.LASF138:
 3835 001f 635F6D65 		.ascii	"c_mem\000"
 3835      6D00
 3836              	.LASF60:
 3837 0025 6D61696E 		.ascii	"maint_month\000"
 3837      745F6D6F 
 3837      6E746800 
 3838              	.LASF107:
 3839 0031 636C6F73 		.ascii	"closure_counter\000"
 3839      7572655F 
 3839      636F756E 
 3839      74657200 
 3840              	.LASF120:
 3841 0041 72657374 		.ascii	"rest_error\000"
 3841      5F657272 
 3841      6F7200
 3842              	.LASF76:
 3843 004c 746F7461 		.ascii	"total_time_on\000"
 3843      6C5F7469 
 3843      6D655F6F 
 3843      6E00
ARM GAS  C:\Users\MattiaCP\AppData\Local\Temp\ccjRb3Rd.s 			page 78


 3844              	.LASF42:
 3845 005a 6D5F6F66 		.ascii	"m_off\000"
 3845      6600
 3846              	.LASF87:
 3847 0060 64697265 		.ascii	"direction\000"
 3847      6374696F 
 3847      6E00
 3848              	.LASF140:
 3849 006a 66696C74 		.ascii	"filt_v\000"
 3849      5F7600
 3850              	.LASF151:
 3851 0071 474E5520 		.ascii	"GNU C11 5.4.1 20160609 (release) [ARM/embedded-5-br"
 3851      43313120 
 3851      352E342E 
 3851      31203230 
 3851      31363036 
 3852 00a4 616E6368 		.ascii	"anch revision 237715] -mcpu=cortex-m3 -mthumb -g -O"
 3852      20726576 
 3852      6973696F 
 3852      6E203233 
 3852      37373135 
 3853 00d7 30202D66 		.ascii	"0 -ffunction-sections -ffat-lto-objects\000"
 3853      66756E63 
 3853      74696F6E 
 3853      2D736563 
 3853      74696F6E 
 3854              	.LASF124:
 3855 00ff 765F636F 		.ascii	"v_count_lb\000"
 3855      756E745F 
 3855      6C6200
 3856              	.LASF7:
 3857 010a 6C6F6E67 		.ascii	"long long unsigned int\000"
 3857      206C6F6E 
 3857      6720756E 
 3857      7369676E 
 3857      65642069 
 3858              	.LASF58:
 3859 0121 62617564 		.ascii	"baud_rate\000"
 3859      5F726174 
 3859      6500
 3860              	.LASF24:
 3861 012b 6F6E6F66 		.ascii	"onoff\000"
 3861      6600
 3862              	.LASF134:
 3863 0131 49544D5F 		.ascii	"ITM_RxBuffer\000"
 3863      52784275 
 3863      66666572 
 3863      00
 3864              	.LASF118:
 3865 013e 64656C74 		.ascii	"delta_inc\000"
 3865      615F696E 
 3865      6300
 3866              	.LASF105:
 3867 0148 6D795F6D 		.ascii	"my_mod\000"
 3867      6F6400
 3868              	.LASF64:
 3869 014f 72657374 		.ascii	"rest_vel\000"
ARM GAS  C:\Users\MattiaCP\AppData\Local\Temp\ccjRb3Rd.s 			page 79


 3869      5F76656C 
 3869      00
 3870              	.LASF50:
 3871 0158 656D675F 		.ascii	"emg_threshold\000"
 3871      74687265 
 3871      73686F6C 
 3871      6400
 3872              	.LASF6:
 3873 0166 6C6F6E67 		.ascii	"long long int\000"
 3873      206C6F6E 
 3873      6720696E 
 3873      7400
 3874              	.LASF0:
 3875 0174 7369676E 		.ascii	"signed char\000"
 3875      65642063 
 3875      68617200 
 3876              	.LASF100:
 3877 0180 63757272 		.ascii	"curr_estim\000"
 3877      5F657374 
 3877      696D00
 3878              	.LASF131:
 3879 018b 6E6F726D 		.ascii	"norm\000"
 3879      00
 3880              	.LASF27:
 3881 0190 65737469 		.ascii	"estim_curr\000"
 3881      6D5F6375 
 3881      727200
 3882              	.LASF130:
 3883 019b 76335F69 		.ascii	"v3_in\000"
 3883      6E00
 3884              	.LASF149:
 3885 01a1 666F7263 		.ascii	"forced_open\000"
 3885      65645F6F 
 3885      70656E00 
 3886              	.LASF16:
 3887 01ad 696E7433 		.ascii	"int32\000"
 3887      3200
 3888              	.LASF98:
 3889 01b3 6572725F 		.ascii	"err_pos_dt\000"
 3889      706F735F 
 3889      647400
 3890              	.LASF4:
 3891 01be 6C6F6E67 		.ascii	"long int\000"
 3891      20696E74 
 3891      00
 3892              	.LASF146:
 3893 01c7 74656E73 		.ascii	"tension_valid\000"
 3893      696F6E5F 
 3893      76616C69 
 3893      6400
 3894              	.LASF83:
 3895 01d5 6F6C645F 		.ascii	"old_value\000"
 3895      76616C75 
 3895      6500
 3896              	.LASF143:
 3897 01df 706F775F 		.ascii	"pow_tension\000"
 3897      74656E73 
ARM GAS  C:\Users\MattiaCP\AppData\Local\Temp\ccjRb3Rd.s 			page 80


 3897      696F6E00 
 3898              	.LASF67:
 3899 01eb 72696768 		.ascii	"right_left\000"
 3899      745F6C65 
 3899      667400
 3900              	.LASF122:
 3901 01f6 4C45445F 		.ascii	"LED_control\000"
 3901      636F6E74 
 3901      726F6C00 
 3902              	.LASF41:
 3903 0202 636F6E74 		.ascii	"control_mode\000"
 3903      726F6C5F 
 3903      6D6F6465 
 3903      00
 3904              	.LASF79:
 3905 020f 756E7573 		.ascii	"unused_bytes1\000"
 3905      65645F62 
 3905      79746573 
 3905      3100
 3906              	.LASF133:
 3907 021d 76345F69 		.ascii	"v4_in\000"
 3907      6E00
 3908              	.LASF125:
 3909 0223 62617474 		.ascii	"battery_management\000"
 3909      6572795F 
 3909      6D616E61 
 3909      67656D65 
 3909      6E7400
 3910              	.LASF93:
 3911 0236 53554D5F 		.ascii	"SUM_AND_MEAN\000"
 3911      414E445F 
 3911      4D45414E 
 3911      00
 3912              	.LASF80:
 3913 0243 5350495F 		.ascii	"SPI_read_delay\000"
 3913      72656164 
 3913      5F64656C 
 3913      617900
 3914              	.LASF90:
 3915 0252 4E4F524D 		.ascii	"NORMAL\000"
 3915      414C00
 3916              	.LASF13:
 3917 0259 75696E74 		.ascii	"uint32\000"
 3917      333200
 3918              	.LASF128:
 3919 0260 68616C66 		.ascii	"halfx\000"
 3919      7800
 3920              	.LASF102:
 3921 0266 6E65775F 		.ascii	"new_value\000"
 3921      76616C75 
 3921      6500
 3922              	.LASF36:
 3923 0270 6B5F705F 		.ascii	"k_p_c_dl\000"
 3923      635F646C 
 3923      00
 3924              	.LASF89:
 3925 0279 72657065 		.ascii	"repetitions\000"
ARM GAS  C:\Users\MattiaCP\AppData\Local\Temp\ccjRb3Rd.s 			page 81


 3925      74697469 
 3925      6F6E7300 
 3926              	.LASF153:
 3927 0285 433A5C55 		.ascii	"C:\\Users\\MattiaCP\\Documents\\GITHUB\\SoftHand-PR"
 3927      73657273 
 3927      5C4D6174 
 3927      74696143 
 3927      505C446F 
 3928 02b3 4F2D5053 		.ascii	"O-PSoC5\\firmware.cydsn\000"
 3928      6F43355C 
 3928      6669726D 
 3928      77617265 
 3928      2E637964 
 3929              	.LASF40:
 3930 02ca 696E7075 		.ascii	"input_mode\000"
 3930      745F6D6F 
 3930      646500
 3931              	.LASF110:
 3932 02d5 706F7331 		.ascii	"pos1\000"
 3932      00
 3933              	.LASF111:
 3934 02da 706F7332 		.ascii	"pos2\000"
 3934      00
 3935              	.LASF104:
 3936 02df 76616C75 		.ascii	"value\000"
 3936      6500
 3937              	.LASF126:
 3938 02e5 72657365 		.ascii	"reset_counters\000"
 3938      745F636F 
 3938      756E7465 
 3938      727300
 3939              	.LASF8:
 3940 02f4 756E7369 		.ascii	"unsigned int\000"
 3940      676E6564 
 3940      20696E74 
 3940      00
 3941              	.LASF25:
 3942 0301 73745F72 		.ascii	"st_ref\000"
 3942      656600
 3943              	.LASF55:
 3944 0308 6D6F746F 		.ascii	"motor_handle_ratio\000"
 3944      725F6861 
 3944      6E646C65 
 3944      5F726174 
 3944      696F00
 3945              	.LASF34:
 3946 031b 6B5F695F 		.ascii	"k_i_dl\000"
 3946      646C00
 3947              	.LASF119:
 3948 0322 63757272 		.ascii	"curr_pos\000"
 3948      5F706F73 
 3948      00
 3949              	.LASF117:
 3950 032b 6162735F 		.ascii	"abs_err_thr\000"
 3950      6572725F 
 3950      74687200 
 3951              	.LASF5:
ARM GAS  C:\Users\MattiaCP\AppData\Local\Temp\ccjRb3Rd.s 			page 82


 3952 0337 6C6F6E67 		.ascii	"long unsigned int\000"
 3952      20756E73 
 3952      69676E65 
 3952      6420696E 
 3952      7400
 3953              	.LASF47:
 3954 0349 6D61785F 		.ascii	"max_step_neg\000"
 3954      73746570 
 3954      5F6E6567 
 3954      00
 3955              	.LASF11:
 3956 0356 75696E74 		.ascii	"uint8\000"
 3956      3800
 3957              	.LASF142:
 3958 035c 6465765F 		.ascii	"dev_tension_f\000"
 3958      74656E73 
 3958      696F6E5F 
 3958      6600
 3959              	.LASF3:
 3960 036a 73686F72 		.ascii	"short unsigned int\000"
 3960      7420756E 
 3960      7369676E 
 3960      65642069 
 3960      6E7400
 3961              	.LASF135:
 3962 037d 675F7265 		.ascii	"g_refNew\000"
 3962      664E6577 
 3962      00
 3963              	.LASF14:
 3964 0386 696E7438 		.ascii	"int8\000"
 3964      00
 3965              	.LASF97:
 3966 038b 76697274 		.ascii	"virtual_pos_friction\000"
 3966      75616C5F 
 3966      706F735F 
 3966      66726963 
 3966      74696F6E 
 3967              	.LASF45:
 3968 03a0 706F735F 		.ascii	"pos_lim_inf\000"
 3968      6C696D5F 
 3968      696E6600 
 3969              	.LASF70:
 3970 03ac 756E7573 		.ascii	"unused_bytes\000"
 3970      65645F62 
 3970      79746573 
 3970      00
 3971              	.LASF59:
 3972 03b9 6D61696E 		.ascii	"maint_day\000"
 3972      745F6461 
 3972      7900
 3973              	.LASF72:
 3974 03c3 706F7369 		.ascii	"position_hist\000"
 3974      74696F6E 
 3974      5F686973 
 3974      7400
 3975              	.LASF150:
 3976 03d1 72657374 		.ascii	"rest_pos_curr_ref\000"
ARM GAS  C:\Users\MattiaCP\AppData\Local\Temp\ccjRb3Rd.s 			page 83


 3976      5F706F73 
 3976      5F637572 
 3976      725F7265 
 3976      6600
 3977              	.LASF139:
 3978 03e3 63616C69 		.ascii	"calib\000"
 3978      6200
 3979              	.LASF81:
 3980 03e9 494D555F 		.ascii	"IMU_conf\000"
 3980      636F6E66 
 3980      00
 3981              	.LASF127:
 3982 03f2 696E7653 		.ascii	"invSqrt\000"
 3982      71727400 
 3983              	.LASF17:
 3984 03fa 666C6F61 		.ascii	"float32\000"
 3984      74333200 
 3985              	.LASF22:
 3986 0402 73697A65 		.ascii	"sizetype\000"
 3986      74797065 
 3986      00
 3987              	.LASF21:
 3988 040b 6C6F6E67 		.ascii	"long double\000"
 3988      20646F75 
 3988      626C6500 
 3989              	.LASF148:
 3990 0417 72657374 		.ascii	"rest_enabled\000"
 3990      5F656E61 
 3990      626C6564 
 3990      00
 3991              	.LASF106:
 3992 0424 64697669 		.ascii	"divisor\000"
 3992      736F7200 
 3993              	.LASF137:
 3994 042c 675F6D65 		.ascii	"g_mem\000"
 3994      6D00
 3995              	.LASF112:
 3996 0432 63616C69 		.ascii	"calibration\000"
 3996      62726174 
 3996      696F6E00 
 3997              	.LASF30:
 3998 043e 6B5F705F 		.ascii	"k_p_c\000"
 3998      6300
 3999              	.LASF62:
 4000 0444 72657374 		.ascii	"rest_pos\000"
 4000      5F706F73 
 4000      00
 4001              	.LASF46:
 4002 044d 706F735F 		.ascii	"pos_lim_sup\000"
 4002      6C696D5F 
 4002      73757000 
 4003              	.LASF73:
 4004 0459 63757272 		.ascii	"current_hist\000"
 4004      656E745F 
 4004      68697374 
 4004      00
 4005              	.LASF78:
ARM GAS  C:\Users\MattiaCP\AppData\Local\Temp\ccjRb3Rd.s 			page 84


 4006 0466 63757272 		.ascii	"curr_time\000"
 4006      5F74696D 
 4006      6500
 4007              	.LASF39:
 4008 0470 61637469 		.ascii	"activ\000"
 4008      7600
 4009              	.LASF52:
 4010 0476 656D675F 		.ascii	"emg_max_value\000"
 4010      6D61785F 
 4010      76616C75 
 4010      6500
 4011              	.LASF115:
 4012 0484 666C6167 		.ascii	"flag_count\000"
 4012      5F636F75 
 4012      6E7400
 4013              	.LASF63:
 4014 048f 72657374 		.ascii	"rest_delay\000"
 4014      5F64656C 
 4014      617900
 4015              	.LASF91:
 4016 049a 52455345 		.ascii	"RESET\000"
 4016      5400
 4017              	.LASF84:
 4018 04a0 6761696E 		.ascii	"gain\000"
 4018      00
 4019              	.LASF10:
 4020 04a5 696E7433 		.ascii	"int32_t\000"
 4020      325F7400 
 4021              	.LASF99:
 4022 04ad 63757272 		.ascii	"curr_estimate\000"
 4022      5F657374 
 4022      696D6174 
 4022      6500
 4023              	.LASF23:
 4024 04bb 63757272 		.ascii	"curr\000"
 4024      00
 4025              	.LASF43:
 4026 04c0 6D5F6D75 		.ascii	"m_mult\000"
 4026      6C7400
 4027              	.LASF145:
 4028 04c7 656D675F 		.ascii	"emg_2_status\000"
 4028      325F7374 
 4028      61747573 
 4028      00
 4029              	.LASF132:
 4030 04d4 76345F6E 		.ascii	"v4_normalize\000"
 4030      6F726D61 
 4030      6C697A65 
 4030      00
 4031              	.LASF82:
 4032 04e1 73745F66 		.ascii	"st_filter\000"
 4032      696C7465 
 4032      7200
 4033              	.LASF75:
 4034 04eb 77697265 		.ascii	"wire_disp\000"
 4034      5F646973 
 4034      7000
ARM GAS  C:\Users\MattiaCP\AppData\Local\Temp\ccjRb3Rd.s 			page 85


 4035              	.LASF29:
 4036 04f5 666C6167 		.ascii	"flag\000"
 4036      00
 4037              	.LASF96:
 4038 04fa 656D675F 		.ascii	"emg_status\000"
 4038      73746174 
 4038      757300
 4039              	.LASF49:
 4040 0505 63757272 		.ascii	"current_limit\000"
 4040      656E745F 
 4040      6C696D69 
 4040      7400
 4041              	.LASF61:
 4042 0513 6D61696E 		.ascii	"maint_year\000"
 4042      745F7965 
 4042      617200
 4043              	.LASF116:
 4044 051e 66697273 		.ascii	"first_time\000"
 4044      745F7469 
 4044      6D6500
 4045              	.LASF85:
 4046 0529 73745F63 		.ascii	"st_calib\000"
 4046      616C6962 
 4046      00
 4047              	.LASF108:
 4048 0532 636F756E 		.ascii	"count_one\000"
 4048      745F6F6E 
 4048      6500
 4049              	.LASF71:
 4050 053c 656D675F 		.ascii	"emg_counter\000"
 4050      636F756E 
 4050      74657200 
 4051              	.LASF44:
 4052 0548 706F735F 		.ascii	"pos_lim_flag\000"
 4052      6C696D5F 
 4052      666C6167 
 4052      00
 4053              	.LASF147:
 4054 0555 6D61696E 		.ascii	"maintenance_flag\000"
 4054      74656E61 
 4054      6E63655F 
 4054      666C6167 
 4054      00
 4055              	.LASF48:
 4056 0566 6D61785F 		.ascii	"max_step_pos\000"
 4056      73746570 
 4056      5F706F73 
 4056      00
 4057              	.LASF86:
 4058 0573 656E6162 		.ascii	"enabled\000"
 4058      6C656400 
 4059              	.LASF74:
 4060 057b 72657374 		.ascii	"rest_counter\000"
 4060      5F636F75 
 4060      6E746572 
 4060      00
 4061              	.LASF141:
ARM GAS  C:\Users\MattiaCP\AppData\Local\Temp\ccjRb3Rd.s 			page 86


 4062 0588 6465765F 		.ascii	"dev_tension\000"
 4062      74656E73 
 4062      696F6E00 
 4063              	.LASF18:
 4064 0594 666C6F61 		.ascii	"float\000"
 4064      7400
 4065              	.LASF56:
 4066 059a 61637469 		.ascii	"activate_pwm_rescaling\000"
 4066      76617465 
 4066      5F70776D 
 4066      5F726573 
 4066      63616C69 
 4067              	.LASF20:
 4068 05b1 63686172 		.ascii	"char\000"
 4068      00
 4069              	.LASF136:
 4070 05b6 675F6D65 		.ascii	"g_meas\000"
 4070      617300
 4071              	.LASF123:
 4072 05bd 6D6F6465 		.ascii	"mode\000"
 4072      00
 4073              	.LASF35:
 4074 05c2 6B5F645F 		.ascii	"k_d_dl\000"
 4074      646C00
 4075              	.LASF152:
 4076 05c9 2E2E5C73 		.ascii	"..\\src\\utils.c\000"
 4076      72635C75 
 4076      74696C73 
 4076      2E6300
 4077              	.LASF9:
 4078 05d8 5F5F696E 		.ascii	"__int32_t\000"
 4078      7433325F 
 4078      7400
 4079              	.LASF37:
 4080 05e2 6B5F695F 		.ascii	"k_i_c_dl\000"
 4080      635F646C 
 4080      00
 4081              	.LASF65:
 4082 05eb 72657374 		.ascii	"rest_position_flag\000"
 4082      5F706F73 
 4082      6974696F 
 4082      6E5F666C 
 4082      616700
 4083              	.LASF31:
 4084 05fe 6B5F695F 		.ascii	"k_i_c\000"
 4084      6300
 4085              	.LASF1:
 4086 0604 756E7369 		.ascii	"unsigned char\000"
 4086      676E6564 
 4086      20636861 
 4086      7200
 4087              	.LASF92:
 4088 0612 44495343 		.ascii	"DISCARD\000"
 4088      41524400 
 4089              	.LASF101:
 4090 061a 66696C74 		.ascii	"filter\000"
 4090      657200
ARM GAS  C:\Users\MattiaCP\AppData\Local\Temp\ccjRb3Rd.s 			page 87


 4091              	.LASF51:
 4092 0621 656D675F 		.ascii	"emg_calibration_flag\000"
 4092      63616C69 
 4092      62726174 
 4092      696F6E5F 
 4092      666C6167 
 4093              	.LASF32:
 4094 0636 6B5F645F 		.ascii	"k_d_c\000"
 4094      6300
 4095              	.LASF66:
 4096 063c 73776974 		.ascii	"switch_emg\000"
 4096      63685F65 
 4096      6D6700
 4097              	.LASF57:
 4098 0647 63757272 		.ascii	"curr_lookup\000"
 4098      5F6C6F6F 
 4098      6B757000 
 4099              	.LASF68:
 4100 0653 72656164 		.ascii	"read_imu_flag\000"
 4100      5F696D75 
 4100      5F666C61 
 4100      6700
 4101              	.LASF103:
 4102 0661 63686563 		.ascii	"check_enc_data\000"
 4102      6B5F656E 
 4102      635F6461 
 4102      746100
 4103              	.LASF95:
 4104 0670 57414954 		.ascii	"WAIT_EoC\000"
 4104      5F456F43 
 4104      00
 4105              	.LASF53:
 4106 0679 656D675F 		.ascii	"emg_speed\000"
 4106      73706565 
 4106      6400
 4107              	.LASF113:
 4108 0683 63686563 		.ascii	"check_rest_position\000"
 4108      6B5F7265 
 4108      73745F70 
 4108      6F736974 
 4108      696F6E00 
 4109              	.LASF38:
 4110 0697 6B5F645F 		.ascii	"k_d_c_dl\000"
 4110      635F646C 
 4110      00
 4111              	.LASF94:
 4112 06a0 57414954 		.ascii	"WAIT\000"
 4112      00
 4113              	.LASF129:
 4114 06a5 76335F6E 		.ascii	"v3_normalize\000"
 4114      6F726D61 
 4114      6C697A65 
 4114      00
 4115              	.LASF15:
 4116 06b2 696E7431 		.ascii	"int16\000"
 4116      3600
 4117              	.LASF69:
ARM GAS  C:\Users\MattiaCP\AppData\Local\Temp\ccjRb3Rd.s 			page 88


 4118 06b8 72656164 		.ascii	"read_exp_port_flag\000"
 4118      5F657870 
 4118      5F706F72 
 4118      745F666C 
 4118      616700
 4119              	.LASF88:
 4120 06cb 73706565 		.ascii	"speed\000"
 4120      6400
 4121              	.LASF121:
 4122 06d1 72657374 		.ascii	"rest_vel_ticks_ms\000"
 4122      5F76656C 
 4122      5F746963 
 4122      6B735F6D 
 4122      7300
 4123              	.LASF77:
 4124 06e3 746F7461 		.ascii	"total_time_rest\000"
 4124      6C5F7469 
 4124      6D655F72 
 4124      65737400 
 4125              	.LASF54:
 4126 06f3 646F7562 		.ascii	"double_encoder_on_off\000"
 4126      6C655F65 
 4126      6E636F64 
 4126      65725F6F 
 4126      6E5F6F66 
 4127              	.LASF144:
 4128 0709 656D675F 		.ascii	"emg_1_status\000"
 4128      315F7374 
 4128      61747573 
 4128      00
 4129              	.LASF109:
 4130 0716 63616C63 		.ascii	"calc_turns_fcn\000"
 4130      5F747572 
 4130      6E735F66 
 4130      636E00
 4131              	.LASF28:
 4132 0725 73745F6D 		.ascii	"st_mem\000"
 4132      656D00
 4133              	.LASF19:
 4134 072c 646F7562 		.ascii	"double\000"
 4134      6C6500
 4135              	.LASF33:
 4136 0733 6B5F705F 		.ascii	"k_p_dl\000"
 4136      646C00
 4137              		.ident	"GCC: (GNU Tools for ARM Embedded Processors) 5.4.1 20160609 (release) [ARM/embedded-5-bran
