ARM GAS  C:\Users\MattiaCP\AppData\Local\Temp\ccjRb3Rd.s 			page 1


   1              		.syntax unified
   2              		.cpu cortex-m3
   3              		.fpu softvfp
   4              		.eabi_attribute 20, 1
   5              		.eabi_attribute 21, 1
   6              		.eabi_attribute 23, 3
   7              		.eabi_attribute 24, 1
   8              		.eabi_attribute 25, 1
   9              		.eabi_attribute 26, 1
  10              		.eabi_attribute 30, 6
  11              		.eabi_attribute 34, 1
  12              		.eabi_attribute 18, 4
  13              		.thumb
  14              		.syntax unified
  15              		.file	"utils.c"
  16              		.text
  17              	.Ltext0:
  18              		.cfi_sections	.debug_frame
  19              		.global	__aeabi_i2f
  20              		.global	__aeabi_fmul
  21              		.global	__aeabi_fadd
  22              		.global	__aeabi_fdiv
  23              		.global	__aeabi_f2iz
  24              		.section	.text.curr_estim,"ax",%progbits
  25              		.align	2
  26              		.global	curr_estim
  27              		.thumb
  28              		.thumb_func
  29              		.type	curr_estim, %function
  30              	curr_estim:
  31              	.LFB64:
  32              		.file 1 "..\\src\\utils.c"
   1:..\src/utils.c **** // ----------------------------------------------------------------------------
   2:..\src/utils.c **** // BSD 3-Clause License
   3:..\src/utils.c **** 
   4:..\src/utils.c **** // Copyright (c) 2016, qbrobotics
   5:..\src/utils.c **** // Copyright (c) 2017-2019, Centro "E.Piaggio"
   6:..\src/utils.c **** // All rights reserved.
   7:..\src/utils.c **** 
   8:..\src/utils.c **** // Redistribution and use in source and binary forms, with or without
   9:..\src/utils.c **** // modification, are permitted provided that the following conditions are met:
  10:..\src/utils.c **** 
  11:..\src/utils.c **** // * Redistributions of source code must retain the above copyright notice, this
  12:..\src/utils.c **** //   list of conditions and the following disclaimer.
  13:..\src/utils.c **** 
  14:..\src/utils.c **** // * Redistributions in binary form must reproduce the above copyright notice,
  15:..\src/utils.c **** //   this list of conditions and the following disclaimer in the documentation
  16:..\src/utils.c **** //   and/or other materials provided with the distribution.
  17:..\src/utils.c **** 
  18:..\src/utils.c **** // * Neither the name of the copyright holder nor the names of its
  19:..\src/utils.c **** //   contributors may be used to endorse or promote products derived from
  20:..\src/utils.c **** //   this software without specific prior written permission.
  21:..\src/utils.c **** 
  22:..\src/utils.c **** // THIS SOFTWARE IS PROVIDED BY THE COPYRIGHT HOLDERS AND CONTRIBUTORS "AS IS"
  23:..\src/utils.c **** // AND ANY EXPRESS OR IMPLIED WARRANTIES, INCLUDING, BUT NOT LIMITED TO, THE
  24:..\src/utils.c **** // IMPLIED WARRANTIES OF MERCHANTABILITY AND FITNESS FOR A PARTICULAR PURPOSE ARE
  25:..\src/utils.c **** // DISCLAIMED. IN NO EVENT SHALL THE COPYRIGHT HOLDER OR CONTRIBUTORS BE LIABLE
ARM GAS  C:\Users\MattiaCP\AppData\Local\Temp\ccjRb3Rd.s 			page 2


  26:..\src/utils.c **** // FOR ANY DIRECT, INDIRECT, INCIDENTAL, SPECIAL, EXEMPLARY, OR CONSEQUENTIAL
  27:..\src/utils.c **** // DAMAGES (INCLUDING, BUT NOT LIMITED TO, PROCUREMENT OF SUBSTITUTE GOODS OR
  28:..\src/utils.c **** // SERVICES; LOSS OF USE, DATA, OR PROFITS; OR BUSINESS INTERRUPTION) HOWEVER
  29:..\src/utils.c **** // CAUSED AND ON ANY THEORY OF LIABILITY, WHETHER IN CONTRACT, STRICT LIABILITY,
  30:..\src/utils.c **** // OR TORT (INCLUDING NEGLIGENCE OR OTHERWISE) ARISING IN ANY WAY OUT OF THE USE
  31:..\src/utils.c **** // OF THIS SOFTWARE, EVEN IF ADVISED OF THE POSSIBILITY OF SUCH DAMAGE.
  32:..\src/utils.c **** // POSSIBILITY OF SUCH DAMAGE.
  33:..\src/utils.c **** // ----------------------------------------------------------------------------
  34:..\src/utils.c **** 
  35:..\src/utils.c **** /**
  36:..\src/utils.c **** * \file         utils.c
  37:..\src/utils.c **** *
  38:..\src/utils.c **** * \brief        Definition of utility functions.
  39:..\src/utils.c **** * \date         October 01, 2017
  40:..\src/utils.c **** * \author       _Centro "E.Piaggio"_
  41:..\src/utils.c **** * \copyright    (C) 2012-2016 qbrobotics. All rights reserved.
  42:..\src/utils.c **** * \copyright    (C) 2017-2019 Centro "E.Piaggio". All rights reserved.
  43:..\src/utils.c **** */
  44:..\src/utils.c **** 
  45:..\src/utils.c **** #include "utils.h"
  46:..\src/utils.c **** #include <math.h>
  47:..\src/utils.c **** 
  48:..\src/utils.c **** //==============================================================================
  49:..\src/utils.c **** //                                                            Current Estimation
  50:..\src/utils.c **** //==============================================================================
  51:..\src/utils.c **** 
  52:..\src/utils.c **** int32 curr_estim ( int32 pos, int32 vel, int32 ref ) {
  33              		.loc 1 52 0
  34              		.cfi_startproc
  35              		@ args = 0, pretend = 0, frame = 24
  36              		@ frame_needed = 1, uses_anonymous_args = 0
  37 0000 B0B5     		push	{r4, r5, r7, lr}
  38              		.cfi_def_cfa_offset 16
  39              		.cfi_offset 4, -16
  40              		.cfi_offset 5, -12
  41              		.cfi_offset 7, -8
  42              		.cfi_offset 14, -4
  43 0002 86B0     		sub	sp, sp, #24
  44              		.cfi_def_cfa_offset 40
  45 0004 00AF     		add	r7, sp, #0
  46              		.cfi_def_cfa_register 7
  47 0006 F860     		str	r0, [r7, #12]
  48 0008 B960     		str	r1, [r7, #8]
  49 000a 7A60     		str	r2, [r7, #4]
  53:..\src/utils.c **** 
  54:..\src/utils.c ****         static int32 virtual_pos_friction; 	// Virtual position used to estimate friction.
  55:..\src/utils.c ****         static int32 err_pos_dt;			// Temporal evolution of error position.
  56:..\src/utils.c **** 											// Needed to model the current transients due to reference steps.
  57:..\src/utils.c ****         int32 curr_estimate;
  58:..\src/utils.c **** 
  59:..\src/utils.c ****         if (pos < ZERO_TOL) 
  50              		.loc 1 59 0
  51 000c FB68     		ldr	r3, [r7, #12]
  52 000e 632B     		cmp	r3, #99
  53 0010 03DC     		bgt	.L2
  60:..\src/utils.c **** 			virtual_pos_friction = pos;
  54              		.loc 1 60 0
ARM GAS  C:\Users\MattiaCP\AppData\Local\Temp\ccjRb3Rd.s 			page 3


  55 0012 694A     		ldr	r2, .L9
  56 0014 FB68     		ldr	r3, [r7, #12]
  57 0016 1360     		str	r3, [r2]
  58 0018 15E0     		b	.L3
  59              	.L2:
  61:..\src/utils.c ****         else {
  62:..\src/utils.c **** 			if ((pos - virtual_pos_friction) > ZMAX) 
  60              		.loc 1 62 0
  61 001a 674B     		ldr	r3, .L9
  62 001c 1B68     		ldr	r3, [r3]
  63 001e FA68     		ldr	r2, [r7, #12]
  64 0020 D31A     		subs	r3, r2, r3
  65 0022 052B     		cmp	r3, #5
  66 0024 04DD     		ble	.L4
  63:..\src/utils.c **** 				virtual_pos_friction =  pos - ZMAX;
  67              		.loc 1 63 0
  68 0026 FB68     		ldr	r3, [r7, #12]
  69 0028 053B     		subs	r3, r3, #5
  70 002a 634A     		ldr	r2, .L9
  71 002c 1360     		str	r3, [r2]
  72 002e 0AE0     		b	.L3
  73              	.L4:
  64:..\src/utils.c ****         	else { 
  65:..\src/utils.c **** 				if ((pos - virtual_pos_friction) < -ZMAX) 
  74              		.loc 1 65 0
  75 0030 614B     		ldr	r3, .L9
  76 0032 1B68     		ldr	r3, [r3]
  77 0034 FA68     		ldr	r2, [r7, #12]
  78 0036 D31A     		subs	r3, r2, r3
  79 0038 13F1050F 		cmn	r3, #5
  80 003c 03DA     		bge	.L3
  66:..\src/utils.c **** 					virtual_pos_friction =  pos + ZMAX;
  81              		.loc 1 66 0
  82 003e FB68     		ldr	r3, [r7, #12]
  83 0040 0533     		adds	r3, r3, #5
  84 0042 5D4A     		ldr	r2, .L9
  85 0044 1360     		str	r3, [r2]
  86              	.L3:
  67:..\src/utils.c **** 			}
  68:..\src/utils.c **** 		}        
  69:..\src/utils.c ****        
  70:..\src/utils.c ****         curr_estimate = pos * g_mem.curr_lookup[0] * (1 + pos * g_mem.curr_lookup[1]) + (pos - virt
  87              		.loc 1 70 0
  88 0046 F868     		ldr	r0, [r7, #12]
  89 0048 FFF7FEFF 		bl	__aeabi_i2f
  90 004c 0246     		mov	r2, r0
  91 004e 5B4B     		ldr	r3, .L9+4
  92 0050 DB6F     		ldr	r3, [r3, #124]	@ float
  93 0052 1946     		mov	r1, r3
  94 0054 1046     		mov	r0, r2
  95 0056 FFF7FEFF 		bl	__aeabi_fmul
  96 005a 0346     		mov	r3, r0
  97 005c 1C46     		mov	r4, r3
  98 005e F868     		ldr	r0, [r7, #12]
  99 0060 FFF7FEFF 		bl	__aeabi_i2f
 100 0064 0246     		mov	r2, r0
 101 0066 554B     		ldr	r3, .L9+4
ARM GAS  C:\Users\MattiaCP\AppData\Local\Temp\ccjRb3Rd.s 			page 4


 102 0068 D3F88030 		ldr	r3, [r3, #128]	@ float
 103 006c 1946     		mov	r1, r3
 104 006e 1046     		mov	r0, r2
 105 0070 FFF7FEFF 		bl	__aeabi_fmul
 106 0074 0346     		mov	r3, r0
 107 0076 4FF07E51 		mov	r1, #1065353216
 108 007a 1846     		mov	r0, r3
 109 007c FFF7FEFF 		bl	__aeabi_fadd
 110 0080 0346     		mov	r3, r0
 111 0082 1946     		mov	r1, r3
 112 0084 2046     		mov	r0, r4
 113 0086 FFF7FEFF 		bl	__aeabi_fmul
 114 008a 0346     		mov	r3, r0
 115 008c 1C46     		mov	r4, r3
 116 008e 4A4B     		ldr	r3, .L9
 117 0090 1B68     		ldr	r3, [r3]
 118 0092 FA68     		ldr	r2, [r7, #12]
 119 0094 D31A     		subs	r3, r2, r3
 120 0096 1846     		mov	r0, r3
 121 0098 FFF7FEFF 		bl	__aeabi_i2f
 122 009c 0546     		mov	r5, r0
 123 009e 474B     		ldr	r3, .L9+4
 124 00a0 D3F88430 		ldr	r3, [r3, #132]	@ float
 125 00a4 4649     		ldr	r1, .L9+8
 126 00a6 1846     		mov	r0, r3
 127 00a8 FFF7FEFF 		bl	__aeabi_fdiv
 128 00ac 0346     		mov	r3, r0
 129 00ae 1946     		mov	r1, r3
 130 00b0 2846     		mov	r0, r5
 131 00b2 FFF7FEFF 		bl	__aeabi_fmul
 132 00b6 0346     		mov	r3, r0
 133 00b8 1946     		mov	r1, r3
 134 00ba 2046     		mov	r0, r4
 135 00bc FFF7FEFF 		bl	__aeabi_fadd
 136 00c0 0346     		mov	r3, r0
 137 00c2 1C46     		mov	r4, r3
 138 00c4 B868     		ldr	r0, [r7, #8]
 139 00c6 FFF7FEFF 		bl	__aeabi_i2f
 140 00ca 0246     		mov	r2, r0
 141 00cc 3B4B     		ldr	r3, .L9+4
 142 00ce D3F88830 		ldr	r3, [r3, #136]	@ float
 143 00d2 1946     		mov	r1, r3
 144 00d4 1046     		mov	r0, r2
 145 00d6 FFF7FEFF 		bl	__aeabi_fmul
 146 00da 0346     		mov	r3, r0
 147 00dc 1D46     		mov	r5, r3
 148 00de BB68     		ldr	r3, [r7, #8]
 149 00e0 002B     		cmp	r3, #0
 150 00e2 B8BF     		it	lt
 151 00e4 5B42     		rsblt	r3, r3, #0
 152 00e6 1846     		mov	r0, r3
 153 00e8 FFF7FEFF 		bl	__aeabi_i2f
 154 00ec 0246     		mov	r2, r0
 155 00ee 334B     		ldr	r3, .L9+4
 156 00f0 D3F88C30 		ldr	r3, [r3, #140]	@ float
 157 00f4 1946     		mov	r1, r3
 158 00f6 1046     		mov	r0, r2
ARM GAS  C:\Users\MattiaCP\AppData\Local\Temp\ccjRb3Rd.s 			page 5


 159 00f8 FFF7FEFF 		bl	__aeabi_fmul
 160 00fc 0346     		mov	r3, r0
 161 00fe 4FF07E51 		mov	r1, #1065353216
 162 0102 1846     		mov	r0, r3
 163 0104 FFF7FEFF 		bl	__aeabi_fadd
 164 0108 0346     		mov	r3, r0
 165 010a 1946     		mov	r1, r3
 166 010c 2846     		mov	r0, r5
 167 010e FFF7FEFF 		bl	__aeabi_fmul
 168 0112 0346     		mov	r3, r0
 169 0114 1946     		mov	r1, r3
 170 0116 2046     		mov	r0, r4
 171 0118 FFF7FEFF 		bl	__aeabi_fadd
 172 011c 0346     		mov	r3, r0
 173 011e 1C46     		mov	r4, r3
 174 0120 284B     		ldr	r3, .L9+12
 175 0122 1B68     		ldr	r3, [r3]
 176 0124 7A68     		ldr	r2, [r7, #4]
 177 0126 D31A     		subs	r3, r2, r3
 178 0128 1846     		mov	r0, r3
 179 012a FFF7FEFF 		bl	__aeabi_i2f
 180 012e 0246     		mov	r2, r0
 181 0130 224B     		ldr	r3, .L9+4
 182 0132 D3F89030 		ldr	r3, [r3, #144]	@ float
 183 0136 1946     		mov	r1, r3
 184 0138 1046     		mov	r0, r2
 185 013a FFF7FEFF 		bl	__aeabi_fmul
 186 013e 0346     		mov	r3, r0
 187 0140 1946     		mov	r1, r3
 188 0142 2046     		mov	r0, r4
 189 0144 FFF7FEFF 		bl	__aeabi_fadd
 190 0148 0346     		mov	r3, r0
 191 014a 1846     		mov	r0, r3
 192 014c FFF7FEFF 		bl	__aeabi_f2iz
 193 0150 0346     		mov	r3, r0
 194 0152 7B61     		str	r3, [r7, #20]
  71:..\src/utils.c ****         
  72:..\src/utils.c ****         if (curr_estimate > c_mem.current_limit) 
 195              		.loc 1 72 0
 196 0154 1C4B     		ldr	r3, .L9+16
 197 0156 B3F96830 		ldrsh	r3, [r3, #104]
 198 015a 1A46     		mov	r2, r3
 199 015c 7B69     		ldr	r3, [r7, #20]
 200 015e 9A42     		cmp	r2, r3
 201 0160 04DA     		bge	.L5
  73:..\src/utils.c ****             curr_estimate = c_mem.current_limit;
 202              		.loc 1 73 0
 203 0162 194B     		ldr	r3, .L9+16
 204 0164 B3F96830 		ldrsh	r3, [r3, #104]
 205 0168 7B61     		str	r3, [r7, #20]
 206 016a 0BE0     		b	.L6
 207              	.L5:
  74:..\src/utils.c ****         else {
  75:..\src/utils.c **** 			if (curr_estimate < -c_mem.current_limit)
 208              		.loc 1 75 0
 209 016c 164B     		ldr	r3, .L9+16
 210 016e B3F96830 		ldrsh	r3, [r3, #104]
ARM GAS  C:\Users\MattiaCP\AppData\Local\Temp\ccjRb3Rd.s 			page 6


 211 0172 5A42     		negs	r2, r3
 212 0174 7B69     		ldr	r3, [r7, #20]
 213 0176 9A42     		cmp	r2, r3
 214 0178 04DD     		ble	.L6
  76:..\src/utils.c ****             	curr_estimate = -c_mem.current_limit;
 215              		.loc 1 76 0
 216 017a 134B     		ldr	r3, .L9+16
 217 017c B3F96830 		ldrsh	r3, [r3, #104]
 218 0180 5B42     		negs	r3, r3
 219 0182 7B61     		str	r3, [r7, #20]
 220              	.L6:
  77:..\src/utils.c **** 		}
  78:..\src/utils.c **** 
  79:..\src/utils.c ****         err_pos_dt = (REFSPEED * ref + (1024 - REFSPEED) * err_pos_dt) / 1024;         
 221              		.loc 1 79 0
 222 0184 7A68     		ldr	r2, [r7, #4]
 223 0186 1346     		mov	r3, r2
 224 0188 9B00     		lsls	r3, r3, #2
 225 018a 1344     		add	r3, r3, r2
 226 018c 9B00     		lsls	r3, r3, #2
 227 018e 1946     		mov	r1, r3
 228 0190 0C4B     		ldr	r3, .L9+12
 229 0192 1B68     		ldr	r3, [r3]
 230 0194 4FF47B72 		mov	r2, #1004
 231 0198 02FB03F3 		mul	r3, r2, r3
 232 019c 0B44     		add	r3, r3, r1
 233 019e 002B     		cmp	r3, #0
 234 01a0 01DA     		bge	.L7
 235 01a2 03F2FF33 		addw	r3, r3, #1023
 236              	.L7:
 237 01a6 9B12     		asrs	r3, r3, #10
 238 01a8 1A46     		mov	r2, r3
 239 01aa 064B     		ldr	r3, .L9+12
 240 01ac 1A60     		str	r2, [r3]
  80:..\src/utils.c ****         
  81:..\src/utils.c ****         return curr_estimate;        
 241              		.loc 1 81 0
 242 01ae 7B69     		ldr	r3, [r7, #20]
  82:..\src/utils.c **** }
 243              		.loc 1 82 0
 244 01b0 1846     		mov	r0, r3
 245 01b2 1837     		adds	r7, r7, #24
 246              		.cfi_def_cfa_offset 16
 247 01b4 BD46     		mov	sp, r7
 248              		.cfi_def_cfa_register 13
 249              		@ sp needed
 250 01b6 B0BD     		pop	{r4, r5, r7, pc}
 251              	.L10:
 252              		.align	2
 253              	.L9:
 254 01b8 00000000 		.word	virtual_pos_friction.9935
 255 01bc 00000000 		.word	g_mem
 256 01c0 0000A040 		.word	1084227584
 257 01c4 04000000 		.word	err_pos_dt.9936
 258 01c8 00000000 		.word	c_mem
 259              		.cfi_endproc
 260              	.LFE64:
ARM GAS  C:\Users\MattiaCP\AppData\Local\Temp\ccjRb3Rd.s 			page 7


 261              		.size	curr_estim, .-curr_estim
 262              		.section	.text.filter,"ax",%progbits
 263              		.align	2
 264              		.global	filter
 265              		.thumb
 266              		.thumb_func
 267              		.type	filter, %function
 268              	filter:
 269              	.LFB65:
  83:..\src/utils.c **** 
  84:..\src/utils.c **** //==============================================================================
  85:..\src/utils.c **** //                                                                General filter
  86:..\src/utils.c **** //==============================================================================
  87:..\src/utils.c **** int32 filter(int32 new_value, struct st_filter *f) {
 270              		.loc 1 87 0
 271              		.cfi_startproc
 272              		@ args = 0, pretend = 0, frame = 16
 273              		@ frame_needed = 1, uses_anonymous_args = 0
 274              		@ link register save eliminated.
 275 0000 80B4     		push	{r7}
 276              		.cfi_def_cfa_offset 4
 277              		.cfi_offset 7, -4
 278 0002 85B0     		sub	sp, sp, #20
 279              		.cfi_def_cfa_offset 24
 280 0004 00AF     		add	r7, sp, #0
 281              		.cfi_def_cfa_register 7
 282 0006 7860     		str	r0, [r7, #4]
 283 0008 3960     		str	r1, [r7]
  88:..\src/utils.c **** 
  89:..\src/utils.c ****     int32 aux;
  90:..\src/utils.c **** 
  91:..\src/utils.c ****     aux = (f->old_value * (1024 - f->gain) + (new_value << 6) * (f->gain)) /1024;
 284              		.loc 1 91 0
 285 000a 3B68     		ldr	r3, [r7]
 286 000c 1B68     		ldr	r3, [r3]
 287 000e 3A68     		ldr	r2, [r7]
 288 0010 5268     		ldr	r2, [r2, #4]
 289 0012 C2F58062 		rsb	r2, r2, #1024
 290 0016 02FB03F2 		mul	r2, r2, r3
 291 001a 7B68     		ldr	r3, [r7, #4]
 292 001c 9B01     		lsls	r3, r3, #6
 293 001e 3968     		ldr	r1, [r7]
 294 0020 4968     		ldr	r1, [r1, #4]
 295 0022 01FB03F3 		mul	r3, r1, r3
 296 0026 1344     		add	r3, r3, r2
 297 0028 002B     		cmp	r3, #0
 298 002a 01DA     		bge	.L12
 299 002c 03F2FF33 		addw	r3, r3, #1023
 300              	.L12:
 301 0030 9B12     		asrs	r3, r3, #10
 302 0032 FB60     		str	r3, [r7, #12]
  92:..\src/utils.c **** 
  93:..\src/utils.c ****     f->old_value = aux;
 303              		.loc 1 93 0
 304 0034 3B68     		ldr	r3, [r7]
 305 0036 FA68     		ldr	r2, [r7, #12]
 306 0038 1A60     		str	r2, [r3]
ARM GAS  C:\Users\MattiaCP\AppData\Local\Temp\ccjRb3Rd.s 			page 8


  94:..\src/utils.c **** 
  95:..\src/utils.c ****     return (aux / 64);
 307              		.loc 1 95 0
 308 003a FB68     		ldr	r3, [r7, #12]
 309 003c 002B     		cmp	r3, #0
 310 003e 00DA     		bge	.L13
 311 0040 3F33     		adds	r3, r3, #63
 312              	.L13:
 313 0042 9B11     		asrs	r3, r3, #6
  96:..\src/utils.c **** }
 314              		.loc 1 96 0
 315 0044 1846     		mov	r0, r3
 316 0046 1437     		adds	r7, r7, #20
 317              		.cfi_def_cfa_offset 4
 318 0048 BD46     		mov	sp, r7
 319              		.cfi_def_cfa_register 13
 320              		@ sp needed
 321 004a 80BC     		pop	{r7}
 322              		.cfi_restore 7
 323              		.cfi_def_cfa_offset 0
 324 004c 7047     		bx	lr
 325              		.cfi_endproc
 326              	.LFE65:
 327              		.size	filter, .-filter
 328 004e 00BF     		.section	.text.check_enc_data,"ax",%progbits
 329              		.align	2
 330              		.global	check_enc_data
 331              		.thumb
 332              		.thumb_func
 333              		.type	check_enc_data, %function
 334              	check_enc_data:
 335              	.LFB66:
  97:..\src/utils.c **** 
  98:..\src/utils.c **** //==============================================================================
  99:..\src/utils.c **** //                                                                CHECK ENC DATA
 100:..\src/utils.c **** //==============================================================================
 101:..\src/utils.c **** 
 102:..\src/utils.c **** // Returns 1 if the encoder data is correct, 0 otherwise
 103:..\src/utils.c **** 
 104:..\src/utils.c **** CYBIT check_enc_data(const uint32 *value) {
 336              		.loc 1 104 0
 337              		.cfi_startproc
 338              		@ args = 0, pretend = 0, frame = 16
 339              		@ frame_needed = 1, uses_anonymous_args = 0
 340              		@ link register save eliminated.
 341 0000 80B4     		push	{r7}
 342              		.cfi_def_cfa_offset 4
 343              		.cfi_offset 7, -4
 344 0002 85B0     		sub	sp, sp, #20
 345              		.cfi_def_cfa_offset 24
 346 0004 00AF     		add	r7, sp, #0
 347              		.cfi_def_cfa_register 7
 348 0006 7860     		str	r0, [r7, #4]
 105:..\src/utils.c **** 
 106:..\src/utils.c ****     const uint8* CYIDATA p = (const uint8*)value;
 349              		.loc 1 106 0
 350 0008 7B68     		ldr	r3, [r7, #4]
ARM GAS  C:\Users\MattiaCP\AppData\Local\Temp\ccjRb3Rd.s 			page 9


 351 000a FB60     		str	r3, [r7, #12]
 107:..\src/utils.c ****     uint8 CYDATA a = *p;
 352              		.loc 1 107 0
 353 000c FB68     		ldr	r3, [r7, #12]
 354 000e 1B78     		ldrb	r3, [r3]
 355 0010 FB72     		strb	r3, [r7, #11]
 108:..\src/utils.c **** 
 109:..\src/utils.c ****     a = a ^ *(++p);
 356              		.loc 1 109 0
 357 0012 FB68     		ldr	r3, [r7, #12]
 358 0014 0133     		adds	r3, r3, #1
 359 0016 FB60     		str	r3, [r7, #12]
 360 0018 FB68     		ldr	r3, [r7, #12]
 361 001a 1A78     		ldrb	r2, [r3]	@ zero_extendqisi2
 362 001c FB7A     		ldrb	r3, [r7, #11]
 363 001e 5340     		eors	r3, r3, r2
 364 0020 FB72     		strb	r3, [r7, #11]
 110:..\src/utils.c ****     a = a ^ *(++p);
 365              		.loc 1 110 0
 366 0022 FB68     		ldr	r3, [r7, #12]
 367 0024 0133     		adds	r3, r3, #1
 368 0026 FB60     		str	r3, [r7, #12]
 369 0028 FB68     		ldr	r3, [r7, #12]
 370 002a 1A78     		ldrb	r2, [r3]	@ zero_extendqisi2
 371 002c FB7A     		ldrb	r3, [r7, #11]
 372 002e 5340     		eors	r3, r3, r2
 373 0030 FB72     		strb	r3, [r7, #11]
 111:..\src/utils.c ****     a = a ^ *(++p);
 374              		.loc 1 111 0
 375 0032 FB68     		ldr	r3, [r7, #12]
 376 0034 0133     		adds	r3, r3, #1
 377 0036 FB60     		str	r3, [r7, #12]
 378 0038 FB68     		ldr	r3, [r7, #12]
 379 003a 1A78     		ldrb	r2, [r3]	@ zero_extendqisi2
 380 003c FB7A     		ldrb	r3, [r7, #11]
 381 003e 5340     		eors	r3, r3, r2
 382 0040 FB72     		strb	r3, [r7, #11]
 112:..\src/utils.c ****     a = (a & 0x0F) ^ (a>>4);
 383              		.loc 1 112 0
 384 0042 97F90B30 		ldrsb	r3, [r7, #11]
 385 0046 03F00F03 		and	r3, r3, #15
 386 004a 5AB2     		sxtb	r2, r3
 387 004c FB7A     		ldrb	r3, [r7, #11]	@ zero_extendqisi2
 388 004e 1B09     		lsrs	r3, r3, #4
 389 0050 DBB2     		uxtb	r3, r3
 390 0052 5BB2     		sxtb	r3, r3
 391 0054 5340     		eors	r3, r3, r2
 392 0056 5BB2     		sxtb	r3, r3
 393 0058 FB72     		strb	r3, [r7, #11]
 113:..\src/utils.c **** 
 114:..\src/utils.c ****     return (0x9669 >> a) & 0x01;
 394              		.loc 1 114 0
 395 005a FB7A     		ldrb	r3, [r7, #11]	@ zero_extendqisi2
 396 005c 49F26962 		movw	r2, #38505
 397 0060 42FA03F3 		asr	r3, r2, r3
 398 0064 DBB2     		uxtb	r3, r3
 399 0066 03F00103 		and	r3, r3, #1
ARM GAS  C:\Users\MattiaCP\AppData\Local\Temp\ccjRb3Rd.s 			page 10


 400 006a DBB2     		uxtb	r3, r3
 115:..\src/utils.c ****     //0x9669 is a bit vector representing the !(bitwise XOR) of 4bits
 116:..\src/utils.c **** }
 401              		.loc 1 116 0
 402 006c 1846     		mov	r0, r3
 403 006e 1437     		adds	r7, r7, #20
 404              		.cfi_def_cfa_offset 4
 405 0070 BD46     		mov	sp, r7
 406              		.cfi_def_cfa_register 13
 407              		@ sp needed
 408 0072 80BC     		pop	{r7}
 409              		.cfi_restore 7
 410              		.cfi_def_cfa_offset 0
 411 0074 7047     		bx	lr
 412              		.cfi_endproc
 413              	.LFE66:
 414              		.size	check_enc_data, .-check_enc_data
 415 0076 00BF     		.section	.text.my_mod,"ax",%progbits
 416              		.align	2
 417              		.global	my_mod
 418              		.thumb
 419              		.thumb_func
 420              		.type	my_mod, %function
 421              	my_mod:
 422              	.LFB67:
 117:..\src/utils.c **** 
 118:..\src/utils.c **** //==============================================================================
 119:..\src/utils.c **** //                                                                        MODULE
 120:..\src/utils.c **** //==============================================================================
 121:..\src/utils.c **** 
 122:..\src/utils.c **** uint32 my_mod(int32 val, int32 divisor) {
 423              		.loc 1 122 0
 424              		.cfi_startproc
 425              		@ args = 0, pretend = 0, frame = 8
 426              		@ frame_needed = 1, uses_anonymous_args = 0
 427              		@ link register save eliminated.
 428 0000 80B4     		push	{r7}
 429              		.cfi_def_cfa_offset 4
 430              		.cfi_offset 7, -4
 431 0002 83B0     		sub	sp, sp, #12
 432              		.cfi_def_cfa_offset 16
 433 0004 00AF     		add	r7, sp, #0
 434              		.cfi_def_cfa_register 7
 435 0006 7860     		str	r0, [r7, #4]
 436 0008 3960     		str	r1, [r7]
 123:..\src/utils.c **** 
 124:..\src/utils.c ****     if (val >= 0) {
 437              		.loc 1 124 0
 438 000a 7B68     		ldr	r3, [r7, #4]
 439 000c 002B     		cmp	r3, #0
 440 000e 08DB     		blt	.L18
 125:..\src/utils.c ****         return (int32)(val % divisor);
 441              		.loc 1 125 0
 442 0010 7B68     		ldr	r3, [r7, #4]
 443 0012 3A68     		ldr	r2, [r7]
 444 0014 93FBF2F2 		sdiv	r2, r3, r2
 445 0018 3968     		ldr	r1, [r7]
ARM GAS  C:\Users\MattiaCP\AppData\Local\Temp\ccjRb3Rd.s 			page 11


 446 001a 01FB02F2 		mul	r2, r1, r2
 447 001e 9B1A     		subs	r3, r3, r2
 448 0020 11E0     		b	.L19
 449              	.L18:
 126:..\src/utils.c ****     } else {
 127:..\src/utils.c ****         return (int32)((divisor - (-val % divisor)) % divisor);
 450              		.loc 1 127 0
 451 0022 7B68     		ldr	r3, [r7, #4]
 452 0024 5B42     		negs	r3, r3
 453 0026 3A68     		ldr	r2, [r7]
 454 0028 93FBF2F2 		sdiv	r2, r3, r2
 455 002c 3968     		ldr	r1, [r7]
 456 002e 01FB02F2 		mul	r2, r1, r2
 457 0032 9B1A     		subs	r3, r3, r2
 458 0034 3A68     		ldr	r2, [r7]
 459 0036 D31A     		subs	r3, r2, r3
 460 0038 3A68     		ldr	r2, [r7]
 461 003a 93FBF2F2 		sdiv	r2, r3, r2
 462 003e 3968     		ldr	r1, [r7]
 463 0040 01FB02F2 		mul	r2, r1, r2
 464 0044 9B1A     		subs	r3, r3, r2
 465              	.L19:
 128:..\src/utils.c ****     }
 129:..\src/utils.c **** }
 466              		.loc 1 129 0
 467 0046 1846     		mov	r0, r3
 468 0048 0C37     		adds	r7, r7, #12
 469              		.cfi_def_cfa_offset 4
 470 004a BD46     		mov	sp, r7
 471              		.cfi_def_cfa_register 13
 472              		@ sp needed
 473 004c 80BC     		pop	{r7}
 474              		.cfi_restore 7
 475              		.cfi_def_cfa_offset 0
 476 004e 7047     		bx	lr
 477              		.cfi_endproc
 478              	.LFE67:
 479              		.size	my_mod, .-my_mod
 480              		.section	.text.calibration,"ax",%progbits
 481              		.align	2
 482              		.global	calibration
 483              		.thumb
 484              		.thumb_func
 485              		.type	calibration, %function
 486              	calibration:
 487              	.LFB68:
 130:..\src/utils.c **** 
 131:..\src/utils.c **** 
 132:..\src/utils.c **** //==============================================================================
 133:..\src/utils.c **** //                                                                     CALIBRATE
 134:..\src/utils.c **** //==============================================================================
 135:..\src/utils.c **** 
 136:..\src/utils.c **** void calibration(void) {
 488              		.loc 1 136 0
 489              		.cfi_startproc
 490              		@ args = 0, pretend = 0, frame = 0
 491              		@ frame_needed = 1, uses_anonymous_args = 0
ARM GAS  C:\Users\MattiaCP\AppData\Local\Temp\ccjRb3Rd.s 			page 12


 492              		@ link register save eliminated.
 493 0000 80B4     		push	{r7}
 494              		.cfi_def_cfa_offset 4
 495              		.cfi_offset 7, -4
 496 0002 00AF     		add	r7, sp, #0
 497              		.cfi_def_cfa_register 7
 137:..\src/utils.c ****     static uint8 direction;                 //0 closing, 1 opening.
 138:..\src/utils.c ****     static uint16 closure_counter;          //Range [0 - 2^16].
 139:..\src/utils.c ****     static CYBIT count_one = 1;             //Used to count only one cycle, when inputs are generat
 140:..\src/utils.c ****                                             //and pass the threshold, having the condition verified
 141:..\src/utils.c **** 
 142:..\src/utils.c ****     // closing
 143:..\src/utils.c ****     if (direction == 0) {
 498              		.loc 1 143 0
 499 0004 254B     		ldr	r3, .L25
 500 0006 1B78     		ldrb	r3, [r3]	@ zero_extendqisi2
 501 0008 002B     		cmp	r3, #0
 502 000a 17D1     		bne	.L21
 144:..\src/utils.c ****         g_refNew.pos += (calib.speed << g_mem.res[0]);
 503              		.loc 1 144 0
 504 000c 244B     		ldr	r3, .L25+4
 505 000e 1A68     		ldr	r2, [r3]
 506 0010 244B     		ldr	r3, .L25+8
 507 0012 B3F90230 		ldrsh	r3, [r3, #2]
 508 0016 1946     		mov	r1, r3
 509 0018 234B     		ldr	r3, .L25+12
 510 001a 93F83730 		ldrb	r3, [r3, #55]	@ zero_extendqisi2
 511 001e 01FA03F3 		lsl	r3, r1, r3
 512 0022 1344     		add	r3, r3, r2
 513 0024 1E4A     		ldr	r2, .L25+4
 514 0026 1360     		str	r3, [r2]
 145:..\src/utils.c ****         
 146:..\src/utils.c ****         if ((g_refNew.pos) > g_mem.pos_lim_sup) {
 515              		.loc 1 146 0
 516 0028 1D4B     		ldr	r3, .L25+4
 517 002a 1A68     		ldr	r2, [r3]
 518 002c 1E4B     		ldr	r3, .L25+12
 519 002e DB6D     		ldr	r3, [r3, #92]
 520 0030 9A42     		cmp	r2, r3
 521 0032 2FDD     		ble	.L24
 147:..\src/utils.c ****             direction = 1;
 522              		.loc 1 147 0
 523 0034 194B     		ldr	r3, .L25
 524 0036 0122     		movs	r2, #1
 525 0038 1A70     		strb	r2, [r3]
 148:..\src/utils.c ****         }
 149:..\src/utils.c ****     } else { //opening
 150:..\src/utils.c ****         g_refNew.pos -= (calib.speed << g_mem.res[0]);
 151:..\src/utils.c ****         if (SIGN(g_refNew.pos) != 1) {
 152:..\src/utils.c ****             direction = 0;
 153:..\src/utils.c ****             closure_counter++;
 154:..\src/utils.c ****             count_one = 1;          // Enables back the cycles counter
 155:..\src/utils.c ****             if (closure_counter == calib.repetitions) {
 156:..\src/utils.c ****                 closure_counter = 0;
 157:..\src/utils.c ****                 calib.enabled = FALSE;
 158:..\src/utils.c ****             }
 159:..\src/utils.c ****         }
ARM GAS  C:\Users\MattiaCP\AppData\Local\Temp\ccjRb3Rd.s 			page 13


 160:..\src/utils.c ****     }
 161:..\src/utils.c **** }
 526              		.loc 1 161 0
 527 003a 2BE0     		b	.L24
 528              	.L21:
 150:..\src/utils.c ****         if (SIGN(g_refNew.pos) != 1) {
 529              		.loc 1 150 0
 530 003c 184B     		ldr	r3, .L25+4
 531 003e 1A68     		ldr	r2, [r3]
 532 0040 184B     		ldr	r3, .L25+8
 533 0042 B3F90230 		ldrsh	r3, [r3, #2]
 534 0046 1946     		mov	r1, r3
 535 0048 174B     		ldr	r3, .L25+12
 536 004a 93F83730 		ldrb	r3, [r3, #55]	@ zero_extendqisi2
 537 004e 01FA03F3 		lsl	r3, r1, r3
 538 0052 D31A     		subs	r3, r2, r3
 539 0054 124A     		ldr	r2, .L25+4
 540 0056 1360     		str	r3, [r2]
 151:..\src/utils.c ****             direction = 0;
 541              		.loc 1 151 0
 542 0058 114B     		ldr	r3, .L25+4
 543 005a 1B68     		ldr	r3, [r3]
 544 005c 002B     		cmp	r3, #0
 545 005e 19DA     		bge	.L24
 152:..\src/utils.c ****             closure_counter++;
 546              		.loc 1 152 0
 547 0060 0E4B     		ldr	r3, .L25
 548 0062 0022     		movs	r2, #0
 549 0064 1A70     		strb	r2, [r3]
 153:..\src/utils.c ****             count_one = 1;          // Enables back the cycles counter
 550              		.loc 1 153 0
 551 0066 114B     		ldr	r3, .L25+16
 552 0068 1B88     		ldrh	r3, [r3]
 553 006a 0133     		adds	r3, r3, #1
 554 006c 9AB2     		uxth	r2, r3
 555 006e 0F4B     		ldr	r3, .L25+16
 556 0070 1A80     		strh	r2, [r3]	@ movhi
 154:..\src/utils.c ****             if (closure_counter == calib.repetitions) {
 557              		.loc 1 154 0
 558 0072 0F4B     		ldr	r3, .L25+20
 559 0074 0122     		movs	r2, #1
 560 0076 1A70     		strb	r2, [r3]
 155:..\src/utils.c ****                 closure_counter = 0;
 561              		.loc 1 155 0
 562 0078 0C4B     		ldr	r3, .L25+16
 563 007a 1B88     		ldrh	r3, [r3]
 564 007c 1A46     		mov	r2, r3
 565 007e 094B     		ldr	r3, .L25+8
 566 0080 B3F90430 		ldrsh	r3, [r3, #4]
 567 0084 9A42     		cmp	r2, r3
 568 0086 05D1     		bne	.L24
 156:..\src/utils.c ****                 calib.enabled = FALSE;
 569              		.loc 1 156 0
 570 0088 084B     		ldr	r3, .L25+16
 571 008a 0022     		movs	r2, #0
 572 008c 1A80     		strh	r2, [r3]	@ movhi
 157:..\src/utils.c ****             }
ARM GAS  C:\Users\MattiaCP\AppData\Local\Temp\ccjRb3Rd.s 			page 14


 573              		.loc 1 157 0
 574 008e 054B     		ldr	r3, .L25+8
 575 0090 0022     		movs	r2, #0
 576 0092 1A70     		strb	r2, [r3]
 577              	.L24:
 578              		.loc 1 161 0
 579 0094 00BF     		nop
 580 0096 BD46     		mov	sp, r7
 581              		.cfi_def_cfa_register 13
 582              		@ sp needed
 583 0098 80BC     		pop	{r7}
 584              		.cfi_restore 7
 585              		.cfi_def_cfa_offset 0
 586 009a 7047     		bx	lr
 587              	.L26:
 588              		.align	2
 589              	.L25:
 590 009c 08000000 		.word	direction.9955
 591 00a0 00000000 		.word	g_refNew
 592 00a4 00000000 		.word	calib
 593 00a8 00000000 		.word	g_mem
 594 00ac 0A000000 		.word	closure_counter.9956
 595 00b0 00000000 		.word	count_one.9957
 596              		.cfi_endproc
 597              	.LFE68:
 598              		.size	calibration, .-calibration
 599              		.section	.text.calc_turns_fcn,"ax",%progbits
 600              		.align	2
 601              		.global	calc_turns_fcn
 602              		.thumb
 603              		.thumb_func
 604              		.type	calc_turns_fcn, %function
 605              	calc_turns_fcn:
 606              	.LFB69:
 162:..\src/utils.c **** 
 163:..\src/utils.c **** 
 164:..\src/utils.c **** //==============================================================================
 165:..\src/utils.c **** //                                                      DOUBLE ENCODER CALC TURN
 166:..\src/utils.c **** //==============================================================================
 167:..\src/utils.c **** 
 168:..\src/utils.c **** // Use this matlab function to calculate I1 and I2
 169:..\src/utils.c **** //
 170:..\src/utils.c **** // function [inv_a, inv_b] = mod_mul_inv(a, b)
 171:..\src/utils.c **** //     a = int32(a);
 172:..\src/utils.c **** //     b = int32(b);
 173:..\src/utils.c **** //     if b == 0
 174:..\src/utils.c **** //         inv_a = 1;
 175:..\src/utils.c **** //         inv_b = 0;
 176:..\src/utils.c **** //         return
 177:..\src/utils.c **** //     else
 178:..\src/utils.c **** //         q = idivide(a,b,'floor');
 179:..\src/utils.c **** //         r = mod(a,b);
 180:..\src/utils.c **** //         [s, t] = mod_mul_inv(b, r);
 181:..\src/utils.c **** //     end
 182:..\src/utils.c **** //     inv_a = t;
 183:..\src/utils.c **** //     inv_b = s - q * t;
 184:..\src/utils.c **** // return
ARM GAS  C:\Users\MattiaCP\AppData\Local\Temp\ccjRb3Rd.s 			page 15


 185:..\src/utils.c **** 
 186:..\src/utils.c **** // Number of teeth of the two wheels
 187:..\src/utils.c **** #define N1 35           ///< Teeth of the first encoder wheel.
 188:..\src/utils.c **** #define N2 3            ///< Teeth of the second encoder wheel.
 189:..\src/utils.c **** 
 190:..\src/utils.c **** #define I1 -1           ///< First wheel invariant value.
 191:..\src/utils.c **** //#define I2 12         ///< Second wheel invariant value.
 192:..\src/utils.c **** 
 193:..\src/utils.c **** // Number of ticks per turn
 194:..\src/utils.c **** #define M 65536          ///< Number of encoder ticks per turn.
 195:..\src/utils.c **** 
 196:..\src/utils.c **** 
 197:..\src/utils.c **** int calc_turns_fcn(const int32 pos1, const int32 pos2) { 
 607              		.loc 1 197 0
 608              		.cfi_startproc
 609              		@ args = 0, pretend = 0, frame = 16
 610              		@ frame_needed = 1, uses_anonymous_args = 0
 611 0000 80B5     		push	{r7, lr}
 612              		.cfi_def_cfa_offset 8
 613              		.cfi_offset 7, -8
 614              		.cfi_offset 14, -4
 615 0002 84B0     		sub	sp, sp, #16
 616              		.cfi_def_cfa_offset 24
 617 0004 00AF     		add	r7, sp, #0
 618              		.cfi_def_cfa_register 7
 619 0006 7860     		str	r0, [r7, #4]
 620 0008 3960     		str	r1, [r7]
 198:..\src/utils.c ****     
 199:..\src/utils.c ****     int32 x;
 200:..\src/utils.c ****     int32 aux;
 201:..\src/utils.c ****     
 202:..\src/utils.c ****     switch (c_mem.right_left){
 621              		.loc 1 202 0
 622 000a 284B     		ldr	r3, .L34
 623 000c 93F8A630 		ldrb	r3, [r3, #166]	@ zero_extendqisi2
 624 0010 002B     		cmp	r3, #0
 625 0012 02D0     		beq	.L29
 626 0014 012B     		cmp	r3, #1
 627 0016 26D0     		beq	.L30
 628 0018 43E0     		b	.L28
 629              	.L29:
 203:..\src/utils.c ****         case RIGHT_HAND:
 204:..\src/utils.c ****             x = (my_mod( - N2*(pos2) - N1*pos1, M*N2) + M/2) / M;
 630              		.loc 1 204 0
 631 001a 3B68     		ldr	r3, [r7]
 632 001c 1A46     		mov	r2, r3
 633 001e 9B00     		lsls	r3, r3, #2
 634 0020 D21A     		subs	r2, r2, r3
 635 0022 7B68     		ldr	r3, [r7, #4]
 636 0024 6FF02201 		mvn	r1, #34
 637 0028 01FB03F3 		mul	r3, r1, r3
 638 002c 1344     		add	r3, r3, r2
 639 002e 4FF44031 		mov	r1, #196608
 640 0032 1846     		mov	r0, r3
 641 0034 FFF7FEFF 		bl	my_mod
 642 0038 0346     		mov	r3, r0
 643 003a 03F50043 		add	r3, r3, #32768
ARM GAS  C:\Users\MattiaCP\AppData\Local\Temp\ccjRb3Rd.s 			page 16


 644 003e 1B0C     		lsrs	r3, r3, #16
 645 0040 BB60     		str	r3, [r7, #8]
 205:..\src/utils.c ****             
 206:..\src/utils.c ****             aux = my_mod(x*I1, N2);       // Module between x*I1 and N2.
 646              		.loc 1 206 0
 647 0042 BB68     		ldr	r3, [r7, #8]
 648 0044 5B42     		negs	r3, r3
 649 0046 0321     		movs	r1, #3
 650 0048 1846     		mov	r0, r3
 651 004a FFF7FEFF 		bl	my_mod
 652 004e 0346     		mov	r3, r0
 653 0050 FB60     		str	r3, [r7, #12]
 207:..\src/utils.c ****             
 208:..\src/utils.c ****             // Wrap turns
 209:..\src/utils.c ****             aux -= N2;      //N2 (teeth of the second encoder wheel)
 654              		.loc 1 209 0
 655 0052 FB68     		ldr	r3, [r7, #12]
 656 0054 033B     		subs	r3, r3, #3
 657 0056 FB60     		str	r3, [r7, #12]
 210:..\src/utils.c ****             if (aux == -N2){
 658              		.loc 1 210 0
 659 0058 FB68     		ldr	r3, [r7, #12]
 660 005a 13F1030F 		cmn	r3, #3
 661 005e 1FD1     		bne	.L33
 211:..\src/utils.c ****                 aux = 0;
 662              		.loc 1 211 0
 663 0060 0023     		movs	r3, #0
 664 0062 FB60     		str	r3, [r7, #12]
 212:..\src/utils.c ****             }
 213:..\src/utils.c ****             
 214:..\src/utils.c ****             break;
 665              		.loc 1 214 0
 666 0064 1CE0     		b	.L33
 667              	.L30:
 215:..\src/utils.c ****         case LEFT_HAND:
 216:..\src/utils.c ****             x = (my_mod( - N2*(-pos2) - N1*pos1, M*N2) + M/2) / M;
 668              		.loc 1 216 0
 669 0066 3A68     		ldr	r2, [r7]
 670 0068 1346     		mov	r3, r2
 671 006a 5B00     		lsls	r3, r3, #1
 672 006c 1A44     		add	r2, r2, r3
 673 006e 7B68     		ldr	r3, [r7, #4]
 674 0070 6FF02201 		mvn	r1, #34
 675 0074 01FB03F3 		mul	r3, r1, r3
 676 0078 1344     		add	r3, r3, r2
 677 007a 4FF44031 		mov	r1, #196608
 678 007e 1846     		mov	r0, r3
 679 0080 FFF7FEFF 		bl	my_mod
 680 0084 0346     		mov	r3, r0
 681 0086 03F50043 		add	r3, r3, #32768
 682 008a 1B0C     		lsrs	r3, r3, #16
 683 008c BB60     		str	r3, [r7, #8]
 217:..\src/utils.c ****             
 218:..\src/utils.c ****             aux = my_mod(x*I1, N2);       // Module between x*I1 and N2.
 684              		.loc 1 218 0
 685 008e BB68     		ldr	r3, [r7, #8]
 686 0090 5B42     		negs	r3, r3
ARM GAS  C:\Users\MattiaCP\AppData\Local\Temp\ccjRb3Rd.s 			page 17


 687 0092 0321     		movs	r1, #3
 688 0094 1846     		mov	r0, r3
 689 0096 FFF7FEFF 		bl	my_mod
 690 009a 0346     		mov	r3, r0
 691 009c FB60     		str	r3, [r7, #12]
 219:..\src/utils.c ****             
 220:..\src/utils.c ****             break;
 692              		.loc 1 220 0
 693 009e 00E0     		b	.L28
 694              	.L33:
 214:..\src/utils.c ****         case LEFT_HAND:
 695              		.loc 1 214 0
 696 00a0 00BF     		nop
 697              	.L28:
 221:..\src/utils.c ****     }
 222:..\src/utils.c ****   
 223:..\src/utils.c ****     // SoftHand Pro firmware turns computation does not have to take into account turns shift like 
 224:..\src/utils.c ****     return aux; 
 698              		.loc 1 224 0
 699 00a2 FB68     		ldr	r3, [r7, #12]
 225:..\src/utils.c **** 
 226:..\src/utils.c **** }
 700              		.loc 1 226 0
 701 00a4 1846     		mov	r0, r3
 702 00a6 1037     		adds	r7, r7, #16
 703              		.cfi_def_cfa_offset 8
 704 00a8 BD46     		mov	sp, r7
 705              		.cfi_def_cfa_register 13
 706              		@ sp needed
 707 00aa 80BD     		pop	{r7, pc}
 708              	.L35:
 709              		.align	2
 710              	.L34:
 711 00ac 00000000 		.word	c_mem
 712              		.cfi_endproc
 713              	.LFE69:
 714              		.size	calc_turns_fcn, .-calc_turns_fcn
 715              		.section	.text.check_rest_position,"ax",%progbits
 716              		.align	2
 717              		.global	check_rest_position
 718              		.thumb
 719              		.thumb_func
 720              		.type	check_rest_position, %function
 721              	check_rest_position:
 722              	.LFB70:
 227:..\src/utils.c **** 
 228:..\src/utils.c **** //==============================================================================
 229:..\src/utils.c **** //                                                                 REST POSITION
 230:..\src/utils.c **** //==============================================================================
 231:..\src/utils.c **** 
 232:..\src/utils.c **** void check_rest_position(void) {     // 100 Hz frequency.
 723              		.loc 1 232 0
 724              		.cfi_startproc
 725              		@ args = 0, pretend = 0, frame = 8
 726              		@ frame_needed = 1, uses_anonymous_args = 0
 727 0000 90B5     		push	{r4, r7, lr}
 728              		.cfi_def_cfa_offset 12
ARM GAS  C:\Users\MattiaCP\AppData\Local\Temp\ccjRb3Rd.s 			page 18


 729              		.cfi_offset 4, -12
 730              		.cfi_offset 7, -8
 731              		.cfi_offset 14, -4
 732 0002 83B0     		sub	sp, sp, #12
 733              		.cfi_def_cfa_offset 24
 734 0004 00AF     		add	r7, sp, #0
 735              		.cfi_def_cfa_register 7
 233:..\src/utils.c ****     
 234:..\src/utils.c ****     static uint32 count = 0;        // Range [0 - 2^31].
 235:..\src/utils.c ****     static uint8 flag_count = 1;
 236:..\src/utils.c ****     static uint8 first_time = 1;
 237:..\src/utils.c ****     static float m = 0;
 238:..\src/utils.c ****     static int32 abs_err_thr = 0;
 239:..\src/utils.c ****     static int32 delta_inc = 0;
 240:..\src/utils.c ****     int32 curr_pos = 0;
 736              		.loc 1 240 0
 737 0006 0023     		movs	r3, #0
 738 0008 7B60     		str	r3, [r7, #4]
 241:..\src/utils.c ****     static int32 rest_error;
 242:..\src/utils.c ****     float rest_vel_ticks_ms = ((float)g_mem.rest_vel)/1000.0;    //[ticks/s] -> [ticks/ms]
 739              		.loc 1 242 0
 740 000a 8C4B     		ldr	r3, .L49
 741 000c D3F8A030 		ldr	r3, [r3, #160]
 742 0010 1846     		mov	r0, r3
 743 0012 FFF7FEFF 		bl	__aeabi_i2f
 744 0016 0346     		mov	r3, r0
 745 0018 8949     		ldr	r1, .L49+4
 746 001a 1846     		mov	r0, r3
 747 001c FFF7FEFF 		bl	__aeabi_fdiv
 748 0020 0346     		mov	r3, r0
 749 0022 3B60     		str	r3, [r7]	@ float
 243:..\src/utils.c ****     
 244:..\src/utils.c ****     if (first_time){
 750              		.loc 1 244 0
 751 0024 874B     		ldr	r3, .L49+8
 752 0026 1B78     		ldrb	r3, [r3]	@ zero_extendqisi2
 753 0028 002B     		cmp	r3, #0
 754 002a 05D0     		beq	.L37
 245:..\src/utils.c ****         count = 0;
 755              		.loc 1 245 0
 756 002c 864B     		ldr	r3, .L49+12
 757 002e 0022     		movs	r2, #0
 758 0030 1A60     		str	r2, [r3]
 246:..\src/utils.c ****         first_time = 0;
 759              		.loc 1 246 0
 760 0032 844B     		ldr	r3, .L49+8
 761 0034 0022     		movs	r2, #0
 762 0036 1A70     		strb	r2, [r3]
 763              	.L37:
 247:..\src/utils.c ****     }
 248:..\src/utils.c ****     
 249:..\src/utils.c ****     curr_pos = (int32)(g_meas.pos[0] >> g_mem.res[0]);
 764              		.loc 1 249 0
 765 0038 844B     		ldr	r3, .L49+16
 766 003a 1B68     		ldr	r3, [r3]
 767 003c 7F4A     		ldr	r2, .L49
 768 003e 92F83720 		ldrb	r2, [r2, #55]	@ zero_extendqisi2
ARM GAS  C:\Users\MattiaCP\AppData\Local\Temp\ccjRb3Rd.s 			page 19


 769 0042 1341     		asrs	r3, r3, r2
 770 0044 7B60     		str	r3, [r7, #4]
 250:..\src/utils.c ****     
 251:..\src/utils.c ****     if ( ( (c_mem.input_mode >= 2 && g_meas.emg[0] < 200 && g_meas.emg[1] < 200) ) && curr_pos < 10
 771              		.loc 1 251 0
 772 0046 824B     		ldr	r3, .L49+20
 773 0048 93F83530 		ldrb	r3, [r3, #53]	@ zero_extendqisi2
 774 004c 012B     		cmp	r3, #1
 775 004e 16D9     		bls	.L38
 776              		.loc 1 251 0 is_stmt 0 discriminator 1
 777 0050 7E4B     		ldr	r3, .L49+16
 778 0052 9B69     		ldr	r3, [r3, #24]
 779 0054 C72B     		cmp	r3, #199
 780 0056 12DC     		bgt	.L38
 781              		.loc 1 251 0 discriminator 2
 782 0058 7C4B     		ldr	r3, .L49+16
 783 005a DB69     		ldr	r3, [r3, #28]
 784 005c C72B     		cmp	r3, #199
 785 005e 0EDC     		bgt	.L38
 786              		.loc 1 251 0 discriminator 3
 787 0060 7B68     		ldr	r3, [r7, #4]
 788 0062 42F20F72 		movw	r2, #9999
 789 0066 9342     		cmp	r3, r2
 790 0068 09DC     		bgt	.L38
 252:..\src/utils.c ****         if (flag_count == 1){
 791              		.loc 1 252 0 is_stmt 1
 792 006a 7A4B     		ldr	r3, .L49+24
 793 006c 1B78     		ldrb	r3, [r3]	@ zero_extendqisi2
 794 006e 012B     		cmp	r3, #1
 795 0070 0ED1     		bne	.L40
 253:..\src/utils.c ****             count = count + 1;
 796              		.loc 1 253 0
 797 0072 754B     		ldr	r3, .L49+12
 798 0074 1B68     		ldr	r3, [r3]
 799 0076 0133     		adds	r3, r3, #1
 800 0078 734A     		ldr	r2, .L49+12
 801 007a 1360     		str	r3, [r2]
 252:..\src/utils.c ****         if (flag_count == 1){
 802              		.loc 1 252 0
 803 007c 08E0     		b	.L40
 804              	.L38:
 254:..\src/utils.c ****         }
 255:..\src/utils.c ****     }
 256:..\src/utils.c ****     else {
 257:..\src/utils.c ****         count = 0;
 805              		.loc 1 257 0
 806 007e 724B     		ldr	r3, .L49+12
 807 0080 0022     		movs	r2, #0
 808 0082 1A60     		str	r2, [r3]
 258:..\src/utils.c ****         rest_enabled = 0;
 809              		.loc 1 258 0
 810 0084 744B     		ldr	r3, .L49+28
 811 0086 0022     		movs	r2, #0
 812 0088 1A70     		strb	r2, [r3]
 259:..\src/utils.c ****         flag_count = 1;
 813              		.loc 1 259 0
 814 008a 724B     		ldr	r3, .L49+24
ARM GAS  C:\Users\MattiaCP\AppData\Local\Temp\ccjRb3Rd.s 			page 20


 815 008c 0122     		movs	r2, #1
 816 008e 1A70     		strb	r2, [r3]
 817              	.L40:
 260:..\src/utils.c ****     }
 261:..\src/utils.c ****     
 262:..\src/utils.c ****     /********** Velocity closure procedure *************
 263:..\src/utils.c ****     * m = error/time
 264:..\src/utils.c ****     * m = (g_mem.rest_pos - init_pos)/time
 265:..\src/utils.c ****     * time = g_mem.rest_pos/rest_vel_ticks_ms (rest_vel_ticks_ms is in [ticks/ms])
 266:..\src/utils.c ****     ***************************************************/
 267:..\src/utils.c ****     
 268:..\src/utils.c ****     if (count == (uint32)(g_mem.rest_delay/CALIBRATION_DIV)){ 
 818              		.loc 1 268 0
 819 0090 6A4B     		ldr	r3, .L49
 820 0092 D3F89C30 		ldr	r3, [r3, #156]
 821 0096 714A     		ldr	r2, .L49+32
 822 0098 82FB0312 		smull	r1, r2, r2, r3
 823 009c 9210     		asrs	r2, r2, #2
 824 009e DB17     		asrs	r3, r3, #31
 825 00a0 D31A     		subs	r3, r2, r3
 826 00a2 1A46     		mov	r2, r3
 827 00a4 684B     		ldr	r3, .L49+12
 828 00a6 1B68     		ldr	r3, [r3]
 829 00a8 9A42     		cmp	r2, r3
 830 00aa 69D1     		bne	.L41
 269:..\src/utils.c ****         // This routine is executed every 10 firmware cycles -> g_mem.rest_delay must be major than
 270:..\src/utils.c ****         rest_enabled = 1;
 831              		.loc 1 270 0
 832 00ac 6A4B     		ldr	r3, .L49+28
 833 00ae 0122     		movs	r2, #1
 834 00b0 1A70     		strb	r2, [r3]
 271:..\src/utils.c ****         rest_pos_curr_ref = g_meas.pos[0];
 835              		.loc 1 271 0
 836 00b2 664B     		ldr	r3, .L49+16
 837 00b4 1B68     		ldr	r3, [r3]
 838 00b6 6A4A     		ldr	r2, .L49+36
 839 00b8 1360     		str	r3, [r2]
 272:..\src/utils.c ****         
 273:..\src/utils.c ****         // Ramp angular coefficient
 274:..\src/utils.c ****         m = ((float)(g_mem.rest_pos - g_meas.pos[0])/((float)g_mem.rest_pos))*(rest_vel_ticks_ms);
 840              		.loc 1 274 0
 841 00ba 604B     		ldr	r3, .L49
 842 00bc D3F89820 		ldr	r2, [r3, #152]
 843 00c0 624B     		ldr	r3, .L49+16
 844 00c2 1B68     		ldr	r3, [r3]
 845 00c4 D31A     		subs	r3, r2, r3
 846 00c6 1846     		mov	r0, r3
 847 00c8 FFF7FEFF 		bl	__aeabi_i2f
 848 00cc 0446     		mov	r4, r0
 849 00ce 5B4B     		ldr	r3, .L49
 850 00d0 D3F89830 		ldr	r3, [r3, #152]
 851 00d4 1846     		mov	r0, r3
 852 00d6 FFF7FEFF 		bl	__aeabi_i2f
 853 00da 0346     		mov	r3, r0
 854 00dc 1946     		mov	r1, r3
 855 00de 2046     		mov	r0, r4
 856 00e0 FFF7FEFF 		bl	__aeabi_fdiv
ARM GAS  C:\Users\MattiaCP\AppData\Local\Temp\ccjRb3Rd.s 			page 21


 857 00e4 0346     		mov	r3, r0
 858 00e6 3968     		ldr	r1, [r7]	@ float
 859 00e8 1846     		mov	r0, r3
 860 00ea FFF7FEFF 		bl	__aeabi_fmul
 861 00ee 0346     		mov	r3, r0
 862 00f0 1A46     		mov	r2, r3
 863 00f2 5C4B     		ldr	r3, .L49+40
 864 00f4 1A60     		str	r2, [r3]	@ float
 275:..\src/utils.c ****         
 276:..\src/utils.c ****         // Stop condition threshold is related to m coefficient by REST_RATIO value
 277:..\src/utils.c ****         abs_err_thr = (int32)( (int32)(((float)REST_POS_ERR_THR_GAIN)*m*((float)CALIBRATION_DIV)) <
 865              		.loc 1 277 0
 866 00f6 5B4B     		ldr	r3, .L49+40
 867 00f8 1B68     		ldr	r3, [r3]	@ float
 868 00fa 5B49     		ldr	r1, .L49+44
 869 00fc 1846     		mov	r0, r3
 870 00fe FFF7FEFF 		bl	__aeabi_fmul
 871 0102 0346     		mov	r3, r0
 872 0104 5849     		ldr	r1, .L49+44
 873 0106 1846     		mov	r0, r3
 874 0108 FFF7FEFF 		bl	__aeabi_fmul
 875 010c 0346     		mov	r3, r0
 876 010e 1846     		mov	r0, r3
 877 0110 FFF7FEFF 		bl	__aeabi_f2iz
 878 0114 0246     		mov	r2, r0
 879 0116 494B     		ldr	r3, .L49
 880 0118 93F83730 		ldrb	r3, [r3, #55]	@ zero_extendqisi2
 881 011c 02FA03F3 		lsl	r3, r2, r3
 882 0120 524A     		ldr	r2, .L49+48
 883 0122 1360     		str	r3, [r2]
 278:..\src/utils.c ****         abs_err_thr = (abs_err_thr>0)?abs_err_thr:(0-abs_err_thr);
 884              		.loc 1 278 0
 885 0124 514B     		ldr	r3, .L49+48
 886 0126 1B68     		ldr	r3, [r3]
 887 0128 002B     		cmp	r3, #0
 888 012a B8BF     		it	lt
 889 012c 5B42     		rsblt	r3, r3, #0
 890 012e 4F4A     		ldr	r2, .L49+48
 891 0130 1360     		str	r3, [r2]
 279:..\src/utils.c ****         
 280:..\src/utils.c ****         rest_error = g_mem.rest_pos - g_meas.pos[0];    
 892              		.loc 1 280 0
 893 0132 424B     		ldr	r3, .L49
 894 0134 D3F89820 		ldr	r2, [r3, #152]
 895 0138 444B     		ldr	r3, .L49+16
 896 013a 1B68     		ldr	r3, [r3]
 897 013c D31A     		subs	r3, r2, r3
 898 013e 4C4A     		ldr	r2, .L49+52
 899 0140 1360     		str	r3, [r2]
 281:..\src/utils.c ****         
 282:..\src/utils.c ****         delta_inc = (int32)( ((int32)(m*(float)CALIBRATION_DIV)) << g_mem.res[0] );
 900              		.loc 1 282 0
 901 0142 484B     		ldr	r3, .L49+40
 902 0144 1B68     		ldr	r3, [r3]	@ float
 903 0146 4849     		ldr	r1, .L49+44
 904 0148 1846     		mov	r0, r3
 905 014a FFF7FEFF 		bl	__aeabi_fmul
ARM GAS  C:\Users\MattiaCP\AppData\Local\Temp\ccjRb3Rd.s 			page 22


 906 014e 0346     		mov	r3, r0
 907 0150 1846     		mov	r0, r3
 908 0152 FFF7FEFF 		bl	__aeabi_f2iz
 909 0156 0246     		mov	r2, r0
 910 0158 384B     		ldr	r3, .L49
 911 015a 93F83730 		ldrb	r3, [r3, #55]	@ zero_extendqisi2
 912 015e 02FA03F3 		lsl	r3, r2, r3
 913 0162 444A     		ldr	r2, .L49+56
 914 0164 1360     		str	r3, [r2]
 283:..\src/utils.c ****         delta_inc = (delta_inc>0)?delta_inc:(0-delta_inc);
 915              		.loc 1 283 0
 916 0166 434B     		ldr	r3, .L49+56
 917 0168 1B68     		ldr	r3, [r3]
 918 016a 002B     		cmp	r3, #0
 919 016c B8BF     		it	lt
 920 016e 5B42     		rsblt	r3, r3, #0
 921 0170 404A     		ldr	r2, .L49+56
 922 0172 1360     		str	r3, [r2]
 284:..\src/utils.c ****         
 285:..\src/utils.c ****         count = 0;
 923              		.loc 1 285 0
 924 0174 344B     		ldr	r3, .L49+12
 925 0176 0022     		movs	r2, #0
 926 0178 1A60     		str	r2, [r3]
 286:..\src/utils.c ****         flag_count = 0;
 927              		.loc 1 286 0
 928 017a 364B     		ldr	r3, .L49+24
 929 017c 0022     		movs	r2, #0
 930 017e 1A70     		strb	r2, [r3]
 931              	.L41:
 287:..\src/utils.c ****     }
 288:..\src/utils.c ****     
 289:..\src/utils.c ****     if (rest_enabled){
 932              		.loc 1 289 0
 933 0180 354B     		ldr	r3, .L49+28
 934 0182 1B78     		ldrb	r3, [r3]	@ zero_extendqisi2
 935 0184 002B     		cmp	r3, #0
 936 0186 3BD0     		beq	.L42
 290:..\src/utils.c **** 
 291:..\src/utils.c ****         if (rest_error < abs_err_thr && rest_error > -abs_err_thr){
 937              		.loc 1 291 0
 938 0188 394B     		ldr	r3, .L49+52
 939 018a 1A68     		ldr	r2, [r3]
 940 018c 374B     		ldr	r3, .L49+48
 941 018e 1B68     		ldr	r3, [r3]
 942 0190 9A42     		cmp	r2, r3
 943 0192 17DA     		bge	.L43
 944              		.loc 1 291 0 is_stmt 0 discriminator 1
 945 0194 354B     		ldr	r3, .L49+48
 946 0196 1B68     		ldr	r3, [r3]
 947 0198 5A42     		negs	r2, r3
 948 019a 354B     		ldr	r3, .L49+52
 949 019c 1B68     		ldr	r3, [r3]
 950 019e 9A42     		cmp	r2, r3
 951 01a0 10DA     		bge	.L43
 292:..\src/utils.c ****             // Stop condition
 293:..\src/utils.c ****             rest_pos_curr_ref = g_mem.rest_pos;
ARM GAS  C:\Users\MattiaCP\AppData\Local\Temp\ccjRb3Rd.s 			page 23


 952              		.loc 1 293 0 is_stmt 1
 953 01a2 264B     		ldr	r3, .L49
 954 01a4 D3F89830 		ldr	r3, [r3, #152]
 955 01a8 2D4A     		ldr	r2, .L49+36
 956 01aa 1360     		str	r3, [r2]
 294:..\src/utils.c ****             
 295:..\src/utils.c ****             if (c_mem.input_mode >= 2)   // EMG input mode
 957              		.loc 1 295 0
 958 01ac 284B     		ldr	r3, .L49+20
 959 01ae 93F83530 		ldrb	r3, [r3, #53]	@ zero_extendqisi2
 960 01b2 012B     		cmp	r3, #1
 961 01b4 02D9     		bls	.L44
 296:..\src/utils.c ****                 forced_open = 1; 
 962              		.loc 1 296 0
 963 01b6 304B     		ldr	r3, .L49+60
 964 01b8 0122     		movs	r2, #1
 965 01ba 1A70     		strb	r2, [r3]
 966              	.L44:
 297:..\src/utils.c ****             
 298:..\src/utils.c ****             count = 0;
 967              		.loc 1 298 0
 968 01bc 224B     		ldr	r3, .L49+12
 969 01be 0022     		movs	r2, #0
 970 01c0 1A60     		str	r2, [r3]
 971 01c2 1DE0     		b	.L42
 972              	.L43:
 299:..\src/utils.c ****         }
 300:..\src/utils.c ****         else {
 301:..\src/utils.c ****             rest_error = g_mem.rest_pos - g_meas.pos[0];        
 973              		.loc 1 301 0
 974 01c4 1D4B     		ldr	r3, .L49
 975 01c6 D3F89820 		ldr	r2, [r3, #152]
 976 01ca 204B     		ldr	r3, .L49+16
 977 01cc 1B68     		ldr	r3, [r3]
 978 01ce D31A     		subs	r3, r2, r3
 979 01d0 274A     		ldr	r2, .L49+52
 980 01d2 1360     		str	r3, [r2]
 302:..\src/utils.c **** 
 303:..\src/utils.c ****             if (rest_error > 0){
 981              		.loc 1 303 0
 982 01d4 264B     		ldr	r3, .L49+52
 983 01d6 1B68     		ldr	r3, [r3]
 984 01d8 002B     		cmp	r3, #0
 985 01da 06DD     		ble	.L45
 304:..\src/utils.c ****                 rest_pos_curr_ref = rest_pos_curr_ref + delta_inc;
 986              		.loc 1 304 0
 987 01dc 204B     		ldr	r3, .L49+36
 988 01de 1A68     		ldr	r2, [r3]
 989 01e0 244B     		ldr	r3, .L49+56
 990 01e2 1B68     		ldr	r3, [r3]
 991 01e4 1344     		add	r3, r3, r2
 992 01e6 1E4A     		ldr	r2, .L49+36
 993 01e8 1360     		str	r3, [r2]
 994              	.L45:
 305:..\src/utils.c ****             }
 306:..\src/utils.c ****             if (rest_error < 0){
 995              		.loc 1 306 0
ARM GAS  C:\Users\MattiaCP\AppData\Local\Temp\ccjRb3Rd.s 			page 24


 996 01ea 214B     		ldr	r3, .L49+52
 997 01ec 1B68     		ldr	r3, [r3]
 998 01ee 002B     		cmp	r3, #0
 999 01f0 06DA     		bge	.L42
 307:..\src/utils.c ****                 rest_pos_curr_ref = rest_pos_curr_ref - delta_inc;
 1000              		.loc 1 307 0
 1001 01f2 1B4B     		ldr	r3, .L49+36
 1002 01f4 1A68     		ldr	r2, [r3]
 1003 01f6 1F4B     		ldr	r3, .L49+56
 1004 01f8 1B68     		ldr	r3, [r3]
 1005 01fa D31A     		subs	r3, r2, r3
 1006 01fc 184A     		ldr	r2, .L49+36
 1007 01fe 1360     		str	r3, [r2]
 1008              	.L42:
 308:..\src/utils.c ****             }
 309:..\src/utils.c ****         } 
 310:..\src/utils.c ****     }
 311:..\src/utils.c ****     
 312:..\src/utils.c ****     // Position limit saturation
 313:..\src/utils.c ****     if (c_mem.pos_lim_flag) {
 1009              		.loc 1 313 0
 1010 0200 134B     		ldr	r3, .L49+20
 1011 0202 93F85430 		ldrb	r3, [r3, #84]	@ zero_extendqisi2
 1012 0206 002B     		cmp	r3, #0
 1013 0208 13D0     		beq	.L48
 314:..\src/utils.c ****         if (rest_pos_curr_ref < c_mem.pos_lim_inf) 
 1014              		.loc 1 314 0
 1015 020a 114B     		ldr	r3, .L49+20
 1016 020c 9A6D     		ldr	r2, [r3, #88]
 1017 020e 144B     		ldr	r3, .L49+36
 1018 0210 1B68     		ldr	r3, [r3]
 1019 0212 9A42     		cmp	r2, r3
 1020 0214 03DD     		ble	.L47
 315:..\src/utils.c ****             rest_pos_curr_ref = c_mem.pos_lim_inf;
 1021              		.loc 1 315 0
 1022 0216 0E4B     		ldr	r3, .L49+20
 1023 0218 9B6D     		ldr	r3, [r3, #88]
 1024 021a 114A     		ldr	r2, .L49+36
 1025 021c 1360     		str	r3, [r2]
 1026              	.L47:
 316:..\src/utils.c ****         if (rest_pos_curr_ref > c_mem.pos_lim_sup) 
 1027              		.loc 1 316 0
 1028 021e 0C4B     		ldr	r3, .L49+20
 1029 0220 DA6D     		ldr	r2, [r3, #92]
 1030 0222 0F4B     		ldr	r3, .L49+36
 1031 0224 1B68     		ldr	r3, [r3]
 1032 0226 9A42     		cmp	r2, r3
 1033 0228 03DA     		bge	.L48
 317:..\src/utils.c ****             rest_pos_curr_ref = c_mem.pos_lim_sup;
 1034              		.loc 1 317 0
 1035 022a 094B     		ldr	r3, .L49+20
 1036 022c DB6D     		ldr	r3, [r3, #92]
 1037 022e 0C4A     		ldr	r2, .L49+36
 1038 0230 1360     		str	r3, [r2]
 1039              	.L48:
 318:..\src/utils.c ****     }
 319:..\src/utils.c **** 
ARM GAS  C:\Users\MattiaCP\AppData\Local\Temp\ccjRb3Rd.s 			page 25


 320:..\src/utils.c **** }
 1040              		.loc 1 320 0
 1041 0232 00BF     		nop
 1042 0234 0C37     		adds	r7, r7, #12
 1043              		.cfi_def_cfa_offset 12
 1044 0236 BD46     		mov	sp, r7
 1045              		.cfi_def_cfa_register 13
 1046              		@ sp needed
 1047 0238 90BD     		pop	{r4, r7, pc}
 1048              	.L50:
 1049 023a 00BF     		.align	2
 1050              	.L49:
 1051 023c 00000000 		.word	g_mem
 1052 0240 00007A44 		.word	1148846080
 1053 0244 01000000 		.word	first_time.9972
 1054 0248 0C000000 		.word	count.9970
 1055 024c 00000000 		.word	g_meas
 1056 0250 00000000 		.word	c_mem
 1057 0254 02000000 		.word	flag_count.9971
 1058 0258 00000000 		.word	rest_enabled
 1059 025c 67666666 		.word	1717986919
 1060 0260 00000000 		.word	rest_pos_curr_ref
 1061 0264 10000000 		.word	m.9973
 1062 0268 00002041 		.word	1092616192
 1063 026c 14000000 		.word	abs_err_thr.9974
 1064 0270 18000000 		.word	rest_error.9977
 1065 0274 1C000000 		.word	delta_inc.9975
 1066 0278 00000000 		.word	forced_open
 1067              		.cfi_endproc
 1068              	.LFE70:
 1069              		.size	check_rest_position, .-check_rest_position
 1070              		.section	.text.LED_control,"ax",%progbits
 1071              		.align	2
 1072              		.global	LED_control
 1073              		.thumb
 1074              		.thumb_func
 1075              		.type	LED_control, %function
 1076              	LED_control:
 1077              	.LFB71:
 321:..\src/utils.c **** 
 322:..\src/utils.c **** 
 323:..\src/utils.c **** //==============================================================================
 324:..\src/utils.c **** //                                                                   LED CONTROL
 325:..\src/utils.c **** //==============================================================================
 326:..\src/utils.c **** 
 327:..\src/utils.c **** void LED_control(uint8 mode) {
 1078              		.loc 1 327 0
 1079              		.cfi_startproc
 1080              		@ args = 0, pretend = 0, frame = 8
 1081              		@ frame_needed = 1, uses_anonymous_args = 0
 1082 0000 80B5     		push	{r7, lr}
 1083              		.cfi_def_cfa_offset 8
 1084              		.cfi_offset 7, -8
 1085              		.cfi_offset 14, -4
 1086 0002 82B0     		sub	sp, sp, #8
 1087              		.cfi_def_cfa_offset 16
 1088 0004 00AF     		add	r7, sp, #0
ARM GAS  C:\Users\MattiaCP\AppData\Local\Temp\ccjRb3Rd.s 			page 26


 1089              		.cfi_def_cfa_register 7
 1090 0006 0346     		mov	r3, r0
 1091 0008 FB71     		strb	r3, [r7, #7]
 328:..\src/utils.c ****     
 329:..\src/utils.c ****     switch (mode) {
 1092              		.loc 1 329 0
 1093 000a FB79     		ldrb	r3, [r7, #7]	@ zero_extendqisi2
 1094 000c 052B     		cmp	r3, #5
 1095 000e 39D8     		bhi	.L61
 1096 0010 01A2     		adr	r2, .L54
 1097 0012 52F823F0 		ldr	pc, [r2, r3, lsl #2]
 1098 0016 00BF     		.p2align 2
 1099              	.L54:
 1100 0018 31000000 		.word	.L53+1
 1101 001c 3F000000 		.word	.L55+1
 1102 0020 4D000000 		.word	.L56+1
 1103 0024 5B000000 		.word	.L57+1
 1104 0028 69000000 		.word	.L58+1
 1105 002c 77000000 		.word	.L59+1
 1106              		.p2align 1
 1107              	.L53:
 330:..\src/utils.c ****         
 331:..\src/utils.c ****         case 0:     //All LEDs off
 332:..\src/utils.c ****             LED_CTRL_Write(0);
 1108              		.loc 1 332 0
 1109 0030 0020     		movs	r0, #0
 1110 0032 FFF7FEFF 		bl	LED_CTRL_Write
 333:..\src/utils.c ****             BLINK_CTRL_EN_Write(0);
 1111              		.loc 1 333 0
 1112 0036 0020     		movs	r0, #0
 1113 0038 FFF7FEFF 		bl	BLINK_CTRL_EN_Write
 334:..\src/utils.c ****             break;
 1114              		.loc 1 334 0
 1115 003c 23E0     		b	.L60
 1116              	.L55:
 335:..\src/utils.c ****         case 1:     // Green fixed light
 336:..\src/utils.c ****             LED_CTRL_Write(2);
 1117              		.loc 1 336 0
 1118 003e 0220     		movs	r0, #2
 1119 0040 FFF7FEFF 		bl	LED_CTRL_Write
 337:..\src/utils.c ****             BLINK_CTRL_EN_Write(0);
 1120              		.loc 1 337 0
 1121 0044 0020     		movs	r0, #0
 1122 0046 FFF7FEFF 		bl	BLINK_CTRL_EN_Write
 338:..\src/utils.c ****             break;
 1123              		.loc 1 338 0
 1124 004a 1CE0     		b	.L60
 1125              	.L56:
 339:..\src/utils.c ****             
 340:..\src/utils.c ****         case 2:     // Yellow flashing light @ 0.5 Hz
 341:..\src/utils.c ****             LED_CTRL_Write(0);
 1126              		.loc 1 341 0
 1127 004c 0020     		movs	r0, #0
 1128 004e FFF7FEFF 		bl	LED_CTRL_Write
 342:..\src/utils.c ****             BLINK_CTRL_EN_Write(1);        
 1129              		.loc 1 342 0
 1130 0052 0120     		movs	r0, #1
ARM GAS  C:\Users\MattiaCP\AppData\Local\Temp\ccjRb3Rd.s 			page 27


 1131 0054 FFF7FEFF 		bl	BLINK_CTRL_EN_Write
 343:..\src/utils.c ****             break;
 1132              		.loc 1 343 0
 1133 0058 15E0     		b	.L60
 1134              	.L57:
 344:..\src/utils.c ****             
 345:..\src/utils.c ****         case 3:     // Red flashing light @ 2.5 Hz
 346:..\src/utils.c ****             LED_CTRL_Write(0);
 1135              		.loc 1 346 0
 1136 005a 0020     		movs	r0, #0
 1137 005c FFF7FEFF 		bl	LED_CTRL_Write
 347:..\src/utils.c ****             BLINK_CTRL_EN_Write(2);        
 1138              		.loc 1 347 0
 1139 0060 0220     		movs	r0, #2
 1140 0062 FFF7FEFF 		bl	BLINK_CTRL_EN_Write
 348:..\src/utils.c ****             break;
 1141              		.loc 1 348 0
 1142 0066 0EE0     		b	.L60
 1143              	.L58:
 349:..\src/utils.c ****             
 350:..\src/utils.c ****         case 4:     // Yellow fixed light - maintenance
 351:..\src/utils.c ****             LED_CTRL_Write(3);
 1144              		.loc 1 351 0
 1145 0068 0320     		movs	r0, #3
 1146 006a FFF7FEFF 		bl	LED_CTRL_Write
 352:..\src/utils.c ****             BLINK_CTRL_EN_Write(0);        
 1147              		.loc 1 352 0
 1148 006e 0020     		movs	r0, #0
 1149 0070 FFF7FEFF 		bl	BLINK_CTRL_EN_Write
 353:..\src/utils.c ****             break;
 1150              		.loc 1 353 0
 1151 0074 07E0     		b	.L60
 1152              	.L59:
 354:..\src/utils.c ****         
 355:..\src/utils.c ****         case 5:     // Red fixed light - uUSB power
 356:..\src/utils.c ****             LED_CTRL_Write(1);
 1153              		.loc 1 356 0
 1154 0076 0120     		movs	r0, #1
 1155 0078 FFF7FEFF 		bl	LED_CTRL_Write
 357:..\src/utils.c ****             BLINK_CTRL_EN_Write(0);        
 1156              		.loc 1 357 0
 1157 007c 0020     		movs	r0, #0
 1158 007e FFF7FEFF 		bl	BLINK_CTRL_EN_Write
 358:..\src/utils.c ****             break; 
 1159              		.loc 1 358 0
 1160 0082 00E0     		b	.L60
 1161              	.L61:
 359:..\src/utils.c ****             
 360:..\src/utils.c ****         default:
 361:..\src/utils.c ****             break;
 1162              		.loc 1 361 0
 1163 0084 00BF     		nop
 1164              	.L60:
 362:..\src/utils.c ****     }   
 363:..\src/utils.c **** }
 1165              		.loc 1 363 0
 1166 0086 00BF     		nop
ARM GAS  C:\Users\MattiaCP\AppData\Local\Temp\ccjRb3Rd.s 			page 28


 1167 0088 0837     		adds	r7, r7, #8
 1168              		.cfi_def_cfa_offset 8
 1169 008a BD46     		mov	sp, r7
 1170              		.cfi_def_cfa_register 13
 1171              		@ sp needed
 1172 008c 80BD     		pop	{r7, pc}
 1173              		.cfi_endproc
 1174              	.LFE71:
 1175              		.size	LED_control, .-LED_control
 1176              		.global	__aeabi_i2d
 1177              		.global	__aeabi_dmul
 1178              		.global	__aeabi_dcmpgt
 1179 008e 00BF     		.section	.text.battery_management,"ax",%progbits
 1180              		.align	2
 1181              		.global	battery_management
 1182              		.thumb
 1183              		.thumb_func
 1184              		.type	battery_management, %function
 1185              	battery_management:
 1186              	.LFB72:
 364:..\src/utils.c **** 
 365:..\src/utils.c **** 
 366:..\src/utils.c **** //==============================================================================
 367:..\src/utils.c **** //                                                            BATTERY MANAGEMENT
 368:..\src/utils.c **** //==============================================================================
 369:..\src/utils.c **** void battery_management() {
 1187              		.loc 1 369 0
 1188              		.cfi_startproc
 1189              		@ args = 0, pretend = 0, frame = 0
 1190              		@ frame_needed = 1, uses_anonymous_args = 0
 1191 0000 B0B5     		push	{r4, r5, r7, lr}
 1192              		.cfi_def_cfa_offset 16
 1193              		.cfi_offset 4, -16
 1194              		.cfi_offset 5, -12
 1195              		.cfi_offset 7, -8
 1196              		.cfi_offset 14, -4
 1197 0002 00AF     		add	r7, sp, #0
 1198              		.cfi_def_cfa_register 7
 370:..\src/utils.c ****     static uint32 v_count_lb = 0;
 371:..\src/utils.c ****     
 372:..\src/utils.c ****     // LED handling procedure
 373:..\src/utils.c ****     // The board LED blinks if attached battery is not fully charged
 374:..\src/utils.c **** 
 375:..\src/utils.c ****     /*if (battery_low_SoC) {
 376:..\src/utils.c ****         
 377:..\src/utils.c ****         //red light - blink @ 2.5 Hz
 378:..\src/utils.c ****         LED_control(3);
 379:..\src/utils.c ****                 
 380:..\src/utils.c ****         rest_enabled = 0;
 381:..\src/utils.c ****         if (v_count_lb >= 11000){
 382:..\src/utils.c ****             // Disable motor because we are sure of not fully charged battery and terminal device h
 383:..\src/utils.c ****             g_refNew.onoff = 0x00;
 384:..\src/utils.c ****             MOTOR_ON_OFF_Write(g_refNew.onoff); // Deactivate motor
 385:..\src/utils.c ****             v_count_lb = 0;
 386:..\src/utils.c ****         }
 387:..\src/utils.c ****         else
 388:..\src/utils.c ****             v_count_lb = v_count_lb + 1;
ARM GAS  C:\Users\MattiaCP\AppData\Local\Temp\ccjRb3Rd.s 			page 29


 389:..\src/utils.c ****         
 390:..\src/utils.c ****     }
 391:..\src/utils.c ****     else {
 392:..\src/utils.c ****     */   
 393:..\src/utils.c ****         // The board LED is still or blinks depending on attached battery State of Charge
 394:..\src/utils.c ****         if (tension_valid == TRUE && ((c_mem.input_mode <= 1)  ||
 1199              		.loc 1 394 0
 1200 0004 504B     		ldr	r3, .L82+16
 1201 0006 1B78     		ldrb	r3, [r3]	@ zero_extendqisi2
 1202 0008 012B     		cmp	r3, #1
 1203 000a 7CD1     		bne	.L63
 1204              		.loc 1 394 0 is_stmt 0 discriminator 1
 1205 000c 4F4B     		ldr	r3, .L82+20
 1206 000e 93F83530 		ldrb	r3, [r3, #53]	@ zero_extendqisi2
 1207 0012 012B     		cmp	r3, #1
 1208 0014 0CD9     		bls	.L64
 395:..\src/utils.c ****             (c_mem.input_mode > 1 && emg_1_status == NORMAL && emg_2_status == NORMAL)) ){        
 1209              		.loc 1 395 0 is_stmt 1 discriminator 2
 1210 0016 4D4B     		ldr	r3, .L82+20
 1211 0018 93F83530 		ldrb	r3, [r3, #53]	@ zero_extendqisi2
 394:..\src/utils.c ****             (c_mem.input_mode > 1 && emg_1_status == NORMAL && emg_2_status == NORMAL)) ){        
 1212              		.loc 1 394 0 discriminator 2
 1213 001c 012B     		cmp	r3, #1
 1214 001e 72D9     		bls	.L63
 1215              		.loc 1 395 0
 1216 0020 4B4B     		ldr	r3, .L82+24
 1217 0022 1B78     		ldrb	r3, [r3]	@ zero_extendqisi2
 1218 0024 002B     		cmp	r3, #0
 1219 0026 6ED1     		bne	.L63
 1220              		.loc 1 395 0 is_stmt 0 discriminator 1
 1221 0028 4A4B     		ldr	r3, .L82+28
 1222 002a 1B78     		ldrb	r3, [r3]	@ zero_extendqisi2
 1223 002c 002B     		cmp	r3, #0
 1224 002e 6AD1     		bne	.L63
 1225              	.L64:
 396:..\src/utils.c ****             dev_tension_f = filter(dev_tension, &filt_v);
 1226              		.loc 1 396 0 is_stmt 1
 1227 0030 494B     		ldr	r3, .L82+32
 1228 0032 1B68     		ldr	r3, [r3]
 1229 0034 4949     		ldr	r1, .L82+36
 1230 0036 1846     		mov	r0, r3
 1231 0038 FFF7FEFF 		bl	filter
 1232 003c 0246     		mov	r2, r0
 1233 003e 484B     		ldr	r3, .L82+40
 1234 0040 1A60     		str	r2, [r3]
 397:..\src/utils.c ****             // Parrot: 0.9, 0.87
 398:..\src/utils.c ****             // ARTS: 0.87, 0.8
 399:..\src/utils.c ****             if (dev_tension_f > 0.95 * pow_tension){        // Sometimes pow_tension is not well co
 1235              		.loc 1 399 0
 1236 0042 474B     		ldr	r3, .L82+40
 1237 0044 1B68     		ldr	r3, [r3]
 1238 0046 1846     		mov	r0, r3
 1239 0048 FFF7FEFF 		bl	__aeabi_i2d
 1240 004c 0446     		mov	r4, r0
 1241 004e 0D46     		mov	r5, r1
 1242 0050 444B     		ldr	r3, .L82+44
 1243 0052 1B68     		ldr	r3, [r3]
ARM GAS  C:\Users\MattiaCP\AppData\Local\Temp\ccjRb3Rd.s 			page 30


 1244 0054 1846     		mov	r0, r3
 1245 0056 FFF7FEFF 		bl	__aeabi_i2d
 1246 005a 37A3     		adr	r3, .L82
 1247 005c D3E90023 		ldrd	r2, [r3]
 1248 0060 FFF7FEFF 		bl	__aeabi_dmul
 1249 0064 0246     		mov	r2, r0
 1250 0066 0B46     		mov	r3, r1
 1251 0068 2046     		mov	r0, r4
 1252 006a 2946     		mov	r1, r5
 1253 006c FFF7FEFF 		bl	__aeabi_dcmpgt
 1254 0070 0346     		mov	r3, r0
 1255 0072 002B     		cmp	r3, #0
 1256 0074 0BD0     		beq	.L79
 400:..\src/utils.c ****                 //fixed
 401:..\src/utils.c ****                 if (!maintenance_flag)
 1257              		.loc 1 401 0
 1258 0076 3C4B     		ldr	r3, .L82+48
 1259 0078 1B78     		ldrb	r3, [r3]	@ zero_extendqisi2
 1260 007a 002B     		cmp	r3, #0
 1261 007c 03D1     		bne	.L67
 402:..\src/utils.c ****                     LED_control(0);     // NO LIGHT - all leds off
 1262              		.loc 1 402 0
 1263 007e 0020     		movs	r0, #0
 1264 0080 FFF7FEFF 		bl	LED_control
 399:..\src/utils.c ****                 //fixed
 1265              		.loc 1 399 0
 1266 0084 55E0     		b	.L75
 1267              	.L67:
 403:..\src/utils.c ****                 else
 404:..\src/utils.c ****                     LED_control(4);     // yellow light - fixed
 1268              		.loc 1 404 0
 1269 0086 0420     		movs	r0, #4
 1270 0088 FFF7FEFF 		bl	LED_control
 399:..\src/utils.c ****                 //fixed
 1271              		.loc 1 399 0
 1272 008c 51E0     		b	.L75
 1273              	.L79:
 405:..\src/utils.c ****             }
 406:..\src/utils.c ****             
 407:..\src/utils.c ****             else {
 408:..\src/utils.c ****                 if (dev_tension_f > 0.9 * pow_tension) {
 1274              		.loc 1 408 0
 1275 008e 344B     		ldr	r3, .L82+40
 1276 0090 1B68     		ldr	r3, [r3]
 1277 0092 1846     		mov	r0, r3
 1278 0094 FFF7FEFF 		bl	__aeabi_i2d
 1279 0098 0446     		mov	r4, r0
 1280 009a 0D46     		mov	r5, r1
 1281 009c 314B     		ldr	r3, .L82+44
 1282 009e 1B68     		ldr	r3, [r3]
 1283 00a0 1846     		mov	r0, r3
 1284 00a2 FFF7FEFF 		bl	__aeabi_i2d
 1285 00a6 26A3     		adr	r3, .L82+8
 1286 00a8 D3E90023 		ldrd	r2, [r3]
 1287 00ac FFF7FEFF 		bl	__aeabi_dmul
 1288 00b0 0246     		mov	r2, r0
 1289 00b2 0B46     		mov	r3, r1
ARM GAS  C:\Users\MattiaCP\AppData\Local\Temp\ccjRb3Rd.s 			page 31


 1290 00b4 2046     		mov	r0, r4
 1291 00b6 2946     		mov	r1, r5
 1292 00b8 FFF7FEFF 		bl	__aeabi_dcmpgt
 1293 00bc 0346     		mov	r3, r0
 1294 00be 002B     		cmp	r3, #0
 1295 00c0 0ED0     		beq	.L80
 409:..\src/utils.c ****                     //yellow light - blink @ 0.5 Hz
 410:..\src/utils.c ****                     //LED_control(2);   
 411:..\src/utils.c ****                     
 412:..\src/utils.c ****                     if (!maintenance_flag)
 1296              		.loc 1 412 0
 1297 00c2 294B     		ldr	r3, .L82+48
 1298 00c4 1B78     		ldrb	r3, [r3]	@ zero_extendqisi2
 1299 00c6 002B     		cmp	r3, #0
 1300 00c8 03D1     		bne	.L72
 413:..\src/utils.c ****                         LED_control(0);     // NO LIGHT - all leds off
 1301              		.loc 1 413 0
 1302 00ca 0020     		movs	r0, #0
 1303 00cc FFF7FEFF 		bl	LED_control
 1304 00d0 02E0     		b	.L73
 1305              	.L72:
 414:..\src/utils.c ****                     else
 415:..\src/utils.c ****                         LED_control(4);     // yellow light - fixed
 1306              		.loc 1 415 0
 1307 00d2 0420     		movs	r0, #4
 1308 00d4 FFF7FEFF 		bl	LED_control
 1309              	.L73:
 416:..\src/utils.c ****                     
 417:..\src/utils.c ****                     v_count_lb = 0;    // Reset counter whenever battery is not totally out of char
 1310              		.loc 1 417 0
 1311 00d8 244B     		ldr	r3, .L82+52
 1312 00da 0022     		movs	r2, #0
 1313 00dc 1A60     		str	r2, [r3]
 399:..\src/utils.c ****                 //fixed
 1314              		.loc 1 399 0
 1315 00de 28E0     		b	.L75
 1316              	.L80:
 418:..\src/utils.c ****                 }
 419:..\src/utils.c ****                 else {
 420:..\src/utils.c ****                     //red light - blink @ 2.5 Hz
 421:..\src/utils.c ****                     //LED_control(3);
 422:..\src/utils.c ****                 
 423:..\src/utils.c ****                     if (v_count_lb >= 10000){                    
 1317              		.loc 1 423 0
 1318 00e0 224B     		ldr	r3, .L82+52
 1319 00e2 1B68     		ldr	r3, [r3]
 1320 00e4 42F20F72 		movw	r2, #9999
 1321 00e8 9342     		cmp	r3, r2
 1322 00ea 06D9     		bls	.L74
 424:..\src/utils.c ****                         
 425:..\src/utils.c ****                         //battery_low_SoC = 1;
 426:..\src/utils.c ****                         
 427:..\src/utils.c ****                         //red light - blink @ 2.5 Hz
 428:..\src/utils.c ****                         LED_control(3);
 1323              		.loc 1 428 0
 1324 00ec 0320     		movs	r0, #3
 1325 00ee FFF7FEFF 		bl	LED_control
ARM GAS  C:\Users\MattiaCP\AppData\Local\Temp\ccjRb3Rd.s 			page 32


 429:..\src/utils.c ****                         
 430:..\src/utils.c ****                         rest_enabled = 0;
 1326              		.loc 1 430 0
 1327 00f2 1F4B     		ldr	r3, .L82+56
 1328 00f4 0022     		movs	r2, #0
 1329 00f6 1A70     		strb	r2, [r3]
 399:..\src/utils.c ****                 //fixed
 1330              		.loc 1 399 0
 1331 00f8 1BE0     		b	.L75
 1332              	.L74:
 431:..\src/utils.c ****                     }
 432:..\src/utils.c ****                     else{
 433:..\src/utils.c ****                         v_count_lb = v_count_lb + 1;
 1333              		.loc 1 433 0
 1334 00fa 1C4B     		ldr	r3, .L82+52
 1335 00fc 1B68     		ldr	r3, [r3]
 1336 00fe 0133     		adds	r3, r3, #1
 1337 0100 1A4A     		ldr	r2, .L82+52
 1338 0102 1360     		str	r3, [r2]
 399:..\src/utils.c ****                 //fixed
 1339              		.loc 1 399 0
 1340 0104 15E0     		b	.L75
 1341              	.L63:
 434:..\src/utils.c ****                     }                
 435:..\src/utils.c ****                 }
 436:..\src/utils.c ****             }
 437:..\src/utils.c ****             
 438:..\src/utils.c ****         }
 439:..\src/utils.c ****         else {
 440:..\src/utils.c ****             if ((c_mem.input_mode <= 1) || (c_mem.input_mode > 1 && emg_1_status == NORMAL && emg_2
 1342              		.loc 1 440 0
 1343 0106 114B     		ldr	r3, .L82+20
 1344 0108 93F83530 		ldrb	r3, [r3, #53]	@ zero_extendqisi2
 1345 010c 012B     		cmp	r3, #1
 1346 010e 0CD9     		bls	.L76
 1347              		.loc 1 440 0 is_stmt 0 discriminator 1
 1348 0110 0E4B     		ldr	r3, .L82+20
 1349 0112 93F83530 		ldrb	r3, [r3, #53]	@ zero_extendqisi2
 1350 0116 012B     		cmp	r3, #1
 1351 0118 0BD9     		bls	.L81
 1352              		.loc 1 440 0 discriminator 2
 1353 011a 0D4B     		ldr	r3, .L82+24
 1354 011c 1B78     		ldrb	r3, [r3]	@ zero_extendqisi2
 1355 011e 002B     		cmp	r3, #0
 1356 0120 07D1     		bne	.L81
 1357              		.loc 1 440 0 discriminator 3
 1358 0122 0C4B     		ldr	r3, .L82+28
 1359 0124 1B78     		ldrb	r3, [r3]	@ zero_extendqisi2
 1360 0126 002B     		cmp	r3, #0
 1361 0128 03D1     		bne	.L81
 1362              	.L76:
 441:..\src/utils.c ****                 LED_control(5);     // Default - red light
 1363              		.loc 1 441 0 is_stmt 1
 1364 012a 0520     		movs	r0, #5
 1365 012c FFF7FEFF 		bl	LED_control
 442:..\src/utils.c ****             }
 443:..\src/utils.c ****         }
ARM GAS  C:\Users\MattiaCP\AppData\Local\Temp\ccjRb3Rd.s 			page 33


 444:..\src/utils.c ****     /*
 445:..\src/utils.c ****     }
 446:..\src/utils.c ****     */  
 447:..\src/utils.c **** }
 1366              		.loc 1 447 0
 1367 0130 FFE7     		b	.L81
 1368              	.L75:
 1369              	.L81:
 1370 0132 00BF     		nop
 1371 0134 B0BD     		pop	{r4, r5, r7, pc}
 1372              	.L83:
 1373 0136 00BF     		.align	3
 1374              	.L82:
 1375 0138 66666666 		.word	1717986918
 1376 013c 6666EE3F 		.word	1072588390
 1377 0140 CDCCCCCC 		.word	-858993459
 1378 0144 CCCCEC3F 		.word	1072483532
 1379 0148 00000000 		.word	tension_valid
 1380 014c 00000000 		.word	c_mem
 1381 0150 00000000 		.word	emg_1_status
 1382 0154 00000000 		.word	emg_2_status
 1383 0158 00000000 		.word	dev_tension
 1384 015c 00000000 		.word	filt_v
 1385 0160 00000000 		.word	dev_tension_f
 1386 0164 00000000 		.word	pow_tension
 1387 0168 00000000 		.word	maintenance_flag
 1388 016c 20000000 		.word	v_count_lb.9992
 1389 0170 00000000 		.word	rest_enabled
 1390              		.cfi_endproc
 1391              	.LFE72:
 1392              		.size	battery_management, .-battery_management
 1393              		.section	.text.reset_counters,"ax",%progbits
 1394              		.align	2
 1395              		.global	reset_counters
 1396              		.thumb
 1397              		.thumb_func
 1398              		.type	reset_counters, %function
 1399              	reset_counters:
 1400              	.LFB73:
 448:..\src/utils.c **** 
 449:..\src/utils.c **** //==============================================================================
 450:..\src/utils.c **** //                                                              RESET COUNTERS
 451:..\src/utils.c **** //==============================================================================
 452:..\src/utils.c **** void reset_counters() {
 1401              		.loc 1 452 0
 1402              		.cfi_startproc
 1403              		@ args = 0, pretend = 0, frame = 8
 1404              		@ frame_needed = 1, uses_anonymous_args = 0
 1405              		@ link register save eliminated.
 1406 0000 80B4     		push	{r7}
 1407              		.cfi_def_cfa_offset 4
 1408              		.cfi_offset 7, -4
 1409 0002 83B0     		sub	sp, sp, #12
 1410              		.cfi_def_cfa_offset 16
 1411 0004 00AF     		add	r7, sp, #0
 1412              		.cfi_def_cfa_register 7
 453:..\src/utils.c ****     uint8 i;
ARM GAS  C:\Users\MattiaCP\AppData\Local\Temp\ccjRb3Rd.s 			page 34


 454:..\src/utils.c ****     
 455:..\src/utils.c ****     // Initialize counters        
 456:..\src/utils.c ****     g_mem.emg_counter[0] = g_mem.emg_counter[1] = 0;
 1413              		.loc 1 456 0
 1414 0006 1E4B     		ldr	r3, .L89
 1415 0008 0022     		movs	r2, #0
 1416 000a C3F8C420 		str	r2, [r3, #196]
 1417 000e 1C4B     		ldr	r3, .L89
 1418 0010 D3F8C430 		ldr	r3, [r3, #196]
 1419 0014 1A4A     		ldr	r2, .L89
 1420 0016 C2F8C030 		str	r3, [r2, #192]
 457:..\src/utils.c ****     for(i = 0; i< 10; i++){
 1421              		.loc 1 457 0
 1422 001a 0023     		movs	r3, #0
 1423 001c FB71     		strb	r3, [r7, #7]
 1424 001e 08E0     		b	.L85
 1425              	.L86:
 458:..\src/utils.c ****         g_mem.position_hist[i] = 0;
 1426              		.loc 1 458 0 discriminator 3
 1427 0020 FB79     		ldrb	r3, [r7, #7]	@ zero_extendqisi2
 1428 0022 174A     		ldr	r2, .L89
 1429 0024 3233     		adds	r3, r3, #50
 1430 0026 0021     		movs	r1, #0
 1431 0028 42F82310 		str	r1, [r2, r3, lsl #2]
 457:..\src/utils.c ****     for(i = 0; i< 10; i++){
 1432              		.loc 1 457 0 discriminator 3
 1433 002c FB79     		ldrb	r3, [r7, #7]	@ zero_extendqisi2
 1434 002e 0133     		adds	r3, r3, #1
 1435 0030 FB71     		strb	r3, [r7, #7]
 1436              	.L85:
 457:..\src/utils.c ****     for(i = 0; i< 10; i++){
 1437              		.loc 1 457 0 is_stmt 0 discriminator 1
 1438 0032 FB79     		ldrb	r3, [r7, #7]	@ zero_extendqisi2
 1439 0034 092B     		cmp	r3, #9
 1440 0036 F3D9     		bls	.L86
 459:..\src/utils.c ****     }
 460:..\src/utils.c ****     for(i = 0; i< 4; i++){
 1441              		.loc 1 460 0 is_stmt 1
 1442 0038 0023     		movs	r3, #0
 1443 003a FB71     		strb	r3, [r7, #7]
 1444 003c 08E0     		b	.L87
 1445              	.L88:
 461:..\src/utils.c ****         g_mem.current_hist[i] = 0;
 1446              		.loc 1 461 0 discriminator 3
 1447 003e FB79     		ldrb	r3, [r7, #7]	@ zero_extendqisi2
 1448 0040 0F4A     		ldr	r2, .L89
 1449 0042 3C33     		adds	r3, r3, #60
 1450 0044 0021     		movs	r1, #0
 1451 0046 42F82310 		str	r1, [r2, r3, lsl #2]
 460:..\src/utils.c ****         g_mem.current_hist[i] = 0;
 1452              		.loc 1 460 0 discriminator 3
 1453 004a FB79     		ldrb	r3, [r7, #7]	@ zero_extendqisi2
 1454 004c 0133     		adds	r3, r3, #1
 1455 004e FB71     		strb	r3, [r7, #7]
 1456              	.L87:
 460:..\src/utils.c ****         g_mem.current_hist[i] = 0;
 1457              		.loc 1 460 0 is_stmt 0 discriminator 1
ARM GAS  C:\Users\MattiaCP\AppData\Local\Temp\ccjRb3Rd.s 			page 35


 1458 0050 FB79     		ldrb	r3, [r7, #7]	@ zero_extendqisi2
 1459 0052 032B     		cmp	r3, #3
 1460 0054 F3D9     		bls	.L88
 462:..\src/utils.c ****     }
 463:..\src/utils.c ****     g_mem.rest_counter = 0;
 1461              		.loc 1 463 0 is_stmt 1
 1462 0056 0A4B     		ldr	r3, .L89
 1463 0058 0022     		movs	r2, #0
 1464 005a C3F80021 		str	r2, [r3, #256]
 464:..\src/utils.c ****     g_mem.wire_disp = 0;
 1465              		.loc 1 464 0
 1466 005e 084B     		ldr	r3, .L89
 1467 0060 0022     		movs	r2, #0
 1468 0062 C3F80421 		str	r2, [r3, #260]
 465:..\src/utils.c ****     g_mem.total_time_on = 0;
 1469              		.loc 1 465 0
 1470 0066 064B     		ldr	r3, .L89
 1471 0068 0022     		movs	r2, #0
 1472 006a C3F80821 		str	r2, [r3, #264]
 466:..\src/utils.c ****     g_mem.total_time_rest = 0; 
 1473              		.loc 1 466 0
 1474 006e 044B     		ldr	r3, .L89
 1475 0070 0022     		movs	r2, #0
 1476 0072 C3F80C21 		str	r2, [r3, #268]
 467:..\src/utils.c **** }
 1477              		.loc 1 467 0
 1478 0076 00BF     		nop
 1479 0078 0C37     		adds	r7, r7, #12
 1480              		.cfi_def_cfa_offset 4
 1481 007a BD46     		mov	sp, r7
 1482              		.cfi_def_cfa_register 13
 1483              		@ sp needed
 1484 007c 80BC     		pop	{r7}
 1485              		.cfi_restore 7
 1486              		.cfi_def_cfa_offset 0
 1487 007e 7047     		bx	lr
 1488              	.L90:
 1489              		.align	2
 1490              	.L89:
 1491 0080 00000000 		.word	g_mem
 1492              		.cfi_endproc
 1493              	.LFE73:
 1494              		.size	reset_counters, .-reset_counters
 1495              		.global	__aeabi_fsub
 1496              		.section	.text.invSqrt,"ax",%progbits
 1497              		.align	2
 1498              		.global	invSqrt
 1499              		.thumb
 1500              		.thumb_func
 1501              		.type	invSqrt, %function
 1502              	invSqrt:
 1503              	.LFB74:
 468:..\src/utils.c **** 
 469:..\src/utils.c **** 
 470:..\src/utils.c **** //==============================================================================
 471:..\src/utils.c **** //                                                                       INVSQRT
 472:..\src/utils.c **** //==============================================================================
ARM GAS  C:\Users\MattiaCP\AppData\Local\Temp\ccjRb3Rd.s 			page 36


 473:..\src/utils.c **** float invSqrt(float x) {
 1504              		.loc 1 473 0
 1505              		.cfi_startproc
 1506              		@ args = 0, pretend = 0, frame = 24
 1507              		@ frame_needed = 1, uses_anonymous_args = 0
 1508 0000 80B5     		push	{r7, lr}
 1509              		.cfi_def_cfa_offset 8
 1510              		.cfi_offset 7, -8
 1511              		.cfi_offset 14, -4
 1512 0002 86B0     		sub	sp, sp, #24
 1513              		.cfi_def_cfa_offset 32
 1514 0004 00AF     		add	r7, sp, #0
 1515              		.cfi_def_cfa_register 7
 1516 0006 7860     		str	r0, [r7, #4]	@ float
 474:..\src/utils.c **** 	float halfx = 0.5f * x;
 1517              		.loc 1 474 0
 1518 0008 4FF07C51 		mov	r1, #1056964608
 1519 000c 7868     		ldr	r0, [r7, #4]	@ float
 1520 000e FFF7FEFF 		bl	__aeabi_fmul
 1521 0012 0346     		mov	r3, r0
 1522 0014 7B61     		str	r3, [r7, #20]	@ float
 475:..\src/utils.c **** 	float y = x;
 1523              		.loc 1 475 0
 1524 0016 7B68     		ldr	r3, [r7, #4]	@ float
 1525 0018 3B61     		str	r3, [r7, #16]	@ float
 476:..\src/utils.c **** 	long i = *(long*)&y;
 1526              		.loc 1 476 0
 1527 001a 07F11003 		add	r3, r7, #16
 1528 001e 1B68     		ldr	r3, [r3]
 1529 0020 FB60     		str	r3, [r7, #12]
 477:..\src/utils.c **** 	i = 0x5f3759df - (i>>1);
 1530              		.loc 1 477 0
 1531 0022 FB68     		ldr	r3, [r7, #12]
 1532 0024 5A10     		asrs	r2, r3, #1
 1533 0026 134B     		ldr	r3, .L93
 1534 0028 9B1A     		subs	r3, r3, r2
 1535 002a FB60     		str	r3, [r7, #12]
 478:..\src/utils.c **** 	y = *(float*)&i;
 1536              		.loc 1 478 0
 1537 002c 07F10C03 		add	r3, r7, #12
 1538 0030 1B68     		ldr	r3, [r3]	@ float
 1539 0032 3B61     		str	r3, [r7, #16]	@ float
 479:..\src/utils.c **** 	y = y * (1.5f - (halfx * y * y));
 1540              		.loc 1 479 0
 1541 0034 3B69     		ldr	r3, [r7, #16]	@ float
 1542 0036 7969     		ldr	r1, [r7, #20]	@ float
 1543 0038 1846     		mov	r0, r3
 1544 003a FFF7FEFF 		bl	__aeabi_fmul
 1545 003e 0346     		mov	r3, r0
 1546 0040 1A46     		mov	r2, r3
 1547 0042 3B69     		ldr	r3, [r7, #16]	@ float
 1548 0044 1946     		mov	r1, r3
 1549 0046 1046     		mov	r0, r2
 1550 0048 FFF7FEFF 		bl	__aeabi_fmul
 1551 004c 0346     		mov	r3, r0
 1552 004e 1946     		mov	r1, r3
 1553 0050 4FF07F50 		mov	r0, #1069547520
ARM GAS  C:\Users\MattiaCP\AppData\Local\Temp\ccjRb3Rd.s 			page 37


 1554 0054 FFF7FEFF 		bl	__aeabi_fsub
 1555 0058 0346     		mov	r3, r0
 1556 005a 1A46     		mov	r2, r3
 1557 005c 3B69     		ldr	r3, [r7, #16]	@ float
 1558 005e 1946     		mov	r1, r3
 1559 0060 1046     		mov	r0, r2
 1560 0062 FFF7FEFF 		bl	__aeabi_fmul
 1561 0066 0346     		mov	r3, r0
 1562 0068 3B61     		str	r3, [r7, #16]	@ float
 480:..\src/utils.c **** 	return y;
 1563              		.loc 1 480 0
 1564 006a 3B69     		ldr	r3, [r7, #16]	@ float
 481:..\src/utils.c **** }
 1565              		.loc 1 481 0
 1566 006c 1846     		mov	r0, r3
 1567 006e 1837     		adds	r7, r7, #24
 1568              		.cfi_def_cfa_offset 8
 1569 0070 BD46     		mov	sp, r7
 1570              		.cfi_def_cfa_register 13
 1571              		@ sp needed
 1572 0072 80BD     		pop	{r7, pc}
 1573              	.L94:
 1574              		.align	2
 1575              	.L93:
 1576 0074 DF59375F 		.word	1597463007
 1577              		.cfi_endproc
 1578              	.LFE74:
 1579              		.size	invSqrt, .-invSqrt
 1580              		.section	.text.v3_normalize,"ax",%progbits
 1581              		.align	2
 1582              		.global	v3_normalize
 1583              		.thumb
 1584              		.thumb_func
 1585              		.type	v3_normalize, %function
 1586              	v3_normalize:
 1587              	.LFB75:
 482:..\src/utils.c **** 
 483:..\src/utils.c **** //==============================================================================
 484:..\src/utils.c **** //                                                                  V3_NORMALIZE
 485:..\src/utils.c **** //==============================================================================
 486:..\src/utils.c **** void v3_normalize(float v3_in[3]){
 1588              		.loc 1 486 0
 1589              		.cfi_startproc
 1590              		@ args = 0, pretend = 0, frame = 16
 1591              		@ frame_needed = 1, uses_anonymous_args = 0
 1592 0000 90B5     		push	{r4, r7, lr}
 1593              		.cfi_def_cfa_offset 12
 1594              		.cfi_offset 4, -12
 1595              		.cfi_offset 7, -8
 1596              		.cfi_offset 14, -4
 1597 0002 85B0     		sub	sp, sp, #20
 1598              		.cfi_def_cfa_offset 32
 1599 0004 00AF     		add	r7, sp, #0
 1600              		.cfi_def_cfa_register 7
 1601 0006 7860     		str	r0, [r7, #4]
 487:..\src/utils.c ****     // Vector 3 normalization
 488:..\src/utils.c ****     float norm = invSqrt(v3_in[0] * v3_in[0] + v3_in[1] * v3_in[1] + v3_in[2] * v3_in[2]);
ARM GAS  C:\Users\MattiaCP\AppData\Local\Temp\ccjRb3Rd.s 			page 38


 1602              		.loc 1 488 0
 1603 0008 7B68     		ldr	r3, [r7, #4]
 1604 000a 1A68     		ldr	r2, [r3]	@ float
 1605 000c 7B68     		ldr	r3, [r7, #4]
 1606 000e 1B68     		ldr	r3, [r3]	@ float
 1607 0010 1946     		mov	r1, r3
 1608 0012 1046     		mov	r0, r2
 1609 0014 FFF7FEFF 		bl	__aeabi_fmul
 1610 0018 0346     		mov	r3, r0
 1611 001a 1C46     		mov	r4, r3
 1612 001c 7B68     		ldr	r3, [r7, #4]
 1613 001e 0433     		adds	r3, r3, #4
 1614 0020 1A68     		ldr	r2, [r3]	@ float
 1615 0022 7B68     		ldr	r3, [r7, #4]
 1616 0024 0433     		adds	r3, r3, #4
 1617 0026 1B68     		ldr	r3, [r3]	@ float
 1618 0028 1946     		mov	r1, r3
 1619 002a 1046     		mov	r0, r2
 1620 002c FFF7FEFF 		bl	__aeabi_fmul
 1621 0030 0346     		mov	r3, r0
 1622 0032 1946     		mov	r1, r3
 1623 0034 2046     		mov	r0, r4
 1624 0036 FFF7FEFF 		bl	__aeabi_fadd
 1625 003a 0346     		mov	r3, r0
 1626 003c 1C46     		mov	r4, r3
 1627 003e 7B68     		ldr	r3, [r7, #4]
 1628 0040 0833     		adds	r3, r3, #8
 1629 0042 1A68     		ldr	r2, [r3]	@ float
 1630 0044 7B68     		ldr	r3, [r7, #4]
 1631 0046 0833     		adds	r3, r3, #8
 1632 0048 1B68     		ldr	r3, [r3]	@ float
 1633 004a 1946     		mov	r1, r3
 1634 004c 1046     		mov	r0, r2
 1635 004e FFF7FEFF 		bl	__aeabi_fmul
 1636 0052 0346     		mov	r3, r0
 1637 0054 1946     		mov	r1, r3
 1638 0056 2046     		mov	r0, r4
 1639 0058 FFF7FEFF 		bl	__aeabi_fadd
 1640 005c 0346     		mov	r3, r0
 1641 005e 1846     		mov	r0, r3
 1642 0060 FFF7FEFF 		bl	invSqrt
 1643 0064 F860     		str	r0, [r7, #12]	@ float
 489:..\src/utils.c ****     
 490:..\src/utils.c ****     v3_in[0] = v3_in[0]*norm;
 1644              		.loc 1 490 0
 1645 0066 7B68     		ldr	r3, [r7, #4]
 1646 0068 1B68     		ldr	r3, [r3]	@ float
 1647 006a F968     		ldr	r1, [r7, #12]	@ float
 1648 006c 1846     		mov	r0, r3
 1649 006e FFF7FEFF 		bl	__aeabi_fmul
 1650 0072 0346     		mov	r3, r0
 1651 0074 1A46     		mov	r2, r3
 1652 0076 7B68     		ldr	r3, [r7, #4]
 1653 0078 1A60     		str	r2, [r3]	@ float
 491:..\src/utils.c ****     v3_in[1] = v3_in[1]*norm;
 1654              		.loc 1 491 0
 1655 007a 7B68     		ldr	r3, [r7, #4]
ARM GAS  C:\Users\MattiaCP\AppData\Local\Temp\ccjRb3Rd.s 			page 39


 1656 007c 1C1D     		adds	r4, r3, #4
 1657 007e 7B68     		ldr	r3, [r7, #4]
 1658 0080 0433     		adds	r3, r3, #4
 1659 0082 1B68     		ldr	r3, [r3]	@ float
 1660 0084 F968     		ldr	r1, [r7, #12]	@ float
 1661 0086 1846     		mov	r0, r3
 1662 0088 FFF7FEFF 		bl	__aeabi_fmul
 1663 008c 0346     		mov	r3, r0
 1664 008e 2360     		str	r3, [r4]	@ float
 492:..\src/utils.c ****     v3_in[2] = v3_in[2]*norm;
 1665              		.loc 1 492 0
 1666 0090 7B68     		ldr	r3, [r7, #4]
 1667 0092 03F10804 		add	r4, r3, #8
 1668 0096 7B68     		ldr	r3, [r7, #4]
 1669 0098 0833     		adds	r3, r3, #8
 1670 009a 1B68     		ldr	r3, [r3]	@ float
 1671 009c F968     		ldr	r1, [r7, #12]	@ float
 1672 009e 1846     		mov	r0, r3
 1673 00a0 FFF7FEFF 		bl	__aeabi_fmul
 1674 00a4 0346     		mov	r3, r0
 1675 00a6 2360     		str	r3, [r4]	@ float
 493:..\src/utils.c **** }
 1676              		.loc 1 493 0
 1677 00a8 00BF     		nop
 1678 00aa 1437     		adds	r7, r7, #20
 1679              		.cfi_def_cfa_offset 12
 1680 00ac BD46     		mov	sp, r7
 1681              		.cfi_def_cfa_register 13
 1682              		@ sp needed
 1683 00ae 90BD     		pop	{r4, r7, pc}
 1684              		.cfi_endproc
 1685              	.LFE75:
 1686              		.size	v3_normalize, .-v3_normalize
 1687              		.section	.text.v4_normalize,"ax",%progbits
 1688              		.align	2
 1689              		.global	v4_normalize
 1690              		.thumb
 1691              		.thumb_func
 1692              		.type	v4_normalize, %function
 1693              	v4_normalize:
 1694              	.LFB76:
 494:..\src/utils.c ****  
 495:..\src/utils.c **** //==============================================================================
 496:..\src/utils.c **** //                                                                  V4_NORMALIZE
 497:..\src/utils.c **** //==============================================================================
 498:..\src/utils.c **** void v4_normalize(float v4_in[4]){
 1695              		.loc 1 498 0
 1696              		.cfi_startproc
 1697              		@ args = 0, pretend = 0, frame = 16
 1698              		@ frame_needed = 1, uses_anonymous_args = 0
 1699 0000 90B5     		push	{r4, r7, lr}
 1700              		.cfi_def_cfa_offset 12
 1701              		.cfi_offset 4, -12
 1702              		.cfi_offset 7, -8
 1703              		.cfi_offset 14, -4
 1704 0002 85B0     		sub	sp, sp, #20
 1705              		.cfi_def_cfa_offset 32
ARM GAS  C:\Users\MattiaCP\AppData\Local\Temp\ccjRb3Rd.s 			page 40


 1706 0004 00AF     		add	r7, sp, #0
 1707              		.cfi_def_cfa_register 7
 1708 0006 7860     		str	r0, [r7, #4]
 499:..\src/utils.c ****     // Vector 4 normalization
 500:..\src/utils.c ****     float norm = invSqrt(v4_in[0] * v4_in[0] + v4_in[1] * v4_in[1] + v4_in[2] * v4_in[2] + v4_in[3]
 1709              		.loc 1 500 0
 1710 0008 7B68     		ldr	r3, [r7, #4]
 1711 000a 1A68     		ldr	r2, [r3]	@ float
 1712 000c 7B68     		ldr	r3, [r7, #4]
 1713 000e 1B68     		ldr	r3, [r3]	@ float
 1714 0010 1946     		mov	r1, r3
 1715 0012 1046     		mov	r0, r2
 1716 0014 FFF7FEFF 		bl	__aeabi_fmul
 1717 0018 0346     		mov	r3, r0
 1718 001a 1C46     		mov	r4, r3
 1719 001c 7B68     		ldr	r3, [r7, #4]
 1720 001e 0433     		adds	r3, r3, #4
 1721 0020 1A68     		ldr	r2, [r3]	@ float
 1722 0022 7B68     		ldr	r3, [r7, #4]
 1723 0024 0433     		adds	r3, r3, #4
 1724 0026 1B68     		ldr	r3, [r3]	@ float
 1725 0028 1946     		mov	r1, r3
 1726 002a 1046     		mov	r0, r2
 1727 002c FFF7FEFF 		bl	__aeabi_fmul
 1728 0030 0346     		mov	r3, r0
 1729 0032 1946     		mov	r1, r3
 1730 0034 2046     		mov	r0, r4
 1731 0036 FFF7FEFF 		bl	__aeabi_fadd
 1732 003a 0346     		mov	r3, r0
 1733 003c 1C46     		mov	r4, r3
 1734 003e 7B68     		ldr	r3, [r7, #4]
 1735 0040 0833     		adds	r3, r3, #8
 1736 0042 1A68     		ldr	r2, [r3]	@ float
 1737 0044 7B68     		ldr	r3, [r7, #4]
 1738 0046 0833     		adds	r3, r3, #8
 1739 0048 1B68     		ldr	r3, [r3]	@ float
 1740 004a 1946     		mov	r1, r3
 1741 004c 1046     		mov	r0, r2
 1742 004e FFF7FEFF 		bl	__aeabi_fmul
 1743 0052 0346     		mov	r3, r0
 1744 0054 1946     		mov	r1, r3
 1745 0056 2046     		mov	r0, r4
 1746 0058 FFF7FEFF 		bl	__aeabi_fadd
 1747 005c 0346     		mov	r3, r0
 1748 005e 1C46     		mov	r4, r3
 1749 0060 7B68     		ldr	r3, [r7, #4]
 1750 0062 0C33     		adds	r3, r3, #12
 1751 0064 1A68     		ldr	r2, [r3]	@ float
 1752 0066 7B68     		ldr	r3, [r7, #4]
 1753 0068 0C33     		adds	r3, r3, #12
 1754 006a 1B68     		ldr	r3, [r3]	@ float
 1755 006c 1946     		mov	r1, r3
 1756 006e 1046     		mov	r0, r2
 1757 0070 FFF7FEFF 		bl	__aeabi_fmul
 1758 0074 0346     		mov	r3, r0
 1759 0076 1946     		mov	r1, r3
 1760 0078 2046     		mov	r0, r4
ARM GAS  C:\Users\MattiaCP\AppData\Local\Temp\ccjRb3Rd.s 			page 41


 1761 007a FFF7FEFF 		bl	__aeabi_fadd
 1762 007e 0346     		mov	r3, r0
 1763 0080 1846     		mov	r0, r3
 1764 0082 FFF7FEFF 		bl	invSqrt
 1765 0086 F860     		str	r0, [r7, #12]	@ float
 501:..\src/utils.c ****     
 502:..\src/utils.c ****     v4_in[0] = v4_in[0]*norm;
 1766              		.loc 1 502 0
 1767 0088 7B68     		ldr	r3, [r7, #4]
 1768 008a 1B68     		ldr	r3, [r3]	@ float
 1769 008c F968     		ldr	r1, [r7, #12]	@ float
 1770 008e 1846     		mov	r0, r3
 1771 0090 FFF7FEFF 		bl	__aeabi_fmul
 1772 0094 0346     		mov	r3, r0
 1773 0096 1A46     		mov	r2, r3
 1774 0098 7B68     		ldr	r3, [r7, #4]
 1775 009a 1A60     		str	r2, [r3]	@ float
 503:..\src/utils.c ****     v4_in[1] = v4_in[1]*norm;
 1776              		.loc 1 503 0
 1777 009c 7B68     		ldr	r3, [r7, #4]
 1778 009e 1C1D     		adds	r4, r3, #4
 1779 00a0 7B68     		ldr	r3, [r7, #4]
 1780 00a2 0433     		adds	r3, r3, #4
 1781 00a4 1B68     		ldr	r3, [r3]	@ float
 1782 00a6 F968     		ldr	r1, [r7, #12]	@ float
 1783 00a8 1846     		mov	r0, r3
 1784 00aa FFF7FEFF 		bl	__aeabi_fmul
 1785 00ae 0346     		mov	r3, r0
 1786 00b0 2360     		str	r3, [r4]	@ float
 504:..\src/utils.c ****     v4_in[2] = v4_in[2]*norm;
 1787              		.loc 1 504 0
 1788 00b2 7B68     		ldr	r3, [r7, #4]
 1789 00b4 03F10804 		add	r4, r3, #8
 1790 00b8 7B68     		ldr	r3, [r7, #4]
 1791 00ba 0833     		adds	r3, r3, #8
 1792 00bc 1B68     		ldr	r3, [r3]	@ float
 1793 00be F968     		ldr	r1, [r7, #12]	@ float
 1794 00c0 1846     		mov	r0, r3
 1795 00c2 FFF7FEFF 		bl	__aeabi_fmul
 1796 00c6 0346     		mov	r3, r0
 1797 00c8 2360     		str	r3, [r4]	@ float
 505:..\src/utils.c ****     v4_in[3] = v4_in[3]*norm;
 1798              		.loc 1 505 0
 1799 00ca 7B68     		ldr	r3, [r7, #4]
 1800 00cc 03F10C04 		add	r4, r3, #12
 1801 00d0 7B68     		ldr	r3, [r7, #4]
 1802 00d2 0C33     		adds	r3, r3, #12
 1803 00d4 1B68     		ldr	r3, [r3]	@ float
 1804 00d6 F968     		ldr	r1, [r7, #12]	@ float
 1805 00d8 1846     		mov	r0, r3
 1806 00da FFF7FEFF 		bl	__aeabi_fmul
 1807 00de 0346     		mov	r3, r0
 1808 00e0 2360     		str	r3, [r4]	@ float
 506:..\src/utils.c **** }
 1809              		.loc 1 506 0
 1810 00e2 00BF     		nop
 1811 00e4 1437     		adds	r7, r7, #20
ARM GAS  C:\Users\MattiaCP\AppData\Local\Temp\ccjRb3Rd.s 			page 42


 1812              		.cfi_def_cfa_offset 12
 1813 00e6 BD46     		mov	sp, r7
 1814              		.cfi_def_cfa_register 13
 1815              		@ sp needed
 1816 00e8 90BD     		pop	{r4, r7, pc}
 1817              		.cfi_endproc
 1818              	.LFE76:
 1819              		.size	v4_normalize, .-v4_normalize
 1820 00ea 00BF     		.bss
 1821              		.align	2
 1822              	virtual_pos_friction.9935:
 1823 0000 00000000 		.space	4
 1824              		.align	2
 1825              	err_pos_dt.9936:
 1826 0004 00000000 		.space	4
 1827              	direction.9955:
 1828 0008 00       		.space	1
 1829 0009 00       		.align	1
 1830              	closure_counter.9956:
 1831 000a 0000     		.space	2
 1832              		.data
 1833              		.type	count_one.9957, %object
 1834              		.size	count_one.9957, 1
 1835              	count_one.9957:
 1836 0000 01       		.byte	1
 1837              		.type	first_time.9972, %object
 1838              		.size	first_time.9972, 1
 1839              	first_time.9972:
 1840 0001 01       		.byte	1
 1841              		.bss
 1842              		.align	2
 1843              	count.9970:
 1844 000c 00000000 		.space	4
 1845              		.data
 1846              		.type	flag_count.9971, %object
 1847              		.size	flag_count.9971, 1
 1848              	flag_count.9971:
 1849 0002 01       		.byte	1
 1850              		.bss
 1851              		.align	2
 1852              	m.9973:
 1853 0010 00000000 		.space	4
 1854              		.align	2
 1855              	abs_err_thr.9974:
 1856 0014 00000000 		.space	4
 1857              		.align	2
 1858              	rest_error.9977:
 1859 0018 00000000 		.space	4
 1860              		.align	2
 1861              	delta_inc.9975:
 1862 001c 00000000 		.space	4
 1863              		.align	2
 1864              	v_count_lb.9992:
 1865 0020 00000000 		.space	4
 1866              		.text
 1867              	.Letext0:
 1868              		.file 2 "c:\\program files (x86)\\cypress\\psoc creator\\4.2\\psoc creator\\import\\gnu\\arm\\5.4.
ARM GAS  C:\Users\MattiaCP\AppData\Local\Temp\ccjRb3Rd.s 			page 43


 1869              		.file 3 "c:\\program files (x86)\\cypress\\psoc creator\\4.2\\psoc creator\\import\\gnu\\arm\\5.4.
 1870              		.file 4 "Generated_Source\\PSoC5/cytypes.h"
 1871              		.file 5 "..\\src\\globals.h"
 1872              		.file 6 "Generated_Source\\PSoC5/core_cm3.h"