ARM GAS  C:\Users\Mattia\AppData\Local\Temp\ccUxgIpk.s 			page 1


   1              		.syntax unified
   2              		.cpu cortex-m3
   3              		.fpu softvfp
   4              		.eabi_attribute 20, 1
   5              		.eabi_attribute 21, 1
   6              		.eabi_attribute 23, 3
   7              		.eabi_attribute 24, 1
   8              		.eabi_attribute 25, 1
   9              		.eabi_attribute 26, 1
  10              		.eabi_attribute 30, 6
  11              		.eabi_attribute 34, 1
  12              		.eabi_attribute 18, 4
  13              		.thumb
  14              		.syntax unified
  15              		.file	"interruptions.c"
  16              		.text
  17              	.Ltext0:
  18              		.cfi_sections	.debug_frame
  19              		.section	.rodata
  20              		.align	2
  21              		.type	pwm_preload_values, %object
  22              		.size	pwm_preload_values, 29
  23              	pwm_preload_values:
  24 0000 64       		.byte	100
  25 0001 53       		.byte	83
  26 0002 4E       		.byte	78
  27 0003 4C       		.byte	76
  28 0004 4A       		.byte	74
  29 0005 48       		.byte	72
  30 0006 46       		.byte	70
  31 0007 44       		.byte	68
  32 0008 43       		.byte	67
  33 0009 41       		.byte	65
  34 000a 40       		.byte	64
  35 000b 3F       		.byte	63
  36 000c 3E       		.byte	62
  37 000d 3D       		.byte	61
  38 000e 3C       		.byte	60
  39 000f 3B       		.byte	59
  40 0010 3A       		.byte	58
  41 0011 39       		.byte	57
  42 0012 38       		.byte	56
  43 0013 38       		.byte	56
  44 0014 37       		.byte	55
  45 0015 36       		.byte	54
  46 0016 36       		.byte	54
  47 0017 35       		.byte	53
  48 0018 34       		.byte	52
  49 0019 34       		.byte	52
  50 001a 34       		.byte	52
  51 001b 33       		.byte	51
  52 001c 33       		.byte	51
  53              		.section	.text.ISR_RS485_RX_ExInterrupt,"ax",%progbits
  54              		.align	2
  55              		.global	ISR_RS485_RX_ExInterrupt
  56              		.thumb
  57              		.thumb_func
ARM GAS  C:\Users\Mattia\AppData\Local\Temp\ccUxgIpk.s 			page 2


  58              		.type	ISR_RS485_RX_ExInterrupt, %function
  59              	ISR_RS485_RX_ExInterrupt:
  60              	.LFB64:
  61              		.file 1 "..\\src\\interruptions.c"
   1:..\src/interruptions.c **** // ----------------------------------------------------------------------------
   2:..\src/interruptions.c **** // BSD 3-Clause License
   3:..\src/interruptions.c **** 
   4:..\src/interruptions.c **** // Copyright (c) 2016, qbrobotics
   5:..\src/interruptions.c **** // Copyright (c) 2017-2019, Centro "E.Piaggio"
   6:..\src/interruptions.c **** // All rights reserved.
   7:..\src/interruptions.c **** 
   8:..\src/interruptions.c **** // Redistribution and use in source and binary forms, with or without
   9:..\src/interruptions.c **** // modification, are permitted provided that the following conditions are met:
  10:..\src/interruptions.c **** 
  11:..\src/interruptions.c **** // * Redistributions of source code must retain the above copyright notice, this
  12:..\src/interruptions.c **** //   list of conditions and the following disclaimer.
  13:..\src/interruptions.c **** 
  14:..\src/interruptions.c **** // * Redistributions in binary form must reproduce the above copyright notice,
  15:..\src/interruptions.c **** //   this list of conditions and the following disclaimer in the documentation
  16:..\src/interruptions.c **** //   and/or other materials provided with the distribution.
  17:..\src/interruptions.c **** 
  18:..\src/interruptions.c **** // * Neither the name of the copyright holder nor the names of its
  19:..\src/interruptions.c **** //   contributors may be used to endorse or promote products derived from
  20:..\src/interruptions.c **** //   this software without specific prior written permission.
  21:..\src/interruptions.c **** 
  22:..\src/interruptions.c **** // THIS SOFTWARE IS PROVIDED BY THE COPYRIGHT HOLDERS AND CONTRIBUTORS "AS IS"
  23:..\src/interruptions.c **** // AND ANY EXPRESS OR IMPLIED WARRANTIES, INCLUDING, BUT NOT LIMITED TO, THE
  24:..\src/interruptions.c **** // IMPLIED WARRANTIES OF MERCHANTABILITY AND FITNESS FOR A PARTICULAR PURPOSE ARE
  25:..\src/interruptions.c **** // DISCLAIMED. IN NO EVENT SHALL THE COPYRIGHT HOLDER OR CONTRIBUTORS BE LIABLE
  26:..\src/interruptions.c **** // FOR ANY DIRECT, INDIRECT, INCIDENTAL, SPECIAL, EXEMPLARY, OR CONSEQUENTIAL
  27:..\src/interruptions.c **** // DAMAGES (INCLUDING, BUT NOT LIMITED TO, PROCUREMENT OF SUBSTITUTE GOODS OR
  28:..\src/interruptions.c **** // SERVICES; LOSS OF USE, DATA, OR PROFITS; OR BUSINESS INTERRUPTION) HOWEVER
  29:..\src/interruptions.c **** // CAUSED AND ON ANY THEORY OF LIABILITY, WHETHER IN CONTRACT, STRICT LIABILITY,
  30:..\src/interruptions.c **** // OR TORT (INCLUDING NEGLIGENCE OR OTHERWISE) ARISING IN ANY WAY OUT OF THE USE
  31:..\src/interruptions.c **** // OF THIS SOFTWARE, EVEN IF ADVISED OF THE POSSIBILITY OF SUCH DAMAGE.
  32:..\src/interruptions.c **** // POSSIBILITY OF SUCH DAMAGE.
  33:..\src/interruptions.c **** // ----------------------------------------------------------------------------
  34:..\src/interruptions.c **** 
  35:..\src/interruptions.c **** /**
  36:..\src/interruptions.c **** * \file         interruptions.c
  37:..\src/interruptions.c **** *
  38:..\src/interruptions.c **** * \brief        Interruption handling and firmware core functions
  39:..\src/interruptions.c **** * \date         October 01, 2017
  40:..\src/interruptions.c **** * \author       _Centro "E.Piaggio"_
  41:..\src/interruptions.c **** * \copyright    (C) 2012-2016 qbrobotics. All rights reserved.
  42:..\src/interruptions.c **** * \copyright    (C) 2017-2019 Centro "E.Piaggio". All rights reserved.
  43:..\src/interruptions.c **** */
  44:..\src/interruptions.c **** 
  45:..\src/interruptions.c **** 
  46:..\src/interruptions.c **** //=================================================================     includes
  47:..\src/interruptions.c **** #include "interruptions.h"
  48:..\src/interruptions.c **** 
  49:..\src/interruptions.c **** //==============================================================================
  50:..\src/interruptions.c **** //                                                            RS485 RX INTERRUPT
  51:..\src/interruptions.c **** //==============================================================================
  52:..\src/interruptions.c **** // Processing RS-485 data frame:
  53:..\src/interruptions.c **** //
ARM GAS  C:\Users\Mattia\AppData\Local\Temp\ccUxgIpk.s 			page 3


  54:..\src/interruptions.c **** // - 0:     Waits for beginning characters
  55:..\src/interruptions.c **** // - 1:     Waits for ID;
  56:..\src/interruptions.c **** // - 2:     Data length;
  57:..\src/interruptions.c **** // - 3:     Receive all bytes;
  58:..\src/interruptions.c **** // - 4:     Wait for another device end of transmission;
  59:..\src/interruptions.c **** //
  60:..\src/interruptions.c **** //==============================================================================
  61:..\src/interruptions.c **** 
  62:..\src/interruptions.c **** // PWM values needed to obtain 11.5 V given a certain input tension
  63:..\src/interruptions.c **** // Numbers are sperimentally calculated //[index] (millivolts)
  64:..\src/interruptions.c **** static const uint8 pwm_preload_values[29] = {100,    //0 (11500)
  65:..\src/interruptions.c ****                                               83,
  66:..\src/interruptions.c ****                                               78,
  67:..\src/interruptions.c ****                                               76,
  68:..\src/interruptions.c ****                                               74,
  69:..\src/interruptions.c ****                                               72,    //5 (14000)
  70:..\src/interruptions.c ****                                               70,
  71:..\src/interruptions.c ****                                               68,
  72:..\src/interruptions.c ****                                               67,
  73:..\src/interruptions.c ****                                               65,
  74:..\src/interruptions.c ****                                               64,    //10 (16500)
  75:..\src/interruptions.c ****                                               63,
  76:..\src/interruptions.c ****                                               62,
  77:..\src/interruptions.c ****                                               61,
  78:..\src/interruptions.c ****                                               60,
  79:..\src/interruptions.c ****                                               59,    //15 (19000)
  80:..\src/interruptions.c ****                                               58,
  81:..\src/interruptions.c ****                                               57,
  82:..\src/interruptions.c ****                                               56,
  83:..\src/interruptions.c ****                                               56,
  84:..\src/interruptions.c ****                                               55,    //20 (21500)
  85:..\src/interruptions.c ****                                               54,
  86:..\src/interruptions.c ****                                               54,
  87:..\src/interruptions.c ****                                               53,
  88:..\src/interruptions.c ****                                               52,
  89:..\src/interruptions.c ****                                               52,    //25 (24000)
  90:..\src/interruptions.c ****                                               52,
  91:..\src/interruptions.c ****                                               51,
  92:..\src/interruptions.c ****                                               51};   //28 (25500)
  93:..\src/interruptions.c **** 
  94:..\src/interruptions.c **** //==============================================================================
  95:..\src/interruptions.c **** //                                                            RS485 RX INTERRUPT
  96:..\src/interruptions.c **** //==============================================================================
  97:..\src/interruptions.c **** 
  98:..\src/interruptions.c **** CY_ISR(ISR_RS485_RX_ExInterrupt) {
  62              		.loc 1 98 0
  63              		.cfi_startproc
  64              		@ args = 0, pretend = 0, frame = 0
  65              		@ frame_needed = 1, uses_anonymous_args = 0
  66              		@ link register save eliminated.
  67 0000 80B4     		push	{r7}
  68              		.cfi_def_cfa_offset 4
  69              		.cfi_offset 7, -4
  70 0002 00AF     		add	r7, sp, #0
  71              		.cfi_def_cfa_register 7
  99:..\src/interruptions.c **** 
 100:..\src/interruptions.c ****     // Set RS485 flag
ARM GAS  C:\Users\Mattia\AppData\Local\Temp\ccUxgIpk.s 			page 4


 101:..\src/interruptions.c ****     
 102:..\src/interruptions.c ****     interrupt_flag = TRUE;
  72              		.loc 1 102 0
  73 0004 034B     		ldr	r3, .L2
  74 0006 0122     		movs	r2, #1
  75 0008 1A70     		strb	r2, [r3]
 103:..\src/interruptions.c ****      
 104:..\src/interruptions.c **** }
  76              		.loc 1 104 0
  77 000a 00BF     		nop
  78 000c BD46     		mov	sp, r7
  79              		.cfi_def_cfa_register 13
  80              		@ sp needed
  81 000e 80BC     		pop	{r7}
  82              		.cfi_restore 7
  83              		.cfi_def_cfa_offset 0
  84 0010 7047     		bx	lr
  85              	.L3:
  86 0012 00BF     		.align	2
  87              	.L2:
  88 0014 00000000 		.word	interrupt_flag
  89              		.cfi_endproc
  90              	.LFE64:
  91              		.size	ISR_RS485_RX_ExInterrupt, .-ISR_RS485_RX_ExInterrupt
  92              		.section	.text.ISR_CYCLES_Handler,"ax",%progbits
  93              		.align	2
  94              		.global	ISR_CYCLES_Handler
  95              		.thumb
  96              		.thumb_func
  97              		.type	ISR_CYCLES_Handler, %function
  98              	ISR_CYCLES_Handler:
  99              	.LFB65:
 105:..\src/interruptions.c **** 
 106:..\src/interruptions.c **** //==============================================================================
 107:..\src/interruptions.c **** //                                                        CYCLES TIMER INTERRUPT
 108:..\src/interruptions.c **** //==============================================================================
 109:..\src/interruptions.c **** CY_ISR(ISR_CYCLES_Handler){
 100              		.loc 1 109 0
 101              		.cfi_startproc
 102              		@ args = 0, pretend = 0, frame = 0
 103              		@ frame_needed = 1, uses_anonymous_args = 0
 104              		@ link register save eliminated.
 105 0000 80B4     		push	{r7}
 106              		.cfi_def_cfa_offset 4
 107              		.cfi_offset 7, -4
 108 0002 00AF     		add	r7, sp, #0
 109              		.cfi_def_cfa_register 7
 110:..\src/interruptions.c **** 
 111:..\src/interruptions.c ****     // Set cycles interrupt flag
 112:..\src/interruptions.c ****     
 113:..\src/interruptions.c ****     cycles_interrupt_flag = TRUE;
 110              		.loc 1 113 0
 111 0004 044B     		ldr	r3, .L5
 112 0006 0122     		movs	r2, #1
 113 0008 1A70     		strb	r2, [r3]
 114:..\src/interruptions.c ****     
 115:..\src/interruptions.c ****     CYCLES_TIMER_STATUS;
ARM GAS  C:\Users\Mattia\AppData\Local\Temp\ccUxgIpk.s 			page 5


 114              		.loc 1 115 0
 115 000a 044B     		ldr	r3, .L5+4
 116 000c 1B78     		ldrb	r3, [r3]
 116:..\src/interruptions.c **** 
 117:..\src/interruptions.c **** }
 117              		.loc 1 117 0
 118 000e 00BF     		nop
 119 0010 BD46     		mov	sp, r7
 120              		.cfi_def_cfa_register 13
 121              		@ sp needed
 122 0012 80BC     		pop	{r7}
 123              		.cfi_restore 7
 124              		.cfi_def_cfa_offset 0
 125 0014 7047     		bx	lr
 126              	.L6:
 127 0016 00BF     		.align	2
 128              	.L5:
 129 0018 00000000 		.word	cycles_interrupt_flag
 130 001c 034F0040 		.word	1073762051
 131              		.cfi_endproc
 132              	.LFE65:
 133              		.size	ISR_CYCLES_Handler, .-ISR_CYCLES_Handler
 134              		.section	.text.interrupt_manager,"ax",%progbits
 135              		.align	2
 136              		.global	interrupt_manager
 137              		.thumb
 138              		.thumb_func
 139              		.type	interrupt_manager, %function
 140              	interrupt_manager:
 141              	.LFB66:
 118:..\src/interruptions.c **** 
 119:..\src/interruptions.c **** //==============================================================================
 120:..\src/interruptions.c **** //                                                             INTERRUPT MANAGER
 121:..\src/interruptions.c **** //==============================================================================
 122:..\src/interruptions.c **** // Manage interrupt from RS485 
 123:..\src/interruptions.c **** //==============================================================================
 124:..\src/interruptions.c **** // Processing RS-485 data frame:
 125:..\src/interruptions.c **** //
 126:..\src/interruptions.c **** // - WAIT_START:    Waits for beginning characters;
 127:..\src/interruptions.c **** // - WAIT_ID:       Waits for ID;
 128:..\src/interruptions.c **** // - WAIT_LENGTH:   Data length;
 129:..\src/interruptions.c **** // - RECEIVE:       Receive all bytes;
 130:..\src/interruptions.c **** // - UNLOAD:        Wait for another device end of transmission;
 131:..\src/interruptions.c **** //
 132:..\src/interruptions.c **** //==============================================================================
 133:..\src/interruptions.c **** 
 134:..\src/interruptions.c **** void interrupt_manager(){
 142              		.loc 1 134 0
 143              		.cfi_startproc
 144              		@ args = 0, pretend = 0, frame = 8
 145              		@ frame_needed = 1, uses_anonymous_args = 0
 146 0000 80B5     		push	{r7, lr}
 147              		.cfi_def_cfa_offset 8
 148              		.cfi_offset 7, -8
 149              		.cfi_offset 14, -4
 150 0002 82B0     		sub	sp, sp, #8
 151              		.cfi_def_cfa_offset 16
ARM GAS  C:\Users\Mattia\AppData\Local\Temp\ccUxgIpk.s 			page 6


 152 0004 00AF     		add	r7, sp, #0
 153              		.cfi_def_cfa_register 7
 135:..\src/interruptions.c **** 
 136:..\src/interruptions.c ****     
 137:..\src/interruptions.c ****     //===========================================     local variables definition
 138:..\src/interruptions.c **** 
 139:..\src/interruptions.c ****     static uint8 CYDATA state = WAIT_START;                      // state
 140:..\src/interruptions.c ****     
 141:..\src/interruptions.c ****     //------------------------------------------------- local data packet
 142:..\src/interruptions.c ****     static uint8 CYDATA data_packet_index;
 143:..\src/interruptions.c ****     static uint8 CYDATA data_packet_length;
 144:..\src/interruptions.c ****     static uint8 data_packet_buffer[128];                     
 145:..\src/interruptions.c ****     static uint8 CYDATA rx_queue[3];                    // last 2 bytes received
 146:..\src/interruptions.c ****     //-------------------------------------------------
 147:..\src/interruptions.c **** 
 148:..\src/interruptions.c ****     uint8 CYDATA    rx_data;                            // RS485 UART rx data
 149:..\src/interruptions.c ****     CYBIT           rx_data_type = TRUE;                       // my id?
 154              		.loc 1 149 0
 155 0006 0123     		movs	r3, #1
 156 0008 FB71     		strb	r3, [r7, #7]
 150:..\src/interruptions.c ****     uint8 CYDATA    package_count = 0;                     
 157              		.loc 1 150 0
 158 000a 0023     		movs	r3, #0
 159 000c BB71     		strb	r3, [r7, #6]
 151:..\src/interruptions.c **** 
 152:..\src/interruptions.c ****     //======================================================     receive routine
 153:..\src/interruptions.c ****     
 154:..\src/interruptions.c ****     while(UART_RS485_GetRxBufferSize() && (package_count < 100)){
 160              		.loc 1 154 0
 161 000e E1E0     		b	.L8
 162              	.L28:
 155:..\src/interruptions.c ****         // 100 - estimated maximum number of packets we can read without blocking firmware executio
 156:..\src/interruptions.c **** 
 157:..\src/interruptions.c ****         // Get next char
 158:..\src/interruptions.c ****         rx_data = UART_RS485_GetChar();
 163              		.loc 1 158 0
 164 0010 FFF7FEFF 		bl	UART_RS485_GetChar
 165 0014 0346     		mov	r3, r0
 166 0016 7B71     		strb	r3, [r7, #5]
 159:..\src/interruptions.c ****         
 160:..\src/interruptions.c ****         switch (state) {
 167              		.loc 1 160 0
 168 0018 754B     		ldr	r3, .L31
 169 001a 1B78     		ldrb	r3, [r3]	@ zero_extendqisi2
 170 001c 042B     		cmp	r3, #4
 171 001e 00F2D980 		bhi	.L8
 172 0022 01A2     		adr	r2, .L10
 173 0024 52F823F0 		ldr	pc, [r2, r3, lsl #2]
 174              		.p2align 2
 175              	.L10:
 176 0028 3D000000 		.word	.L9+1
 177 002c A3000000 		.word	.L11+1
 178 0030 E3000000 		.word	.L12+1
 179 0034 31010000 		.word	.L13+1
 180 0038 9B010000 		.word	.L14+1
 181              		.p2align 1
 182              	.L9:
ARM GAS  C:\Users\Mattia\AppData\Local\Temp\ccUxgIpk.s 			page 7


 161:..\src/interruptions.c ****             //-----     wait for frame start     -------------------------------
 162:..\src/interruptions.c ****             case WAIT_START:
 163:..\src/interruptions.c ****             
 164:..\src/interruptions.c ****                 rx_queue[0] = rx_queue[1];
 183              		.loc 1 164 0
 184 003c 6D4B     		ldr	r3, .L31+4
 185 003e 5A78     		ldrb	r2, [r3, #1]	@ zero_extendqisi2
 186 0040 6C4B     		ldr	r3, .L31+4
 187 0042 1A70     		strb	r2, [r3]
 165:..\src/interruptions.c ****                 rx_queue[1] = rx_queue[2];
 188              		.loc 1 165 0
 189 0044 6B4B     		ldr	r3, .L31+4
 190 0046 9A78     		ldrb	r2, [r3, #2]	@ zero_extendqisi2
 191 0048 6A4B     		ldr	r3, .L31+4
 192 004a 5A70     		strb	r2, [r3, #1]
 166:..\src/interruptions.c ****                 rx_queue[2] = rx_data;
 193              		.loc 1 166 0
 194 004c 694A     		ldr	r2, .L31+4
 195 004e 7B79     		ldrb	r3, [r7, #5]
 196 0050 9370     		strb	r3, [r2, #2]
 167:..\src/interruptions.c ****                 
 168:..\src/interruptions.c ****                 // Check for header configuration package
 169:..\src/interruptions.c ****                 if ((rx_queue[1] == 58) && (rx_queue[2] == 58)) {
 197              		.loc 1 169 0
 198 0052 684B     		ldr	r3, .L31+4
 199 0054 5B78     		ldrb	r3, [r3, #1]	@ zero_extendqisi2
 200 0056 3A2B     		cmp	r3, #58
 201 0058 10D1     		bne	.L15
 202              		.loc 1 169 0 is_stmt 0 discriminator 1
 203 005a 664B     		ldr	r3, .L31+4
 204 005c 9B78     		ldrb	r3, [r3, #2]	@ zero_extendqisi2
 205 005e 3A2B     		cmp	r3, #58
 206 0060 0CD1     		bne	.L15
 170:..\src/interruptions.c ****                     rx_queue[0] = 0;
 207              		.loc 1 170 0 is_stmt 1
 208 0062 644B     		ldr	r3, .L31+4
 209 0064 0022     		movs	r2, #0
 210 0066 1A70     		strb	r2, [r3]
 171:..\src/interruptions.c ****                     rx_queue[1] = 0;
 211              		.loc 1 171 0
 212 0068 624B     		ldr	r3, .L31+4
 213 006a 0022     		movs	r2, #0
 214 006c 5A70     		strb	r2, [r3, #1]
 172:..\src/interruptions.c ****                     rx_queue[2] = 0;
 215              		.loc 1 172 0
 216 006e 614B     		ldr	r3, .L31+4
 217 0070 0022     		movs	r2, #0
 218 0072 9A70     		strb	r2, [r3, #2]
 173:..\src/interruptions.c ****                     state       = WAIT_ID;                    
 219              		.loc 1 173 0
 220 0074 5E4B     		ldr	r3, .L31
 221 0076 0122     		movs	r2, #1
 222 0078 1A70     		strb	r2, [r3]
 223 007a 11E0     		b	.L16
 224              	.L15:
 174:..\src/interruptions.c ****                 }else
 175:..\src/interruptions.c ****                     if ((rx_queue[0] == 63) &&      //ASCII - ?
ARM GAS  C:\Users\Mattia\AppData\Local\Temp\ccUxgIpk.s 			page 8


 225              		.loc 1 175 0
 226 007c 5D4B     		ldr	r3, .L31+4
 227 007e 1B78     		ldrb	r3, [r3]	@ zero_extendqisi2
 228 0080 3F2B     		cmp	r3, #63
 229 0082 40F0A780 		bne	.L8
 176:..\src/interruptions.c ****                         (rx_queue[1] == 13) &&      //ASCII - CR
 230              		.loc 1 176 0 discriminator 1
 231 0086 5B4B     		ldr	r3, .L31+4
 232 0088 5B78     		ldrb	r3, [r3, #1]	@ zero_extendqisi2
 175:..\src/interruptions.c ****                         (rx_queue[1] == 13) &&      //ASCII - CR
 233              		.loc 1 175 0 discriminator 1
 234 008a 0D2B     		cmp	r3, #13
 235 008c 40F0A280 		bne	.L8
 177:..\src/interruptions.c ****                         (rx_queue[2] == 10))        //ASCII - LF)
 236              		.loc 1 177 0
 237 0090 584B     		ldr	r3, .L31+4
 238 0092 9B78     		ldrb	r3, [r3, #2]	@ zero_extendqisi2
 176:..\src/interruptions.c ****                         (rx_queue[1] == 13) &&      //ASCII - CR
 239              		.loc 1 176 0
 240 0094 0A2B     		cmp	r3, #10
 241 0096 40F09D80 		bne	.L8
 178:..\src/interruptions.c ****                         infoGet(INFO_ALL);
 242              		.loc 1 178 0
 243 009a 0020     		movs	r0, #0
 244 009c FFF7FEFF 		bl	infoGet
 245              	.L16:
 179:..\src/interruptions.c ****                 break;
 246              		.loc 1 179 0
 247 00a0 98E0     		b	.L8
 248              	.L11:
 180:..\src/interruptions.c **** 
 181:..\src/interruptions.c ****             //-----     wait for id     ----------------------------------------
 182:..\src/interruptions.c ****             case  WAIT_ID:
 183:..\src/interruptions.c **** 
 184:..\src/interruptions.c ****                 // packet is for my ID or is broadcast
 185:..\src/interruptions.c **** #ifdef MASTER_FW
 186:..\src/interruptions.c ****                 if (rx_data == c_mem.dev.id || rx_data == 0 || (c_mem.MS.slave_comm_active && rx_da
 249              		.loc 1 186 0
 250 00a2 554B     		ldr	r3, .L31+8
 251 00a4 93F8A030 		ldrb	r3, [r3, #160]	@ zero_extendqisi2
 252 00a8 7A79     		ldrb	r2, [r7, #5]	@ zero_extendqisi2
 253 00aa 9A42     		cmp	r2, r3
 254 00ac 0DD0     		beq	.L17
 255              		.loc 1 186 0 is_stmt 0 discriminator 1
 256 00ae 7B79     		ldrb	r3, [r7, #5]	@ zero_extendqisi2
 257 00b0 002B     		cmp	r3, #0
 258 00b2 0AD0     		beq	.L17
 259              		.loc 1 186 0 discriminator 2
 260 00b4 504B     		ldr	r3, .L31+8
 261 00b6 93F8B032 		ldrb	r3, [r3, #688]	@ zero_extendqisi2
 262 00ba 002B     		cmp	r3, #0
 263 00bc 08D0     		beq	.L18
 264              		.loc 1 186 0 discriminator 3
 265 00be 4E4B     		ldr	r3, .L31+8
 266 00c0 93F8B132 		ldrb	r3, [r3, #689]	@ zero_extendqisi2
 267 00c4 7A79     		ldrb	r2, [r7, #5]	@ zero_extendqisi2
 268 00c6 9A42     		cmp	r2, r3
ARM GAS  C:\Users\Mattia\AppData\Local\Temp\ccUxgIpk.s 			page 9


 269 00c8 02D1     		bne	.L18
 270              	.L17:
 187:..\src/interruptions.c ****                    rx_data_type = FALSE;
 271              		.loc 1 187 0 is_stmt 1
 272 00ca 0023     		movs	r3, #0
 273 00cc FB71     		strb	r3, [r7, #7]
 274 00ce 01E0     		b	.L19
 275              	.L18:
 188:..\src/interruptions.c ****                 else                //packet is for others
 189:..\src/interruptions.c ****                     rx_data_type = TRUE;
 276              		.loc 1 189 0
 277 00d0 0123     		movs	r3, #1
 278 00d2 FB71     		strb	r3, [r7, #7]
 279              	.L19:
 190:..\src/interruptions.c **** #else
 191:..\src/interruptions.c ****                 if (rx_data == c_mem.dev.id || rx_data == 0)
 192:..\src/interruptions.c ****                     rx_data_type = FALSE;
 193:..\src/interruptions.c ****                 else                //packet is for others
 194:..\src/interruptions.c ****                     rx_data_type = TRUE;
 195:..\src/interruptions.c **** #endif                
 196:..\src/interruptions.c ****                 data_packet_length = 0;
 280              		.loc 1 196 0
 281 00d4 494B     		ldr	r3, .L31+12
 282 00d6 0022     		movs	r2, #0
 283 00d8 1A70     		strb	r2, [r3]
 197:..\src/interruptions.c ****                 state = WAIT_LENGTH;
 284              		.loc 1 197 0
 285 00da 454B     		ldr	r3, .L31
 286 00dc 0222     		movs	r2, #2
 287 00de 1A70     		strb	r2, [r3]
 198:..\src/interruptions.c ****                 break;
 288              		.loc 1 198 0
 289 00e0 78E0     		b	.L8
 290              	.L12:
 199:..\src/interruptions.c **** 
 200:..\src/interruptions.c ****             //-----     wait for length     ------------------------------------
 201:..\src/interruptions.c ****             case  WAIT_LENGTH:
 202:..\src/interruptions.c **** 
 203:..\src/interruptions.c ****                 data_packet_length = rx_data;
 291              		.loc 1 203 0
 292 00e2 464A     		ldr	r2, .L31+12
 293 00e4 7B79     		ldrb	r3, [r7, #5]
 294 00e6 1370     		strb	r3, [r2]
 204:..\src/interruptions.c ****                 // check validity of pack length
 205:..\src/interruptions.c ****                 if (data_packet_length <= 1) {
 295              		.loc 1 205 0
 296 00e8 444B     		ldr	r3, .L31+12
 297 00ea 1B78     		ldrb	r3, [r3]	@ zero_extendqisi2
 298 00ec 012B     		cmp	r3, #1
 299 00ee 06D8     		bhi	.L20
 206:..\src/interruptions.c ****                     data_packet_length = 0;
 300              		.loc 1 206 0
 301 00f0 424B     		ldr	r3, .L31+12
 302 00f2 0022     		movs	r2, #0
 303 00f4 1A70     		strb	r2, [r3]
 207:..\src/interruptions.c ****                     state = WAIT_START;
 304              		.loc 1 207 0
ARM GAS  C:\Users\Mattia\AppData\Local\Temp\ccUxgIpk.s 			page 10


 305 00f6 3E4B     		ldr	r3, .L31
 306 00f8 0022     		movs	r2, #0
 307 00fa 1A70     		strb	r2, [r3]
 308 00fc 6AE0     		b	.L8
 309              	.L20:
 208:..\src/interruptions.c ****                 } else if (data_packet_length > 128) {
 310              		.loc 1 208 0
 311 00fe 3F4B     		ldr	r3, .L31+12
 312 0100 1B78     		ldrb	r3, [r3]	@ zero_extendqisi2
 313 0102 802B     		cmp	r3, #128
 314 0104 06D9     		bls	.L22
 209:..\src/interruptions.c ****                     data_packet_length = 0;
 315              		.loc 1 209 0
 316 0106 3D4B     		ldr	r3, .L31+12
 317 0108 0022     		movs	r2, #0
 318 010a 1A70     		strb	r2, [r3]
 210:..\src/interruptions.c ****                     state = WAIT_START;
 319              		.loc 1 210 0
 320 010c 384B     		ldr	r3, .L31
 321 010e 0022     		movs	r2, #0
 322 0110 1A70     		strb	r2, [r3]
 323 0112 5FE0     		b	.L8
 324              	.L22:
 211:..\src/interruptions.c ****                 } else {
 212:..\src/interruptions.c ****                     data_packet_index = 0;
 325              		.loc 1 212 0
 326 0114 3A4B     		ldr	r3, .L31+16
 327 0116 0022     		movs	r2, #0
 328 0118 1A70     		strb	r2, [r3]
 213:..\src/interruptions.c ****                     
 214:..\src/interruptions.c ****                     if(rx_data_type == FALSE)
 329              		.loc 1 214 0
 330 011a FB79     		ldrb	r3, [r7, #7]	@ zero_extendqisi2
 331 011c 002B     		cmp	r3, #0
 332 011e 03D1     		bne	.L23
 215:..\src/interruptions.c ****                         state = RECEIVE;          // packet for me or broadcast
 333              		.loc 1 215 0
 334 0120 334B     		ldr	r3, .L31
 335 0122 0322     		movs	r2, #3
 336 0124 1A70     		strb	r2, [r3]
 337 0126 55E0     		b	.L8
 338              	.L23:
 216:..\src/interruptions.c ****                     else
 217:..\src/interruptions.c ****                         state = UNLOAD;           // packet for others
 339              		.loc 1 217 0
 340 0128 314B     		ldr	r3, .L31
 341 012a 0422     		movs	r2, #4
 342 012c 1A70     		strb	r2, [r3]
 218:..\src/interruptions.c ****                 }
 219:..\src/interruptions.c ****                 break;
 343              		.loc 1 219 0
 344 012e 51E0     		b	.L8
 345              	.L13:
 220:..\src/interruptions.c **** 
 221:..\src/interruptions.c ****             //-----     receiving     -------------------------------------------
 222:..\src/interruptions.c ****             case RECEIVE:
 223:..\src/interruptions.c **** 
ARM GAS  C:\Users\Mattia\AppData\Local\Temp\ccUxgIpk.s 			page 11


 224:..\src/interruptions.c ****                 data_packet_buffer[data_packet_index] = rx_data;
 346              		.loc 1 224 0
 347 0130 334B     		ldr	r3, .L31+16
 348 0132 1B78     		ldrb	r3, [r3]	@ zero_extendqisi2
 349 0134 1946     		mov	r1, r3
 350 0136 334A     		ldr	r2, .L31+20
 351 0138 7B79     		ldrb	r3, [r7, #5]
 352 013a 5354     		strb	r3, [r2, r1]
 225:..\src/interruptions.c ****                 data_packet_index++;
 353              		.loc 1 225 0
 354 013c 304B     		ldr	r3, .L31+16
 355 013e 1B78     		ldrb	r3, [r3]	@ zero_extendqisi2
 356 0140 0133     		adds	r3, r3, #1
 357 0142 DAB2     		uxtb	r2, r3
 358 0144 2E4B     		ldr	r3, .L31+16
 359 0146 1A70     		strb	r2, [r3]
 226:..\src/interruptions.c ****                 
 227:..\src/interruptions.c ****                 // check end of transmission
 228:..\src/interruptions.c ****                 if (data_packet_index >= data_packet_length) {
 360              		.loc 1 228 0
 361 0148 2D4B     		ldr	r3, .L31+16
 362 014a 1A78     		ldrb	r2, [r3]	@ zero_extendqisi2
 363 014c 2B4B     		ldr	r3, .L31+12
 364 014e 1B78     		ldrb	r3, [r3]	@ zero_extendqisi2
 365 0150 9A42     		cmp	r2, r3
 366 0152 3FD3     		bcc	.L8
 229:..\src/interruptions.c ****                     // verify if frame ID corresponded to the device ID
 230:..\src/interruptions.c ****                     if (rx_data_type == FALSE) {
 367              		.loc 1 230 0
 368 0154 FB79     		ldrb	r3, [r7, #7]	@ zero_extendqisi2
 369 0156 002B     		cmp	r3, #0
 370 0158 12D1     		bne	.L25
 231:..\src/interruptions.c ****                         // copying data from buffer to global packet
 232:..\src/interruptions.c ****                         memcpy(g_rx.buffer, data_packet_buffer, data_packet_length);
 371              		.loc 1 232 0
 372 015a 284B     		ldr	r3, .L31+12
 373 015c 1B78     		ldrb	r3, [r3]	@ zero_extendqisi2
 374 015e 1A46     		mov	r2, r3
 375 0160 2849     		ldr	r1, .L31+20
 376 0162 2948     		ldr	r0, .L31+24
 377 0164 FFF7FEFF 		bl	memcpy
 233:..\src/interruptions.c ****                         g_rx.length = data_packet_length;
 378              		.loc 1 233 0
 379 0168 244B     		ldr	r3, .L31+12
 380 016a 1B78     		ldrb	r3, [r3]	@ zero_extendqisi2
 381 016c 1AB2     		sxth	r2, r3
 382 016e 264B     		ldr	r3, .L31+24
 383 0170 A3F88020 		strh	r2, [r3, #128]	@ movhi
 234:..\src/interruptions.c ****                         g_rx.ready  = 1;
 384              		.loc 1 234 0
 385 0174 244B     		ldr	r3, .L31+24
 386 0176 0122     		movs	r2, #1
 387 0178 83F88420 		strb	r2, [r3, #132]
 235:..\src/interruptions.c ****                         commProcess();
 388              		.loc 1 235 0
 389 017c FFF7FEFF 		bl	commProcess
 390              	.L25:
ARM GAS  C:\Users\Mattia\AppData\Local\Temp\ccUxgIpk.s 			page 12


 236:..\src/interruptions.c ****                     }
 237:..\src/interruptions.c ****                     
 238:..\src/interruptions.c ****                     data_packet_index  = 0;
 391              		.loc 1 238 0
 392 0180 1F4B     		ldr	r3, .L31+16
 393 0182 0022     		movs	r2, #0
 394 0184 1A70     		strb	r2, [r3]
 239:..\src/interruptions.c ****                     data_packet_length = 0;
 395              		.loc 1 239 0
 396 0186 1D4B     		ldr	r3, .L31+12
 397 0188 0022     		movs	r2, #0
 398 018a 1A70     		strb	r2, [r3]
 240:..\src/interruptions.c ****                     state              = WAIT_START;
 399              		.loc 1 240 0
 400 018c 184B     		ldr	r3, .L31
 401 018e 0022     		movs	r2, #0
 402 0190 1A70     		strb	r2, [r3]
 241:..\src/interruptions.c ****                     package_count++;
 403              		.loc 1 241 0
 404 0192 BB79     		ldrb	r3, [r7, #6]	@ zero_extendqisi2
 405 0194 0133     		adds	r3, r3, #1
 406 0196 BB71     		strb	r3, [r7, #6]
 242:..\src/interruptions.c ****                 
 243:..\src/interruptions.c ****                 }
 244:..\src/interruptions.c ****                 break;
 407              		.loc 1 244 0
 408 0198 1CE0     		b	.L8
 409              	.L14:
 245:..\src/interruptions.c **** 
 246:..\src/interruptions.c ****             //-----     other device is receving     ---------------------------
 247:..\src/interruptions.c ****             case UNLOAD:
 248:..\src/interruptions.c ****                 if (!(--data_packet_length)) {
 410              		.loc 1 248 0
 411 019a 184B     		ldr	r3, .L31+12
 412 019c 1B78     		ldrb	r3, [r3]	@ zero_extendqisi2
 413 019e 013B     		subs	r3, r3, #1
 414 01a0 DAB2     		uxtb	r2, r3
 415 01a2 164B     		ldr	r3, .L31+12
 416 01a4 1A70     		strb	r2, [r3]
 417 01a6 154B     		ldr	r3, .L31+12
 418 01a8 1B78     		ldrb	r3, [r3]	@ zero_extendqisi2
 419 01aa 002B     		cmp	r3, #0
 420 01ac 11D1     		bne	.L30
 249:..\src/interruptions.c ****                     data_packet_index  = 0;
 421              		.loc 1 249 0
 422 01ae 144B     		ldr	r3, .L31+16
 423 01b0 0022     		movs	r2, #0
 424 01b2 1A70     		strb	r2, [r3]
 250:..\src/interruptions.c ****                     data_packet_length = 0;
 425              		.loc 1 250 0
 426 01b4 114B     		ldr	r3, .L31+12
 427 01b6 0022     		movs	r2, #0
 428 01b8 1A70     		strb	r2, [r3]
 251:..\src/interruptions.c ****                     RS485_CTS_Write(1);
 429              		.loc 1 251 0
 430 01ba 0120     		movs	r0, #1
 431 01bc FFF7FEFF 		bl	RS485_CTS_Write
ARM GAS  C:\Users\Mattia\AppData\Local\Temp\ccUxgIpk.s 			page 13


 252:..\src/interruptions.c ****                     RS485_CTS_Write(0);
 432              		.loc 1 252 0
 433 01c0 0020     		movs	r0, #0
 434 01c2 FFF7FEFF 		bl	RS485_CTS_Write
 253:..\src/interruptions.c ****                     state              = WAIT_START;
 435              		.loc 1 253 0
 436 01c6 0A4B     		ldr	r3, .L31
 437 01c8 0022     		movs	r2, #0
 438 01ca 1A70     		strb	r2, [r3]
 254:..\src/interruptions.c ****                     package_count++;
 439              		.loc 1 254 0
 440 01cc BB79     		ldrb	r3, [r7, #6]	@ zero_extendqisi2
 441 01ce 0133     		adds	r3, r3, #1
 442 01d0 BB71     		strb	r3, [r7, #6]
 443              	.L30:
 255:..\src/interruptions.c ****                 }
 256:..\src/interruptions.c ****                 break;
 444              		.loc 1 256 0
 445 01d2 00BF     		nop
 446              	.L8:
 154:..\src/interruptions.c ****         // 100 - estimated maximum number of packets we can read without blocking firmware executio
 447              		.loc 1 154 0
 448 01d4 FFF7FEFF 		bl	UART_RS485_GetRxBufferSize
 449 01d8 0346     		mov	r3, r0
 450 01da 002B     		cmp	r3, #0
 451 01dc 03D0     		beq	.L29
 154:..\src/interruptions.c ****         // 100 - estimated maximum number of packets we can read without blocking firmware executio
 452              		.loc 1 154 0 is_stmt 0 discriminator 1
 453 01de BB79     		ldrb	r3, [r7, #6]	@ zero_extendqisi2
 454 01e0 632B     		cmp	r3, #99
 455 01e2 7FF615AF 		bls	.L28
 456              	.L29:
 257:..\src/interruptions.c ****         }
 258:..\src/interruptions.c ****     }
 259:..\src/interruptions.c **** }
 457              		.loc 1 259 0 is_stmt 1
 458 01e6 00BF     		nop
 459 01e8 0837     		adds	r7, r7, #8
 460              		.cfi_def_cfa_offset 8
 461 01ea BD46     		mov	sp, r7
 462              		.cfi_def_cfa_register 13
 463              		@ sp needed
 464 01ec 80BD     		pop	{r7, pc}
 465              	.L32:
 466 01ee 00BF     		.align	2
 467              	.L31:
 468 01f0 00000000 		.word	state.10381
 469 01f4 04000000 		.word	rx_queue.10385
 470 01f8 00000000 		.word	c_mem
 471 01fc 07000000 		.word	data_packet_length.10383
 472 0200 08000000 		.word	data_packet_index.10382
 473 0204 0C000000 		.word	data_packet_buffer.10384
 474 0208 00000000 		.word	g_rx
 475              		.cfi_endproc
 476              	.LFE66:
 477              		.size	interrupt_manager, .-interrupt_manager
 478              		.global	__aeabi_i2f
ARM GAS  C:\Users\Mattia\AppData\Local\Temp\ccUxgIpk.s 			page 14


 479              		.global	__aeabi_fdiv
 480              		.section	.text.function_scheduler,"ax",%progbits
 481              		.align	2
 482              		.global	function_scheduler
 483              		.thumb
 484              		.thumb_func
 485              		.type	function_scheduler, %function
 486              	function_scheduler:
 487              	.LFB67:
 260:..\src/interruptions.c **** //==============================================================================
 261:..\src/interruptions.c **** //                                                            FUNCTION SCHEDULER
 262:..\src/interruptions.c **** //==============================================================================
 263:..\src/interruptions.c **** // Call all the function with the right frequency
 264:..\src/interruptions.c **** //==============================================================================
 265:..\src/interruptions.c **** // Base frequency 1000 Hz
 266:..\src/interruptions.c **** //==============================================================================
 267:..\src/interruptions.c **** 
 268:..\src/interruptions.c **** void function_scheduler(void) {
 488              		.loc 1 268 0
 489              		.cfi_startproc
 490              		@ args = 0, pretend = 0, frame = 2504
 491              		@ frame_needed = 1, uses_anonymous_args = 0
 492 0000 B0B5     		push	{r4, r5, r7, lr}
 493              		.cfi_def_cfa_offset 16
 494              		.cfi_offset 4, -16
 495              		.cfi_offset 5, -12
 496              		.cfi_offset 7, -8
 497              		.cfi_offset 14, -4
 498 0002 ADF6C81D 		subw	sp, sp, #2504
 499              		.cfi_def_cfa_offset 2520
 500 0006 00AF     		add	r7, sp, #0
 501              		.cfi_def_cfa_register 7
 269:..\src/interruptions.c ****  
 270:..\src/interruptions.c ****     static uint16 counter_calibration = DIV_INIT_VALUE;
 271:..\src/interruptions.c ****     static uint16 counter_tension_func = DIV_INIT_VALUE;
 272:..\src/interruptions.c ****     char info_[2500] = "";
 502              		.loc 1 272 0
 503 0008 3B46     		mov	r3, r7
 504 000a 0022     		movs	r2, #0
 505 000c 1A60     		str	r2, [r3]
 506 000e 0433     		adds	r3, r3, #4
 507 0010 4FF41C62 		mov	r2, #2496
 508 0014 0021     		movs	r1, #0
 509 0016 1846     		mov	r0, r3
 510 0018 FFF7FEFF 		bl	memset
 273:..\src/interruptions.c ****     
 274:..\src/interruptions.c ****     uint8 MOTOR_IDX = 0;
 511              		.loc 1 274 0
 512 001c 0023     		movs	r3, #0
 513 001e 87F8C639 		strb	r3, [r7, #2502]
 275:..\src/interruptions.c ****     uint8 SECOND_MOTOR_IDX = 1;
 514              		.loc 1 275 0
 515 0022 0123     		movs	r3, #1
 516 0024 87F8C539 		strb	r3, [r7, #2501]
 276:..\src/interruptions.c ****     
 277:..\src/interruptions.c ****     MY_TIMER_REG_Write(0x00);
 517              		.loc 1 277 0
ARM GAS  C:\Users\Mattia\AppData\Local\Temp\ccUxgIpk.s 			page 15


 518 0028 0020     		movs	r0, #0
 519 002a FFF7FEFF 		bl	MY_TIMER_REG_Write
 278:..\src/interruptions.c ****     timer_value0 = (uint32)MY_TIMER_ReadCounter();
 520              		.loc 1 278 0
 521 002e FFF7FEFF 		bl	MY_TIMER_ReadCounter
 522 0032 0346     		mov	r3, r0
 523 0034 1A46     		mov	r2, r3
 524 0036 C74B     		ldr	r3, .L74
 525 0038 1A80     		strh	r2, [r3]	@ movhi
 279:..\src/interruptions.c **** 
 280:..\src/interruptions.c ****     // Start ADC Conversion, SOC = 1
 281:..\src/interruptions.c **** 
 282:..\src/interruptions.c ****     ADC_SOC_Write(0x01); 
 526              		.loc 1 282 0
 527 003a 0120     		movs	r0, #1
 528 003c FFF7FEFF 		bl	ADC_SOC_Write
 283:..\src/interruptions.c ****     
 284:..\src/interruptions.c ****     // Check Interrupt 
 285:..\src/interruptions.c **** 
 286:..\src/interruptions.c ****     if (interrupt_flag){
 529              		.loc 1 286 0
 530 0040 C54B     		ldr	r3, .L74+4
 531 0042 1B78     		ldrb	r3, [r3]	@ zero_extendqisi2
 532 0044 002B     		cmp	r3, #0
 533 0046 04D0     		beq	.L34
 287:..\src/interruptions.c ****         interrupt_flag = FALSE;
 534              		.loc 1 287 0
 535 0048 C34B     		ldr	r3, .L74+4
 536 004a 0022     		movs	r2, #0
 537 004c 1A70     		strb	r2, [r3]
 288:..\src/interruptions.c ****         interrupt_manager();
 538              		.loc 1 288 0
 539 004e FFF7FEFF 		bl	interrupt_manager
 540              	.L34:
 289:..\src/interruptions.c ****     }
 290:..\src/interruptions.c ****     
 291:..\src/interruptions.c ****     switch(c_mem.dev.dev_type){
 541              		.loc 1 291 0
 542 0052 C24B     		ldr	r3, .L74+8
 543 0054 93F8AC30 		ldrb	r3, [r3, #172]	@ zero_extendqisi2
 544 0058 012B     		cmp	r3, #1
 545 005a 65D0     		beq	.L36
 546 005c 022B     		cmp	r3, #2
 547 005e 00F01C81 		beq	.L37
 548 0062 002B     		cmp	r3, #0
 549 0064 40F08381 		bne	.L35
 292:..\src/interruptions.c ****         case SOFTHAND_PRO:
 293:..\src/interruptions.c ****         
 294:..\src/interruptions.c ****             //---------------------------------- Get Encoders
 295:..\src/interruptions.c ****             
 296:..\src/interruptions.c ****             // Get CS0 encoder line for RIGHT HAND and CS1 line for LEFT HAND
 297:..\src/interruptions.c ****             if (N_Encoder_Line_Connected[c_mem.motor[MOTOR_IDX].encoder_line] > 0) {
 550              		.loc 1 297 0
 551 0068 97F8C629 		ldrb	r2, [r7, #2502]	@ zero_extendqisi2
 552 006c BB49     		ldr	r1, .L74+8
 553 006e 1346     		mov	r3, r2
 554 0070 DB00     		lsls	r3, r3, #3
ARM GAS  C:\Users\Mattia\AppData\Local\Temp\ccUxgIpk.s 			page 16


 555 0072 9B1A     		subs	r3, r3, r2
 556 0074 1B01     		lsls	r3, r3, #4
 557 0076 0B44     		add	r3, r3, r1
 558 0078 03F58873 		add	r3, r3, #272
 559 007c 1B78     		ldrb	r3, [r3]	@ zero_extendqisi2
 560 007e 1A46     		mov	r2, r3
 561 0080 B74B     		ldr	r3, .L74+12
 562 0082 9B5C     		ldrb	r3, [r3, r2]	@ zero_extendqisi2
 563 0084 002B     		cmp	r3, #0
 564 0086 25D0     		beq	.L39
 298:..\src/interruptions.c ****                 // Change CS only if there are attached encoders on the line
 299:..\src/interruptions.c ****                 Change_CS_EncoderLine(c_mem.motor[MOTOR_IDX].encoder_line);
 565              		.loc 1 299 0
 566 0088 97F8C629 		ldrb	r2, [r7, #2502]	@ zero_extendqisi2
 567 008c B349     		ldr	r1, .L74+8
 568 008e 1346     		mov	r3, r2
 569 0090 DB00     		lsls	r3, r3, #3
 570 0092 9B1A     		subs	r3, r3, r2
 571 0094 1B01     		lsls	r3, r3, #4
 572 0096 0B44     		add	r3, r3, r1
 573 0098 03F58873 		add	r3, r3, #272
 574 009c 1B78     		ldrb	r3, [r3]	@ zero_extendqisi2
 575 009e 1846     		mov	r0, r3
 576 00a0 FFF7FEFF 		bl	Change_CS_EncoderLine
 300:..\src/interruptions.c ****                 
 301:..\src/interruptions.c ****                 encoder_reading_SPI(c_mem.motor[MOTOR_IDX].encoder_line, 0);    // assoc_motor = 0 
 577              		.loc 1 301 0
 578 00a4 97F8C629 		ldrb	r2, [r7, #2502]	@ zero_extendqisi2
 579 00a8 AC49     		ldr	r1, .L74+8
 580 00aa 1346     		mov	r3, r2
 581 00ac DB00     		lsls	r3, r3, #3
 582 00ae 9B1A     		subs	r3, r3, r2
 583 00b0 1B01     		lsls	r3, r3, #4
 584 00b2 0B44     		add	r3, r3, r1
 585 00b4 03F58873 		add	r3, r3, #272
 586 00b8 1B78     		ldrb	r3, [r3]	@ zero_extendqisi2
 587 00ba 0021     		movs	r1, #0
 588 00bc 1846     		mov	r0, r3
 589 00be FFF7FEFF 		bl	encoder_reading_SPI
 302:..\src/interruptions.c **** 
 303:..\src/interruptions.c ****                 // Check Interrupt     
 304:..\src/interruptions.c ****                 
 305:..\src/interruptions.c ****                 if (interrupt_flag){
 590              		.loc 1 305 0
 591 00c2 A54B     		ldr	r3, .L74+4
 592 00c4 1B78     		ldrb	r3, [r3]	@ zero_extendqisi2
 593 00c6 002B     		cmp	r3, #0
 594 00c8 04D0     		beq	.L39
 306:..\src/interruptions.c ****                     interrupt_flag = FALSE;
 595              		.loc 1 306 0
 596 00ca A34B     		ldr	r3, .L74+4
 597 00cc 0022     		movs	r2, #0
 598 00ce 1A70     		strb	r2, [r3]
 307:..\src/interruptions.c ****                     interrupt_manager();
 599              		.loc 1 307 0
 600 00d0 FFF7FEFF 		bl	interrupt_manager
 601              	.L39:
ARM GAS  C:\Users\Mattia\AppData\Local\Temp\ccUxgIpk.s 			page 17


 308:..\src/interruptions.c ****                 }
 309:..\src/interruptions.c ****             }
 310:..\src/interruptions.c ****             
 311:..\src/interruptions.c ****             //---------------------------------- Control SH Motor
 312:..\src/interruptions.c ****             
 313:..\src/interruptions.c ****             motor_control_SH();
 602              		.loc 1 313 0
 603 00d4 FFF7FEFF 		bl	motor_control_SH
 314:..\src/interruptions.c ****             
 315:..\src/interruptions.c ****             // Check external reference before processing other serial data and right after motor c
 316:..\src/interruptions.c ****             if (c_mem.motor[MOTOR_IDX].not_revers_motor_flag == TRUE) {
 604              		.loc 1 316 0
 605 00d8 97F8C629 		ldrb	r2, [r7, #2502]	@ zero_extendqisi2
 606 00dc 9F49     		ldr	r1, .L74+8
 607 00de 1346     		mov	r3, r2
 608 00e0 DB00     		lsls	r3, r3, #3
 609 00e2 9B1A     		subs	r3, r3, r2
 610 00e4 1B01     		lsls	r3, r3, #4
 611 00e6 0B44     		add	r3, r3, r1
 612 00e8 03F58973 		add	r3, r3, #274
 613 00ec 1B78     		ldrb	r3, [r3]	@ zero_extendqisi2
 614 00ee 012B     		cmp	r3, #1
 615 00f0 0FD1     		bne	.L40
 317:..\src/interruptions.c ****                 if (c_mem.motor[MOTOR_IDX].input_mode == INPUT_MODE_EXTERNAL) {
 616              		.loc 1 317 0
 617 00f2 97F8C629 		ldrb	r2, [r7, #2502]	@ zero_extendqisi2
 618 00f6 9949     		ldr	r1, .L74+8
 619 00f8 1346     		mov	r3, r2
 620 00fa DB00     		lsls	r3, r3, #3
 621 00fc 9B1A     		subs	r3, r3, r2
 622 00fe 1B01     		lsls	r3, r3, #4
 623 0100 0B44     		add	r3, r3, r1
 624 0102 03F58773 		add	r3, r3, #270
 625 0106 1B78     		ldrb	r3, [r3]	@ zero_extendqisi2
 626 0108 002B     		cmp	r3, #0
 627 010a 02D1     		bne	.L40
 318:..\src/interruptions.c ****                     change_ext_ref_flag = FALSE;
 628              		.loc 1 318 0
 629 010c 954B     		ldr	r3, .L74+16
 630 010e 0022     		movs	r2, #0
 631 0110 1A70     		strb	r2, [r3]
 632              	.L40:
 319:..\src/interruptions.c ****                 }   
 320:..\src/interruptions.c ****             }
 321:..\src/interruptions.c **** 
 322:..\src/interruptions.c ****             // Check Interrupt 
 323:..\src/interruptions.c **** 
 324:..\src/interruptions.c ****             if (interrupt_flag){
 633              		.loc 1 324 0
 634 0112 914B     		ldr	r3, .L74+4
 635 0114 1B78     		ldrb	r3, [r3]	@ zero_extendqisi2
 636 0116 002B     		cmp	r3, #0
 637 0118 00F01881 		beq	.L71
 325:..\src/interruptions.c ****                 interrupt_flag = FALSE;
 638              		.loc 1 325 0
 639 011c 8E4B     		ldr	r3, .L74+4
 640 011e 0022     		movs	r2, #0
ARM GAS  C:\Users\Mattia\AppData\Local\Temp\ccUxgIpk.s 			page 18


 641 0120 1A70     		strb	r2, [r3]
 326:..\src/interruptions.c ****                 interrupt_manager();
 642              		.loc 1 326 0
 643 0122 FFF7FEFF 		bl	interrupt_manager
 327:..\src/interruptions.c ****             }
 328:..\src/interruptions.c ****             break;
 644              		.loc 1 328 0
 645 0126 11E1     		b	.L71
 646              	.L36:
 647              	.LBB2:
 329:..\src/interruptions.c ****             
 330:..\src/interruptions.c ****         case GENERIC_2_MOTORS:
 331:..\src/interruptions.c ****             
 332:..\src/interruptions.c ****             //---------------------------------- Get Encoders
 333:..\src/interruptions.c ****             for (uint8 i = 0; i < N_ENCODER_LINE_MAX; i++) {
 648              		.loc 1 333 0
 649 0128 0023     		movs	r3, #0
 650 012a 87F8C739 		strb	r3, [r7, #2503]
 651 012e 53E0     		b	.L42
 652              	.L47:
 334:..\src/interruptions.c ****                 if (N_Encoder_Line_Connected[i] > 0) {
 653              		.loc 1 334 0
 654 0130 97F8C739 		ldrb	r3, [r7, #2503]	@ zero_extendqisi2
 655 0134 8A4A     		ldr	r2, .L74+12
 656 0136 D35C     		ldrb	r3, [r2, r3]	@ zero_extendqisi2
 657 0138 002B     		cmp	r3, #0
 658 013a 48D0     		beq	.L43
 335:..\src/interruptions.c ****                     // Change CS only if there are attached encoders on the line
 336:..\src/interruptions.c ****                     Change_CS_EncoderLine(i);
 659              		.loc 1 336 0
 660 013c 97F8C739 		ldrb	r3, [r7, #2503]	@ zero_extendqisi2
 661 0140 1846     		mov	r0, r3
 662 0142 FFF7FEFF 		bl	Change_CS_EncoderLine
 337:..\src/interruptions.c ****                               
 338:..\src/interruptions.c ****                     if (c_mem.motor[MOTOR_IDX].encoder_line == i) {
 663              		.loc 1 338 0
 664 0146 97F8C629 		ldrb	r2, [r7, #2502]	@ zero_extendqisi2
 665 014a 8449     		ldr	r1, .L74+8
 666 014c 1346     		mov	r3, r2
 667 014e DB00     		lsls	r3, r3, #3
 668 0150 9B1A     		subs	r3, r3, r2
 669 0152 1B01     		lsls	r3, r3, #4
 670 0154 0B44     		add	r3, r3, r1
 671 0156 03F58873 		add	r3, r3, #272
 672 015a 1B78     		ldrb	r3, [r3]	@ zero_extendqisi2
 673 015c 97F8C729 		ldrb	r2, [r7, #2503]	@ zero_extendqisi2
 674 0160 9A42     		cmp	r2, r3
 675 0162 08D1     		bne	.L44
 339:..\src/interruptions.c ****                         // Check if the line is used to control motor or not
 340:..\src/interruptions.c ****                         encoder_reading_SPI(i, MOTOR_IDX); 
 676              		.loc 1 340 0
 677 0164 97F8C629 		ldrb	r2, [r7, #2502]	@ zero_extendqisi2
 678 0168 97F8C739 		ldrb	r3, [r7, #2503]	@ zero_extendqisi2
 679 016c 1146     		mov	r1, r2
 680 016e 1846     		mov	r0, r3
 681 0170 FFF7FEFF 		bl	encoder_reading_SPI
 682 0174 22E0     		b	.L45
ARM GAS  C:\Users\Mattia\AppData\Local\Temp\ccUxgIpk.s 			page 19


 683              	.L44:
 341:..\src/interruptions.c ****                     }
 342:..\src/interruptions.c ****                     else {
 343:..\src/interruptions.c ****                         if (c_mem.motor[SECOND_MOTOR_IDX].encoder_line == i) {
 684              		.loc 1 343 0
 685 0176 97F8C529 		ldrb	r2, [r7, #2501]	@ zero_extendqisi2
 686 017a 7849     		ldr	r1, .L74+8
 687 017c 1346     		mov	r3, r2
 688 017e DB00     		lsls	r3, r3, #3
 689 0180 9B1A     		subs	r3, r3, r2
 690 0182 1B01     		lsls	r3, r3, #4
 691 0184 0B44     		add	r3, r3, r1
 692 0186 03F58873 		add	r3, r3, #272
 693 018a 1B78     		ldrb	r3, [r3]	@ zero_extendqisi2
 694 018c 97F8C729 		ldrb	r2, [r7, #2503]	@ zero_extendqisi2
 695 0190 9A42     		cmp	r2, r3
 696 0192 08D1     		bne	.L46
 344:..\src/interruptions.c ****                             // Check if the line is used to control motor or not
 345:..\src/interruptions.c ****                             encoder_reading_SPI(i, SECOND_MOTOR_IDX); 
 697              		.loc 1 345 0
 698 0194 97F8C529 		ldrb	r2, [r7, #2501]	@ zero_extendqisi2
 699 0198 97F8C739 		ldrb	r3, [r7, #2503]	@ zero_extendqisi2
 700 019c 1146     		mov	r1, r2
 701 019e 1846     		mov	r0, r3
 702 01a0 FFF7FEFF 		bl	encoder_reading_SPI
 703 01a4 0AE0     		b	.L45
 704              	.L46:
 346:..\src/interruptions.c ****                         }
 347:..\src/interruptions.c ****                         else {
 348:..\src/interruptions.c ****                             // Get only raw encoder value
 349:..\src/interruptions.c ****                             ReadEncoderLine(N_Encoder_Line_Connected[i], i);
 705              		.loc 1 349 0
 706 01a6 97F8C739 		ldrb	r3, [r7, #2503]	@ zero_extendqisi2
 707 01aa 6D4A     		ldr	r2, .L74+12
 708 01ac D35C     		ldrb	r3, [r2, r3]	@ zero_extendqisi2
 709 01ae 1A46     		mov	r2, r3
 710 01b0 97F8C739 		ldrb	r3, [r7, #2503]	@ zero_extendqisi2
 711 01b4 1946     		mov	r1, r3
 712 01b6 1046     		mov	r0, r2
 713 01b8 FFF7FEFF 		bl	ReadEncoderLine
 714              	.L45:
 350:..\src/interruptions.c ****                             // Values are stored in Encoder_Value[i] vector
 351:..\src/interruptions.c ****                         }
 352:..\src/interruptions.c ****                     }
 353:..\src/interruptions.c **** 
 354:..\src/interruptions.c ****                     // Check Interrupt     
 355:..\src/interruptions.c ****                     
 356:..\src/interruptions.c ****                     if (interrupt_flag){
 715              		.loc 1 356 0
 716 01bc 664B     		ldr	r3, .L74+4
 717 01be 1B78     		ldrb	r3, [r3]	@ zero_extendqisi2
 718 01c0 002B     		cmp	r3, #0
 719 01c2 04D0     		beq	.L43
 357:..\src/interruptions.c ****                         interrupt_flag = FALSE;
 720              		.loc 1 357 0
 721 01c4 644B     		ldr	r3, .L74+4
 722 01c6 0022     		movs	r2, #0
ARM GAS  C:\Users\Mattia\AppData\Local\Temp\ccUxgIpk.s 			page 20


 723 01c8 1A70     		strb	r2, [r3]
 358:..\src/interruptions.c ****                         interrupt_manager();
 724              		.loc 1 358 0
 725 01ca FFF7FEFF 		bl	interrupt_manager
 726              	.L43:
 333:..\src/interruptions.c ****                 if (N_Encoder_Line_Connected[i] > 0) {
 727              		.loc 1 333 0 discriminator 2
 728 01ce 97F8C739 		ldrb	r3, [r7, #2503]	@ zero_extendqisi2
 729 01d2 0133     		adds	r3, r3, #1
 730 01d4 87F8C739 		strb	r3, [r7, #2503]
 731              	.L42:
 333:..\src/interruptions.c ****                 if (N_Encoder_Line_Connected[i] > 0) {
 732              		.loc 1 333 0 is_stmt 0 discriminator 1
 733 01d8 97F8C739 		ldrb	r3, [r7, #2503]	@ zero_extendqisi2
 734 01dc 012B     		cmp	r3, #1
 735 01de A7D9     		bls	.L47
 736              	.LBE2:
 359:..\src/interruptions.c ****                     }
 360:..\src/interruptions.c ****                 }
 361:..\src/interruptions.c ****             } 
 362:..\src/interruptions.c ****             
 363:..\src/interruptions.c ****             //---------------------------------- Control Motor
 364:..\src/interruptions.c ****             
 365:..\src/interruptions.c ****             // Control MOTOR_IDX motor (always active) according to motor driver type
 366:..\src/interruptions.c ****             motor_control_generic(MOTOR_IDX);
 737              		.loc 1 366 0 is_stmt 1
 738 01e0 97F8C639 		ldrb	r3, [r7, #2502]	@ zero_extendqisi2
 739 01e4 1846     		mov	r0, r3
 740 01e6 FFF7FEFF 		bl	motor_control_generic
 367:..\src/interruptions.c ****             
 368:..\src/interruptions.c ****             // Check external reference before processing other serial data and right after motor c
 369:..\src/interruptions.c ****             if (c_mem.motor[MOTOR_IDX].not_revers_motor_flag == TRUE) {
 741              		.loc 1 369 0
 742 01ea 97F8C629 		ldrb	r2, [r7, #2502]	@ zero_extendqisi2
 743 01ee 5B49     		ldr	r1, .L74+8
 744 01f0 1346     		mov	r3, r2
 745 01f2 DB00     		lsls	r3, r3, #3
 746 01f4 9B1A     		subs	r3, r3, r2
 747 01f6 1B01     		lsls	r3, r3, #4
 748 01f8 0B44     		add	r3, r3, r1
 749 01fa 03F58973 		add	r3, r3, #274
 750 01fe 1B78     		ldrb	r3, [r3]	@ zero_extendqisi2
 751 0200 012B     		cmp	r3, #1
 752 0202 0FD1     		bne	.L48
 370:..\src/interruptions.c ****                 if (c_mem.motor[MOTOR_IDX].input_mode == INPUT_MODE_EXTERNAL) {
 753              		.loc 1 370 0
 754 0204 97F8C629 		ldrb	r2, [r7, #2502]	@ zero_extendqisi2
 755 0208 5449     		ldr	r1, .L74+8
 756 020a 1346     		mov	r3, r2
 757 020c DB00     		lsls	r3, r3, #3
 758 020e 9B1A     		subs	r3, r3, r2
 759 0210 1B01     		lsls	r3, r3, #4
 760 0212 0B44     		add	r3, r3, r1
 761 0214 03F58773 		add	r3, r3, #270
 762 0218 1B78     		ldrb	r3, [r3]	@ zero_extendqisi2
 763 021a 002B     		cmp	r3, #0
 764 021c 02D1     		bne	.L48
ARM GAS  C:\Users\Mattia\AppData\Local\Temp\ccUxgIpk.s 			page 21


 371:..\src/interruptions.c ****                     change_ext_ref_flag = FALSE;
 765              		.loc 1 371 0
 766 021e 514B     		ldr	r3, .L74+16
 767 0220 0022     		movs	r2, #0
 768 0222 1A70     		strb	r2, [r3]
 769              	.L48:
 372:..\src/interruptions.c ****                 }   
 373:..\src/interruptions.c ****             }
 374:..\src/interruptions.c ****             
 375:..\src/interruptions.c ****             // Check Interrupt 
 376:..\src/interruptions.c **** 
 377:..\src/interruptions.c ****             if (interrupt_flag){
 770              		.loc 1 377 0
 771 0224 4C4B     		ldr	r3, .L74+4
 772 0226 1B78     		ldrb	r3, [r3]	@ zero_extendqisi2
 773 0228 002B     		cmp	r3, #0
 774 022a 04D0     		beq	.L49
 378:..\src/interruptions.c ****                 interrupt_flag = FALSE;
 775              		.loc 1 378 0
 776 022c 4A4B     		ldr	r3, .L74+4
 777 022e 0022     		movs	r2, #0
 778 0230 1A70     		strb	r2, [r3]
 379:..\src/interruptions.c ****                 interrupt_manager();
 779              		.loc 1 379 0
 780 0232 FFF7FEFF 		bl	interrupt_manager
 781              	.L49:
 380:..\src/interruptions.c ****             }
 381:..\src/interruptions.c ****             
 382:..\src/interruptions.c ****             // Control 2nd motor (if necessary) according to motor driver type
 383:..\src/interruptions.c ****             if (c_mem.dev.use_2nd_motor_flag == TRUE){
 782              		.loc 1 383 0
 783 0236 494B     		ldr	r3, .L74+8
 784 0238 93F8A930 		ldrb	r3, [r3, #169]	@ zero_extendqisi2
 785 023c 012B     		cmp	r3, #1
 786 023e 40F08780 		bne	.L72
 384:..\src/interruptions.c ****                 motor_control_generic(SECOND_MOTOR_IDX);
 787              		.loc 1 384 0
 788 0242 97F8C539 		ldrb	r3, [r7, #2501]	@ zero_extendqisi2
 789 0246 1846     		mov	r0, r3
 790 0248 FFF7FEFF 		bl	motor_control_generic
 385:..\src/interruptions.c ****                 
 386:..\src/interruptions.c ****                 // Check external reference before processing other serial data and right after mot
 387:..\src/interruptions.c ****                 if (c_mem.motor[SECOND_MOTOR_IDX].not_revers_motor_flag == TRUE) {
 791              		.loc 1 387 0
 792 024c 97F8C529 		ldrb	r2, [r7, #2501]	@ zero_extendqisi2
 793 0250 4249     		ldr	r1, .L74+8
 794 0252 1346     		mov	r3, r2
 795 0254 DB00     		lsls	r3, r3, #3
 796 0256 9B1A     		subs	r3, r3, r2
 797 0258 1B01     		lsls	r3, r3, #4
 798 025a 0B44     		add	r3, r3, r1
 799 025c 03F58973 		add	r3, r3, #274
 800 0260 1B78     		ldrb	r3, [r3]	@ zero_extendqisi2
 801 0262 012B     		cmp	r3, #1
 802 0264 0FD1     		bne	.L51
 388:..\src/interruptions.c ****                     if (c_mem.motor[SECOND_MOTOR_IDX].input_mode == INPUT_MODE_EXTERNAL) {
 803              		.loc 1 388 0
ARM GAS  C:\Users\Mattia\AppData\Local\Temp\ccUxgIpk.s 			page 22


 804 0266 97F8C529 		ldrb	r2, [r7, #2501]	@ zero_extendqisi2
 805 026a 3C49     		ldr	r1, .L74+8
 806 026c 1346     		mov	r3, r2
 807 026e DB00     		lsls	r3, r3, #3
 808 0270 9B1A     		subs	r3, r3, r2
 809 0272 1B01     		lsls	r3, r3, #4
 810 0274 0B44     		add	r3, r3, r1
 811 0276 03F58773 		add	r3, r3, #270
 812 027a 1B78     		ldrb	r3, [r3]	@ zero_extendqisi2
 813 027c 002B     		cmp	r3, #0
 814 027e 02D1     		bne	.L51
 389:..\src/interruptions.c ****                         change_ext_ref_flag = FALSE;
 815              		.loc 1 389 0
 816 0280 384B     		ldr	r3, .L74+16
 817 0282 0022     		movs	r2, #0
 818 0284 1A70     		strb	r2, [r3]
 819              	.L51:
 390:..\src/interruptions.c ****                     }   
 391:..\src/interruptions.c ****                 }
 392:..\src/interruptions.c ****                 
 393:..\src/interruptions.c ****                 // Check Interrupt 
 394:..\src/interruptions.c **** 
 395:..\src/interruptions.c ****                 if (interrupt_flag){
 820              		.loc 1 395 0
 821 0286 344B     		ldr	r3, .L74+4
 822 0288 1B78     		ldrb	r3, [r3]	@ zero_extendqisi2
 823 028a 002B     		cmp	r3, #0
 824 028c 60D0     		beq	.L72
 396:..\src/interruptions.c ****                     interrupt_flag = FALSE;
 825              		.loc 1 396 0
 826 028e 324B     		ldr	r3, .L74+4
 827 0290 0022     		movs	r2, #0
 828 0292 1A70     		strb	r2, [r3]
 397:..\src/interruptions.c ****                     interrupt_manager();
 829              		.loc 1 397 0
 830 0294 FFF7FEFF 		bl	interrupt_manager
 398:..\src/interruptions.c ****                 }
 399:..\src/interruptions.c ****             }  
 400:..\src/interruptions.c ****             break;
 831              		.loc 1 400 0
 832 0298 5AE0     		b	.L72
 833              	.L37:
 401:..\src/interruptions.c ****             
 402:..\src/interruptions.c ****         case AIR_CHAMBERS_FB:
 403:..\src/interruptions.c ****             
 404:..\src/interruptions.c ****             //---------------------------------- Force Feedback control
 405:..\src/interruptions.c ****             if (master_mode && c_mem.MS.slave_comm_active) {
 834              		.loc 1 405 0
 835 029a 334B     		ldr	r3, .L74+20
 836 029c 1B78     		ldrb	r3, [r3]	@ zero_extendqisi2
 837 029e 002B     		cmp	r3, #0
 838 02a0 2FD0     		beq	.L52
 839              		.loc 1 405 0 is_stmt 0 discriminator 1
 840 02a2 2E4B     		ldr	r3, .L74+8
 841 02a4 93F8B032 		ldrb	r3, [r3, #688]	@ zero_extendqisi2
 842 02a8 002B     		cmp	r3, #0
 843 02aa 2AD0     		beq	.L52
ARM GAS  C:\Users\Mattia\AppData\Local\Temp\ccUxgIpk.s 			page 23


 406:..\src/interruptions.c ****                 
 407:..\src/interruptions.c ****                 air_chambers_control();
 844              		.loc 1 407 0 is_stmt 1
 845 02ac FFF7FEFF 		bl	air_chambers_control
 408:..\src/interruptions.c ****             
 409:..\src/interruptions.c ****                 // Check Interrupt 
 410:..\src/interruptions.c ****                 
 411:..\src/interruptions.c ****                 if (interrupt_flag){
 846              		.loc 1 411 0
 847 02b0 294B     		ldr	r3, .L74+4
 848 02b2 1B78     		ldrb	r3, [r3]	@ zero_extendqisi2
 849 02b4 002B     		cmp	r3, #0
 850 02b6 04D0     		beq	.L53
 412:..\src/interruptions.c ****                     interrupt_flag = FALSE;
 851              		.loc 1 412 0
 852 02b8 274B     		ldr	r3, .L74+4
 853 02ba 0022     		movs	r2, #0
 854 02bc 1A70     		strb	r2, [r3]
 413:..\src/interruptions.c ****                     interrupt_manager();
 855              		.loc 1 413 0
 856 02be FFF7FEFF 		bl	interrupt_manager
 857              	.L53:
 414:..\src/interruptions.c ****                 }
 415:..\src/interruptions.c ****                 
 416:..\src/interruptions.c ****                 // Drive slave with reference generated on second motor index
 417:..\src/interruptions.c ****                 // Use second motor structures and parameters, only to generate position reference 
 418:..\src/interruptions.c ****                 // IMPORTANT: configure second motor parameters with proper slave parameters
 419:..\src/interruptions.c ****                 motor_control_generic(SECOND_MOTOR_IDX);
 858              		.loc 1 419 0
 859 02c2 97F8C539 		ldrb	r3, [r7, #2501]	@ zero_extendqisi2
 860 02c6 1846     		mov	r0, r3
 861 02c8 FFF7FEFF 		bl	motor_control_generic
 420:..\src/interruptions.c ****                 
 421:..\src/interruptions.c ****                 // Check Interrupt 
 422:..\src/interruptions.c **** 
 423:..\src/interruptions.c ****                 if (interrupt_flag){
 862              		.loc 1 423 0
 863 02cc 224B     		ldr	r3, .L74+4
 864 02ce 1B78     		ldrb	r3, [r3]	@ zero_extendqisi2
 865 02d0 002B     		cmp	r3, #0
 866 02d2 04D0     		beq	.L54
 424:..\src/interruptions.c ****                     interrupt_flag = FALSE;
 867              		.loc 1 424 0
 868 02d4 204B     		ldr	r3, .L74+4
 869 02d6 0022     		movs	r2, #0
 870 02d8 1A70     		strb	r2, [r3]
 425:..\src/interruptions.c ****                     interrupt_manager();
 871              		.loc 1 425 0
 872 02da FFF7FEFF 		bl	interrupt_manager
 873              	.L54:
 426:..\src/interruptions.c ****                 }
 427:..\src/interruptions.c ****                 
 428:..\src/interruptions.c ****                 drive_slave(SECOND_MOTOR_IDX, c_mem.MS.slave_ID);
 874              		.loc 1 428 0
 875 02de 1F4B     		ldr	r3, .L74+8
 876 02e0 93F8B122 		ldrb	r2, [r3, #689]	@ zero_extendqisi2
 877 02e4 97F8C539 		ldrb	r3, [r7, #2501]	@ zero_extendqisi2
ARM GAS  C:\Users\Mattia\AppData\Local\Temp\ccUxgIpk.s 			page 24


 878 02e8 1146     		mov	r1, r2
 879 02ea 1846     		mov	r0, r3
 880 02ec FFF7FEFF 		bl	drive_slave
 429:..\src/interruptions.c ****             
 430:..\src/interruptions.c ****                 // Check Interrupt 
 431:..\src/interruptions.c **** 
 432:..\src/interruptions.c ****                 if (interrupt_flag){
 881              		.loc 1 432 0
 882 02f0 194B     		ldr	r3, .L74+4
 883 02f2 1B78     		ldrb	r3, [r3]	@ zero_extendqisi2
 884 02f4 002B     		cmp	r3, #0
 885 02f6 04D0     		beq	.L52
 433:..\src/interruptions.c ****                     interrupt_flag = FALSE;
 886              		.loc 1 433 0
 887 02f8 174B     		ldr	r3, .L74+4
 888 02fa 0022     		movs	r2, #0
 889 02fc 1A70     		strb	r2, [r3]
 434:..\src/interruptions.c ****                     interrupt_manager();
 890              		.loc 1 434 0
 891 02fe FFF7FEFF 		bl	interrupt_manager
 892              	.L52:
 435:..\src/interruptions.c ****                 }
 436:..\src/interruptions.c ****             }
 437:..\src/interruptions.c ****             if (!master_mode){
 893              		.loc 1 437 0
 894 0302 194B     		ldr	r3, .L74+20
 895 0304 1B78     		ldrb	r3, [r3]	@ zero_extendqisi2
 896 0306 002B     		cmp	r3, #0
 897 0308 11D1     		bne	.L55
 438:..\src/interruptions.c ****                 
 439:..\src/interruptions.c ****                 if (c_mem.MS.slave_comm_active) {
 898              		.loc 1 439 0
 899 030a 144B     		ldr	r3, .L74+8
 900 030c 93F8B032 		ldrb	r3, [r3, #688]	@ zero_extendqisi2
 901 0310 002B     		cmp	r3, #0
 902 0312 01D0     		beq	.L56
 440:..\src/interruptions.c ****                     // Stop feedback motors
 441:..\src/interruptions.c ****                     stop_feedback();
 903              		.loc 1 441 0
 904 0314 FFF7FEFF 		bl	stop_feedback
 905              	.L56:
 442:..\src/interruptions.c ****                 }
 443:..\src/interruptions.c ****                 // Disable slave or motors
 444:..\src/interruptions.c ****                 deactivate_slaves();
 906              		.loc 1 444 0
 907 0318 FFF7FEFF 		bl	deactivate_slaves
 445:..\src/interruptions.c ****                         
 446:..\src/interruptions.c ****                 // Check Interrupt 
 447:..\src/interruptions.c ****                 if (interrupt_flag){
 908              		.loc 1 447 0
 909 031c 0E4B     		ldr	r3, .L74+4
 910 031e 1B78     		ldrb	r3, [r3]	@ zero_extendqisi2
 911 0320 002B     		cmp	r3, #0
 912 0322 04D0     		beq	.L55
 448:..\src/interruptions.c ****                     interrupt_flag = FALSE;
 913              		.loc 1 448 0
 914 0324 0C4B     		ldr	r3, .L74+4
ARM GAS  C:\Users\Mattia\AppData\Local\Temp\ccUxgIpk.s 			page 25


 915 0326 0022     		movs	r2, #0
 916 0328 1A70     		strb	r2, [r3]
 449:..\src/interruptions.c ****                     interrupt_manager();
 917              		.loc 1 449 0
 918 032a FFF7FEFF 		bl	interrupt_manager
 919              	.L55:
 450:..\src/interruptions.c ****                 } 
 451:..\src/interruptions.c ****             }
 452:..\src/interruptions.c ****     
 453:..\src/interruptions.c ****             // Control MOTOR_IDX motor [PUMP] with PWM control
 454:..\src/interruptions.c ****             motor_control_generic(MOTOR_IDX);
 920              		.loc 1 454 0
 921 032e 97F8C639 		ldrb	r3, [r7, #2502]	@ zero_extendqisi2
 922 0332 1846     		mov	r0, r3
 923 0334 FFF7FEFF 		bl	motor_control_generic
 455:..\src/interruptions.c ****             
 456:..\src/interruptions.c ****             // Check Interrupt 
 457:..\src/interruptions.c **** 
 458:..\src/interruptions.c ****             if (interrupt_flag){
 924              		.loc 1 458 0
 925 0338 074B     		ldr	r3, .L74+4
 926 033a 1B78     		ldrb	r3, [r3]	@ zero_extendqisi2
 927 033c 002B     		cmp	r3, #0
 928 033e 15D0     		beq	.L73
 459:..\src/interruptions.c ****                 interrupt_flag = FALSE;
 929              		.loc 1 459 0
 930 0340 054B     		ldr	r3, .L74+4
 931 0342 0022     		movs	r2, #0
 932 0344 1A70     		strb	r2, [r3]
 460:..\src/interruptions.c ****                 interrupt_manager();
 933              		.loc 1 460 0
 934 0346 FFF7FEFF 		bl	interrupt_manager
 461:..\src/interruptions.c ****             }
 462:..\src/interruptions.c ****             
 463:..\src/interruptions.c ****             break;
 935              		.loc 1 463 0
 936 034a 0FE0     		b	.L73
 937              	.L71:
 328:..\src/interruptions.c ****             
 938              		.loc 1 328 0
 939 034c 00BF     		nop
 940 034e 0EE0     		b	.L35
 941              	.L72:
 400:..\src/interruptions.c ****             
 942              		.loc 1 400 0
 943 0350 00BF     		nop
 944 0352 0CE0     		b	.L35
 945              	.L75:
 946              		.align	2
 947              	.L74:
 948 0354 00000000 		.word	timer_value0
 949 0358 00000000 		.word	interrupt_flag
 950 035c 00000000 		.word	c_mem
 951 0360 00000000 		.word	N_Encoder_Line_Connected
 952 0364 00000000 		.word	change_ext_ref_flag
 953 0368 00000000 		.word	master_mode
 954              	.L73:
ARM GAS  C:\Users\Mattia\AppData\Local\Temp\ccUxgIpk.s 			page 26


 955              		.loc 1 463 0
 956 036c 00BF     		nop
 957              	.L35:
 464:..\src/interruptions.c ****     }
 465:..\src/interruptions.c **** 
 466:..\src/interruptions.c ****     //---------------------------------- Read conversion buffer - LOCK function
 467:..\src/interruptions.c **** 
 468:..\src/interruptions.c ****     analog_read_end();
 958              		.loc 1 468 0
 959 036e FFF7FEFF 		bl	analog_read_end
 469:..\src/interruptions.c **** 
 470:..\src/interruptions.c ****     if (interrupt_flag){
 960              		.loc 1 470 0
 961 0372 834B     		ldr	r3, .L76
 962 0374 1B78     		ldrb	r3, [r3]	@ zero_extendqisi2
 963 0376 002B     		cmp	r3, #0
 964 0378 04D0     		beq	.L58
 471:..\src/interruptions.c ****         interrupt_flag = FALSE;
 965              		.loc 1 471 0
 966 037a 814B     		ldr	r3, .L76
 967 037c 0022     		movs	r2, #0
 968 037e 1A70     		strb	r2, [r3]
 472:..\src/interruptions.c ****         interrupt_manager();
 969              		.loc 1 472 0
 970 0380 FFF7FEFF 		bl	interrupt_manager
 971              	.L58:
 473:..\src/interruptions.c ****     }
 474:..\src/interruptions.c **** 
 475:..\src/interruptions.c ****     //---------------------------------- Control Overcurrent
 476:..\src/interruptions.c **** 
 477:..\src/interruptions.c ****     overcurrent_control();
 972              		.loc 1 477 0
 973 0384 FFF7FEFF 		bl	overcurrent_control
 478:..\src/interruptions.c ****     
 479:..\src/interruptions.c ****     // Check Interrupt 
 480:..\src/interruptions.c ****     
 481:..\src/interruptions.c ****     if (interrupt_flag){
 974              		.loc 1 481 0
 975 0388 7D4B     		ldr	r3, .L76
 976 038a 1B78     		ldrb	r3, [r3]	@ zero_extendqisi2
 977 038c 002B     		cmp	r3, #0
 978 038e 04D0     		beq	.L59
 482:..\src/interruptions.c ****         interrupt_flag = FALSE;
 979              		.loc 1 482 0
 980 0390 7B4B     		ldr	r3, .L76
 981 0392 0022     		movs	r2, #0
 982 0394 1A70     		strb	r2, [r3]
 483:..\src/interruptions.c ****         interrupt_manager();
 983              		.loc 1 483 0
 984 0396 FFF7FEFF 		bl	interrupt_manager
 985              	.L59:
 484:..\src/interruptions.c ****     }
 485:..\src/interruptions.c **** 
 486:..\src/interruptions.c ****     //---------------------------------- Calibration 
 487:..\src/interruptions.c **** 
 488:..\src/interruptions.c ****     // Divider 10, freq = 500 Hz
 489:..\src/interruptions.c ****     if (calib.enabled == TRUE) {
ARM GAS  C:\Users\Mattia\AppData\Local\Temp\ccUxgIpk.s 			page 27


 986              		.loc 1 489 0
 987 039a 7A4B     		ldr	r3, .L76+4
 988 039c 1B78     		ldrb	r3, [r3]	@ zero_extendqisi2
 989 039e 012B     		cmp	r3, #1
 990 03a0 0ED1     		bne	.L60
 490:..\src/interruptions.c ****         if (counter_calibration == CALIBRATION_DIV) {
 991              		.loc 1 490 0
 992 03a2 794B     		ldr	r3, .L76+8
 993 03a4 1B88     		ldrh	r3, [r3]
 994 03a6 0A2B     		cmp	r3, #10
 995 03a8 04D1     		bne	.L61
 491:..\src/interruptions.c ****             calibration();
 996              		.loc 1 491 0
 997 03aa FFF7FEFF 		bl	calibration
 492:..\src/interruptions.c ****             counter_calibration = 0;
 998              		.loc 1 492 0
 999 03ae 764B     		ldr	r3, .L76+8
 1000 03b0 0022     		movs	r2, #0
 1001 03b2 1A80     		strh	r2, [r3]	@ movhi
 1002              	.L61:
 493:..\src/interruptions.c ****         }
 494:..\src/interruptions.c ****         counter_calibration++;
 1003              		.loc 1 494 0
 1004 03b4 744B     		ldr	r3, .L76+8
 1005 03b6 1B88     		ldrh	r3, [r3]
 1006 03b8 0133     		adds	r3, r3, #1
 1007 03ba 9AB2     		uxth	r2, r3
 1008 03bc 724B     		ldr	r3, .L76+8
 1009 03be 1A80     		strh	r2, [r3]	@ movhi
 1010              	.L60:
 495:..\src/interruptions.c ****     }
 496:..\src/interruptions.c **** 
 497:..\src/interruptions.c ****     // Check Interrupt 
 498:..\src/interruptions.c ****     
 499:..\src/interruptions.c ****     if (interrupt_flag){
 1011              		.loc 1 499 0
 1012 03c0 6F4B     		ldr	r3, .L76
 1013 03c2 1B78     		ldrb	r3, [r3]	@ zero_extendqisi2
 1014 03c4 002B     		cmp	r3, #0
 1015 03c6 04D0     		beq	.L62
 500:..\src/interruptions.c ****         interrupt_flag = FALSE;
 1016              		.loc 1 500 0
 1017 03c8 6D4B     		ldr	r3, .L76
 1018 03ca 0022     		movs	r2, #0
 1019 03cc 1A70     		strb	r2, [r3]
 501:..\src/interruptions.c ****         interrupt_manager();
 1020              		.loc 1 501 0
 1021 03ce FFF7FEFF 		bl	interrupt_manager
 1022              	.L62:
 502:..\src/interruptions.c ****     }
 503:..\src/interruptions.c ****     
 504:..\src/interruptions.c ****     if (c_mem.dev.dev_type == SOFTHAND_PRO){   
 1023              		.loc 1 504 0
 1024 03d2 6E4B     		ldr	r3, .L76+12
 1025 03d4 93F8AC30 		ldrb	r3, [r3, #172]	@ zero_extendqisi2
 1026 03d8 002B     		cmp	r3, #0
 1027 03da 1CD1     		bne	.L63
ARM GAS  C:\Users\Mattia\AppData\Local\Temp\ccUxgIpk.s 			page 28


 505:..\src/interruptions.c ****     
 506:..\src/interruptions.c ****         //---------------------------------- Rest position check
 507:..\src/interruptions.c **** 
 508:..\src/interruptions.c ****         // Divider 10, freq = 500 Hz
 509:..\src/interruptions.c ****         if (c_mem.SH.rest_position_flag == TRUE){
 1028              		.loc 1 509 0
 1029 03dc 6B4B     		ldr	r3, .L76+12
 1030 03de 93F8AC32 		ldrb	r3, [r3, #684]	@ zero_extendqisi2
 1031 03e2 012B     		cmp	r3, #1
 1032 03e4 17D1     		bne	.L63
 510:..\src/interruptions.c ****             if (counter_calibration == CALIBRATION_DIV) {
 1033              		.loc 1 510 0
 1034 03e6 684B     		ldr	r3, .L76+8
 1035 03e8 1B88     		ldrh	r3, [r3]
 1036 03ea 0A2B     		cmp	r3, #10
 1037 03ec 04D1     		bne	.L64
 511:..\src/interruptions.c ****                     check_rest_position();
 1038              		.loc 1 511 0
 1039 03ee FFF7FEFF 		bl	check_rest_position
 512:..\src/interruptions.c ****                     counter_calibration = 0;
 1040              		.loc 1 512 0
 1041 03f2 654B     		ldr	r3, .L76+8
 1042 03f4 0022     		movs	r2, #0
 1043 03f6 1A80     		strh	r2, [r3]	@ movhi
 1044              	.L64:
 513:..\src/interruptions.c ****             }
 514:..\src/interruptions.c ****             counter_calibration++;
 1045              		.loc 1 514 0
 1046 03f8 634B     		ldr	r3, .L76+8
 1047 03fa 1B88     		ldrh	r3, [r3]
 1048 03fc 0133     		adds	r3, r3, #1
 1049 03fe 9AB2     		uxth	r2, r3
 1050 0400 614B     		ldr	r3, .L76+8
 1051 0402 1A80     		strh	r2, [r3]	@ movhi
 515:..\src/interruptions.c **** 
 516:..\src/interruptions.c ****             // Check Interrupt     
 517:..\src/interruptions.c ****             if (interrupt_flag){
 1052              		.loc 1 517 0
 1053 0404 5E4B     		ldr	r3, .L76
 1054 0406 1B78     		ldrb	r3, [r3]	@ zero_extendqisi2
 1055 0408 002B     		cmp	r3, #0
 1056 040a 04D0     		beq	.L63
 518:..\src/interruptions.c ****                 interrupt_flag = FALSE;
 1057              		.loc 1 518 0
 1058 040c 5C4B     		ldr	r3, .L76
 1059 040e 0022     		movs	r2, #0
 1060 0410 1A70     		strb	r2, [r3]
 519:..\src/interruptions.c ****                 interrupt_manager();
 1061              		.loc 1 519 0
 1062 0412 FFF7FEFF 		bl	interrupt_manager
 1063              	.L63:
 520:..\src/interruptions.c ****             }
 521:..\src/interruptions.c ****         }
 522:..\src/interruptions.c ****         
 523:..\src/interruptions.c ****     }
 524:..\src/interruptions.c ****     //---------------------------------- Control Cycles Counter
 525:..\src/interruptions.c **** 
ARM GAS  C:\Users\Mattia\AppData\Local\Temp\ccUxgIpk.s 			page 29


 526:..\src/interruptions.c ****     cycles_counter_update();
 1064              		.loc 1 526 0
 1065 0416 FFF7FEFF 		bl	cycles_counter_update
 527:..\src/interruptions.c **** 
 528:..\src/interruptions.c ****     // Check Cycles Interrupt 
 529:..\src/interruptions.c ****     
 530:..\src/interruptions.c ****     if (cycles_interrupt_flag){
 1066              		.loc 1 530 0
 1067 041a 5D4B     		ldr	r3, .L76+16
 1068 041c 1B78     		ldrb	r3, [r3]	@ zero_extendqisi2
 1069 041e 002B     		cmp	r3, #0
 1070 0420 25D0     		beq	.L65
 531:..\src/interruptions.c ****         cycles_interrupt_flag = FALSE;
 1071              		.loc 1 531 0
 1072 0422 5B4B     		ldr	r3, .L76+16
 1073 0424 0022     		movs	r2, #0
 1074 0426 1A70     		strb	r2, [r3]
 532:..\src/interruptions.c **** 
 533:..\src/interruptions.c ****         // Cycles are written only every 120 seconds (CYCLES_TIMER interrupt)
 534:..\src/interruptions.c ****         // to save EEPROM writings (1M maximum)
 535:..\src/interruptions.c ****         if(can_write) {
 1075              		.loc 1 535 0
 1076 0428 5A4B     		ldr	r3, .L76+20
 1077 042a 1B78     		ldrb	r3, [r3]	@ zero_extendqisi2
 1078 042c 002B     		cmp	r3, #0
 1079 042e 1ED0     		beq	.L65
 536:..\src/interruptions.c ****             cycles_status = PREPARE_DATA;
 1080              		.loc 1 536 0
 1081 0430 594B     		ldr	r3, .L76+24
 1082 0432 0022     		movs	r2, #0
 1083 0434 1A70     		strb	r2, [r3]
 537:..\src/interruptions.c ****             
 538:..\src/interruptions.c ****             //Update time variable
 539:..\src/interruptions.c ****             g_mem.cnt.total_time_on = g_mem.cnt.total_time_on + 120;  // Add 120 seconds.
 1084              		.loc 1 539 0
 1085 0436 594B     		ldr	r3, .L76+28
 1086 0438 9B6D     		ldr	r3, [r3, #88]
 1087 043a 7833     		adds	r3, r3, #120
 1088 043c 574A     		ldr	r2, .L76+28
 1089 043e 9365     		str	r3, [r2, #88]
 540:..\src/interruptions.c ****             
 541:..\src/interruptions.c ****             if (c_mem.exp.read_exp_port_flag == EXP_SD_RTC) {
 1090              		.loc 1 541 0
 1091 0440 524B     		ldr	r3, .L76+12
 1092 0442 93F82632 		ldrb	r3, [r3, #550]	@ zero_extendqisi2
 1093 0446 012B     		cmp	r3, #1
 1094 0448 11D1     		bne	.L65
 542:..\src/interruptions.c ****                 
 543:..\src/interruptions.c ****                 store_RTC_current_time();
 1095              		.loc 1 543 0
 1096 044a FFF7FEFF 		bl	store_RTC_current_time
 544:..\src/interruptions.c ****                 
 545:..\src/interruptions.c ****                 //Write in SD card
 546:..\src/interruptions.c ****                 prepare_SD_info(info_);
 1097              		.loc 1 546 0
 1098 044e 3B46     		mov	r3, r7
 1099 0450 1846     		mov	r0, r3
ARM GAS  C:\Users\Mattia\AppData\Local\Temp\ccUxgIpk.s 			page 30


 1100 0452 FFF7FEFF 		bl	prepare_SD_info
 547:..\src/interruptions.c ****                 FS_Write(pFile, info_, strlen(info_));
 1101              		.loc 1 547 0
 1102 0456 524B     		ldr	r3, .L76+32
 1103 0458 1C68     		ldr	r4, [r3]
 1104 045a 3B46     		mov	r3, r7
 1105 045c 1846     		mov	r0, r3
 1106 045e FFF7FEFF 		bl	strlen
 1107 0462 0246     		mov	r2, r0
 1108 0464 3B46     		mov	r3, r7
 1109 0466 1946     		mov	r1, r3
 1110 0468 2046     		mov	r0, r4
 1111 046a FFF7FEFF 		bl	FS_Write
 1112              	.L65:
 548:..\src/interruptions.c ****             }
 549:..\src/interruptions.c ****         }
 550:..\src/interruptions.c ****     }
 551:..\src/interruptions.c ****     
 552:..\src/interruptions.c ****     // Check Interrupt 
 553:..\src/interruptions.c ****     
 554:..\src/interruptions.c ****     if (interrupt_flag){
 1113              		.loc 1 554 0
 1114 046e 444B     		ldr	r3, .L76
 1115 0470 1B78     		ldrb	r3, [r3]	@ zero_extendqisi2
 1116 0472 002B     		cmp	r3, #0
 1117 0474 04D0     		beq	.L66
 555:..\src/interruptions.c ****         interrupt_flag = FALSE;
 1118              		.loc 1 555 0
 1119 0476 424B     		ldr	r3, .L76
 1120 0478 0022     		movs	r2, #0
 1121 047a 1A70     		strb	r2, [r3]
 556:..\src/interruptions.c ****         interrupt_manager();
 1122              		.loc 1 556 0
 1123 047c FFF7FEFF 		bl	interrupt_manager
 1124              	.L66:
 557:..\src/interruptions.c ****     }
 558:..\src/interruptions.c ****     
 559:..\src/interruptions.c ****     
 560:..\src/interruptions.c ****     //---------------------------------- Check battery
 561:..\src/interruptions.c **** 
 562:..\src/interruptions.c ****     // Divider 10, freq = 500 Hz
 563:..\src/interruptions.c ****     if (counter_tension_func == CALIBRATION_DIV) {
 1125              		.loc 1 563 0
 1126 0480 484B     		ldr	r3, .L76+36
 1127 0482 1B88     		ldrh	r3, [r3]
 1128 0484 0A2B     		cmp	r3, #10
 1129 0486 04D1     		bne	.L67
 564:..\src/interruptions.c ****         battery_management();   
 1130              		.loc 1 564 0
 1131 0488 FFF7FEFF 		bl	battery_management
 565:..\src/interruptions.c ****         counter_tension_func = 0;
 1132              		.loc 1 565 0
 1133 048c 454B     		ldr	r3, .L76+36
 1134 048e 0022     		movs	r2, #0
 1135 0490 1A80     		strh	r2, [r3]	@ movhi
 1136              	.L67:
 566:..\src/interruptions.c ****     }
ARM GAS  C:\Users\Mattia\AppData\Local\Temp\ccUxgIpk.s 			page 31


 567:..\src/interruptions.c ****     counter_tension_func++;
 1137              		.loc 1 567 0
 1138 0492 444B     		ldr	r3, .L76+36
 1139 0494 1B88     		ldrh	r3, [r3]
 1140 0496 0133     		adds	r3, r3, #1
 1141 0498 9AB2     		uxth	r2, r3
 1142 049a 424B     		ldr	r3, .L76+36
 1143 049c 1A80     		strh	r2, [r3]	@ movhi
 568:..\src/interruptions.c **** 
 569:..\src/interruptions.c ****     // Check Interrupt 
 570:..\src/interruptions.c ****     
 571:..\src/interruptions.c ****     if (interrupt_flag){
 1144              		.loc 1 571 0
 1145 049e 384B     		ldr	r3, .L76
 1146 04a0 1B78     		ldrb	r3, [r3]	@ zero_extendqisi2
 1147 04a2 002B     		cmp	r3, #0
 1148 04a4 04D0     		beq	.L68
 572:..\src/interruptions.c ****         interrupt_flag = FALSE;
 1149              		.loc 1 572 0
 1150 04a6 364B     		ldr	r3, .L76
 1151 04a8 0022     		movs	r2, #0
 1152 04aa 1A70     		strb	r2, [r3]
 573:..\src/interruptions.c ****         interrupt_manager();
 1153              		.loc 1 573 0
 1154 04ac FFF7FEFF 		bl	interrupt_manager
 1155              	.L68:
 574:..\src/interruptions.c ****     }
 575:..\src/interruptions.c ****    
 576:..\src/interruptions.c ****     //---------------------------------- Read IMUs
 577:..\src/interruptions.c ****     if (c_mem.imu.read_imu_flag) {
 1156              		.loc 1 577 0
 1157 04b0 364B     		ldr	r3, .L76+12
 1158 04b2 93F80032 		ldrb	r3, [r3, #512]	@ zero_extendqisi2
 1159 04b6 002B     		cmp	r3, #0
 1160 04b8 0AD0     		beq	.L69
 578:..\src/interruptions.c ****         ReadAllIMUs();      // IMU reading is atomic, no RS485 request is handled
 1161              		.loc 1 578 0
 1162 04ba FFF7FEFF 		bl	ReadAllIMUs
 579:..\src/interruptions.c ****         
 580:..\src/interruptions.c ****         if (interrupt_flag){
 1163              		.loc 1 580 0
 1164 04be 304B     		ldr	r3, .L76
 1165 04c0 1B78     		ldrb	r3, [r3]	@ zero_extendqisi2
 1166 04c2 002B     		cmp	r3, #0
 1167 04c4 04D0     		beq	.L69
 581:..\src/interruptions.c ****             interrupt_flag = FALSE;
 1168              		.loc 1 581 0
 1169 04c6 2E4B     		ldr	r3, .L76
 1170 04c8 0022     		movs	r2, #0
 1171 04ca 1A70     		strb	r2, [r3]
 582:..\src/interruptions.c ****             interrupt_manager();
 1172              		.loc 1 582 0
 1173 04cc FFF7FEFF 		bl	interrupt_manager
 1174              	.L69:
 583:..\src/interruptions.c ****         }
 584:..\src/interruptions.c ****     }
 585:..\src/interruptions.c ****    
ARM GAS  C:\Users\Mattia\AppData\Local\Temp\ccUxgIpk.s 			page 32


 586:..\src/interruptions.c ****     //---------------------------------- Update States
 587:..\src/interruptions.c ****     
 588:..\src/interruptions.c ****     // Load k-1 state
 589:..\src/interruptions.c ****     memcpy( &g_emg_measOld, &g_emg_meas, sizeof(g_emg_meas) );
 1175              		.loc 1 589 0
 1176 04d0 354A     		ldr	r2, .L76+40
 1177 04d2 364B     		ldr	r3, .L76+44
 1178 04d4 1446     		mov	r4, r2
 1179 04d6 1D46     		mov	r5, r3
 1180 04d8 0FCD     		ldmia	r5!, {r0, r1, r2, r3}
 1181 04da 0FC4     		stmia	r4!, {r0, r1, r2, r3}
 1182 04dc 95E80F00 		ldmia	r5, {r0, r1, r2, r3}
 1183 04e0 84E80F00 		stmia	r4, {r0, r1, r2, r3}
 590:..\src/interruptions.c ****     memcpy( &g_measOld, &g_meas, sizeof(g_meas) );
 1184              		.loc 1 590 0
 1185 04e4 324A     		ldr	r2, .L76+48
 1186 04e6 334B     		ldr	r3, .L76+52
 1187 04e8 1046     		mov	r0, r2
 1188 04ea 1946     		mov	r1, r3
 1189 04ec 6823     		movs	r3, #104
 1190 04ee 1A46     		mov	r2, r3
 1191 04f0 FFF7FEFF 		bl	memcpy
 591:..\src/interruptions.c ****     memcpy( &g_refOld, &g_ref, sizeof(g_ref) );
 1192              		.loc 1 591 0
 1193 04f4 304A     		ldr	r2, .L76+56
 1194 04f6 314B     		ldr	r3, .L76+60
 1195 04f8 1446     		mov	r4, r2
 1196 04fa 1D46     		mov	r5, r3
 1197 04fc 0FCD     		ldmia	r5!, {r0, r1, r2, r3}
 1198 04fe 0FC4     		stmia	r4!, {r0, r1, r2, r3}
 1199 0500 95E80F00 		ldmia	r5, {r0, r1, r2, r3}
 1200 0504 84E80F00 		stmia	r4, {r0, r1, r2, r3}
 592:..\src/interruptions.c **** 
 593:..\src/interruptions.c ****     // Load k+1 state        
 594:..\src/interruptions.c ****     memcpy( &g_ref, &g_refNew, sizeof(g_ref) );
 1201              		.loc 1 594 0
 1202 0508 2C4A     		ldr	r2, .L76+60
 1203 050a 2D4B     		ldr	r3, .L76+64
 1204 050c 1446     		mov	r4, r2
 1205 050e 1D46     		mov	r5, r3
 1206 0510 0FCD     		ldmia	r5!, {r0, r1, r2, r3}
 1207 0512 0FC4     		stmia	r4!, {r0, r1, r2, r3}
 1208 0514 95E80F00 		ldmia	r5, {r0, r1, r2, r3}
 1209 0518 84E80F00 		stmia	r4, {r0, r1, r2, r3}
 595:..\src/interruptions.c ****     memcpy( &g_imu, &g_imuNew, sizeof(g_imu) );
 1210              		.loc 1 595 0
 1211 051c 294A     		ldr	r2, .L76+68
 1212 051e 2A4B     		ldr	r3, .L76+72
 1213 0520 1046     		mov	r0, r2
 1214 0522 1946     		mov	r1, r3
 1215 0524 C823     		movs	r3, #200
 1216 0526 1A46     		mov	r2, r3
 1217 0528 FFF7FEFF 		bl	memcpy
 596:..\src/interruptions.c ****                 
 597:..\src/interruptions.c ****     if (interrupt_flag){
 1218              		.loc 1 597 0
 1219 052c 144B     		ldr	r3, .L76
ARM GAS  C:\Users\Mattia\AppData\Local\Temp\ccUxgIpk.s 			page 33


 1220 052e 1B78     		ldrb	r3, [r3]	@ zero_extendqisi2
 1221 0530 002B     		cmp	r3, #0
 1222 0532 04D0     		beq	.L70
 598:..\src/interruptions.c ****         interrupt_flag = FALSE;
 1223              		.loc 1 598 0
 1224 0534 124B     		ldr	r3, .L76
 1225 0536 0022     		movs	r2, #0
 1226 0538 1A70     		strb	r2, [r3]
 599:..\src/interruptions.c ****         interrupt_manager();
 1227              		.loc 1 599 0
 1228 053a FFF7FEFF 		bl	interrupt_manager
 1229              	.L70:
 600:..\src/interruptions.c ****     }
 601:..\src/interruptions.c **** 
 602:..\src/interruptions.c ****     timer_value = (uint16)MY_TIMER_ReadCounter();
 1230              		.loc 1 602 0
 1231 053e FFF7FEFF 		bl	MY_TIMER_ReadCounter
 1232 0542 0346     		mov	r3, r0
 1233 0544 1A46     		mov	r2, r3
 1234 0546 214B     		ldr	r3, .L76+76
 1235 0548 1A80     		strh	r2, [r3]	@ movhi
 603:..\src/interruptions.c ****     cycle_time = ((float)(timer_value0 - timer_value)/1000000.0);
 1236              		.loc 1 603 0
 1237 054a 214B     		ldr	r3, .L76+80
 1238 054c 1B88     		ldrh	r3, [r3]
 1239 054e 1A46     		mov	r2, r3
 1240 0550 1E4B     		ldr	r3, .L76+76
 1241 0552 1B88     		ldrh	r3, [r3]
 1242 0554 D31A     		subs	r3, r2, r3
 1243 0556 1846     		mov	r0, r3
 1244 0558 FFF7FEFF 		bl	__aeabi_i2f
 1245 055c 0346     		mov	r3, r0
 1246 055e 1D49     		ldr	r1, .L76+84
 1247 0560 1846     		mov	r0, r3
 1248 0562 FFF7FEFF 		bl	__aeabi_fdiv
 1249 0566 0346     		mov	r3, r0
 1250 0568 1A46     		mov	r2, r3
 1251 056a 1B4B     		ldr	r3, .L76+88
 1252 056c 1A60     		str	r2, [r3]	@ float
 604:..\src/interruptions.c ****     MY_TIMER_REG_Write(0x01);   // reset timer
 1253              		.loc 1 604 0
 1254 056e 0120     		movs	r0, #1
 1255 0570 FFF7FEFF 		bl	MY_TIMER_REG_Write
 605:..\src/interruptions.c **** 
 606:..\src/interruptions.c **** }
 1256              		.loc 1 606 0
 1257 0574 00BF     		nop
 1258 0576 07F6C817 		addw	r7, r7, #2504
 1259              		.cfi_def_cfa_offset 16
 1260 057a BD46     		mov	sp, r7
 1261              		.cfi_def_cfa_register 13
 1262              		@ sp needed
 1263 057c B0BD     		pop	{r4, r5, r7, pc}
 1264              	.L77:
 1265 057e 00BF     		.align	2
 1266              	.L76:
 1267 0580 00000000 		.word	interrupt_flag
ARM GAS  C:\Users\Mattia\AppData\Local\Temp\ccUxgIpk.s 			page 34


 1268 0584 00000000 		.word	calib
 1269 0588 00000000 		.word	counter_calibration.10401
 1270 058c 00000000 		.word	c_mem
 1271 0590 00000000 		.word	cycles_interrupt_flag
 1272 0594 00000000 		.word	can_write
 1273 0598 00000000 		.word	cycles_status
 1274 059c 00000000 		.word	g_mem
 1275 05a0 00000000 		.word	pFile
 1276 05a4 02000000 		.word	counter_tension_func.10402
 1277 05a8 00000000 		.word	g_emg_measOld
 1278 05ac 00000000 		.word	g_emg_meas
 1279 05b0 00000000 		.word	g_measOld
 1280 05b4 00000000 		.word	g_meas
 1281 05b8 00000000 		.word	g_refOld
 1282 05bc 00000000 		.word	g_ref
 1283 05c0 00000000 		.word	g_refNew
 1284 05c4 00000000 		.word	g_imu
 1285 05c8 00000000 		.word	g_imuNew
 1286 05cc 00000000 		.word	timer_value
 1287 05d0 00000000 		.word	timer_value0
 1288 05d4 00247449 		.word	1232348160
 1289 05d8 00000000 		.word	cycle_time
 1290              		.cfi_endproc
 1291              	.LFE67:
 1292              		.size	function_scheduler, .-function_scheduler
 1293              		.section	.text.motor_control_SH,"ax",%progbits
 1294              		.align	2
 1295              		.global	motor_control_SH
 1296              		.thumb
 1297              		.thumb_func
 1298              		.type	motor_control_SH, %function
 1299              	motor_control_SH:
 1300              	.LFB68:
 607:..\src/interruptions.c **** 
 608:..\src/interruptions.c **** //==============================================================================
 609:..\src/interruptions.c **** //                                                        MOTOR CONTROL SOFTHAND
 610:..\src/interruptions.c **** //==============================================================================
 611:..\src/interruptions.c **** void motor_control_SH() {
 1301              		.loc 1 611 0
 1302              		.cfi_startproc
 1303              		@ args = 0, pretend = 0, frame = 88
 1304              		@ frame_needed = 1, uses_anonymous_args = 0
 1305 0000 80B5     		push	{r7, lr}
 1306              		.cfi_def_cfa_offset 8
 1307              		.cfi_offset 7, -8
 1308              		.cfi_offset 14, -4
 1309 0002 96B0     		sub	sp, sp, #88
 1310              		.cfi_def_cfa_offset 96
 1311 0004 00AF     		add	r7, sp, #0
 1312              		.cfi_def_cfa_register 7
 612:..\src/interruptions.c **** 
 613:..\src/interruptions.c ****     int32 CYDATA pwm_input = 0;
 1313              		.loc 1 613 0
 1314 0006 0023     		movs	r3, #0
 1315 0008 7B65     		str	r3, [r7, #84]
 614:..\src/interruptions.c ****     int32 CYDATA pos_error;         // position error
 615:..\src/interruptions.c ****     int32 CYDATA curr_error;        // current error
ARM GAS  C:\Users\Mattia\AppData\Local\Temp\ccUxgIpk.s 			page 35


 616:..\src/interruptions.c ****     int32 CYDATA i_ref;             // current reference
 617:..\src/interruptions.c ****     int32 CYDATA handle_value;
 618:..\src/interruptions.c ****     int32 CYDATA err_emg_1, err_emg_2;
 619:..\src/interruptions.c **** 
 620:..\src/interruptions.c ****     uint8 MOTOR_IDX = 0;
 1316              		.loc 1 620 0
 1317 000a 0023     		movs	r3, #0
 1318 000c 87F84B30 		strb	r3, [r7, #75]
 621:..\src/interruptions.c ****     
 622:..\src/interruptions.c ****     struct st_motor* SH_MOT = &c_mem.motor[MOTOR_IDX];      // SoftHand default motor
 1319              		.loc 1 622 0
 1320 0010 97F84B20 		ldrb	r2, [r7, #75]	@ zero_extendqisi2
 1321 0014 1346     		mov	r3, r2
 1322 0016 DB00     		lsls	r3, r3, #3
 1323 0018 9B1A     		subs	r3, r3, r2
 1324 001a 1B01     		lsls	r3, r3, #4
 1325 001c B033     		adds	r3, r3, #176
 1326 001e A34A     		ldr	r2, .L191
 1327 0020 1344     		add	r3, r3, r2
 1328 0022 7B64     		str	r3, [r7, #68]
 623:..\src/interruptions.c ****     uint8 SH_ENC_L = SH_MOT->encoder_line;          // Associated encoder line
 1329              		.loc 1 623 0
 1330 0024 7B6C     		ldr	r3, [r7, #68]
 1331 0026 93F86030 		ldrb	r3, [r3, #96]
 1332 002a 87F84330 		strb	r3, [r7, #67]
 624:..\src/interruptions.c ****     
 625:..\src/interruptions.c ****     int32 CYDATA k_p = SH_MOT->k_p;  
 1333              		.loc 1 625 0
 1334 002e 7B6C     		ldr	r3, [r7, #68]
 1335 0030 1B68     		ldr	r3, [r3]
 1336 0032 FB63     		str	r3, [r7, #60]
 626:..\src/interruptions.c ****     int32 CYDATA k_i = SH_MOT->k_i; 
 1337              		.loc 1 626 0
 1338 0034 7B6C     		ldr	r3, [r7, #68]
 1339 0036 5B68     		ldr	r3, [r3, #4]
 1340 0038 BB63     		str	r3, [r7, #56]
 627:..\src/interruptions.c ****     int32 CYDATA k_d = SH_MOT->k_d; 
 1341              		.loc 1 627 0
 1342 003a 7B6C     		ldr	r3, [r7, #68]
 1343 003c 9B68     		ldr	r3, [r3, #8]
 1344 003e 7B63     		str	r3, [r7, #52]
 628:..\src/interruptions.c **** 
 629:..\src/interruptions.c ****     int32 CYDATA k_p_c = SH_MOT->k_p_c;  
 1345              		.loc 1 629 0
 1346 0040 7B6C     		ldr	r3, [r7, #68]
 1347 0042 DB68     		ldr	r3, [r3, #12]
 1348 0044 3B63     		str	r3, [r7, #48]
 630:..\src/interruptions.c ****     int32 CYDATA k_i_c = SH_MOT->k_i_c; 
 1349              		.loc 1 630 0
 1350 0046 7B6C     		ldr	r3, [r7, #68]
 1351 0048 1B69     		ldr	r3, [r3, #16]
 1352 004a FB62     		str	r3, [r7, #44]
 631:..\src/interruptions.c ****     int32 CYDATA k_d_c = SH_MOT->k_d_c;   
 1353              		.loc 1 631 0
 1354 004c 7B6C     		ldr	r3, [r7, #68]
 1355 004e 5B69     		ldr	r3, [r3, #20]
 1356 0050 BB62     		str	r3, [r7, #40]
ARM GAS  C:\Users\Mattia\AppData\Local\Temp\ccUxgIpk.s 			page 36


 632:..\src/interruptions.c **** 
 633:..\src/interruptions.c ****     int32 CYDATA k_p_dl = SH_MOT->k_p_dl;  
 1357              		.loc 1 633 0
 1358 0052 7B6C     		ldr	r3, [r7, #68]
 1359 0054 9B69     		ldr	r3, [r3, #24]
 1360 0056 7B62     		str	r3, [r7, #36]
 634:..\src/interruptions.c ****     int32 CYDATA k_i_dl = SH_MOT->k_i_dl; 
 1361              		.loc 1 634 0
 1362 0058 7B6C     		ldr	r3, [r7, #68]
 1363 005a DB69     		ldr	r3, [r3, #28]
 1364 005c 3B62     		str	r3, [r7, #32]
 635:..\src/interruptions.c ****     int32 CYDATA k_d_dl = SH_MOT->k_d_dl;
 1365              		.loc 1 635 0
 1366 005e 7B6C     		ldr	r3, [r7, #68]
 1367 0060 1B6A     		ldr	r3, [r3, #32]
 1368 0062 FB61     		str	r3, [r7, #28]
 636:..\src/interruptions.c ****     
 637:..\src/interruptions.c ****     int32 CYDATA k_p_c_dl = SH_MOT->k_p_c_dl;  
 1369              		.loc 1 637 0
 1370 0064 7B6C     		ldr	r3, [r7, #68]
 1371 0066 5B6A     		ldr	r3, [r3, #36]
 1372 0068 BB61     		str	r3, [r7, #24]
 638:..\src/interruptions.c ****     int32 CYDATA k_i_c_dl = SH_MOT->k_i_c_dl; 
 1373              		.loc 1 638 0
 1374 006a 7B6C     		ldr	r3, [r7, #68]
 1375 006c 9B6A     		ldr	r3, [r3, #40]
 1376 006e 7B61     		str	r3, [r7, #20]
 639:..\src/interruptions.c ****     int32 CYDATA k_d_c_dl = SH_MOT->k_d_c_dl;   
 1377              		.loc 1 639 0
 1378 0070 7B6C     		ldr	r3, [r7, #68]
 1379 0072 DB6A     		ldr	r3, [r3, #44]
 1380 0074 3B61     		str	r3, [r7, #16]
 640:..\src/interruptions.c **** 
 641:..\src/interruptions.c ****     // Static Variables
 642:..\src/interruptions.c **** 
 643:..\src/interruptions.c ****     static int32 pos_error_sum;     // position error sum for integral
 644:..\src/interruptions.c ****     static int32 curr_error_sum;    // current error sum for integral
 645:..\src/interruptions.c ****     
 646:..\src/interruptions.c ****     static int32 prev_pos_err;      // previous position error for deriv. control
 647:..\src/interruptions.c ****     static int32 prev_curr_err;     // previous current error for deriv. control
 648:..\src/interruptions.c ****     static int32 prev_pwm;
 649:..\src/interruptions.c **** 
 650:..\src/interruptions.c ****     static CYBIT motor_dir = FALSE;
 651:..\src/interruptions.c ****     static uint32 position_counter = 0;
 652:..\src/interruptions.c ****     static uint8 current_emg = 0;   // 0 NONE
 653:..\src/interruptions.c ****                                     // 1 EMG 1
 654:..\src/interruptions.c ****                                     // 2 EMG 2
 655:..\src/interruptions.c ****                                     // wait for both to get down
 656:..\src/interruptions.c ****     
 657:..\src/interruptions.c **** 
 658:..\src/interruptions.c ****     err_emg_1 = g_emg_meas.emg[0] - c_mem.emg.emg_threshold[0];
 1381              		.loc 1 658 0
 1382 0076 8E4B     		ldr	r3, .L191+4
 1383 0078 1B68     		ldr	r3, [r3]
 1384 007a 8C4A     		ldr	r2, .L191
 1385 007c B2F8F021 		ldrh	r2, [r2, #496]
 1386 0080 9B1A     		subs	r3, r3, r2
ARM GAS  C:\Users\Mattia\AppData\Local\Temp\ccUxgIpk.s 			page 37


 1387 0082 FB60     		str	r3, [r7, #12]
 659:..\src/interruptions.c ****     err_emg_2 = g_emg_meas.emg[1] - c_mem.emg.emg_threshold[1];
 1388              		.loc 1 659 0
 1389 0084 8A4B     		ldr	r3, .L191+4
 1390 0086 5B68     		ldr	r3, [r3, #4]
 1391 0088 884A     		ldr	r2, .L191
 1392 008a B2F8F221 		ldrh	r2, [r2, #498]
 1393 008e 9B1A     		subs	r3, r3, r2
 1394 0090 BB60     		str	r3, [r7, #8]
 660:..\src/interruptions.c **** 
 661:..\src/interruptions.c ****     // =========================== POSITION INPUT ==============================            
 662:..\src/interruptions.c ****     switch(SH_MOT->input_mode) {
 1395              		.loc 1 662 0
 1396 0092 7B6C     		ldr	r3, [r7, #68]
 1397 0094 93F85E30 		ldrb	r3, [r3, #94]	@ zero_extendqisi2
 1398 0098 013B     		subs	r3, r3, #1
 1399 009a 052B     		cmp	r3, #5
 1400 009c 00F2C681 		bhi	.L183
 1401 00a0 01A2     		adr	r2, .L81
 1402 00a2 52F823F0 		ldr	pc, [r2, r3, lsl #2]
 1403 00a6 00BF     		.p2align 2
 1404              	.L81:
 1405 00a8 C1000000 		.word	.L80+1
 1406 00ac A3010000 		.word	.L82+1
 1407 00b0 0B020000 		.word	.L83+1
 1408 00b4 7B020000 		.word	.L84+1
 1409 00b8 53030000 		.word	.L85+1
 1410 00bc D1010000 		.word	.L86+1
 1411              		.p2align 1
 1412              	.L80:
 663:..\src/interruptions.c ****         case INPUT_MODE_ENCODER3:
 664:..\src/interruptions.c **** 
 665:..\src/interruptions.c ****             // Calculate handle value based on position of handle in the
 666:..\src/interruptions.c ****             // sensor chain and multiplication factor between handle and motor position
 667:..\src/interruptions.c ****             if (c_mem.enc[SH_ENC_L].double_encoder_on_off) 
 1413              		.loc 1 667 0
 1414 00c0 97F84320 		ldrb	r2, [r7, #67]	@ zero_extendqisi2
 1415 00c4 7949     		ldr	r1, .L191
 1416 00c6 1346     		mov	r3, r2
 1417 00c8 5B00     		lsls	r3, r3, #1
 1418 00ca 1344     		add	r3, r3, r2
 1419 00cc 1B01     		lsls	r3, r3, #4
 1420 00ce 0B44     		add	r3, r3, r1
 1421 00d0 03F5D873 		add	r3, r3, #432
 1422 00d4 1B78     		ldrb	r3, [r3]	@ zero_extendqisi2
 1423 00d6 002B     		cmp	r3, #0
 1424 00d8 1BD0     		beq	.L87
 668:..\src/interruptions.c ****                 handle_value = (g_meas[SH_ENC_L].pos[2] * c_mem.enc[SH_ENC_L].motor_handle_ratio) +
 1425              		.loc 1 668 0
 1426 00da 97F84330 		ldrb	r3, [r7, #67]	@ zero_extendqisi2
 1427 00de 754A     		ldr	r2, .L191+8
 1428 00e0 3421     		movs	r1, #52
 1429 00e2 01FB03F3 		mul	r3, r1, r3
 1430 00e6 1344     		add	r3, r3, r2
 1431 00e8 0833     		adds	r3, r3, #8
 1432 00ea 1968     		ldr	r1, [r3]
 1433 00ec 97F84320 		ldrb	r2, [r7, #67]	@ zero_extendqisi2
ARM GAS  C:\Users\Mattia\AppData\Local\Temp\ccUxgIpk.s 			page 38


 1434 00f0 6E48     		ldr	r0, .L191
 1435 00f2 1346     		mov	r3, r2
 1436 00f4 5B00     		lsls	r3, r3, #1
 1437 00f6 1344     		add	r3, r3, r2
 1438 00f8 1B01     		lsls	r3, r3, #4
 1439 00fa 0344     		add	r3, r3, r0
 1440 00fc 03F5DA73 		add	r3, r3, #436
 1441 0100 93F90030 		ldrsb	r3, [r3]
 1442 0104 03FB01F2 		mul	r2, r3, r1
 1443 0108 7B6C     		ldr	r3, [r7, #68]
 1444 010a 5B6B     		ldr	r3, [r3, #52]
 1445 010c 1344     		add	r3, r3, r2
 1446 010e FB64     		str	r3, [r7, #76]
 1447 0110 1AE0     		b	.L88
 1448              	.L87:
 669:..\src/interruptions.c ****             else
 670:..\src/interruptions.c ****                 handle_value = (g_meas[SH_ENC_L].pos[1] * c_mem.enc[SH_ENC_L].motor_handle_ratio) +
 1449              		.loc 1 670 0
 1450 0112 97F84330 		ldrb	r3, [r7, #67]	@ zero_extendqisi2
 1451 0116 674A     		ldr	r2, .L191+8
 1452 0118 3421     		movs	r1, #52
 1453 011a 01FB03F3 		mul	r3, r1, r3
 1454 011e 1344     		add	r3, r3, r2
 1455 0120 0433     		adds	r3, r3, #4
 1456 0122 1968     		ldr	r1, [r3]
 1457 0124 97F84320 		ldrb	r2, [r7, #67]	@ zero_extendqisi2
 1458 0128 6048     		ldr	r0, .L191
 1459 012a 1346     		mov	r3, r2
 1460 012c 5B00     		lsls	r3, r3, #1
 1461 012e 1344     		add	r3, r3, r2
 1462 0130 1B01     		lsls	r3, r3, #4
 1463 0132 0344     		add	r3, r3, r0
 1464 0134 03F5DA73 		add	r3, r3, #436
 1465 0138 93F90030 		ldrsb	r3, [r3]
 1466 013c 03FB01F2 		mul	r2, r3, r1
 1467 0140 7B6C     		ldr	r3, [r7, #68]
 1468 0142 5B6B     		ldr	r3, [r3, #52]
 1469 0144 1344     		add	r3, r3, r2
 1470 0146 FB64     		str	r3, [r7, #76]
 1471              	.L88:
 671:..\src/interruptions.c ****             
 672:..\src/interruptions.c **** 
 673:..\src/interruptions.c ****             // Read handle and use it as reference for the motor
 674:..\src/interruptions.c ****             if (((handle_value - g_refOld[0].pos) > SH_MOT->max_step_pos) && (SH_MOT->max_step_pos 
 1472              		.loc 1 674 0
 1473 0148 5B4B     		ldr	r3, .L191+12
 1474 014a 1B68     		ldr	r3, [r3]
 1475 014c FA6C     		ldr	r2, [r7, #76]
 1476 014e D21A     		subs	r2, r2, r3
 1477 0150 7B6C     		ldr	r3, [r7, #68]
 1478 0152 1B6C     		ldr	r3, [r3, #64]
 1479 0154 9A42     		cmp	r2, r3
 1480 0156 0BDD     		ble	.L89
 1481              		.loc 1 674 0 is_stmt 0 discriminator 1
 1482 0158 7B6C     		ldr	r3, [r7, #68]
 1483 015a 1B6C     		ldr	r3, [r3, #64]
 1484 015c 002B     		cmp	r3, #0
ARM GAS  C:\Users\Mattia\AppData\Local\Temp\ccUxgIpk.s 			page 39


 1485 015e 07D0     		beq	.L89
 675:..\src/interruptions.c ****                 g_ref[0].pos += SH_MOT->max_step_pos;
 1486              		.loc 1 675 0 is_stmt 1
 1487 0160 564B     		ldr	r3, .L191+16
 1488 0162 1A68     		ldr	r2, [r3]
 1489 0164 7B6C     		ldr	r3, [r7, #68]
 1490 0166 1B6C     		ldr	r3, [r3, #64]
 1491 0168 1344     		add	r3, r3, r2
 1492 016a 544A     		ldr	r2, .L191+16
 1493 016c 1360     		str	r3, [r2]
 1494 016e 17E0     		b	.L90
 1495              	.L89:
 676:..\src/interruptions.c ****             else {
 677:..\src/interruptions.c ****                 if (((handle_value - g_refOld[0].pos) < SH_MOT->max_step_neg) && (SH_MOT->max_step_
 1496              		.loc 1 677 0
 1497 0170 514B     		ldr	r3, .L191+12
 1498 0172 1B68     		ldr	r3, [r3]
 1499 0174 FA6C     		ldr	r2, [r7, #76]
 1500 0176 D21A     		subs	r2, r2, r3
 1501 0178 7B6C     		ldr	r3, [r7, #68]
 1502 017a DB6B     		ldr	r3, [r3, #60]
 1503 017c 9A42     		cmp	r2, r3
 1504 017e 0BDA     		bge	.L91
 1505              		.loc 1 677 0 is_stmt 0 discriminator 1
 1506 0180 7B6C     		ldr	r3, [r7, #68]
 1507 0182 DB6B     		ldr	r3, [r3, #60]
 1508 0184 002B     		cmp	r3, #0
 1509 0186 07D0     		beq	.L91
 678:..\src/interruptions.c ****                     g_ref[0].pos += SH_MOT->max_step_neg;
 1510              		.loc 1 678 0 is_stmt 1
 1511 0188 4C4B     		ldr	r3, .L191+16
 1512 018a 1A68     		ldr	r2, [r3]
 1513 018c 7B6C     		ldr	r3, [r7, #68]
 1514 018e DB6B     		ldr	r3, [r3, #60]
 1515 0190 1344     		add	r3, r3, r2
 1516 0192 4A4A     		ldr	r2, .L191+16
 1517 0194 1360     		str	r3, [r2]
 1518 0196 03E0     		b	.L90
 1519              	.L91:
 679:..\src/interruptions.c ****                 else
 680:..\src/interruptions.c ****                     g_ref[0].pos = handle_value;
 1520              		.loc 1 680 0
 1521 0198 484A     		ldr	r2, .L191+16
 1522 019a FB6C     		ldr	r3, [r7, #76]
 1523 019c 1360     		str	r3, [r2]
 681:..\src/interruptions.c ****             }
 682:..\src/interruptions.c ****             break;
 1524              		.loc 1 682 0
 1525 019e 48E1     		b	.L92
 1526              	.L90:
 1527 01a0 47E1     		b	.L92
 1528              	.L82:
 683:..\src/interruptions.c ****             
 684:..\src/interruptions.c ****         case INPUT_MODE_EMG_PROPORTIONAL:
 685:..\src/interruptions.c ****             if (err_emg_1 > 0)
 1529              		.loc 1 685 0
 1530 01a2 FB68     		ldr	r3, [r7, #12]
ARM GAS  C:\Users\Mattia\AppData\Local\Temp\ccUxgIpk.s 			page 40


 1531 01a4 002B     		cmp	r3, #0
 1532 01a6 0FDD     		ble	.L93
 686:..\src/interruptions.c ****                 g_ref[0].pos = (err_emg_1 * g_mem.motor[0].pos_lim_sup) / (1024 - c_mem.emg.emg_thr
 1533              		.loc 1 686 0
 1534 01a8 454B     		ldr	r3, .L191+20
 1535 01aa D3F8E830 		ldr	r3, [r3, #232]
 1536 01ae FA68     		ldr	r2, [r7, #12]
 1537 01b0 02FB03F2 		mul	r2, r2, r3
 1538 01b4 3D4B     		ldr	r3, .L191
 1539 01b6 B3F8F031 		ldrh	r3, [r3, #496]
 1540 01ba C3F58063 		rsb	r3, r3, #1024
 1541 01be 92FBF3F3 		sdiv	r3, r2, r3
 1542 01c2 3E4A     		ldr	r2, .L191+16
 1543 01c4 1360     		str	r3, [r2]
 687:..\src/interruptions.c ****             else
 688:..\src/interruptions.c ****                 g_ref[0].pos = 0;
 689:..\src/interruptions.c ****             break;
 1544              		.loc 1 689 0
 1545 01c6 34E1     		b	.L92
 1546              	.L93:
 688:..\src/interruptions.c ****             break;
 1547              		.loc 1 688 0
 1548 01c8 3C4B     		ldr	r3, .L191+16
 1549 01ca 0022     		movs	r2, #0
 1550 01cc 1A60     		str	r2, [r3]
 1551              		.loc 1 689 0
 1552 01ce 30E1     		b	.L92
 1553              	.L86:
 690:..\src/interruptions.c ****                 
 691:..\src/interruptions.c ****         case INPUT_MODE_EMG_PROPORTIONAL_NC:
 692:..\src/interruptions.c ****             if (err_emg_1 > 0)
 1554              		.loc 1 692 0
 1555 01d0 FB68     		ldr	r3, [r7, #12]
 1556 01d2 002B     		cmp	r3, #0
 1557 01d4 13DD     		ble	.L95
 693:..\src/interruptions.c ****                 g_ref[0].pos = g_mem.motor[0].pos_lim_sup - (err_emg_1 * g_mem.motor[0].pos_lim_sup
 1558              		.loc 1 693 0
 1559 01d6 3A4B     		ldr	r3, .L191+20
 1560 01d8 D3F8E820 		ldr	r2, [r3, #232]
 1561 01dc 384B     		ldr	r3, .L191+20
 1562 01de D3F8E830 		ldr	r3, [r3, #232]
 1563 01e2 F968     		ldr	r1, [r7, #12]
 1564 01e4 01FB03F1 		mul	r1, r1, r3
 1565 01e8 304B     		ldr	r3, .L191
 1566 01ea B3F8F031 		ldrh	r3, [r3, #496]
 1567 01ee C3F58063 		rsb	r3, r3, #1024
 1568 01f2 91FBF3F3 		sdiv	r3, r1, r3
 1569 01f6 D31A     		subs	r3, r2, r3
 1570 01f8 304A     		ldr	r2, .L191+16
 1571 01fa 1360     		str	r3, [r2]
 694:..\src/interruptions.c ****             else
 695:..\src/interruptions.c ****                 g_ref[0].pos = g_mem.motor[0].pos_lim_sup;
 696:..\src/interruptions.c ****             break;
 1572              		.loc 1 696 0
 1573 01fc 19E1     		b	.L92
 1574              	.L95:
 695:..\src/interruptions.c ****             break;
ARM GAS  C:\Users\Mattia\AppData\Local\Temp\ccUxgIpk.s 			page 41


 1575              		.loc 1 695 0
 1576 01fe 304B     		ldr	r3, .L191+20
 1577 0200 D3F8E830 		ldr	r3, [r3, #232]
 1578 0204 2D4A     		ldr	r2, .L191+16
 1579 0206 1360     		str	r3, [r2]
 1580              		.loc 1 696 0
 1581 0208 13E1     		b	.L92
 1582              	.L83:
 697:..\src/interruptions.c **** 
 698:..\src/interruptions.c ****         case INPUT_MODE_EMG_INTEGRAL:
 699:..\src/interruptions.c ****             g_ref[0].pos = g_mem.motor[0].pos_lim_sup - g_refOld[0].pos;
 1583              		.loc 1 699 0
 1584 020a 2D4B     		ldr	r3, .L191+20
 1585 020c D3F8E820 		ldr	r2, [r3, #232]
 1586 0210 294B     		ldr	r3, .L191+12
 1587 0212 1B68     		ldr	r3, [r3]
 1588 0214 D31A     		subs	r3, r2, r3
 1589 0216 294A     		ldr	r2, .L191+16
 1590 0218 1360     		str	r3, [r2]
 700:..\src/interruptions.c ****             if (err_emg_1 > 0) {
 1591              		.loc 1 700 0
 1592 021a FB68     		ldr	r3, [r7, #12]
 1593 021c 002B     		cmp	r3, #0
 1594 021e 13DD     		ble	.L97
 701:..\src/interruptions.c ****                 g_ref[0].pos = g_refOld[0].pos + (err_emg_1 * (int)g_mem.emg.emg_speed * 2) / (1024
 1595              		.loc 1 701 0
 1596 0220 254B     		ldr	r3, .L191+12
 1597 0222 1A68     		ldr	r2, [r3]
 1598 0224 264B     		ldr	r3, .L191+20
 1599 0226 93F8FC31 		ldrb	r3, [r3, #508]	@ zero_extendqisi2
 1600 022a 1946     		mov	r1, r3
 1601 022c FB68     		ldr	r3, [r7, #12]
 1602 022e 03FB01F3 		mul	r3, r3, r1
 1603 0232 5900     		lsls	r1, r3, #1
 1604 0234 1D4B     		ldr	r3, .L191
 1605 0236 B3F8F031 		ldrh	r3, [r3, #496]
 1606 023a C3F58063 		rsb	r3, r3, #1024
 1607 023e 91FBF3F3 		sdiv	r3, r1, r3
 1608 0242 1344     		add	r3, r3, r2
 1609 0244 1D4A     		ldr	r2, .L191+16
 1610 0246 1360     		str	r3, [r2]
 1611              	.L97:
 702:..\src/interruptions.c ****             }
 703:..\src/interruptions.c ****             if (err_emg_2 > 0) {
 1612              		.loc 1 703 0
 1613 0248 BB68     		ldr	r3, [r7, #8]
 1614 024a 002B     		cmp	r3, #0
 1615 024c 40F3F080 		ble	.L184
 704:..\src/interruptions.c ****                 g_ref[0].pos = g_refOld[0].pos - (err_emg_2 * (int)g_mem.emg.emg_speed * 2) / (1024
 1616              		.loc 1 704 0
 1617 0250 194B     		ldr	r3, .L191+12
 1618 0252 1A68     		ldr	r2, [r3]
 1619 0254 1A4B     		ldr	r3, .L191+20
 1620 0256 93F8FC31 		ldrb	r3, [r3, #508]	@ zero_extendqisi2
 1621 025a 1946     		mov	r1, r3
 1622 025c BB68     		ldr	r3, [r7, #8]
 1623 025e 03FB01F3 		mul	r3, r3, r1
ARM GAS  C:\Users\Mattia\AppData\Local\Temp\ccUxgIpk.s 			page 42


 1624 0262 5900     		lsls	r1, r3, #1
 1625 0264 114B     		ldr	r3, .L191
 1626 0266 B3F8F231 		ldrh	r3, [r3, #498]
 1627 026a C3F58063 		rsb	r3, r3, #1024
 1628 026e 91FBF3F3 		sdiv	r3, r1, r3
 1629 0272 D31A     		subs	r3, r2, r3
 1630 0274 114A     		ldr	r2, .L191+16
 1631 0276 1360     		str	r3, [r2]
 705:..\src/interruptions.c ****             }
 706:..\src/interruptions.c ****             break;
 1632              		.loc 1 706 0
 1633 0278 DAE0     		b	.L184
 1634              	.L84:
 707:..\src/interruptions.c **** 
 708:..\src/interruptions.c **** 
 709:..\src/interruptions.c ****         case INPUT_MODE_EMG_FCFS:
 710:..\src/interruptions.c ****             g_ref[0].pos = g_refOld[0].pos;
 1635              		.loc 1 710 0
 1636 027a 0F4B     		ldr	r3, .L191+12
 1637 027c 1B68     		ldr	r3, [r3]
 1638 027e 0F4A     		ldr	r2, .L191+16
 1639 0280 1360     		str	r3, [r2]
 711:..\src/interruptions.c ****             switch (current_emg) {
 1640              		.loc 1 711 0
 1641 0282 104B     		ldr	r3, .L191+24
 1642 0284 1B78     		ldrb	r3, [r3]	@ zero_extendqisi2
 1643 0286 012B     		cmp	r3, #1
 1644 0288 29D0     		beq	.L100
 1645 028a 022B     		cmp	r3, #2
 1646 028c 43D0     		beq	.L101
 1647 028e 002B     		cmp	r3, #0
 1648 0290 00D0     		beq	.L102
 712:..\src/interruptions.c ****                 case 0:
 713:..\src/interruptions.c ****                     // Look for the first EMG passing the threshold
 714:..\src/interruptions.c ****                     if (err_emg_1 > 0 && err_emg_1 > err_emg_2) {
 715:..\src/interruptions.c ****                         current_emg = 1;
 716:..\src/interruptions.c ****                         break;
 717:..\src/interruptions.c ****                     }
 718:..\src/interruptions.c ****                     if (err_emg_2 > 0 && err_emg_2 > err_emg_1) {
 719:..\src/interruptions.c ****                         current_emg = 2;
 720:..\src/interruptions.c ****                         break;
 721:..\src/interruptions.c ****                     }
 722:..\src/interruptions.c ****                     break;
 723:..\src/interruptions.c **** 
 724:..\src/interruptions.c ****                 case 1:
 725:..\src/interruptions.c ****                     // EMG 1 is first
 726:..\src/interruptions.c ****                     if (err_emg_1 < 0) {
 727:..\src/interruptions.c ****                         current_emg = 0;
 728:..\src/interruptions.c ****                         break;
 729:..\src/interruptions.c ****                     }
 730:..\src/interruptions.c ****                     g_ref[0].pos = g_refOld[0].pos + (err_emg_1 * g_mem.emg.emg_speed << 2) / (1024
 731:..\src/interruptions.c ****                     break;
 732:..\src/interruptions.c **** 
 733:..\src/interruptions.c ****                 case 2:
 734:..\src/interruptions.c ****                     // EMG 2 is first
 735:..\src/interruptions.c ****                     if (err_emg_2 < 0) {
 736:..\src/interruptions.c ****                         current_emg = 0;
ARM GAS  C:\Users\Mattia\AppData\Local\Temp\ccUxgIpk.s 			page 43


 737:..\src/interruptions.c ****                         break;
 738:..\src/interruptions.c ****                     }
 739:..\src/interruptions.c ****                     g_ref[0].pos = g_refOld[0].pos - (err_emg_2 * g_mem.emg.emg_speed << 2) / (1024
 740:..\src/interruptions.c ****                     break;
 741:..\src/interruptions.c **** 
 742:..\src/interruptions.c ****                 default:
 743:..\src/interruptions.c ****                     break;
 1649              		.loc 1 743 0
 1650 0292 5DE0     		b	.L104
 1651              	.L102:
 714:..\src/interruptions.c ****                         current_emg = 1;
 1652              		.loc 1 714 0
 1653 0294 FB68     		ldr	r3, [r7, #12]
 1654 0296 002B     		cmp	r3, #0
 1655 0298 16DD     		ble	.L103
 714:..\src/interruptions.c ****                         current_emg = 1;
 1656              		.loc 1 714 0 is_stmt 0 discriminator 1
 1657 029a FA68     		ldr	r2, [r7, #12]
 1658 029c BB68     		ldr	r3, [r7, #8]
 1659 029e 9A42     		cmp	r2, r3
 1660 02a0 12DD     		ble	.L103
 715:..\src/interruptions.c ****                         break;
 1661              		.loc 1 715 0 is_stmt 1
 1662 02a2 084B     		ldr	r3, .L191+24
 1663 02a4 0122     		movs	r2, #1
 1664 02a6 1A70     		strb	r2, [r3]
 716:..\src/interruptions.c ****                     }
 1665              		.loc 1 716 0
 1666 02a8 52E0     		b	.L104
 1667              	.L192:
 1668 02aa 00BF     		.align	2
 1669              	.L191:
 1670 02ac 00000000 		.word	c_mem
 1671 02b0 00000000 		.word	g_emg_meas
 1672 02b4 00000000 		.word	g_meas
 1673 02b8 00000000 		.word	g_refOld
 1674 02bc 00000000 		.word	g_ref
 1675 02c0 00000000 		.word	g_mem
 1676 02c4 8C000000 		.word	current_emg.10445
 1677              	.L103:
 718:..\src/interruptions.c ****                         current_emg = 2;
 1678              		.loc 1 718 0
 1679 02c8 BB68     		ldr	r3, [r7, #8]
 1680 02ca 002B     		cmp	r3, #0
 1681 02cc 3FDD     		ble	.L185
 718:..\src/interruptions.c ****                         current_emg = 2;
 1682              		.loc 1 718 0 is_stmt 0 discriminator 1
 1683 02ce BA68     		ldr	r2, [r7, #8]
 1684 02d0 FB68     		ldr	r3, [r7, #12]
 1685 02d2 9A42     		cmp	r2, r3
 1686 02d4 3BDD     		ble	.L185
 719:..\src/interruptions.c ****                         break;
 1687              		.loc 1 719 0 is_stmt 1
 1688 02d6 954B     		ldr	r3, .L193
 1689 02d8 0222     		movs	r2, #2
 1690 02da 1A70     		strb	r2, [r3]
 720:..\src/interruptions.c ****                     }
ARM GAS  C:\Users\Mattia\AppData\Local\Temp\ccUxgIpk.s 			page 44


 1691              		.loc 1 720 0
 1692 02dc 38E0     		b	.L104
 1693              	.L100:
 726:..\src/interruptions.c ****                         current_emg = 0;
 1694              		.loc 1 726 0
 1695 02de FB68     		ldr	r3, [r7, #12]
 1696 02e0 002B     		cmp	r3, #0
 1697 02e2 03DA     		bge	.L106
 727:..\src/interruptions.c ****                         break;
 1698              		.loc 1 727 0
 1699 02e4 914B     		ldr	r3, .L193
 1700 02e6 0022     		movs	r2, #0
 1701 02e8 1A70     		strb	r2, [r3]
 728:..\src/interruptions.c ****                     }
 1702              		.loc 1 728 0
 1703 02ea 31E0     		b	.L104
 1704              	.L106:
 730:..\src/interruptions.c ****                     break;
 1705              		.loc 1 730 0
 1706 02ec 904B     		ldr	r3, .L193+4
 1707 02ee 1A68     		ldr	r2, [r3]
 1708 02f0 904B     		ldr	r3, .L193+8
 1709 02f2 93F8FC31 		ldrb	r3, [r3, #508]	@ zero_extendqisi2
 1710 02f6 1946     		mov	r1, r3
 1711 02f8 FB68     		ldr	r3, [r7, #12]
 1712 02fa 03FB01F3 		mul	r3, r3, r1
 1713 02fe 9900     		lsls	r1, r3, #2
 1714 0300 8D4B     		ldr	r3, .L193+12
 1715 0302 B3F8F031 		ldrh	r3, [r3, #496]
 1716 0306 C3F58063 		rsb	r3, r3, #1024
 1717 030a 91FBF3F3 		sdiv	r3, r1, r3
 1718 030e 1344     		add	r3, r3, r2
 1719 0310 8A4A     		ldr	r2, .L193+16
 1720 0312 1360     		str	r3, [r2]
 731:..\src/interruptions.c **** 
 1721              		.loc 1 731 0
 1722 0314 1CE0     		b	.L104
 1723              	.L101:
 735:..\src/interruptions.c ****                         current_emg = 0;
 1724              		.loc 1 735 0
 1725 0316 BB68     		ldr	r3, [r7, #8]
 1726 0318 002B     		cmp	r3, #0
 1727 031a 03DA     		bge	.L107
 736:..\src/interruptions.c ****                         break;
 1728              		.loc 1 736 0
 1729 031c 834B     		ldr	r3, .L193
 1730 031e 0022     		movs	r2, #0
 1731 0320 1A70     		strb	r2, [r3]
 737:..\src/interruptions.c ****                     }
 1732              		.loc 1 737 0
 1733 0322 15E0     		b	.L104
 1734              	.L107:
 739:..\src/interruptions.c ****                     break;
 1735              		.loc 1 739 0
 1736 0324 824B     		ldr	r3, .L193+4
 1737 0326 1A68     		ldr	r2, [r3]
 1738 0328 824B     		ldr	r3, .L193+8
ARM GAS  C:\Users\Mattia\AppData\Local\Temp\ccUxgIpk.s 			page 45


 1739 032a 93F8FC31 		ldrb	r3, [r3, #508]	@ zero_extendqisi2
 1740 032e 1946     		mov	r1, r3
 1741 0330 BB68     		ldr	r3, [r7, #8]
 1742 0332 03FB01F3 		mul	r3, r3, r1
 1743 0336 9900     		lsls	r1, r3, #2
 1744 0338 7F4B     		ldr	r3, .L193+12
 1745 033a B3F8F231 		ldrh	r3, [r3, #498]
 1746 033e C3F58063 		rsb	r3, r3, #1024
 1747 0342 91FBF3F3 		sdiv	r3, r1, r3
 1748 0346 D31A     		subs	r3, r2, r3
 1749 0348 7C4A     		ldr	r2, .L193+16
 1750 034a 1360     		str	r3, [r2]
 740:..\src/interruptions.c **** 
 1751              		.loc 1 740 0
 1752 034c 00E0     		b	.L104
 1753              	.L185:
 722:..\src/interruptions.c **** 
 1754              		.loc 1 722 0
 1755 034e 00BF     		nop
 1756              	.L104:
 744:..\src/interruptions.c ****             }
 745:..\src/interruptions.c ****             break;
 1757              		.loc 1 745 0 discriminator 1
 1758 0350 6FE0     		b	.L92
 1759              	.L85:
 746:..\src/interruptions.c **** 
 747:..\src/interruptions.c ****         case INPUT_MODE_EMG_FCFS_ADV:
 748:..\src/interruptions.c ****             g_ref[0].pos = g_refOld[0].pos;
 1760              		.loc 1 748 0
 1761 0352 774B     		ldr	r3, .L193+4
 1762 0354 1B68     		ldr	r3, [r3]
 1763 0356 794A     		ldr	r2, .L193+16
 1764 0358 1360     		str	r3, [r2]
 749:..\src/interruptions.c ****             switch (current_emg) {
 1765              		.loc 1 749 0
 1766 035a 744B     		ldr	r3, .L193
 1767 035c 1B78     		ldrb	r3, [r3]	@ zero_extendqisi2
 1768 035e 012B     		cmp	r3, #1
 1769 0360 1AD0     		beq	.L109
 1770 0362 022B     		cmp	r3, #2
 1771 0364 3AD0     		beq	.L110
 1772 0366 002B     		cmp	r3, #0
 1773 0368 00D0     		beq	.L111
 750:..\src/interruptions.c ****                 // Look for the first EMG passing the threshold
 751:..\src/interruptions.c ****                 case 0:
 752:..\src/interruptions.c ****                     if (err_emg_1 > 0 && err_emg_1 > err_emg_2) {
 753:..\src/interruptions.c ****                         current_emg = 1;
 754:..\src/interruptions.c ****                         break;
 755:..\src/interruptions.c ****                     }
 756:..\src/interruptions.c ****                     if (err_emg_2 > 0 && err_emg_2 > err_emg_1) {
 757:..\src/interruptions.c ****                         current_emg = 2;
 758:..\src/interruptions.c ****                         break;
 759:..\src/interruptions.c ****                     }
 760:..\src/interruptions.c ****                     break;
 761:..\src/interruptions.c **** 
 762:..\src/interruptions.c ****                 // EMG 1 is first
 763:..\src/interruptions.c ****                 case 1:
ARM GAS  C:\Users\Mattia\AppData\Local\Temp\ccUxgIpk.s 			page 46


 764:..\src/interruptions.c ****                     // If both signals are under threshold go back to status 0
 765:..\src/interruptions.c ****                     if ((err_emg_1 < 0) && (err_emg_2 < 0)) {
 766:..\src/interruptions.c ****                         current_emg = 0;
 767:..\src/interruptions.c ****                         break;
 768:..\src/interruptions.c ****                     }
 769:..\src/interruptions.c ****                     // but if the current signal come back over threshold, continue using it
 770:..\src/interruptions.c ****                     if (err_emg_1 > 0) 
 771:..\src/interruptions.c ****                         g_ref[0].pos = g_refOld[0].pos + (err_emg_1 * g_mem.emg.emg_speed << 2) / (
 772:..\src/interruptions.c ****                     
 773:..\src/interruptions.c ****                     break;
 774:..\src/interruptions.c **** 
 775:..\src/interruptions.c ****                 // EMG 2 is first
 776:..\src/interruptions.c ****                 case 2:
 777:..\src/interruptions.c ****                     // If both signals are under threshold go back to status 0
 778:..\src/interruptions.c ****                     if ((err_emg_1 < 0) && (err_emg_2 < 0)) {
 779:..\src/interruptions.c ****                         current_emg = 0;
 780:..\src/interruptions.c ****                         break;
 781:..\src/interruptions.c ****                     }
 782:..\src/interruptions.c ****                     // but if the current signal come back over threshold, continue using it
 783:..\src/interruptions.c ****                     if (err_emg_2 > 0) {
 784:..\src/interruptions.c ****                         g_ref[0].pos = g_refOld[0].pos - (err_emg_2 * c_mem.emg.emg_speed << 2) / (
 785:..\src/interruptions.c ****                     }
 786:..\src/interruptions.c ****                     break;
 787:..\src/interruptions.c **** 
 788:..\src/interruptions.c ****                 default:
 789:..\src/interruptions.c ****                     break;
 1774              		.loc 1 789 0
 1775 036a 5EE0     		b	.L113
 1776              	.L111:
 752:..\src/interruptions.c ****                         current_emg = 1;
 1777              		.loc 1 752 0
 1778 036c FB68     		ldr	r3, [r7, #12]
 1779 036e 002B     		cmp	r3, #0
 1780 0370 07DD     		ble	.L112
 752:..\src/interruptions.c ****                         current_emg = 1;
 1781              		.loc 1 752 0 is_stmt 0 discriminator 1
 1782 0372 FA68     		ldr	r2, [r7, #12]
 1783 0374 BB68     		ldr	r3, [r7, #8]
 1784 0376 9A42     		cmp	r2, r3
 1785 0378 03DD     		ble	.L112
 753:..\src/interruptions.c ****                         break;
 1786              		.loc 1 753 0 is_stmt 1
 1787 037a 6C4B     		ldr	r3, .L193
 1788 037c 0122     		movs	r2, #1
 1789 037e 1A70     		strb	r2, [r3]
 754:..\src/interruptions.c ****                     }
 1790              		.loc 1 754 0
 1791 0380 53E0     		b	.L113
 1792              	.L112:
 756:..\src/interruptions.c ****                         current_emg = 2;
 1793              		.loc 1 756 0
 1794 0382 BB68     		ldr	r3, [r7, #8]
 1795 0384 002B     		cmp	r3, #0
 1796 0386 4BDD     		ble	.L186
 756:..\src/interruptions.c ****                         current_emg = 2;
 1797              		.loc 1 756 0 is_stmt 0 discriminator 1
 1798 0388 BA68     		ldr	r2, [r7, #8]
ARM GAS  C:\Users\Mattia\AppData\Local\Temp\ccUxgIpk.s 			page 47


 1799 038a FB68     		ldr	r3, [r7, #12]
 1800 038c 9A42     		cmp	r2, r3
 1801 038e 47DD     		ble	.L186
 757:..\src/interruptions.c ****                         break;
 1802              		.loc 1 757 0 is_stmt 1
 1803 0390 664B     		ldr	r3, .L193
 1804 0392 0222     		movs	r2, #2
 1805 0394 1A70     		strb	r2, [r3]
 758:..\src/interruptions.c ****                     }
 1806              		.loc 1 758 0
 1807 0396 48E0     		b	.L113
 1808              	.L109:
 765:..\src/interruptions.c ****                         current_emg = 0;
 1809              		.loc 1 765 0
 1810 0398 FB68     		ldr	r3, [r7, #12]
 1811 039a 002B     		cmp	r3, #0
 1812 039c 06DA     		bge	.L115
 765:..\src/interruptions.c ****                         current_emg = 0;
 1813              		.loc 1 765 0 is_stmt 0 discriminator 1
 1814 039e BB68     		ldr	r3, [r7, #8]
 1815 03a0 002B     		cmp	r3, #0
 1816 03a2 03DA     		bge	.L115
 766:..\src/interruptions.c ****                         break;
 1817              		.loc 1 766 0 is_stmt 1
 1818 03a4 614B     		ldr	r3, .L193
 1819 03a6 0022     		movs	r2, #0
 1820 03a8 1A70     		strb	r2, [r3]
 767:..\src/interruptions.c ****                     }
 1821              		.loc 1 767 0
 1822 03aa 3EE0     		b	.L113
 1823              	.L115:
 770:..\src/interruptions.c ****                         g_ref[0].pos = g_refOld[0].pos + (err_emg_1 * g_mem.emg.emg_speed << 2) / (
 1824              		.loc 1 770 0
 1825 03ac FB68     		ldr	r3, [r7, #12]
 1826 03ae 002B     		cmp	r3, #0
 1827 03b0 38DD     		ble	.L187
 771:..\src/interruptions.c ****                     
 1828              		.loc 1 771 0
 1829 03b2 5F4B     		ldr	r3, .L193+4
 1830 03b4 1A68     		ldr	r2, [r3]
 1831 03b6 5F4B     		ldr	r3, .L193+8
 1832 03b8 93F8FC31 		ldrb	r3, [r3, #508]	@ zero_extendqisi2
 1833 03bc 1946     		mov	r1, r3
 1834 03be FB68     		ldr	r3, [r7, #12]
 1835 03c0 03FB01F3 		mul	r3, r3, r1
 1836 03c4 9900     		lsls	r1, r3, #2
 1837 03c6 5C4B     		ldr	r3, .L193+12
 1838 03c8 B3F8F031 		ldrh	r3, [r3, #496]
 1839 03cc C3F58063 		rsb	r3, r3, #1024
 1840 03d0 91FBF3F3 		sdiv	r3, r1, r3
 1841 03d4 1344     		add	r3, r3, r2
 1842 03d6 594A     		ldr	r2, .L193+16
 1843 03d8 1360     		str	r3, [r2]
 773:..\src/interruptions.c **** 
 1844              		.loc 1 773 0
 1845 03da 23E0     		b	.L187
 1846              	.L110:
ARM GAS  C:\Users\Mattia\AppData\Local\Temp\ccUxgIpk.s 			page 48


 778:..\src/interruptions.c ****                         current_emg = 0;
 1847              		.loc 1 778 0
 1848 03dc FB68     		ldr	r3, [r7, #12]
 1849 03de 002B     		cmp	r3, #0
 1850 03e0 06DA     		bge	.L117
 778:..\src/interruptions.c ****                         current_emg = 0;
 1851              		.loc 1 778 0 is_stmt 0 discriminator 1
 1852 03e2 BB68     		ldr	r3, [r7, #8]
 1853 03e4 002B     		cmp	r3, #0
 1854 03e6 03DA     		bge	.L117
 779:..\src/interruptions.c ****                         break;
 1855              		.loc 1 779 0 is_stmt 1
 1856 03e8 504B     		ldr	r3, .L193
 1857 03ea 0022     		movs	r2, #0
 1858 03ec 1A70     		strb	r2, [r3]
 780:..\src/interruptions.c ****                     }
 1859              		.loc 1 780 0
 1860 03ee 1CE0     		b	.L113
 1861              	.L117:
 783:..\src/interruptions.c ****                         g_ref[0].pos = g_refOld[0].pos - (err_emg_2 * c_mem.emg.emg_speed << 2) / (
 1862              		.loc 1 783 0
 1863 03f0 BB68     		ldr	r3, [r7, #8]
 1864 03f2 002B     		cmp	r3, #0
 1865 03f4 18DD     		ble	.L188
 784:..\src/interruptions.c ****                     }
 1866              		.loc 1 784 0
 1867 03f6 4E4B     		ldr	r3, .L193+4
 1868 03f8 1A68     		ldr	r2, [r3]
 1869 03fa 4F4B     		ldr	r3, .L193+12
 1870 03fc 93F8FC31 		ldrb	r3, [r3, #508]	@ zero_extendqisi2
 1871 0400 1946     		mov	r1, r3
 1872 0402 BB68     		ldr	r3, [r7, #8]
 1873 0404 03FB01F3 		mul	r3, r3, r1
 1874 0408 9900     		lsls	r1, r3, #2
 1875 040a 4B4B     		ldr	r3, .L193+12
 1876 040c B3F8F231 		ldrh	r3, [r3, #498]
 1877 0410 C3F58063 		rsb	r3, r3, #1024
 1878 0414 91FBF3F3 		sdiv	r3, r1, r3
 1879 0418 D31A     		subs	r3, r2, r3
 1880 041a 484A     		ldr	r2, .L193+16
 1881 041c 1360     		str	r3, [r2]
 786:..\src/interruptions.c **** 
 1882              		.loc 1 786 0
 1883 041e 03E0     		b	.L188
 1884              	.L186:
 760:..\src/interruptions.c **** 
 1885              		.loc 1 760 0
 1886 0420 00BF     		nop
 1887 0422 06E0     		b	.L92
 1888              	.L187:
 773:..\src/interruptions.c **** 
 1889              		.loc 1 773 0
 1890 0424 00BF     		nop
 1891 0426 04E0     		b	.L92
 1892              	.L188:
 786:..\src/interruptions.c **** 
 1893              		.loc 1 786 0
ARM GAS  C:\Users\Mattia\AppData\Local\Temp\ccUxgIpk.s 			page 49


 1894 0428 00BF     		nop
 1895              	.L113:
 790:..\src/interruptions.c ****             }
 791:..\src/interruptions.c ****             break;
 1896              		.loc 1 791 0 discriminator 3
 1897 042a 02E0     		b	.L92
 1898              	.L183:
 792:..\src/interruptions.c **** 
 793:..\src/interruptions.c ****         default:
 794:..\src/interruptions.c ****             break;
 1899              		.loc 1 794 0
 1900 042c 00BF     		nop
 1901 042e 00E0     		b	.L92
 1902              	.L184:
 706:..\src/interruptions.c **** 
 1903              		.loc 1 706 0
 1904 0430 00BF     		nop
 1905              	.L92:
 795:..\src/interruptions.c ****     }
 796:..\src/interruptions.c **** 
 797:..\src/interruptions.c ****     // Position limit saturation
 798:..\src/interruptions.c ****     if (SH_MOT->pos_lim_flag) {
 1906              		.loc 1 798 0
 1907 0432 7B6C     		ldr	r3, [r7, #68]
 1908 0434 93F83330 		ldrb	r3, [r3, #51]	@ zero_extendqisi2
 1909 0438 002B     		cmp	r3, #0
 1910 043a 13D0     		beq	.L119
 799:..\src/interruptions.c ****         if (g_ref[0].pos < SH_MOT->pos_lim_inf) 
 1911              		.loc 1 799 0
 1912 043c 3F4B     		ldr	r3, .L193+16
 1913 043e 1A68     		ldr	r2, [r3]
 1914 0440 7B6C     		ldr	r3, [r7, #68]
 1915 0442 5B6B     		ldr	r3, [r3, #52]
 1916 0444 9A42     		cmp	r2, r3
 1917 0446 03DA     		bge	.L120
 800:..\src/interruptions.c ****             g_ref[0].pos = SH_MOT->pos_lim_inf;
 1918              		.loc 1 800 0
 1919 0448 7B6C     		ldr	r3, [r7, #68]
 1920 044a 5B6B     		ldr	r3, [r3, #52]
 1921 044c 3B4A     		ldr	r2, .L193+16
 1922 044e 1360     		str	r3, [r2]
 1923              	.L120:
 801:..\src/interruptions.c ****         if (g_ref[0].pos > SH_MOT->pos_lim_sup) 
 1924              		.loc 1 801 0
 1925 0450 3A4B     		ldr	r3, .L193+16
 1926 0452 1A68     		ldr	r2, [r3]
 1927 0454 7B6C     		ldr	r3, [r7, #68]
 1928 0456 9B6B     		ldr	r3, [r3, #56]
 1929 0458 9A42     		cmp	r2, r3
 1930 045a 03DD     		ble	.L119
 802:..\src/interruptions.c ****             g_ref[0].pos = SH_MOT->pos_lim_sup;
 1931              		.loc 1 802 0
 1932 045c 7B6C     		ldr	r3, [r7, #68]
 1933 045e 9B6B     		ldr	r3, [r3, #56]
 1934 0460 364A     		ldr	r2, .L193+16
 1935 0462 1360     		str	r3, [r2]
 1936              	.L119:
ARM GAS  C:\Users\Mattia\AppData\Local\Temp\ccUxgIpk.s 			page 50


 803:..\src/interruptions.c ****     }
 804:..\src/interruptions.c ****     
 805:..\src/interruptions.c ****     if (battery_low_SoC == TRUE) {
 1937              		.loc 1 805 0
 1938 0464 364B     		ldr	r3, .L193+20
 1939 0466 1B78     		ldrb	r3, [r3]	@ zero_extendqisi2
 1940 0468 012B     		cmp	r3, #1
 1941 046a 02D1     		bne	.L121
 806:..\src/interruptions.c ****         //Reopen the terminal device before disabling motor
 807:..\src/interruptions.c ****         g_ref[0].pos = 0;
 1942              		.loc 1 807 0
 1943 046c 334B     		ldr	r3, .L193+16
 1944 046e 0022     		movs	r2, #0
 1945 0470 1A60     		str	r2, [r3]
 1946              	.L121:
 808:..\src/interruptions.c ****     }
 809:..\src/interruptions.c ****         
 810:..\src/interruptions.c ****     if (c_mem.SH.rest_position_flag == TRUE) {
 1947              		.loc 1 810 0
 1948 0472 314B     		ldr	r3, .L193+12
 1949 0474 93F8AC32 		ldrb	r3, [r3, #684]	@ zero_extendqisi2
 1950 0478 012B     		cmp	r3, #1
 1951 047a 2AD1     		bne	.L122
 811:..\src/interruptions.c ****         if (rest_enabled == 1){
 1952              		.loc 1 811 0
 1953 047c 314B     		ldr	r3, .L193+24
 1954 047e 1B78     		ldrb	r3, [r3]	@ zero_extendqisi2
 1955 0480 012B     		cmp	r3, #1
 1956 0482 03D1     		bne	.L123
 812:..\src/interruptions.c ****             // Change position reference to drive motor to rest position smoothly
 813:..\src/interruptions.c ****             g_ref[0].pos = rest_pos_curr_ref;
 1957              		.loc 1 813 0
 1958 0484 304B     		ldr	r3, .L193+28
 1959 0486 1B68     		ldr	r3, [r3]
 1960 0488 2C4A     		ldr	r2, .L193+16
 1961 048a 1360     		str	r3, [r2]
 1962              	.L123:
 814:..\src/interruptions.c ****         }
 815:..\src/interruptions.c ****         
 816:..\src/interruptions.c ****         if (forced_open == 1) {
 1963              		.loc 1 816 0
 1964 048c 2F4B     		ldr	r3, .L193+32
 1965 048e 1B78     		ldrb	r3, [r3]	@ zero_extendqisi2
 1966 0490 012B     		cmp	r3, #1
 1967 0492 1ED1     		bne	.L122
 817:..\src/interruptions.c ****             // Open the SoftHand as EMG PROPORTIONAL input mode 
 818:..\src/interruptions.c ****             if (err_emg_2 > 0)
 1968              		.loc 1 818 0
 1969 0494 BB68     		ldr	r3, [r7, #8]
 1970 0496 002B     		cmp	r3, #0
 1971 0498 13DD     		ble	.L124
 819:..\src/interruptions.c ****                 g_ref[0].pos = g_mem.SH.rest_pos - (err_emg_2 * g_mem.SH.rest_pos) / (1024 - c_mem.
 1972              		.loc 1 819 0
 1973 049a 264B     		ldr	r3, .L193+8
 1974 049c D3F8A022 		ldr	r2, [r3, #672]
 1975 04a0 244B     		ldr	r3, .L193+8
 1976 04a2 D3F8A032 		ldr	r3, [r3, #672]
ARM GAS  C:\Users\Mattia\AppData\Local\Temp\ccUxgIpk.s 			page 51


 1977 04a6 B968     		ldr	r1, [r7, #8]
 1978 04a8 01FB03F1 		mul	r1, r1, r3
 1979 04ac 224B     		ldr	r3, .L193+12
 1980 04ae B3F8F231 		ldrh	r3, [r3, #498]
 1981 04b2 C3F58063 		rsb	r3, r3, #1024
 1982 04b6 91FBF3F3 		sdiv	r3, r1, r3
 1983 04ba D31A     		subs	r3, r2, r3
 1984 04bc 1F4A     		ldr	r2, .L193+16
 1985 04be 1360     		str	r3, [r2]
 1986 04c0 07E0     		b	.L122
 1987              	.L124:
 820:..\src/interruptions.c ****             else {
 821:..\src/interruptions.c ****                 g_ref[0].pos = g_mem.SH.rest_pos;
 1988              		.loc 1 821 0
 1989 04c2 1C4B     		ldr	r3, .L193+8
 1990 04c4 D3F8A032 		ldr	r3, [r3, #672]
 1991 04c8 1C4A     		ldr	r2, .L193+16
 1992 04ca 1360     		str	r3, [r2]
 822:..\src/interruptions.c ****                 forced_open = 0;
 1993              		.loc 1 822 0
 1994 04cc 1F4B     		ldr	r3, .L193+32
 1995 04ce 0022     		movs	r2, #0
 1996 04d0 1A70     		strb	r2, [r3]
 1997              	.L122:
 823:..\src/interruptions.c ****             }
 824:..\src/interruptions.c ****         }
 825:..\src/interruptions.c ****     }
 826:..\src/interruptions.c **** 
 827:..\src/interruptions.c ****     switch(SH_MOT->control_mode) {
 1998              		.loc 1 827 0
 1999 04d2 7B6C     		ldr	r3, [r7, #68]
 2000 04d4 93F85F30 		ldrb	r3, [r3, #95]	@ zero_extendqisi2
 2001 04d8 032B     		cmp	r3, #3
 2002 04da 00F2F781 		bhi	.L125
 2003 04de 01A2     		adr	r2, .L127
 2004 04e0 52F823F0 		ldr	pc, [r2, r3, lsl #2]
 2005              		.p2align 2
 2006              	.L127:
 2007 04e4 BB060000 		.word	.L126+1
 2008 04e8 91080000 		.word	.L128+1
 2009 04ec 65070000 		.word	.L129+1
 2010 04f0 F5040000 		.word	.L130+1
 2011              		.p2align 1
 2012              	.L130:
 828:..\src/interruptions.c ****         // ======================= CURRENT AND POSITION CONTROL =======================
 829:..\src/interruptions.c ****         case CURR_AND_POS_CONTROL:
 830:..\src/interruptions.c ****             pos_error = g_ref[0].pos - g_meas[SH_ENC_L].pos[0];
 2013              		.loc 1 830 0
 2014 04f4 114B     		ldr	r3, .L193+16
 2015 04f6 1A68     		ldr	r2, [r3]
 2016 04f8 97F84330 		ldrb	r3, [r7, #67]	@ zero_extendqisi2
 2017 04fc 1449     		ldr	r1, .L193+36
 2018 04fe 3420     		movs	r0, #52
 2019 0500 00FB03F3 		mul	r3, r0, r3
 2020 0504 0B44     		add	r3, r3, r1
 2021 0506 1B68     		ldr	r3, [r3]
 2022 0508 D31A     		subs	r3, r2, r3
ARM GAS  C:\Users\Mattia\AppData\Local\Temp\ccUxgIpk.s 			page 52


 2023 050a 7B60     		str	r3, [r7, #4]
 831:..\src/interruptions.c **** 
 832:..\src/interruptions.c ****             pos_error_sum += pos_error;
 2024              		.loc 1 832 0
 2025 050c 114B     		ldr	r3, .L193+40
 2026 050e 1A68     		ldr	r2, [r3]
 2027 0510 7B68     		ldr	r3, [r7, #4]
 2028 0512 1344     		add	r3, r3, r2
 2029 0514 0F4A     		ldr	r2, .L193+40
 2030 0516 1360     		str	r3, [r2]
 833:..\src/interruptions.c **** 
 834:..\src/interruptions.c ****             // error_sum saturation
 835:..\src/interruptions.c ****             if (pos_error_sum > POS_INTEGRAL_SAT_LIMIT)
 2031              		.loc 1 835 0
 2032 0518 0E4B     		ldr	r3, .L193+40
 2033 051a 1B68     		ldr	r3, [r3]
 2034 051c 0E4A     		ldr	r2, .L193+44
 2035 051e 9342     		cmp	r3, r2
 2036 0520 1CDD     		ble	.L131
 836:..\src/interruptions.c ****                 pos_error_sum = POS_INTEGRAL_SAT_LIMIT;
 2037              		.loc 1 836 0
 2038 0522 0C4B     		ldr	r3, .L193+40
 2039 0524 0C4A     		ldr	r2, .L193+44
 2040 0526 1A60     		str	r2, [r3]
 2041 0528 20E0     		b	.L132
 2042              	.L194:
 2043 052a 00BF     		.align	2
 2044              	.L193:
 2045 052c 8C000000 		.word	current_emg.10445
 2046 0530 00000000 		.word	g_refOld
 2047 0534 00000000 		.word	g_mem
 2048 0538 00000000 		.word	c_mem
 2049 053c 00000000 		.word	g_ref
 2050 0540 00000000 		.word	battery_low_SoC
 2051 0544 00000000 		.word	rest_enabled
 2052 0548 00000000 		.word	rest_pos_curr_ref
 2053 054c 00000000 		.word	forced_open
 2054 0550 00000000 		.word	g_meas
 2055 0554 90000000 		.word	pos_error_sum.10438
 2056 0558 80F0FA02 		.word	50000000
 2057              	.L131:
 837:..\src/interruptions.c ****             else {
 838:..\src/interruptions.c ****                 if (pos_error_sum < -POS_INTEGRAL_SAT_LIMIT) 
 2058              		.loc 1 838 0
 2059 055c 8E4B     		ldr	r3, .L195
 2060 055e 1B68     		ldr	r3, [r3]
 2061 0560 8E4A     		ldr	r2, .L195+4
 2062 0562 9342     		cmp	r3, r2
 2063 0564 02DA     		bge	.L132
 839:..\src/interruptions.c ****                     pos_error_sum = -POS_INTEGRAL_SAT_LIMIT;
 2064              		.loc 1 839 0
 2065 0566 8C4B     		ldr	r3, .L195
 2066 0568 8C4A     		ldr	r2, .L195+4
 2067 056a 1A60     		str	r2, [r3]
 2068              	.L132:
 840:..\src/interruptions.c ****             }
 841:..\src/interruptions.c ****             
ARM GAS  C:\Users\Mattia\AppData\Local\Temp\ccUxgIpk.s 			page 53


 842:..\src/interruptions.c ****             // ------ position PID control ------
 843:..\src/interruptions.c **** 
 844:..\src/interruptions.c ****             i_ref = 0;
 2069              		.loc 1 844 0
 2070 056c 0023     		movs	r3, #0
 2071 056e 3B65     		str	r3, [r7, #80]
 845:..\src/interruptions.c ****             
 846:..\src/interruptions.c ****             // Proportional
 847:..\src/interruptions.c ****             if (k_p_dl != 0)
 2072              		.loc 1 847 0
 2073 0570 7B6A     		ldr	r3, [r7, #36]
 2074 0572 002B     		cmp	r3, #0
 2075 0574 07D0     		beq	.L133
 848:..\src/interruptions.c ****                 i_ref += (int32)(k_p_dl * pos_error) >> 16;
 2076              		.loc 1 848 0
 2077 0576 7B6A     		ldr	r3, [r7, #36]
 2078 0578 7A68     		ldr	r2, [r7, #4]
 2079 057a 02FB03F3 		mul	r3, r2, r3
 2080 057e 1B14     		asrs	r3, r3, #16
 2081 0580 3A6D     		ldr	r2, [r7, #80]
 2082 0582 1344     		add	r3, r3, r2
 2083 0584 3B65     		str	r3, [r7, #80]
 2084              	.L133:
 849:..\src/interruptions.c **** 
 850:..\src/interruptions.c ****             // Integral
 851:..\src/interruptions.c ****             if (k_i_dl != 0)
 2085              		.loc 1 851 0
 2086 0586 3B6A     		ldr	r3, [r7, #32]
 2087 0588 002B     		cmp	r3, #0
 2088 058a 08D0     		beq	.L134
 852:..\src/interruptions.c ****                 i_ref += (int32)(k_i_dl * pos_error_sum) >> 16;
 2089              		.loc 1 852 0
 2090 058c 824B     		ldr	r3, .L195
 2091 058e 1B68     		ldr	r3, [r3]
 2092 0590 3A6A     		ldr	r2, [r7, #32]
 2093 0592 02FB03F3 		mul	r3, r2, r3
 2094 0596 1B14     		asrs	r3, r3, #16
 2095 0598 3A6D     		ldr	r2, [r7, #80]
 2096 059a 1344     		add	r3, r3, r2
 2097 059c 3B65     		str	r3, [r7, #80]
 2098              	.L134:
 853:..\src/interruptions.c **** 
 854:..\src/interruptions.c ****             // Derivative
 855:..\src/interruptions.c ****             if (k_d_dl != 0)
 2099              		.loc 1 855 0
 2100 059e FB69     		ldr	r3, [r7, #28]
 2101 05a0 002B     		cmp	r3, #0
 2102 05a2 0AD0     		beq	.L135
 856:..\src/interruptions.c ****                 i_ref += (int32)(k_d_dl * (pos_error - prev_pos_err)) >> 16;
 2103              		.loc 1 856 0
 2104 05a4 7E4B     		ldr	r3, .L195+8
 2105 05a6 1B68     		ldr	r3, [r3]
 2106 05a8 7A68     		ldr	r2, [r7, #4]
 2107 05aa D31A     		subs	r3, r2, r3
 2108 05ac FA69     		ldr	r2, [r7, #28]
 2109 05ae 02FB03F3 		mul	r3, r2, r3
 2110 05b2 1B14     		asrs	r3, r3, #16
ARM GAS  C:\Users\Mattia\AppData\Local\Temp\ccUxgIpk.s 			page 54


 2111 05b4 3A6D     		ldr	r2, [r7, #80]
 2112 05b6 1344     		add	r3, r3, r2
 2113 05b8 3B65     		str	r3, [r7, #80]
 2114              	.L135:
 857:..\src/interruptions.c ****                         
 858:..\src/interruptions.c ****             // Update previous position
 859:..\src/interruptions.c ****             prev_pos_err = pos_error;
 2115              		.loc 1 859 0
 2116 05ba 794A     		ldr	r2, .L195+8
 2117 05bc 7B68     		ldr	r3, [r7, #4]
 2118 05be 1360     		str	r3, [r2]
 860:..\src/interruptions.c **** 
 861:..\src/interruptions.c ****             // motor direction depends on i_ref
 862:..\src/interruptions.c ****             if (i_ref >= 0)
 2119              		.loc 1 862 0
 2120 05c0 3B6D     		ldr	r3, [r7, #80]
 2121 05c2 002B     		cmp	r3, #0
 2122 05c4 03DB     		blt	.L136
 863:..\src/interruptions.c ****                 motor_dir = TRUE;
 2123              		.loc 1 863 0
 2124 05c6 774B     		ldr	r3, .L195+12
 2125 05c8 0122     		movs	r2, #1
 2126 05ca 1A70     		strb	r2, [r3]
 2127 05cc 02E0     		b	.L137
 2128              	.L136:
 864:..\src/interruptions.c ****             else
 865:..\src/interruptions.c ****                 motor_dir = FALSE;
 2129              		.loc 1 865 0
 2130 05ce 754B     		ldr	r3, .L195+12
 2131 05d0 0022     		movs	r2, #0
 2132 05d2 1A70     		strb	r2, [r3]
 2133              	.L137:
 866:..\src/interruptions.c **** 
 867:..\src/interruptions.c ****             // saturate max current
 868:..\src/interruptions.c ****             if (i_ref > SH_MOT->current_limit)
 2134              		.loc 1 868 0
 2135 05d4 7B6C     		ldr	r3, [r7, #68]
 2136 05d6 B3F95C30 		ldrsh	r3, [r3, #92]
 2137 05da 1A46     		mov	r2, r3
 2138 05dc 3B6D     		ldr	r3, [r7, #80]
 2139 05de 9A42     		cmp	r2, r3
 2140 05e0 04DA     		bge	.L138
 869:..\src/interruptions.c ****                 i_ref = SH_MOT->current_limit;
 2141              		.loc 1 869 0
 2142 05e2 7B6C     		ldr	r3, [r7, #68]
 2143 05e4 B3F95C30 		ldrsh	r3, [r3, #92]
 2144 05e8 3B65     		str	r3, [r7, #80]
 2145 05ea 0BE0     		b	.L139
 2146              	.L138:
 870:..\src/interruptions.c ****             else {
 871:..\src/interruptions.c ****                 if (i_ref < -SH_MOT->current_limit)
 2147              		.loc 1 871 0
 2148 05ec 7B6C     		ldr	r3, [r7, #68]
 2149 05ee B3F95C30 		ldrsh	r3, [r3, #92]
 2150 05f2 5A42     		negs	r2, r3
 2151 05f4 3B6D     		ldr	r3, [r7, #80]
 2152 05f6 9A42     		cmp	r2, r3
ARM GAS  C:\Users\Mattia\AppData\Local\Temp\ccUxgIpk.s 			page 55


 2153 05f8 04DD     		ble	.L139
 872:..\src/interruptions.c ****                     i_ref = -SH_MOT->current_limit;
 2154              		.loc 1 872 0
 2155 05fa 7B6C     		ldr	r3, [r7, #68]
 2156 05fc B3F95C30 		ldrsh	r3, [r3, #92]
 2157 0600 5B42     		negs	r3, r3
 2158 0602 3B65     		str	r3, [r7, #80]
 2159              	.L139:
 873:..\src/interruptions.c ****         	}
 874:..\src/interruptions.c **** 
 875:..\src/interruptions.c ****             // current error and curr error sum
 876:..\src/interruptions.c ****             curr_error = i_ref - g_meas[SH_ENC_L].curr;
 2160              		.loc 1 876 0
 2161 0604 97F84330 		ldrb	r3, [r7, #67]	@ zero_extendqisi2
 2162 0608 674A     		ldr	r2, .L195+16
 2163 060a 3421     		movs	r1, #52
 2164 060c 01FB03F3 		mul	r3, r1, r3
 2165 0610 1344     		add	r3, r3, r2
 2166 0612 0C33     		adds	r3, r3, #12
 2167 0614 1B68     		ldr	r3, [r3]
 2168 0616 3A6D     		ldr	r2, [r7, #80]
 2169 0618 D31A     		subs	r3, r2, r3
 2170 061a 3B60     		str	r3, [r7]
 877:..\src/interruptions.c ****             curr_error_sum += curr_error;
 2171              		.loc 1 877 0
 2172 061c 634B     		ldr	r3, .L195+20
 2173 061e 1A68     		ldr	r2, [r3]
 2174 0620 3B68     		ldr	r3, [r7]
 2175 0622 1344     		add	r3, r3, r2
 2176 0624 614A     		ldr	r2, .L195+20
 2177 0626 1360     		str	r3, [r2]
 878:..\src/interruptions.c ****             
 879:..\src/interruptions.c ****             if (curr_error_sum > CURR_INTEGRAL_SAT_LIMIT)
 2178              		.loc 1 879 0
 2179 0628 604B     		ldr	r3, .L195+20
 2180 062a 1B68     		ldr	r3, [r3]
 2181 062c 604A     		ldr	r2, .L195+24
 2182 062e 9342     		cmp	r3, r2
 2183 0630 03DD     		ble	.L140
 880:..\src/interruptions.c ****                 curr_error_sum = CURR_INTEGRAL_SAT_LIMIT;
 2184              		.loc 1 880 0
 2185 0632 5E4B     		ldr	r3, .L195+20
 2186 0634 5E4A     		ldr	r2, .L195+24
 2187 0636 1A60     		str	r2, [r3]
 2188 0638 07E0     		b	.L141
 2189              	.L140:
 881:..\src/interruptions.c ****             else {
 882:..\src/interruptions.c ****                 if (curr_error_sum < -CURR_INTEGRAL_SAT_LIMIT)
 2190              		.loc 1 882 0
 2191 063a 5C4B     		ldr	r3, .L195+20
 2192 063c 1B68     		ldr	r3, [r3]
 2193 063e 5D4A     		ldr	r2, .L195+28
 2194 0640 9342     		cmp	r3, r2
 2195 0642 02DA     		bge	.L141
 883:..\src/interruptions.c ****                     curr_error_sum = -CURR_INTEGRAL_SAT_LIMIT;
 2196              		.loc 1 883 0
 2197 0644 594B     		ldr	r3, .L195+20
ARM GAS  C:\Users\Mattia\AppData\Local\Temp\ccUxgIpk.s 			page 56


 2198 0646 5B4A     		ldr	r2, .L195+28
 2199 0648 1A60     		str	r2, [r3]
 2200              	.L141:
 884:..\src/interruptions.c ****             }
 885:..\src/interruptions.c **** 
 886:..\src/interruptions.c ****             // ----- current PID control -----
 887:..\src/interruptions.c **** 
 888:..\src/interruptions.c ****             pwm_input = 0;
 2201              		.loc 1 888 0
 2202 064a 0023     		movs	r3, #0
 2203 064c 7B65     		str	r3, [r7, #84]
 889:..\src/interruptions.c **** 
 890:..\src/interruptions.c ****             // Proportional
 891:..\src/interruptions.c ****             if (k_p_c_dl != 0)
 2204              		.loc 1 891 0
 2205 064e BB69     		ldr	r3, [r7, #24]
 2206 0650 002B     		cmp	r3, #0
 2207 0652 07D0     		beq	.L142
 892:..\src/interruptions.c ****                 pwm_input += (int32)(k_p_c_dl * curr_error) >> 16;
 2208              		.loc 1 892 0
 2209 0654 BB69     		ldr	r3, [r7, #24]
 2210 0656 3A68     		ldr	r2, [r7]
 2211 0658 02FB03F3 		mul	r3, r2, r3
 2212 065c 1B14     		asrs	r3, r3, #16
 2213 065e 7A6D     		ldr	r2, [r7, #84]
 2214 0660 1344     		add	r3, r3, r2
 2215 0662 7B65     		str	r3, [r7, #84]
 2216              	.L142:
 893:..\src/interruptions.c **** 
 894:..\src/interruptions.c ****             // Integral
 895:..\src/interruptions.c ****             if (k_i_c_dl != 0)
 2217              		.loc 1 895 0
 2218 0664 7B69     		ldr	r3, [r7, #20]
 2219 0666 002B     		cmp	r3, #0
 2220 0668 08D0     		beq	.L143
 896:..\src/interruptions.c ****                 pwm_input += (int32)(k_i_c_dl * curr_error_sum) >> 16;
 2221              		.loc 1 896 0
 2222 066a 504B     		ldr	r3, .L195+20
 2223 066c 1B68     		ldr	r3, [r3]
 2224 066e 7A69     		ldr	r2, [r7, #20]
 2225 0670 02FB03F3 		mul	r3, r2, r3
 2226 0674 1B14     		asrs	r3, r3, #16
 2227 0676 7A6D     		ldr	r2, [r7, #84]
 2228 0678 1344     		add	r3, r3, r2
 2229 067a 7B65     		str	r3, [r7, #84]
 2230              	.L143:
 897:..\src/interruptions.c **** 
 898:..\src/interruptions.c ****             // Derivative
 899:..\src/interruptions.c ****             if (k_d_c_dl != 0)
 2231              		.loc 1 899 0
 2232 067c 3B69     		ldr	r3, [r7, #16]
 2233 067e 002B     		cmp	r3, #0
 2234 0680 0AD0     		beq	.L144
 900:..\src/interruptions.c ****                 pwm_input += (int32)(k_d_c_dl * (curr_error - prev_curr_err)) >> 16;
 2235              		.loc 1 900 0
 2236 0682 4D4B     		ldr	r3, .L195+32
 2237 0684 1B68     		ldr	r3, [r3]
ARM GAS  C:\Users\Mattia\AppData\Local\Temp\ccUxgIpk.s 			page 57


 2238 0686 3A68     		ldr	r2, [r7]
 2239 0688 D31A     		subs	r3, r2, r3
 2240 068a 3A69     		ldr	r2, [r7, #16]
 2241 068c 02FB03F3 		mul	r3, r2, r3
 2242 0690 1B14     		asrs	r3, r3, #16
 2243 0692 7A6D     		ldr	r2, [r7, #84]
 2244 0694 1344     		add	r3, r3, r2
 2245 0696 7B65     		str	r3, [r7, #84]
 2246              	.L144:
 901:..\src/interruptions.c **** 
 902:..\src/interruptions.c ****             // pwm_input saturation
 903:..\src/interruptions.c ****             if (pwm_input < -PWM_MAX_VALUE) 
 2247              		.loc 1 903 0
 2248 0698 7B6D     		ldr	r3, [r7, #84]
 2249 069a 13F1640F 		cmn	r3, #100
 2250 069e 03DA     		bge	.L145
 904:..\src/interruptions.c ****                 pwm_input = -PWM_MAX_VALUE;
 2251              		.loc 1 904 0
 2252 06a0 6FF06303 		mvn	r3, #99
 2253 06a4 7B65     		str	r3, [r7, #84]
 2254 06a6 04E0     		b	.L146
 2255              	.L145:
 905:..\src/interruptions.c ****             else {
 906:..\src/interruptions.c ****                 if (pwm_input > PWM_MAX_VALUE)
 2256              		.loc 1 906 0
 2257 06a8 7B6D     		ldr	r3, [r7, #84]
 2258 06aa 642B     		cmp	r3, #100
 2259 06ac 01DD     		ble	.L146
 907:..\src/interruptions.c ****                     pwm_input = PWM_MAX_VALUE;
 2260              		.loc 1 907 0
 2261 06ae 6423     		movs	r3, #100
 2262 06b0 7B65     		str	r3, [r7, #84]
 2263              	.L146:
 908:..\src/interruptions.c ****             }
 909:..\src/interruptions.c **** 
 910:..\src/interruptions.c ****             // Update previous current
 911:..\src/interruptions.c ****             prev_curr_err = curr_error;
 2264              		.loc 1 911 0
 2265 06b2 414A     		ldr	r2, .L195+32
 2266 06b4 3B68     		ldr	r3, [r7]
 2267 06b6 1360     		str	r3, [r2]
 912:..\src/interruptions.c **** 
 913:..\src/interruptions.c ****         break;
 2268              		.loc 1 913 0
 2269 06b8 08E1     		b	.L125
 2270              	.L126:
 914:..\src/interruptions.c **** 
 915:..\src/interruptions.c ****         // ============================== POSITION CONTROL =====================
 916:..\src/interruptions.c ****         case CONTROL_ANGLE:
 917:..\src/interruptions.c ****             pos_error = g_ref[0].pos - g_meas[SH_ENC_L].pos[0];
 2271              		.loc 1 917 0
 2272 06ba 404B     		ldr	r3, .L195+36
 2273 06bc 1A68     		ldr	r2, [r3]
 2274 06be 97F84330 		ldrb	r3, [r7, #67]	@ zero_extendqisi2
 2275 06c2 3949     		ldr	r1, .L195+16
 2276 06c4 3420     		movs	r0, #52
 2277 06c6 00FB03F3 		mul	r3, r0, r3
ARM GAS  C:\Users\Mattia\AppData\Local\Temp\ccUxgIpk.s 			page 58


 2278 06ca 0B44     		add	r3, r3, r1
 2279 06cc 1B68     		ldr	r3, [r3]
 2280 06ce D31A     		subs	r3, r2, r3
 2281 06d0 7B60     		str	r3, [r7, #4]
 918:..\src/interruptions.c **** 
 919:..\src/interruptions.c ****             pos_error_sum += pos_error;
 2282              		.loc 1 919 0
 2283 06d2 314B     		ldr	r3, .L195
 2284 06d4 1A68     		ldr	r2, [r3]
 2285 06d6 7B68     		ldr	r3, [r7, #4]
 2286 06d8 1344     		add	r3, r3, r2
 2287 06da 2F4A     		ldr	r2, .L195
 2288 06dc 1360     		str	r3, [r2]
 920:..\src/interruptions.c **** 
 921:..\src/interruptions.c ****             // anti-windup (for integral control)
 922:..\src/interruptions.c ****             if (pos_error_sum > ANTI_WINDUP)
 2289              		.loc 1 922 0
 2290 06de 2E4B     		ldr	r3, .L195
 2291 06e0 1B68     		ldr	r3, [r3]
 2292 06e2 B3F57A7F 		cmp	r3, #1000
 2293 06e6 04DD     		ble	.L147
 923:..\src/interruptions.c ****                 pos_error_sum = ANTI_WINDUP;
 2294              		.loc 1 923 0
 2295 06e8 2B4B     		ldr	r3, .L195
 2296 06ea 4FF47A72 		mov	r2, #1000
 2297 06ee 1A60     		str	r2, [r3]
 2298 06f0 07E0     		b	.L148
 2299              	.L147:
 924:..\src/interruptions.c ****             else {
 925:..\src/interruptions.c **** 				if (pos_error_sum < -ANTI_WINDUP)
 2300              		.loc 1 925 0
 2301 06f2 294B     		ldr	r3, .L195
 2302 06f4 1B68     		ldr	r3, [r3]
 2303 06f6 13F57A7F 		cmn	r3, #1000
 2304 06fa 02DA     		bge	.L148
 926:..\src/interruptions.c ****                 	pos_error_sum = -ANTI_WINDUP;
 2305              		.loc 1 926 0
 2306 06fc 264B     		ldr	r3, .L195
 2307 06fe 304A     		ldr	r2, .L195+40
 2308 0700 1A60     		str	r2, [r3]
 2309              	.L148:
 927:..\src/interruptions.c ****             }
 928:..\src/interruptions.c **** 
 929:..\src/interruptions.c ****             // Proportional
 930:..\src/interruptions.c ****             if (k_p != 0) 
 2310              		.loc 1 930 0
 2311 0702 FB6B     		ldr	r3, [r7, #60]
 2312 0704 002B     		cmp	r3, #0
 2313 0706 05D0     		beq	.L149
 931:..\src/interruptions.c ****                 pwm_input = (int32)(k_p * pos_error) >> 16;
 2314              		.loc 1 931 0
 2315 0708 FB6B     		ldr	r3, [r7, #60]
 2316 070a 7A68     		ldr	r2, [r7, #4]
 2317 070c 02FB03F3 		mul	r3, r2, r3
 2318 0710 1B14     		asrs	r3, r3, #16
 2319 0712 7B65     		str	r3, [r7, #84]
 2320              	.L149:
ARM GAS  C:\Users\Mattia\AppData\Local\Temp\ccUxgIpk.s 			page 59


 932:..\src/interruptions.c ****             
 933:..\src/interruptions.c **** 
 934:..\src/interruptions.c ****             // Integral
 935:..\src/interruptions.c ****             if (k_i != 0) 
 2321              		.loc 1 935 0
 2322 0714 BB6B     		ldr	r3, [r7, #56]
 2323 0716 002B     		cmp	r3, #0
 2324 0718 08D0     		beq	.L150
 936:..\src/interruptions.c ****                 pwm_input += (int32)(k_i * pos_error_sum) >> 16;
 2325              		.loc 1 936 0
 2326 071a 1F4B     		ldr	r3, .L195
 2327 071c 1B68     		ldr	r3, [r3]
 2328 071e BA6B     		ldr	r2, [r7, #56]
 2329 0720 02FB03F3 		mul	r3, r2, r3
 2330 0724 1B14     		asrs	r3, r3, #16
 2331 0726 7A6D     		ldr	r2, [r7, #84]
 2332 0728 1344     		add	r3, r3, r2
 2333 072a 7B65     		str	r3, [r7, #84]
 2334              	.L150:
 937:..\src/interruptions.c ****             
 938:..\src/interruptions.c **** 
 939:..\src/interruptions.c ****             // Derivative
 940:..\src/interruptions.c ****             if (k_d != 0) 
 2335              		.loc 1 940 0
 2336 072c 7B6B     		ldr	r3, [r7, #52]
 2337 072e 002B     		cmp	r3, #0
 2338 0730 0AD0     		beq	.L151
 941:..\src/interruptions.c ****                 pwm_input += (int32)(k_d * (pos_error - prev_pos_err)) >> 16;
 2339              		.loc 1 941 0
 2340 0732 1B4B     		ldr	r3, .L195+8
 2341 0734 1B68     		ldr	r3, [r3]
 2342 0736 7A68     		ldr	r2, [r7, #4]
 2343 0738 D31A     		subs	r3, r2, r3
 2344 073a 7A6B     		ldr	r2, [r7, #52]
 2345 073c 02FB03F3 		mul	r3, r2, r3
 2346 0740 1B14     		asrs	r3, r3, #16
 2347 0742 7A6D     		ldr	r2, [r7, #84]
 2348 0744 1344     		add	r3, r3, r2
 2349 0746 7B65     		str	r3, [r7, #84]
 2350              	.L151:
 942:..\src/interruptions.c ****             
 943:..\src/interruptions.c **** 
 944:..\src/interruptions.c ****             // Update measure
 945:..\src/interruptions.c ****             prev_pos_err = pos_error;
 2351              		.loc 1 945 0
 2352 0748 154A     		ldr	r2, .L195+8
 2353 074a 7B68     		ldr	r3, [r7, #4]
 2354 074c 1360     		str	r3, [r2]
 946:..\src/interruptions.c **** 
 947:..\src/interruptions.c ****             if (pwm_input > 0)
 2355              		.loc 1 947 0
 2356 074e 7B6D     		ldr	r3, [r7, #84]
 2357 0750 002B     		cmp	r3, #0
 2358 0752 03DD     		ble	.L152
 948:..\src/interruptions.c ****                 motor_dir = TRUE;
 2359              		.loc 1 948 0
 2360 0754 134B     		ldr	r3, .L195+12
ARM GAS  C:\Users\Mattia\AppData\Local\Temp\ccUxgIpk.s 			page 60


 2361 0756 0122     		movs	r2, #1
 2362 0758 1A70     		strb	r2, [r3]
 949:..\src/interruptions.c ****             else
 950:..\src/interruptions.c ****                 motor_dir = FALSE;
 951:..\src/interruptions.c **** 
 952:..\src/interruptions.c ****         break;
 2363              		.loc 1 952 0
 2364 075a B7E0     		b	.L125
 2365              	.L152:
 950:..\src/interruptions.c **** 
 2366              		.loc 1 950 0
 2367 075c 114B     		ldr	r3, .L195+12
 2368 075e 0022     		movs	r2, #0
 2369 0760 1A70     		strb	r2, [r3]
 2370              		.loc 1 952 0
 2371 0762 B3E0     		b	.L125
 2372              	.L129:
 953:..\src/interruptions.c **** 
 954:..\src/interruptions.c ****         // ========================== CURRENT CONTROL ==========================
 955:..\src/interruptions.c ****         case CONTROL_CURRENT:
 956:..\src/interruptions.c ****             if(g_ref[0].onoff && tension_valid) {
 2373              		.loc 1 956 0
 2374 0764 154B     		ldr	r3, .L195+36
 2375 0766 1B7B     		ldrb	r3, [r3, #12]	@ zero_extendqisi2
 2376 0768 002B     		cmp	r3, #0
 2377 076a 00F0AC80 		beq	.L189
 2378              		.loc 1 956 0 is_stmt 0 discriminator 1
 2379 076e 154B     		ldr	r3, .L195+44
 2380 0770 1B78     		ldrb	r3, [r3]	@ zero_extendqisi2
 2381 0772 002B     		cmp	r3, #0
 2382 0774 00F0A780 		beq	.L189
 957:..\src/interruptions.c ****                 
 958:..\src/interruptions.c ****                 i_ref = g_ref[0].curr;
 2383              		.loc 1 958 0 is_stmt 1
 2384 0778 104B     		ldr	r3, .L195+36
 2385 077a 5B68     		ldr	r3, [r3, #4]
 2386 077c 3B65     		str	r3, [r7, #80]
 959:..\src/interruptions.c **** 
 960:..\src/interruptions.c ****                 if (i_ref > SH_MOT->current_limit) 
 2387              		.loc 1 960 0
 2388 077e 7B6C     		ldr	r3, [r7, #68]
 2389 0780 B3F95C30 		ldrsh	r3, [r3, #92]
 2390 0784 1A46     		mov	r2, r3
 2391 0786 3B6D     		ldr	r3, [r7, #80]
 2392 0788 9A42     		cmp	r2, r3
 2393 078a 1DDA     		bge	.L155
 961:..\src/interruptions.c ****                     i_ref = SH_MOT->current_limit;
 2394              		.loc 1 961 0
 2395 078c 7B6C     		ldr	r3, [r7, #68]
 2396 078e B3F95C30 		ldrsh	r3, [r3, #92]
 2397 0792 3B65     		str	r3, [r7, #80]
 2398 0794 24E0     		b	.L156
 2399              	.L196:
 2400 0796 00BF     		.align	2
 2401              	.L195:
 2402 0798 90000000 		.word	pos_error_sum.10438
 2403 079c 800F05FD 		.word	-50000000
ARM GAS  C:\Users\Mattia\AppData\Local\Temp\ccUxgIpk.s 			page 61


 2404 07a0 94000000 		.word	prev_pos_err.10440
 2405 07a4 98000000 		.word	motor_dir.10443
 2406 07a8 00000000 		.word	g_meas
 2407 07ac 9C000000 		.word	curr_error_sum.10439
 2408 07b0 A0860100 		.word	100000
 2409 07b4 6079FEFF 		.word	-100000
 2410 07b8 A0000000 		.word	prev_curr_err.10441
 2411 07bc 00000000 		.word	g_ref
 2412 07c0 18FCFFFF 		.word	-1000
 2413 07c4 00000000 		.word	tension_valid
 2414              	.L155:
 962:..\src/interruptions.c ****                 else {
 963:..\src/interruptions.c ****                     if (i_ref < -SH_MOT->current_limit)
 2415              		.loc 1 963 0
 2416 07c8 7B6C     		ldr	r3, [r7, #68]
 2417 07ca B3F95C30 		ldrsh	r3, [r3, #92]
 2418 07ce 5A42     		negs	r2, r3
 2419 07d0 3B6D     		ldr	r3, [r7, #80]
 2420 07d2 9A42     		cmp	r2, r3
 2421 07d4 04DD     		ble	.L156
 964:..\src/interruptions.c ****                         i_ref = -SH_MOT->current_limit;
 2422              		.loc 1 964 0
 2423 07d6 7B6C     		ldr	r3, [r7, #68]
 2424 07d8 B3F95C30 		ldrsh	r3, [r3, #92]
 2425 07dc 5B42     		negs	r3, r3
 2426 07de 3B65     		str	r3, [r7, #80]
 2427              	.L156:
 965:..\src/interruptions.c ****                 }
 966:..\src/interruptions.c ****                 
 967:..\src/interruptions.c ****                 // current error
 968:..\src/interruptions.c ****                 curr_error = i_ref - g_meas[SH_ENC_L].curr;            
 2428              		.loc 1 968 0
 2429 07e0 97F84330 		ldrb	r3, [r7, #67]	@ zero_extendqisi2
 2430 07e4 A74A     		ldr	r2, .L197
 2431 07e6 3421     		movs	r1, #52
 2432 07e8 01FB03F3 		mul	r3, r1, r3
 2433 07ec 1344     		add	r3, r3, r2
 2434 07ee 0C33     		adds	r3, r3, #12
 2435 07f0 1B68     		ldr	r3, [r3]
 2436 07f2 3A6D     		ldr	r2, [r7, #80]
 2437 07f4 D31A     		subs	r3, r2, r3
 2438 07f6 3B60     		str	r3, [r7]
 969:..\src/interruptions.c ****                 curr_error_sum += curr_error;
 2439              		.loc 1 969 0
 2440 07f8 A34B     		ldr	r3, .L197+4
 2441 07fa 1A68     		ldr	r2, [r3]
 2442 07fc 3B68     		ldr	r3, [r7]
 2443 07fe 1344     		add	r3, r3, r2
 2444 0800 A14A     		ldr	r2, .L197+4
 2445 0802 1360     		str	r3, [r2]
 970:..\src/interruptions.c ****                 
 971:..\src/interruptions.c ****                 if (curr_error_sum > CURR_INTEGRAL_SAT_LIMIT)
 2446              		.loc 1 971 0
 2447 0804 A04B     		ldr	r3, .L197+4
 2448 0806 1B68     		ldr	r3, [r3]
 2449 0808 A04A     		ldr	r2, .L197+8
 2450 080a 9342     		cmp	r3, r2
ARM GAS  C:\Users\Mattia\AppData\Local\Temp\ccUxgIpk.s 			page 62


 2451 080c 03DD     		ble	.L157
 972:..\src/interruptions.c ****                     curr_error_sum = CURR_INTEGRAL_SAT_LIMIT;
 2452              		.loc 1 972 0
 2453 080e 9E4B     		ldr	r3, .L197+4
 2454 0810 9E4A     		ldr	r2, .L197+8
 2455 0812 1A60     		str	r2, [r3]
 2456 0814 07E0     		b	.L158
 2457              	.L157:
 973:..\src/interruptions.c ****                 else {
 974:..\src/interruptions.c ****                     if (curr_error_sum < -CURR_INTEGRAL_SAT_LIMIT) 
 2458              		.loc 1 974 0
 2459 0816 9C4B     		ldr	r3, .L197+4
 2460 0818 1B68     		ldr	r3, [r3]
 2461 081a 9D4A     		ldr	r2, .L197+12
 2462 081c 9342     		cmp	r3, r2
 2463 081e 02DA     		bge	.L158
 975:..\src/interruptions.c ****                         curr_error_sum = -CURR_INTEGRAL_SAT_LIMIT;
 2464              		.loc 1 975 0
 2465 0820 994B     		ldr	r3, .L197+4
 2466 0822 9B4A     		ldr	r2, .L197+12
 2467 0824 1A60     		str	r2, [r3]
 2468              	.L158:
 976:..\src/interruptions.c ****                 }
 977:..\src/interruptions.c **** 
 978:..\src/interruptions.c ****                 pwm_input = 0;
 2469              		.loc 1 978 0
 2470 0826 0023     		movs	r3, #0
 2471 0828 7B65     		str	r3, [r7, #84]
 979:..\src/interruptions.c **** 
 980:..\src/interruptions.c ****                 // Proportional
 981:..\src/interruptions.c ****                 if (k_p_c != 0)
 2472              		.loc 1 981 0
 2473 082a 3B6B     		ldr	r3, [r7, #48]
 2474 082c 002B     		cmp	r3, #0
 2475 082e 07D0     		beq	.L159
 982:..\src/interruptions.c ****                     pwm_input += (int32)(k_p_c * curr_error) >> 16;
 2476              		.loc 1 982 0
 2477 0830 3B6B     		ldr	r3, [r7, #48]
 2478 0832 3A68     		ldr	r2, [r7]
 2479 0834 02FB03F3 		mul	r3, r2, r3
 2480 0838 1B14     		asrs	r3, r3, #16
 2481 083a 7A6D     		ldr	r2, [r7, #84]
 2482 083c 1344     		add	r3, r3, r2
 2483 083e 7B65     		str	r3, [r7, #84]
 2484              	.L159:
 983:..\src/interruptions.c **** 
 984:..\src/interruptions.c ****                 // Integral
 985:..\src/interruptions.c ****                 if (k_i_c != 0)
 2485              		.loc 1 985 0
 2486 0840 FB6A     		ldr	r3, [r7, #44]
 2487 0842 002B     		cmp	r3, #0
 2488 0844 08D0     		beq	.L160
 986:..\src/interruptions.c ****                     pwm_input += (int32)(k_i_c * curr_error_sum) >> 16;
 2489              		.loc 1 986 0
 2490 0846 904B     		ldr	r3, .L197+4
 2491 0848 1B68     		ldr	r3, [r3]
 2492 084a FA6A     		ldr	r2, [r7, #44]
ARM GAS  C:\Users\Mattia\AppData\Local\Temp\ccUxgIpk.s 			page 63


 2493 084c 02FB03F3 		mul	r3, r2, r3
 2494 0850 1B14     		asrs	r3, r3, #16
 2495 0852 7A6D     		ldr	r2, [r7, #84]
 2496 0854 1344     		add	r3, r3, r2
 2497 0856 7B65     		str	r3, [r7, #84]
 2498              	.L160:
 987:..\src/interruptions.c **** 
 988:..\src/interruptions.c ****                 // Derivative
 989:..\src/interruptions.c ****                 if (k_d_c != 0)
 2499              		.loc 1 989 0
 2500 0858 BB6A     		ldr	r3, [r7, #40]
 2501 085a 002B     		cmp	r3, #0
 2502 085c 0AD0     		beq	.L161
 990:..\src/interruptions.c ****                     pwm_input += (int32)(k_d_c * (curr_error - prev_curr_err)) >> 16;
 2503              		.loc 1 990 0
 2504 085e 8D4B     		ldr	r3, .L197+16
 2505 0860 1B68     		ldr	r3, [r3]
 2506 0862 3A68     		ldr	r2, [r7]
 2507 0864 D31A     		subs	r3, r2, r3
 2508 0866 BA6A     		ldr	r2, [r7, #40]
 2509 0868 02FB03F3 		mul	r3, r2, r3
 2510 086c 1B14     		asrs	r3, r3, #16
 2511 086e 7A6D     		ldr	r2, [r7, #84]
 2512 0870 1344     		add	r3, r3, r2
 2513 0872 7B65     		str	r3, [r7, #84]
 2514              	.L161:
 991:..\src/interruptions.c ****                 
 992:..\src/interruptions.c ****                 prev_curr_err = curr_error;
 2515              		.loc 1 992 0
 2516 0874 874A     		ldr	r2, .L197+16
 2517 0876 3B68     		ldr	r3, [r7]
 2518 0878 1360     		str	r3, [r2]
 993:..\src/interruptions.c ****                 
 994:..\src/interruptions.c ****                 if (pwm_input >= 0) 
 2519              		.loc 1 994 0
 2520 087a 7B6D     		ldr	r3, [r7, #84]
 2521 087c 002B     		cmp	r3, #0
 2522 087e 03DB     		blt	.L162
 995:..\src/interruptions.c ****                     motor_dir = TRUE;
 2523              		.loc 1 995 0
 2524 0880 854B     		ldr	r3, .L197+20
 2525 0882 0122     		movs	r2, #1
 2526 0884 1A70     		strb	r2, [r3]
 996:..\src/interruptions.c ****                 else
 997:..\src/interruptions.c ****                     motor_dir = FALSE;
 998:..\src/interruptions.c ****             }
 999:..\src/interruptions.c ****         break;
 2527              		.loc 1 999 0
 2528 0886 1EE0     		b	.L189
 2529              	.L162:
 997:..\src/interruptions.c ****             }
 2530              		.loc 1 997 0
 2531 0888 834B     		ldr	r3, .L197+20
 2532 088a 0022     		movs	r2, #0
 2533 088c 1A70     		strb	r2, [r3]
 2534              		.loc 1 999 0
 2535 088e 1AE0     		b	.L189
ARM GAS  C:\Users\Mattia\AppData\Local\Temp\ccUxgIpk.s 			page 64


 2536              	.L128:
1000:..\src/interruptions.c ****         
1001:..\src/interruptions.c ****         // ================= DIRECT PWM CONTROL ================================
1002:..\src/interruptions.c ****         case CONTROL_PWM:
1003:..\src/interruptions.c **** 
1004:..\src/interruptions.c ****             pwm_input = g_ref[0].pwm;
 2537              		.loc 1 1004 0
 2538 0890 824B     		ldr	r3, .L197+24
 2539 0892 9B68     		ldr	r3, [r3, #8]
 2540 0894 7B65     		str	r3, [r7, #84]
1005:..\src/interruptions.c **** 
1006:..\src/interruptions.c ****             if (pwm_input > 0) 
 2541              		.loc 1 1006 0
 2542 0896 7B6D     		ldr	r3, [r7, #84]
 2543 0898 002B     		cmp	r3, #0
 2544 089a 03DD     		ble	.L163
1007:..\src/interruptions.c ****                 motor_dir = TRUE;
 2545              		.loc 1 1007 0
 2546 089c 7E4B     		ldr	r3, .L197+20
 2547 089e 0122     		movs	r2, #1
 2548 08a0 1A70     		strb	r2, [r3]
 2549 08a2 02E0     		b	.L164
 2550              	.L163:
1008:..\src/interruptions.c ****             else 
1009:..\src/interruptions.c ****                 motor_dir = FALSE;
 2551              		.loc 1 1009 0
 2552 08a4 7C4B     		ldr	r3, .L197+20
 2553 08a6 0022     		movs	r2, #0
 2554 08a8 1A70     		strb	r2, [r3]
 2555              	.L164:
1010:..\src/interruptions.c ****             
1011:..\src/interruptions.c **** 
1012:..\src/interruptions.c ****             // pwm_input saturation
1013:..\src/interruptions.c ****             if (pwm_input < -PWM_MAX_VALUE) 
 2556              		.loc 1 1013 0
 2557 08aa 7B6D     		ldr	r3, [r7, #84]
 2558 08ac 13F1640F 		cmn	r3, #100
 2559 08b0 03DA     		bge	.L165
1014:..\src/interruptions.c ****                 pwm_input = -PWM_MAX_VALUE;
 2560              		.loc 1 1014 0
 2561 08b2 6FF06303 		mvn	r3, #99
 2562 08b6 7B65     		str	r3, [r7, #84]
1015:..\src/interruptions.c ****             else {
1016:..\src/interruptions.c **** 				if (pwm_input > PWM_MAX_VALUE) 
1017:..\src/interruptions.c ****                 	pwm_input = PWM_MAX_VALUE;
1018:..\src/interruptions.c ****         	}
1019:..\src/interruptions.c **** 
1020:..\src/interruptions.c ****         break;
 2563              		.loc 1 1020 0
 2564 08b8 07E0     		b	.L190
 2565              	.L165:
1016:..\src/interruptions.c ****                 	pwm_input = PWM_MAX_VALUE;
 2566              		.loc 1 1016 0
 2567 08ba 7B6D     		ldr	r3, [r7, #84]
 2568 08bc 642B     		cmp	r3, #100
 2569 08be 04DD     		ble	.L190
1017:..\src/interruptions.c ****         	}
ARM GAS  C:\Users\Mattia\AppData\Local\Temp\ccUxgIpk.s 			page 65


 2570              		.loc 1 1017 0
 2571 08c0 6423     		movs	r3, #100
 2572 08c2 7B65     		str	r3, [r7, #84]
 2573              		.loc 1 1020 0
 2574 08c4 01E0     		b	.L190
 2575              	.L189:
 999:..\src/interruptions.c ****         
 2576              		.loc 1 999 0
 2577 08c6 00BF     		nop
 2578 08c8 00E0     		b	.L125
 2579              	.L190:
 2580              		.loc 1 1020 0
 2581 08ca 00BF     		nop
 2582              	.L125:
1021:..\src/interruptions.c ****             
1022:..\src/interruptions.c ****     }
1023:..\src/interruptions.c **** 
1024:..\src/interruptions.c ****     ////////////////////////////////////////////////////////////////////////////
1025:..\src/interruptions.c **** 
1026:..\src/interruptions.c ****     if(pwm_input >  PWM_MAX_VALUE) 
 2583              		.loc 1 1026 0
 2584 08cc 7B6D     		ldr	r3, [r7, #84]
 2585 08ce 642B     		cmp	r3, #100
 2586 08d0 01DD     		ble	.L167
1027:..\src/interruptions.c ****         pwm_input =  PWM_MAX_VALUE;
 2587              		.loc 1 1027 0
 2588 08d2 6423     		movs	r3, #100
 2589 08d4 7B65     		str	r3, [r7, #84]
 2590              	.L167:
1028:..\src/interruptions.c ****     if(pwm_input < -PWM_MAX_VALUE) 
 2591              		.loc 1 1028 0
 2592 08d6 7B6D     		ldr	r3, [r7, #84]
 2593 08d8 13F1640F 		cmn	r3, #100
 2594 08dc 02DA     		bge	.L168
1029:..\src/interruptions.c ****         pwm_input = -PWM_MAX_VALUE;
 2595              		.loc 1 1029 0
 2596 08de 6FF06303 		mvn	r3, #99
 2597 08e2 7B65     		str	r3, [r7, #84]
 2598              	.L168:
1030:..\src/interruptions.c **** 
1031:..\src/interruptions.c ****     if (SH_MOT->control_mode != CONTROL_PWM) 
 2599              		.loc 1 1031 0
 2600 08e4 7B6C     		ldr	r3, [r7, #68]
 2601 08e6 93F85F30 		ldrb	r3, [r3, #95]	@ zero_extendqisi2
 2602 08ea 012B     		cmp	r3, #1
 2603 08ec 0DD0     		beq	.L169
1032:..\src/interruptions.c ****         pwm_input = (((pwm_input << 10) / PWM_MAX_VALUE) * dev_pwm_limit[0]) >> 10;
 2604              		.loc 1 1032 0
 2605 08ee 7B6D     		ldr	r3, [r7, #84]
 2606 08f0 9B02     		lsls	r3, r3, #10
 2607 08f2 6B4A     		ldr	r2, .L197+28
 2608 08f4 82FB0312 		smull	r1, r2, r2, r3
 2609 08f8 5211     		asrs	r2, r2, #5
 2610 08fa DB17     		asrs	r3, r3, #31
 2611 08fc D31A     		subs	r3, r2, r3
 2612 08fe 694A     		ldr	r2, .L197+32
 2613 0900 1278     		ldrb	r2, [r2]	@ zero_extendqisi2
ARM GAS  C:\Users\Mattia\AppData\Local\Temp\ccUxgIpk.s 			page 66


 2614 0902 02FB03F3 		mul	r3, r2, r3
 2615 0906 9B12     		asrs	r3, r3, #10
 2616 0908 7B65     		str	r3, [r7, #84]
 2617              	.L169:
1033:..\src/interruptions.c ****  
1034:..\src/interruptions.c ****     //// RATE LIMITER ////
1035:..\src/interruptions.c ****     if((pwm_input-prev_pwm) > SH_MOT->pwm_rate_limiter){
 2618              		.loc 1 1035 0
 2619 090a 674B     		ldr	r3, .L197+36
 2620 090c 1B68     		ldr	r3, [r3]
 2621 090e 7A6D     		ldr	r2, [r7, #84]
 2622 0910 D31A     		subs	r3, r2, r3
 2623 0912 7A6C     		ldr	r2, [r7, #68]
 2624 0914 92F86120 		ldrb	r2, [r2, #97]	@ zero_extendqisi2
 2625 0918 9342     		cmp	r3, r2
 2626 091a 08DD     		ble	.L170
1036:..\src/interruptions.c ****         pwm_input =  prev_pwm + SH_MOT->pwm_rate_limiter;
 2627              		.loc 1 1036 0
 2628 091c 7B6C     		ldr	r3, [r7, #68]
 2629 091e 93F86130 		ldrb	r3, [r3, #97]	@ zero_extendqisi2
 2630 0922 1A46     		mov	r2, r3
 2631 0924 604B     		ldr	r3, .L197+36
 2632 0926 1B68     		ldr	r3, [r3]
 2633 0928 1344     		add	r3, r3, r2
 2634 092a 7B65     		str	r3, [r7, #84]
 2635 092c 10E0     		b	.L171
 2636              	.L170:
1037:..\src/interruptions.c ****     }
1038:..\src/interruptions.c ****     else {
1039:..\src/interruptions.c ****         if((pwm_input-prev_pwm) < -SH_MOT->pwm_rate_limiter)
 2637              		.loc 1 1039 0
 2638 092e 5E4B     		ldr	r3, .L197+36
 2639 0930 1B68     		ldr	r3, [r3]
 2640 0932 7A6D     		ldr	r2, [r7, #84]
 2641 0934 D21A     		subs	r2, r2, r3
 2642 0936 7B6C     		ldr	r3, [r7, #68]
 2643 0938 93F86130 		ldrb	r3, [r3, #97]	@ zero_extendqisi2
 2644 093c 5B42     		negs	r3, r3
 2645 093e 9A42     		cmp	r2, r3
 2646 0940 06DA     		bge	.L171
1040:..\src/interruptions.c ****             pwm_input =  prev_pwm - SH_MOT->pwm_rate_limiter;
 2647              		.loc 1 1040 0
 2648 0942 594B     		ldr	r3, .L197+36
 2649 0944 1B68     		ldr	r3, [r3]
 2650 0946 7A6C     		ldr	r2, [r7, #68]
 2651 0948 92F86120 		ldrb	r2, [r2, #97]	@ zero_extendqisi2
 2652 094c 9B1A     		subs	r3, r3, r2
 2653 094e 7B65     		str	r3, [r7, #84]
 2654              	.L171:
1041:..\src/interruptions.c ****     }
1042:..\src/interruptions.c ****     
1043:..\src/interruptions.c ****     if(pwm_input >  PWM_MAX_VALUE) 
 2655              		.loc 1 1043 0
 2656 0950 7B6D     		ldr	r3, [r7, #84]
 2657 0952 642B     		cmp	r3, #100
 2658 0954 01DD     		ble	.L172
1044:..\src/interruptions.c ****         pwm_input =  PWM_MAX_VALUE;
ARM GAS  C:\Users\Mattia\AppData\Local\Temp\ccUxgIpk.s 			page 67


 2659              		.loc 1 1044 0
 2660 0956 6423     		movs	r3, #100
 2661 0958 7B65     		str	r3, [r7, #84]
 2662              	.L172:
1045:..\src/interruptions.c ****     if(pwm_input < -PWM_MAX_VALUE) 
 2663              		.loc 1 1045 0
 2664 095a 7B6D     		ldr	r3, [r7, #84]
 2665 095c 13F1640F 		cmn	r3, #100
 2666 0960 02DA     		bge	.L173
1046:..\src/interruptions.c ****         pwm_input = -PWM_MAX_VALUE;
 2667              		.loc 1 1046 0
 2668 0962 6FF06303 		mvn	r3, #99
 2669 0966 7B65     		str	r3, [r7, #84]
 2670              	.L173:
1047:..\src/interruptions.c ****     
1048:..\src/interruptions.c ****     prev_pwm = pwm_input;
 2671              		.loc 1 1048 0
 2672 0968 4F4A     		ldr	r2, .L197+36
 2673 096a 7B6D     		ldr	r3, [r7, #84]
 2674 096c 1360     		str	r3, [r2]
1049:..\src/interruptions.c **** 	
1050:..\src/interruptions.c ****     pwm_sign = SIGN(pwm_input);   
 2675              		.loc 1 1050 0
 2676 096e 7B6D     		ldr	r3, [r7, #84]
 2677 0970 002B     		cmp	r3, #0
 2678 0972 01DB     		blt	.L174
 2679              		.loc 1 1050 0 is_stmt 0 discriminator 1
 2680 0974 0122     		movs	r2, #1
 2681 0976 01E0     		b	.L175
 2682              	.L174:
 2683              		.loc 1 1050 0 discriminator 2
 2684 0978 4FF0FF32 		mov	r2, #-1
 2685              	.L175:
 2686              		.loc 1 1050 0 discriminator 4
 2687 097c 4B4B     		ldr	r3, .L197+40
 2688 097e 1A70     		strb	r2, [r3]
1051:..\src/interruptions.c ****     
1052:..\src/interruptions.c ****     if (SH_MOT->not_revers_motor_flag == TRUE) {
 2689              		.loc 1 1052 0 is_stmt 1 discriminator 4
 2690 0980 7B6C     		ldr	r3, [r7, #68]
 2691 0982 93F86230 		ldrb	r3, [r3, #98]	@ zero_extendqisi2
 2692 0986 012B     		cmp	r3, #1
 2693 0988 40F09F80 		bne	.L176
1053:..\src/interruptions.c ****         // Block motor with pwm = 0 to exploit not reversible motor behaviour 
1054:..\src/interruptions.c ****     	if ( SH_MOT->control_mode != CONTROL_PWM && ((g_measOld[SH_ENC_L].pos[0]-g_meas[SH_ENC_L].pos[
 2694              		.loc 1 1054 0
 2695 098c 7B6C     		ldr	r3, [r7, #68]
 2696 098e 93F85F30 		ldrb	r3, [r3, #95]	@ zero_extendqisi2
 2697 0992 012B     		cmp	r3, #1
 2698 0994 00F09680 		beq	.L177
 2699              		.loc 1 1054 0 is_stmt 0 discriminator 1
 2700 0998 97F84330 		ldrb	r3, [r7, #67]	@ zero_extendqisi2
 2701 099c 444A     		ldr	r2, .L197+44
 2702 099e 3421     		movs	r1, #52
 2703 09a0 01FB03F3 		mul	r3, r1, r3
 2704 09a4 1344     		add	r3, r3, r2
 2705 09a6 1A68     		ldr	r2, [r3]
ARM GAS  C:\Users\Mattia\AppData\Local\Temp\ccUxgIpk.s 			page 68


 2706 09a8 97F84330 		ldrb	r3, [r7, #67]	@ zero_extendqisi2
 2707 09ac 3549     		ldr	r1, .L197
 2708 09ae 3420     		movs	r0, #52
 2709 09b0 00FB03F3 		mul	r3, r0, r3
 2710 09b4 0B44     		add	r3, r3, r1
 2711 09b6 1B68     		ldr	r3, [r3]
 2712 09b8 D31A     		subs	r3, r2, r3
 2713 09ba 312B     		cmp	r3, #49
 2714 09bc 00F38280 		bgt	.L177
1055:..\src/interruptions.c ****             (g_measOld[SH_ENC_L].pos[0]-g_meas[SH_ENC_L].pos[0]) > -50) && 
 2715              		.loc 1 1055 0 is_stmt 1 discriminator 2
 2716 09c0 97F84330 		ldrb	r3, [r7, #67]	@ zero_extendqisi2
 2717 09c4 3A4A     		ldr	r2, .L197+44
 2718 09c6 3421     		movs	r1, #52
 2719 09c8 01FB03F3 		mul	r3, r1, r3
 2720 09cc 1344     		add	r3, r3, r2
 2721 09ce 1A68     		ldr	r2, [r3]
 2722 09d0 97F84330 		ldrb	r3, [r7, #67]	@ zero_extendqisi2
 2723 09d4 2B49     		ldr	r1, .L197
 2724 09d6 3420     		movs	r0, #52
 2725 09d8 00FB03F3 		mul	r3, r0, r3
 2726 09dc 0B44     		add	r3, r3, r1
 2727 09de 1B68     		ldr	r3, [r3]
 2728 09e0 D31A     		subs	r3, r2, r3
1054:..\src/interruptions.c ****             (g_measOld[SH_ENC_L].pos[0]-g_meas[SH_ENC_L].pos[0]) > -50) && 
 2729              		.loc 1 1054 0 discriminator 2
 2730 09e2 13F1310F 		cmn	r3, #49
 2731 09e6 6DDB     		blt	.L177
1056:..\src/interruptions.c ****             ((g_refOld[0].pos - g_ref[0].pos) < 100 && (g_refOld[0].pos - g_ref[0].pos) > -100) ) {
 2732              		.loc 1 1056 0
 2733 09e8 324B     		ldr	r3, .L197+48
 2734 09ea 1A68     		ldr	r2, [r3]
 2735 09ec 2B4B     		ldr	r3, .L197+24
 2736 09ee 1B68     		ldr	r3, [r3]
 2737 09f0 D31A     		subs	r3, r2, r3
1055:..\src/interruptions.c ****             (g_measOld[SH_ENC_L].pos[0]-g_meas[SH_ENC_L].pos[0]) > -50) && 
 2738              		.loc 1 1055 0
 2739 09f2 632B     		cmp	r3, #99
 2740 09f4 66DC     		bgt	.L177
 2741              		.loc 1 1056 0
 2742 09f6 2F4B     		ldr	r3, .L197+48
 2743 09f8 1A68     		ldr	r2, [r3]
 2744 09fa 284B     		ldr	r3, .L197+24
 2745 09fc 1B68     		ldr	r3, [r3]
 2746 09fe D31A     		subs	r3, r2, r3
 2747 0a00 13F1630F 		cmn	r3, #99
 2748 0a04 5EDB     		blt	.L177
1057:..\src/interruptions.c ****             position_counter++;
 2749              		.loc 1 1057 0
 2750 0a06 2C4B     		ldr	r3, .L197+52
 2751 0a08 1B68     		ldr	r3, [r3]
 2752 0a0a 0133     		adds	r3, r3, #1
 2753 0a0c 2A4A     		ldr	r2, .L197+52
 2754 0a0e 1360     		str	r3, [r2]
1058:..\src/interruptions.c ****             
1059:..\src/interruptions.c ****             if (position_counter >= 250) { 
 2755              		.loc 1 1059 0
ARM GAS  C:\Users\Mattia\AppData\Local\Temp\ccUxgIpk.s 			page 69


 2756 0a10 294B     		ldr	r3, .L197+52
 2757 0a12 1B68     		ldr	r3, [r3]
 2758 0a14 F92B     		cmp	r3, #249
 2759 0a16 58D9     		bls	.L176
1060:..\src/interruptions.c ****                 if (SH_MOT->input_mode == INPUT_MODE_EXTERNAL && change_ext_ref_flag == FALSE) {
 2760              		.loc 1 1060 0
 2761 0a18 7B6C     		ldr	r3, [r7, #68]
 2762 0a1a 93F85E30 		ldrb	r3, [r3, #94]	@ zero_extendqisi2
 2763 0a1e 002B     		cmp	r3, #0
 2764 0a20 0DD1     		bne	.L179
 2765              		.loc 1 1060 0 is_stmt 0 discriminator 1
 2766 0a22 264B     		ldr	r3, .L197+56
 2767 0a24 1B78     		ldrb	r3, [r3]	@ zero_extendqisi2
 2768 0a26 002B     		cmp	r3, #0
 2769 0a28 09D1     		bne	.L179
1061:..\src/interruptions.c ****                     g_refNew[0].pos = g_meas[SH_ENC_L].pos[0];       // Needed only when USB input 
 2770              		.loc 1 1061 0 is_stmt 1
 2771 0a2a 97F84330 		ldrb	r3, [r7, #67]	@ zero_extendqisi2
 2772 0a2e 154A     		ldr	r2, .L197
 2773 0a30 3421     		movs	r1, #52
 2774 0a32 01FB03F3 		mul	r3, r1, r3
 2775 0a36 1344     		add	r3, r3, r2
 2776 0a38 1B68     		ldr	r3, [r3]
 2777 0a3a 214A     		ldr	r2, .L197+60
 2778 0a3c 1360     		str	r3, [r2]
 2779              	.L179:
1062:..\src/interruptions.c ****                 }
1063:..\src/interruptions.c ****                 g_ref[0].pos = g_meas[SH_ENC_L].pos[0];
 2780              		.loc 1 1063 0
 2781 0a3e 97F84330 		ldrb	r3, [r7, #67]	@ zero_extendqisi2
 2782 0a42 104A     		ldr	r2, .L197
 2783 0a44 3421     		movs	r1, #52
 2784 0a46 01FB03F3 		mul	r3, r1, r3
 2785 0a4a 1344     		add	r3, r3, r2
 2786 0a4c 1B68     		ldr	r3, [r3]
 2787 0a4e 134A     		ldr	r2, .L197+24
 2788 0a50 1360     		str	r3, [r2]
1064:..\src/interruptions.c ****                 
1065:..\src/interruptions.c ****                 if (position_counter == 250){
 2789              		.loc 1 1065 0
 2790 0a52 194B     		ldr	r3, .L197+52
 2791 0a54 1B68     		ldr	r3, [r3]
 2792 0a56 FA2B     		cmp	r3, #250
 2793 0a58 11D1     		bne	.L180
1066:..\src/interruptions.c ****                     // To do only once
1067:..\src/interruptions.c ****                     g_meas[SH_ENC_L].hold_curr = g_meas[SH_ENC_L].curr;
 2794              		.loc 1 1067 0
 2795 0a5a 97F84330 		ldrb	r3, [r7, #67]	@ zero_extendqisi2
 2796 0a5e 97F84320 		ldrb	r2, [r7, #67]	@ zero_extendqisi2
 2797 0a62 0849     		ldr	r1, .L197
 2798 0a64 3420     		movs	r0, #52
 2799 0a66 00FB02F2 		mul	r2, r0, r2
 2800 0a6a 0A44     		add	r2, r2, r1
 2801 0a6c 0C32     		adds	r2, r2, #12
 2802 0a6e 1268     		ldr	r2, [r2]
 2803 0a70 0449     		ldr	r1, .L197
 2804 0a72 3420     		movs	r0, #52
ARM GAS  C:\Users\Mattia\AppData\Local\Temp\ccUxgIpk.s 			page 70


 2805 0a74 00FB03F3 		mul	r3, r0, r3
 2806 0a78 0B44     		add	r3, r3, r1
 2807 0a7a 1433     		adds	r3, r3, #20
 2808 0a7c 1A60     		str	r2, [r3]
 2809              	.L180:
1068:..\src/interruptions.c ****                 }
1069:..\src/interruptions.c ****                 pwm_input = 0;            
 2810              		.loc 1 1069 0
 2811 0a7e 0023     		movs	r3, #0
 2812 0a80 7B65     		str	r3, [r7, #84]
1059:..\src/interruptions.c ****                 if (SH_MOT->input_mode == INPUT_MODE_EXTERNAL && change_ext_ref_flag == FALSE) {
 2813              		.loc 1 1059 0
 2814 0a82 22E0     		b	.L176
 2815              	.L198:
 2816              		.align	2
 2817              	.L197:
 2818 0a84 00000000 		.word	g_meas
 2819 0a88 9C000000 		.word	curr_error_sum.10439
 2820 0a8c A0860100 		.word	100000
 2821 0a90 6079FEFF 		.word	-100000
 2822 0a94 A0000000 		.word	prev_curr_err.10441
 2823 0a98 98000000 		.word	motor_dir.10443
 2824 0a9c 00000000 		.word	g_ref
 2825 0aa0 1F85EB51 		.word	1374389535
 2826 0aa4 00000000 		.word	dev_pwm_limit
 2827 0aa8 A4000000 		.word	prev_pwm.10442
 2828 0aac 00000000 		.word	pwm_sign
 2829 0ab0 00000000 		.word	g_measOld
 2830 0ab4 00000000 		.word	g_refOld
 2831 0ab8 A8000000 		.word	position_counter.10444
 2832 0abc 00000000 		.word	change_ext_ref_flag
 2833 0ac0 00000000 		.word	g_refNew
 2834              	.L177:
1070:..\src/interruptions.c ****             }
1071:..\src/interruptions.c ****         }
1072:..\src/interruptions.c ****         else {
1073:..\src/interruptions.c ****             position_counter = 0;
 2835              		.loc 1 1073 0
 2836 0ac4 0C4B     		ldr	r3, .L199
 2837 0ac6 0022     		movs	r2, #0
 2838 0ac8 1A60     		str	r2, [r3]
 2839              	.L176:
1074:..\src/interruptions.c ****         }
1075:..\src/interruptions.c ****     }
1076:..\src/interruptions.c ****     
1077:..\src/interruptions.c ****     if (motor_dir)
 2840              		.loc 1 1077 0
 2841 0aca 0C4B     		ldr	r3, .L199+4
 2842 0acc 1B78     		ldrb	r3, [r3]	@ zero_extendqisi2
 2843 0ace 002B     		cmp	r3, #0
 2844 0ad0 03D0     		beq	.L181
1078:..\src/interruptions.c ****         MOTOR_DIR_1_Write(0x01);
 2845              		.loc 1 1078 0
 2846 0ad2 0120     		movs	r0, #1
 2847 0ad4 FFF7FEFF 		bl	MOTOR_DIR_1_Write
 2848 0ad8 02E0     		b	.L182
 2849              	.L181:
ARM GAS  C:\Users\Mattia\AppData\Local\Temp\ccUxgIpk.s 			page 71


1079:..\src/interruptions.c ****     else
1080:..\src/interruptions.c ****         MOTOR_DIR_1_Write(0x00);
 2850              		.loc 1 1080 0
 2851 0ada 0020     		movs	r0, #0
 2852 0adc FFF7FEFF 		bl	MOTOR_DIR_1_Write
 2853              	.L182:
1081:..\src/interruptions.c **** 
1082:..\src/interruptions.c ****     PWM_MOTORS_WriteCompare1(abs(pwm_input));
 2854              		.loc 1 1082 0
 2855 0ae0 7B6D     		ldr	r3, [r7, #84]
 2856 0ae2 002B     		cmp	r3, #0
 2857 0ae4 B8BF     		it	lt
 2858 0ae6 5B42     		rsblt	r3, r3, #0
 2859 0ae8 DBB2     		uxtb	r3, r3
 2860 0aea 1846     		mov	r0, r3
 2861 0aec FFF7FEFF 		bl	PWM_MOTORS_WriteCompare1
1083:..\src/interruptions.c **** }
 2862              		.loc 1 1083 0
 2863 0af0 00BF     		nop
 2864 0af2 5837     		adds	r7, r7, #88
 2865              		.cfi_def_cfa_offset 8
 2866 0af4 BD46     		mov	sp, r7
 2867              		.cfi_def_cfa_register 13
 2868              		@ sp needed
 2869 0af6 80BD     		pop	{r7, pc}
 2870              	.L200:
 2871              		.align	2
 2872              	.L199:
 2873 0af8 A8000000 		.word	position_counter.10444
 2874 0afc 98000000 		.word	motor_dir.10443
 2875              		.cfi_endproc
 2876              	.LFE68:
 2877              		.size	motor_control_SH, .-motor_control_SH
 2878              		.section	.text.motor_control_generic,"ax",%progbits
 2879              		.align	2
 2880              		.global	motor_control_generic
 2881              		.thumb
 2882              		.thumb_func
 2883              		.type	motor_control_generic, %function
 2884              	motor_control_generic:
 2885              	.LFB69:
1084:..\src/interruptions.c **** 
1085:..\src/interruptions.c **** //==============================================================================
1086:..\src/interruptions.c **** //                                                         MOTOR CONTROL GENERIC
1087:..\src/interruptions.c **** //==============================================================================
1088:..\src/interruptions.c **** void motor_control_generic(uint8 idx) {
 2886              		.loc 1 1088 0
 2887              		.cfi_startproc
 2888              		@ args = 0, pretend = 0, frame = 96
 2889              		@ frame_needed = 1, uses_anonymous_args = 0
 2890 0000 90B5     		push	{r4, r7, lr}
 2891              		.cfi_def_cfa_offset 12
 2892              		.cfi_offset 4, -12
 2893              		.cfi_offset 7, -8
 2894              		.cfi_offset 14, -4
 2895 0002 99B0     		sub	sp, sp, #100
 2896              		.cfi_def_cfa_offset 112
ARM GAS  C:\Users\Mattia\AppData\Local\Temp\ccUxgIpk.s 			page 72


 2897 0004 00AF     		add	r7, sp, #0
 2898              		.cfi_def_cfa_register 7
 2899 0006 0346     		mov	r3, r0
 2900 0008 FB71     		strb	r3, [r7, #7]
1089:..\src/interruptions.c ****     
1090:..\src/interruptions.c ****     int32 CYDATA pwm_input = 0;
 2901              		.loc 1 1090 0
 2902 000a 0023     		movs	r3, #0
 2903 000c FB65     		str	r3, [r7, #92]
1091:..\src/interruptions.c ****     int32 CYDATA pos_error;         // position error
1092:..\src/interruptions.c ****     int32 CYDATA curr_error;        // current error
1093:..\src/interruptions.c ****     int32 CYDATA i_ref;             // current reference
1094:..\src/interruptions.c ****     int32 CYDATA handle_value;
1095:..\src/interruptions.c ****     int32 CYDATA err_emg_1, err_emg_2;
1096:..\src/interruptions.c **** 
1097:..\src/interruptions.c ****     struct st_motor* MOT = &c_mem.motor[idx]; // Motor struct
 2904              		.loc 1 1097 0
 2905 000e FA79     		ldrb	r2, [r7, #7]	@ zero_extendqisi2
 2906 0010 1346     		mov	r3, r2
 2907 0012 DB00     		lsls	r3, r3, #3
 2908 0014 9B1A     		subs	r3, r3, r2
 2909 0016 1B01     		lsls	r3, r3, #4
 2910 0018 B033     		adds	r3, r3, #176
 2911 001a A94A     		ldr	r2, .L319
 2912 001c 1344     		add	r3, r3, r2
 2913 001e 3B65     		str	r3, [r7, #80]
1098:..\src/interruptions.c ****     uint8 ENC_L = MOT->encoder_line;          // Associated encoder line
 2914              		.loc 1 1098 0
 2915 0020 3B6D     		ldr	r3, [r7, #80]
 2916 0022 93F86030 		ldrb	r3, [r3, #96]
 2917 0026 87F84F30 		strb	r3, [r7, #79]
1099:..\src/interruptions.c ****     
1100:..\src/interruptions.c ****     int32 CYDATA k_p = MOT->k_p;  
 2918              		.loc 1 1100 0
 2919 002a 3B6D     		ldr	r3, [r7, #80]
 2920 002c 1B68     		ldr	r3, [r3]
 2921 002e BB64     		str	r3, [r7, #72]
1101:..\src/interruptions.c ****     int32 CYDATA k_i = MOT->k_i; 
 2922              		.loc 1 1101 0
 2923 0030 3B6D     		ldr	r3, [r7, #80]
 2924 0032 5B68     		ldr	r3, [r3, #4]
 2925 0034 7B64     		str	r3, [r7, #68]
1102:..\src/interruptions.c ****     int32 CYDATA k_d = MOT->k_d; 
 2926              		.loc 1 1102 0
 2927 0036 3B6D     		ldr	r3, [r7, #80]
 2928 0038 9B68     		ldr	r3, [r3, #8]
 2929 003a 3B64     		str	r3, [r7, #64]
1103:..\src/interruptions.c **** 
1104:..\src/interruptions.c ****     int32 CYDATA k_p_c = MOT->k_p_c;  
 2930              		.loc 1 1104 0
 2931 003c 3B6D     		ldr	r3, [r7, #80]
 2932 003e DB68     		ldr	r3, [r3, #12]
 2933 0040 FB63     		str	r3, [r7, #60]
1105:..\src/interruptions.c ****     int32 CYDATA k_i_c = MOT->k_i_c; 
 2934              		.loc 1 1105 0
 2935 0042 3B6D     		ldr	r3, [r7, #80]
 2936 0044 1B69     		ldr	r3, [r3, #16]
ARM GAS  C:\Users\Mattia\AppData\Local\Temp\ccUxgIpk.s 			page 73


 2937 0046 BB63     		str	r3, [r7, #56]
1106:..\src/interruptions.c ****     int32 CYDATA k_d_c = MOT->k_d_c;   
 2938              		.loc 1 1106 0
 2939 0048 3B6D     		ldr	r3, [r7, #80]
 2940 004a 5B69     		ldr	r3, [r3, #20]
 2941 004c 7B63     		str	r3, [r7, #52]
1107:..\src/interruptions.c **** 
1108:..\src/interruptions.c ****     int32 CYDATA k_p_dl = MOT->k_p_dl;  
 2942              		.loc 1 1108 0
 2943 004e 3B6D     		ldr	r3, [r7, #80]
 2944 0050 9B69     		ldr	r3, [r3, #24]
 2945 0052 3B63     		str	r3, [r7, #48]
1109:..\src/interruptions.c ****     int32 CYDATA k_i_dl = MOT->k_i_dl; 
 2946              		.loc 1 1109 0
 2947 0054 3B6D     		ldr	r3, [r7, #80]
 2948 0056 DB69     		ldr	r3, [r3, #28]
 2949 0058 FB62     		str	r3, [r7, #44]
1110:..\src/interruptions.c ****     int32 CYDATA k_d_dl = MOT->k_d_dl;
 2950              		.loc 1 1110 0
 2951 005a 3B6D     		ldr	r3, [r7, #80]
 2952 005c 1B6A     		ldr	r3, [r3, #32]
 2953 005e BB62     		str	r3, [r7, #40]
1111:..\src/interruptions.c ****     
1112:..\src/interruptions.c ****     int32 CYDATA k_p_c_dl = MOT->k_p_c_dl;  
 2954              		.loc 1 1112 0
 2955 0060 3B6D     		ldr	r3, [r7, #80]
 2956 0062 5B6A     		ldr	r3, [r3, #36]
 2957 0064 7B62     		str	r3, [r7, #36]
1113:..\src/interruptions.c ****     int32 CYDATA k_i_c_dl = MOT->k_i_c_dl; 
 2958              		.loc 1 1113 0
 2959 0066 3B6D     		ldr	r3, [r7, #80]
 2960 0068 9B6A     		ldr	r3, [r3, #40]
 2961 006a 3B62     		str	r3, [r7, #32]
1114:..\src/interruptions.c ****     int32 CYDATA k_d_c_dl = MOT->k_d_c_dl;   
 2962              		.loc 1 1114 0
 2963 006c 3B6D     		ldr	r3, [r7, #80]
 2964 006e DB6A     		ldr	r3, [r3, #44]
 2965 0070 FB61     		str	r3, [r7, #28]
1115:..\src/interruptions.c **** 
1116:..\src/interruptions.c ****     // Static Variables
1117:..\src/interruptions.c **** 
1118:..\src/interruptions.c ****     static int32 pos_error_sum[NUM_OF_MOTORS];     // position error sum for integral
1119:..\src/interruptions.c ****     static int32 curr_error_sum[NUM_OF_MOTORS];    // current error sum for integral
1120:..\src/interruptions.c ****     
1121:..\src/interruptions.c ****     static int32 prev_pos_err[NUM_OF_MOTORS];      // previous position error for deriv. control
1122:..\src/interruptions.c ****     static int32 prev_curr_err[NUM_OF_MOTORS];     // previous current error for deriv. control
1123:..\src/interruptions.c ****     static int32 prev_pwm[NUM_OF_MOTORS];
1124:..\src/interruptions.c **** 
1125:..\src/interruptions.c ****     static CYBIT motor_dir[NUM_OF_MOTORS] = {FALSE, FALSE};
1126:..\src/interruptions.c ****     static uint32 position_counter[NUM_OF_MOTORS] = {0, 0};
1127:..\src/interruptions.c ****     static uint8 current_emg[NUM_OF_MOTORS] = {0, 0};   // 0 NONE
1128:..\src/interruptions.c ****                                                         // 1 EMG 1
1129:..\src/interruptions.c ****                                                         // 2 EMG 2
1130:..\src/interruptions.c ****                                                         // wait for both to get down
1131:..\src/interruptions.c ****     
1132:..\src/interruptions.c ****     err_emg_1 = g_emg_meas.emg[0] - c_mem.emg.emg_threshold[0];
 2966              		.loc 1 1132 0
ARM GAS  C:\Users\Mattia\AppData\Local\Temp\ccUxgIpk.s 			page 74


 2967 0072 944B     		ldr	r3, .L319+4
 2968 0074 1B68     		ldr	r3, [r3]
 2969 0076 924A     		ldr	r2, .L319
 2970 0078 B2F8F021 		ldrh	r2, [r2, #496]
 2971 007c 9B1A     		subs	r3, r3, r2
 2972 007e BB61     		str	r3, [r7, #24]
1133:..\src/interruptions.c ****     err_emg_2 = g_emg_meas.emg[1] - c_mem.emg.emg_threshold[1];
 2973              		.loc 1 1133 0
 2974 0080 904B     		ldr	r3, .L319+4
 2975 0082 5B68     		ldr	r3, [r3, #4]
 2976 0084 8E4A     		ldr	r2, .L319
 2977 0086 B2F8F221 		ldrh	r2, [r2, #498]
 2978 008a 9B1A     		subs	r3, r3, r2
 2979 008c 7B61     		str	r3, [r7, #20]
1134:..\src/interruptions.c **** 
1135:..\src/interruptions.c ****     // =========================== POSITION INPUT ==============================            
1136:..\src/interruptions.c ****     switch(MOT->input_mode) {
 2980              		.loc 1 1136 0
 2981 008e 3B6D     		ldr	r3, [r7, #80]
 2982 0090 93F85E30 		ldrb	r3, [r3, #94]	@ zero_extendqisi2
 2983 0094 013B     		subs	r3, r3, #1
 2984 0096 042B     		cmp	r3, #4
 2985 0098 00F20482 		bhi	.L310
 2986 009c 01A2     		adr	r2, .L204
 2987 009e 52F823F0 		ldr	pc, [r2, r3, lsl #2]
 2988 00a2 00BF     		.p2align 2
 2989              	.L204:
 2990 00a4 B9000000 		.word	.L203+1
 2991 00a8 C5010000 		.word	.L205+1
 2992 00ac 0B020000 		.word	.L206+1
 2993 00b0 97020000 		.word	.L207+1
 2994 00b4 9D030000 		.word	.L208+1
 2995              		.p2align 1
 2996              	.L203:
1137:..\src/interruptions.c ****         case INPUT_MODE_ENCODER3:
1138:..\src/interruptions.c **** 
1139:..\src/interruptions.c ****             // Calculate handle value based on position of handle in the
1140:..\src/interruptions.c ****             // sensor chain and multiplication factor between handle and motor position
1141:..\src/interruptions.c ****             if (c_mem.enc[ENC_L].double_encoder_on_off) 
 2997              		.loc 1 1141 0
 2998 00b8 97F84F20 		ldrb	r2, [r7, #79]	@ zero_extendqisi2
 2999 00bc 8049     		ldr	r1, .L319
 3000 00be 1346     		mov	r3, r2
 3001 00c0 5B00     		lsls	r3, r3, #1
 3002 00c2 1344     		add	r3, r3, r2
 3003 00c4 1B01     		lsls	r3, r3, #4
 3004 00c6 0B44     		add	r3, r3, r1
 3005 00c8 03F5D873 		add	r3, r3, #432
 3006 00cc 1B78     		ldrb	r3, [r3]	@ zero_extendqisi2
 3007 00ce 002B     		cmp	r3, #0
 3008 00d0 1BD0     		beq	.L209
1142:..\src/interruptions.c ****                 handle_value = (g_meas[ENC_L].pos[2] * c_mem.enc[ENC_L].motor_handle_ratio) + MOT->
 3009              		.loc 1 1142 0
 3010 00d2 97F84F30 		ldrb	r3, [r7, #79]	@ zero_extendqisi2
 3011 00d6 7C4A     		ldr	r2, .L319+8
 3012 00d8 3421     		movs	r1, #52
 3013 00da 01FB03F3 		mul	r3, r1, r3
ARM GAS  C:\Users\Mattia\AppData\Local\Temp\ccUxgIpk.s 			page 75


 3014 00de 1344     		add	r3, r3, r2
 3015 00e0 0833     		adds	r3, r3, #8
 3016 00e2 1968     		ldr	r1, [r3]
 3017 00e4 97F84F20 		ldrb	r2, [r7, #79]	@ zero_extendqisi2
 3018 00e8 7548     		ldr	r0, .L319
 3019 00ea 1346     		mov	r3, r2
 3020 00ec 5B00     		lsls	r3, r3, #1
 3021 00ee 1344     		add	r3, r3, r2
 3022 00f0 1B01     		lsls	r3, r3, #4
 3023 00f2 0344     		add	r3, r3, r0
 3024 00f4 03F5DA73 		add	r3, r3, #436
 3025 00f8 93F90030 		ldrsb	r3, [r3]
 3026 00fc 03FB01F2 		mul	r2, r3, r1
 3027 0100 3B6D     		ldr	r3, [r7, #80]
 3028 0102 5B6B     		ldr	r3, [r3, #52]
 3029 0104 1344     		add	r3, r3, r2
 3030 0106 7B65     		str	r3, [r7, #84]
 3031 0108 1AE0     		b	.L210
 3032              	.L209:
1143:..\src/interruptions.c ****             else
1144:..\src/interruptions.c ****                 handle_value = (g_meas[ENC_L].pos[1] * c_mem.enc[ENC_L].motor_handle_ratio) + MOT->
 3033              		.loc 1 1144 0
 3034 010a 97F84F30 		ldrb	r3, [r7, #79]	@ zero_extendqisi2
 3035 010e 6E4A     		ldr	r2, .L319+8
 3036 0110 3421     		movs	r1, #52
 3037 0112 01FB03F3 		mul	r3, r1, r3
 3038 0116 1344     		add	r3, r3, r2
 3039 0118 0433     		adds	r3, r3, #4
 3040 011a 1968     		ldr	r1, [r3]
 3041 011c 97F84F20 		ldrb	r2, [r7, #79]	@ zero_extendqisi2
 3042 0120 6748     		ldr	r0, .L319
 3043 0122 1346     		mov	r3, r2
 3044 0124 5B00     		lsls	r3, r3, #1
 3045 0126 1344     		add	r3, r3, r2
 3046 0128 1B01     		lsls	r3, r3, #4
 3047 012a 0344     		add	r3, r3, r0
 3048 012c 03F5DA73 		add	r3, r3, #436
 3049 0130 93F90030 		ldrsb	r3, [r3]
 3050 0134 03FB01F2 		mul	r2, r3, r1
 3051 0138 3B6D     		ldr	r3, [r7, #80]
 3052 013a 5B6B     		ldr	r3, [r3, #52]
 3053 013c 1344     		add	r3, r3, r2
 3054 013e 7B65     		str	r3, [r7, #84]
 3055              	.L210:
1145:..\src/interruptions.c ****             
1146:..\src/interruptions.c **** 
1147:..\src/interruptions.c ****             // Read handle and use it as reference for the motor
1148:..\src/interruptions.c ****             if (((handle_value - g_refOld[idx].pos) > MOT->max_step_pos) && (MOT->max_step_pos != 0
 3056              		.loc 1 1148 0
 3057 0140 FB79     		ldrb	r3, [r7, #7]	@ zero_extendqisi2
 3058 0142 624A     		ldr	r2, .L319+12
 3059 0144 1B01     		lsls	r3, r3, #4
 3060 0146 1344     		add	r3, r3, r2
 3061 0148 1B68     		ldr	r3, [r3]
 3062 014a 7A6D     		ldr	r2, [r7, #84]
 3063 014c D21A     		subs	r2, r2, r3
 3064 014e 3B6D     		ldr	r3, [r7, #80]
ARM GAS  C:\Users\Mattia\AppData\Local\Temp\ccUxgIpk.s 			page 76


 3065 0150 1B6C     		ldr	r3, [r3, #64]
 3066 0152 9A42     		cmp	r2, r3
 3067 0154 11DD     		ble	.L211
 3068              		.loc 1 1148 0 is_stmt 0 discriminator 1
 3069 0156 3B6D     		ldr	r3, [r7, #80]
 3070 0158 1B6C     		ldr	r3, [r3, #64]
 3071 015a 002B     		cmp	r3, #0
 3072 015c 0DD0     		beq	.L211
1149:..\src/interruptions.c ****                 g_ref[idx].pos += MOT->max_step_pos;
 3073              		.loc 1 1149 0 is_stmt 1
 3074 015e FB79     		ldrb	r3, [r7, #7]	@ zero_extendqisi2
 3075 0160 FA79     		ldrb	r2, [r7, #7]	@ zero_extendqisi2
 3076 0162 5B49     		ldr	r1, .L319+16
 3077 0164 1201     		lsls	r2, r2, #4
 3078 0166 0A44     		add	r2, r2, r1
 3079 0168 1168     		ldr	r1, [r2]
 3080 016a 3A6D     		ldr	r2, [r7, #80]
 3081 016c 126C     		ldr	r2, [r2, #64]
 3082 016e 0A44     		add	r2, r2, r1
 3083 0170 5749     		ldr	r1, .L319+16
 3084 0172 1B01     		lsls	r3, r3, #4
 3085 0174 0B44     		add	r3, r3, r1
 3086 0176 1A60     		str	r2, [r3]
 3087 0178 23E0     		b	.L212
 3088              	.L211:
1150:..\src/interruptions.c ****             else {
1151:..\src/interruptions.c ****                 if (((handle_value - g_refOld[idx].pos) < MOT->max_step_neg) && (MOT->max_step_neg 
 3089              		.loc 1 1151 0
 3090 017a FB79     		ldrb	r3, [r7, #7]	@ zero_extendqisi2
 3091 017c 534A     		ldr	r2, .L319+12
 3092 017e 1B01     		lsls	r3, r3, #4
 3093 0180 1344     		add	r3, r3, r2
 3094 0182 1B68     		ldr	r3, [r3]
 3095 0184 7A6D     		ldr	r2, [r7, #84]
 3096 0186 D21A     		subs	r2, r2, r3
 3097 0188 3B6D     		ldr	r3, [r7, #80]
 3098 018a DB6B     		ldr	r3, [r3, #60]
 3099 018c 9A42     		cmp	r2, r3
 3100 018e 11DA     		bge	.L213
 3101              		.loc 1 1151 0 is_stmt 0 discriminator 1
 3102 0190 3B6D     		ldr	r3, [r7, #80]
 3103 0192 DB6B     		ldr	r3, [r3, #60]
 3104 0194 002B     		cmp	r3, #0
 3105 0196 0DD0     		beq	.L213
1152:..\src/interruptions.c ****                     g_ref[idx].pos += MOT->max_step_neg;
 3106              		.loc 1 1152 0 is_stmt 1
 3107 0198 FB79     		ldrb	r3, [r7, #7]	@ zero_extendqisi2
 3108 019a FA79     		ldrb	r2, [r7, #7]	@ zero_extendqisi2
 3109 019c 4C49     		ldr	r1, .L319+16
 3110 019e 1201     		lsls	r2, r2, #4
 3111 01a0 0A44     		add	r2, r2, r1
 3112 01a2 1168     		ldr	r1, [r2]
 3113 01a4 3A6D     		ldr	r2, [r7, #80]
 3114 01a6 D26B     		ldr	r2, [r2, #60]
 3115 01a8 0A44     		add	r2, r2, r1
 3116 01aa 4949     		ldr	r1, .L319+16
 3117 01ac 1B01     		lsls	r3, r3, #4
ARM GAS  C:\Users\Mattia\AppData\Local\Temp\ccUxgIpk.s 			page 77


 3118 01ae 0B44     		add	r3, r3, r1
 3119 01b0 1A60     		str	r2, [r3]
 3120 01b2 06E0     		b	.L212
 3121              	.L213:
1153:..\src/interruptions.c ****                 else
1154:..\src/interruptions.c ****                     g_ref[idx].pos = handle_value;
 3122              		.loc 1 1154 0
 3123 01b4 FB79     		ldrb	r3, [r7, #7]	@ zero_extendqisi2
 3124 01b6 464A     		ldr	r2, .L319+16
 3125 01b8 1B01     		lsls	r3, r3, #4
 3126 01ba 1344     		add	r3, r3, r2
 3127 01bc 7A6D     		ldr	r2, [r7, #84]
 3128 01be 1A60     		str	r2, [r3]
1155:..\src/interruptions.c ****             }
1156:..\src/interruptions.c ****             break;
 3129              		.loc 1 1156 0
 3130 01c0 73E1     		b	.L214
 3131              	.L212:
 3132 01c2 72E1     		b	.L214
 3133              	.L205:
1157:..\src/interruptions.c ****             
1158:..\src/interruptions.c ****         case INPUT_MODE_EMG_PROPORTIONAL:
1159:..\src/interruptions.c ****             if (err_emg_1 > 0)
 3134              		.loc 1 1159 0
 3135 01c4 BB69     		ldr	r3, [r7, #24]
 3136 01c6 002B     		cmp	r3, #0
 3137 01c8 18DD     		ble	.L215
1160:..\src/interruptions.c ****                 g_ref[idx].pos = (err_emg_1 * g_mem.motor[idx].pos_lim_sup) / (1024 - c_mem.emg.emg
 3138              		.loc 1 1160 0
 3139 01ca F979     		ldrb	r1, [r7, #7]	@ zero_extendqisi2
 3140 01cc FA79     		ldrb	r2, [r7, #7]	@ zero_extendqisi2
 3141 01ce 4148     		ldr	r0, .L319+20
 3142 01d0 1346     		mov	r3, r2
 3143 01d2 DB00     		lsls	r3, r3, #3
 3144 01d4 9B1A     		subs	r3, r3, r2
 3145 01d6 1B01     		lsls	r3, r3, #4
 3146 01d8 0344     		add	r3, r3, r0
 3147 01da E833     		adds	r3, r3, #232
 3148 01dc 1B68     		ldr	r3, [r3]
 3149 01de BA69     		ldr	r2, [r7, #24]
 3150 01e0 02FB03F2 		mul	r2, r2, r3
 3151 01e4 364B     		ldr	r3, .L319
 3152 01e6 B3F8F031 		ldrh	r3, [r3, #496]
 3153 01ea C3F58063 		rsb	r3, r3, #1024
 3154 01ee 92FBF3F2 		sdiv	r2, r2, r3
 3155 01f2 3748     		ldr	r0, .L319+16
 3156 01f4 0B01     		lsls	r3, r1, #4
 3157 01f6 0344     		add	r3, r3, r0
 3158 01f8 1A60     		str	r2, [r3]
1161:..\src/interruptions.c ****             else
1162:..\src/interruptions.c ****                 g_ref[idx].pos = 0;
1163:..\src/interruptions.c ****             break;
 3159              		.loc 1 1163 0
 3160 01fa 56E1     		b	.L214
 3161              	.L215:
1162:..\src/interruptions.c ****             break;
 3162              		.loc 1 1162 0
ARM GAS  C:\Users\Mattia\AppData\Local\Temp\ccUxgIpk.s 			page 78


 3163 01fc FB79     		ldrb	r3, [r7, #7]	@ zero_extendqisi2
 3164 01fe 344A     		ldr	r2, .L319+16
 3165 0200 1B01     		lsls	r3, r3, #4
 3166 0202 1344     		add	r3, r3, r2
 3167 0204 0022     		movs	r2, #0
 3168 0206 1A60     		str	r2, [r3]
 3169              		.loc 1 1163 0
 3170 0208 4FE1     		b	.L214
 3171              	.L206:
1164:..\src/interruptions.c **** 
1165:..\src/interruptions.c ****         case INPUT_MODE_EMG_INTEGRAL:
1166:..\src/interruptions.c ****             g_ref[idx].pos = g_refOld[idx].pos;
 3172              		.loc 1 1166 0
 3173 020a FB79     		ldrb	r3, [r7, #7]	@ zero_extendqisi2
 3174 020c FA79     		ldrb	r2, [r7, #7]	@ zero_extendqisi2
 3175 020e 2F49     		ldr	r1, .L319+12
 3176 0210 1201     		lsls	r2, r2, #4
 3177 0212 0A44     		add	r2, r2, r1
 3178 0214 1268     		ldr	r2, [r2]
 3179 0216 2E49     		ldr	r1, .L319+16
 3180 0218 1B01     		lsls	r3, r3, #4
 3181 021a 0B44     		add	r3, r3, r1
 3182 021c 1A60     		str	r2, [r3]
1167:..\src/interruptions.c ****             if (err_emg_1 > 0) {
 3183              		.loc 1 1167 0
 3184 021e BB69     		ldr	r3, [r7, #24]
 3185 0220 002B     		cmp	r3, #0
 3186 0222 19DD     		ble	.L217
1168:..\src/interruptions.c ****                 g_ref[idx].pos = g_refOld[idx].pos + (err_emg_1 * (int)g_mem.emg.emg_speed * 2) / (
 3187              		.loc 1 1168 0
 3188 0224 FB79     		ldrb	r3, [r7, #7]	@ zero_extendqisi2
 3189 0226 FA79     		ldrb	r2, [r7, #7]	@ zero_extendqisi2
 3190 0228 2849     		ldr	r1, .L319+12
 3191 022a 1201     		lsls	r2, r2, #4
 3192 022c 0A44     		add	r2, r2, r1
 3193 022e 1168     		ldr	r1, [r2]
 3194 0230 284A     		ldr	r2, .L319+20
 3195 0232 92F8FC21 		ldrb	r2, [r2, #508]	@ zero_extendqisi2
 3196 0236 1046     		mov	r0, r2
 3197 0238 BA69     		ldr	r2, [r7, #24]
 3198 023a 02FB00F2 		mul	r2, r2, r0
 3199 023e 5000     		lsls	r0, r2, #1
 3200 0240 1F4A     		ldr	r2, .L319
 3201 0242 B2F8F021 		ldrh	r2, [r2, #496]
 3202 0246 C2F58062 		rsb	r2, r2, #1024
 3203 024a 90FBF2F2 		sdiv	r2, r0, r2
 3204 024e 0A44     		add	r2, r2, r1
 3205 0250 1F49     		ldr	r1, .L319+16
 3206 0252 1B01     		lsls	r3, r3, #4
 3207 0254 0B44     		add	r3, r3, r1
 3208 0256 1A60     		str	r2, [r3]
 3209              	.L217:
1169:..\src/interruptions.c ****             }
1170:..\src/interruptions.c ****             if (err_emg_2 > 0) {
 3210              		.loc 1 1170 0
 3211 0258 7B69     		ldr	r3, [r7, #20]
 3212 025a 002B     		cmp	r3, #0
ARM GAS  C:\Users\Mattia\AppData\Local\Temp\ccUxgIpk.s 			page 79


 3213 025c 40F32481 		ble	.L311
1171:..\src/interruptions.c ****                 g_ref[idx].pos = g_refOld[idx].pos - (err_emg_2 * (int)g_mem.emg.emg_speed * 2) / (
 3214              		.loc 1 1171 0
 3215 0260 FB79     		ldrb	r3, [r7, #7]	@ zero_extendqisi2
 3216 0262 FA79     		ldrb	r2, [r7, #7]	@ zero_extendqisi2
 3217 0264 1949     		ldr	r1, .L319+12
 3218 0266 1201     		lsls	r2, r2, #4
 3219 0268 0A44     		add	r2, r2, r1
 3220 026a 1168     		ldr	r1, [r2]
 3221 026c 194A     		ldr	r2, .L319+20
 3222 026e 92F8FC21 		ldrb	r2, [r2, #508]	@ zero_extendqisi2
 3223 0272 1046     		mov	r0, r2
 3224 0274 7A69     		ldr	r2, [r7, #20]
 3225 0276 02FB00F2 		mul	r2, r2, r0
 3226 027a 5000     		lsls	r0, r2, #1
 3227 027c 104A     		ldr	r2, .L319
 3228 027e B2F8F221 		ldrh	r2, [r2, #498]
 3229 0282 C2F58062 		rsb	r2, r2, #1024
 3230 0286 90FBF2F2 		sdiv	r2, r0, r2
 3231 028a 8A1A     		subs	r2, r1, r2
 3232 028c 1049     		ldr	r1, .L319+16
 3233 028e 1B01     		lsls	r3, r3, #4
 3234 0290 0B44     		add	r3, r3, r1
 3235 0292 1A60     		str	r2, [r3]
1172:..\src/interruptions.c ****             }
1173:..\src/interruptions.c ****             break;
 3236              		.loc 1 1173 0
 3237 0294 08E1     		b	.L311
 3238              	.L207:
1174:..\src/interruptions.c **** 
1175:..\src/interruptions.c ****         case INPUT_MODE_EMG_FCFS:
1176:..\src/interruptions.c ****             g_ref[idx].pos = g_refOld[idx].pos;
 3239              		.loc 1 1176 0
 3240 0296 FB79     		ldrb	r3, [r7, #7]	@ zero_extendqisi2
 3241 0298 FA79     		ldrb	r2, [r7, #7]	@ zero_extendqisi2
 3242 029a 0C49     		ldr	r1, .L319+12
 3243 029c 1201     		lsls	r2, r2, #4
 3244 029e 0A44     		add	r2, r2, r1
 3245 02a0 1268     		ldr	r2, [r2]
 3246 02a2 0B49     		ldr	r1, .L319+16
 3247 02a4 1B01     		lsls	r3, r3, #4
 3248 02a6 0B44     		add	r3, r3, r1
 3249 02a8 1A60     		str	r2, [r3]
1177:..\src/interruptions.c ****             switch (current_emg[idx]) {
 3250              		.loc 1 1177 0
 3251 02aa FB79     		ldrb	r3, [r7, #7]	@ zero_extendqisi2
 3252 02ac 0A4A     		ldr	r2, .L319+24
 3253 02ae D35C     		ldrb	r3, [r2, r3]	@ zero_extendqisi2
 3254 02b0 012B     		cmp	r3, #1
 3255 02b2 2BD0     		beq	.L220
 3256 02b4 022B     		cmp	r3, #2
 3257 02b6 4CD0     		beq	.L221
 3258 02b8 002B     		cmp	r3, #0
 3259 02ba 0FD0     		beq	.L222
1178:..\src/interruptions.c ****                 case 0:
1179:..\src/interruptions.c ****                     // Look for the first EMG passing the threshold
1180:..\src/interruptions.c ****                     if (err_emg_1 > 0 && err_emg_1 > err_emg_2) {
ARM GAS  C:\Users\Mattia\AppData\Local\Temp\ccUxgIpk.s 			page 80


1181:..\src/interruptions.c ****                         current_emg[idx] = 1;
1182:..\src/interruptions.c ****                         break;
1183:..\src/interruptions.c ****                     }
1184:..\src/interruptions.c ****                     if (err_emg_2 > 0 && err_emg_2 > err_emg_1) {
1185:..\src/interruptions.c ****                         current_emg[idx] = 2;
1186:..\src/interruptions.c ****                         break;
1187:..\src/interruptions.c ****                     }
1188:..\src/interruptions.c ****                     break;
1189:..\src/interruptions.c **** 
1190:..\src/interruptions.c ****                 case 1:
1191:..\src/interruptions.c ****                     // EMG 1 is first
1192:..\src/interruptions.c ****                     if (err_emg_1 < 0) {
1193:..\src/interruptions.c ****                         current_emg[idx] = 0;
1194:..\src/interruptions.c ****                         break;
1195:..\src/interruptions.c ****                     }
1196:..\src/interruptions.c ****                     g_ref[idx].pos = g_refOld[idx].pos + (err_emg_1 * g_mem.emg.emg_speed << 2) / (
1197:..\src/interruptions.c ****                     break;
1198:..\src/interruptions.c **** 
1199:..\src/interruptions.c ****                 case 2:
1200:..\src/interruptions.c ****                     // EMG 2 is first
1201:..\src/interruptions.c ****                     if (err_emg_2 < 0) {
1202:..\src/interruptions.c ****                         current_emg[idx] = 0;
1203:..\src/interruptions.c ****                         break;
1204:..\src/interruptions.c ****                     }
1205:..\src/interruptions.c ****                     g_ref[idx].pos = g_refOld[idx].pos - (err_emg_2 * g_mem.emg.emg_speed << 2) / (
1206:..\src/interruptions.c ****                     break;
1207:..\src/interruptions.c **** 
1208:..\src/interruptions.c ****                 default:
1209:..\src/interruptions.c ****                     break;
 3260              		.loc 1 1209 0
 3261 02bc 6DE0     		b	.L224
 3262              	.L320:
 3263 02be 00BF     		.align	2
 3264              	.L319:
 3265 02c0 00000000 		.word	c_mem
 3266 02c4 00000000 		.word	g_emg_meas
 3267 02c8 00000000 		.word	g_meas
 3268 02cc 00000000 		.word	g_refOld
 3269 02d0 00000000 		.word	g_ref
 3270 02d4 00000000 		.word	g_mem
 3271 02d8 AC000000 		.word	current_emg.10500
 3272              	.L222:
1180:..\src/interruptions.c ****                         current_emg[idx] = 1;
 3273              		.loc 1 1180 0
 3274 02dc BB69     		ldr	r3, [r7, #24]
 3275 02de 002B     		cmp	r3, #0
 3276 02e0 08DD     		ble	.L223
1180:..\src/interruptions.c ****                         current_emg[idx] = 1;
 3277              		.loc 1 1180 0 is_stmt 0 discriminator 1
 3278 02e2 BA69     		ldr	r2, [r7, #24]
 3279 02e4 7B69     		ldr	r3, [r7, #20]
 3280 02e6 9A42     		cmp	r2, r3
 3281 02e8 04DD     		ble	.L223
1181:..\src/interruptions.c ****                         break;
 3282              		.loc 1 1181 0 is_stmt 1
 3283 02ea FB79     		ldrb	r3, [r7, #7]	@ zero_extendqisi2
 3284 02ec A14A     		ldr	r2, .L321
ARM GAS  C:\Users\Mattia\AppData\Local\Temp\ccUxgIpk.s 			page 81


 3285 02ee 0121     		movs	r1, #1
 3286 02f0 D154     		strb	r1, [r2, r3]
1182:..\src/interruptions.c ****                     }
 3287              		.loc 1 1182 0
 3288 02f2 52E0     		b	.L224
 3289              	.L223:
1184:..\src/interruptions.c ****                         current_emg[idx] = 2;
 3290              		.loc 1 1184 0
 3291 02f4 7B69     		ldr	r3, [r7, #20]
 3292 02f6 002B     		cmp	r3, #0
 3293 02f8 4EDD     		ble	.L312
1184:..\src/interruptions.c ****                         current_emg[idx] = 2;
 3294              		.loc 1 1184 0 is_stmt 0 discriminator 1
 3295 02fa 7A69     		ldr	r2, [r7, #20]
 3296 02fc BB69     		ldr	r3, [r7, #24]
 3297 02fe 9A42     		cmp	r2, r3
 3298 0300 4ADD     		ble	.L312
1185:..\src/interruptions.c ****                         break;
 3299              		.loc 1 1185 0 is_stmt 1
 3300 0302 FB79     		ldrb	r3, [r7, #7]	@ zero_extendqisi2
 3301 0304 9B4A     		ldr	r2, .L321
 3302 0306 0221     		movs	r1, #2
 3303 0308 D154     		strb	r1, [r2, r3]
1186:..\src/interruptions.c ****                     }
 3304              		.loc 1 1186 0
 3305 030a 46E0     		b	.L224
 3306              	.L220:
1192:..\src/interruptions.c ****                         current_emg[idx] = 0;
 3307              		.loc 1 1192 0
 3308 030c BB69     		ldr	r3, [r7, #24]
 3309 030e 002B     		cmp	r3, #0
 3310 0310 04DA     		bge	.L226
1193:..\src/interruptions.c ****                         break;
 3311              		.loc 1 1193 0
 3312 0312 FB79     		ldrb	r3, [r7, #7]	@ zero_extendqisi2
 3313 0314 974A     		ldr	r2, .L321
 3314 0316 0021     		movs	r1, #0
 3315 0318 D154     		strb	r1, [r2, r3]
1194:..\src/interruptions.c ****                     }
 3316              		.loc 1 1194 0
 3317 031a 3EE0     		b	.L224
 3318              	.L226:
1196:..\src/interruptions.c ****                     break;
 3319              		.loc 1 1196 0
 3320 031c FB79     		ldrb	r3, [r7, #7]	@ zero_extendqisi2
 3321 031e FA79     		ldrb	r2, [r7, #7]	@ zero_extendqisi2
 3322 0320 9549     		ldr	r1, .L321+4
 3323 0322 1201     		lsls	r2, r2, #4
 3324 0324 0A44     		add	r2, r2, r1
 3325 0326 1168     		ldr	r1, [r2]
 3326 0328 944A     		ldr	r2, .L321+8
 3327 032a 92F8FC21 		ldrb	r2, [r2, #508]	@ zero_extendqisi2
 3328 032e 1046     		mov	r0, r2
 3329 0330 BA69     		ldr	r2, [r7, #24]
 3330 0332 02FB00F2 		mul	r2, r2, r0
 3331 0336 9000     		lsls	r0, r2, #2
 3332 0338 914A     		ldr	r2, .L321+12
ARM GAS  C:\Users\Mattia\AppData\Local\Temp\ccUxgIpk.s 			page 82


 3333 033a B2F8F021 		ldrh	r2, [r2, #496]
 3334 033e C2F58062 		rsb	r2, r2, #1024
 3335 0342 90FBF2F2 		sdiv	r2, r0, r2
 3336 0346 0A44     		add	r2, r2, r1
 3337 0348 8E49     		ldr	r1, .L321+16
 3338 034a 1B01     		lsls	r3, r3, #4
 3339 034c 0B44     		add	r3, r3, r1
 3340 034e 1A60     		str	r2, [r3]
1197:..\src/interruptions.c **** 
 3341              		.loc 1 1197 0
 3342 0350 23E0     		b	.L224
 3343              	.L221:
1201:..\src/interruptions.c ****                         current_emg[idx] = 0;
 3344              		.loc 1 1201 0
 3345 0352 7B69     		ldr	r3, [r7, #20]
 3346 0354 002B     		cmp	r3, #0
 3347 0356 04DA     		bge	.L227
1202:..\src/interruptions.c ****                         break;
 3348              		.loc 1 1202 0
 3349 0358 FB79     		ldrb	r3, [r7, #7]	@ zero_extendqisi2
 3350 035a 864A     		ldr	r2, .L321
 3351 035c 0021     		movs	r1, #0
 3352 035e D154     		strb	r1, [r2, r3]
1203:..\src/interruptions.c ****                     }
 3353              		.loc 1 1203 0
 3354 0360 1BE0     		b	.L224
 3355              	.L227:
1205:..\src/interruptions.c ****                     break;
 3356              		.loc 1 1205 0
 3357 0362 FB79     		ldrb	r3, [r7, #7]	@ zero_extendqisi2
 3358 0364 FA79     		ldrb	r2, [r7, #7]	@ zero_extendqisi2
 3359 0366 8449     		ldr	r1, .L321+4
 3360 0368 1201     		lsls	r2, r2, #4
 3361 036a 0A44     		add	r2, r2, r1
 3362 036c 1168     		ldr	r1, [r2]
 3363 036e 834A     		ldr	r2, .L321+8
 3364 0370 92F8FC21 		ldrb	r2, [r2, #508]	@ zero_extendqisi2
 3365 0374 1046     		mov	r0, r2
 3366 0376 7A69     		ldr	r2, [r7, #20]
 3367 0378 02FB00F2 		mul	r2, r2, r0
 3368 037c 9000     		lsls	r0, r2, #2
 3369 037e 804A     		ldr	r2, .L321+12
 3370 0380 B2F8F221 		ldrh	r2, [r2, #498]
 3371 0384 C2F58062 		rsb	r2, r2, #1024
 3372 0388 90FBF2F2 		sdiv	r2, r0, r2
 3373 038c 8A1A     		subs	r2, r1, r2
 3374 038e 7D49     		ldr	r1, .L321+16
 3375 0390 1B01     		lsls	r3, r3, #4
 3376 0392 0B44     		add	r3, r3, r1
 3377 0394 1A60     		str	r2, [r3]
1206:..\src/interruptions.c **** 
 3378              		.loc 1 1206 0
 3379 0396 00E0     		b	.L224
 3380              	.L312:
1188:..\src/interruptions.c **** 
 3381              		.loc 1 1188 0
 3382 0398 00BF     		nop
ARM GAS  C:\Users\Mattia\AppData\Local\Temp\ccUxgIpk.s 			page 83


 3383              	.L224:
1210:..\src/interruptions.c ****             }
1211:..\src/interruptions.c ****             break;
 3384              		.loc 1 1211 0 discriminator 1
 3385 039a 86E0     		b	.L214
 3386              	.L208:
1212:..\src/interruptions.c **** 
1213:..\src/interruptions.c ****         case INPUT_MODE_EMG_FCFS_ADV:
1214:..\src/interruptions.c ****             g_ref[idx].pos = g_refOld[idx].pos;
 3387              		.loc 1 1214 0
 3388 039c FB79     		ldrb	r3, [r7, #7]	@ zero_extendqisi2
 3389 039e FA79     		ldrb	r2, [r7, #7]	@ zero_extendqisi2
 3390 03a0 7549     		ldr	r1, .L321+4
 3391 03a2 1201     		lsls	r2, r2, #4
 3392 03a4 0A44     		add	r2, r2, r1
 3393 03a6 1268     		ldr	r2, [r2]
 3394 03a8 7649     		ldr	r1, .L321+16
 3395 03aa 1B01     		lsls	r3, r3, #4
 3396 03ac 0B44     		add	r3, r3, r1
 3397 03ae 1A60     		str	r2, [r3]
1215:..\src/interruptions.c ****             switch (current_emg[idx]) {
 3398              		.loc 1 1215 0
 3399 03b0 FB79     		ldrb	r3, [r7, #7]	@ zero_extendqisi2
 3400 03b2 704A     		ldr	r2, .L321
 3401 03b4 D35C     		ldrb	r3, [r2, r3]	@ zero_extendqisi2
 3402 03b6 012B     		cmp	r3, #1
 3403 03b8 1CD0     		beq	.L229
 3404 03ba 022B     		cmp	r3, #2
 3405 03bc 43D0     		beq	.L230
 3406 03be 002B     		cmp	r3, #0
 3407 03c0 00D0     		beq	.L231
1216:..\src/interruptions.c ****                 // Look for the first EMG passing the threshold
1217:..\src/interruptions.c ****                 case 0:
1218:..\src/interruptions.c ****                     if (err_emg_1 > 0 && err_emg_1 > err_emg_2) {
1219:..\src/interruptions.c ****                         current_emg[idx] = 1;
1220:..\src/interruptions.c ****                         break;
1221:..\src/interruptions.c ****                     }
1222:..\src/interruptions.c ****                     if (err_emg_2 > 0 && err_emg_2 > err_emg_1) {
1223:..\src/interruptions.c ****                         current_emg[idx] = 2;
1224:..\src/interruptions.c ****                         break;
1225:..\src/interruptions.c ****                     }
1226:..\src/interruptions.c ****                     break;
1227:..\src/interruptions.c **** 
1228:..\src/interruptions.c ****                 // EMG 1 is first
1229:..\src/interruptions.c ****                 case 1:
1230:..\src/interruptions.c ****                     // If both signals are under threshold go back to status 0
1231:..\src/interruptions.c ****                     if ((err_emg_1 < 0) && (err_emg_2 < 0)) {
1232:..\src/interruptions.c ****                         current_emg[idx] = 0;
1233:..\src/interruptions.c ****                         break;
1234:..\src/interruptions.c ****                     }
1235:..\src/interruptions.c ****                     // but if the current signal come back over threshold, continue using it
1236:..\src/interruptions.c ****                     if (err_emg_1 > 0) 
1237:..\src/interruptions.c ****                         g_ref[idx].pos = g_refOld[idx].pos + (err_emg_1 * g_mem.emg.emg_speed << 2)
1238:..\src/interruptions.c ****                     
1239:..\src/interruptions.c ****                     break;
1240:..\src/interruptions.c **** 
1241:..\src/interruptions.c ****                 // EMG 2 is first
ARM GAS  C:\Users\Mattia\AppData\Local\Temp\ccUxgIpk.s 			page 84


1242:..\src/interruptions.c ****                 case 2:
1243:..\src/interruptions.c ****                     // If both signals are under threshold go back to status 0
1244:..\src/interruptions.c ****                     if ((err_emg_1 < 0) && (err_emg_2 < 0)) {
1245:..\src/interruptions.c ****                         current_emg[idx] = 0;
1246:..\src/interruptions.c ****                         break;
1247:..\src/interruptions.c ****                     }
1248:..\src/interruptions.c ****                     // but if the current signal come back over threshold, continue using it
1249:..\src/interruptions.c ****                     if (err_emg_2 > 0) {
1250:..\src/interruptions.c ****                         g_ref[idx].pos = g_refOld[idx].pos - (err_emg_2 * c_mem.emg.emg_speed << 2)
1251:..\src/interruptions.c ****                     }
1252:..\src/interruptions.c ****                     break;
1253:..\src/interruptions.c **** 
1254:..\src/interruptions.c ****                 default:
1255:..\src/interruptions.c ****                     break;
 3408              		.loc 1 1255 0
 3409 03c2 6EE0     		b	.L233
 3410              	.L231:
1218:..\src/interruptions.c ****                         current_emg[idx] = 1;
 3411              		.loc 1 1218 0
 3412 03c4 BB69     		ldr	r3, [r7, #24]
 3413 03c6 002B     		cmp	r3, #0
 3414 03c8 08DD     		ble	.L232
1218:..\src/interruptions.c ****                         current_emg[idx] = 1;
 3415              		.loc 1 1218 0 is_stmt 0 discriminator 1
 3416 03ca BA69     		ldr	r2, [r7, #24]
 3417 03cc 7B69     		ldr	r3, [r7, #20]
 3418 03ce 9A42     		cmp	r2, r3
 3419 03d0 04DD     		ble	.L232
1219:..\src/interruptions.c ****                         break;
 3420              		.loc 1 1219 0 is_stmt 1
 3421 03d2 FB79     		ldrb	r3, [r7, #7]	@ zero_extendqisi2
 3422 03d4 674A     		ldr	r2, .L321
 3423 03d6 0121     		movs	r1, #1
 3424 03d8 D154     		strb	r1, [r2, r3]
1220:..\src/interruptions.c ****                     }
 3425              		.loc 1 1220 0
 3426 03da 62E0     		b	.L233
 3427              	.L232:
1222:..\src/interruptions.c ****                         current_emg[idx] = 2;
 3428              		.loc 1 1222 0
 3429 03dc 7B69     		ldr	r3, [r7, #20]
 3430 03de 002B     		cmp	r3, #0
 3431 03e0 5ADD     		ble	.L313
1222:..\src/interruptions.c ****                         current_emg[idx] = 2;
 3432              		.loc 1 1222 0 is_stmt 0 discriminator 1
 3433 03e2 7A69     		ldr	r2, [r7, #20]
 3434 03e4 BB69     		ldr	r3, [r7, #24]
 3435 03e6 9A42     		cmp	r2, r3
 3436 03e8 56DD     		ble	.L313
1223:..\src/interruptions.c ****                         break;
 3437              		.loc 1 1223 0 is_stmt 1
 3438 03ea FB79     		ldrb	r3, [r7, #7]	@ zero_extendqisi2
 3439 03ec 614A     		ldr	r2, .L321
 3440 03ee 0221     		movs	r1, #2
 3441 03f0 D154     		strb	r1, [r2, r3]
1224:..\src/interruptions.c ****                     }
 3442              		.loc 1 1224 0
ARM GAS  C:\Users\Mattia\AppData\Local\Temp\ccUxgIpk.s 			page 85


 3443 03f2 56E0     		b	.L233
 3444              	.L229:
1231:..\src/interruptions.c ****                         current_emg[idx] = 0;
 3445              		.loc 1 1231 0
 3446 03f4 BB69     		ldr	r3, [r7, #24]
 3447 03f6 002B     		cmp	r3, #0
 3448 03f8 07DA     		bge	.L235
1231:..\src/interruptions.c ****                         current_emg[idx] = 0;
 3449              		.loc 1 1231 0 is_stmt 0 discriminator 1
 3450 03fa 7B69     		ldr	r3, [r7, #20]
 3451 03fc 002B     		cmp	r3, #0
 3452 03fe 04DA     		bge	.L235
1232:..\src/interruptions.c ****                         break;
 3453              		.loc 1 1232 0 is_stmt 1
 3454 0400 FB79     		ldrb	r3, [r7, #7]	@ zero_extendqisi2
 3455 0402 5C4A     		ldr	r2, .L321
 3456 0404 0021     		movs	r1, #0
 3457 0406 D154     		strb	r1, [r2, r3]
1233:..\src/interruptions.c ****                     }
 3458              		.loc 1 1233 0
 3459 0408 4BE0     		b	.L233
 3460              	.L235:
1236:..\src/interruptions.c ****                         g_ref[idx].pos = g_refOld[idx].pos + (err_emg_1 * g_mem.emg.emg_speed << 2)
 3461              		.loc 1 1236 0
 3462 040a BB69     		ldr	r3, [r7, #24]
 3463 040c 002B     		cmp	r3, #0
 3464 040e 45DD     		ble	.L314
1237:..\src/interruptions.c ****                     
 3465              		.loc 1 1237 0
 3466 0410 FB79     		ldrb	r3, [r7, #7]	@ zero_extendqisi2
 3467 0412 FA79     		ldrb	r2, [r7, #7]	@ zero_extendqisi2
 3468 0414 5849     		ldr	r1, .L321+4
 3469 0416 1201     		lsls	r2, r2, #4
 3470 0418 0A44     		add	r2, r2, r1
 3471 041a 1168     		ldr	r1, [r2]
 3472 041c 574A     		ldr	r2, .L321+8
 3473 041e 92F8FC21 		ldrb	r2, [r2, #508]	@ zero_extendqisi2
 3474 0422 1046     		mov	r0, r2
 3475 0424 BA69     		ldr	r2, [r7, #24]
 3476 0426 02FB00F2 		mul	r2, r2, r0
 3477 042a 9000     		lsls	r0, r2, #2
 3478 042c 544A     		ldr	r2, .L321+12
 3479 042e B2F8F021 		ldrh	r2, [r2, #496]
 3480 0432 C2F58062 		rsb	r2, r2, #1024
 3481 0436 90FBF2F2 		sdiv	r2, r0, r2
 3482 043a 0A44     		add	r2, r2, r1
 3483 043c 5149     		ldr	r1, .L321+16
 3484 043e 1B01     		lsls	r3, r3, #4
 3485 0440 0B44     		add	r3, r3, r1
 3486 0442 1A60     		str	r2, [r3]
1239:..\src/interruptions.c **** 
 3487              		.loc 1 1239 0
 3488 0444 2AE0     		b	.L314
 3489              	.L230:
1244:..\src/interruptions.c ****                         current_emg[idx] = 0;
 3490              		.loc 1 1244 0
 3491 0446 BB69     		ldr	r3, [r7, #24]
ARM GAS  C:\Users\Mattia\AppData\Local\Temp\ccUxgIpk.s 			page 86


 3492 0448 002B     		cmp	r3, #0
 3493 044a 07DA     		bge	.L237
1244:..\src/interruptions.c ****                         current_emg[idx] = 0;
 3494              		.loc 1 1244 0 is_stmt 0 discriminator 1
 3495 044c 7B69     		ldr	r3, [r7, #20]
 3496 044e 002B     		cmp	r3, #0
 3497 0450 04DA     		bge	.L237
1245:..\src/interruptions.c ****                         break;
 3498              		.loc 1 1245 0 is_stmt 1
 3499 0452 FB79     		ldrb	r3, [r7, #7]	@ zero_extendqisi2
 3500 0454 474A     		ldr	r2, .L321
 3501 0456 0021     		movs	r1, #0
 3502 0458 D154     		strb	r1, [r2, r3]
1246:..\src/interruptions.c ****                     }
 3503              		.loc 1 1246 0
 3504 045a 22E0     		b	.L233
 3505              	.L237:
1249:..\src/interruptions.c ****                         g_ref[idx].pos = g_refOld[idx].pos - (err_emg_2 * c_mem.emg.emg_speed << 2)
 3506              		.loc 1 1249 0
 3507 045c 7B69     		ldr	r3, [r7, #20]
 3508 045e 002B     		cmp	r3, #0
 3509 0460 1EDD     		ble	.L315
1250:..\src/interruptions.c ****                     }
 3510              		.loc 1 1250 0
 3511 0462 FB79     		ldrb	r3, [r7, #7]	@ zero_extendqisi2
 3512 0464 FA79     		ldrb	r2, [r7, #7]	@ zero_extendqisi2
 3513 0466 4449     		ldr	r1, .L321+4
 3514 0468 1201     		lsls	r2, r2, #4
 3515 046a 0A44     		add	r2, r2, r1
 3516 046c 1168     		ldr	r1, [r2]
 3517 046e 444A     		ldr	r2, .L321+12
 3518 0470 92F8FC21 		ldrb	r2, [r2, #508]	@ zero_extendqisi2
 3519 0474 1046     		mov	r0, r2
 3520 0476 7A69     		ldr	r2, [r7, #20]
 3521 0478 02FB00F2 		mul	r2, r2, r0
 3522 047c 9000     		lsls	r0, r2, #2
 3523 047e 404A     		ldr	r2, .L321+12
 3524 0480 B2F8F221 		ldrh	r2, [r2, #498]
 3525 0484 C2F58062 		rsb	r2, r2, #1024
 3526 0488 90FBF2F2 		sdiv	r2, r0, r2
 3527 048c 8A1A     		subs	r2, r1, r2
 3528 048e 3D49     		ldr	r1, .L321+16
 3529 0490 1B01     		lsls	r3, r3, #4
 3530 0492 0B44     		add	r3, r3, r1
 3531 0494 1A60     		str	r2, [r3]
1252:..\src/interruptions.c **** 
 3532              		.loc 1 1252 0
 3533 0496 03E0     		b	.L315
 3534              	.L313:
1226:..\src/interruptions.c **** 
 3535              		.loc 1 1226 0
 3536 0498 00BF     		nop
 3537 049a 06E0     		b	.L214
 3538              	.L314:
1239:..\src/interruptions.c **** 
 3539              		.loc 1 1239 0
 3540 049c 00BF     		nop
ARM GAS  C:\Users\Mattia\AppData\Local\Temp\ccUxgIpk.s 			page 87


 3541 049e 04E0     		b	.L214
 3542              	.L315:
1252:..\src/interruptions.c **** 
 3543              		.loc 1 1252 0
 3544 04a0 00BF     		nop
 3545              	.L233:
1256:..\src/interruptions.c ****             }
1257:..\src/interruptions.c ****             break;
 3546              		.loc 1 1257 0 discriminator 3
 3547 04a2 02E0     		b	.L214
 3548              	.L310:
1258:..\src/interruptions.c **** 
1259:..\src/interruptions.c ****         default:
1260:..\src/interruptions.c ****             break;
 3549              		.loc 1 1260 0
 3550 04a4 00BF     		nop
 3551 04a6 00E0     		b	.L214
 3552              	.L311:
1173:..\src/interruptions.c **** 
 3553              		.loc 1 1173 0
 3554 04a8 00BF     		nop
 3555              	.L214:
1261:..\src/interruptions.c ****     }
1262:..\src/interruptions.c **** 
1263:..\src/interruptions.c ****     // Position limit saturation
1264:..\src/interruptions.c ****     if (MOT->pos_lim_flag) {
 3556              		.loc 1 1264 0
 3557 04aa 3B6D     		ldr	r3, [r7, #80]
 3558 04ac 93F83330 		ldrb	r3, [r3, #51]	@ zero_extendqisi2
 3559 04b0 002B     		cmp	r3, #0
 3560 04b2 1FD0     		beq	.L239
1265:..\src/interruptions.c ****         if (g_ref[idx].pos < MOT->pos_lim_inf) 
 3561              		.loc 1 1265 0
 3562 04b4 FB79     		ldrb	r3, [r7, #7]	@ zero_extendqisi2
 3563 04b6 334A     		ldr	r2, .L321+16
 3564 04b8 1B01     		lsls	r3, r3, #4
 3565 04ba 1344     		add	r3, r3, r2
 3566 04bc 1A68     		ldr	r2, [r3]
 3567 04be 3B6D     		ldr	r3, [r7, #80]
 3568 04c0 5B6B     		ldr	r3, [r3, #52]
 3569 04c2 9A42     		cmp	r2, r3
 3570 04c4 06DA     		bge	.L240
1266:..\src/interruptions.c ****             g_ref[idx].pos = MOT->pos_lim_inf;
 3571              		.loc 1 1266 0
 3572 04c6 FB79     		ldrb	r3, [r7, #7]	@ zero_extendqisi2
 3573 04c8 3A6D     		ldr	r2, [r7, #80]
 3574 04ca 526B     		ldr	r2, [r2, #52]
 3575 04cc 2D49     		ldr	r1, .L321+16
 3576 04ce 1B01     		lsls	r3, r3, #4
 3577 04d0 0B44     		add	r3, r3, r1
 3578 04d2 1A60     		str	r2, [r3]
 3579              	.L240:
1267:..\src/interruptions.c ****         if (g_ref[idx].pos > MOT->pos_lim_sup) 
 3580              		.loc 1 1267 0
 3581 04d4 FB79     		ldrb	r3, [r7, #7]	@ zero_extendqisi2
 3582 04d6 2B4A     		ldr	r2, .L321+16
 3583 04d8 1B01     		lsls	r3, r3, #4
ARM GAS  C:\Users\Mattia\AppData\Local\Temp\ccUxgIpk.s 			page 88


 3584 04da 1344     		add	r3, r3, r2
 3585 04dc 1A68     		ldr	r2, [r3]
 3586 04de 3B6D     		ldr	r3, [r7, #80]
 3587 04e0 9B6B     		ldr	r3, [r3, #56]
 3588 04e2 9A42     		cmp	r2, r3
 3589 04e4 06DD     		ble	.L239
1268:..\src/interruptions.c ****             g_ref[idx].pos = MOT->pos_lim_sup;
 3590              		.loc 1 1268 0
 3591 04e6 FB79     		ldrb	r3, [r7, #7]	@ zero_extendqisi2
 3592 04e8 3A6D     		ldr	r2, [r7, #80]
 3593 04ea 926B     		ldr	r2, [r2, #56]
 3594 04ec 2549     		ldr	r1, .L321+16
 3595 04ee 1B01     		lsls	r3, r3, #4
 3596 04f0 0B44     		add	r3, r3, r1
 3597 04f2 1A60     		str	r2, [r3]
 3598              	.L239:
1269:..\src/interruptions.c ****     }
1270:..\src/interruptions.c ****     
1271:..\src/interruptions.c ****     // SAFETY
1272:..\src/interruptions.c ****     if (battery_low_SoC == TRUE) {
 3599              		.loc 1 1272 0
 3600 04f4 244B     		ldr	r3, .L321+20
 3601 04f6 1B78     		ldrb	r3, [r3]	@ zero_extendqisi2
 3602 04f8 012B     		cmp	r3, #1
 3603 04fa 05D1     		bne	.L241
1273:..\src/interruptions.c ****         //Reopen the terminal device before disabling motor
1274:..\src/interruptions.c ****         g_ref[idx].pos = 0;
 3604              		.loc 1 1274 0
 3605 04fc FB79     		ldrb	r3, [r7, #7]	@ zero_extendqisi2
 3606 04fe 214A     		ldr	r2, .L321+16
 3607 0500 1B01     		lsls	r3, r3, #4
 3608 0502 1344     		add	r3, r3, r2
 3609 0504 0022     		movs	r2, #0
 3610 0506 1A60     		str	r2, [r3]
 3611              	.L241:
1275:..\src/interruptions.c ****     }        
1276:..\src/interruptions.c **** 
1277:..\src/interruptions.c ****     switch(MOT->control_mode) {
 3612              		.loc 1 1277 0
 3613 0508 3B6D     		ldr	r3, [r7, #80]
 3614 050a 93F85F30 		ldrb	r3, [r3, #95]	@ zero_extendqisi2
 3615 050e 032B     		cmp	r3, #3
 3616 0510 00F24F82 		bhi	.L242
 3617 0514 01A2     		adr	r2, .L244
 3618 0516 52F823F0 		ldr	pc, [r2, r3, lsl #2]
 3619 051a 00BF     		.p2align 2
 3620              	.L244:
 3621 051c 33070000 		.word	.L243+1
 3622 0520 6B090000 		.word	.L245+1
 3623 0524 39080000 		.word	.L246+1
 3624 0528 2D050000 		.word	.L247+1
 3625              		.p2align 1
 3626              	.L247:
1278:..\src/interruptions.c ****         // ======================= CURRENT AND POSITION CONTROL =======================
1279:..\src/interruptions.c ****         case CURR_AND_POS_CONTROL:
1280:..\src/interruptions.c ****             pos_error = g_ref[0].pos - g_meas[ENC_L].pos[0];
 3627              		.loc 1 1280 0
ARM GAS  C:\Users\Mattia\AppData\Local\Temp\ccUxgIpk.s 			page 89


 3628 052c 154B     		ldr	r3, .L321+16
 3629 052e 1A68     		ldr	r2, [r3]
 3630 0530 97F84F30 		ldrb	r3, [r7, #79]	@ zero_extendqisi2
 3631 0534 1549     		ldr	r1, .L321+24
 3632 0536 3420     		movs	r0, #52
 3633 0538 00FB03F3 		mul	r3, r0, r3
 3634 053c 0B44     		add	r3, r3, r1
 3635 053e 1B68     		ldr	r3, [r3]
 3636 0540 D31A     		subs	r3, r2, r3
 3637 0542 3B61     		str	r3, [r7, #16]
1281:..\src/interruptions.c **** 
1282:..\src/interruptions.c ****             pos_error_sum[idx] += pos_error;
 3638              		.loc 1 1282 0
 3639 0544 FB79     		ldrb	r3, [r7, #7]	@ zero_extendqisi2
 3640 0546 FA79     		ldrb	r2, [r7, #7]	@ zero_extendqisi2
 3641 0548 1149     		ldr	r1, .L321+28
 3642 054a 51F82210 		ldr	r1, [r1, r2, lsl #2]
 3643 054e 3A69     		ldr	r2, [r7, #16]
 3644 0550 0A44     		add	r2, r2, r1
 3645 0552 0F49     		ldr	r1, .L321+28
 3646 0554 41F82320 		str	r2, [r1, r3, lsl #2]
1283:..\src/interruptions.c **** 
1284:..\src/interruptions.c ****             // error_sum saturation
1285:..\src/interruptions.c ****             if (pos_error_sum[idx] > POS_INTEGRAL_SAT_LIMIT)
 3647              		.loc 1 1285 0
 3648 0558 FB79     		ldrb	r3, [r7, #7]	@ zero_extendqisi2
 3649 055a 0D4A     		ldr	r2, .L321+28
 3650 055c 52F82330 		ldr	r3, [r2, r3, lsl #2]
 3651 0560 0C4A     		ldr	r2, .L321+32
 3652 0562 9342     		cmp	r3, r2
 3653 0564 18DD     		ble	.L248
1286:..\src/interruptions.c ****                 pos_error_sum[idx] = POS_INTEGRAL_SAT_LIMIT;
 3654              		.loc 1 1286 0
 3655 0566 FB79     		ldrb	r3, [r7, #7]	@ zero_extendqisi2
 3656 0568 094A     		ldr	r2, .L321+28
 3657 056a 0A49     		ldr	r1, .L321+32
 3658 056c 42F82310 		str	r1, [r2, r3, lsl #2]
 3659 0570 1EE0     		b	.L249
 3660              	.L322:
 3661 0572 00BF     		.align	2
 3662              	.L321:
 3663 0574 AC000000 		.word	current_emg.10500
 3664 0578 00000000 		.word	g_refOld
 3665 057c 00000000 		.word	g_mem
 3666 0580 00000000 		.word	c_mem
 3667 0584 00000000 		.word	g_ref
 3668 0588 00000000 		.word	battery_low_SoC
 3669 058c 00000000 		.word	g_meas
 3670 0590 B0000000 		.word	pos_error_sum.10493
 3671 0594 80F0FA02 		.word	50000000
 3672              	.L248:
1287:..\src/interruptions.c ****             else {
1288:..\src/interruptions.c ****                 if (pos_error_sum[idx] < -POS_INTEGRAL_SAT_LIMIT) 
 3673              		.loc 1 1288 0
 3674 0598 FB79     		ldrb	r3, [r7, #7]	@ zero_extendqisi2
 3675 059a 9C4A     		ldr	r2, .L323
 3676 059c 52F82330 		ldr	r3, [r2, r3, lsl #2]
ARM GAS  C:\Users\Mattia\AppData\Local\Temp\ccUxgIpk.s 			page 90


 3677 05a0 9B4A     		ldr	r2, .L323+4
 3678 05a2 9342     		cmp	r3, r2
 3679 05a4 04DA     		bge	.L249
1289:..\src/interruptions.c ****                     pos_error_sum[idx] = -POS_INTEGRAL_SAT_LIMIT;
 3680              		.loc 1 1289 0
 3681 05a6 FB79     		ldrb	r3, [r7, #7]	@ zero_extendqisi2
 3682 05a8 984A     		ldr	r2, .L323
 3683 05aa 9949     		ldr	r1, .L323+4
 3684 05ac 42F82310 		str	r1, [r2, r3, lsl #2]
 3685              	.L249:
1290:..\src/interruptions.c ****             }
1291:..\src/interruptions.c ****             
1292:..\src/interruptions.c ****             // ------ position PID control ------
1293:..\src/interruptions.c **** 
1294:..\src/interruptions.c ****             i_ref = 0;
 3686              		.loc 1 1294 0
 3687 05b0 0023     		movs	r3, #0
 3688 05b2 BB65     		str	r3, [r7, #88]
1295:..\src/interruptions.c ****             
1296:..\src/interruptions.c ****             // Proportional
1297:..\src/interruptions.c ****             if (k_p_dl != 0)
 3689              		.loc 1 1297 0
 3690 05b4 3B6B     		ldr	r3, [r7, #48]
 3691 05b6 002B     		cmp	r3, #0
 3692 05b8 07D0     		beq	.L250
1298:..\src/interruptions.c ****                 i_ref += (int32)(k_p_dl * pos_error) >> 16;
 3693              		.loc 1 1298 0
 3694 05ba 3B6B     		ldr	r3, [r7, #48]
 3695 05bc 3A69     		ldr	r2, [r7, #16]
 3696 05be 02FB03F3 		mul	r3, r2, r3
 3697 05c2 1B14     		asrs	r3, r3, #16
 3698 05c4 BA6D     		ldr	r2, [r7, #88]
 3699 05c6 1344     		add	r3, r3, r2
 3700 05c8 BB65     		str	r3, [r7, #88]
 3701              	.L250:
1299:..\src/interruptions.c **** 
1300:..\src/interruptions.c ****             // Integral
1301:..\src/interruptions.c ****             if (k_i_dl != 0)
 3702              		.loc 1 1301 0
 3703 05ca FB6A     		ldr	r3, [r7, #44]
 3704 05cc 002B     		cmp	r3, #0
 3705 05ce 0AD0     		beq	.L251
1302:..\src/interruptions.c ****                 i_ref += (int32)(k_i_dl * pos_error_sum[idx]) >> 16;
 3706              		.loc 1 1302 0
 3707 05d0 FB79     		ldrb	r3, [r7, #7]	@ zero_extendqisi2
 3708 05d2 8E4A     		ldr	r2, .L323
 3709 05d4 52F82330 		ldr	r3, [r2, r3, lsl #2]
 3710 05d8 FA6A     		ldr	r2, [r7, #44]
 3711 05da 02FB03F3 		mul	r3, r2, r3
 3712 05de 1B14     		asrs	r3, r3, #16
 3713 05e0 BA6D     		ldr	r2, [r7, #88]
 3714 05e2 1344     		add	r3, r3, r2
 3715 05e4 BB65     		str	r3, [r7, #88]
 3716              	.L251:
1303:..\src/interruptions.c **** 
1304:..\src/interruptions.c ****             // Derivative
1305:..\src/interruptions.c ****             if (k_d_dl != 0)
ARM GAS  C:\Users\Mattia\AppData\Local\Temp\ccUxgIpk.s 			page 91


 3717              		.loc 1 1305 0
 3718 05e6 BB6A     		ldr	r3, [r7, #40]
 3719 05e8 002B     		cmp	r3, #0
 3720 05ea 0CD0     		beq	.L252
1306:..\src/interruptions.c ****                 i_ref += (int32)(k_d_dl * (pos_error - prev_pos_err[idx])) >> 16;
 3721              		.loc 1 1306 0
 3722 05ec FB79     		ldrb	r3, [r7, #7]	@ zero_extendqisi2
 3723 05ee 894A     		ldr	r2, .L323+8
 3724 05f0 52F82330 		ldr	r3, [r2, r3, lsl #2]
 3725 05f4 3A69     		ldr	r2, [r7, #16]
 3726 05f6 D31A     		subs	r3, r2, r3
 3727 05f8 BA6A     		ldr	r2, [r7, #40]
 3728 05fa 02FB03F3 		mul	r3, r2, r3
 3729 05fe 1B14     		asrs	r3, r3, #16
 3730 0600 BA6D     		ldr	r2, [r7, #88]
 3731 0602 1344     		add	r3, r3, r2
 3732 0604 BB65     		str	r3, [r7, #88]
 3733              	.L252:
1307:..\src/interruptions.c ****                         
1308:..\src/interruptions.c ****             // Update previous position
1309:..\src/interruptions.c ****             prev_pos_err[idx] = pos_error;
 3734              		.loc 1 1309 0
 3735 0606 FB79     		ldrb	r3, [r7, #7]	@ zero_extendqisi2
 3736 0608 8249     		ldr	r1, .L323+8
 3737 060a 3A69     		ldr	r2, [r7, #16]
 3738 060c 41F82320 		str	r2, [r1, r3, lsl #2]
1310:..\src/interruptions.c **** 
1311:..\src/interruptions.c ****             // motor direction depends on i_ref
1312:..\src/interruptions.c ****             if (i_ref >= 0)
 3739              		.loc 1 1312 0
 3740 0610 BB6D     		ldr	r3, [r7, #88]
 3741 0612 002B     		cmp	r3, #0
 3742 0614 04DB     		blt	.L253
1313:..\src/interruptions.c ****                 motor_dir[idx] = TRUE;
 3743              		.loc 1 1313 0
 3744 0616 FB79     		ldrb	r3, [r7, #7]	@ zero_extendqisi2
 3745 0618 7F4A     		ldr	r2, .L323+12
 3746 061a 0121     		movs	r1, #1
 3747 061c D154     		strb	r1, [r2, r3]
 3748 061e 03E0     		b	.L254
 3749              	.L253:
1314:..\src/interruptions.c ****             else
1315:..\src/interruptions.c ****                 motor_dir[idx] = FALSE;
 3750              		.loc 1 1315 0
 3751 0620 FB79     		ldrb	r3, [r7, #7]	@ zero_extendqisi2
 3752 0622 7D4A     		ldr	r2, .L323+12
 3753 0624 0021     		movs	r1, #0
 3754 0626 D154     		strb	r1, [r2, r3]
 3755              	.L254:
1316:..\src/interruptions.c **** 
1317:..\src/interruptions.c ****             // saturate max current
1318:..\src/interruptions.c ****             if (i_ref > MOT->current_limit)
 3756              		.loc 1 1318 0
 3757 0628 3B6D     		ldr	r3, [r7, #80]
 3758 062a B3F95C30 		ldrsh	r3, [r3, #92]
 3759 062e 1A46     		mov	r2, r3
 3760 0630 BB6D     		ldr	r3, [r7, #88]
ARM GAS  C:\Users\Mattia\AppData\Local\Temp\ccUxgIpk.s 			page 92


 3761 0632 9A42     		cmp	r2, r3
 3762 0634 04DA     		bge	.L255
1319:..\src/interruptions.c ****                 i_ref = MOT->current_limit;
 3763              		.loc 1 1319 0
 3764 0636 3B6D     		ldr	r3, [r7, #80]
 3765 0638 B3F95C30 		ldrsh	r3, [r3, #92]
 3766 063c BB65     		str	r3, [r7, #88]
 3767 063e 0BE0     		b	.L256
 3768              	.L255:
1320:..\src/interruptions.c ****             else {
1321:..\src/interruptions.c ****                 if (i_ref < -MOT->current_limit)
 3769              		.loc 1 1321 0
 3770 0640 3B6D     		ldr	r3, [r7, #80]
 3771 0642 B3F95C30 		ldrsh	r3, [r3, #92]
 3772 0646 5A42     		negs	r2, r3
 3773 0648 BB6D     		ldr	r3, [r7, #88]
 3774 064a 9A42     		cmp	r2, r3
 3775 064c 04DD     		ble	.L256
1322:..\src/interruptions.c ****                     i_ref = -MOT->current_limit;
 3776              		.loc 1 1322 0
 3777 064e 3B6D     		ldr	r3, [r7, #80]
 3778 0650 B3F95C30 		ldrsh	r3, [r3, #92]
 3779 0654 5B42     		negs	r3, r3
 3780 0656 BB65     		str	r3, [r7, #88]
 3781              	.L256:
1323:..\src/interruptions.c ****         	}
1324:..\src/interruptions.c **** 
1325:..\src/interruptions.c ****             // current error and curr error sum
1326:..\src/interruptions.c ****             curr_error = i_ref - g_meas[ENC_L].curr;
 3782              		.loc 1 1326 0
 3783 0658 97F84F30 		ldrb	r3, [r7, #79]	@ zero_extendqisi2
 3784 065c 6F4A     		ldr	r2, .L323+16
 3785 065e 3421     		movs	r1, #52
 3786 0660 01FB03F3 		mul	r3, r1, r3
 3787 0664 1344     		add	r3, r3, r2
 3788 0666 0C33     		adds	r3, r3, #12
 3789 0668 1B68     		ldr	r3, [r3]
 3790 066a BA6D     		ldr	r2, [r7, #88]
 3791 066c D31A     		subs	r3, r2, r3
 3792 066e FB60     		str	r3, [r7, #12]
1327:..\src/interruptions.c ****             curr_error_sum[idx] += curr_error;
 3793              		.loc 1 1327 0
 3794 0670 FB79     		ldrb	r3, [r7, #7]	@ zero_extendqisi2
 3795 0672 FA79     		ldrb	r2, [r7, #7]	@ zero_extendqisi2
 3796 0674 6A49     		ldr	r1, .L323+20
 3797 0676 51F82210 		ldr	r1, [r1, r2, lsl #2]
 3798 067a FA68     		ldr	r2, [r7, #12]
 3799 067c 0A44     		add	r2, r2, r1
 3800 067e 6849     		ldr	r1, .L323+20
 3801 0680 41F82320 		str	r2, [r1, r3, lsl #2]
1328:..\src/interruptions.c ****             
1329:..\src/interruptions.c ****             if (curr_error_sum[idx] > CURR_INTEGRAL_SAT_LIMIT)
 3802              		.loc 1 1329 0
 3803 0684 FB79     		ldrb	r3, [r7, #7]	@ zero_extendqisi2
 3804 0686 664A     		ldr	r2, .L323+20
 3805 0688 52F82330 		ldr	r3, [r2, r3, lsl #2]
 3806 068c 654A     		ldr	r2, .L323+24
ARM GAS  C:\Users\Mattia\AppData\Local\Temp\ccUxgIpk.s 			page 93


 3807 068e 9342     		cmp	r3, r2
 3808 0690 05DD     		ble	.L257
1330:..\src/interruptions.c ****                 curr_error_sum[idx] = CURR_INTEGRAL_SAT_LIMIT;
 3809              		.loc 1 1330 0
 3810 0692 FB79     		ldrb	r3, [r7, #7]	@ zero_extendqisi2
 3811 0694 624A     		ldr	r2, .L323+20
 3812 0696 6349     		ldr	r1, .L323+24
 3813 0698 42F82310 		str	r1, [r2, r3, lsl #2]
 3814 069c 0BE0     		b	.L258
 3815              	.L257:
1331:..\src/interruptions.c ****             else {
1332:..\src/interruptions.c ****                 if (curr_error_sum[idx] < -CURR_INTEGRAL_SAT_LIMIT)
 3816              		.loc 1 1332 0
 3817 069e FB79     		ldrb	r3, [r7, #7]	@ zero_extendqisi2
 3818 06a0 5F4A     		ldr	r2, .L323+20
 3819 06a2 52F82330 		ldr	r3, [r2, r3, lsl #2]
 3820 06a6 604A     		ldr	r2, .L323+28
 3821 06a8 9342     		cmp	r3, r2
 3822 06aa 04DA     		bge	.L258
1333:..\src/interruptions.c ****                     curr_error_sum[idx] = -CURR_INTEGRAL_SAT_LIMIT;
 3823              		.loc 1 1333 0
 3824 06ac FB79     		ldrb	r3, [r7, #7]	@ zero_extendqisi2
 3825 06ae 5C4A     		ldr	r2, .L323+20
 3826 06b0 5D49     		ldr	r1, .L323+28
 3827 06b2 42F82310 		str	r1, [r2, r3, lsl #2]
 3828              	.L258:
1334:..\src/interruptions.c ****             }
1335:..\src/interruptions.c **** 
1336:..\src/interruptions.c ****             // ----- current PID control -----
1337:..\src/interruptions.c **** 
1338:..\src/interruptions.c ****             pwm_input = 0;
 3829              		.loc 1 1338 0
 3830 06b6 0023     		movs	r3, #0
 3831 06b8 FB65     		str	r3, [r7, #92]
1339:..\src/interruptions.c **** 
1340:..\src/interruptions.c ****             // Proportional
1341:..\src/interruptions.c ****             if (k_p_c_dl != 0)
 3832              		.loc 1 1341 0
 3833 06ba 7B6A     		ldr	r3, [r7, #36]
 3834 06bc 002B     		cmp	r3, #0
 3835 06be 07D0     		beq	.L259
1342:..\src/interruptions.c ****                 pwm_input += (int32)(k_p_c_dl * curr_error) >> 16;
 3836              		.loc 1 1342 0
 3837 06c0 7B6A     		ldr	r3, [r7, #36]
 3838 06c2 FA68     		ldr	r2, [r7, #12]
 3839 06c4 02FB03F3 		mul	r3, r2, r3
 3840 06c8 1B14     		asrs	r3, r3, #16
 3841 06ca FA6D     		ldr	r2, [r7, #92]
 3842 06cc 1344     		add	r3, r3, r2
 3843 06ce FB65     		str	r3, [r7, #92]
 3844              	.L259:
1343:..\src/interruptions.c **** 
1344:..\src/interruptions.c ****             // Integral
1345:..\src/interruptions.c ****             if (k_i_c_dl != 0)
 3845              		.loc 1 1345 0
 3846 06d0 3B6A     		ldr	r3, [r7, #32]
 3847 06d2 002B     		cmp	r3, #0
ARM GAS  C:\Users\Mattia\AppData\Local\Temp\ccUxgIpk.s 			page 94


 3848 06d4 0AD0     		beq	.L260
1346:..\src/interruptions.c ****                 pwm_input += (int32)(k_i_c_dl * curr_error_sum[idx]) >> 16;
 3849              		.loc 1 1346 0
 3850 06d6 FB79     		ldrb	r3, [r7, #7]	@ zero_extendqisi2
 3851 06d8 514A     		ldr	r2, .L323+20
 3852 06da 52F82330 		ldr	r3, [r2, r3, lsl #2]
 3853 06de 3A6A     		ldr	r2, [r7, #32]
 3854 06e0 02FB03F3 		mul	r3, r2, r3
