ARM GAS  C:\Users\Mattia\AppData\Local\Temp\ccUNBmDb.s 			page 1


   1              		.syntax unified
   2              		.cpu cortex-m3
   3              		.fpu softvfp
   4              		.eabi_attribute 20, 1
   5              		.eabi_attribute 21, 1
   6              		.eabi_attribute 23, 3
   7              		.eabi_attribute 24, 1
   8              		.eabi_attribute 25, 1
   9              		.eabi_attribute 26, 1
  10              		.eabi_attribute 30, 6
  11              		.eabi_attribute 34, 1
  12              		.eabi_attribute 18, 4
  13              		.thumb
  14              		.syntax unified
  15              		.file	"main.c"
  16              		.text
  17              	.Ltext0:
  18              		.cfi_sections	.debug_frame
  19              		.section	.text.main,"ax",%progbits
  20              		.align	2
  21              		.global	main
  22              		.thumb
  23              		.thumb_func
  24              		.type	main, %function
  25              	main:
  26              	.LFB64:
  27              		.file 1 "..\\src\\main.c"
   1:..\src/main.c **** // ----------------------------------------------------------------------------
   2:..\src/main.c **** // BSD 3-Clause License
   3:..\src/main.c **** 
   4:..\src/main.c **** // Copyright (c) 2016, qbrobotics
   5:..\src/main.c **** // Copyright (c) 2017-2019, Centro "E.Piaggio"
   6:..\src/main.c **** // All rights reserved.
   7:..\src/main.c **** 
   8:..\src/main.c **** // Redistribution and use in source and binary forms, with or without
   9:..\src/main.c **** // modification, are permitted provided that the following conditions are met:
  10:..\src/main.c **** 
  11:..\src/main.c **** // * Redistributions of source code must retain the above copyright notice, this
  12:..\src/main.c **** //   list of conditions and the following disclaimer.
  13:..\src/main.c **** 
  14:..\src/main.c **** // * Redistributions in binary form must reproduce the above copyright notice,
  15:..\src/main.c **** //   this list of conditions and the following disclaimer in the documentation
  16:..\src/main.c **** //   and/or other materials provided with the distribution.
  17:..\src/main.c **** 
  18:..\src/main.c **** // * Neither the name of the copyright holder nor the names of its
  19:..\src/main.c **** //   contributors may be used to endorse or promote products derived from
  20:..\src/main.c **** //   this software without specific prior written permission.
  21:..\src/main.c **** 
  22:..\src/main.c **** // THIS SOFTWARE IS PROVIDED BY THE COPYRIGHT HOLDERS AND CONTRIBUTORS "AS IS"
  23:..\src/main.c **** // AND ANY EXPRESS OR IMPLIED WARRANTIES, INCLUDING, BUT NOT LIMITED TO, THE
  24:..\src/main.c **** // IMPLIED WARRANTIES OF MERCHANTABILITY AND FITNESS FOR A PARTICULAR PURPOSE ARE
  25:..\src/main.c **** // DISCLAIMED. IN NO EVENT SHALL THE COPYRIGHT HOLDER OR CONTRIBUTORS BE LIABLE
  26:..\src/main.c **** // FOR ANY DIRECT, INDIRECT, INCIDENTAL, SPECIAL, EXEMPLARY, OR CONSEQUENTIAL
  27:..\src/main.c **** // DAMAGES (INCLUDING, BUT NOT LIMITED TO, PROCUREMENT OF SUBSTITUTE GOODS OR
  28:..\src/main.c **** // SERVICES; LOSS OF USE, DATA, OR PROFITS; OR BUSINESS INTERRUPTION) HOWEVER
  29:..\src/main.c **** // CAUSED AND ON ANY THEORY OF LIABILITY, WHETHER IN CONTRACT, STRICT LIABILITY,
  30:..\src/main.c **** // OR TORT (INCLUDING NEGLIGENCE OR OTHERWISE) ARISING IN ANY WAY OUT OF THE USE
ARM GAS  C:\Users\Mattia\AppData\Local\Temp\ccUNBmDb.s 			page 2


  31:..\src/main.c **** // OF THIS SOFTWARE, EVEN IF ADVISED OF THE POSSIBILITY OF SUCH DAMAGE.
  32:..\src/main.c **** // POSSIBILITY OF SUCH DAMAGE.
  33:..\src/main.c **** // ----------------------------------------------------------------------------
  34:..\src/main.c **** 
  35:..\src/main.c **** /**
  36:..\src/main.c **** * \file         main.c
  37:..\src/main.c **** *
  38:..\src/main.c **** * \brief        Firmware main file.
  39:..\src/main.c **** * \date         May 31, 2019
  40:..\src/main.c **** * \author       _Centro "E.Piaggio"_
  41:..\src/main.c **** * \copyright    (C) 2019 Centro "E.Piaggio". All rights reserved.
  42:..\src/main.c **** * \mainpage     Firmware
  43:..\src/main.c **** * \brief        This is the firmware of PSoC5 logic board.
  44:..\src/main.c **** * \version      1.0
  45:..\src/main.c **** *
  46:..\src/main.c **** * \details      This is the firmware of PSoC5 logic board. Depending on the configuration, 
  47:..\src/main.c **** *               it can control up to two motors and read its encoders. Also can read and
  48:..\src/main.c **** *               convert analog measurements connected to the PSoC microcontroller.                
  49:..\src/main.c **** *
  50:..\src/main.c **** */
  51:..\src/main.c **** 
  52:..\src/main.c **** 
  53:..\src/main.c **** // ----------------------------------------------------------------------------
  54:..\src/main.c **** // This version changes:
  55:..\src/main.c **** //      - not reported
  56:..\src/main.c **** 
  57:..\src/main.c **** 
  58:..\src/main.c **** //=================================================================     includes
  59:..\src/main.c **** 
  60:..\src/main.c **** #include "device.h"
  61:..\src/main.c **** #include "globals.h"
  62:..\src/main.c **** #include "interruptions.h"
  63:..\src/main.c **** #include "command_processing.h"
  64:..\src/main.c **** #include "IMU_functions.h"
  65:..\src/main.c **** #include "Encoder_functions.h"
  66:..\src/main.c **** #include "SD_RTC_functions.h"
  67:..\src/main.c **** #include "utils.h"
  68:..\src/main.c **** #include "project.h"
  69:..\src/main.c **** #include "FS.h"
  70:..\src/main.c **** 
  71:..\src/main.c **** //==============================================================================
  72:..\src/main.c **** //                                                                 MAIN FUNCTION
  73:..\src/main.c **** //==============================================================================
  74:..\src/main.c **** 
  75:..\src/main.c **** int main()
  76:..\src/main.c **** {
  28              		.loc 1 76 0
  29              		.cfi_startproc
  30              		@ args = 0, pretend = 0, frame = 8
  31              		@ frame_needed = 1, uses_anonymous_args = 0
  32 0000 90B5     		push	{r4, r7, lr}
  33              		.cfi_def_cfa_offset 12
  34              		.cfi_offset 4, -12
  35              		.cfi_offset 7, -8
  36              		.cfi_offset 14, -4
  37 0002 83B0     		sub	sp, sp, #12
  38              		.cfi_def_cfa_offset 24
ARM GAS  C:\Users\Mattia\AppData\Local\Temp\ccUNBmDb.s 			page 3


  39 0004 00AF     		add	r7, sp, #0
  40              		.cfi_def_cfa_register 7
  77:..\src/main.c ****     // Iterator    
  78:..\src/main.c ****     uint8 i, j;
  79:..\src/main.c ****     
  80:..\src/main.c ****     // Variable declarations for DMA     
  81:..\src/main.c ****     uint8 DMA_Chan;
  82:..\src/main.c ****     uint8 DMA_TD[1];
  83:..\src/main.c ****     
  84:..\src/main.c ****     //================================     initializations - psoc and components
  85:..\src/main.c **** 
  86:..\src/main.c ****     // EEPROM
  87:..\src/main.c ****     EEPROM_Start();
  41              		.loc 1 87 0
  42 0006 FFF7FEFF 		bl	EEPROM_Start
  88:..\src/main.c ****     memRecall();                                        // Recall configuration.  
  43              		.loc 1 88 0
  44 000a FFF7FEFF 		bl	memRecall
  89:..\src/main.c ****     
  90:..\src/main.c ****     // FTDI chip enable
  91:..\src/main.c ****     CyDelay(100);
  45              		.loc 1 91 0
  46 000e 6420     		movs	r0, #100
  47 0010 FFF7FEFF 		bl	CyDelay
  92:..\src/main.c ****     FTDI_ENABLE_Write(0x01);
  48              		.loc 1 92 0
  49 0014 0120     		movs	r0, #1
  50 0016 FFF7FEFF 		bl	FTDI_ENABLE_Write
  93:..\src/main.c ****     
  94:..\src/main.c **** 	// LED Enable   
  95:..\src/main.c ****     LED_control(1);     // Green fixed light
  51              		.loc 1 95 0
  52 001a 0120     		movs	r0, #1
  53 001c FFF7FEFF 		bl	LED_control
  96:..\src/main.c ****     BLINK_05HZ_Start();
  54              		.loc 1 96 0
  55 0020 FFF7FEFF 		bl	BLINK_05HZ_Start
  97:..\src/main.c ****     BLINK_25HZ_Start();
  56              		.loc 1 97 0
  57 0024 FFF7FEFF 		bl	BLINK_25HZ_Start
  98:..\src/main.c ****     BLINK_05HZ_WriteCompare(499);
  58              		.loc 1 98 0
  59 0028 40F2F310 		movw	r0, #499
  60 002c FFF7FEFF 		bl	BLINK_05HZ_WriteCompare
  99:..\src/main.c ****     BLINK_25HZ_WriteCompare(99);
  61              		.loc 1 99 0
  62 0030 6320     		movs	r0, #99
  63 0032 FFF7FEFF 		bl	BLINK_25HZ_WriteCompare
 100:..\src/main.c ****     
 101:..\src/main.c ****     // RS485
 102:..\src/main.c ****     UART_RS485_Stop();
  64              		.loc 1 102 0
  65 0036 FFF7FEFF 		bl	UART_RS485_Stop
 103:..\src/main.c ****     UART_RS485_Start();
  66              		.loc 1 103 0
  67 003a FFF7FEFF 		bl	UART_RS485_Start
 104:..\src/main.c ****     UART_RS485_Init();
ARM GAS  C:\Users\Mattia\AppData\Local\Temp\ccUNBmDb.s 			page 4


  68              		.loc 1 104 0
  69 003e FFF7FEFF 		bl	UART_RS485_Init
 105:..\src/main.c ****     UART_RS485_ClearRxBuffer();
  70              		.loc 1 105 0
  71 0042 FFF7FEFF 		bl	UART_RS485_ClearRxBuffer
 106:..\src/main.c ****     UART_RS485_ClearTxBuffer();
  72              		.loc 1 106 0
  73 0046 FFF7FEFF 		bl	UART_RS485_ClearTxBuffer
 107:..\src/main.c ****     ISR_RS485_RX_StartEx(ISR_RS485_RX_ExInterrupt);
  74              		.loc 1 107 0
  75 004a A148     		ldr	r0, .L36
  76 004c FFF7FEFF 		bl	ISR_RS485_RX_StartEx
 108:..\src/main.c ****     
 109:..\src/main.c ****     // CYCLES TIMER   
 110:..\src/main.c ****     CYCLES_TIMER_Start();
  77              		.loc 1 110 0
  78 0050 FFF7FEFF 		bl	CYCLES_TIMER_Start
 111:..\src/main.c ****     ISR_CYCLES_StartEx(ISR_CYCLES_Handler);
  79              		.loc 1 111 0
  80 0054 9F48     		ldr	r0, .L36+4
  81 0056 FFF7FEFF 		bl	ISR_CYCLES_StartEx
 112:..\src/main.c ****     
 113:..\src/main.c ****     // PWM
 114:..\src/main.c ****     PWM_MOTORS_Start();
  82              		.loc 1 114 0
  83 005a FFF7FEFF 		bl	PWM_MOTORS_Start
 115:..\src/main.c ****     PWM_MOTORS_WriteCompare1(0);
  84              		.loc 1 115 0
  85 005e 0020     		movs	r0, #0
  86 0060 FFF7FEFF 		bl	PWM_MOTORS_WriteCompare1
 116:..\src/main.c ****     MOTOR_DIR_1_Write(0);
  87              		.loc 1 116 0
  88 0064 0020     		movs	r0, #0
  89 0066 FFF7FEFF 		bl	MOTOR_DIR_1_Write
 117:..\src/main.c ****     enable_motor(0, 0x00);
  90              		.loc 1 117 0
  91 006a 0021     		movs	r1, #0
  92 006c 0020     		movs	r0, #0
  93 006e FFF7FEFF 		bl	enable_motor
 118:..\src/main.c ****     MOTOR_DIR_2_Write(0);
  94              		.loc 1 118 0
  95 0072 0020     		movs	r0, #0
  96 0074 FFF7FEFF 		bl	MOTOR_DIR_2_Write
 119:..\src/main.c ****     enable_motor(1, 0x00);
  97              		.loc 1 119 0
  98 0078 0021     		movs	r1, #0
  99 007a 0120     		movs	r0, #1
 100 007c FFF7FEFF 		bl	enable_motor
 120:..\src/main.c **** 
 121:..\src/main.c **** #ifdef AIR_CHAMBERS_FB_FW
 122:..\src/main.c ****     if (c_mem.dev.dev_type == AIR_CHAMBERS_FB){
 101              		.loc 1 122 0
 102 0080 954B     		ldr	r3, .L36+8
 103 0082 93F8AC30 		ldrb	r3, [r3, #172]	@ zero_extendqisi2
 104 0086 022B     		cmp	r3, #2
 105 0088 02D1     		bne	.L2
 123:..\src/main.c ****         VALVE_Write(0);
ARM GAS  C:\Users\Mattia\AppData\Local\Temp\ccUNBmDb.s 			page 5


 106              		.loc 1 123 0
 107 008a 0020     		movs	r0, #0
 108 008c FFF7FEFF 		bl	VALVE_Write
 109              	.L2:
 124:..\src/main.c ****     }
 125:..\src/main.c **** #endif
 126:..\src/main.c **** 
 127:..\src/main.c ****     // Init AS5045 devices  
 128:..\src/main.c ****     COUNTER_ENC_Start();
 110              		.loc 1 128 0
 111 0090 FFF7FEFF 		bl	COUNTER_ENC_Start
 129:..\src/main.c ****     SHIFTREG_ENC_1_Start();
 112              		.loc 1 129 0
 113 0094 FFF7FEFF 		bl	SHIFTREG_ENC_1_Start
 130:..\src/main.c ****     SHIFTREG_ENC_2_Start();
 114              		.loc 1 130 0
 115 0098 FFF7FEFF 		bl	SHIFTREG_ENC_2_Start
 131:..\src/main.c ****     SHIFTREG_ENC_3_Start();
 116              		.loc 1 131 0
 117 009c FFF7FEFF 		bl	SHIFTREG_ENC_3_Start
 132:..\src/main.c **** 
 133:..\src/main.c ****     // ADC
 134:..\src/main.c ****     ADC_Set_N_Channels();           // Set right number of ADC channels to sample
 118              		.loc 1 134 0
 119 00a0 FFF7FEFF 		bl	ADC_Set_N_Channels
 135:..\src/main.c ****     ADC_Start();
 120              		.loc 1 135 0
 121 00a4 FFF7FEFF 		bl	ADC_Start
 136:..\src/main.c ****     ADC_SOC_Write(0x01);            // Force first read cycle.
 122              		.loc 1 136 0
 123 00a8 0120     		movs	r0, #1
 124 00aa FFF7FEFF 		bl	ADC_SOC_Write
 137:..\src/main.c **** 
 138:..\src/main.c ****     // ADC DMA    
 139:..\src/main.c ****     DMA_Chan = DMA_DmaInitialize(DMA_BYTES_PER_BURST, DMA_REQUEST_PER_BURST, HI16(DMA_SRC_BASE), HI
 125              		.loc 1 139 0
 126 00ae 41F6FF73 		movw	r3, #8191
 127 00b2 4FF48042 		mov	r2, #16384
 128 00b6 0121     		movs	r1, #1
 129 00b8 0220     		movs	r0, #2
 130 00ba FFF7FEFF 		bl	DMA_DmaInitialize
 131 00be 0346     		mov	r3, r0
 132 00c0 7B71     		strb	r3, [r7, #5]
 140:..\src/main.c ****     DMA_TD[0] = CyDmaTdAllocate();                                                                 
 133              		.loc 1 140 0
 134 00c2 FFF7FEFF 		bl	CyDmaTdAllocate
 135 00c6 0346     		mov	r3, r0
 136 00c8 3B71     		strb	r3, [r7, #4]
 141:..\src/main.c ****     CyDmaTdSetConfiguration(DMA_TD[0], 2 * NUM_OF_ANALOG_INPUTS, DMA_TD[0], DMA__TD_TERMOUT_EN | TD
 137              		.loc 1 141 0
 138 00ca 3879     		ldrb	r0, [r7, #4]	@ zero_extendqisi2
 139 00cc 834B     		ldr	r3, .L36+12
 140 00ce 1B78     		ldrb	r3, [r3]	@ zero_extendqisi2
 141 00d0 9BB2     		uxth	r3, r3
 142 00d2 5B00     		lsls	r3, r3, #1
 143 00d4 99B2     		uxth	r1, r3
 144 00d6 3A79     		ldrb	r2, [r7, #4]	@ zero_extendqisi2
ARM GAS  C:\Users\Mattia\AppData\Local\Temp\ccUNBmDb.s 			page 6


 145 00d8 0623     		movs	r3, #6
 146 00da FFF7FEFF 		bl	CyDmaTdSetConfiguration
 142:..\src/main.c ****     CyDmaTdSetAddress(DMA_TD[0], LO16((uint32)ADC_DEC_SAMP_PTR), LO16((uint32)ADC_buf));           
 147              		.loc 1 142 0
 148 00de 3B79     		ldrb	r3, [r7, #4]	@ zero_extendqisi2
 149 00e0 7F4A     		ldr	r2, .L36+16
 150 00e2 92B2     		uxth	r2, r2
 151 00e4 44F61061 		movw	r1, #19984
 152 00e8 1846     		mov	r0, r3
 153 00ea FFF7FEFF 		bl	CyDmaTdSetAddress
 143:..\src/main.c ****     CyDmaChSetInitialTd(DMA_Chan, DMA_TD[0]);                                                      
 154              		.loc 1 143 0
 155 00ee 3A79     		ldrb	r2, [r7, #4]	@ zero_extendqisi2
 156 00f0 7B79     		ldrb	r3, [r7, #5]	@ zero_extendqisi2
 157 00f2 1146     		mov	r1, r2
 158 00f4 1846     		mov	r0, r3
 159 00f6 FFF7FEFF 		bl	CyDmaChSetInitialTd
 144:..\src/main.c ****     CyDmaChEnable(DMA_Chan, 1);                                                                    
 160              		.loc 1 144 0
 161 00fa 7B79     		ldrb	r3, [r7, #5]	@ zero_extendqisi2
 162 00fc 0121     		movs	r1, #1
 163 00fe 1846     		mov	r0, r3
 164 0100 FFF7FEFF 		bl	CyDmaChEnable
 145:..\src/main.c ****     
 146:..\src/main.c ****     // TIMER
 147:..\src/main.c ****     MY_TIMER_Start();           
 165              		.loc 1 147 0
 166 0104 FFF7FEFF 		bl	MY_TIMER_Start
 148:..\src/main.c ****     PACER_TIMER_Start();    
 167              		.loc 1 148 0
 168 0108 FFF7FEFF 		bl	PACER_TIMER_Start
 149:..\src/main.c ****     
 150:..\src/main.c ****     CYGlobalIntEnable;              // Enable interrupts.
 169              		.loc 1 150 0
 170              		.syntax unified
 171              	@ 150 "..\src\main.c" 1
 172 010c 62B6     		CPSIE   i
 173              	@ 0 "" 2
 151:..\src/main.c **** 
 152:..\src/main.c ****     // Init AS5045 devices
 153:..\src/main.c ****     InitEncoderGeneral();
 174              		.loc 1 153 0
 175              		.thumb
 176              		.syntax unified
 177 010e FFF7FEFF 		bl	InitEncoderGeneral
 154:..\src/main.c **** 
 155:..\src/main.c ****     //SPI IMU module
 156:..\src/main.c ****     if (c_mem.imu.read_imu_flag) {
 178              		.loc 1 156 0
 179 0112 714B     		ldr	r3, .L36+8
 180 0114 93F80032 		ldrb	r3, [r3, #512]	@ zero_extendqisi2
 181 0118 002B     		cmp	r3, #0
 182 011a 34D0     		beq	.L3
 157:..\src/main.c **** 
 158:..\src/main.c ****     	SPI_IMU_Start();
 183              		.loc 1 158 0
 184 011c FFF7FEFF 		bl	SPI_IMU_Start
ARM GAS  C:\Users\Mattia\AppData\Local\Temp\ccUNBmDb.s 			page 7


 159:..\src/main.c ****     	SPI_IMU_Init();
 185              		.loc 1 159 0
 186 0120 FFF7FEFF 		bl	SPI_IMU_Init
 160:..\src/main.c ****     	SPI_IMU_Enable();
 187              		.loc 1 160 0
 188 0124 FFF7FEFF 		bl	SPI_IMU_Enable
 161:..\src/main.c ****     	SPI_IMU_ClearRxBuffer();
 189              		.loc 1 161 0
 190 0128 FFF7FEFF 		bl	SPI_IMU_ClearRxBuffer
 162:..\src/main.c ****     	SPI_IMU_ClearTxBuffer();
 191              		.loc 1 162 0
 192 012c FFF7FEFF 		bl	SPI_IMU_ClearTxBuffer
 163:..\src/main.c ****     	SPI_IMU_ClearFIFO();							
 193              		.loc 1 163 0
 194 0130 FFF7FEFF 		bl	SPI_IMU_ClearFIFO
 164:..\src/main.c ****         CyDelay(10);
 195              		.loc 1 164 0
 196 0134 0A20     		movs	r0, #10
 197 0136 FFF7FEFF 		bl	CyDelay
 165:..\src/main.c ****         
 166:..\src/main.c ****         // Init MPU9250 devices
 167:..\src/main.c ****         InitIMUgeneral();
 198              		.loc 1 167 0
 199 013a FFF7FEFF 		bl	InitIMUgeneral
 168:..\src/main.c ****         
 169:..\src/main.c ****         // Initialize quaternion
 170:..\src/main.c ****         for (i = 0; i<N_IMU_MAX; i++) {
 200              		.loc 1 170 0
 201 013e 0023     		movs	r3, #0
 202 0140 FB71     		strb	r3, [r7, #7]
 203 0142 1DE0     		b	.L4
 204              	.L5:
 171:..\src/main.c ****             Quat[i][0] = 0.999;
 205              		.loc 1 171 0 discriminator 3
 206 0144 FB79     		ldrb	r3, [r7, #7]	@ zero_extendqisi2
 207 0146 674A     		ldr	r2, .L36+20
 208 0148 1B01     		lsls	r3, r3, #4
 209 014a 1344     		add	r3, r3, r2
 210 014c 664A     		ldr	r2, .L36+24
 211 014e 1A60     		str	r2, [r3]	@ float
 172:..\src/main.c ****             Quat[i][1] = 0.01;
 212              		.loc 1 172 0 discriminator 3
 213 0150 FB79     		ldrb	r3, [r7, #7]	@ zero_extendqisi2
 214 0152 644A     		ldr	r2, .L36+20
 215 0154 1B01     		lsls	r3, r3, #4
 216 0156 1344     		add	r3, r3, r2
 217 0158 0433     		adds	r3, r3, #4
 218 015a 644A     		ldr	r2, .L36+28
 219 015c 1A60     		str	r2, [r3]	@ float
 173:..\src/main.c ****             Quat[i][2] = 0.01;
 220              		.loc 1 173 0 discriminator 3
 221 015e FB79     		ldrb	r3, [r7, #7]	@ zero_extendqisi2
 222 0160 604A     		ldr	r2, .L36+20
 223 0162 1B01     		lsls	r3, r3, #4
 224 0164 1344     		add	r3, r3, r2
 225 0166 0833     		adds	r3, r3, #8
 226 0168 604A     		ldr	r2, .L36+28
ARM GAS  C:\Users\Mattia\AppData\Local\Temp\ccUNBmDb.s 			page 8


 227 016a 1A60     		str	r2, [r3]	@ float
 174:..\src/main.c ****             Quat[i][3] = 0.01;
 228              		.loc 1 174 0 discriminator 3
 229 016c FB79     		ldrb	r3, [r7, #7]	@ zero_extendqisi2
 230 016e 5D4A     		ldr	r2, .L36+20
 231 0170 1B01     		lsls	r3, r3, #4
 232 0172 1344     		add	r3, r3, r2
 233 0174 0C33     		adds	r3, r3, #12
 234 0176 5D4A     		ldr	r2, .L36+28
 235 0178 1A60     		str	r2, [r3]	@ float
 170:..\src/main.c ****             Quat[i][0] = 0.999;
 236              		.loc 1 170 0 discriminator 3
 237 017a FB79     		ldrb	r3, [r7, #7]	@ zero_extendqisi2
 238 017c 0133     		adds	r3, r3, #1
 239 017e FB71     		strb	r3, [r7, #7]
 240              	.L4:
 170:..\src/main.c ****             Quat[i][0] = 0.999;
 241              		.loc 1 170 0 is_stmt 0 discriminator 1
 242 0180 FB79     		ldrb	r3, [r7, #7]	@ zero_extendqisi2
 243 0182 042B     		cmp	r3, #4
 244 0184 DED9     		bls	.L5
 245              	.L3:
 175:..\src/main.c ****         }
 176:..\src/main.c ****     }
 177:..\src/main.c ****     
 178:..\src/main.c ****     //========================================     initializations - clean variables
 179:..\src/main.c ****     
 180:..\src/main.c ****     //---------------------------------------------------  Initialize filters structure 
 181:..\src/main.c ****     for(i=0;i<NUM_OF_MOTORS;i++) {
 246              		.loc 1 181 0 is_stmt 1
 247 0186 0023     		movs	r3, #0
 248 0188 FB71     		strb	r3, [r7, #7]
 249 018a 1AE0     		b	.L6
 250              	.L7:
 182:..\src/main.c ****         filt_i[i].gain = 32;    // Current filter constant.
 251              		.loc 1 182 0 discriminator 3
 252 018c FB79     		ldrb	r3, [r7, #7]	@ zero_extendqisi2
 253 018e 584A     		ldr	r2, .L36+32
 254 0190 DB00     		lsls	r3, r3, #3
 255 0192 1344     		add	r3, r3, r2
 256 0194 2022     		movs	r2, #32
 257 0196 5A60     		str	r2, [r3, #4]
 183:..\src/main.c ****         filt_curr_diff[i].gain = 16;   // Current residual filter constant.       
 258              		.loc 1 183 0 discriminator 3
 259 0198 FB79     		ldrb	r3, [r7, #7]	@ zero_extendqisi2
 260 019a 564A     		ldr	r2, .L36+36
 261 019c DB00     		lsls	r3, r3, #3
 262 019e 1344     		add	r3, r3, r2
 263 01a0 1022     		movs	r2, #16
 264 01a2 5A60     		str	r2, [r3, #4]
 184:..\src/main.c ****         filt_v[i].old_value    = 12000;// Initial voltage filter value.
 265              		.loc 1 184 0 discriminator 3
 266 01a4 FB79     		ldrb	r3, [r7, #7]	@ zero_extendqisi2
 267 01a6 544A     		ldr	r2, .L36+40
 268 01a8 42F6E061 		movw	r1, #12000
 269 01ac 42F83310 		str	r1, [r2, r3, lsl #3]
 185:..\src/main.c ****         filt_v[i].gain         = 2;    // Voltage filter constant.
ARM GAS  C:\Users\Mattia\AppData\Local\Temp\ccUNBmDb.s 			page 9


 270              		.loc 1 185 0 discriminator 3
 271 01b0 FB79     		ldrb	r3, [r7, #7]	@ zero_extendqisi2
 272 01b2 514A     		ldr	r2, .L36+40
 273 01b4 DB00     		lsls	r3, r3, #3
 274 01b6 1344     		add	r3, r3, r2
 275 01b8 0222     		movs	r2, #2
 276 01ba 5A60     		str	r2, [r3, #4]
 181:..\src/main.c ****         filt_i[i].gain = 32;    // Current filter constant.
 277              		.loc 1 181 0 discriminator 3
 278 01bc FB79     		ldrb	r3, [r7, #7]	@ zero_extendqisi2
 279 01be 0133     		adds	r3, r3, #1
 280 01c0 FB71     		strb	r3, [r7, #7]
 281              	.L6:
 181:..\src/main.c ****         filt_i[i].gain = 32;    // Current filter constant.
 282              		.loc 1 181 0 is_stmt 0 discriminator 1
 283 01c2 FB79     		ldrb	r3, [r7, #7]	@ zero_extendqisi2
 284 01c4 012B     		cmp	r3, #1
 285 01c6 E1D9     		bls	.L7
 186:..\src/main.c ****     }
 187:..\src/main.c ****     for(i=0;i<NUM_OF_SENSORS;i++) {
 286              		.loc 1 187 0 is_stmt 1
 287 01c8 0023     		movs	r3, #0
 288 01ca FB71     		strb	r3, [r7, #7]
 289 01cc 08E0     		b	.L8
 290              	.L9:
 188:..\src/main.c ****         filt_vel[i].gain = 128; // Velocity filters constant.
 291              		.loc 1 188 0 discriminator 3
 292 01ce FB79     		ldrb	r3, [r7, #7]	@ zero_extendqisi2
 293 01d0 4A4A     		ldr	r2, .L36+44
 294 01d2 DB00     		lsls	r3, r3, #3
 295 01d4 1344     		add	r3, r3, r2
 296 01d6 8022     		movs	r2, #128
 297 01d8 5A60     		str	r2, [r3, #4]
 187:..\src/main.c ****         filt_vel[i].gain = 128; // Velocity filters constant.
 298              		.loc 1 187 0 discriminator 3
 299 01da FB79     		ldrb	r3, [r7, #7]	@ zero_extendqisi2
 300 01dc 0133     		adds	r3, r3, #1
 301 01de FB71     		strb	r3, [r7, #7]
 302              	.L8:
 187:..\src/main.c ****         filt_vel[i].gain = 128; // Velocity filters constant.
 303              		.loc 1 187 0 is_stmt 0 discriminator 1
 304 01e0 FB79     		ldrb	r3, [r7, #7]	@ zero_extendqisi2
 305 01e2 022B     		cmp	r3, #2
 306 01e4 F3D9     		bls	.L9
 189:..\src/main.c ****     }
 190:..\src/main.c ****     
 191:..\src/main.c ****     for(i=0;i<NUM_OF_INPUT_EMGS+NUM_OF_ADDITIONAL_EMGS;i++) {
 307              		.loc 1 191 0 is_stmt 1
 308 01e6 0023     		movs	r3, #0
 309 01e8 FB71     		strb	r3, [r7, #7]
 310 01ea 08E0     		b	.L10
 311              	.L11:
 192:..\src/main.c ****         filt_emg[i].gain      = 50;   // Emg channels filter constant.
 312              		.loc 1 192 0 discriminator 3
 313 01ec FB79     		ldrb	r3, [r7, #7]	@ zero_extendqisi2
 314 01ee 444A     		ldr	r2, .L36+48
 315 01f0 DB00     		lsls	r3, r3, #3
ARM GAS  C:\Users\Mattia\AppData\Local\Temp\ccUNBmDb.s 			page 10


 316 01f2 1344     		add	r3, r3, r2
 317 01f4 3222     		movs	r2, #50
 318 01f6 5A60     		str	r2, [r3, #4]
 191:..\src/main.c ****         filt_emg[i].gain      = 50;   // Emg channels filter constant.
 319              		.loc 1 191 0 discriminator 3
 320 01f8 FB79     		ldrb	r3, [r7, #7]	@ zero_extendqisi2
 321 01fa 0133     		adds	r3, r3, #1
 322 01fc FB71     		strb	r3, [r7, #7]
 323              	.L10:
 191:..\src/main.c ****         filt_emg[i].gain      = 50;   // Emg channels filter constant.
 324              		.loc 1 191 0 is_stmt 0 discriminator 1
 325 01fe FB79     		ldrb	r3, [r7, #7]	@ zero_extendqisi2
 326 0200 072B     		cmp	r3, #7
 327 0202 F3D9     		bls	.L11
 193:..\src/main.c ****     }
 194:..\src/main.c ****     
 195:..\src/main.c ****     //---------------------------------------------------  Initialize reference structure 
 196:..\src/main.c ****     for (i = 0; i< NUM_OF_MOTORS; i++) {
 328              		.loc 1 196 0 is_stmt 1
 329 0204 0023     		movs	r3, #0
 330 0206 FB71     		strb	r3, [r7, #7]
 331 0208 08E0     		b	.L12
 332              	.L13:
 197:..\src/main.c ****         g_ref[i].pos = 0;
 333              		.loc 1 197 0 discriminator 3
 334 020a FB79     		ldrb	r3, [r7, #7]	@ zero_extendqisi2
 335 020c 3D4A     		ldr	r2, .L36+52
 336 020e 1B01     		lsls	r3, r3, #4
 337 0210 1344     		add	r3, r3, r2
 338 0212 0022     		movs	r2, #0
 339 0214 1A60     		str	r2, [r3]
 196:..\src/main.c ****         g_ref[i].pos = 0;
 340              		.loc 1 196 0 discriminator 3
 341 0216 FB79     		ldrb	r3, [r7, #7]	@ zero_extendqisi2
 342 0218 0133     		adds	r3, r3, #1
 343 021a FB71     		strb	r3, [r7, #7]
 344              	.L12:
 196:..\src/main.c ****         g_ref[i].pos = 0;
 345              		.loc 1 196 0 is_stmt 0 discriminator 1
 346 021c FB79     		ldrb	r3, [r7, #7]	@ zero_extendqisi2
 347 021e 012B     		cmp	r3, #1
 348 0220 F3D9     		bls	.L13
 198:..\src/main.c ****     }
 199:..\src/main.c ****     
 200:..\src/main.c ****     //---------------------------------------------------  Initialize measurement structure
 201:..\src/main.c ****     for (j = 0; j< N_ENCODER_LINE_MAX; j++) { 
 349              		.loc 1 201 0 is_stmt 1
 350 0222 0023     		movs	r3, #0
 351 0224 BB71     		strb	r3, [r7, #6]
 352 0226 22E0     		b	.L14
 353              	.L17:
 202:..\src/main.c ****         for (i = 0; i < NUM_OF_SENSORS; i++) { 
 354              		.loc 1 202 0
 355 0228 0023     		movs	r3, #0
 356 022a FB71     		strb	r3, [r7, #7]
 357 022c 19E0     		b	.L15
 358              	.L16:
ARM GAS  C:\Users\Mattia\AppData\Local\Temp\ccUNBmDb.s 			page 11


 203:..\src/main.c ****             g_meas[j].pos[i] = 0;
 359              		.loc 1 203 0 discriminator 3
 360 022e BA79     		ldrb	r2, [r7, #6]	@ zero_extendqisi2
 361 0230 F979     		ldrb	r1, [r7, #7]	@ zero_extendqisi2
 362 0232 3548     		ldr	r0, .L36+56
 363 0234 1346     		mov	r3, r2
 364 0236 5B00     		lsls	r3, r3, #1
 365 0238 1344     		add	r3, r3, r2
 366 023a 9B00     		lsls	r3, r3, #2
 367 023c 1344     		add	r3, r3, r2
 368 023e 0B44     		add	r3, r3, r1
 369 0240 0022     		movs	r2, #0
 370 0242 40F82320 		str	r2, [r0, r3, lsl #2]
 204:..\src/main.c ****             g_meas[j].rot[i] = 0;
 371              		.loc 1 204 0 discriminator 3
 372 0246 BA79     		ldrb	r2, [r7, #6]	@ zero_extendqisi2
 373 0248 FB79     		ldrb	r3, [r7, #7]	@ zero_extendqisi2
 374 024a 2F49     		ldr	r1, .L36+56
 375 024c 3420     		movs	r0, #52
 376 024e 00FB02F2 		mul	r2, r0, r2
 377 0252 0A44     		add	r2, r2, r1
 378 0254 1344     		add	r3, r3, r2
 379 0256 1833     		adds	r3, r3, #24
 380 0258 0022     		movs	r2, #0
 381 025a 1A70     		strb	r2, [r3]
 202:..\src/main.c ****         for (i = 0; i < NUM_OF_SENSORS; i++) { 
 382              		.loc 1 202 0 discriminator 3
 383 025c FB79     		ldrb	r3, [r7, #7]	@ zero_extendqisi2
 384 025e 0133     		adds	r3, r3, #1
 385 0260 FB71     		strb	r3, [r7, #7]
 386              	.L15:
 202:..\src/main.c ****         for (i = 0; i < NUM_OF_SENSORS; i++) { 
 387              		.loc 1 202 0 is_stmt 0 discriminator 1
 388 0262 FB79     		ldrb	r3, [r7, #7]	@ zero_extendqisi2
 389 0264 022B     		cmp	r3, #2
 390 0266 E2D9     		bls	.L16
 201:..\src/main.c ****         for (i = 0; i < NUM_OF_SENSORS; i++) { 
 391              		.loc 1 201 0 is_stmt 1 discriminator 2
 392 0268 BB79     		ldrb	r3, [r7, #6]	@ zero_extendqisi2
 393 026a 0133     		adds	r3, r3, #1
 394 026c BB71     		strb	r3, [r7, #6]
 395              	.L14:
 201:..\src/main.c ****         for (i = 0; i < NUM_OF_SENSORS; i++) { 
 396              		.loc 1 201 0 is_stmt 0 discriminator 1
 397 026e BB79     		ldrb	r3, [r7, #6]	@ zero_extendqisi2
 398 0270 012B     		cmp	r3, #1
 399 0272 D9D9     		bls	.L17
 205:..\src/main.c ****         }
 206:..\src/main.c ****     }
 207:..\src/main.c **** 
 208:..\src/main.c ****     for (i = 0; i< NUM_OF_MOTORS; i++) {
 400              		.loc 1 208 0 is_stmt 1
 401 0274 0023     		movs	r3, #0
 402 0276 FB71     		strb	r3, [r7, #7]
 403 0278 0EE0     		b	.L18
 404              	.L19:
 209:..\src/main.c ****         g_refNew[i] = g_ref[i];                         // Initialize k+1 reference structure.
ARM GAS  C:\Users\Mattia\AppData\Local\Temp\ccUNBmDb.s 			page 12


 405              		.loc 1 209 0 discriminator 3
 406 027a FA79     		ldrb	r2, [r7, #7]	@ zero_extendqisi2
 407 027c FB79     		ldrb	r3, [r7, #7]	@ zero_extendqisi2
 408 027e 2349     		ldr	r1, .L36+60
 409 0280 1201     		lsls	r2, r2, #4
 410 0282 1144     		add	r1, r1, r2
 411 0284 1F4A     		ldr	r2, .L36+52
 412 0286 1B01     		lsls	r3, r3, #4
 413 0288 1344     		add	r3, r3, r2
 414 028a 0C46     		mov	r4, r1
 415 028c 0FCB     		ldmia	r3, {r0, r1, r2, r3}
 416 028e 84E80F00 		stmia	r4, {r0, r1, r2, r3}
 208:..\src/main.c ****         g_refNew[i] = g_ref[i];                         // Initialize k+1 reference structure.
 417              		.loc 1 208 0 discriminator 3
 418 0292 FB79     		ldrb	r3, [r7, #7]	@ zero_extendqisi2
 419 0294 0133     		adds	r3, r3, #1
 420 0296 FB71     		strb	r3, [r7, #7]
 421              	.L18:
 208:..\src/main.c ****         g_refNew[i] = g_ref[i];                         // Initialize k+1 reference structure.
 422              		.loc 1 208 0 is_stmt 0 discriminator 1
 423 0298 FB79     		ldrb	r3, [r7, #7]	@ zero_extendqisi2
 424 029a 012B     		cmp	r3, #1
 425 029c EDD9     		bls	.L19
 210:..\src/main.c ****     }
 211:..\src/main.c ****     
 212:..\src/main.c ****     //---------------------------------------------------  Initialize emg structure
 213:..\src/main.c ****     g_emg_meas.emg[0] = 0;
 426              		.loc 1 213 0 is_stmt 1
 427 029e 1C4B     		ldr	r3, .L36+64
 428 02a0 0022     		movs	r2, #0
 429 02a2 1A60     		str	r2, [r3]
 214:..\src/main.c ****     g_emg_meas.emg[1] = 0;
 430              		.loc 1 214 0
 431 02a4 1A4B     		ldr	r3, .L36+64
 432 02a6 0022     		movs	r2, #0
 433 02a8 5A60     		str	r2, [r3, #4]
 215:..\src/main.c ****     
 216:..\src/main.c ****     MOTOR_DRIVER_TYPE_Write((g_mem.motor[1].motor_driver_type << 1) | g_mem.motor[0].motor_driver_t
 434              		.loc 1 216 0
 435 02aa 1A4B     		ldr	r3, .L36+68
 436 02ac 93F85231 		ldrb	r3, [r3, #338]	@ zero_extendqisi2
 437 02b0 5B00     		lsls	r3, r3, #1
 438 02b2 5AB2     		sxtb	r2, r3
 439 02b4 174B     		ldr	r3, .L36+68
 440 02b6 93F8E230 		ldrb	r3, [r3, #226]	@ zero_extendqisi2
 441 02ba 5BB2     		sxtb	r3, r3
 442 02bc 1343     		orrs	r3, r3, r2
 443 02be 5BB2     		sxtb	r3, r3
 444 02c0 DBB2     		uxtb	r3, r3
 445 02c2 1846     		mov	r0, r3
 446 02c4 FFF7FEFF 		bl	MOTOR_DRIVER_TYPE_Write
 217:..\src/main.c ****     for (i = 0; i< NUM_OF_MOTORS; i++) {
 447              		.loc 1 217 0
 448 02c8 0023     		movs	r3, #0
 449 02ca FB71     		strb	r3, [r7, #7]
 450 02cc CAE0     		b	.L20
 451              	.L37:
ARM GAS  C:\Users\Mattia\AppData\Local\Temp\ccUNBmDb.s 			page 13


 452 02ce 00BF     		.align	2
 453              	.L36:
 454 02d0 00000000 		.word	ISR_RS485_RX_ExInterrupt
 455 02d4 00000000 		.word	ISR_CYCLES_Handler
 456 02d8 00000000 		.word	c_mem
 457 02dc 00000000 		.word	NUM_OF_ANALOG_INPUTS
 458 02e0 00000000 		.word	ADC_buf
 459 02e4 00000000 		.word	Quat
 460 02e8 77BE7F3F 		.word	1065336439
 461 02ec 0AD7233C 		.word	1008981770
 462 02f0 00000000 		.word	filt_i
 463 02f4 00000000 		.word	filt_curr_diff
 464 02f8 00000000 		.word	filt_v
 465 02fc 00000000 		.word	filt_vel
 466 0300 00000000 		.word	filt_emg
 467 0304 00000000 		.word	g_ref
 468 0308 00000000 		.word	g_meas
 469 030c 00000000 		.word	g_refNew
 470 0310 00000000 		.word	g_emg_meas
 471 0314 00000000 		.word	g_mem
 472              	.L28:
 218:..\src/main.c ****         if (c_mem.emg.emg_calibration_flag) {
 473              		.loc 1 218 0
 474 0318 884B     		ldr	r3, .L38
 475 031a 93F8FD31 		ldrb	r3, [r3, #509]	@ zero_extendqisi2
 476 031e 002B     		cmp	r3, #0
 477 0320 48D0     		beq	.L21
 219:..\src/main.c ****             if ((c_mem.motor[i].input_mode == INPUT_MODE_EMG_PROPORTIONAL) ||
 478              		.loc 1 219 0
 479 0322 FA79     		ldrb	r2, [r7, #7]	@ zero_extendqisi2
 480 0324 8549     		ldr	r1, .L38
 481 0326 1346     		mov	r3, r2
 482 0328 DB00     		lsls	r3, r3, #3
 483 032a 9B1A     		subs	r3, r3, r2
 484 032c 1B01     		lsls	r3, r3, #4
 485 032e 0B44     		add	r3, r3, r1
 486 0330 03F58773 		add	r3, r3, #270
 487 0334 1B78     		ldrb	r3, [r3]	@ zero_extendqisi2
 488 0336 022B     		cmp	r3, #2
 489 0338 23D0     		beq	.L22
 220:..\src/main.c ****                 (c_mem.motor[i].input_mode == INPUT_MODE_EMG_INTEGRAL) ||
 490              		.loc 1 220 0 discriminator 1
 491 033a FA79     		ldrb	r2, [r7, #7]	@ zero_extendqisi2
 492 033c 7F49     		ldr	r1, .L38
 493 033e 1346     		mov	r3, r2
 494 0340 DB00     		lsls	r3, r3, #3
 495 0342 9B1A     		subs	r3, r3, r2
 496 0344 1B01     		lsls	r3, r3, #4
 497 0346 0B44     		add	r3, r3, r1
 498 0348 03F58773 		add	r3, r3, #270
 499 034c 1B78     		ldrb	r3, [r3]	@ zero_extendqisi2
 219:..\src/main.c ****             if ((c_mem.motor[i].input_mode == INPUT_MODE_EMG_PROPORTIONAL) ||
 500              		.loc 1 219 0 discriminator 1
 501 034e 032B     		cmp	r3, #3
 502 0350 17D0     		beq	.L22
 221:..\src/main.c ****                 (c_mem.motor[i].input_mode == INPUT_MODE_EMG_FCFS) ||
 503              		.loc 1 221 0
ARM GAS  C:\Users\Mattia\AppData\Local\Temp\ccUNBmDb.s 			page 14


 504 0352 FA79     		ldrb	r2, [r7, #7]	@ zero_extendqisi2
 505 0354 7949     		ldr	r1, .L38
 506 0356 1346     		mov	r3, r2
 507 0358 DB00     		lsls	r3, r3, #3
 508 035a 9B1A     		subs	r3, r3, r2
 509 035c 1B01     		lsls	r3, r3, #4
 510 035e 0B44     		add	r3, r3, r1
 511 0360 03F58773 		add	r3, r3, #270
 512 0364 1B78     		ldrb	r3, [r3]	@ zero_extendqisi2
 220:..\src/main.c ****                 (c_mem.motor[i].input_mode == INPUT_MODE_EMG_INTEGRAL) ||
 513              		.loc 1 220 0
 514 0366 042B     		cmp	r3, #4
 515 0368 0BD0     		beq	.L22
 222:..\src/main.c ****                 (c_mem.motor[i].input_mode == INPUT_MODE_EMG_FCFS_ADV))
 516              		.loc 1 222 0
 517 036a FA79     		ldrb	r2, [r7, #7]	@ zero_extendqisi2
 518 036c 7349     		ldr	r1, .L38
 519 036e 1346     		mov	r3, r2
 520 0370 DB00     		lsls	r3, r3, #3
 521 0372 9B1A     		subs	r3, r3, r2
 522 0374 1B01     		lsls	r3, r3, #4
 523 0376 0B44     		add	r3, r3, r1
 524 0378 03F58773 		add	r3, r3, #270
 525 037c 1B78     		ldrb	r3, [r3]	@ zero_extendqisi2
 221:..\src/main.c ****                 (c_mem.motor[i].input_mode == INPUT_MODE_EMG_FCFS) ||
 526              		.loc 1 221 0
 527 037e 052B     		cmp	r3, #5
 528 0380 07D1     		bne	.L23
 529              	.L22:
 223:..\src/main.c ****                 g_ref[i].onoff = 0x00;
 530              		.loc 1 223 0
 531 0382 FB79     		ldrb	r3, [r7, #7]	@ zero_extendqisi2
 532 0384 6E4A     		ldr	r2, .L38+4
 533 0386 1B01     		lsls	r3, r3, #4
 534 0388 1344     		add	r3, r3, r2
 535 038a 0C33     		adds	r3, r3, #12
 536 038c 0022     		movs	r2, #0
 537 038e 1A70     		strb	r2, [r3]
 538 0390 20E0     		b	.L25
 539              	.L23:
 224:..\src/main.c ****             else
 225:..\src/main.c ****                 g_ref[i].onoff = c_mem.motor[i].activ;
 540              		.loc 1 225 0
 541 0392 F979     		ldrb	r1, [r7, #7]	@ zero_extendqisi2
 542 0394 FA79     		ldrb	r2, [r7, #7]	@ zero_extendqisi2
 543 0396 6948     		ldr	r0, .L38
 544 0398 1346     		mov	r3, r2
 545 039a DB00     		lsls	r3, r3, #3
 546 039c 9B1A     		subs	r3, r3, r2
 547 039e 1B01     		lsls	r3, r3, #4
 548 03a0 0344     		add	r3, r3, r0
 549 03a2 E033     		adds	r3, r3, #224
 550 03a4 1878     		ldrb	r0, [r3]	@ zero_extendqisi2
 551 03a6 664A     		ldr	r2, .L38+4
 552 03a8 0B01     		lsls	r3, r1, #4
 553 03aa 1344     		add	r3, r3, r2
 554 03ac 0C33     		adds	r3, r3, #12
ARM GAS  C:\Users\Mattia\AppData\Local\Temp\ccUNBmDb.s 			page 15


 555 03ae 0246     		mov	r2, r0
 556 03b0 1A70     		strb	r2, [r3]
 557 03b2 0FE0     		b	.L25
 558              	.L21:
 226:..\src/main.c ****         } 
 227:..\src/main.c ****         else
 228:..\src/main.c ****             g_ref[i].onoff = c_mem.motor[i].activ;
 559              		.loc 1 228 0
 560 03b4 F979     		ldrb	r1, [r7, #7]	@ zero_extendqisi2
 561 03b6 FA79     		ldrb	r2, [r7, #7]	@ zero_extendqisi2
 562 03b8 6048     		ldr	r0, .L38
 563 03ba 1346     		mov	r3, r2
 564 03bc DB00     		lsls	r3, r3, #3
 565 03be 9B1A     		subs	r3, r3, r2
 566 03c0 1B01     		lsls	r3, r3, #4
 567 03c2 0344     		add	r3, r3, r0
 568 03c4 E033     		adds	r3, r3, #224
 569 03c6 1878     		ldrb	r0, [r3]	@ zero_extendqisi2
 570 03c8 5D4A     		ldr	r2, .L38+4
 571 03ca 0B01     		lsls	r3, r1, #4
 572 03cc 1344     		add	r3, r3, r2
 573 03ce 0C33     		adds	r3, r3, #12
 574 03d0 0246     		mov	r2, r0
 575 03d2 1A70     		strb	r2, [r3]
 576              	.L25:
 229:..\src/main.c **** 
 230:..\src/main.c ****         if (!g_mem.enc[g_mem.motor[i].encoder_line].double_encoder_on_off) {
 577              		.loc 1 230 0
 578 03d4 FA79     		ldrb	r2, [r7, #7]	@ zero_extendqisi2
 579 03d6 5B49     		ldr	r1, .L38+8
 580 03d8 1346     		mov	r3, r2
 581 03da DB00     		lsls	r3, r3, #3
 582 03dc 9B1A     		subs	r3, r3, r2
 583 03de 1B01     		lsls	r3, r3, #4
 584 03e0 0B44     		add	r3, r3, r1
 585 03e2 03F58873 		add	r3, r3, #272
 586 03e6 1B78     		ldrb	r3, [r3]	@ zero_extendqisi2
 587 03e8 1946     		mov	r1, r3
 588 03ea 564A     		ldr	r2, .L38+8
 589 03ec 0B46     		mov	r3, r1
 590 03ee 5B00     		lsls	r3, r3, #1
 591 03f0 0B44     		add	r3, r3, r1
 592 03f2 1B01     		lsls	r3, r3, #4
 593 03f4 1344     		add	r3, r3, r2
 594 03f6 03F5D873 		add	r3, r3, #432
 595 03fa 1B78     		ldrb	r3, [r3]	@ zero_extendqisi2
 596 03fc 002B     		cmp	r3, #0
 597 03fe 10D1     		bne	.L26
 231:..\src/main.c ****             g_ref[i].onoff = c_mem.motor[i].activ;                          // Initialize Activatio
 598              		.loc 1 231 0
 599 0400 F979     		ldrb	r1, [r7, #7]	@ zero_extendqisi2
 600 0402 FA79     		ldrb	r2, [r7, #7]	@ zero_extendqisi2
 601 0404 4D48     		ldr	r0, .L38
 602 0406 1346     		mov	r3, r2
 603 0408 DB00     		lsls	r3, r3, #3
 604 040a 9B1A     		subs	r3, r3, r2
 605 040c 1B01     		lsls	r3, r3, #4
ARM GAS  C:\Users\Mattia\AppData\Local\Temp\ccUNBmDb.s 			page 16


 606 040e 0344     		add	r3, r3, r0
 607 0410 E033     		adds	r3, r3, #224
 608 0412 1878     		ldrb	r0, [r3]	@ zero_extendqisi2
 609 0414 4A4A     		ldr	r2, .L38+4
 610 0416 0B01     		lsls	r3, r1, #4
 611 0418 1344     		add	r3, r3, r2
 612 041a 0C33     		adds	r3, r3, #12
 613 041c 0246     		mov	r2, r0
 614 041e 1A70     		strb	r2, [r3]
 615 0420 06E0     		b	.L27
 616              	.L26:
 232:..\src/main.c ****         } 
 233:..\src/main.c ****         else {
 234:..\src/main.c ****             // Do not activate motor until position reconstruction has finished
 235:..\src/main.c ****             g_ref[i].onoff = 0x00;
 617              		.loc 1 235 0
 618 0422 FB79     		ldrb	r3, [r7, #7]	@ zero_extendqisi2
 619 0424 464A     		ldr	r2, .L38+4
 620 0426 1B01     		lsls	r3, r3, #4
 621 0428 1344     		add	r3, r3, r2
 622 042a 0C33     		adds	r3, r3, #12
 623 042c 0022     		movs	r2, #0
 624 042e 1A70     		strb	r2, [r3]
 625              	.L27:
 236:..\src/main.c ****         }
 237:..\src/main.c ****         enable_motor(i, g_ref[i].onoff); 
 626              		.loc 1 237 0 discriminator 2
 627 0430 FB79     		ldrb	r3, [r7, #7]	@ zero_extendqisi2
 628 0432 434A     		ldr	r2, .L38+4
 629 0434 1B01     		lsls	r3, r3, #4
 630 0436 1344     		add	r3, r3, r2
 631 0438 0C33     		adds	r3, r3, #12
 632 043a 1A78     		ldrb	r2, [r3]	@ zero_extendqisi2
 633 043c FB79     		ldrb	r3, [r7, #7]	@ zero_extendqisi2
 634 043e 1146     		mov	r1, r2
 635 0440 1846     		mov	r0, r3
 636 0442 FFF7FEFF 		bl	enable_motor
 238:..\src/main.c ****         
 239:..\src/main.c ****         dev_pwm_limit[i] = dev_pwm_sat[i];              // Init PWM limit.
 637              		.loc 1 239 0 discriminator 2
 638 0446 FB79     		ldrb	r3, [r7, #7]	@ zero_extendqisi2
 639 0448 FA79     		ldrb	r2, [r7, #7]	@ zero_extendqisi2
 640 044a 3F49     		ldr	r1, .L38+12
 641 044c 895C     		ldrb	r1, [r1, r2]	@ zero_extendqisi2
 642 044e 3F4A     		ldr	r2, .L38+16
 643 0450 D154     		strb	r1, [r2, r3]
 240:..\src/main.c **** 	
 241:..\src/main.c ****         pow_tension[i] = 12000;                         // 12000 mV (12 V)
 644              		.loc 1 241 0 discriminator 2
 645 0452 FB79     		ldrb	r3, [r7, #7]	@ zero_extendqisi2
 646 0454 3E4A     		ldr	r2, .L38+20
 647 0456 42F6E061 		movw	r1, #12000
 648 045a 42F82310 		str	r1, [r2, r3, lsl #2]
 217:..\src/main.c ****         if (c_mem.emg.emg_calibration_flag) {
 649              		.loc 1 217 0 discriminator 2
 650 045e FB79     		ldrb	r3, [r7, #7]	@ zero_extendqisi2
 651 0460 0133     		adds	r3, r3, #1
ARM GAS  C:\Users\Mattia\AppData\Local\Temp\ccUNBmDb.s 			page 17


 652 0462 FB71     		strb	r3, [r7, #7]
 653              	.L20:
 217:..\src/main.c ****         if (c_mem.emg.emg_calibration_flag) {
 654              		.loc 1 217 0 is_stmt 0 discriminator 1
 655 0464 FB79     		ldrb	r3, [r7, #7]	@ zero_extendqisi2
 656 0466 012B     		cmp	r3, #1
 657 0468 7FF656AF 		bls	.L28
 242:..\src/main.c ****     }
 243:..\src/main.c ****     
 244:..\src/main.c ****     tension_valid = FALSE;                              // Init tension_valid BIT.
 658              		.loc 1 244 0 is_stmt 1
 659 046c 394B     		ldr	r3, .L38+24
 660 046e 0022     		movs	r2, #0
 661 0470 1A70     		strb	r2, [r3]
 245:..\src/main.c **** 
 246:..\src/main.c ****     reset_last_value_flag = 0;                          // Do not reset encoder last value.
 662              		.loc 1 246 0
 663 0472 394B     		ldr	r3, .L38+28
 664 0474 0022     		movs	r2, #0
 665 0476 1A70     		strb	r2, [r3]
 247:..\src/main.c **** 
 248:..\src/main.c ****     //------------------------------------------------- Initialize package on receive from RS485
 249:..\src/main.c ****     g_rx.length = 0;
 666              		.loc 1 249 0
 667 0478 384B     		ldr	r3, .L38+32
 668 047a 0022     		movs	r2, #0
 669 047c A3F88020 		strh	r2, [r3, #128]	@ movhi
 250:..\src/main.c ****     g_rx.ready  = 0;
 670              		.loc 1 250 0
 671 0480 364B     		ldr	r3, .L38+32
 672 0482 0022     		movs	r2, #0
 673 0484 83F88420 		strb	r2, [r3, #132]
 251:..\src/main.c ****     
 252:..\src/main.c ****     //------------------------------------------------- Initialize rest position variables    
 253:..\src/main.c **** 	rest_enabled = 0;
 674              		.loc 1 253 0
 675 0488 354B     		ldr	r3, .L38+36
 676 048a 0022     		movs	r2, #0
 677 048c 1A70     		strb	r2, [r3]
 254:..\src/main.c ****     forced_open = 0;
 678              		.loc 1 254 0
 679 048e 354B     		ldr	r3, .L38+40
 680 0490 0022     		movs	r2, #0
 681 0492 1A70     		strb	r2, [r3]
 255:..\src/main.c ****     
 256:..\src/main.c ****     LED_control(5);     // Default - red light
 682              		.loc 1 256 0
 683 0494 0520     		movs	r0, #5
 684 0496 FFF7FEFF 		bl	LED_control
 257:..\src/main.c ****     
 258:..\src/main.c **** #ifdef MASTER_FW
 259:..\src/main.c ****     master_mode = 1;    // Default - activate master mode at startup
 685              		.loc 1 259 0
 686 049a 334B     		ldr	r3, .L38+44
 687 049c 0122     		movs	r2, #1
 688 049e 1A70     		strb	r2, [r3]
 260:..\src/main.c **** #endif
ARM GAS  C:\Users\Mattia\AppData\Local\Temp\ccUNBmDb.s 			page 18


 261:..\src/main.c **** 
 262:..\src/main.c ****     //============================================================    check if maintenance is due
 263:..\src/main.c **** 
 264:..\src/main.c ****     if ( (g_mem.cnt.wire_disp/(((g_mem.motor[0].pos_lim_sup>>g_mem.enc[0].res[0]) - (g_mem.motor[0]
 689              		.loc 1 264 0
 690 04a0 284B     		ldr	r3, .L38+8
 691 04a2 5B6D     		ldr	r3, [r3, #84]
 692 04a4 274A     		ldr	r2, .L38+8
 693 04a6 D2F8E820 		ldr	r2, [r2, #232]
 694 04aa 2649     		ldr	r1, .L38+8
 695 04ac 91F89511 		ldrb	r1, [r1, #405]	@ zero_extendqisi2
 696 04b0 42FA01F1 		asr	r1, r2, r1
 697 04b4 234A     		ldr	r2, .L38+8
 698 04b6 D2F8E420 		ldr	r2, [r2, #228]
 699 04ba 2248     		ldr	r0, .L38+8
 700 04bc 90F89501 		ldrb	r0, [r0, #405]	@ zero_extendqisi2
 701 04c0 0241     		asrs	r2, r2, r0
 702 04c2 8A1A     		subs	r2, r1, r2
 703 04c4 5200     		lsls	r2, r2, #1
 704 04c6 B3FBF2F3 		udiv	r3, r3, r2
 705 04ca 284A     		ldr	r2, .L38+48
 706 04cc 9342     		cmp	r3, r2
 707 04ce 02D9     		bls	.L29
 265:..\src/main.c ****         maintenance_flag = TRUE;    
 708              		.loc 1 265 0
 709 04d0 274B     		ldr	r3, .L38+52
 710 04d2 0122     		movs	r2, #1
 711 04d4 1A70     		strb	r2, [r3]
 712              	.L29:
 266:..\src/main.c **** 
 267:..\src/main.c ****     if (g_mem.exp.read_exp_port_flag == EXP_SD_RTC) {
 713              		.loc 1 267 0
 714 04d6 1B4B     		ldr	r3, .L38+8
 715 04d8 93F82632 		ldrb	r3, [r3, #550]	@ zero_extendqisi2
 716 04dc 012B     		cmp	r3, #1
 717 04de 03D1     		bne	.L30
 268:..\src/main.c ****         
 269:..\src/main.c ****         store_RTC_current_time();
 718              		.loc 1 269 0
 719 04e0 FFF7FEFF 		bl	store_RTC_current_time
 270:..\src/main.c ****         
 271:..\src/main.c ****         // SD file
 272:..\src/main.c ****         InitSD_FS();
 720              		.loc 1 272 0
 721 04e4 FFF7FEFF 		bl	InitSD_FS
 722              	.L30:
 273:..\src/main.c ****     }
 274:..\src/main.c ****     
 275:..\src/main.c ****     //============================================================     main loop
 276:..\src/main.c ****     
 277:..\src/main.c ****     // All peripherals has started, now it is ok to start communication
 278:..\src/main.c ****     RS485_CTS_Write(0);             // Clear To Send on RS485.
 723              		.loc 1 278 0
 724 04e8 0020     		movs	r0, #0
 725 04ea FFF7FEFF 		bl	RS485_CTS_Write
 726              	.L35:
 279:..\src/main.c **** 
ARM GAS  C:\Users\Mattia\AppData\Local\Temp\ccUNBmDb.s 			page 19


 280:..\src/main.c ****     for(;;)
 281:..\src/main.c **** 
 282:..\src/main.c ****     {             
 283:..\src/main.c ****         // Put the FF reset pin to LOW
 284:..\src/main.c ****         RESET_FF_Write(0x00);
 727              		.loc 1 284 0
 728 04ee 0020     		movs	r0, #0
 729 04f0 FFF7FEFF 		bl	RESET_FF_Write
 285:..\src/main.c **** 
 286:..\src/main.c ****         // Call function scheduler
 287:..\src/main.c ****         function_scheduler(); 
 730              		.loc 1 287 0
 731 04f4 FFF7FEFF 		bl	function_scheduler
 288:..\src/main.c **** 
 289:..\src/main.c ****         //  Wait until the FF is set to 1
 290:..\src/main.c ****         while(FF_STATUS_Read() == 0){
 732              		.loc 1 290 0
 733 04f8 08E0     		b	.L31
 734              	.L32:
 291:..\src/main.c ****             // On interrupt from RS485
 292:..\src/main.c ****             if (interrupt_flag){
 735              		.loc 1 292 0
 736 04fa 1E4B     		ldr	r3, .L38+56
 737 04fc 1B78     		ldrb	r3, [r3]	@ zero_extendqisi2
 738 04fe 002B     		cmp	r3, #0
 739 0500 04D0     		beq	.L31
 293:..\src/main.c ****                 // Reset flags
 294:..\src/main.c ****                 interrupt_flag = FALSE;
 740              		.loc 1 294 0
 741 0502 1C4B     		ldr	r3, .L38+56
 742 0504 0022     		movs	r2, #0
 743 0506 1A70     		strb	r2, [r3]
 295:..\src/main.c ****                 
 296:..\src/main.c ****                 // Manage Interrupt on rs485
 297:..\src/main.c ****                 interrupt_manager();
 744              		.loc 1 297 0
 745 0508 FFF7FEFF 		bl	interrupt_manager
 746              	.L31:
 290:..\src/main.c ****             // On interrupt from RS485
 747              		.loc 1 290 0
 748 050c FFF7FEFF 		bl	FF_STATUS_Read
 749 0510 0346     		mov	r3, r0
 750 0512 002B     		cmp	r3, #0
 751 0514 F1D0     		beq	.L32
 298:..\src/main.c ****             }
 299:..\src/main.c ****         };
 300:..\src/main.c **** 
 301:..\src/main.c ****         // Command a FF reset
 302:..\src/main.c ****         RESET_FF_Write(0x01);
 752              		.loc 1 302 0
 753 0516 0120     		movs	r0, #1
 754 0518 FFF7FEFF 		bl	RESET_FF_Write
 303:..\src/main.c **** 
 304:..\src/main.c ****         // Wait for FF to be reset
 305:..\src/main.c ****         while(FF_STATUS_Read() == 1);
 755              		.loc 1 305 0
 756 051c 00BF     		nop
ARM GAS  C:\Users\Mattia\AppData\Local\Temp\ccUNBmDb.s 			page 20


 757              	.L33:
 758              		.loc 1 305 0 is_stmt 0 discriminator 1
 759 051e FFF7FEFF 		bl	FF_STATUS_Read
 760 0522 0346     		mov	r3, r0
 761 0524 012B     		cmp	r3, #1
 762 0526 FAD0     		beq	.L33
 306:..\src/main.c **** 
 307:..\src/main.c ****         if(UART_RS485_ReadRxStatus() & UART_RS485_RX_STS_SOFT_BUFF_OVER)
 763              		.loc 1 307 0 is_stmt 1
 764 0528 FFF7FEFF 		bl	UART_RS485_ReadRxStatus
 765 052c 0346     		mov	r3, r0
 766 052e 5BB2     		sxtb	r3, r3
 767 0530 002B     		cmp	r3, #0
 768 0532 DCDA     		bge	.L35
 308:..\src/main.c ****             UART_RS485_ClearRxBuffer();
 769              		.loc 1 308 0
 770 0534 FFF7FEFF 		bl	UART_RS485_ClearRxBuffer
 309:..\src/main.c ****     }
 771              		.loc 1 309 0
 772 0538 D9E7     		b	.L35
 773              	.L39:
 774 053a 00BF     		.align	2
 775              	.L38:
 776 053c 00000000 		.word	c_mem
 777 0540 00000000 		.word	g_ref
 778 0544 00000000 		.word	g_mem
 779 0548 00000000 		.word	dev_pwm_sat
 780 054c 00000000 		.word	dev_pwm_limit
 781 0550 00000000 		.word	pow_tension
 782 0554 00000000 		.word	tension_valid
 783 0558 00000000 		.word	reset_last_value_flag
 784 055c 00000000 		.word	g_rx
 785 0560 00000000 		.word	rest_enabled
 786 0564 00000000 		.word	forced_open
 787 0568 00000000 		.word	master_mode
 788 056c 400D0300 		.word	200000
 789 0570 00000000 		.word	maintenance_flag
 790 0574 00000000 		.word	interrupt_flag
 791              		.cfi_endproc
 792              	.LFE64:
 793              		.size	main, .-main
 794              		.text
 795              	.Letext0:
 796              		.file 2 "c:\\program files (x86)\\cypress\\psoc creator\\4.2\\psoc creator\\import\\gnu\\arm\\5.4.
 797              		.file 3 "c:\\program files (x86)\\cypress\\psoc creator\\4.2\\psoc creator\\import\\gnu\\arm\\5.4.
 798              		.file 4 "Generated_Source\\PSoC5/cytypes.h"
 799              		.file 5 "..\\src\\globals.h"
 800              		.file 6 "Generated_Source\\PSoC5/core_cm3.h"
 801              		.file 7 "..\\src\\commands.h"