ARM GAS  C:\Users\Mattia\AppData\Local\Temp\ccPC8dFz.s 			page 1


   1              		.syntax unified
   2              		.cpu cortex-m3
   3              		.fpu softvfp
   4              		.eabi_attribute 20, 1
   5              		.eabi_attribute 21, 1
   6              		.eabi_attribute 23, 3
   7              		.eabi_attribute 24, 1
   8              		.eabi_attribute 25, 1
   9              		.eabi_attribute 26, 1
  10              		.eabi_attribute 30, 6
  11              		.eabi_attribute 34, 1
  12              		.eabi_attribute 18, 4
  13              		.thumb
  14              		.syntax unified
  15              		.file	"command_processing.c"
  16              		.text
  17              	.Ltext0:
  18              		.cfi_sections	.debug_frame
  19              		.global	EEPROM_ADDR
  20              		.data
  21              		.align	2
  22              		.type	EEPROM_ADDR, %object
  23              		.size	EEPROM_ADDR, 4
  24              	EEPROM_ADDR:
  25 0000 00800040 		.word	1073774592
  26              		.section	.text.commProcess,"ax",%progbits
  27              		.align	2
  28              		.global	commProcess
  29              		.thumb
  30              		.thumb_func
  31              		.type	commProcess, %function
  32              	commProcess:
  33              	.LFB64:
  34              		.file 1 "..\\src\\command_processing.c"
   1:..\src/command_processing.c **** // ----------------------------------------------------------------------------
   2:..\src/command_processing.c **** // BSD 3-Clause License
   3:..\src/command_processing.c **** 
   4:..\src/command_processing.c **** // Copyright (c) 2016, qbrobotics
   5:..\src/command_processing.c **** // Copyright (c) 2017-2020, Centro "E.Piaggio"
   6:..\src/command_processing.c **** // All rights reserved.
   7:..\src/command_processing.c **** 
   8:..\src/command_processing.c **** // Redistribution and use in source and binary forms, with or without
   9:..\src/command_processing.c **** // modification, are permitted provided that the following conditions are met:
  10:..\src/command_processing.c **** 
  11:..\src/command_processing.c **** // * Redistributions of source code must retain the above copyright notice, this
  12:..\src/command_processing.c **** //   list of conditions and the following disclaimer.
  13:..\src/command_processing.c **** 
  14:..\src/command_processing.c **** // * Redistributions in binary form must reproduce the above copyright notice,
  15:..\src/command_processing.c **** //   this list of conditions and the following disclaimer in the documentation
  16:..\src/command_processing.c **** //   and/or other materials provided with the distribution.
  17:..\src/command_processing.c **** 
  18:..\src/command_processing.c **** // * Neither the name of the copyright holder nor the names of its
  19:..\src/command_processing.c **** //   contributors may be used to endorse or promote products derived from
  20:..\src/command_processing.c **** //   this software without specific prior written permission.
  21:..\src/command_processing.c **** 
  22:..\src/command_processing.c **** // THIS SOFTWARE IS PROVIDED BY THE COPYRIGHT HOLDERS AND CONTRIBUTORS "AS IS"
  23:..\src/command_processing.c **** // AND ANY EXPRESS OR IMPLIED WARRANTIES, INCLUDING, BUT NOT LIMITED TO, THE
ARM GAS  C:\Users\Mattia\AppData\Local\Temp\ccPC8dFz.s 			page 2


  24:..\src/command_processing.c **** // IMPLIED WARRANTIES OF MERCHANTABILITY AND FITNESS FOR A PARTICULAR PURPOSE ARE
  25:..\src/command_processing.c **** // DISCLAIMED. IN NO EVENT SHALL THE COPYRIGHT HOLDER OR CONTRIBUTORS BE LIABLE
  26:..\src/command_processing.c **** // FOR ANY DIRECT, INDIRECT, INCIDENTAL, SPECIAL, EXEMPLARY, OR CONSEQUENTIAL
  27:..\src/command_processing.c **** // DAMAGES (INCLUDING, BUT NOT LIMITED TO, PROCUREMENT OF SUBSTITUTE GOODS OR
  28:..\src/command_processing.c **** // SERVICES; LOSS OF USE, DATA, OR PROFITS; OR BUSINESS INTERRUPTION) HOWEVER
  29:..\src/command_processing.c **** // CAUSED AND ON ANY THEORY OF LIABILITY, WHETHER IN CONTRACT, STRICT LIABILITY,
  30:..\src/command_processing.c **** // OR TORT (INCLUDING NEGLIGENCE OR OTHERWISE) ARISING IN ANY WAY OUT OF THE USE
  31:..\src/command_processing.c **** // OF THIS SOFTWARE, EVEN IF ADVISED OF THE POSSIBILITY OF SUCH DAMAGE.
  32:..\src/command_processing.c **** // POSSIBILITY OF SUCH DAMAGE.
  33:..\src/command_processing.c **** // ----------------------------------------------------------------------------
  34:..\src/command_processing.c **** 
  35:..\src/command_processing.c **** 
  36:..\src/command_processing.c **** /**
  37:..\src/command_processing.c **** * \file         command_processing.c
  38:..\src/command_processing.c **** *
  39:..\src/command_processing.c **** 
  40:..\src/command_processing.c **** * \brief        Command processing functions.
  41:..\src/command_processing.c **** * \date         March 20th, 2020
  42:..\src/command_processing.c **** * \author       _Centro "E.Piaggio"_
  43:..\src/command_processing.c **** * \copyright    (C) 2012-2016 qbrobotics. All rights reserved.
  44:..\src/command_processing.c **** * \copyright    (C) 2017-2020 Centro "E.Piaggio". All rights reserved.
  45:..\src/command_processing.c **** */
  46:..\src/command_processing.c **** //=================================================================     includes
  47:..\src/command_processing.c **** #include "command_processing.h"
  48:..\src/command_processing.c **** 
  49:..\src/command_processing.c **** //================================================================     variables
  50:..\src/command_processing.c **** 
  51:..\src/command_processing.c **** reg8 * EEPROM_ADDR = (reg8 *) CYDEV_EE_BASE;
  52:..\src/command_processing.c **** 
  53:..\src/command_processing.c **** //==============================================================================
  54:..\src/command_processing.c **** //                                                            RX DATA PROCESSING
  55:..\src/command_processing.c **** //==============================================================================
  56:..\src/command_processing.c **** //  This function checks for the availability of a data packet and process it:
  57:..\src/command_processing.c **** //      - Verify checksum;
  58:..\src/command_processing.c **** //      - Process commands;
  59:..\src/command_processing.c **** //==============================================================================
  60:..\src/command_processing.c **** 
  61:..\src/command_processing.c **** void commProcess(void){
  35              		.loc 1 61 0
  36              		.cfi_startproc
  37              		@ args = 0, pretend = 0, frame = 32
  38              		@ frame_needed = 1, uses_anonymous_args = 0
  39 0000 80B5     		push	{r7, lr}
  40              		.cfi_def_cfa_offset 8
  41              		.cfi_offset 7, -8
  42              		.cfi_offset 14, -4
  43 0002 88B0     		sub	sp, sp, #32
  44              		.cfi_def_cfa_offset 40
  45 0004 00AF     		add	r7, sp, #0
  46              		.cfi_def_cfa_register 7
  62:..\src/command_processing.c **** 
  63:..\src/command_processing.c ****     uint8 CYDATA rx_cmd;
  64:..\src/command_processing.c ****     rx_cmd = g_rx.buffer[0];
  47              		.loc 1 64 0
  48 0006 E24B     		ldr	r3, .L50
  49 0008 1B78     		ldrb	r3, [r3]
  50 000a FB77     		strb	r3, [r7, #31]
ARM GAS  C:\Users\Mattia\AppData\Local\Temp\ccPC8dFz.s 			page 3


  65:..\src/command_processing.c **** 
  66:..\src/command_processing.c **** //==========================================================     verify checksum
  67:..\src/command_processing.c **** 
  68:..\src/command_processing.c ****     if (!(LCRChecksum(g_rx.buffer, g_rx.length - 1) == g_rx.buffer[g_rx.length - 1])){
  51              		.loc 1 68 0
  52 000c E04B     		ldr	r3, .L50
  53 000e B3F98030 		ldrsh	r3, [r3, #128]
  54 0012 DBB2     		uxtb	r3, r3
  55 0014 013B     		subs	r3, r3, #1
  56 0016 DBB2     		uxtb	r3, r3
  57 0018 1946     		mov	r1, r3
  58 001a DD48     		ldr	r0, .L50
  59 001c FFF7FEFF 		bl	LCRChecksum
  60 0020 0346     		mov	r3, r0
  61 0022 1946     		mov	r1, r3
  62 0024 DA4B     		ldr	r3, .L50
  63 0026 B3F98030 		ldrsh	r3, [r3, #128]
  64 002a 013B     		subs	r3, r3, #1
  65 002c D84A     		ldr	r2, .L50
  66 002e D35C     		ldrb	r3, [r2, r3]	@ zero_extendqisi2
  67 0030 9942     		cmp	r1, r3
  68 0032 04D0     		beq	.L2
  69:..\src/command_processing.c ****         // Wrong checksum
  70:..\src/command_processing.c ****         g_rx.ready = 0;
  69              		.loc 1 70 0
  70 0034 D64B     		ldr	r3, .L50
  71 0036 0022     		movs	r2, #0
  72 0038 83F88420 		strb	r2, [r3, #132]
  71:..\src/command_processing.c ****         return;
  73              		.loc 1 71 0
  74 003c 49E2     		b	.L1
  75              	.L2:
  72:..\src/command_processing.c ****     }
  73:..\src/command_processing.c **** 
  74:..\src/command_processing.c ****     switch(rx_cmd) {
  76              		.loc 1 74 0
  77 003e FB7F     		ldrb	r3, [r7, #31]	@ zero_extendqisi2
  78 0040 A72B     		cmp	r3, #167
  79 0042 00F24582 		bhi	.L49
  80 0046 01A2     		adr	r2, .L6
  81 0048 52F823F0 		ldr	pc, [r2, r3, lsl #2]
  82              		.p2align 2
  83              	.L6:
  84 004c 71030000 		.word	.L5+1
  85 0050 53030000 		.word	.L7+1
  86 0054 D1040000 		.word	.L49+1
  87 0058 77030000 		.word	.L8+1
  88 005c 7D030000 		.word	.L9+1
  89 0060 A1030000 		.word	.L10+1
  90 0064 3B030000 		.word	.L11+1
  91 0068 D1040000 		.word	.L49+1
  92 006c D1040000 		.word	.L49+1
  93 0070 D5030000 		.word	.L12+1
  94 0074 BB030000 		.word	.L13+1
  95 0078 D1040000 		.word	.L49+1
  96 007c 59030000 		.word	.L14+1
  97 0080 F7030000 		.word	.L15+1
ARM GAS  C:\Users\Mattia\AppData\Local\Temp\ccPC8dFz.s 			page 4


  98 0084 D1040000 		.word	.L49+1
  99 0088 D1040000 		.word	.L49+1
 100 008c D1040000 		.word	.L49+1
 101 0090 D1040000 		.word	.L49+1
 102 0094 D1040000 		.word	.L49+1
 103 0098 D1040000 		.word	.L49+1
 104 009c D1040000 		.word	.L49+1
 105 00a0 D1040000 		.word	.L49+1
 106 00a4 D1040000 		.word	.L49+1
 107 00a8 D1040000 		.word	.L49+1
 108 00ac D1040000 		.word	.L49+1
 109 00b0 D1040000 		.word	.L49+1
 110 00b4 D1040000 		.word	.L49+1
 111 00b8 D1040000 		.word	.L49+1
 112 00bc D1040000 		.word	.L49+1
 113 00c0 D1040000 		.word	.L49+1
 114 00c4 D1040000 		.word	.L49+1
 115 00c8 D1040000 		.word	.L49+1
 116 00cc D1040000 		.word	.L49+1
 117 00d0 D1040000 		.word	.L49+1
 118 00d4 D1040000 		.word	.L49+1
 119 00d8 D1040000 		.word	.L49+1
 120 00dc D1040000 		.word	.L49+1
 121 00e0 D1040000 		.word	.L49+1
 122 00e4 D1040000 		.word	.L49+1
 123 00e8 D1040000 		.word	.L49+1
 124 00ec D1040000 		.word	.L49+1
 125 00f0 D1040000 		.word	.L49+1
 126 00f4 D1040000 		.word	.L49+1
 127 00f8 D1040000 		.word	.L49+1
 128 00fc D1040000 		.word	.L49+1
 129 0100 D1040000 		.word	.L49+1
 130 0104 D1040000 		.word	.L49+1
 131 0108 D1040000 		.word	.L49+1
 132 010c D1040000 		.word	.L49+1
 133 0110 D1040000 		.word	.L49+1
 134 0114 D1040000 		.word	.L49+1
 135 0118 D1040000 		.word	.L49+1
 136 011c D1040000 		.word	.L49+1
 137 0120 D1040000 		.word	.L49+1
 138 0124 D1040000 		.word	.L49+1
 139 0128 D1040000 		.word	.L49+1
 140 012c D1040000 		.word	.L49+1
 141 0130 D1040000 		.word	.L49+1
 142 0134 D1040000 		.word	.L49+1
 143 0138 D1040000 		.word	.L49+1
 144 013c D1040000 		.word	.L49+1
 145 0140 D1040000 		.word	.L49+1
 146 0144 D1040000 		.word	.L49+1
 147 0148 D1040000 		.word	.L49+1
 148 014c D1040000 		.word	.L49+1
 149 0150 D1040000 		.word	.L49+1
 150 0154 D1040000 		.word	.L49+1
 151 0158 D1040000 		.word	.L49+1
 152 015c D1040000 		.word	.L49+1
 153 0160 D1040000 		.word	.L49+1
 154 0164 D1040000 		.word	.L49+1
ARM GAS  C:\Users\Mattia\AppData\Local\Temp\ccPC8dFz.s 			page 5


 155 0168 D1040000 		.word	.L49+1
 156 016c D1040000 		.word	.L49+1
 157 0170 D1040000 		.word	.L49+1
 158 0174 D1040000 		.word	.L49+1
 159 0178 D1040000 		.word	.L49+1
 160 017c D1040000 		.word	.L49+1
 161 0180 D1040000 		.word	.L49+1
 162 0184 D1040000 		.word	.L49+1
 163 0188 D1040000 		.word	.L49+1
 164 018c D1040000 		.word	.L49+1
 165 0190 D1040000 		.word	.L49+1
 166 0194 D1040000 		.word	.L49+1
 167 0198 D1040000 		.word	.L49+1
 168 019c D1040000 		.word	.L49+1
 169 01a0 D1040000 		.word	.L49+1
 170 01a4 D1040000 		.word	.L49+1
 171 01a8 D1040000 		.word	.L49+1
 172 01ac D1040000 		.word	.L49+1
 173 01b0 D1040000 		.word	.L49+1
 174 01b4 D1040000 		.word	.L49+1
 175 01b8 D1040000 		.word	.L49+1
 176 01bc D1040000 		.word	.L49+1
 177 01c0 D1040000 		.word	.L49+1
 178 01c4 D1040000 		.word	.L49+1
 179 01c8 D1040000 		.word	.L49+1
 180 01cc D1040000 		.word	.L49+1
 181 01d0 D1040000 		.word	.L49+1
 182 01d4 D1040000 		.word	.L49+1
 183 01d8 D1040000 		.word	.L49+1
 184 01dc D1040000 		.word	.L49+1
 185 01e0 D1040000 		.word	.L49+1
 186 01e4 D1040000 		.word	.L49+1
 187 01e8 D1040000 		.word	.L49+1
 188 01ec D1040000 		.word	.L49+1
 189 01f0 D1040000 		.word	.L49+1
 190 01f4 D1040000 		.word	.L49+1
 191 01f8 D1040000 		.word	.L49+1
 192 01fc D1040000 		.word	.L49+1
 193 0200 D1040000 		.word	.L49+1
 194 0204 D1040000 		.word	.L49+1
 195 0208 D1040000 		.word	.L49+1
 196 020c D1040000 		.word	.L49+1
 197 0210 D1040000 		.word	.L49+1
 198 0214 D1040000 		.word	.L49+1
 199 0218 D1040000 		.word	.L49+1
 200 021c D1040000 		.word	.L49+1
 201 0220 D1040000 		.word	.L49+1
 202 0224 D1040000 		.word	.L49+1
 203 0228 D1040000 		.word	.L49+1
 204 022c D1040000 		.word	.L49+1
 205 0230 D1040000 		.word	.L49+1
 206 0234 D1040000 		.word	.L49+1
 207 0238 D1040000 		.word	.L49+1
 208 023c D1040000 		.word	.L49+1
 209 0240 D1040000 		.word	.L49+1
 210 0244 D1040000 		.word	.L49+1
 211 0248 D1040000 		.word	.L49+1
ARM GAS  C:\Users\Mattia\AppData\Local\Temp\ccPC8dFz.s 			page 6


 212 024c ED020000 		.word	.L16+1
 213 0250 29030000 		.word	.L17+1
 214 0254 F3020000 		.word	.L18+1
 215 0258 35030000 		.word	.L19+1
 216 025c F9020000 		.word	.L20+1
 217 0260 05030000 		.word	.L21+1
 218 0264 FF020000 		.word	.L22+1
 219 0268 D1040000 		.word	.L49+1
 220 026c 23030000 		.word	.L23+1
 221 0270 11030000 		.word	.L24+1
 222 0274 D1040000 		.word	.L49+1
 223 0278 17030000 		.word	.L25+1
 224 027c 0B030000 		.word	.L26+1
 225 0280 D1040000 		.word	.L49+1
 226 0284 D1040000 		.word	.L49+1
 227 0288 D1040000 		.word	.L49+1
 228 028c 2F030000 		.word	.L27+1
 229 0290 D1040000 		.word	.L49+1
 230 0294 1D030000 		.word	.L28+1
 231 0298 D1040000 		.word	.L49+1
 232 029c D1040000 		.word	.L49+1
 233 02a0 D1040000 		.word	.L49+1
 234 02a4 D1040000 		.word	.L49+1
 235 02a8 D1040000 		.word	.L49+1
 236 02ac D1040000 		.word	.L49+1
 237 02b0 D1040000 		.word	.L49+1
 238 02b4 D1040000 		.word	.L49+1
 239 02b8 D1040000 		.word	.L49+1
 240 02bc D1040000 		.word	.L49+1
 241 02c0 D1040000 		.word	.L49+1
 242 02c4 D1040000 		.word	.L49+1
 243 02c8 D1040000 		.word	.L49+1
 244 02cc D1040000 		.word	.L49+1
 245 02d0 95040000 		.word	.L29+1
 246 02d4 9B040000 		.word	.L30+1
 247 02d8 B3040000 		.word	.L31+1
 248 02dc B9040000 		.word	.L32+1
 249 02e0 BF040000 		.word	.L33+1
 250 02e4 C5040000 		.word	.L34+1
 251 02e8 CB040000 		.word	.L35+1
 252              		.p2align 1
 253              	.L16:
  75:..\src/command_processing.c **** 
  76:..\src/command_processing.c **** //=============================================================     CMD_ACTIVATE
  77:..\src/command_processing.c ****         case CMD_ACTIVATE:
  78:..\src/command_processing.c ****             cmd_activate();
 254              		.loc 1 78 0
 255 02ec FFF7FEFF 		bl	cmd_activate
  79:..\src/command_processing.c ****             break;
 256              		.loc 1 79 0
 257 02f0 EFE0     		b	.L1
 258              	.L18:
  80:..\src/command_processing.c **** 
  81:..\src/command_processing.c **** //===========================================================     CMD_SET_INPUTS
  82:..\src/command_processing.c **** 
  83:..\src/command_processing.c ****         case CMD_SET_INPUTS:
  84:..\src/command_processing.c ****             cmd_set_inputs();
ARM GAS  C:\Users\Mattia\AppData\Local\Temp\ccPC8dFz.s 			page 7


 259              		.loc 1 84 0
 260 02f2 FFF7FEFF 		bl	cmd_set_inputs
  85:..\src/command_processing.c ****             break;
 261              		.loc 1 85 0
 262 02f6 ECE0     		b	.L1
 263              	.L20:
  86:..\src/command_processing.c **** 
  87:..\src/command_processing.c **** //=====================================================     CMD_GET_MEASUREMENTS
  88:..\src/command_processing.c **** 
  89:..\src/command_processing.c ****         case CMD_GET_MEASUREMENTS:
  90:..\src/command_processing.c ****             cmd_get_measurements();
 264              		.loc 1 90 0
 265 02f8 FFF7FEFF 		bl	cmd_get_measurements
  91:..\src/command_processing.c ****             break;
 266              		.loc 1 91 0
 267 02fc E9E0     		b	.L1
 268              	.L22:
  92:..\src/command_processing.c **** 
  93:..\src/command_processing.c **** //=====================================================     CMD_GET_CURR_AND_MEAS
  94:..\src/command_processing.c **** 
  95:..\src/command_processing.c ****         case CMD_GET_CURR_AND_MEAS:
  96:..\src/command_processing.c ****             cmd_get_curr_and_meas();
 269              		.loc 1 96 0
 270 02fe FFF7FEFF 		bl	cmd_get_curr_and_meas
  97:..\src/command_processing.c ****             break;
 271              		.loc 1 97 0
 272 0302 E6E0     		b	.L1
 273              	.L21:
  98:..\src/command_processing.c ****             
  99:..\src/command_processing.c **** //=========================================================     CMD_GET_CURRENTS
 100:..\src/command_processing.c **** 
 101:..\src/command_processing.c ****         case CMD_GET_CURRENTS:
 102:..\src/command_processing.c ****             cmd_get_currents();
 274              		.loc 1 102 0
 275 0304 FFF7FEFF 		bl	cmd_get_currents
 103:..\src/command_processing.c ****             break;
 276              		.loc 1 103 0
 277 0308 E3E0     		b	.L1
 278              	.L26:
 104:..\src/command_processing.c **** 
 105:..\src/command_processing.c **** //=========================================================     CMD_GET_CURR_DIFF
 106:..\src/command_processing.c ****          
 107:..\src/command_processing.c ****         case CMD_GET_CURR_DIFF:
 108:..\src/command_processing.c ****             cmd_get_currents_for_cuff();
 279              		.loc 1 108 0
 280 030a FFF7FEFF 		bl	cmd_get_currents_for_cuff
 109:..\src/command_processing.c ****             break;
 281              		.loc 1 109 0
 282 030e E0E0     		b	.L1
 283              	.L24:
 110:..\src/command_processing.c ****             
 111:..\src/command_processing.c **** //=========================================================     CMD_GET_CURR_DIFF
 112:..\src/command_processing.c ****         
 113:..\src/command_processing.c ****         case CMD_GET_VELOCITIES:
 114:..\src/command_processing.c ****             cmd_get_velocities();
 284              		.loc 1 114 0
 285 0310 FFF7FEFF 		bl	cmd_get_velocities
ARM GAS  C:\Users\Mattia\AppData\Local\Temp\ccPC8dFz.s 			page 8


 115:..\src/command_processing.c ****             break;
 286              		.loc 1 115 0
 287 0314 DDE0     		b	.L1
 288              	.L25:
 116:..\src/command_processing.c ****             
 117:..\src/command_processing.c **** //=========================================================     CMD_GET_CURR_DIFF
 118:..\src/command_processing.c **** 
 119:..\src/command_processing.c ****         case CMD_GET_ACCEL:
 120:..\src/command_processing.c ****             cmd_get_accelerations();
 289              		.loc 1 120 0
 290 0316 FFF7FEFF 		bl	cmd_get_accelerations
 121:..\src/command_processing.c ****             break;
 291              		.loc 1 121 0
 292 031a DAE0     		b	.L1
 293              	.L28:
 122:..\src/command_processing.c **** 
 123:..\src/command_processing.c **** //=========================================================     CMD_GET_JOYSTICK
 124:..\src/command_processing.c **** 
 125:..\src/command_processing.c ****         case CMD_GET_JOYSTICK:
 126:..\src/command_processing.c ****             cmd_get_joystick();
 294              		.loc 1 126 0
 295 031c FFF7FEFF 		bl	cmd_get_joystick
 127:..\src/command_processing.c ****         break;
 296              		.loc 1 127 0
 297 0320 D7E0     		b	.L1
 298              	.L23:
 128:..\src/command_processing.c ****             
 129:..\src/command_processing.c **** //=========================================================     CMD_GET_EMG
 130:..\src/command_processing.c **** 
 131:..\src/command_processing.c ****         case CMD_GET_EMG:
 132:..\src/command_processing.c ****             cmd_get_emg();
 299              		.loc 1 132 0
 300 0322 FFF7FEFF 		bl	cmd_get_emg
 133:..\src/command_processing.c ****             break;
 301              		.loc 1 133 0
 302 0326 D4E0     		b	.L1
 303              	.L17:
 134:..\src/command_processing.c ****             
 135:..\src/command_processing.c **** //=========================================================     CMD_GET_ACTIVATE
 136:..\src/command_processing.c ****             
 137:..\src/command_processing.c ****         case CMD_GET_ACTIVATE:
 138:..\src/command_processing.c ****             cmd_get_activate();
 304              		.loc 1 138 0
 305 0328 FFF7FEFF 		bl	cmd_get_activate
 139:..\src/command_processing.c ****             break;
 306              		.loc 1 139 0
 307 032c D1E0     		b	.L1
 308              	.L27:
 140:..\src/command_processing.c ****             
 141:..\src/command_processing.c **** //=========================================================     CMD_SET_BAUDRATE
 142:..\src/command_processing.c ****             
 143:..\src/command_processing.c ****         case CMD_SET_BAUDRATE:
 144:..\src/command_processing.c ****             cmd_set_baudrate();
 309              		.loc 1 144 0
 310 032e FFF7FEFF 		bl	cmd_set_baudrate
 145:..\src/command_processing.c ****             break;  
 311              		.loc 1 145 0
ARM GAS  C:\Users\Mattia\AppData\Local\Temp\ccPC8dFz.s 			page 9


 312 0332 CEE0     		b	.L1
 313              	.L19:
 146:..\src/command_processing.c ****             
 147:..\src/command_processing.c **** //============================================================     CMD_GET_INPUT
 148:..\src/command_processing.c **** 
 149:..\src/command_processing.c ****         case CMD_GET_INPUTS:
 150:..\src/command_processing.c ****             cmd_get_inputs();
 314              		.loc 1 150 0
 315 0334 FFF7FEFF 		bl	cmd_get_inputs
 151:..\src/command_processing.c ****             break;
 316              		.loc 1 151 0
 317 0338 CBE0     		b	.L1
 318              	.L11:
 152:..\src/command_processing.c **** 
 153:..\src/command_processing.c **** //=============================================================     CMD_GET_INFO
 154:..\src/command_processing.c **** 
 155:..\src/command_processing.c ****         case CMD_GET_INFO:
 156:..\src/command_processing.c ****             infoGet(  __REV16(*((uint16 *) &g_rx.buffer[1])) );
 319              		.loc 1 156 0
 320 033a 164B     		ldr	r3, .L50+4
 321 033c 1B88     		ldrh	r3, [r3]
 322 033e 3B61     		str	r3, [r7, #16]
 323              	.LBB8:
 324              	.LBB9:
 325              		.file 2 "Generated_Source\\PSoC5/cmsis_gcc.h"
   1:Generated_Source\PSoC5/cmsis_gcc.h **** /**************************************************************************//**
   2:Generated_Source\PSoC5/cmsis_gcc.h ****  * @file     cmsis_gcc.h
   3:Generated_Source\PSoC5/cmsis_gcc.h ****  * @brief    CMSIS Cortex-M Core Function/Instruction Header File
   4:Generated_Source\PSoC5/cmsis_gcc.h ****  * @version  V5.00
   5:Generated_Source\PSoC5/cmsis_gcc.h ****  * @date     28. October 2016
   6:Generated_Source\PSoC5/cmsis_gcc.h ****  ******************************************************************************/
   7:Generated_Source\PSoC5/cmsis_gcc.h **** /*
   8:Generated_Source\PSoC5/cmsis_gcc.h ****  * Copyright (c) 2009-2016 ARM Limited. All rights reserved.
   9:Generated_Source\PSoC5/cmsis_gcc.h ****  *
  10:Generated_Source\PSoC5/cmsis_gcc.h ****  * SPDX-License-Identifier: Apache-2.0
  11:Generated_Source\PSoC5/cmsis_gcc.h ****  *
  12:Generated_Source\PSoC5/cmsis_gcc.h ****  * Licensed under the Apache License, Version 2.0 (the License); you may
  13:Generated_Source\PSoC5/cmsis_gcc.h ****  * not use this file except in compliance with the License.
  14:Generated_Source\PSoC5/cmsis_gcc.h ****  * You may obtain a copy of the License at
  15:Generated_Source\PSoC5/cmsis_gcc.h ****  *
  16:Generated_Source\PSoC5/cmsis_gcc.h ****  * http://www.apache.org/licenses/LICENSE-2.0
  17:Generated_Source\PSoC5/cmsis_gcc.h ****  *
  18:Generated_Source\PSoC5/cmsis_gcc.h ****  * Unless required by applicable law or agreed to in writing, software
  19:Generated_Source\PSoC5/cmsis_gcc.h ****  * distributed under the License is distributed on an AS IS BASIS, WITHOUT
  20:Generated_Source\PSoC5/cmsis_gcc.h ****  * WARRANTIES OR CONDITIONS OF ANY KIND, either express or implied.
  21:Generated_Source\PSoC5/cmsis_gcc.h ****  * See the License for the specific language governing permissions and
  22:Generated_Source\PSoC5/cmsis_gcc.h ****  * limitations under the License.
  23:Generated_Source\PSoC5/cmsis_gcc.h ****  */
  24:Generated_Source\PSoC5/cmsis_gcc.h **** 
  25:Generated_Source\PSoC5/cmsis_gcc.h **** #ifndef __CMSIS_GCC_H
  26:Generated_Source\PSoC5/cmsis_gcc.h **** #define __CMSIS_GCC_H
  27:Generated_Source\PSoC5/cmsis_gcc.h **** 
  28:Generated_Source\PSoC5/cmsis_gcc.h **** /* ignore some GCC warnings */
  29:Generated_Source\PSoC5/cmsis_gcc.h **** #pragma GCC diagnostic push
  30:Generated_Source\PSoC5/cmsis_gcc.h **** #pragma GCC diagnostic ignored "-Wsign-conversion"
  31:Generated_Source\PSoC5/cmsis_gcc.h **** #pragma GCC diagnostic ignored "-Wconversion"
  32:Generated_Source\PSoC5/cmsis_gcc.h **** #pragma GCC diagnostic ignored "-Wunused-parameter"
ARM GAS  C:\Users\Mattia\AppData\Local\Temp\ccPC8dFz.s 			page 10


  33:Generated_Source\PSoC5/cmsis_gcc.h **** 
  34:Generated_Source\PSoC5/cmsis_gcc.h **** /* CMSIS compiler specific defines */
  35:Generated_Source\PSoC5/cmsis_gcc.h **** #ifndef   __ASM
  36:Generated_Source\PSoC5/cmsis_gcc.h ****   #define __ASM                     __asm
  37:Generated_Source\PSoC5/cmsis_gcc.h **** #endif
  38:Generated_Source\PSoC5/cmsis_gcc.h **** #ifndef   __INLINE
  39:Generated_Source\PSoC5/cmsis_gcc.h ****   #define __INLINE                  inline
  40:Generated_Source\PSoC5/cmsis_gcc.h **** #endif
  41:Generated_Source\PSoC5/cmsis_gcc.h **** #ifndef   __STATIC_INLINE
  42:Generated_Source\PSoC5/cmsis_gcc.h ****   #define __STATIC_INLINE           static inline
  43:Generated_Source\PSoC5/cmsis_gcc.h **** #endif
  44:Generated_Source\PSoC5/cmsis_gcc.h **** #ifndef   __NO_RETURN
  45:Generated_Source\PSoC5/cmsis_gcc.h ****   #define __NO_RETURN               __attribute__((noreturn))
  46:Generated_Source\PSoC5/cmsis_gcc.h **** #endif
  47:Generated_Source\PSoC5/cmsis_gcc.h **** #ifndef   __USED
  48:Generated_Source\PSoC5/cmsis_gcc.h ****   #define __USED                    __attribute__((used))
  49:Generated_Source\PSoC5/cmsis_gcc.h **** #endif
  50:Generated_Source\PSoC5/cmsis_gcc.h **** #ifndef   _WEAK
  51:Generated_Source\PSoC5/cmsis_gcc.h ****   #define __WEAK                    __attribute__((weak))
  52:Generated_Source\PSoC5/cmsis_gcc.h **** #endif
  53:Generated_Source\PSoC5/cmsis_gcc.h **** #ifndef   __UNALIGNED_UINT32
  54:Generated_Source\PSoC5/cmsis_gcc.h ****   struct __attribute__((packed)) T_UINT32 { uint32_t v; };
  55:Generated_Source\PSoC5/cmsis_gcc.h ****   #define __UNALIGNED_UINT32(x)     (((struct T_UINT32 *)(x))->v)
  56:Generated_Source\PSoC5/cmsis_gcc.h **** #endif
  57:Generated_Source\PSoC5/cmsis_gcc.h **** #ifndef   __ALIGNED
  58:Generated_Source\PSoC5/cmsis_gcc.h ****   #define __ALIGNED(x)              __attribute__((aligned(x)))
  59:Generated_Source\PSoC5/cmsis_gcc.h **** #endif
  60:Generated_Source\PSoC5/cmsis_gcc.h **** #ifndef   __PACKED
  61:Generated_Source\PSoC5/cmsis_gcc.h ****   #define __PACKED                  __attribute__((packed, aligned(1)))
  62:Generated_Source\PSoC5/cmsis_gcc.h **** #endif
  63:Generated_Source\PSoC5/cmsis_gcc.h **** 
  64:Generated_Source\PSoC5/cmsis_gcc.h **** 
  65:Generated_Source\PSoC5/cmsis_gcc.h **** /* ###########################  Core Function Access  ########################### */
  66:Generated_Source\PSoC5/cmsis_gcc.h **** /** \ingroup  CMSIS_Core_FunctionInterface
  67:Generated_Source\PSoC5/cmsis_gcc.h ****     \defgroup CMSIS_Core_RegAccFunctions CMSIS Core Register Access Functions
  68:Generated_Source\PSoC5/cmsis_gcc.h ****   @{
  69:Generated_Source\PSoC5/cmsis_gcc.h ****  */
  70:Generated_Source\PSoC5/cmsis_gcc.h **** 
  71:Generated_Source\PSoC5/cmsis_gcc.h **** /**
  72:Generated_Source\PSoC5/cmsis_gcc.h ****   \brief   Enable IRQ Interrupts
  73:Generated_Source\PSoC5/cmsis_gcc.h ****   \details Enables IRQ interrupts by clearing the I-bit in the CPSR.
  74:Generated_Source\PSoC5/cmsis_gcc.h ****            Can only be executed in Privileged modes.
  75:Generated_Source\PSoC5/cmsis_gcc.h ****  */
  76:Generated_Source\PSoC5/cmsis_gcc.h **** __attribute__((always_inline)) __STATIC_INLINE void __enable_irq(void)
  77:Generated_Source\PSoC5/cmsis_gcc.h **** {
  78:Generated_Source\PSoC5/cmsis_gcc.h ****   __ASM volatile ("cpsie i" : : : "memory");
  79:Generated_Source\PSoC5/cmsis_gcc.h **** }
  80:Generated_Source\PSoC5/cmsis_gcc.h **** 
  81:Generated_Source\PSoC5/cmsis_gcc.h **** 
  82:Generated_Source\PSoC5/cmsis_gcc.h **** /**
  83:Generated_Source\PSoC5/cmsis_gcc.h ****   \brief   Disable IRQ Interrupts
  84:Generated_Source\PSoC5/cmsis_gcc.h ****   \details Disables IRQ interrupts by setting the I-bit in the CPSR.
  85:Generated_Source\PSoC5/cmsis_gcc.h ****            Can only be executed in Privileged modes.
  86:Generated_Source\PSoC5/cmsis_gcc.h ****  */
  87:Generated_Source\PSoC5/cmsis_gcc.h **** __attribute__((always_inline)) __STATIC_INLINE void __disable_irq(void)
  88:Generated_Source\PSoC5/cmsis_gcc.h **** {
  89:Generated_Source\PSoC5/cmsis_gcc.h ****   __ASM volatile ("cpsid i" : : : "memory");
ARM GAS  C:\Users\Mattia\AppData\Local\Temp\ccPC8dFz.s 			page 11


  90:Generated_Source\PSoC5/cmsis_gcc.h **** }
  91:Generated_Source\PSoC5/cmsis_gcc.h **** 
  92:Generated_Source\PSoC5/cmsis_gcc.h **** 
  93:Generated_Source\PSoC5/cmsis_gcc.h **** /**
  94:Generated_Source\PSoC5/cmsis_gcc.h ****   \brief   Get Control Register
  95:Generated_Source\PSoC5/cmsis_gcc.h ****   \details Returns the content of the Control Register.
  96:Generated_Source\PSoC5/cmsis_gcc.h ****   \return               Control Register value
  97:Generated_Source\PSoC5/cmsis_gcc.h ****  */
  98:Generated_Source\PSoC5/cmsis_gcc.h **** __attribute__((always_inline)) __STATIC_INLINE uint32_t __get_CONTROL(void)
  99:Generated_Source\PSoC5/cmsis_gcc.h **** {
 100:Generated_Source\PSoC5/cmsis_gcc.h ****   uint32_t result;
 101:Generated_Source\PSoC5/cmsis_gcc.h **** 
 102:Generated_Source\PSoC5/cmsis_gcc.h ****   __ASM volatile ("MRS %0, control" : "=r" (result) );
 103:Generated_Source\PSoC5/cmsis_gcc.h ****   return(result);
 104:Generated_Source\PSoC5/cmsis_gcc.h **** }
 105:Generated_Source\PSoC5/cmsis_gcc.h **** 
 106:Generated_Source\PSoC5/cmsis_gcc.h **** 
 107:Generated_Source\PSoC5/cmsis_gcc.h **** #if (defined (__ARM_FEATURE_CMSE ) && (__ARM_FEATURE_CMSE == 3))
 108:Generated_Source\PSoC5/cmsis_gcc.h **** /**
 109:Generated_Source\PSoC5/cmsis_gcc.h ****   \brief   Get Control Register (non-secure)
 110:Generated_Source\PSoC5/cmsis_gcc.h ****   \details Returns the content of the non-secure Control Register when in secure mode.
 111:Generated_Source\PSoC5/cmsis_gcc.h ****   \return               non-secure Control Register value
 112:Generated_Source\PSoC5/cmsis_gcc.h ****  */
 113:Generated_Source\PSoC5/cmsis_gcc.h **** __attribute__((always_inline)) __STATIC_INLINE uint32_t __TZ_get_CONTROL_NS(void)
 114:Generated_Source\PSoC5/cmsis_gcc.h **** {
 115:Generated_Source\PSoC5/cmsis_gcc.h ****   uint32_t result;
 116:Generated_Source\PSoC5/cmsis_gcc.h **** 
 117:Generated_Source\PSoC5/cmsis_gcc.h ****   __ASM volatile ("MRS %0, control_ns" : "=r" (result) );
 118:Generated_Source\PSoC5/cmsis_gcc.h ****   return(result);
 119:Generated_Source\PSoC5/cmsis_gcc.h **** }
 120:Generated_Source\PSoC5/cmsis_gcc.h **** #endif
 121:Generated_Source\PSoC5/cmsis_gcc.h **** 
 122:Generated_Source\PSoC5/cmsis_gcc.h **** 
 123:Generated_Source\PSoC5/cmsis_gcc.h **** /**
 124:Generated_Source\PSoC5/cmsis_gcc.h ****   \brief   Set Control Register
 125:Generated_Source\PSoC5/cmsis_gcc.h ****   \details Writes the given value to the Control Register.
 126:Generated_Source\PSoC5/cmsis_gcc.h ****   \param [in]    control  Control Register value to set
 127:Generated_Source\PSoC5/cmsis_gcc.h ****  */
 128:Generated_Source\PSoC5/cmsis_gcc.h **** __attribute__((always_inline)) __STATIC_INLINE void __set_CONTROL(uint32_t control)
 129:Generated_Source\PSoC5/cmsis_gcc.h **** {
 130:Generated_Source\PSoC5/cmsis_gcc.h ****   __ASM volatile ("MSR control, %0" : : "r" (control) : "memory");
 131:Generated_Source\PSoC5/cmsis_gcc.h **** }
 132:Generated_Source\PSoC5/cmsis_gcc.h **** 
 133:Generated_Source\PSoC5/cmsis_gcc.h **** 
 134:Generated_Source\PSoC5/cmsis_gcc.h **** #if (defined (__ARM_FEATURE_CMSE ) && (__ARM_FEATURE_CMSE == 3))
 135:Generated_Source\PSoC5/cmsis_gcc.h **** /**
 136:Generated_Source\PSoC5/cmsis_gcc.h ****   \brief   Set Control Register (non-secure)
 137:Generated_Source\PSoC5/cmsis_gcc.h ****   \details Writes the given value to the non-secure Control Register when in secure state.
 138:Generated_Source\PSoC5/cmsis_gcc.h ****   \param [in]    control  Control Register value to set
 139:Generated_Source\PSoC5/cmsis_gcc.h ****  */
 140:Generated_Source\PSoC5/cmsis_gcc.h **** __attribute__((always_inline)) __STATIC_INLINE void __TZ_set_CONTROL_NS(uint32_t control)
 141:Generated_Source\PSoC5/cmsis_gcc.h **** {
 142:Generated_Source\PSoC5/cmsis_gcc.h ****   __ASM volatile ("MSR control_ns, %0" : : "r" (control) : "memory");
 143:Generated_Source\PSoC5/cmsis_gcc.h **** }
 144:Generated_Source\PSoC5/cmsis_gcc.h **** #endif
 145:Generated_Source\PSoC5/cmsis_gcc.h **** 
 146:Generated_Source\PSoC5/cmsis_gcc.h **** 
ARM GAS  C:\Users\Mattia\AppData\Local\Temp\ccPC8dFz.s 			page 12


 147:Generated_Source\PSoC5/cmsis_gcc.h **** /**
 148:Generated_Source\PSoC5/cmsis_gcc.h ****   \brief   Get IPSR Register
 149:Generated_Source\PSoC5/cmsis_gcc.h ****   \details Returns the content of the IPSR Register.
 150:Generated_Source\PSoC5/cmsis_gcc.h ****   \return               IPSR Register value
 151:Generated_Source\PSoC5/cmsis_gcc.h ****  */
 152:Generated_Source\PSoC5/cmsis_gcc.h **** __attribute__((always_inline)) __STATIC_INLINE uint32_t __get_IPSR(void)
 153:Generated_Source\PSoC5/cmsis_gcc.h **** {
 154:Generated_Source\PSoC5/cmsis_gcc.h ****   uint32_t result;
 155:Generated_Source\PSoC5/cmsis_gcc.h **** 
 156:Generated_Source\PSoC5/cmsis_gcc.h ****   __ASM volatile ("MRS %0, ipsr" : "=r" (result) );
 157:Generated_Source\PSoC5/cmsis_gcc.h ****   return(result);
 158:Generated_Source\PSoC5/cmsis_gcc.h **** }
 159:Generated_Source\PSoC5/cmsis_gcc.h **** 
 160:Generated_Source\PSoC5/cmsis_gcc.h **** 
 161:Generated_Source\PSoC5/cmsis_gcc.h **** /**
 162:Generated_Source\PSoC5/cmsis_gcc.h ****   \brief   Get APSR Register
 163:Generated_Source\PSoC5/cmsis_gcc.h ****   \details Returns the content of the APSR Register.
 164:Generated_Source\PSoC5/cmsis_gcc.h ****   \return               APSR Register value
 165:Generated_Source\PSoC5/cmsis_gcc.h ****  */
 166:Generated_Source\PSoC5/cmsis_gcc.h **** __attribute__((always_inline)) __STATIC_INLINE uint32_t __get_APSR(void)
 167:Generated_Source\PSoC5/cmsis_gcc.h **** {
 168:Generated_Source\PSoC5/cmsis_gcc.h ****   uint32_t result;
 169:Generated_Source\PSoC5/cmsis_gcc.h **** 
 170:Generated_Source\PSoC5/cmsis_gcc.h ****   __ASM volatile ("MRS %0, apsr" : "=r" (result) );
 171:Generated_Source\PSoC5/cmsis_gcc.h ****   return(result);
 172:Generated_Source\PSoC5/cmsis_gcc.h **** }
 173:Generated_Source\PSoC5/cmsis_gcc.h **** 
 174:Generated_Source\PSoC5/cmsis_gcc.h **** 
 175:Generated_Source\PSoC5/cmsis_gcc.h **** /**
 176:Generated_Source\PSoC5/cmsis_gcc.h ****   \brief   Get xPSR Register
 177:Generated_Source\PSoC5/cmsis_gcc.h ****   \details Returns the content of the xPSR Register.
 178:Generated_Source\PSoC5/cmsis_gcc.h ****   \return               xPSR Register value
 179:Generated_Source\PSoC5/cmsis_gcc.h ****  */
 180:Generated_Source\PSoC5/cmsis_gcc.h **** __attribute__((always_inline)) __STATIC_INLINE uint32_t __get_xPSR(void)
 181:Generated_Source\PSoC5/cmsis_gcc.h **** {
 182:Generated_Source\PSoC5/cmsis_gcc.h ****   uint32_t result;
 183:Generated_Source\PSoC5/cmsis_gcc.h **** 
 184:Generated_Source\PSoC5/cmsis_gcc.h ****   __ASM volatile ("MRS %0, xpsr" : "=r" (result) );
 185:Generated_Source\PSoC5/cmsis_gcc.h ****   return(result);
 186:Generated_Source\PSoC5/cmsis_gcc.h **** }
 187:Generated_Source\PSoC5/cmsis_gcc.h **** 
 188:Generated_Source\PSoC5/cmsis_gcc.h **** 
 189:Generated_Source\PSoC5/cmsis_gcc.h **** /**
 190:Generated_Source\PSoC5/cmsis_gcc.h ****   \brief   Get Process Stack Pointer
 191:Generated_Source\PSoC5/cmsis_gcc.h ****   \details Returns the current value of the Process Stack Pointer (PSP).
 192:Generated_Source\PSoC5/cmsis_gcc.h ****   \return               PSP Register value
 193:Generated_Source\PSoC5/cmsis_gcc.h ****  */
 194:Generated_Source\PSoC5/cmsis_gcc.h **** __attribute__((always_inline)) __STATIC_INLINE uint32_t __get_PSP(void)
 195:Generated_Source\PSoC5/cmsis_gcc.h **** {
 196:Generated_Source\PSoC5/cmsis_gcc.h ****   register uint32_t result;
 197:Generated_Source\PSoC5/cmsis_gcc.h **** 
 198:Generated_Source\PSoC5/cmsis_gcc.h ****   __ASM volatile ("MRS %0, psp"  : "=r" (result) );
 199:Generated_Source\PSoC5/cmsis_gcc.h ****   return(result);
 200:Generated_Source\PSoC5/cmsis_gcc.h **** }
 201:Generated_Source\PSoC5/cmsis_gcc.h **** 
 202:Generated_Source\PSoC5/cmsis_gcc.h **** 
 203:Generated_Source\PSoC5/cmsis_gcc.h **** #if (defined (__ARM_FEATURE_CMSE ) && (__ARM_FEATURE_CMSE == 3))
ARM GAS  C:\Users\Mattia\AppData\Local\Temp\ccPC8dFz.s 			page 13


 204:Generated_Source\PSoC5/cmsis_gcc.h **** /**
 205:Generated_Source\PSoC5/cmsis_gcc.h ****   \brief   Get Process Stack Pointer (non-secure)
 206:Generated_Source\PSoC5/cmsis_gcc.h ****   \details Returns the current value of the non-secure Process Stack Pointer (PSP) when in secure s
 207:Generated_Source\PSoC5/cmsis_gcc.h ****   \return               PSP Register value
 208:Generated_Source\PSoC5/cmsis_gcc.h ****  */
 209:Generated_Source\PSoC5/cmsis_gcc.h **** __attribute__((always_inline)) __STATIC_INLINE uint32_t __TZ_get_PSP_NS(void)
 210:Generated_Source\PSoC5/cmsis_gcc.h **** {
 211:Generated_Source\PSoC5/cmsis_gcc.h ****   register uint32_t result;
 212:Generated_Source\PSoC5/cmsis_gcc.h **** 
 213:Generated_Source\PSoC5/cmsis_gcc.h ****   __ASM volatile ("MRS %0, psp_ns"  : "=r" (result) );
 214:Generated_Source\PSoC5/cmsis_gcc.h ****   return(result);
 215:Generated_Source\PSoC5/cmsis_gcc.h **** }
 216:Generated_Source\PSoC5/cmsis_gcc.h **** #endif
 217:Generated_Source\PSoC5/cmsis_gcc.h **** 
 218:Generated_Source\PSoC5/cmsis_gcc.h **** 
 219:Generated_Source\PSoC5/cmsis_gcc.h **** /**
 220:Generated_Source\PSoC5/cmsis_gcc.h ****   \brief   Set Process Stack Pointer
 221:Generated_Source\PSoC5/cmsis_gcc.h ****   \details Assigns the given value to the Process Stack Pointer (PSP).
 222:Generated_Source\PSoC5/cmsis_gcc.h ****   \param [in]    topOfProcStack  Process Stack Pointer value to set
 223:Generated_Source\PSoC5/cmsis_gcc.h ****  */
 224:Generated_Source\PSoC5/cmsis_gcc.h **** __attribute__((always_inline)) __STATIC_INLINE void __set_PSP(uint32_t topOfProcStack)
 225:Generated_Source\PSoC5/cmsis_gcc.h **** {
 226:Generated_Source\PSoC5/cmsis_gcc.h ****   __ASM volatile ("MSR psp, %0" : : "r" (topOfProcStack) : "sp");
 227:Generated_Source\PSoC5/cmsis_gcc.h **** }
 228:Generated_Source\PSoC5/cmsis_gcc.h **** 
 229:Generated_Source\PSoC5/cmsis_gcc.h **** 
 230:Generated_Source\PSoC5/cmsis_gcc.h **** #if (defined (__ARM_FEATURE_CMSE ) && (__ARM_FEATURE_CMSE == 3))
 231:Generated_Source\PSoC5/cmsis_gcc.h **** /**
 232:Generated_Source\PSoC5/cmsis_gcc.h ****   \brief   Set Process Stack Pointer (non-secure)
 233:Generated_Source\PSoC5/cmsis_gcc.h ****   \details Assigns the given value to the non-secure Process Stack Pointer (PSP) when in secure sta
 234:Generated_Source\PSoC5/cmsis_gcc.h ****   \param [in]    topOfProcStack  Process Stack Pointer value to set
 235:Generated_Source\PSoC5/cmsis_gcc.h ****  */
 236:Generated_Source\PSoC5/cmsis_gcc.h **** __attribute__((always_inline)) __STATIC_INLINE void __TZ_set_PSP_NS(uint32_t topOfProcStack)
 237:Generated_Source\PSoC5/cmsis_gcc.h **** {
 238:Generated_Source\PSoC5/cmsis_gcc.h ****   __ASM volatile ("MSR psp_ns, %0" : : "r" (topOfProcStack) : "sp");
 239:Generated_Source\PSoC5/cmsis_gcc.h **** }
 240:Generated_Source\PSoC5/cmsis_gcc.h **** #endif
 241:Generated_Source\PSoC5/cmsis_gcc.h **** 
 242:Generated_Source\PSoC5/cmsis_gcc.h **** 
 243:Generated_Source\PSoC5/cmsis_gcc.h **** /**
 244:Generated_Source\PSoC5/cmsis_gcc.h ****   \brief   Get Main Stack Pointer
 245:Generated_Source\PSoC5/cmsis_gcc.h ****   \details Returns the current value of the Main Stack Pointer (MSP).
 246:Generated_Source\PSoC5/cmsis_gcc.h ****   \return               MSP Register value
 247:Generated_Source\PSoC5/cmsis_gcc.h ****  */
 248:Generated_Source\PSoC5/cmsis_gcc.h **** __attribute__((always_inline)) __STATIC_INLINE uint32_t __get_MSP(void)
 249:Generated_Source\PSoC5/cmsis_gcc.h **** {
 250:Generated_Source\PSoC5/cmsis_gcc.h ****   register uint32_t result;
 251:Generated_Source\PSoC5/cmsis_gcc.h **** 
 252:Generated_Source\PSoC5/cmsis_gcc.h ****   __ASM volatile ("MRS %0, msp" : "=r" (result) );
 253:Generated_Source\PSoC5/cmsis_gcc.h ****   return(result);
 254:Generated_Source\PSoC5/cmsis_gcc.h **** }
 255:Generated_Source\PSoC5/cmsis_gcc.h **** 
 256:Generated_Source\PSoC5/cmsis_gcc.h **** 
 257:Generated_Source\PSoC5/cmsis_gcc.h **** #if (defined (__ARM_FEATURE_CMSE ) && (__ARM_FEATURE_CMSE == 3))
 258:Generated_Source\PSoC5/cmsis_gcc.h **** /**
 259:Generated_Source\PSoC5/cmsis_gcc.h ****   \brief   Get Main Stack Pointer (non-secure)
 260:Generated_Source\PSoC5/cmsis_gcc.h ****   \details Returns the current value of the non-secure Main Stack Pointer (MSP) when in secure stat
ARM GAS  C:\Users\Mattia\AppData\Local\Temp\ccPC8dFz.s 			page 14


 261:Generated_Source\PSoC5/cmsis_gcc.h ****   \return               MSP Register value
 262:Generated_Source\PSoC5/cmsis_gcc.h ****  */
 263:Generated_Source\PSoC5/cmsis_gcc.h **** __attribute__((always_inline)) __STATIC_INLINE uint32_t __TZ_get_MSP_NS(void)
 264:Generated_Source\PSoC5/cmsis_gcc.h **** {
 265:Generated_Source\PSoC5/cmsis_gcc.h ****   register uint32_t result;
 266:Generated_Source\PSoC5/cmsis_gcc.h **** 
 267:Generated_Source\PSoC5/cmsis_gcc.h ****   __ASM volatile ("MRS %0, msp_ns" : "=r" (result) );
 268:Generated_Source\PSoC5/cmsis_gcc.h ****   return(result);
 269:Generated_Source\PSoC5/cmsis_gcc.h **** }
 270:Generated_Source\PSoC5/cmsis_gcc.h **** #endif
 271:Generated_Source\PSoC5/cmsis_gcc.h **** 
 272:Generated_Source\PSoC5/cmsis_gcc.h **** 
 273:Generated_Source\PSoC5/cmsis_gcc.h **** /**
 274:Generated_Source\PSoC5/cmsis_gcc.h ****   \brief   Set Main Stack Pointer
 275:Generated_Source\PSoC5/cmsis_gcc.h ****   \details Assigns the given value to the Main Stack Pointer (MSP).
 276:Generated_Source\PSoC5/cmsis_gcc.h ****   \param [in]    topOfMainStack  Main Stack Pointer value to set
 277:Generated_Source\PSoC5/cmsis_gcc.h ****  */
 278:Generated_Source\PSoC5/cmsis_gcc.h **** __attribute__((always_inline)) __STATIC_INLINE void __set_MSP(uint32_t topOfMainStack)
 279:Generated_Source\PSoC5/cmsis_gcc.h **** {
 280:Generated_Source\PSoC5/cmsis_gcc.h ****   __ASM volatile ("MSR msp, %0" : : "r" (topOfMainStack) : "sp");
 281:Generated_Source\PSoC5/cmsis_gcc.h **** }
 282:Generated_Source\PSoC5/cmsis_gcc.h **** 
 283:Generated_Source\PSoC5/cmsis_gcc.h **** 
 284:Generated_Source\PSoC5/cmsis_gcc.h **** #if (defined (__ARM_FEATURE_CMSE ) && (__ARM_FEATURE_CMSE == 3))
 285:Generated_Source\PSoC5/cmsis_gcc.h **** /**
 286:Generated_Source\PSoC5/cmsis_gcc.h ****   \brief   Set Main Stack Pointer (non-secure)
 287:Generated_Source\PSoC5/cmsis_gcc.h ****   \details Assigns the given value to the non-secure Main Stack Pointer (MSP) when in secure state.
 288:Generated_Source\PSoC5/cmsis_gcc.h ****   \param [in]    topOfMainStack  Main Stack Pointer value to set
 289:Generated_Source\PSoC5/cmsis_gcc.h ****  */
 290:Generated_Source\PSoC5/cmsis_gcc.h **** __attribute__((always_inline)) __STATIC_INLINE void __TZ_set_MSP_NS(uint32_t topOfMainStack)
 291:Generated_Source\PSoC5/cmsis_gcc.h **** {
 292:Generated_Source\PSoC5/cmsis_gcc.h ****   __ASM volatile ("MSR msp_ns, %0" : : "r" (topOfMainStack) : "sp");
 293:Generated_Source\PSoC5/cmsis_gcc.h **** }
 294:Generated_Source\PSoC5/cmsis_gcc.h **** #endif
 295:Generated_Source\PSoC5/cmsis_gcc.h **** 
 296:Generated_Source\PSoC5/cmsis_gcc.h **** 
 297:Generated_Source\PSoC5/cmsis_gcc.h **** /**
 298:Generated_Source\PSoC5/cmsis_gcc.h ****   \brief   Get Priority Mask
 299:Generated_Source\PSoC5/cmsis_gcc.h ****   \details Returns the current state of the priority mask bit from the Priority Mask Register.
 300:Generated_Source\PSoC5/cmsis_gcc.h ****   \return               Priority Mask value
 301:Generated_Source\PSoC5/cmsis_gcc.h ****  */
 302:Generated_Source\PSoC5/cmsis_gcc.h **** __attribute__((always_inline)) __STATIC_INLINE uint32_t __get_PRIMASK(void)
 303:Generated_Source\PSoC5/cmsis_gcc.h **** {
 304:Generated_Source\PSoC5/cmsis_gcc.h ****   uint32_t result;
 305:Generated_Source\PSoC5/cmsis_gcc.h **** 
 306:Generated_Source\PSoC5/cmsis_gcc.h ****   __ASM volatile ("MRS %0, primask" : "=r" (result) );
 307:Generated_Source\PSoC5/cmsis_gcc.h ****   return(result);
 308:Generated_Source\PSoC5/cmsis_gcc.h **** }
 309:Generated_Source\PSoC5/cmsis_gcc.h **** 
 310:Generated_Source\PSoC5/cmsis_gcc.h **** 
 311:Generated_Source\PSoC5/cmsis_gcc.h **** #if (defined (__ARM_FEATURE_CMSE ) && (__ARM_FEATURE_CMSE == 3))
 312:Generated_Source\PSoC5/cmsis_gcc.h **** /**
 313:Generated_Source\PSoC5/cmsis_gcc.h ****   \brief   Get Priority Mask (non-secure)
 314:Generated_Source\PSoC5/cmsis_gcc.h ****   \details Returns the current state of the non-secure priority mask bit from the Priority Mask Reg
 315:Generated_Source\PSoC5/cmsis_gcc.h ****   \return               Priority Mask value
 316:Generated_Source\PSoC5/cmsis_gcc.h ****  */
 317:Generated_Source\PSoC5/cmsis_gcc.h **** __attribute__((always_inline)) __STATIC_INLINE uint32_t __TZ_get_PRIMASK_NS(void)
ARM GAS  C:\Users\Mattia\AppData\Local\Temp\ccPC8dFz.s 			page 15


 318:Generated_Source\PSoC5/cmsis_gcc.h **** {
 319:Generated_Source\PSoC5/cmsis_gcc.h ****   uint32_t result;
 320:Generated_Source\PSoC5/cmsis_gcc.h **** 
 321:Generated_Source\PSoC5/cmsis_gcc.h ****   __ASM volatile ("MRS %0, primask_ns" : "=r" (result) );
 322:Generated_Source\PSoC5/cmsis_gcc.h ****   return(result);
 323:Generated_Source\PSoC5/cmsis_gcc.h **** }
 324:Generated_Source\PSoC5/cmsis_gcc.h **** #endif
 325:Generated_Source\PSoC5/cmsis_gcc.h **** 
 326:Generated_Source\PSoC5/cmsis_gcc.h **** 
 327:Generated_Source\PSoC5/cmsis_gcc.h **** /**
 328:Generated_Source\PSoC5/cmsis_gcc.h ****   \brief   Set Priority Mask
 329:Generated_Source\PSoC5/cmsis_gcc.h ****   \details Assigns the given value to the Priority Mask Register.
 330:Generated_Source\PSoC5/cmsis_gcc.h ****   \param [in]    priMask  Priority Mask
 331:Generated_Source\PSoC5/cmsis_gcc.h ****  */
 332:Generated_Source\PSoC5/cmsis_gcc.h **** __attribute__((always_inline)) __STATIC_INLINE void __set_PRIMASK(uint32_t priMask)
 333:Generated_Source\PSoC5/cmsis_gcc.h **** {
 334:Generated_Source\PSoC5/cmsis_gcc.h ****   __ASM volatile ("MSR primask, %0" : : "r" (priMask) : "memory");
 335:Generated_Source\PSoC5/cmsis_gcc.h **** }
 336:Generated_Source\PSoC5/cmsis_gcc.h **** 
 337:Generated_Source\PSoC5/cmsis_gcc.h **** 
 338:Generated_Source\PSoC5/cmsis_gcc.h **** #if (defined (__ARM_FEATURE_CMSE ) && (__ARM_FEATURE_CMSE == 3))
 339:Generated_Source\PSoC5/cmsis_gcc.h **** /**
 340:Generated_Source\PSoC5/cmsis_gcc.h ****   \brief   Set Priority Mask (non-secure)
 341:Generated_Source\PSoC5/cmsis_gcc.h ****   \details Assigns the given value to the non-secure Priority Mask Register when in secure state.
 342:Generated_Source\PSoC5/cmsis_gcc.h ****   \param [in]    priMask  Priority Mask
 343:Generated_Source\PSoC5/cmsis_gcc.h ****  */
 344:Generated_Source\PSoC5/cmsis_gcc.h **** __attribute__((always_inline)) __STATIC_INLINE void __TZ_set_PRIMASK_NS(uint32_t priMask)
 345:Generated_Source\PSoC5/cmsis_gcc.h **** {
 346:Generated_Source\PSoC5/cmsis_gcc.h ****   __ASM volatile ("MSR primask_ns, %0" : : "r" (priMask) : "memory");
 347:Generated_Source\PSoC5/cmsis_gcc.h **** }
 348:Generated_Source\PSoC5/cmsis_gcc.h **** #endif
 349:Generated_Source\PSoC5/cmsis_gcc.h **** 
 350:Generated_Source\PSoC5/cmsis_gcc.h **** 
 351:Generated_Source\PSoC5/cmsis_gcc.h **** #if ((defined (__ARM_ARCH_7M__      ) && (__ARM_ARCH_7M__      == 1)) || \
 352:Generated_Source\PSoC5/cmsis_gcc.h ****      (defined (__ARM_ARCH_7EM__     ) && (__ARM_ARCH_7EM__     == 1)) || \
 353:Generated_Source\PSoC5/cmsis_gcc.h ****      (defined (__ARM_ARCH_8M_MAIN__ ) && (__ARM_ARCH_8M_MAIN__ == 1))    )
 354:Generated_Source\PSoC5/cmsis_gcc.h **** /**
 355:Generated_Source\PSoC5/cmsis_gcc.h ****   \brief   Enable FIQ
 356:Generated_Source\PSoC5/cmsis_gcc.h ****   \details Enables FIQ interrupts by clearing the F-bit in the CPSR.
 357:Generated_Source\PSoC5/cmsis_gcc.h ****            Can only be executed in Privileged modes.
 358:Generated_Source\PSoC5/cmsis_gcc.h ****  */
 359:Generated_Source\PSoC5/cmsis_gcc.h **** __attribute__((always_inline)) __STATIC_INLINE void __enable_fault_irq(void)
 360:Generated_Source\PSoC5/cmsis_gcc.h **** {
 361:Generated_Source\PSoC5/cmsis_gcc.h ****   __ASM volatile ("cpsie f" : : : "memory");
 362:Generated_Source\PSoC5/cmsis_gcc.h **** }
 363:Generated_Source\PSoC5/cmsis_gcc.h **** 
 364:Generated_Source\PSoC5/cmsis_gcc.h **** 
 365:Generated_Source\PSoC5/cmsis_gcc.h **** /**
 366:Generated_Source\PSoC5/cmsis_gcc.h ****   \brief   Disable FIQ
 367:Generated_Source\PSoC5/cmsis_gcc.h ****   \details Disables FIQ interrupts by setting the F-bit in the CPSR.
 368:Generated_Source\PSoC5/cmsis_gcc.h ****            Can only be executed in Privileged modes.
 369:Generated_Source\PSoC5/cmsis_gcc.h ****  */
 370:Generated_Source\PSoC5/cmsis_gcc.h **** __attribute__((always_inline)) __STATIC_INLINE void __disable_fault_irq(void)
 371:Generated_Source\PSoC5/cmsis_gcc.h **** {
 372:Generated_Source\PSoC5/cmsis_gcc.h ****   __ASM volatile ("cpsid f" : : : "memory");
 373:Generated_Source\PSoC5/cmsis_gcc.h **** }
 374:Generated_Source\PSoC5/cmsis_gcc.h **** 
ARM GAS  C:\Users\Mattia\AppData\Local\Temp\ccPC8dFz.s 			page 16


 375:Generated_Source\PSoC5/cmsis_gcc.h **** 
 376:Generated_Source\PSoC5/cmsis_gcc.h **** /**
 377:Generated_Source\PSoC5/cmsis_gcc.h ****   \brief   Get Base Priority
 378:Generated_Source\PSoC5/cmsis_gcc.h ****   \details Returns the current value of the Base Priority register.
 379:Generated_Source\PSoC5/cmsis_gcc.h ****   \return               Base Priority register value
 380:Generated_Source\PSoC5/cmsis_gcc.h ****  */
 381:Generated_Source\PSoC5/cmsis_gcc.h **** __attribute__((always_inline)) __STATIC_INLINE uint32_t __get_BASEPRI(void)
 382:Generated_Source\PSoC5/cmsis_gcc.h **** {
 383:Generated_Source\PSoC5/cmsis_gcc.h ****   uint32_t result;
 384:Generated_Source\PSoC5/cmsis_gcc.h **** 
 385:Generated_Source\PSoC5/cmsis_gcc.h ****   __ASM volatile ("MRS %0, basepri" : "=r" (result) );
 386:Generated_Source\PSoC5/cmsis_gcc.h ****   return(result);
 387:Generated_Source\PSoC5/cmsis_gcc.h **** }
 388:Generated_Source\PSoC5/cmsis_gcc.h **** 
 389:Generated_Source\PSoC5/cmsis_gcc.h **** 
 390:Generated_Source\PSoC5/cmsis_gcc.h **** #if (defined (__ARM_FEATURE_CMSE ) && (__ARM_FEATURE_CMSE == 3))
 391:Generated_Source\PSoC5/cmsis_gcc.h **** /**
 392:Generated_Source\PSoC5/cmsis_gcc.h ****   \brief   Get Base Priority (non-secure)
 393:Generated_Source\PSoC5/cmsis_gcc.h ****   \details Returns the current value of the non-secure Base Priority register when in secure state.
 394:Generated_Source\PSoC5/cmsis_gcc.h ****   \return               Base Priority register value
 395:Generated_Source\PSoC5/cmsis_gcc.h ****  */
 396:Generated_Source\PSoC5/cmsis_gcc.h **** __attribute__((always_inline)) __STATIC_INLINE uint32_t __TZ_get_BASEPRI_NS(void)
 397:Generated_Source\PSoC5/cmsis_gcc.h **** {
 398:Generated_Source\PSoC5/cmsis_gcc.h ****   uint32_t result;
 399:Generated_Source\PSoC5/cmsis_gcc.h **** 
 400:Generated_Source\PSoC5/cmsis_gcc.h ****   __ASM volatile ("MRS %0, basepri_ns" : "=r" (result) );
 401:Generated_Source\PSoC5/cmsis_gcc.h ****   return(result);
 402:Generated_Source\PSoC5/cmsis_gcc.h **** }
 403:Generated_Source\PSoC5/cmsis_gcc.h **** #endif
 404:Generated_Source\PSoC5/cmsis_gcc.h **** 
 405:Generated_Source\PSoC5/cmsis_gcc.h **** 
 406:Generated_Source\PSoC5/cmsis_gcc.h **** /**
 407:Generated_Source\PSoC5/cmsis_gcc.h ****   \brief   Set Base Priority
 408:Generated_Source\PSoC5/cmsis_gcc.h ****   \details Assigns the given value to the Base Priority register.
 409:Generated_Source\PSoC5/cmsis_gcc.h ****   \param [in]    basePri  Base Priority value to set
 410:Generated_Source\PSoC5/cmsis_gcc.h ****  */
 411:Generated_Source\PSoC5/cmsis_gcc.h **** __attribute__((always_inline)) __STATIC_INLINE void __set_BASEPRI(uint32_t basePri)
 412:Generated_Source\PSoC5/cmsis_gcc.h **** {
 413:Generated_Source\PSoC5/cmsis_gcc.h ****   __ASM volatile ("MSR basepri, %0" : : "r" (basePri) : "memory");
 414:Generated_Source\PSoC5/cmsis_gcc.h **** }
 415:Generated_Source\PSoC5/cmsis_gcc.h **** 
 416:Generated_Source\PSoC5/cmsis_gcc.h **** 
 417:Generated_Source\PSoC5/cmsis_gcc.h **** #if (defined (__ARM_FEATURE_CMSE ) && (__ARM_FEATURE_CMSE == 3))
 418:Generated_Source\PSoC5/cmsis_gcc.h **** /**
 419:Generated_Source\PSoC5/cmsis_gcc.h ****   \brief   Set Base Priority (non-secure)
 420:Generated_Source\PSoC5/cmsis_gcc.h ****   \details Assigns the given value to the non-secure Base Priority register when in secure state.
 421:Generated_Source\PSoC5/cmsis_gcc.h ****   \param [in]    basePri  Base Priority value to set
 422:Generated_Source\PSoC5/cmsis_gcc.h ****  */
 423:Generated_Source\PSoC5/cmsis_gcc.h **** __attribute__((always_inline)) __STATIC_INLINE void __TZ_set_BASEPRI_NS(uint32_t basePri)
 424:Generated_Source\PSoC5/cmsis_gcc.h **** {
 425:Generated_Source\PSoC5/cmsis_gcc.h ****   __ASM volatile ("MSR basepri_ns, %0" : : "r" (basePri) : "memory");
 426:Generated_Source\PSoC5/cmsis_gcc.h **** }
 427:Generated_Source\PSoC5/cmsis_gcc.h **** #endif
 428:Generated_Source\PSoC5/cmsis_gcc.h **** 
 429:Generated_Source\PSoC5/cmsis_gcc.h **** 
 430:Generated_Source\PSoC5/cmsis_gcc.h **** /**
 431:Generated_Source\PSoC5/cmsis_gcc.h ****   \brief   Set Base Priority with condition
ARM GAS  C:\Users\Mattia\AppData\Local\Temp\ccPC8dFz.s 			page 17


 432:Generated_Source\PSoC5/cmsis_gcc.h ****   \details Assigns the given value to the Base Priority register only if BASEPRI masking is disable
 433:Generated_Source\PSoC5/cmsis_gcc.h ****            or the new value increases the BASEPRI priority level.
 434:Generated_Source\PSoC5/cmsis_gcc.h ****   \param [in]    basePri  Base Priority value to set
 435:Generated_Source\PSoC5/cmsis_gcc.h ****  */
 436:Generated_Source\PSoC5/cmsis_gcc.h **** __attribute__((always_inline)) __STATIC_INLINE void __set_BASEPRI_MAX(uint32_t basePri)
 437:Generated_Source\PSoC5/cmsis_gcc.h **** {
 438:Generated_Source\PSoC5/cmsis_gcc.h ****   __ASM volatile ("MSR basepri_max, %0" : : "r" (basePri) : "memory");
 439:Generated_Source\PSoC5/cmsis_gcc.h **** }
 440:Generated_Source\PSoC5/cmsis_gcc.h **** 
 441:Generated_Source\PSoC5/cmsis_gcc.h **** 
 442:Generated_Source\PSoC5/cmsis_gcc.h **** /**
 443:Generated_Source\PSoC5/cmsis_gcc.h ****   \brief   Get Fault Mask
 444:Generated_Source\PSoC5/cmsis_gcc.h ****   \details Returns the current value of the Fault Mask register.
 445:Generated_Source\PSoC5/cmsis_gcc.h ****   \return               Fault Mask register value
 446:Generated_Source\PSoC5/cmsis_gcc.h ****  */
 447:Generated_Source\PSoC5/cmsis_gcc.h **** __attribute__((always_inline)) __STATIC_INLINE uint32_t __get_FAULTMASK(void)
 448:Generated_Source\PSoC5/cmsis_gcc.h **** {
 449:Generated_Source\PSoC5/cmsis_gcc.h ****   uint32_t result;
 450:Generated_Source\PSoC5/cmsis_gcc.h **** 
 451:Generated_Source\PSoC5/cmsis_gcc.h ****   __ASM volatile ("MRS %0, faultmask" : "=r" (result) );
 452:Generated_Source\PSoC5/cmsis_gcc.h ****   return(result);
 453:Generated_Source\PSoC5/cmsis_gcc.h **** }
 454:Generated_Source\PSoC5/cmsis_gcc.h **** 
 455:Generated_Source\PSoC5/cmsis_gcc.h **** 
 456:Generated_Source\PSoC5/cmsis_gcc.h **** #if (defined (__ARM_FEATURE_CMSE ) && (__ARM_FEATURE_CMSE == 3))
 457:Generated_Source\PSoC5/cmsis_gcc.h **** /**
 458:Generated_Source\PSoC5/cmsis_gcc.h ****   \brief   Get Fault Mask (non-secure)
 459:Generated_Source\PSoC5/cmsis_gcc.h ****   \details Returns the current value of the non-secure Fault Mask register when in secure state.
 460:Generated_Source\PSoC5/cmsis_gcc.h ****   \return               Fault Mask register value
 461:Generated_Source\PSoC5/cmsis_gcc.h ****  */
 462:Generated_Source\PSoC5/cmsis_gcc.h **** __attribute__((always_inline)) __STATIC_INLINE uint32_t __TZ_get_FAULTMASK_NS(void)
 463:Generated_Source\PSoC5/cmsis_gcc.h **** {
 464:Generated_Source\PSoC5/cmsis_gcc.h ****   uint32_t result;
 465:Generated_Source\PSoC5/cmsis_gcc.h **** 
 466:Generated_Source\PSoC5/cmsis_gcc.h ****   __ASM volatile ("MRS %0, faultmask_ns" : "=r" (result) );
 467:Generated_Source\PSoC5/cmsis_gcc.h ****   return(result);
 468:Generated_Source\PSoC5/cmsis_gcc.h **** }
 469:Generated_Source\PSoC5/cmsis_gcc.h **** #endif
 470:Generated_Source\PSoC5/cmsis_gcc.h **** 
 471:Generated_Source\PSoC5/cmsis_gcc.h **** 
 472:Generated_Source\PSoC5/cmsis_gcc.h **** /**
 473:Generated_Source\PSoC5/cmsis_gcc.h ****   \brief   Set Fault Mask
 474:Generated_Source\PSoC5/cmsis_gcc.h ****   \details Assigns the given value to the Fault Mask register.
 475:Generated_Source\PSoC5/cmsis_gcc.h ****   \param [in]    faultMask  Fault Mask value to set
 476:Generated_Source\PSoC5/cmsis_gcc.h ****  */
 477:Generated_Source\PSoC5/cmsis_gcc.h **** __attribute__((always_inline)) __STATIC_INLINE void __set_FAULTMASK(uint32_t faultMask)
 478:Generated_Source\PSoC5/cmsis_gcc.h **** {
 479:Generated_Source\PSoC5/cmsis_gcc.h ****   __ASM volatile ("MSR faultmask, %0" : : "r" (faultMask) : "memory");
 480:Generated_Source\PSoC5/cmsis_gcc.h **** }
 481:Generated_Source\PSoC5/cmsis_gcc.h **** 
 482:Generated_Source\PSoC5/cmsis_gcc.h **** 
 483:Generated_Source\PSoC5/cmsis_gcc.h **** #if (defined (__ARM_FEATURE_CMSE ) && (__ARM_FEATURE_CMSE == 3))
 484:Generated_Source\PSoC5/cmsis_gcc.h **** /**
 485:Generated_Source\PSoC5/cmsis_gcc.h ****   \brief   Set Fault Mask (non-secure)
 486:Generated_Source\PSoC5/cmsis_gcc.h ****   \details Assigns the given value to the non-secure Fault Mask register when in secure state.
 487:Generated_Source\PSoC5/cmsis_gcc.h ****   \param [in]    faultMask  Fault Mask value to set
 488:Generated_Source\PSoC5/cmsis_gcc.h ****  */
ARM GAS  C:\Users\Mattia\AppData\Local\Temp\ccPC8dFz.s 			page 18


 489:Generated_Source\PSoC5/cmsis_gcc.h **** __attribute__((always_inline)) __STATIC_INLINE void __TZ_set_FAULTMASK_NS(uint32_t faultMask)
 490:Generated_Source\PSoC5/cmsis_gcc.h **** {
 491:Generated_Source\PSoC5/cmsis_gcc.h ****   __ASM volatile ("MSR faultmask_ns, %0" : : "r" (faultMask) : "memory");
 492:Generated_Source\PSoC5/cmsis_gcc.h **** }
 493:Generated_Source\PSoC5/cmsis_gcc.h **** #endif
 494:Generated_Source\PSoC5/cmsis_gcc.h **** 
 495:Generated_Source\PSoC5/cmsis_gcc.h **** #endif /* ((defined (__ARM_ARCH_7M__      ) && (__ARM_ARCH_7M__      == 1)) || \
 496:Generated_Source\PSoC5/cmsis_gcc.h ****            (defined (__ARM_ARCH_7EM__     ) && (__ARM_ARCH_7EM__     == 1)) || \
 497:Generated_Source\PSoC5/cmsis_gcc.h ****            (defined (__ARM_ARCH_8M_MAIN__ ) && (__ARM_ARCH_8M_MAIN__ == 1))    ) */
 498:Generated_Source\PSoC5/cmsis_gcc.h **** 
 499:Generated_Source\PSoC5/cmsis_gcc.h **** 
 500:Generated_Source\PSoC5/cmsis_gcc.h **** #if ((defined (__ARM_ARCH_8M_MAIN__ ) && (__ARM_ARCH_8M_MAIN__ == 1U)) || \
 501:Generated_Source\PSoC5/cmsis_gcc.h ****      (defined (__ARM_ARCH_8M_BASE__ ) && (__ARM_ARCH_8M_BASE__ == 1U))    )
 502:Generated_Source\PSoC5/cmsis_gcc.h **** 
 503:Generated_Source\PSoC5/cmsis_gcc.h **** /**
 504:Generated_Source\PSoC5/cmsis_gcc.h ****   \brief   Get Process Stack Pointer Limit
 505:Generated_Source\PSoC5/cmsis_gcc.h ****   \details Returns the current value of the Process Stack Pointer Limit (PSPLIM).
 506:Generated_Source\PSoC5/cmsis_gcc.h ****   \return               PSPLIM Register value
 507:Generated_Source\PSoC5/cmsis_gcc.h ****  */
 508:Generated_Source\PSoC5/cmsis_gcc.h **** __attribute__((always_inline)) __STATIC_INLINE uint32_t __get_PSPLIM(void)
 509:Generated_Source\PSoC5/cmsis_gcc.h **** {
 510:Generated_Source\PSoC5/cmsis_gcc.h ****   register uint32_t result;
 511:Generated_Source\PSoC5/cmsis_gcc.h **** 
 512:Generated_Source\PSoC5/cmsis_gcc.h ****   __ASM volatile ("MRS %0, psplim"  : "=r" (result) );
 513:Generated_Source\PSoC5/cmsis_gcc.h ****   return(result);
 514:Generated_Source\PSoC5/cmsis_gcc.h **** }
 515:Generated_Source\PSoC5/cmsis_gcc.h **** 
 516:Generated_Source\PSoC5/cmsis_gcc.h **** 
 517:Generated_Source\PSoC5/cmsis_gcc.h **** #if ((defined (__ARM_FEATURE_CMSE  ) && (__ARM_FEATURE_CMSE   == 3)) && \
 518:Generated_Source\PSoC5/cmsis_gcc.h ****      (defined (__ARM_ARCH_8M_MAIN__) && (__ARM_ARCH_8M_MAIN__ == 1))    )
 519:Generated_Source\PSoC5/cmsis_gcc.h **** /**
 520:Generated_Source\PSoC5/cmsis_gcc.h ****   \brief   Get Process Stack Pointer Limit (non-secure)
 521:Generated_Source\PSoC5/cmsis_gcc.h ****   \details Returns the current value of the non-secure Process Stack Pointer Limit (PSPLIM) when in
 522:Generated_Source\PSoC5/cmsis_gcc.h ****   \return               PSPLIM Register value
 523:Generated_Source\PSoC5/cmsis_gcc.h ****  */
 524:Generated_Source\PSoC5/cmsis_gcc.h **** __attribute__((always_inline)) __STATIC_INLINE uint32_t __TZ_get_PSPLIM_NS(void)
 525:Generated_Source\PSoC5/cmsis_gcc.h **** {
 526:Generated_Source\PSoC5/cmsis_gcc.h ****   register uint32_t result;
 527:Generated_Source\PSoC5/cmsis_gcc.h **** 
 528:Generated_Source\PSoC5/cmsis_gcc.h ****   __ASM volatile ("MRS %0, psplim_ns"  : "=r" (result) );
 529:Generated_Source\PSoC5/cmsis_gcc.h ****   return(result);
 530:Generated_Source\PSoC5/cmsis_gcc.h **** }
 531:Generated_Source\PSoC5/cmsis_gcc.h **** #endif
 532:Generated_Source\PSoC5/cmsis_gcc.h **** 
 533:Generated_Source\PSoC5/cmsis_gcc.h **** 
 534:Generated_Source\PSoC5/cmsis_gcc.h **** /**
 535:Generated_Source\PSoC5/cmsis_gcc.h ****   \brief   Set Process Stack Pointer Limit
 536:Generated_Source\PSoC5/cmsis_gcc.h ****   \details Assigns the given value to the Process Stack Pointer Limit (PSPLIM).
 537:Generated_Source\PSoC5/cmsis_gcc.h ****   \param [in]    ProcStackPtrLimit  Process Stack Pointer Limit value to set
 538:Generated_Source\PSoC5/cmsis_gcc.h ****  */
 539:Generated_Source\PSoC5/cmsis_gcc.h **** __attribute__((always_inline)) __STATIC_INLINE void __set_PSPLIM(uint32_t ProcStackPtrLimit)
 540:Generated_Source\PSoC5/cmsis_gcc.h **** {
 541:Generated_Source\PSoC5/cmsis_gcc.h ****   __ASM volatile ("MSR psplim, %0" : : "r" (ProcStackPtrLimit));
 542:Generated_Source\PSoC5/cmsis_gcc.h **** }
 543:Generated_Source\PSoC5/cmsis_gcc.h **** 
 544:Generated_Source\PSoC5/cmsis_gcc.h **** 
 545:Generated_Source\PSoC5/cmsis_gcc.h **** #if ((defined (__ARM_FEATURE_CMSE  ) && (__ARM_FEATURE_CMSE   == 3)) && \
ARM GAS  C:\Users\Mattia\AppData\Local\Temp\ccPC8dFz.s 			page 19


 546:Generated_Source\PSoC5/cmsis_gcc.h ****      (defined (__ARM_ARCH_8M_MAIN__) && (__ARM_ARCH_8M_MAIN__ == 1))    )
 547:Generated_Source\PSoC5/cmsis_gcc.h **** /**
 548:Generated_Source\PSoC5/cmsis_gcc.h ****   \brief   Set Process Stack Pointer (non-secure)
 549:Generated_Source\PSoC5/cmsis_gcc.h ****   \details Assigns the given value to the non-secure Process Stack Pointer Limit (PSPLIM) when in s
 550:Generated_Source\PSoC5/cmsis_gcc.h ****   \param [in]    ProcStackPtrLimit  Process Stack Pointer Limit value to set
 551:Generated_Source\PSoC5/cmsis_gcc.h ****  */
 552:Generated_Source\PSoC5/cmsis_gcc.h **** __attribute__((always_inline)) __STATIC_INLINE void __TZ_set_PSPLIM_NS(uint32_t ProcStackPtrLimit)
 553:Generated_Source\PSoC5/cmsis_gcc.h **** {
 554:Generated_Source\PSoC5/cmsis_gcc.h ****   __ASM volatile ("MSR psplim_ns, %0\n" : : "r" (ProcStackPtrLimit));
 555:Generated_Source\PSoC5/cmsis_gcc.h **** }
 556:Generated_Source\PSoC5/cmsis_gcc.h **** #endif
 557:Generated_Source\PSoC5/cmsis_gcc.h **** 
 558:Generated_Source\PSoC5/cmsis_gcc.h **** 
 559:Generated_Source\PSoC5/cmsis_gcc.h **** /**
 560:Generated_Source\PSoC5/cmsis_gcc.h ****   \brief   Get Main Stack Pointer Limit
 561:Generated_Source\PSoC5/cmsis_gcc.h ****   \details Returns the current value of the Main Stack Pointer Limit (MSPLIM).
 562:Generated_Source\PSoC5/cmsis_gcc.h ****   \return               MSPLIM Register value
 563:Generated_Source\PSoC5/cmsis_gcc.h ****  */
 564:Generated_Source\PSoC5/cmsis_gcc.h **** __attribute__((always_inline)) __STATIC_INLINE uint32_t __get_MSPLIM(void)
 565:Generated_Source\PSoC5/cmsis_gcc.h **** {
 566:Generated_Source\PSoC5/cmsis_gcc.h ****   register uint32_t result;
 567:Generated_Source\PSoC5/cmsis_gcc.h **** 
 568:Generated_Source\PSoC5/cmsis_gcc.h ****   __ASM volatile ("MRS %0, msplim" : "=r" (result) );
 569:Generated_Source\PSoC5/cmsis_gcc.h **** 
 570:Generated_Source\PSoC5/cmsis_gcc.h ****   return(result);
 571:Generated_Source\PSoC5/cmsis_gcc.h **** }
 572:Generated_Source\PSoC5/cmsis_gcc.h **** 
 573:Generated_Source\PSoC5/cmsis_gcc.h **** 
 574:Generated_Source\PSoC5/cmsis_gcc.h **** #if ((defined (__ARM_FEATURE_CMSE  ) && (__ARM_FEATURE_CMSE   == 3)) && \
 575:Generated_Source\PSoC5/cmsis_gcc.h ****      (defined (__ARM_ARCH_8M_MAIN__) && (__ARM_ARCH_8M_MAIN__ == 1))    )
 576:Generated_Source\PSoC5/cmsis_gcc.h **** /**
 577:Generated_Source\PSoC5/cmsis_gcc.h ****   \brief   Get Main Stack Pointer Limit (non-secure)
 578:Generated_Source\PSoC5/cmsis_gcc.h ****   \details Returns the current value of the non-secure Main Stack Pointer Limit(MSPLIM) when in sec
 579:Generated_Source\PSoC5/cmsis_gcc.h ****   \return               MSPLIM Register value
 580:Generated_Source\PSoC5/cmsis_gcc.h ****  */
 581:Generated_Source\PSoC5/cmsis_gcc.h **** __attribute__((always_inline)) __STATIC_INLINE uint32_t __TZ_get_MSPLIM_NS(void)
 582:Generated_Source\PSoC5/cmsis_gcc.h **** {
 583:Generated_Source\PSoC5/cmsis_gcc.h ****   register uint32_t result;
 584:Generated_Source\PSoC5/cmsis_gcc.h **** 
 585:Generated_Source\PSoC5/cmsis_gcc.h ****   __ASM volatile ("MRS %0, msplim_ns" : "=r" (result) );
 586:Generated_Source\PSoC5/cmsis_gcc.h ****   return(result);
 587:Generated_Source\PSoC5/cmsis_gcc.h **** }
 588:Generated_Source\PSoC5/cmsis_gcc.h **** #endif
 589:Generated_Source\PSoC5/cmsis_gcc.h **** 
 590:Generated_Source\PSoC5/cmsis_gcc.h **** 
 591:Generated_Source\PSoC5/cmsis_gcc.h **** /**
 592:Generated_Source\PSoC5/cmsis_gcc.h ****   \brief   Set Main Stack Pointer Limit
 593:Generated_Source\PSoC5/cmsis_gcc.h ****   \details Assigns the given value to the Main Stack Pointer Limit (MSPLIM).
 594:Generated_Source\PSoC5/cmsis_gcc.h ****   \param [in]    MainStackPtrLimit  Main Stack Pointer Limit value to set
 595:Generated_Source\PSoC5/cmsis_gcc.h ****  */
 596:Generated_Source\PSoC5/cmsis_gcc.h **** __attribute__((always_inline)) __STATIC_INLINE void __set_MSPLIM(uint32_t MainStackPtrLimit)
 597:Generated_Source\PSoC5/cmsis_gcc.h **** {
 598:Generated_Source\PSoC5/cmsis_gcc.h ****   __ASM volatile ("MSR msplim, %0" : : "r" (MainStackPtrLimit));
 599:Generated_Source\PSoC5/cmsis_gcc.h **** }
 600:Generated_Source\PSoC5/cmsis_gcc.h **** 
 601:Generated_Source\PSoC5/cmsis_gcc.h **** 
 602:Generated_Source\PSoC5/cmsis_gcc.h **** #if ((defined (__ARM_FEATURE_CMSE  ) && (__ARM_FEATURE_CMSE   == 3)) && \
ARM GAS  C:\Users\Mattia\AppData\Local\Temp\ccPC8dFz.s 			page 20


 603:Generated_Source\PSoC5/cmsis_gcc.h ****      (defined (__ARM_ARCH_8M_MAIN__) && (__ARM_ARCH_8M_MAIN__ == 1))    )
 604:Generated_Source\PSoC5/cmsis_gcc.h **** /**
 605:Generated_Source\PSoC5/cmsis_gcc.h ****   \brief   Set Main Stack Pointer Limit (non-secure)
 606:Generated_Source\PSoC5/cmsis_gcc.h ****   \details Assigns the given value to the non-secure Main Stack Pointer Limit (MSPLIM) when in secu
 607:Generated_Source\PSoC5/cmsis_gcc.h ****   \param [in]    MainStackPtrLimit  Main Stack Pointer value to set
 608:Generated_Source\PSoC5/cmsis_gcc.h ****  */
 609:Generated_Source\PSoC5/cmsis_gcc.h **** __attribute__((always_inline)) __STATIC_INLINE void __TZ_set_MSPLIM_NS(uint32_t MainStackPtrLimit)
 610:Generated_Source\PSoC5/cmsis_gcc.h **** {
 611:Generated_Source\PSoC5/cmsis_gcc.h ****   __ASM volatile ("MSR msplim_ns, %0" : : "r" (MainStackPtrLimit));
 612:Generated_Source\PSoC5/cmsis_gcc.h **** }
 613:Generated_Source\PSoC5/cmsis_gcc.h **** #endif
 614:Generated_Source\PSoC5/cmsis_gcc.h **** 
 615:Generated_Source\PSoC5/cmsis_gcc.h **** #endif /* ((defined (__ARM_ARCH_8M_MAIN__ ) && (__ARM_ARCH_8M_MAIN__ == 1U)) || \
 616:Generated_Source\PSoC5/cmsis_gcc.h ****            (defined (__ARM_ARCH_8M_BASE__ ) && (__ARM_ARCH_8M_BASE__ == 1U))    ) */
 617:Generated_Source\PSoC5/cmsis_gcc.h **** 
 618:Generated_Source\PSoC5/cmsis_gcc.h **** 
 619:Generated_Source\PSoC5/cmsis_gcc.h **** #if ((defined (__ARM_ARCH_7EM__     ) && (__ARM_ARCH_7EM__     == 1)) || \
 620:Generated_Source\PSoC5/cmsis_gcc.h ****      (defined (__ARM_ARCH_8M_MAIN__ ) && (__ARM_ARCH_8M_MAIN__ == 1))    )
 621:Generated_Source\PSoC5/cmsis_gcc.h **** 
 622:Generated_Source\PSoC5/cmsis_gcc.h **** /**
 623:Generated_Source\PSoC5/cmsis_gcc.h ****   \brief   Get FPSCR
 624:Generated_Source\PSoC5/cmsis_gcc.h ****   \details Returns the current value of the Floating Point Status/Control register.
 625:Generated_Source\PSoC5/cmsis_gcc.h ****   \return               Floating Point Status/Control register value
 626:Generated_Source\PSoC5/cmsis_gcc.h ****  */
 627:Generated_Source\PSoC5/cmsis_gcc.h **** __attribute__((always_inline)) __STATIC_INLINE uint32_t __get_FPSCR(void)
 628:Generated_Source\PSoC5/cmsis_gcc.h **** {
 629:Generated_Source\PSoC5/cmsis_gcc.h **** #if ((defined (__FPU_PRESENT) && (__FPU_PRESENT == 1U)) && \
 630:Generated_Source\PSoC5/cmsis_gcc.h ****      (defined (__FPU_USED   ) && (__FPU_USED    == 1U))     )
 631:Generated_Source\PSoC5/cmsis_gcc.h ****   uint32_t result;
 632:Generated_Source\PSoC5/cmsis_gcc.h **** 
 633:Generated_Source\PSoC5/cmsis_gcc.h ****   __ASM volatile ("");                                 /* Empty asm statement works as a scheduling
 634:Generated_Source\PSoC5/cmsis_gcc.h ****   __ASM volatile ("VMRS %0, fpscr" : "=r" (result) );
 635:Generated_Source\PSoC5/cmsis_gcc.h ****   __ASM volatile ("");
 636:Generated_Source\PSoC5/cmsis_gcc.h ****   return(result);
 637:Generated_Source\PSoC5/cmsis_gcc.h **** #else
 638:Generated_Source\PSoC5/cmsis_gcc.h ****    return(0U);
 639:Generated_Source\PSoC5/cmsis_gcc.h **** #endif
 640:Generated_Source\PSoC5/cmsis_gcc.h **** }
 641:Generated_Source\PSoC5/cmsis_gcc.h **** 
 642:Generated_Source\PSoC5/cmsis_gcc.h **** 
 643:Generated_Source\PSoC5/cmsis_gcc.h **** /**
 644:Generated_Source\PSoC5/cmsis_gcc.h ****   \brief   Set FPSCR
 645:Generated_Source\PSoC5/cmsis_gcc.h ****   \details Assigns the given value to the Floating Point Status/Control register.
 646:Generated_Source\PSoC5/cmsis_gcc.h ****   \param [in]    fpscr  Floating Point Status/Control value to set
 647:Generated_Source\PSoC5/cmsis_gcc.h ****  */
 648:Generated_Source\PSoC5/cmsis_gcc.h **** __attribute__((always_inline)) __STATIC_INLINE void __set_FPSCR(uint32_t fpscr)
 649:Generated_Source\PSoC5/cmsis_gcc.h **** {
 650:Generated_Source\PSoC5/cmsis_gcc.h **** #if ((defined (__FPU_PRESENT) && (__FPU_PRESENT == 1U)) && \
 651:Generated_Source\PSoC5/cmsis_gcc.h ****      (defined (__FPU_USED   ) && (__FPU_USED    == 1U))     )
 652:Generated_Source\PSoC5/cmsis_gcc.h ****   __ASM volatile ("");                                           /* Empty asm statement works as a 
 653:Generated_Source\PSoC5/cmsis_gcc.h ****   __ASM volatile ("VMSR fpscr, %0" : : "r" (fpscr) : "vfpcc");
 654:Generated_Source\PSoC5/cmsis_gcc.h ****   __ASM volatile ("");
 655:Generated_Source\PSoC5/cmsis_gcc.h **** #endif
 656:Generated_Source\PSoC5/cmsis_gcc.h **** }
 657:Generated_Source\PSoC5/cmsis_gcc.h **** 
 658:Generated_Source\PSoC5/cmsis_gcc.h **** #endif /* ((defined (__ARM_ARCH_7EM__     ) && (__ARM_ARCH_7EM__     == 1)) || \
 659:Generated_Source\PSoC5/cmsis_gcc.h ****            (defined (__ARM_ARCH_8M_MAIN__ ) && (__ARM_ARCH_8M_MAIN__ == 1))    ) */
ARM GAS  C:\Users\Mattia\AppData\Local\Temp\ccPC8dFz.s 			page 21


 660:Generated_Source\PSoC5/cmsis_gcc.h **** 
 661:Generated_Source\PSoC5/cmsis_gcc.h **** 
 662:Generated_Source\PSoC5/cmsis_gcc.h **** 
 663:Generated_Source\PSoC5/cmsis_gcc.h **** /*@} end of CMSIS_Core_RegAccFunctions */
 664:Generated_Source\PSoC5/cmsis_gcc.h **** 
 665:Generated_Source\PSoC5/cmsis_gcc.h **** 
 666:Generated_Source\PSoC5/cmsis_gcc.h **** /* ##########################  Core Instruction Access  ######################### */
 667:Generated_Source\PSoC5/cmsis_gcc.h **** /** \defgroup CMSIS_Core_InstructionInterface CMSIS Core Instruction Interface
 668:Generated_Source\PSoC5/cmsis_gcc.h ****   Access to dedicated instructions
 669:Generated_Source\PSoC5/cmsis_gcc.h ****   @{
 670:Generated_Source\PSoC5/cmsis_gcc.h **** */
 671:Generated_Source\PSoC5/cmsis_gcc.h **** 
 672:Generated_Source\PSoC5/cmsis_gcc.h **** /* Define macros for porting to both thumb1 and thumb2.
 673:Generated_Source\PSoC5/cmsis_gcc.h ****  * For thumb1, use low register (r0-r7), specified by constraint "l"
 674:Generated_Source\PSoC5/cmsis_gcc.h ****  * Otherwise, use general registers, specified by constraint "r" */
 675:Generated_Source\PSoC5/cmsis_gcc.h **** #if defined (__thumb__) && !defined (__thumb2__)
 676:Generated_Source\PSoC5/cmsis_gcc.h **** #define __CMSIS_GCC_OUT_REG(r) "=l" (r)
 677:Generated_Source\PSoC5/cmsis_gcc.h **** #define __CMSIS_GCC_RW_REG(r) "+l" (r)
 678:Generated_Source\PSoC5/cmsis_gcc.h **** #define __CMSIS_GCC_USE_REG(r) "l" (r)
 679:Generated_Source\PSoC5/cmsis_gcc.h **** #else
 680:Generated_Source\PSoC5/cmsis_gcc.h **** #define __CMSIS_GCC_OUT_REG(r) "=r" (r)
 681:Generated_Source\PSoC5/cmsis_gcc.h **** #define __CMSIS_GCC_RW_REG(r) "+r" (r)
 682:Generated_Source\PSoC5/cmsis_gcc.h **** #define __CMSIS_GCC_USE_REG(r) "r" (r)
 683:Generated_Source\PSoC5/cmsis_gcc.h **** #endif
 684:Generated_Source\PSoC5/cmsis_gcc.h **** 
 685:Generated_Source\PSoC5/cmsis_gcc.h **** /**
 686:Generated_Source\PSoC5/cmsis_gcc.h ****   \brief   No Operation
 687:Generated_Source\PSoC5/cmsis_gcc.h ****   \details No Operation does nothing. This instruction can be used for code alignment purposes.
 688:Generated_Source\PSoC5/cmsis_gcc.h ****  */
 689:Generated_Source\PSoC5/cmsis_gcc.h **** //__attribute__((always_inline)) __STATIC_INLINE void __NOP(void)
 690:Generated_Source\PSoC5/cmsis_gcc.h **** //{
 691:Generated_Source\PSoC5/cmsis_gcc.h **** //  __ASM volatile ("nop");
 692:Generated_Source\PSoC5/cmsis_gcc.h **** //}
 693:Generated_Source\PSoC5/cmsis_gcc.h **** #define __NOP()                             __ASM volatile ("nop")       /* This implementation gen
 694:Generated_Source\PSoC5/cmsis_gcc.h **** 
 695:Generated_Source\PSoC5/cmsis_gcc.h **** /**
 696:Generated_Source\PSoC5/cmsis_gcc.h ****   \brief   Wait For Interrupt
 697:Generated_Source\PSoC5/cmsis_gcc.h ****   \details Wait For Interrupt is a hint instruction that suspends execution until one of a number o
 698:Generated_Source\PSoC5/cmsis_gcc.h ****  */
 699:Generated_Source\PSoC5/cmsis_gcc.h **** //__attribute__((always_inline)) __STATIC_INLINE void __WFI(void)
 700:Generated_Source\PSoC5/cmsis_gcc.h **** //{
 701:Generated_Source\PSoC5/cmsis_gcc.h **** //  __ASM volatile ("wfi");
 702:Generated_Source\PSoC5/cmsis_gcc.h **** //}
 703:Generated_Source\PSoC5/cmsis_gcc.h **** #define __WFI()                             __ASM volatile ("wfi")       /* This implementation gen
 704:Generated_Source\PSoC5/cmsis_gcc.h **** 
 705:Generated_Source\PSoC5/cmsis_gcc.h **** 
 706:Generated_Source\PSoC5/cmsis_gcc.h **** /**
 707:Generated_Source\PSoC5/cmsis_gcc.h ****   \brief   Wait For Event
 708:Generated_Source\PSoC5/cmsis_gcc.h ****   \details Wait For Event is a hint instruction that permits the processor to enter
 709:Generated_Source\PSoC5/cmsis_gcc.h ****            a low-power state until one of a number of events occurs.
 710:Generated_Source\PSoC5/cmsis_gcc.h ****  */
 711:Generated_Source\PSoC5/cmsis_gcc.h **** //__attribute__((always_inline)) __STATIC_INLINE void __WFE(void)
 712:Generated_Source\PSoC5/cmsis_gcc.h **** //{
 713:Generated_Source\PSoC5/cmsis_gcc.h **** //  __ASM volatile ("wfe");
 714:Generated_Source\PSoC5/cmsis_gcc.h **** //}
 715:Generated_Source\PSoC5/cmsis_gcc.h **** #define __WFE()                             __ASM volatile ("wfe")       /* This implementation gen
 716:Generated_Source\PSoC5/cmsis_gcc.h **** 
ARM GAS  C:\Users\Mattia\AppData\Local\Temp\ccPC8dFz.s 			page 22


 717:Generated_Source\PSoC5/cmsis_gcc.h **** 
 718:Generated_Source\PSoC5/cmsis_gcc.h **** /**
 719:Generated_Source\PSoC5/cmsis_gcc.h ****   \brief   Send Event
 720:Generated_Source\PSoC5/cmsis_gcc.h ****   \details Send Event is a hint instruction. It causes an event to be signaled to the CPU.
 721:Generated_Source\PSoC5/cmsis_gcc.h ****  */
 722:Generated_Source\PSoC5/cmsis_gcc.h **** //__attribute__((always_inline)) __STATIC_INLINE void __SEV(void)
 723:Generated_Source\PSoC5/cmsis_gcc.h **** //{
 724:Generated_Source\PSoC5/cmsis_gcc.h **** //  __ASM volatile ("sev");
 725:Generated_Source\PSoC5/cmsis_gcc.h **** //}
 726:Generated_Source\PSoC5/cmsis_gcc.h **** #define __SEV()                             __ASM volatile ("sev")       /* This implementation gen
 727:Generated_Source\PSoC5/cmsis_gcc.h **** 
 728:Generated_Source\PSoC5/cmsis_gcc.h **** 
 729:Generated_Source\PSoC5/cmsis_gcc.h **** /**
 730:Generated_Source\PSoC5/cmsis_gcc.h ****   \brief   Instruction Synchronization Barrier
 731:Generated_Source\PSoC5/cmsis_gcc.h ****   \details Instruction Synchronization Barrier flushes the pipeline in the processor,
 732:Generated_Source\PSoC5/cmsis_gcc.h ****            so that all instructions following the ISB are fetched from cache or memory,
 733:Generated_Source\PSoC5/cmsis_gcc.h ****            after the instruction has been completed.
 734:Generated_Source\PSoC5/cmsis_gcc.h ****  */
 735:Generated_Source\PSoC5/cmsis_gcc.h **** __attribute__((always_inline)) __STATIC_INLINE void __ISB(void)
 736:Generated_Source\PSoC5/cmsis_gcc.h **** {
 737:Generated_Source\PSoC5/cmsis_gcc.h ****   __ASM volatile ("isb 0xF":::"memory");
 738:Generated_Source\PSoC5/cmsis_gcc.h **** }
 739:Generated_Source\PSoC5/cmsis_gcc.h **** 
 740:Generated_Source\PSoC5/cmsis_gcc.h **** 
 741:Generated_Source\PSoC5/cmsis_gcc.h **** /**
 742:Generated_Source\PSoC5/cmsis_gcc.h ****   \brief   Data Synchronization Barrier
 743:Generated_Source\PSoC5/cmsis_gcc.h ****   \details Acts as a special kind of Data Memory Barrier.
 744:Generated_Source\PSoC5/cmsis_gcc.h ****            It completes when all explicit memory accesses before this instruction complete.
 745:Generated_Source\PSoC5/cmsis_gcc.h ****  */
 746:Generated_Source\PSoC5/cmsis_gcc.h **** __attribute__((always_inline)) __STATIC_INLINE void __DSB(void)
 747:Generated_Source\PSoC5/cmsis_gcc.h **** {
 748:Generated_Source\PSoC5/cmsis_gcc.h ****   __ASM volatile ("dsb 0xF":::"memory");
 749:Generated_Source\PSoC5/cmsis_gcc.h **** }
 750:Generated_Source\PSoC5/cmsis_gcc.h **** 
 751:Generated_Source\PSoC5/cmsis_gcc.h **** 
 752:Generated_Source\PSoC5/cmsis_gcc.h **** /**
 753:Generated_Source\PSoC5/cmsis_gcc.h ****   \brief   Data Memory Barrier
 754:Generated_Source\PSoC5/cmsis_gcc.h ****   \details Ensures the apparent order of the explicit memory operations before
 755:Generated_Source\PSoC5/cmsis_gcc.h ****            and after the instruction, without ensuring their completion.
 756:Generated_Source\PSoC5/cmsis_gcc.h ****  */
 757:Generated_Source\PSoC5/cmsis_gcc.h **** __attribute__((always_inline)) __STATIC_INLINE void __DMB(void)
 758:Generated_Source\PSoC5/cmsis_gcc.h **** {
 759:Generated_Source\PSoC5/cmsis_gcc.h ****   __ASM volatile ("dmb 0xF":::"memory");
 760:Generated_Source\PSoC5/cmsis_gcc.h **** }
 761:Generated_Source\PSoC5/cmsis_gcc.h **** 
 762:Generated_Source\PSoC5/cmsis_gcc.h **** 
 763:Generated_Source\PSoC5/cmsis_gcc.h **** /**
 764:Generated_Source\PSoC5/cmsis_gcc.h ****   \brief   Reverse byte order (32 bit)
 765:Generated_Source\PSoC5/cmsis_gcc.h ****   \details Reverses the byte order in integer value.
 766:Generated_Source\PSoC5/cmsis_gcc.h ****   \param [in]    value  Value to reverse
 767:Generated_Source\PSoC5/cmsis_gcc.h ****   \return               Reversed value
 768:Generated_Source\PSoC5/cmsis_gcc.h ****  */
 769:Generated_Source\PSoC5/cmsis_gcc.h **** __attribute__((always_inline)) __STATIC_INLINE uint32_t __REV(uint32_t value)
 770:Generated_Source\PSoC5/cmsis_gcc.h **** {
 771:Generated_Source\PSoC5/cmsis_gcc.h **** #if (__GNUC__ > 4) || (__GNUC__ == 4 && __GNUC_MINOR__ >= 5)
 772:Generated_Source\PSoC5/cmsis_gcc.h ****   return __builtin_bswap32(value);
 773:Generated_Source\PSoC5/cmsis_gcc.h **** #else
ARM GAS  C:\Users\Mattia\AppData\Local\Temp\ccPC8dFz.s 			page 23


 774:Generated_Source\PSoC5/cmsis_gcc.h ****   uint32_t result;
 775:Generated_Source\PSoC5/cmsis_gcc.h **** 
 776:Generated_Source\PSoC5/cmsis_gcc.h ****   __ASM volatile ("rev %0, %1" : __CMSIS_GCC_OUT_REG (result) : __CMSIS_GCC_USE_REG (value) );
 777:Generated_Source\PSoC5/cmsis_gcc.h ****   return(result);
 778:Generated_Source\PSoC5/cmsis_gcc.h **** #endif
 779:Generated_Source\PSoC5/cmsis_gcc.h **** }
 780:Generated_Source\PSoC5/cmsis_gcc.h **** 
 781:Generated_Source\PSoC5/cmsis_gcc.h **** 
 782:Generated_Source\PSoC5/cmsis_gcc.h **** /**
 783:Generated_Source\PSoC5/cmsis_gcc.h ****   \brief   Reverse byte order (16 bit)
 784:Generated_Source\PSoC5/cmsis_gcc.h ****   \details Reverses the byte order in two unsigned short values.
 785:Generated_Source\PSoC5/cmsis_gcc.h ****   \param [in]    value  Value to reverse
 786:Generated_Source\PSoC5/cmsis_gcc.h ****   \return               Reversed value
 787:Generated_Source\PSoC5/cmsis_gcc.h ****  */
 788:Generated_Source\PSoC5/cmsis_gcc.h **** __attribute__((always_inline)) __STATIC_INLINE uint32_t __REV16(uint32_t value)
 789:Generated_Source\PSoC5/cmsis_gcc.h **** {
 790:Generated_Source\PSoC5/cmsis_gcc.h ****   uint32_t result;
 791:Generated_Source\PSoC5/cmsis_gcc.h **** 
 792:Generated_Source\PSoC5/cmsis_gcc.h ****   __ASM volatile ("rev16 %0, %1" : __CMSIS_GCC_OUT_REG (result) : __CMSIS_GCC_USE_REG (value) );
 326              		.loc 2 792 0
 327 0340 3B69     		ldr	r3, [r7, #16]
 328              		.syntax unified
 329              	@ 792 "Generated_Source\PSoC5/cmsis_gcc.h" 1
 330 0342 5BBA     		rev16 r3, r3
 331              	@ 0 "" 2
 332              		.thumb
 333              		.syntax unified
 334 0344 FB60     		str	r3, [r7, #12]
 793:Generated_Source\PSoC5/cmsis_gcc.h ****   return(result);
 335              		.loc 2 793 0
 336 0346 FB68     		ldr	r3, [r7, #12]
 337              	.LBE9:
 338              	.LBE8:
 339              		.loc 1 156 0
 340 0348 9BB2     		uxth	r3, r3
 341 034a 1846     		mov	r0, r3
 342 034c FFF7FEFF 		bl	infoGet
 157:..\src/command_processing.c ****             break;
 343              		.loc 1 157 0
 344 0350 BFE0     		b	.L1
 345              	.L7:
 158:..\src/command_processing.c **** 
 159:..\src/command_processing.c **** //============================================================     CMD_SET_PARAM
 160:..\src/command_processing.c **** 
 161:..\src/command_processing.c ****         case CMD_SET_ZEROS:
 162:..\src/command_processing.c ****             setZeros();
 346              		.loc 1 162 0
 347 0352 FFF7FEFF 		bl	setZeros
 163:..\src/command_processing.c ****             break;
 348              		.loc 1 163 0
 349 0356 BCE0     		b	.L1
 350              	.L14:
 164:..\src/command_processing.c **** 
 165:..\src/command_processing.c **** //============================================================     CMD_GET_PARAM
 166:..\src/command_processing.c **** 
 167:..\src/command_processing.c ****         case CMD_GET_PARAM_LIST:
 168:..\src/command_processing.c ****             manage_param_list( __REV16(*((uint16 *) &g_rx.buffer[1])) );
ARM GAS  C:\Users\Mattia\AppData\Local\Temp\ccPC8dFz.s 			page 24


 351              		.loc 1 168 0
 352 0358 0E4B     		ldr	r3, .L50+4
 353 035a 1B88     		ldrh	r3, [r3]
 354 035c BB61     		str	r3, [r7, #24]
 355              	.LBB10:
 356              	.LBB11:
 792:Generated_Source\PSoC5/cmsis_gcc.h ****   return(result);
 357              		.loc 2 792 0
 358 035e BB69     		ldr	r3, [r7, #24]
 359              		.syntax unified
 360              	@ 792 "Generated_Source\PSoC5/cmsis_gcc.h" 1
 361 0360 5BBA     		rev16 r3, r3
 362              	@ 0 "" 2
 363              		.thumb
 364              		.syntax unified
 365 0362 BB60     		str	r3, [r7, #8]
 366              		.loc 2 793 0
 367 0364 BB68     		ldr	r3, [r7, #8]
 368              	.LBE11:
 369              	.LBE10:
 370              		.loc 1 168 0
 371 0366 9BB2     		uxth	r3, r3
 372 0368 1846     		mov	r0, r3
 373 036a FFF7FEFF 		bl	manage_param_list
 169:..\src/command_processing.c ****             break;
 374              		.loc 1 169 0
 375 036e B0E0     		b	.L1
 376              	.L5:
 170:..\src/command_processing.c **** 
 171:..\src/command_processing.c **** //=================================================================     CMD_PING
 172:..\src/command_processing.c ****             
 173:..\src/command_processing.c ****         case CMD_PING:
 174:..\src/command_processing.c ****             cmd_ping();
 377              		.loc 1 174 0
 378 0370 FFF7FEFF 		bl	cmd_ping
 175:..\src/command_processing.c ****             break;
 379              		.loc 1 175 0
 380 0374 ADE0     		b	.L1
 381              	.L8:
 176:..\src/command_processing.c **** 
 177:..\src/command_processing.c **** //=========================================================     CMD_STORE_PARAMS
 178:..\src/command_processing.c ****             
 179:..\src/command_processing.c ****         case CMD_STORE_PARAMS:
 180:..\src/command_processing.c ****             cmd_store_params();
 382              		.loc 1 180 0
 383 0376 FFF7FEFF 		bl	cmd_store_params
 181:..\src/command_processing.c ****             break;
 384              		.loc 1 181 0
 385 037a AAE0     		b	.L1
 386              	.L9:
 182:..\src/command_processing.c **** 
 183:..\src/command_processing.c **** //=================================================     CMD_STORE_DEFAULT_PARAMS
 184:..\src/command_processing.c **** 
 185:..\src/command_processing.c ****         case CMD_STORE_DEFAULT_PARAMS:
 186:..\src/command_processing.c ****             if(memStore(DEFAULT_EEPROM_DISPLACEMENT))
 387              		.loc 1 186 0
 388 037c 3220     		movs	r0, #50
ARM GAS  C:\Users\Mattia\AppData\Local\Temp\ccPC8dFz.s 			page 25


 389 037e FFF7FEFF 		bl	memStore
 390 0382 0346     		mov	r3, r0
 391 0384 002B     		cmp	r3, #0
 392 0386 07D0     		beq	.L38
 187:..\src/command_processing.c ****                 sendAcknowledgment(ACK_OK);
 393              		.loc 1 187 0
 394 0388 0120     		movs	r0, #1
 395 038a FFF7FEFF 		bl	sendAcknowledgment
 188:..\src/command_processing.c ****             else
 189:..\src/command_processing.c ****                 sendAcknowledgment(ACK_ERROR);
 190:..\src/command_processing.c ****             break;
 396              		.loc 1 190 0
 397 038e A0E0     		b	.L1
 398              	.L51:
 399              		.align	2
 400              	.L50:
 401 0390 00000000 		.word	g_rx
 402 0394 01000000 		.word	g_rx+1
 403              	.L38:
 189:..\src/command_processing.c ****             break;
 404              		.loc 1 189 0
 405 0398 0020     		movs	r0, #0
 406 039a FFF7FEFF 		bl	sendAcknowledgment
 407              		.loc 1 190 0
 408 039e 98E0     		b	.L1
 409              	.L10:
 191:..\src/command_processing.c **** 
 192:..\src/command_processing.c **** //=======================================================     CMD_RESTORE_PARAMS
 193:..\src/command_processing.c **** 
 194:..\src/command_processing.c ****         case CMD_RESTORE_PARAMS:
 195:..\src/command_processing.c ****             if(memRestore())
 410              		.loc 1 195 0
 411 03a0 FFF7FEFF 		bl	memRestore
 412 03a4 0346     		mov	r3, r0
 413 03a6 002B     		cmp	r3, #0
 414 03a8 03D0     		beq	.L40
 196:..\src/command_processing.c ****                 sendAcknowledgment(ACK_OK);
 415              		.loc 1 196 0
 416 03aa 0120     		movs	r0, #1
 417 03ac FFF7FEFF 		bl	sendAcknowledgment
 197:..\src/command_processing.c ****             else
 198:..\src/command_processing.c ****                 sendAcknowledgment(ACK_ERROR);
 199:..\src/command_processing.c ****             break;
 418              		.loc 1 199 0
 419 03b0 8FE0     		b	.L1
 420              	.L40:
 198:..\src/command_processing.c ****             break;
 421              		.loc 1 198 0
 422 03b2 0020     		movs	r0, #0
 423 03b4 FFF7FEFF 		bl	sendAcknowledgment
 424              		.loc 1 199 0
 425 03b8 8BE0     		b	.L1
 426              	.L13:
 200:..\src/command_processing.c **** 
 201:..\src/command_processing.c **** //=============================================================     CMD_INIT_MEM
 202:..\src/command_processing.c **** 
 203:..\src/command_processing.c ****         case CMD_INIT_MEM:            
ARM GAS  C:\Users\Mattia\AppData\Local\Temp\ccPC8dFz.s 			page 26


 204:..\src/command_processing.c ****             if(memInit())
 427              		.loc 1 204 0
 428 03ba FFF7FEFF 		bl	memInit
 429 03be 0346     		mov	r3, r0
 430 03c0 002B     		cmp	r3, #0
 431 03c2 03D0     		beq	.L42
 205:..\src/command_processing.c ****                 sendAcknowledgment(ACK_OK);
 432              		.loc 1 205 0
 433 03c4 0120     		movs	r0, #1
 434 03c6 FFF7FEFF 		bl	sendAcknowledgment
 206:..\src/command_processing.c ****             else
 207:..\src/command_processing.c ****                 sendAcknowledgment(ACK_ERROR);
 208:..\src/command_processing.c ****             break;
 435              		.loc 1 208 0
 436 03ca 82E0     		b	.L1
 437              	.L42:
 207:..\src/command_processing.c ****             break;
 438              		.loc 1 207 0
 439 03cc 0020     		movs	r0, #0
 440 03ce FFF7FEFF 		bl	sendAcknowledgment
 441              		.loc 1 208 0
 442 03d2 7EE0     		b	.L1
 443              	.L12:
 209:..\src/command_processing.c **** 
 210:..\src/command_processing.c **** //===========================================================     CMD_BOOTLOADER
 211:..\src/command_processing.c **** 
 212:..\src/command_processing.c ****         case CMD_BOOTLOADER:
 213:..\src/command_processing.c ****             //Not sure if ACK_OK is correct, should check
 214:..\src/command_processing.c ****             sendAcknowledgment(ACK_OK);
 444              		.loc 1 214 0
 445 03d4 0120     		movs	r0, #1
 446 03d6 FFF7FEFF 		bl	sendAcknowledgment
 215:..\src/command_processing.c ****             CyDelay(1000);
 447              		.loc 1 215 0
 448 03da 4FF47A70 		mov	r0, #1000
 449 03de FFF7FEFF 		bl	CyDelay
 216:..\src/command_processing.c ****             FTDI_ENABLE_Write(0x00);
 450              		.loc 1 216 0
 451 03e2 0020     		movs	r0, #0
 452 03e4 FFF7FEFF 		bl	FTDI_ENABLE_Write
 217:..\src/command_processing.c ****             CyDelay(1000);
 453              		.loc 1 217 0
 454 03e8 4FF47A70 		mov	r0, #1000
 455 03ec FFF7FEFF 		bl	CyDelay
 218:..\src/command_processing.c ****             Bootloadable_Load();
 456              		.loc 1 218 0
 457 03f0 FFF7FEFF 		bl	Bootloadable_Load
 219:..\src/command_processing.c ****             break;
 458              		.loc 1 219 0
 459 03f4 6DE0     		b	.L1
 460              	.L15:
 220:..\src/command_processing.c **** 
 221:..\src/command_processing.c **** //============================================================     CMD_HAND_CALIBRATE
 222:..\src/command_processing.c **** 
 223:..\src/command_processing.c ****         case CMD_HAND_CALIBRATE:
 224:..\src/command_processing.c ****             calib.speed = (int16)(g_rx.buffer[1]<<8 | g_rx.buffer[2]);
 461              		.loc 1 224 0
ARM GAS  C:\Users\Mattia\AppData\Local\Temp\ccPC8dFz.s 			page 27


 462 03f6 384B     		ldr	r3, .L52
 463 03f8 5B78     		ldrb	r3, [r3, #1]	@ zero_extendqisi2
 464 03fa 1B02     		lsls	r3, r3, #8
 465 03fc 1AB2     		sxth	r2, r3
 466 03fe 364B     		ldr	r3, .L52
 467 0400 9B78     		ldrb	r3, [r3, #2]	@ zero_extendqisi2
 468 0402 1BB2     		sxth	r3, r3
 469 0404 1343     		orrs	r3, r3, r2
 470 0406 1AB2     		sxth	r2, r3
 471 0408 344B     		ldr	r3, .L52+4
 472 040a 5A80     		strh	r2, [r3, #2]	@ movhi
 225:..\src/command_processing.c ****             calib.repetitions = (int16)(g_rx.buffer[3]<<8 | g_rx.buffer[4]);
 473              		.loc 1 225 0
 474 040c 324B     		ldr	r3, .L52
 475 040e DB78     		ldrb	r3, [r3, #3]	@ zero_extendqisi2
 476 0410 1B02     		lsls	r3, r3, #8
 477 0412 1AB2     		sxth	r2, r3
 478 0414 304B     		ldr	r3, .L52
 479 0416 1B79     		ldrb	r3, [r3, #4]	@ zero_extendqisi2
 480 0418 1BB2     		sxth	r3, r3
 481 041a 1343     		orrs	r3, r3, r2
 482 041c 1AB2     		sxth	r2, r3
 483 041e 2F4B     		ldr	r3, .L52+4
 484 0420 9A80     		strh	r2, [r3, #4]	@ movhi
 226:..\src/command_processing.c ****             
 227:..\src/command_processing.c ****             if(calib.speed == -1 && calib.repetitions == -1) {
 485              		.loc 1 227 0
 486 0422 2E4B     		ldr	r3, .L52+4
 487 0424 B3F90230 		ldrsh	r3, [r3, #2]
 488 0428 B3F1FF3F 		cmp	r3, #-1
 489 042c 0FD1     		bne	.L44
 490              		.loc 1 227 0 is_stmt 0 discriminator 1
 491 042e 2B4B     		ldr	r3, .L52+4
 492 0430 B3F90430 		ldrsh	r3, [r3, #4]
 493 0434 B3F1FF3F 		cmp	r3, #-1
 494 0438 09D1     		bne	.L44
 228:..\src/command_processing.c ****                 calib.enabled = FALSE;
 495              		.loc 1 228 0 is_stmt 1
 496 043a 284B     		ldr	r3, .L52+4
 497 043c 0022     		movs	r2, #0
 498 043e 1A70     		strb	r2, [r3]
 229:..\src/command_processing.c ****                 calib.speed = 0;
 499              		.loc 1 229 0
 500 0440 264B     		ldr	r3, .L52+4
 501 0442 0022     		movs	r2, #0
 502 0444 5A80     		strh	r2, [r3, #2]	@ movhi
 230:..\src/command_processing.c ****                 calib.repetitions = 0;
 503              		.loc 1 230 0
 504 0446 254B     		ldr	r3, .L52+4
 505 0448 0022     		movs	r2, #0
 506 044a 9A80     		strh	r2, [r3, #4]	@ movhi
 231:..\src/command_processing.c ****                 break;
 507              		.loc 1 231 0
 508 044c 41E0     		b	.L1
 509              	.L44:
 232:..\src/command_processing.c ****             }
 233:..\src/command_processing.c ****             // Speed & repetitions saturations
ARM GAS  C:\Users\Mattia\AppData\Local\Temp\ccPC8dFz.s 			page 28


 234:..\src/command_processing.c ****             if (calib.speed < 0) {
 510              		.loc 1 234 0
 511 044e 234B     		ldr	r3, .L52+4
 512 0450 B3F90230 		ldrsh	r3, [r3, #2]
 513 0454 002B     		cmp	r3, #0
 514 0456 03DA     		bge	.L45
 235:..\src/command_processing.c ****                 calib.speed = 0;
 515              		.loc 1 235 0
 516 0458 204B     		ldr	r3, .L52+4
 517 045a 0022     		movs	r2, #0
 518 045c 5A80     		strh	r2, [r3, #2]	@ movhi
 519 045e 07E0     		b	.L46
 520              	.L45:
 236:..\src/command_processing.c ****             } else if (calib.speed > 200) {
 521              		.loc 1 236 0
 522 0460 1E4B     		ldr	r3, .L52+4
 523 0462 B3F90230 		ldrsh	r3, [r3, #2]
 524 0466 C82B     		cmp	r3, #200
 525 0468 02DD     		ble	.L46
 237:..\src/command_processing.c ****                 calib.speed = 200;
 526              		.loc 1 237 0
 527 046a 1C4B     		ldr	r3, .L52+4
 528 046c C822     		movs	r2, #200
 529 046e 5A80     		strh	r2, [r3, #2]	@ movhi
 530              	.L46:
 238:..\src/command_processing.c ****             }
 239:..\src/command_processing.c ****             if (calib.repetitions < 0) {
 531              		.loc 1 239 0
 532 0470 1A4B     		ldr	r3, .L52+4
 533 0472 B3F90430 		ldrsh	r3, [r3, #4]
 534 0476 002B     		cmp	r3, #0
 535 0478 02DA     		bge	.L47
 240:..\src/command_processing.c ****                 calib.repetitions = 0;
 536              		.loc 1 240 0
 537 047a 184B     		ldr	r3, .L52+4
 538 047c 0022     		movs	r2, #0
 539 047e 9A80     		strh	r2, [r3, #4]	@ movhi
 540              	.L47:
 241:..\src/command_processing.c ****             } else if (calib.repetitions > 32767) {
 242:..\src/command_processing.c ****                 calib.repetitions = 32767;
 243:..\src/command_processing.c ****             }
 244:..\src/command_processing.c ****             
 245:..\src/command_processing.c ****             g_refNew[0].pos = 0;                    // SoftHand is on motor 1
 541              		.loc 1 245 0
 542 0480 174B     		ldr	r3, .L52+8
 543 0482 0022     		movs	r2, #0
 544 0484 1A60     		str	r2, [r3]
 246:..\src/command_processing.c ****             calib.enabled = TRUE;
 545              		.loc 1 246 0
 546 0486 154B     		ldr	r3, .L52+4
 547 0488 0122     		movs	r2, #1
 548 048a 1A70     		strb	r2, [r3]
 247:..\src/command_processing.c ****          
 248:..\src/command_processing.c ****             sendAcknowledgment(ACK_OK);
 549              		.loc 1 248 0
 550 048c 0120     		movs	r0, #1
 551 048e FFF7FEFF 		bl	sendAcknowledgment
ARM GAS  C:\Users\Mattia\AppData\Local\Temp\ccPC8dFz.s 			page 29


 249:..\src/command_processing.c ****             break;
 552              		.loc 1 249 0
 553 0492 1EE0     		b	.L1
 554              	.L29:
 250:..\src/command_processing.c ****             
 251:..\src/command_processing.c **** //=====================================================     CMD_GET_IMU_READINGS
 252:..\src/command_processing.c **** 
 253:..\src/command_processing.c ****         case CMD_GET_IMU_READINGS:
 254:..\src/command_processing.c ****             cmd_get_imu_readings();
 555              		.loc 1 254 0
 556 0494 FFF7FEFF 		bl	cmd_get_imu_readings
 255:..\src/command_processing.c ****             break; 
 557              		.loc 1 255 0
 558 0498 1BE0     		b	.L1
 559              	.L30:
 256:..\src/command_processing.c ****             
 257:..\src/command_processing.c **** //=====================================================     CMD_GET_IMU_PARAM
 258:..\src/command_processing.c **** 
 259:..\src/command_processing.c ****         case CMD_GET_IMU_PARAM:
 260:..\src/command_processing.c ****             get_IMU_param_list( __REV16(*((uint16 *) &g_rx.buffer[1])) );
 560              		.loc 1 260 0
 561 049a 124B     		ldr	r3, .L52+12
 562 049c 1B88     		ldrh	r3, [r3]
 563 049e 7B61     		str	r3, [r7, #20]
 564              	.LBB12:
 565              	.LBB13:
 792:Generated_Source\PSoC5/cmsis_gcc.h ****   return(result);
 566              		.loc 2 792 0
 567 04a0 7B69     		ldr	r3, [r7, #20]
 568              		.syntax unified
 569              	@ 792 "Generated_Source\PSoC5/cmsis_gcc.h" 1
 570 04a2 5BBA     		rev16 r3, r3
 571              	@ 0 "" 2
 572              		.thumb
 573              		.syntax unified
 574 04a4 7B60     		str	r3, [r7, #4]
 575              		.loc 2 793 0
 576 04a6 7B68     		ldr	r3, [r7, #4]
 577              	.LBE13:
 578              	.LBE12:
 579              		.loc 1 260 0
 580 04a8 9BB2     		uxth	r3, r3
 581 04aa 1846     		mov	r0, r3
 582 04ac FFF7FEFF 		bl	get_IMU_param_list
 261:..\src/command_processing.c ****             break;             
 583              		.loc 1 261 0
 584 04b0 0FE0     		b	.L1
 585              	.L31:
 262:..\src/command_processing.c ****             
 263:..\src/command_processing.c **** //=====================================================     CMD_GET_ENCODER_CONF
 264:..\src/command_processing.c **** 
 265:..\src/command_processing.c ****         case CMD_GET_ENCODER_CONF:
 266:..\src/command_processing.c ****             cmd_get_encoder_map();
 586              		.loc 1 266 0
 587 04b2 FFF7FEFF 		bl	cmd_get_encoder_map
 267:..\src/command_processing.c ****             break; 
 588              		.loc 1 267 0
ARM GAS  C:\Users\Mattia\AppData\Local\Temp\ccPC8dFz.s 			page 30


 589 04b6 0CE0     		b	.L1
 590              	.L32:
 268:..\src/command_processing.c **** 
 269:..\src/command_processing.c **** //=====================================================     CMD_GET_ENCODER_RAW
 270:..\src/command_processing.c **** 
 271:..\src/command_processing.c ****         case CMD_GET_ENCODER_RAW:
 272:..\src/command_processing.c ****             cmd_get_encoder_raw();
 591              		.loc 1 272 0
 592 04b8 FFF7FEFF 		bl	cmd_get_encoder_raw
 273:..\src/command_processing.c ****             break; 
 593              		.loc 1 273 0
 594 04bc 09E0     		b	.L1
 595              	.L33:
 274:..\src/command_processing.c **** 
 275:..\src/command_processing.c **** //=====================================================     CMD_GET_ADC_CONF
 276:..\src/command_processing.c **** 
 277:..\src/command_processing.c ****         case CMD_GET_ADC_CONF:
 278:..\src/command_processing.c ****             cmd_get_ADC_map();
 596              		.loc 1 278 0
 597 04be FFF7FEFF 		bl	cmd_get_ADC_map
 279:..\src/command_processing.c ****             break; 
 598              		.loc 1 279 0
 599 04c2 06E0     		b	.L1
 600              	.L34:
 280:..\src/command_processing.c ****             
 281:..\src/command_processing.c **** //=====================================================     CMD_GET_ADC_RAW
 282:..\src/command_processing.c **** 
 283:..\src/command_processing.c ****         case CMD_GET_ADC_RAW:
 284:..\src/command_processing.c ****             cmd_get_ADC_raw();
 601              		.loc 1 284 0
 602 04c4 FFF7FEFF 		bl	cmd_get_ADC_raw
 285:..\src/command_processing.c ****             break; 
 603              		.loc 1 285 0
 604 04c8 03E0     		b	.L1
 605              	.L35:
 286:..\src/command_processing.c ****             
 287:..\src/command_processing.c **** //=====================================================     CMD_GET_SD_FILESYSTEM
 288:..\src/command_processing.c **** 
 289:..\src/command_processing.c ****         case CMD_GET_SD_SINGLE_FILE:
 290:..\src/command_processing.c ****             cmd_get_SD_file();
 606              		.loc 1 290 0
 607 04ca FFF7FEFF 		bl	cmd_get_SD_file
 291:..\src/command_processing.c ****             break;             
 608              		.loc 1 291 0
 609 04ce 00E0     		b	.L1
 610              	.L49:
 292:..\src/command_processing.c ****             
 293:..\src/command_processing.c ****             
 294:..\src/command_processing.c **** //=========================================================== ALL OTHER COMMANDS
 295:..\src/command_processing.c ****         default:
 296:..\src/command_processing.c ****             break;
 611              		.loc 1 296 0
 612 04d0 00BF     		nop
 613              	.L1:
 297:..\src/command_processing.c **** 
 298:..\src/command_processing.c ****     }
 299:..\src/command_processing.c **** }  
ARM GAS  C:\Users\Mattia\AppData\Local\Temp\ccPC8dFz.s 			page 31


 614              		.loc 1 299 0
 615 04d2 2037     		adds	r7, r7, #32
 616              		.cfi_def_cfa_offset 8
 617 04d4 BD46     		mov	sp, r7
 618              		.cfi_def_cfa_register 13
 619              		@ sp needed
 620 04d6 80BD     		pop	{r7, pc}
 621              	.L53:
 622              		.align	2
 623              	.L52:
 624 04d8 00000000 		.word	g_rx
 625 04dc 00000000 		.word	calib
 626 04e0 00000000 		.word	g_refNew
 627 04e4 01000000 		.word	g_rx+1
 628              		.cfi_endproc
 629              	.LFE64:
 630              		.size	commProcess, .-commProcess
 631              		.section	.text.infoSend,"ax",%progbits
 632              		.align	2
 633              		.global	infoSend
 634              		.thumb
 635              		.thumb_func
 636              		.type	infoSend, %function
 637              	infoSend:
 638              	.LFB65:
 300:..\src/command_processing.c **** 
 301:..\src/command_processing.c **** //==============================================================================
 302:..\src/command_processing.c **** //                                                                     INFO SEND
 303:..\src/command_processing.c **** //==============================================================================
 304:..\src/command_processing.c **** 
 305:..\src/command_processing.c **** void infoSend(void){
 639              		.loc 1 305 0
 640              		.cfi_startproc
 641              		@ args = 0, pretend = 0, frame = 1504
 642              		@ frame_needed = 1, uses_anonymous_args = 0
 643 0000 80B5     		push	{r7, lr}
 644              		.cfi_def_cfa_offset 8
 645              		.cfi_offset 7, -8
 646              		.cfi_offset 14, -4
 647 0002 ADF5BC6D 		sub	sp, sp, #1504
 648              		.cfi_def_cfa_offset 1512
 649 0006 00AF     		add	r7, sp, #0
 650              		.cfi_def_cfa_register 7
 306:..\src/command_processing.c ****     char packet_string[1500];
 307:..\src/command_processing.c ****     
 308:..\src/command_processing.c ****     prepare_generic_info(packet_string);
 651              		.loc 1 308 0
 652 0008 3B1D     		adds	r3, r7, #4
 653 000a 1846     		mov	r0, r3
 654 000c FFF7FEFF 		bl	prepare_generic_info
 309:..\src/command_processing.c ****     UART_RS485_PutString(packet_string);
 655              		.loc 1 309 0
 656 0010 3B1D     		adds	r3, r7, #4
 657 0012 1846     		mov	r0, r3
 658 0014 FFF7FEFF 		bl	UART_RS485_PutString
 310:..\src/command_processing.c **** }
 659              		.loc 1 310 0
ARM GAS  C:\Users\Mattia\AppData\Local\Temp\ccPC8dFz.s 			page 32


 660 0018 00BF     		nop
 661 001a 07F5BC67 		add	r7, r7, #1504
 662              		.cfi_def_cfa_offset 8
 663 001e BD46     		mov	sp, r7
 664              		.cfi_def_cfa_register 13
 665              		@ sp needed
 666 0020 80BD     		pop	{r7, pc}
 667              		.cfi_endproc
 668              	.LFE65:
 669              		.size	infoSend, .-infoSend
 670 0022 00BF     		.section	.text.infoGet,"ax",%progbits
 671              		.align	2
 672              		.global	infoGet
 673              		.thumb
 674              		.thumb_func
 675              		.type	infoGet, %function
 676              	infoGet:
 677              	.LFB66:
 311:..\src/command_processing.c **** 
 312:..\src/command_processing.c **** 
 313:..\src/command_processing.c **** //==============================================================================
 314:..\src/command_processing.c **** //                                                              COMMAND GET INFO
 315:..\src/command_processing.c **** //==============================================================================
 316:..\src/command_processing.c **** 
 317:..\src/command_processing.c **** void infoGet(uint16 info_type) {
 678              		.loc 1 317 0
 679              		.cfi_startproc
 680              		@ args = 0, pretend = 0, frame = 24008
 681              		@ frame_needed = 1, uses_anonymous_args = 0
 682 0000 80B5     		push	{r7, lr}
 683              		.cfi_def_cfa_offset 8
 684              		.cfi_offset 7, -8
 685              		.cfi_offset 14, -4
 686 0002 ADF5BB4D 		sub	sp, sp, #23936
 687              		.cfi_def_cfa_offset 23944
 688 0006 92B0     		sub	sp, sp, #72
 689              		.cfi_def_cfa_offset 24016
 690 0008 00AF     		add	r7, sp, #0
 691              		.cfi_def_cfa_register 7
 692 000a 0246     		mov	r2, r0
 693 000c 07F14803 		add	r3, r7, #72
 694 0010 423B     		subs	r3, r3, #66
 695 0012 1A80     		strh	r2, [r3]	@ movhi
 318:..\src/command_processing.c ****     char packet_string[4000] = "";
 696              		.loc 1 318 0
 697 0014 07F59C43 		add	r3, r7, #19968
 698 0018 03F12803 		add	r3, r3, #40
 699 001c 0022     		movs	r2, #0
 700 001e 1A60     		str	r2, [r3]
 701 0020 0433     		adds	r3, r3, #4
 702 0022 40F69C72 		movw	r2, #3996
 703 0026 0021     		movs	r1, #0
 704 0028 1846     		mov	r0, r3
 705 002a FFF7FEFF 		bl	memset
 319:..\src/command_processing.c ****     char str_sd_data[20000] = "";
 706              		.loc 1 319 0
 707 002e 07F14803 		add	r3, r7, #72
ARM GAS  C:\Users\Mattia\AppData\Local\Temp\ccPC8dFz.s 			page 33


 708 0032 403B     		subs	r3, r3, #64
 709 0034 0022     		movs	r2, #0
 710 0036 1A60     		str	r2, [r3]
 711 0038 0433     		adds	r3, r3, #4
 712 003a 44F61C62 		movw	r2, #19996
 713 003e 0021     		movs	r1, #0
 714 0040 1846     		mov	r0, r3
 715 0042 FFF7FEFF 		bl	memset
 320:..\src/command_processing.c ****     //==================================     choose info type and prepare string
 321:..\src/command_processing.c **** 
 322:..\src/command_processing.c ****     switch (info_type) {
 716              		.loc 1 322 0
 717 0046 07F14803 		add	r3, r7, #72
 718 004a 423B     		subs	r3, r3, #66
 719 004c 1B88     		ldrh	r3, [r3]
 720 004e 032B     		cmp	r3, #3
 721 0050 50D8     		bhi	.L63
 722 0052 01A2     		adr	r2, .L58
 723 0054 52F823F0 		ldr	pc, [r2, r3, lsl #2]
 724              		.p2align 2
 725              	.L58:
 726 0058 69000000 		.word	.L57+1
 727 005c 8B000000 		.word	.L59+1
 728 0060 AD000000 		.word	.L60+1
 729 0064 D3000000 		.word	.L61+1
 730              		.p2align 1
 731              	.L57:
 323:..\src/command_processing.c ****         case INFO_ALL:
 324:..\src/command_processing.c ****             prepare_generic_info(packet_string);
 732              		.loc 1 324 0
 733 0068 07F59C43 		add	r3, r7, #19968
 734 006c 03F12803 		add	r3, r3, #40
 735 0070 1846     		mov	r0, r3
 736 0072 FFF7FEFF 		bl	prepare_generic_info
 325:..\src/command_processing.c ****             UART_RS485_ClearTxBuffer(); 
 737              		.loc 1 325 0
 738 0076 FFF7FEFF 		bl	UART_RS485_ClearTxBuffer
 326:..\src/command_processing.c ****             UART_RS485_PutString(packet_string);
 739              		.loc 1 326 0
 740 007a 07F59C43 		add	r3, r7, #19968
 741 007e 03F12803 		add	r3, r3, #40
 742 0082 1846     		mov	r0, r3
 743 0084 FFF7FEFF 		bl	UART_RS485_PutString
 327:..\src/command_processing.c ****             break;
 744              		.loc 1 327 0
 745 0088 35E0     		b	.L62
 746              	.L59:
 328:..\src/command_processing.c ****         case CYCLES_INFO:
 329:..\src/command_processing.c ****             prepare_counter_info(packet_string);
 747              		.loc 1 329 0
 748 008a 07F59C43 		add	r3, r7, #19968
 749 008e 03F12803 		add	r3, r3, #40
 750 0092 1846     		mov	r0, r3
 751 0094 FFF7FEFF 		bl	prepare_counter_info
 330:..\src/command_processing.c ****             UART_RS485_ClearTxBuffer();
 752              		.loc 1 330 0
 753 0098 FFF7FEFF 		bl	UART_RS485_ClearTxBuffer
ARM GAS  C:\Users\Mattia\AppData\Local\Temp\ccPC8dFz.s 			page 34


 331:..\src/command_processing.c ****             UART_RS485_PutString(packet_string);
 754              		.loc 1 331 0
 755 009c 07F59C43 		add	r3, r7, #19968
 756 00a0 03F12803 		add	r3, r3, #40
 757 00a4 1846     		mov	r0, r3
 758 00a6 FFF7FEFF 		bl	UART_RS485_PutString
 332:..\src/command_processing.c ****             break;
 759              		.loc 1 332 0
 760 00aa 24E0     		b	.L62
 761              	.L60:
 333:..\src/command_processing.c ****         case GET_SD_PARAM:
 334:..\src/command_processing.c ****             Read_SD_Param(packet_string, sizeof(packet_string));
 762              		.loc 1 334 0
 763 00ac 07F59C43 		add	r3, r7, #19968
 764 00b0 03F12803 		add	r3, r3, #40
 765 00b4 4FF47A61 		mov	r1, #4000
 766 00b8 1846     		mov	r0, r3
 767 00ba FFF7FEFF 		bl	Read_SD_Param
 335:..\src/command_processing.c ****             UART_RS485_ClearTxBuffer();
 768              		.loc 1 335 0
 769 00be FFF7FEFF 		bl	UART_RS485_ClearTxBuffer
 336:..\src/command_processing.c ****             UART_RS485_PutString(packet_string);
 770              		.loc 1 336 0
 771 00c2 07F59C43 		add	r3, r7, #19968
 772 00c6 03F12803 		add	r3, r3, #40
 773 00ca 1846     		mov	r0, r3
 774 00cc FFF7FEFF 		bl	UART_RS485_PutString
 337:..\src/command_processing.c ****             break;
 775              		.loc 1 337 0
 776 00d0 11E0     		b	.L62
 777              	.L61:
 338:..\src/command_processing.c ****         case GET_SD_DATA:
 339:..\src/command_processing.c ****             Read_SD_Data(str_sd_data, sizeof(str_sd_data));
 778              		.loc 1 339 0
 779 00d2 07F14803 		add	r3, r7, #72
 780 00d6 403B     		subs	r3, r3, #64
 781 00d8 44F62061 		movw	r1, #20000
 782 00dc 1846     		mov	r0, r3
 783 00de FFF7FEFF 		bl	Read_SD_Data
 340:..\src/command_processing.c ****             UART_RS485_ClearTxBuffer();
 784              		.loc 1 340 0
 785 00e2 FFF7FEFF 		bl	UART_RS485_ClearTxBuffer
 341:..\src/command_processing.c ****             UART_RS485_PutString(str_sd_data);
 786              		.loc 1 341 0
 787 00e6 07F14803 		add	r3, r7, #72
 788 00ea 403B     		subs	r3, r3, #64
 789 00ec 1846     		mov	r0, r3
 790 00ee FFF7FEFF 		bl	UART_RS485_PutString
 342:..\src/command_processing.c **** 
 343:..\src/command_processing.c ****             break;
 791              		.loc 1 343 0
 792 00f2 00E0     		b	.L62
 793              	.L63:
 344:..\src/command_processing.c ****         default:
 345:..\src/command_processing.c ****             break;
 794              		.loc 1 345 0
 795 00f4 00BF     		nop
ARM GAS  C:\Users\Mattia\AppData\Local\Temp\ccPC8dFz.s 			page 35


 796              	.L62:
 346:..\src/command_processing.c ****     }
 347:..\src/command_processing.c **** }
 797              		.loc 1 347 0 discriminator 1
 798 00f6 00BF     		nop
 799 00f8 07F5BB47 		add	r7, r7, #23936
 800 00fc 4837     		adds	r7, r7, #72
 801              		.cfi_def_cfa_offset 8
 802 00fe BD46     		mov	sp, r7
 803              		.cfi_def_cfa_register 13
 804              		@ sp needed
 805 0100 80BD     		pop	{r7, pc}
 806              		.cfi_endproc
 807              	.LFE66:
 808              		.size	infoGet, .-infoGet
 809              		.global	__aeabi_i2f
 810              		.global	__aeabi_fdiv
 811 0102 00BF     		.section	.rodata
 812              		.align	2
 813              	.LC87:
 814 0000 20557362 		.ascii	" Usb\000"
 814      00
 815 0005 000000   		.align	2
 816              	.LC88:
 817 0008 2048616E 		.ascii	" Handle\000"
 817      646C6500 
 818              		.align	2
 819              	.LC89:
 820 0010 20454D47 		.ascii	" EMG proportional\000"
 820      2070726F 
 820      706F7274 
 820      696F6E61 
 820      6C00
 821 0022 0000     		.align	2
 822              	.LC90:
 823 0024 20454D47 		.ascii	" EMG integral\000"
 823      20696E74 
 823      65677261 
 823      6C00
 824 0032 0000     		.align	2
 825              	.LC91:
 826 0034 20454D47 		.ascii	" EMG FCFS\000"
 826      20464346 
 826      5300
 827 003e 0000     		.align	2
 828              	.LC92:
 829 0040 20454D47 		.ascii	" EMG FCFS Advanced\000"
 829      20464346 
 829      53204164 
 829      76616E63 
 829      656400
 830 0053 00       		.align	2
 831              	.LC93:
 832 0054 204A6F79 		.ascii	" Joystick\000"
 832      73746963 
 832      6B00
 833 005e 0000     		.align	2
ARM GAS  C:\Users\Mattia\AppData\Local\Temp\ccPC8dFz.s 			page 36


 834              	.LC94:
 835 0060 20454D47 		.ascii	" EMG proportional Normally Closed\000"
 835      2070726F 
 835      706F7274 
 835      696F6E61 
 835      6C204E6F 
 836 0082 0000     		.align	2
 837              	.LC95:
 838 0084 20506F73 		.ascii	" Position\000"
 838      6974696F 
 838      6E00
 839 008e 0000     		.align	2
 840              	.LC96:
 841 0090 2050574D 		.ascii	" PWM\000"
 841      00
 842 0095 000000   		.align	2
 843              	.LC97:
 844 0098 20437572 		.ascii	" Current\000"
 844      72656E74 
 844      00
 845 00a1 000000   		.align	2
 846              	.LC98:
 847 00a4 20506F73 		.ascii	" Position and Current\000"
 847      6974696F 
 847      6E20616E 
 847      64204375 
 847      7272656E 
 848 00ba 0000     		.align	2
 849              	.LC99:
 850 00bc 20594553 		.ascii	" YES\000\000"
 850      0000
 851 00c2 0000     		.align	2
 852              	.LC100:
 853 00c4 204E4F00 		.ascii	" NO\000\000"
 853      00
 854 00c9 000000   		.align	2
 855              	.LC101:
 856 00cc 20526967 		.ascii	" Right\000\000"
 856      68740000 
 857              		.align	2
 858              	.LC102:
 859 00d4 204C6566 		.ascii	" Left\000\000"
 859      740000
 860 00db 00       		.align	2
 861              	.LC103:
 862 00dc 204F4646 		.ascii	" OFF\000\000"
 862      0000
 863 00e2 0000     		.align	2
 864              	.LC104:
 865 00e4 204F4E00 		.ascii	" ON\000\000"
 865      00
 866 00e9 000000   		.align	2
 867              	.LC105:
 868 00ec 204E6F6E 		.ascii	" None\000\000"
 868      650000
 869 00f3 00       		.align	2
 870              	.LC106:
ARM GAS  C:\Users\Mattia\AppData\Local\Temp\ccPC8dFz.s 			page 37


 871 00f4 2053442F 		.ascii	" SD/RTC board\000\000"
 871      52544320 
 871      626F6172 
 871      640000
 872 0103 00       		.align	2
 873              	.LC107:
 874 0104 20576946 		.ascii	" WiFi board [N/A]\000\000"
 874      6920626F 
 874      61726420 
 874      5B4E2F41 
 874      5D0000
 875 0117 00       		.align	2
 876              	.LC108:
 877 0118 204F7468 		.ascii	" Other [N/A]\000\000"
 877      6572205B 
 877      4E2F415D 
 877      0000
 878 0126 0000     		.align	2
 879              	.LC109:
 880 0128 204C6F77 		.ascii	" Low\000\000"
 880      0000
 881 012e 0000     		.align	2
 882              	.LC110:
 883 0130 20486967 		.ascii	" High\000\000"
 883      680000
 884 0137 00       		.align	2
 885              	.LC111:
 886 0138 2047454E 		.ascii	" GENERIC USER\000\000"
 886      45524943 
 886      20555345 
 886      520000
 887 0147 00       		.align	2
 888              	.LC112:
 889 0148 204D4152 		.ascii	" MARIA\000\000"
 889      49410000 
 890              		.align	2
 891              	.LC113:
 892 0150 20524F5A 		.ascii	" ROZA\000\000"
 892      410000
 893 0157 00       		.align	2
 894              	.LC114:
 895 0158 204D4333 		.ascii	" MC33887 (Standard)\000\000"
 895      33383837 
 895      20285374 
 895      616E6461 
 895      72642900 
 896 016d 000000   		.align	2
 897              	.LC115:
 898 0170 20564E48 		.ascii	" VNH5019 (High power)\000\000"
 898      35303139 
 898      20284869 
 898      67682070 
 898      6F776572 
 899 0187 00       		.align	2
 900              	.LC116:
 901 0188 20534F46 		.ascii	" SOFTHAND PRO\000\000"
 901      5448414E 
ARM GAS  C:\Users\Mattia\AppData\Local\Temp\ccPC8dFz.s 			page 38


 901      44205052 
 901      4F0000
 902 0197 00       		.align	2
 903              	.LC117:
 904 0198 2047454E 		.ascii	" GENERIC 2 MOTORS\000\000"
 904      45524943 
 904      2032204D 
 904      4F544F52 
 904      530000
 905 01ab 00       		.align	2
 906              	.LC118:
 907 01ac 20414952 		.ascii	" AIR CHAMBERS\000\000"
 907      20434841 
 907      4D424552 
 907      530000
 908 01bb 00       		.align	2
 909              	.LC119:
 910 01bc 204F5454 		.ascii	" OTTOBOCK WRIST\000\000"
 910      4F424F43 
 910      4B205752 
 910      49535400 
 910      00
 911 01cd 000000   		.align	2
 912              	.LC120:
 913 01d0 20534F46 		.ascii	" SOFTHAND 2 MOTORS\000\000"
 913      5448414E 
 913      44203220 
 913      4D4F544F 
 913      52530000 
 914              		.align	2
 915              	.LC121:
 916 01e4 20466173 		.ascii	" Fast:syn2, Slow:syn1\000\000"
 916      743A7379 
 916      6E322C20 
 916      536C6F77 
 916      3A73796E 
 917 01fb 00       		.align	2
 918              	.LC122:
 919 01fc 20466173 		.ascii	" Fast:wrist, Slow:hand\000\000"
 919      743A7772 
 919      6973742C 
 919      20536C6F 
 919      773A6861 
 920              		.align	2
 921              	.LC123:
 922 0214 20536C6F 		.ascii	" Slow:syn2, Fast:syn1\000\000"
 922      773A7379 
 922      6E322C20 
 922      46617374 
 922      3A73796E 
 923 022b 00       		.align	2
 924              	.LC124:
 925 022c 20536C6F 		.ascii	" Slow:wrist, Fast:hand\000\000"
 925      773A7772 
 925      6973742C 
 925      20466173 
 925      743A6861 
ARM GAS  C:\Users\Mattia\AppData\Local\Temp\ccPC8dFz.s 			page 39


 926              		.align	2
 927              	.LC125:
 928 0244 20436C6F 		.ascii	" Close:CW, Open:CCW\000\000"
 928      73653A43 
 928      572C204F 
 928      70656E3A 
 928      43435700 
 929 0259 000000   		.align	2
 930              	.LC126:
 931 025c 20436C6F 		.ascii	" Close:CCW, Open:CW\000\000"
 931      73653A43 
 931      43572C20 
 931      4F70656E 
 931      3A435700 
 932              		.section	.text.get_param_list,"ax",%progbits
 933              		.align	2
 934              		.global	get_param_list
 935              		.thumb
 936              		.thumb_func
 937              		.type	get_param_list, %function
 938              	get_param_list:
 939              	.LFB67:
 348:..\src/command_processing.c **** 
 349:..\src/command_processing.c **** 
 350:..\src/command_processing.c **** //==============================================================================
 351:..\src/command_processing.c **** //                                                                GET PARAM LIST
 352:..\src/command_processing.c **** //==============================================================================
 353:..\src/command_processing.c **** 
 354:..\src/command_processing.c **** void get_param_list (uint8* VAR_P[NUM_OF_PARAMS], uint8 TYPES[NUM_OF_PARAMS], 
 355:..\src/command_processing.c ****                      uint8 NUM_ITEMS[NUM_OF_PARAMS], uint8 NUM_STRUCT[NUM_OF_PARAMS],
 356:..\src/command_processing.c ****                      uint8* NUM_MENU, const char* PARAMS_STR[NUM_OF_PARAMS], 
 357:..\src/command_processing.c ****                      uint8 CUSTOM_PARAM_GET[NUM_OF_PARAMS], const char* MENU_STR[NUM_OF_PARAMS_MENU
 940              		.loc 1 357 0
 941              		.cfi_startproc
 942              		@ args = 16, pretend = 0, frame = 5608
 943              		@ frame_needed = 1, uses_anonymous_args = 0
 944 0000 F0B5     		push	{r4, r5, r6, r7, lr}
 945              		.cfi_def_cfa_offset 20
 946              		.cfi_offset 4, -20
 947              		.cfi_offset 5, -16
 948              		.cfi_offset 6, -12
 949              		.cfi_offset 7, -8
 950              		.cfi_offset 14, -4
 951 0002 ADF5AF5D 		sub	sp, sp, #5600
 952              		.cfi_def_cfa_offset 5620
 953 0006 83B0     		sub	sp, sp, #12
 954              		.cfi_def_cfa_offset 5632
 955 0008 00AF     		add	r7, sp, #0
 956              		.cfi_def_cfa_register 7
 957 000a 07F12804 		add	r4, r7, #40
 958 000e 1C3C     		subs	r4, r4, #28
 959 0010 2060     		str	r0, [r4]
 960 0012 07F10800 		add	r0, r7, #8
 961 0016 0160     		str	r1, [r0]
 962 0018 07F10801 		add	r1, r7, #8
 963 001c 0439     		subs	r1, r1, #4
 964 001e 0A60     		str	r2, [r1]
ARM GAS  C:\Users\Mattia\AppData\Local\Temp\ccPC8dFz.s 			page 40


 965 0020 07F10802 		add	r2, r7, #8
 966 0024 083A     		subs	r2, r2, #8
 967 0026 1360     		str	r3, [r2]
 358:..\src/command_processing.c ****     
 359:..\src/command_processing.c ****     //Package to be sent variables
 360:..\src/command_processing.c ****     uint8 packet_data[PARAM_BYTE_SLOT*NUM_OF_DEV_PARAMS + PARAM_MENU_SLOT*NUM_OF_DEV_PARAM_MENUS + 
 968              		.loc 1 360 0
 969 0028 07F16803 		add	r3, r7, #104
 970 002c 103B     		subs	r3, r3, #16
 971 002e 0022     		movs	r2, #0
 972 0030 1A60     		str	r2, [r3]
 973 0032 0433     		adds	r3, r3, #4
 974 0034 41F27852 		movw	r2, #5496
 975 0038 0021     		movs	r1, #0
 976 003a 1846     		mov	r0, r3
 977 003c FFF7FEFF 		bl	memset
 361:..\src/command_processing.c ****     uint16 packet_lenght = PARAM_BYTE_SLOT*NUM_OF_DEV_PARAMS + PARAM_MENU_SLOT*NUM_OF_DEV_PARAM_MEN
 978              		.loc 1 361 0
 979 0040 41F27C53 		movw	r3, #5500
 980 0044 07F5AF52 		add	r2, r7, #5600
 981 0048 1380     		strh	r3, [r2]	@ movhi
 362:..\src/command_processing.c **** 
 363:..\src/command_processing.c ****     //Auxiliary variables
 364:..\src/command_processing.c ****     uint8 CYDATA i, j;
 365:..\src/command_processing.c ****     uint8 CYDATA idx = 0;       //Parameter number
 982              		.loc 1 365 0
 983 004a 0023     		movs	r3, #0
 984 004c 07F5AF52 		add	r2, r7, #5600
 985 0050 02F10502 		add	r2, r2, #5
 986 0054 1370     		strb	r3, [r2]
 366:..\src/command_processing.c ****     uint8 CYDATA idx_menu = 0;
 987              		.loc 1 366 0
 988 0056 0023     		movs	r3, #0
 989 0058 07F5AF52 		add	r2, r7, #5600
 990 005c 02F10402 		add	r2, r2, #4
 991 0060 1370     		strb	r3, [r2]
 367:..\src/command_processing.c ****     uint8 CYDATA sod = 0;       //sizeof data
 992              		.loc 1 367 0
 993 0062 0023     		movs	r3, #0
 994 0064 07F5AF52 		add	r2, r7, #5600
 995 0068 02F10302 		add	r2, r2, #3
 996 006c 1370     		strb	r3, [r2]
 368:..\src/command_processing.c ****     uint8 CYDATA string_lenght;
 369:..\src/command_processing.c ****     char CYDATA aux_str[50] = "";
 997              		.loc 1 369 0
 998 006e 07F12803 		add	r3, r7, #40
 999 0072 043B     		subs	r3, r3, #4
 1000 0074 0022     		movs	r2, #0
 1001 0076 1A60     		str	r2, [r3]
 1002 0078 0433     		adds	r3, r3, #4
 1003 007a 2E22     		movs	r2, #46
 1004 007c 0021     		movs	r1, #0
 1005 007e 1846     		mov	r0, r3
 1006 0080 FFF7FEFF 		bl	memset
 370:..\src/command_processing.c ****     float aux_float;
 371:..\src/command_processing.c ****     int16 aux_int16;
 372:..\src/command_processing.c ****     uint16 aux_uint16;
ARM GAS  C:\Users\Mattia\AppData\Local\Temp\ccPC8dFz.s 			page 41


 373:..\src/command_processing.c ****     int32 aux_int32;
 374:..\src/command_processing.c ****     uint32 aux_uint32;
 375:..\src/command_processing.c **** 
 376:..\src/command_processing.c ****     uint8 MOTOR_IDX = 0;
 1007              		.loc 1 376 0
 1008 0084 0023     		movs	r3, #0
 1009 0086 07F5AE52 		add	r2, r7, #5568
 1010 008a 02F11F02 		add	r2, r2, #31
 1011 008e 1370     		strb	r3, [r2]
 377:..\src/command_processing.c ****     uint8 SECOND_MOTOR_IDX = 1;
 1012              		.loc 1 377 0
 1013 0090 0123     		movs	r3, #1
 1014 0092 07F5AE52 		add	r2, r7, #5568
 1015 0096 02F11E02 		add	r2, r2, #30
 1016 009a 1370     		strb	r3, [r2]
 378:..\src/command_processing.c ****   
 379:..\src/command_processing.c ****     uint8* m_addr = (uint8*)VAR_P[0];
 1017              		.loc 1 379 0
 1018 009c 07F12803 		add	r3, r7, #40
 1019 00a0 1C3B     		subs	r3, r3, #28
 1020 00a2 1B68     		ldr	r3, [r3]
 1021 00a4 1B68     		ldr	r3, [r3]
 1022 00a6 07F5AE52 		add	r2, r7, #5568
 1023 00aa 02F11802 		add	r2, r2, #24
 1024 00ae 1360     		str	r3, [r2]
 380:..\src/command_processing.c ****     uint8* m_tmp = m_addr;
 1025              		.loc 1 380 0
 1026 00b0 07F5AE53 		add	r3, r7, #5568
 1027 00b4 03F11803 		add	r3, r3, #24
 1028 00b8 1B68     		ldr	r3, [r3]
 1029 00ba 07F5AE52 		add	r2, r7, #5568
 1030 00be 02F11402 		add	r2, r2, #20
 1031 00c2 1360     		str	r3, [r2]
 381:..\src/command_processing.c ****         
 382:..\src/command_processing.c ****     packet_data[0] = CMD_GET_PARAM_LIST;
 1032              		.loc 1 382 0
 1033 00c4 07F16803 		add	r3, r7, #104
 1034 00c8 103B     		subs	r3, r3, #16
 1035 00ca 0C22     		movs	r2, #12
 1036 00cc 1A70     		strb	r2, [r3]
 383:..\src/command_processing.c ****     packet_data[1] = NUM_OF_DEV_PARAMS;
 1037              		.loc 1 383 0
 1038 00ce 07F16803 		add	r3, r7, #104
 1039 00d2 103B     		subs	r3, r3, #16
 1040 00d4 4C22     		movs	r2, #76
 1041 00d6 5A70     		strb	r2, [r3, #1]
 384:..\src/command_processing.c ****     
 385:..\src/command_processing.c ****     for (idx = 0; idx < NUM_OF_DEV_PARAMS; idx++) {
 1042              		.loc 1 385 0
 1043 00d8 0023     		movs	r3, #0
 1044 00da 07F5AF52 		add	r2, r7, #5600
 1045 00de 02F10502 		add	r2, r2, #5
 1046 00e2 1370     		strb	r3, [r2]
 1047 00e4 02F0E3BF 		b	.L65
 1048              	.L267:
 386:..\src/command_processing.c ****         
 387:..\src/command_processing.c ****         // Assign m_addr memory address
ARM GAS  C:\Users\Mattia\AppData\Local\Temp\ccPC8dFz.s 			page 42


 388:..\src/command_processing.c ****         m_addr = (uint8*)VAR_P[idx];
 1049              		.loc 1 388 0
 1050 00e8 07F5AF53 		add	r3, r7, #5600
 1051 00ec 03F10503 		add	r3, r3, #5
 1052 00f0 1B78     		ldrb	r3, [r3]	@ zero_extendqisi2
 1053 00f2 9A00     		lsls	r2, r3, #2
 1054 00f4 07F12803 		add	r3, r7, #40
 1055 00f8 1C3B     		subs	r3, r3, #28
 1056 00fa 1B68     		ldr	r3, [r3]
 1057 00fc 1344     		add	r3, r3, r2
 1058 00fe 1B68     		ldr	r3, [r3]
 1059 0100 07F5AE52 		add	r2, r7, #5568
 1060 0104 02F11802 		add	r2, r2, #24
 1061 0108 1360     		str	r3, [r2]
 389:..\src/command_processing.c ****         
 390:..\src/command_processing.c ****         // Add parameter type and size to packet
 391:..\src/command_processing.c ****         packet_data[2 + PARAM_BYTE_SLOT*idx] = TYPES[idx];
 1062              		.loc 1 391 0
 1063 010a 07F5AF53 		add	r3, r7, #5600
 1064 010e 03F10503 		add	r3, r3, #5
 1065 0112 1B78     		ldrb	r3, [r3]	@ zero_extendqisi2
 1066 0114 3222     		movs	r2, #50
 1067 0116 02FB03F3 		mul	r3, r2, r3
 1068 011a 9A1C     		adds	r2, r3, #2
 1069 011c 07F5AF53 		add	r3, r7, #5600
 1070 0120 03F10503 		add	r3, r3, #5
 1071 0124 1B78     		ldrb	r3, [r3]	@ zero_extendqisi2
 1072 0126 07F10801 		add	r1, r7, #8
 1073 012a 0968     		ldr	r1, [r1]
 1074 012c 0B44     		add	r3, r3, r1
 1075 012e 1978     		ldrb	r1, [r3]	@ zero_extendqisi2
 1076 0130 07F16803 		add	r3, r7, #104
 1077 0134 103B     		subs	r3, r3, #16
 1078 0136 9954     		strb	r1, [r3, r2]
 392:..\src/command_processing.c ****         packet_data[3 + PARAM_BYTE_SLOT*idx] = NUM_ITEMS[idx];
 1079              		.loc 1 392 0
 1080 0138 07F5AF53 		add	r3, r7, #5600
 1081 013c 03F10503 		add	r3, r3, #5
 1082 0140 1B78     		ldrb	r3, [r3]	@ zero_extendqisi2
 1083 0142 3222     		movs	r2, #50
 1084 0144 02FB03F3 		mul	r3, r2, r3
 1085 0148 DA1C     		adds	r2, r3, #3
 1086 014a 07F5AF53 		add	r3, r7, #5600
 1087 014e 03F10503 		add	r3, r3, #5
 1088 0152 1978     		ldrb	r1, [r3]	@ zero_extendqisi2
 1089 0154 07F10803 		add	r3, r7, #8
 1090 0158 043B     		subs	r3, r3, #4
 1091 015a 1B68     		ldr	r3, [r3]
 1092 015c 0B44     		add	r3, r3, r1
 1093 015e 1978     		ldrb	r1, [r3]	@ zero_extendqisi2
 1094 0160 07F16803 		add	r3, r7, #104
 1095 0164 103B     		subs	r3, r3, #16
 1096 0166 9954     		strb	r1, [r3, r2]
 393:..\src/command_processing.c ****         
 394:..\src/command_processing.c ****         // Find size of data
 395:..\src/command_processing.c ****         switch (TYPES[idx]) {
 1097              		.loc 1 395 0
ARM GAS  C:\Users\Mattia\AppData\Local\Temp\ccPC8dFz.s 			page 43


 1098 0168 07F5AF53 		add	r3, r7, #5600
 1099 016c 03F10503 		add	r3, r3, #5
 1100 0170 1B78     		ldrb	r3, [r3]	@ zero_extendqisi2
 1101 0172 07F10802 		add	r2, r7, #8
 1102 0176 1268     		ldr	r2, [r2]
 1103 0178 1344     		add	r3, r3, r2
 1104 017a 1B78     		ldrb	r3, [r3]	@ zero_extendqisi2
 1105 017c 092B     		cmp	r3, #9
 1106 017e 2CD8     		bhi	.L66
 1107 0180 01A2     		adr	r2, .L68
 1108 0182 52F823F0 		ldr	pc, [r2, r3, lsl #2]
 1109 0186 00BF     		.p2align 2
 1110              	.L68:
 1111 0188 B1010000 		.word	.L67+1
 1112 018c B1010000 		.word	.L67+1
 1113 0190 B1010000 		.word	.L67+1
 1114 0194 BF010000 		.word	.L69+1
 1115 0198 BF010000 		.word	.L69+1
 1116 019c CD010000 		.word	.L70+1
 1117 01a0 CD010000 		.word	.L70+1
 1118 01a4 CD010000 		.word	.L70+1
 1119 01a8 DB010000 		.word	.L66+1
 1120 01ac B1010000 		.word	.L67+1
 1121              		.p2align 1
 1122              	.L67:
 396:..\src/command_processing.c ****             case TYPE_FLAG: case TYPE_INT8: case TYPE_UINT8: case TYPE_STRING:
 397:..\src/command_processing.c ****                 sod = 1; break;
 1123              		.loc 1 397 0
 1124 01b0 0123     		movs	r3, #1
 1125 01b2 07F5AF52 		add	r2, r7, #5600
 1126 01b6 02F10302 		add	r2, r2, #3
 1127 01ba 1370     		strb	r3, [r2]
 1128 01bc 0DE0     		b	.L66
 1129              	.L69:
 398:..\src/command_processing.c ****             case TYPE_INT16: case TYPE_UINT16:
 399:..\src/command_processing.c ****                 sod = 2; break;
 1130              		.loc 1 399 0
 1131 01be 0223     		movs	r3, #2
 1132 01c0 07F5AF52 		add	r2, r7, #5600
 1133 01c4 02F10302 		add	r2, r2, #3
 1134 01c8 1370     		strb	r3, [r2]
 1135 01ca 06E0     		b	.L66
 1136              	.L70:
 400:..\src/command_processing.c ****             case TYPE_INT32: case TYPE_UINT32: case TYPE_FLOAT:
 401:..\src/command_processing.c ****                 sod = 4; break;
 1137              		.loc 1 401 0
 1138 01cc 0423     		movs	r3, #4
 1139 01ce 07F5AF52 		add	r2, r7, #5600
 1140 01d2 02F10302 		add	r2, r2, #3
 1141 01d6 1370     		strb	r3, [r2]
 1142 01d8 00BF     		nop
 1143              	.L66:
 402:..\src/command_processing.c ****         }
 403:..\src/command_processing.c ****             
 404:..\src/command_processing.c ****         if (!CUSTOM_PARAM_GET[idx]) {       // Default param get
 1144              		.loc 1 404 0
 1145 01da 07F5AF53 		add	r3, r7, #5600
ARM GAS  C:\Users\Mattia\AppData\Local\Temp\ccPC8dFz.s 			page 44


 1146 01de 03F10503 		add	r3, r3, #5
 1147 01e2 1B78     		ldrb	r3, [r3]	@ zero_extendqisi2
 1148 01e4 07F5B052 		add	r2, r7, #5632
 1149 01e8 02F10802 		add	r2, r2, #8
 1150 01ec 1268     		ldr	r2, [r2]
 1151 01ee 1344     		add	r3, r3, r2
 1152 01f0 1B78     		ldrb	r3, [r3]	@ zero_extendqisi2
 1153 01f2 002B     		cmp	r3, #0
 1154 01f4 40F0DA83 		bne	.L71
 405:..\src/command_processing.c ****             
 406:..\src/command_processing.c ****             // Add parameter data to packet
 407:..\src/command_processing.c ****             switch (TYPES[idx]) {
 1155              		.loc 1 407 0
 1156 01f8 07F5AF53 		add	r3, r7, #5600
 1157 01fc 03F10503 		add	r3, r3, #5
 1158 0200 1B78     		ldrb	r3, [r3]	@ zero_extendqisi2
 1159 0202 07F10802 		add	r2, r7, #8
 1160 0206 1268     		ldr	r2, [r2]
 1161 0208 1344     		add	r3, r3, r2
 1162 020a 1B78     		ldrb	r3, [r3]	@ zero_extendqisi2
 1163 020c 092B     		cmp	r3, #9
 1164 020e 02F23481 		bhi	.L105
 1165 0212 01A2     		adr	r2, .L74
 1166 0214 52F823F0 		ldr	pc, [r2, r3, lsl #2]
 1167              		.p2align 2
 1168              	.L74:
 1169 0218 41020000 		.word	.L73+1
 1170 021c FD020000 		.word	.L75+1
 1171 0220 41020000 		.word	.L73+1
 1172 0224 B9030000 		.word	.L76+1
 1173 0228 EB040000 		.word	.L77+1
 1174 022c 1B060000 		.word	.L78+1
 1175 0230 4B070000 		.word	.L79+1
 1176 0234 7B080000 		.word	.L80+1
 1177 0238 7B240000 		.word	.L105+1
 1178 023c 41020000 		.word	.L73+1
 1179              		.p2align 1
 1180              	.L73:
 408:..\src/command_processing.c ****                 case TYPE_FLAG: case TYPE_UINT8: case TYPE_STRING:
 409:..\src/command_processing.c ****                     for (i=0; i<NUM_ITEMS[idx]; i++){
 1181              		.loc 1 409 0
 1182 0240 0023     		movs	r3, #0
 1183 0242 07F5AF52 		add	r2, r7, #5600
 1184 0246 02F10702 		add	r2, r2, #7
 1185 024a 1370     		strb	r3, [r2]
 1186 024c 42E0     		b	.L81
 1187              	.L82:
 410:..\src/command_processing.c ****                         m_tmp = m_addr + i*sod;
 1188              		.loc 1 410 0 discriminator 3
 1189 024e 07F5AF53 		add	r3, r7, #5600
 1190 0252 03F10703 		add	r3, r3, #7
 1191 0256 1B78     		ldrb	r3, [r3]	@ zero_extendqisi2
 1192 0258 07F5AF52 		add	r2, r7, #5600
 1193 025c 02F10302 		add	r2, r2, #3
 1194 0260 1278     		ldrb	r2, [r2]	@ zero_extendqisi2
 1195 0262 02FB03F3 		mul	r3, r2, r3
 1196 0266 1A46     		mov	r2, r3
ARM GAS  C:\Users\Mattia\AppData\Local\Temp\ccPC8dFz.s 			page 45


 1197 0268 07F5AE53 		add	r3, r7, #5568
 1198 026c 03F11803 		add	r3, r3, #24
 1199 0270 1B68     		ldr	r3, [r3]
 1200 0272 1344     		add	r3, r3, r2
 1201 0274 07F5AE52 		add	r2, r7, #5568
 1202 0278 02F11402 		add	r2, r2, #20
 1203 027c 1360     		str	r3, [r2]
 411:..\src/command_processing.c ****                         packet_data[4 + PARAM_BYTE_SLOT*idx + i*sod] = *m_tmp;
 1204              		.loc 1 411 0 discriminator 3
 1205 027e 07F5AF53 		add	r3, r7, #5600
 1206 0282 03F10503 		add	r3, r3, #5
 1207 0286 1B78     		ldrb	r3, [r3]	@ zero_extendqisi2
 1208 0288 3222     		movs	r2, #50
 1209 028a 02FB03F3 		mul	r3, r2, r3
 1210 028e 1A1D     		adds	r2, r3, #4
 1211 0290 07F5AF53 		add	r3, r7, #5600
 1212 0294 03F10703 		add	r3, r3, #7
 1213 0298 1B78     		ldrb	r3, [r3]	@ zero_extendqisi2
 1214 029a 07F5AF51 		add	r1, r7, #5600
 1215 029e 01F10301 		add	r1, r1, #3
 1216 02a2 0978     		ldrb	r1, [r1]	@ zero_extendqisi2
 1217 02a4 01FB03F3 		mul	r3, r1, r3
 1218 02a8 1A44     		add	r2, r2, r3
 1219 02aa 07F5AE53 		add	r3, r7, #5568
 1220 02ae 03F11403 		add	r3, r3, #20
 1221 02b2 1B68     		ldr	r3, [r3]
 1222 02b4 1978     		ldrb	r1, [r3]	@ zero_extendqisi2
 1223 02b6 07F16803 		add	r3, r7, #104
 1224 02ba 103B     		subs	r3, r3, #16
 1225 02bc 9954     		strb	r1, [r3, r2]
 409:..\src/command_processing.c ****                         m_tmp = m_addr + i*sod;
 1226              		.loc 1 409 0 discriminator 3
 1227 02be 07F5AF53 		add	r3, r7, #5600
 1228 02c2 03F10703 		add	r3, r3, #7
 1229 02c6 1B78     		ldrb	r3, [r3]	@ zero_extendqisi2
 1230 02c8 0133     		adds	r3, r3, #1
 1231 02ca 07F5AF52 		add	r2, r7, #5600
 1232 02ce 02F10702 		add	r2, r2, #7
 1233 02d2 1370     		strb	r3, [r2]
 1234              	.L81:
 409:..\src/command_processing.c ****                         m_tmp = m_addr + i*sod;
 1235              		.loc 1 409 0 is_stmt 0 discriminator 1
 1236 02d4 07F5AF53 		add	r3, r7, #5600
 1237 02d8 03F10503 		add	r3, r3, #5
 1238 02dc 1A78     		ldrb	r2, [r3]	@ zero_extendqisi2
 1239 02de 07F10803 		add	r3, r7, #8
 1240 02e2 043B     		subs	r3, r3, #4
 1241 02e4 1B68     		ldr	r3, [r3]
 1242 02e6 1344     		add	r3, r3, r2
 1243 02e8 1B78     		ldrb	r3, [r3]	@ zero_extendqisi2
 1244 02ea 07F5AF52 		add	r2, r7, #5600
 1245 02ee 02F10702 		add	r2, r2, #7
 1246 02f2 1278     		ldrb	r2, [r2]	@ zero_extendqisi2
 1247 02f4 9A42     		cmp	r2, r3
 1248 02f6 AAD3     		bcc	.L82
 412:..\src/command_processing.c ****                     }
 413:..\src/command_processing.c ****                     break;                
ARM GAS  C:\Users\Mattia\AppData\Local\Temp\ccPC8dFz.s 			page 46


 1249              		.loc 1 413 0 is_stmt 1
 1250 02f8 02F0BFB8 		b	.L105
 1251              	.L75:
 414:..\src/command_processing.c ****                 case TYPE_INT8:
 415:..\src/command_processing.c ****                     for (i=0; i<NUM_ITEMS[idx]; i++){
 1252              		.loc 1 415 0
 1253 02fc 0023     		movs	r3, #0
 1254 02fe 07F5AF52 		add	r2, r7, #5600
 1255 0302 02F10702 		add	r2, r2, #7
 1256 0306 1370     		strb	r3, [r2]
 1257 0308 42E0     		b	.L83
 1258              	.L84:
 416:..\src/command_processing.c ****                         m_tmp = m_addr + i*sod;
 1259              		.loc 1 416 0 discriminator 3
 1260 030a 07F5AF53 		add	r3, r7, #5600
 1261 030e 03F10703 		add	r3, r3, #7
 1262 0312 1B78     		ldrb	r3, [r3]	@ zero_extendqisi2
 1263 0314 07F5AF52 		add	r2, r7, #5600
 1264 0318 02F10302 		add	r2, r2, #3
 1265 031c 1278     		ldrb	r2, [r2]	@ zero_extendqisi2
 1266 031e 02FB03F3 		mul	r3, r2, r3
 1267 0322 1A46     		mov	r2, r3
 1268 0324 07F5AE53 		add	r3, r7, #5568
 1269 0328 03F11803 		add	r3, r3, #24
 1270 032c 1B68     		ldr	r3, [r3]
 1271 032e 1344     		add	r3, r3, r2
 1272 0330 07F5AE52 		add	r2, r7, #5568
 1273 0334 02F11402 		add	r2, r2, #20
 1274 0338 1360     		str	r3, [r2]
 417:..\src/command_processing.c ****                         packet_data[4 + PARAM_BYTE_SLOT*idx + i*sod] = *m_tmp;
 1275              		.loc 1 417 0 discriminator 3
 1276 033a 07F5AF53 		add	r3, r7, #5600
 1277 033e 03F10503 		add	r3, r3, #5
 1278 0342 1B78     		ldrb	r3, [r3]	@ zero_extendqisi2
 1279 0344 3222     		movs	r2, #50
 1280 0346 02FB03F3 		mul	r3, r2, r3
 1281 034a 1A1D     		adds	r2, r3, #4
 1282 034c 07F5AF53 		add	r3, r7, #5600
 1283 0350 03F10703 		add	r3, r3, #7
 1284 0354 1B78     		ldrb	r3, [r3]	@ zero_extendqisi2
 1285 0356 07F5AF51 		add	r1, r7, #5600
 1286 035a 01F10301 		add	r1, r1, #3
 1287 035e 0978     		ldrb	r1, [r1]	@ zero_extendqisi2
 1288 0360 01FB03F3 		mul	r3, r1, r3
 1289 0364 1A44     		add	r2, r2, r3
 1290 0366 07F5AE53 		add	r3, r7, #5568
 1291 036a 03F11403 		add	r3, r3, #20
 1292 036e 1B68     		ldr	r3, [r3]
 1293 0370 1978     		ldrb	r1, [r3]	@ zero_extendqisi2
 1294 0372 07F16803 		add	r3, r7, #104
 1295 0376 103B     		subs	r3, r3, #16
 1296 0378 9954     		strb	r1, [r3, r2]
 415:..\src/command_processing.c ****                         m_tmp = m_addr + i*sod;
 1297              		.loc 1 415 0 discriminator 3
 1298 037a 07F5AF53 		add	r3, r7, #5600
 1299 037e 03F10703 		add	r3, r3, #7
 1300 0382 1B78     		ldrb	r3, [r3]	@ zero_extendqisi2
ARM GAS  C:\Users\Mattia\AppData\Local\Temp\ccPC8dFz.s 			page 47


 1301 0384 0133     		adds	r3, r3, #1
 1302 0386 07F5AF52 		add	r2, r7, #5600
 1303 038a 02F10702 		add	r2, r2, #7
 1304 038e 1370     		strb	r3, [r2]
 1305              	.L83:
 415:..\src/command_processing.c ****                         m_tmp = m_addr + i*sod;
 1306              		.loc 1 415 0 is_stmt 0 discriminator 1
 1307 0390 07F5AF53 		add	r3, r7, #5600
 1308 0394 03F10503 		add	r3, r3, #5
 1309 0398 1A78     		ldrb	r2, [r3]	@ zero_extendqisi2
 1310 039a 07F10803 		add	r3, r7, #8
 1311 039e 043B     		subs	r3, r3, #4
 1312 03a0 1B68     		ldr	r3, [r3]
 1313 03a2 1344     		add	r3, r3, r2
 1314 03a4 1B78     		ldrb	r3, [r3]	@ zero_extendqisi2
 1315 03a6 07F5AF52 		add	r2, r7, #5600
 1316 03aa 02F10702 		add	r2, r2, #7
 1317 03ae 1278     		ldrb	r2, [r2]	@ zero_extendqisi2
 1318 03b0 9A42     		cmp	r2, r3
 1319 03b2 AAD3     		bcc	.L84
 418:..\src/command_processing.c ****                     }
 419:..\src/command_processing.c ****                     break;
 1320              		.loc 1 419 0 is_stmt 1
 1321 03b4 02F061B8 		b	.L105
 1322              	.L76:
 420:..\src/command_processing.c ****                 case TYPE_INT16:
 421:..\src/command_processing.c ****                     for (i=0; i<NUM_ITEMS[idx]; i++){
 1323              		.loc 1 421 0
 1324 03b8 0023     		movs	r3, #0
 1325 03ba 07F5AF52 		add	r2, r7, #5600
 1326 03be 02F10702 		add	r2, r2, #7
 1327 03c2 1370     		strb	r3, [r2]
 1328 03c4 7CE0     		b	.L85
 1329              	.L88:
 422:..\src/command_processing.c ****                         m_tmp = m_addr + i*sod;
 1330              		.loc 1 422 0
 1331 03c6 07F5AF53 		add	r3, r7, #5600
 1332 03ca 03F10703 		add	r3, r3, #7
 1333 03ce 1B78     		ldrb	r3, [r3]	@ zero_extendqisi2
 1334 03d0 07F5AF52 		add	r2, r7, #5600
 1335 03d4 02F10302 		add	r2, r2, #3
 1336 03d8 1278     		ldrb	r2, [r2]	@ zero_extendqisi2
 1337 03da 02FB03F3 		mul	r3, r2, r3
 1338 03de 1A46     		mov	r2, r3
 1339 03e0 07F5AE53 		add	r3, r7, #5568
 1340 03e4 03F11803 		add	r3, r3, #24
 1341 03e8 1B68     		ldr	r3, [r3]
 1342 03ea 1344     		add	r3, r3, r2
 1343 03ec 07F5AE52 		add	r2, r7, #5568
 1344 03f0 02F11402 		add	r2, r2, #20
 1345 03f4 1360     		str	r3, [r2]
 423:..\src/command_processing.c ****                         aux_int16 = *((int16*)m_tmp);
 1346              		.loc 1 423 0
 1347 03f6 07F5AE53 		add	r3, r7, #5568
 1348 03fa 03F11403 		add	r3, r3, #20
 1349 03fe 1B68     		ldr	r3, [r3]
 1350 0400 B3F90020 		ldrsh	r2, [r3]
ARM GAS  C:\Users\Mattia\AppData\Local\Temp\ccPC8dFz.s 			page 48


 1351 0404 07F12803 		add	r3, r7, #40
 1352 0408 0A3B     		subs	r3, r3, #10
 1353 040a 1A80     		strh	r2, [r3]	@ movhi
 424:..\src/command_processing.c ****                         for(j = 0; j < sod; j++) {
 1354              		.loc 1 424 0
 1355 040c 0023     		movs	r3, #0
 1356 040e 07F5AF52 		add	r2, r7, #5600
 1357 0412 02F10602 		add	r2, r2, #6
 1358 0416 1370     		strb	r3, [r2]
 1359 0418 3BE0     		b	.L86
 1360              	.L87:
 425:..\src/command_processing.c ****                             packet_data[(4 + PARAM_BYTE_SLOT*idx + i*sod) + sod - j -1] = ((char*)(
 1361              		.loc 1 425 0 discriminator 3
 1362 041a 07F5AF53 		add	r3, r7, #5600
 1363 041e 03F10503 		add	r3, r3, #5
 1364 0422 1B78     		ldrb	r3, [r3]	@ zero_extendqisi2
 1365 0424 3222     		movs	r2, #50
 1366 0426 02FB03F3 		mul	r3, r2, r3
 1367 042a 1A1D     		adds	r2, r3, #4
 1368 042c 07F5AF53 		add	r3, r7, #5600
 1369 0430 03F10703 		add	r3, r3, #7
 1370 0434 1B78     		ldrb	r3, [r3]	@ zero_extendqisi2
 1371 0436 07F5AF51 		add	r1, r7, #5600
 1372 043a 01F10301 		add	r1, r1, #3
 1373 043e 0978     		ldrb	r1, [r1]	@ zero_extendqisi2
 1374 0440 01FB03F3 		mul	r3, r1, r3
 1375 0444 1A44     		add	r2, r2, r3
 1376 0446 07F5AF53 		add	r3, r7, #5600
 1377 044a 03F10303 		add	r3, r3, #3
 1378 044e 1B78     		ldrb	r3, [r3]	@ zero_extendqisi2
 1379 0450 1A44     		add	r2, r2, r3
 1380 0452 07F5AF53 		add	r3, r7, #5600
 1381 0456 03F10603 		add	r3, r3, #6
 1382 045a 1B78     		ldrb	r3, [r3]	@ zero_extendqisi2
 1383 045c D31A     		subs	r3, r2, r3
 1384 045e 5A1E     		subs	r2, r3, #1
 1385 0460 07F5AF53 		add	r3, r7, #5600
 1386 0464 03F10603 		add	r3, r3, #6
 1387 0468 1978     		ldrb	r1, [r3]	@ zero_extendqisi2
 1388 046a 07F12803 		add	r3, r7, #40
 1389 046e 0A3B     		subs	r3, r3, #10
 1390 0470 0B44     		add	r3, r3, r1
 1391 0472 1978     		ldrb	r1, [r3]	@ zero_extendqisi2
 1392 0474 07F16803 		add	r3, r7, #104
 1393 0478 103B     		subs	r3, r3, #16
 1394 047a 9954     		strb	r1, [r3, r2]
 424:..\src/command_processing.c ****                         for(j = 0; j < sod; j++) {
 1395              		.loc 1 424 0 discriminator 3
 1396 047c 07F5AF53 		add	r3, r7, #5600
 1397 0480 03F10603 		add	r3, r3, #6
 1398 0484 1B78     		ldrb	r3, [r3]	@ zero_extendqisi2
 1399 0486 0133     		adds	r3, r3, #1
 1400 0488 07F5AF52 		add	r2, r7, #5600
 1401 048c 02F10602 		add	r2, r2, #6
 1402 0490 1370     		strb	r3, [r2]
 1403              	.L86:
 424:..\src/command_processing.c ****                         for(j = 0; j < sod; j++) {
ARM GAS  C:\Users\Mattia\AppData\Local\Temp\ccPC8dFz.s 			page 49


 1404              		.loc 1 424 0 is_stmt 0 discriminator 1
 1405 0492 07F5AF53 		add	r3, r7, #5600
 1406 0496 03F10603 		add	r3, r3, #6
 1407 049a 1A78     		ldrb	r2, [r3]	@ zero_extendqisi2
 1408 049c 07F5AF53 		add	r3, r7, #5600
 1409 04a0 03F10303 		add	r3, r3, #3
 1410 04a4 1B78     		ldrb	r3, [r3]	@ zero_extendqisi2
 1411 04a6 9A42     		cmp	r2, r3
 1412 04a8 B7D3     		bcc	.L87
 421:..\src/command_processing.c ****                         m_tmp = m_addr + i*sod;
 1413              		.loc 1 421 0 is_stmt 1 discriminator 2
 1414 04aa 07F5AF53 		add	r3, r7, #5600
 1415 04ae 03F10703 		add	r3, r3, #7
 1416 04b2 1B78     		ldrb	r3, [r3]	@ zero_extendqisi2
 1417 04b4 0133     		adds	r3, r3, #1
 1418 04b6 07F5AF52 		add	r2, r7, #5600
 1419 04ba 02F10702 		add	r2, r2, #7
 1420 04be 1370     		strb	r3, [r2]
 1421              	.L85:
 421:..\src/command_processing.c ****                         m_tmp = m_addr + i*sod;
 1422              		.loc 1 421 0 is_stmt 0 discriminator 1
 1423 04c0 07F5AF53 		add	r3, r7, #5600
 1424 04c4 03F10503 		add	r3, r3, #5
 1425 04c8 1A78     		ldrb	r2, [r3]	@ zero_extendqisi2
 1426 04ca 07F10803 		add	r3, r7, #8
 1427 04ce 043B     		subs	r3, r3, #4
 1428 04d0 1B68     		ldr	r3, [r3]
 1429 04d2 1344     		add	r3, r3, r2
 1430 04d4 1B78     		ldrb	r3, [r3]	@ zero_extendqisi2
 1431 04d6 07F5AF52 		add	r2, r7, #5600
 1432 04da 02F10702 		add	r2, r2, #7
 1433 04de 1278     		ldrb	r2, [r2]	@ zero_extendqisi2
 1434 04e0 9A42     		cmp	r2, r3
 1435 04e2 FFF470AF 		bcc	.L88
 426:..\src/command_processing.c ****                         }
 427:..\src/command_processing.c ****                     }
 428:..\src/command_processing.c ****                     break;
 1436              		.loc 1 428 0 is_stmt 1
 1437 04e6 01F0C8BF 		b	.L105
 1438              	.L77:
 429:..\src/command_processing.c ****                 case TYPE_UINT16:
 430:..\src/command_processing.c ****                     for (i=0; i<NUM_ITEMS[idx]; i++){
 1439              		.loc 1 430 0
 1440 04ea 0023     		movs	r3, #0
 1441 04ec 07F5AF52 		add	r2, r7, #5600
 1442 04f0 02F10702 		add	r2, r2, #7
 1443 04f4 1370     		strb	r3, [r2]
 1444 04f6 7BE0     		b	.L89
 1445              	.L92:
 431:..\src/command_processing.c ****                         m_tmp = m_addr + i*sod;
 1446              		.loc 1 431 0
 1447 04f8 07F5AF53 		add	r3, r7, #5600
 1448 04fc 03F10703 		add	r3, r3, #7
 1449 0500 1B78     		ldrb	r3, [r3]	@ zero_extendqisi2
 1450 0502 07F5AF52 		add	r2, r7, #5600
 1451 0506 02F10302 		add	r2, r2, #3
 1452 050a 1278     		ldrb	r2, [r2]	@ zero_extendqisi2
ARM GAS  C:\Users\Mattia\AppData\Local\Temp\ccPC8dFz.s 			page 50


 1453 050c 02FB03F3 		mul	r3, r2, r3
 1454 0510 1A46     		mov	r2, r3
 1455 0512 07F5AE53 		add	r3, r7, #5568
 1456 0516 03F11803 		add	r3, r3, #24
 1457 051a 1B68     		ldr	r3, [r3]
 1458 051c 1344     		add	r3, r3, r2
 1459 051e 07F5AE52 		add	r2, r7, #5568
 1460 0522 02F11402 		add	r2, r2, #20
 1461 0526 1360     		str	r3, [r2]
 432:..\src/command_processing.c ****                         aux_uint16 = *((uint16*)m_tmp);
 1462              		.loc 1 432 0
 1463 0528 07F5AE53 		add	r3, r7, #5568
 1464 052c 03F11403 		add	r3, r3, #20
 1465 0530 1B68     		ldr	r3, [r3]
 1466 0532 1A88     		ldrh	r2, [r3]
 1467 0534 07F12803 		add	r3, r7, #40
 1468 0538 0C3B     		subs	r3, r3, #12
 1469 053a 1A80     		strh	r2, [r3]	@ movhi
 433:..\src/command_processing.c ****                         for(j = 0; j < sod; j++) {
 1470              		.loc 1 433 0
 1471 053c 0023     		movs	r3, #0
 1472 053e 07F5AF52 		add	r2, r7, #5600
 1473 0542 02F10602 		add	r2, r2, #6
 1474 0546 1370     		strb	r3, [r2]
 1475 0548 3BE0     		b	.L90
 1476              	.L91:
 434:..\src/command_processing.c ****                             packet_data[(4 + PARAM_BYTE_SLOT*idx + i*sod) + sod - j -1] = ((char*)(
 1477              		.loc 1 434 0 discriminator 3
 1478 054a 07F5AF53 		add	r3, r7, #5600
 1479 054e 03F10503 		add	r3, r3, #5
 1480 0552 1B78     		ldrb	r3, [r3]	@ zero_extendqisi2
 1481 0554 3222     		movs	r2, #50
 1482 0556 02FB03F3 		mul	r3, r2, r3
 1483 055a 1A1D     		adds	r2, r3, #4
 1484 055c 07F5AF53 		add	r3, r7, #5600
 1485 0560 03F10703 		add	r3, r3, #7
 1486 0564 1B78     		ldrb	r3, [r3]	@ zero_extendqisi2
 1487 0566 07F5AF51 		add	r1, r7, #5600
 1488 056a 01F10301 		add	r1, r1, #3
 1489 056e 0978     		ldrb	r1, [r1]	@ zero_extendqisi2
 1490 0570 01FB03F3 		mul	r3, r1, r3
 1491 0574 1A44     		add	r2, r2, r3
 1492 0576 07F5AF53 		add	r3, r7, #5600
 1493 057a 03F10303 		add	r3, r3, #3
 1494 057e 1B78     		ldrb	r3, [r3]	@ zero_extendqisi2
 1495 0580 1A44     		add	r2, r2, r3
 1496 0582 07F5AF53 		add	r3, r7, #5600
 1497 0586 03F10603 		add	r3, r3, #6
 1498 058a 1B78     		ldrb	r3, [r3]	@ zero_extendqisi2
 1499 058c D31A     		subs	r3, r2, r3
 1500 058e 5A1E     		subs	r2, r3, #1
 1501 0590 07F5AF53 		add	r3, r7, #5600
 1502 0594 03F10603 		add	r3, r3, #6
 1503 0598 1978     		ldrb	r1, [r3]	@ zero_extendqisi2
 1504 059a 07F12803 		add	r3, r7, #40
 1505 059e 0C3B     		subs	r3, r3, #12
 1506 05a0 0B44     		add	r3, r3, r1
ARM GAS  C:\Users\Mattia\AppData\Local\Temp\ccPC8dFz.s 			page 51


 1507 05a2 1978     		ldrb	r1, [r3]	@ zero_extendqisi2
 1508 05a4 07F16803 		add	r3, r7, #104
 1509 05a8 103B     		subs	r3, r3, #16
 1510 05aa 9954     		strb	r1, [r3, r2]
 433:..\src/command_processing.c ****                         for(j = 0; j < sod; j++) {
 1511              		.loc 1 433 0 discriminator 3
 1512 05ac 07F5AF53 		add	r3, r7, #5600
 1513 05b0 03F10603 		add	r3, r3, #6
 1514 05b4 1B78     		ldrb	r3, [r3]	@ zero_extendqisi2
 1515 05b6 0133     		adds	r3, r3, #1
 1516 05b8 07F5AF52 		add	r2, r7, #5600
 1517 05bc 02F10602 		add	r2, r2, #6
 1518 05c0 1370     		strb	r3, [r2]
 1519              	.L90:
 433:..\src/command_processing.c ****                         for(j = 0; j < sod; j++) {
 1520              		.loc 1 433 0 is_stmt 0 discriminator 1
 1521 05c2 07F5AF53 		add	r3, r7, #5600
 1522 05c6 03F10603 		add	r3, r3, #6
 1523 05ca 1A78     		ldrb	r2, [r3]	@ zero_extendqisi2
 1524 05cc 07F5AF53 		add	r3, r7, #5600
 1525 05d0 03F10303 		add	r3, r3, #3
 1526 05d4 1B78     		ldrb	r3, [r3]	@ zero_extendqisi2
 1527 05d6 9A42     		cmp	r2, r3
 1528 05d8 B7D3     		bcc	.L91
 430:..\src/command_processing.c ****                         m_tmp = m_addr + i*sod;
 1529              		.loc 1 430 0 is_stmt 1 discriminator 2
 1530 05da 07F5AF53 		add	r3, r7, #5600
 1531 05de 03F10703 		add	r3, r3, #7
 1532 05e2 1B78     		ldrb	r3, [r3]	@ zero_extendqisi2
 1533 05e4 0133     		adds	r3, r3, #1
 1534 05e6 07F5AF52 		add	r2, r7, #5600
 1535 05ea 02F10702 		add	r2, r2, #7
 1536 05ee 1370     		strb	r3, [r2]
 1537              	.L89:
 430:..\src/command_processing.c ****                         m_tmp = m_addr + i*sod;
 1538              		.loc 1 430 0 is_stmt 0 discriminator 1
 1539 05f0 07F5AF53 		add	r3, r7, #5600
 1540 05f4 03F10503 		add	r3, r3, #5
 1541 05f8 1A78     		ldrb	r2, [r3]	@ zero_extendqisi2
 1542 05fa 07F10803 		add	r3, r7, #8
 1543 05fe 043B     		subs	r3, r3, #4
 1544 0600 1B68     		ldr	r3, [r3]
 1545 0602 1344     		add	r3, r3, r2
 1546 0604 1B78     		ldrb	r3, [r3]	@ zero_extendqisi2
 1547 0606 07F5AF52 		add	r2, r7, #5600
 1548 060a 02F10702 		add	r2, r2, #7
 1549 060e 1278     		ldrb	r2, [r2]	@ zero_extendqisi2
 1550 0610 9A42     		cmp	r2, r3
 1551 0612 FFF471AF 		bcc	.L92
 435:..\src/command_processing.c ****                         }
 436:..\src/command_processing.c ****                     }
 437:..\src/command_processing.c ****                     break;
 1552              		.loc 1 437 0 is_stmt 1
 1553 0616 01F030BF 		b	.L105
 1554              	.L78:
 438:..\src/command_processing.c ****                 case TYPE_INT32: 
 439:..\src/command_processing.c ****                     for (i=0; i<NUM_ITEMS[idx]; i++){
ARM GAS  C:\Users\Mattia\AppData\Local\Temp\ccPC8dFz.s 			page 52


 1555              		.loc 1 439 0
 1556 061a 0023     		movs	r3, #0
 1557 061c 07F5AF52 		add	r2, r7, #5600
 1558 0620 02F10702 		add	r2, r2, #7
 1559 0624 1370     		strb	r3, [r2]
 1560 0626 7BE0     		b	.L93
 1561              	.L96:
 440:..\src/command_processing.c ****                         m_tmp = m_addr + i*sod;
 1562              		.loc 1 440 0
 1563 0628 07F5AF53 		add	r3, r7, #5600
 1564 062c 03F10703 		add	r3, r3, #7
 1565 0630 1B78     		ldrb	r3, [r3]	@ zero_extendqisi2
 1566 0632 07F5AF52 		add	r2, r7, #5600
 1567 0636 02F10302 		add	r2, r2, #3
 1568 063a 1278     		ldrb	r2, [r2]	@ zero_extendqisi2
 1569 063c 02FB03F3 		mul	r3, r2, r3
 1570 0640 1A46     		mov	r2, r3
 1571 0642 07F5AE53 		add	r3, r7, #5568
 1572 0646 03F11803 		add	r3, r3, #24
 1573 064a 1B68     		ldr	r3, [r3]
 1574 064c 1344     		add	r3, r3, r2
 1575 064e 07F5AE52 		add	r2, r7, #5568
 1576 0652 02F11402 		add	r2, r2, #20
 1577 0656 1360     		str	r3, [r2]
 441:..\src/command_processing.c ****                         aux_int32 = *((int32*)m_tmp);
 1578              		.loc 1 441 0
 1579 0658 07F5AE53 		add	r3, r7, #5568
 1580 065c 03F11403 		add	r3, r3, #20
 1581 0660 1B68     		ldr	r3, [r3]
 1582 0662 1A68     		ldr	r2, [r3]
 1583 0664 07F12803 		add	r3, r7, #40
 1584 0668 103B     		subs	r3, r3, #16
 1585 066a 1A60     		str	r2, [r3]
 442:..\src/command_processing.c ****                         for(j = 0; j < sod; j++) {
 1586              		.loc 1 442 0
 1587 066c 0023     		movs	r3, #0
 1588 066e 07F5AF52 		add	r2, r7, #5600
 1589 0672 02F10602 		add	r2, r2, #6
 1590 0676 1370     		strb	r3, [r2]
 1591 0678 3BE0     		b	.L94
 1592              	.L95:
 443:..\src/command_processing.c ****                             packet_data[(4 + PARAM_BYTE_SLOT*idx + i*sod) + sod - j -1] = ((char*)(
 1593              		.loc 1 443 0 discriminator 3
 1594 067a 07F5AF53 		add	r3, r7, #5600
 1595 067e 03F10503 		add	r3, r3, #5
 1596 0682 1B78     		ldrb	r3, [r3]	@ zero_extendqisi2
 1597 0684 3222     		movs	r2, #50
 1598 0686 02FB03F3 		mul	r3, r2, r3
 1599 068a 1A1D     		adds	r2, r3, #4
 1600 068c 07F5AF53 		add	r3, r7, #5600
 1601 0690 03F10703 		add	r3, r3, #7
 1602 0694 1B78     		ldrb	r3, [r3]	@ zero_extendqisi2
 1603 0696 07F5AF51 		add	r1, r7, #5600
 1604 069a 01F10301 		add	r1, r1, #3
 1605 069e 0978     		ldrb	r1, [r1]	@ zero_extendqisi2
 1606 06a0 01FB03F3 		mul	r3, r1, r3
 1607 06a4 1A44     		add	r2, r2, r3
ARM GAS  C:\Users\Mattia\AppData\Local\Temp\ccPC8dFz.s 			page 53


 1608 06a6 07F5AF53 		add	r3, r7, #5600
 1609 06aa 03F10303 		add	r3, r3, #3
 1610 06ae 1B78     		ldrb	r3, [r3]	@ zero_extendqisi2
 1611 06b0 1A44     		add	r2, r2, r3
 1612 06b2 07F5AF53 		add	r3, r7, #5600
 1613 06b6 03F10603 		add	r3, r3, #6
 1614 06ba 1B78     		ldrb	r3, [r3]	@ zero_extendqisi2
 1615 06bc D31A     		subs	r3, r2, r3
 1616 06be 5A1E     		subs	r2, r3, #1
 1617 06c0 07F5AF53 		add	r3, r7, #5600
 1618 06c4 03F10603 		add	r3, r3, #6
 1619 06c8 1978     		ldrb	r1, [r3]	@ zero_extendqisi2
 1620 06ca 07F12803 		add	r3, r7, #40
 1621 06ce 103B     		subs	r3, r3, #16
 1622 06d0 0B44     		add	r3, r3, r1
 1623 06d2 1978     		ldrb	r1, [r3]	@ zero_extendqisi2
 1624 06d4 07F16803 		add	r3, r7, #104
 1625 06d8 103B     		subs	r3, r3, #16
 1626 06da 9954     		strb	r1, [r3, r2]
 442:..\src/command_processing.c ****                         for(j = 0; j < sod; j++) {
 1627              		.loc 1 442 0 discriminator 3
 1628 06dc 07F5AF53 		add	r3, r7, #5600
 1629 06e0 03F10603 		add	r3, r3, #6
 1630 06e4 1B78     		ldrb	r3, [r3]	@ zero_extendqisi2
 1631 06e6 0133     		adds	r3, r3, #1
 1632 06e8 07F5AF52 		add	r2, r7, #5600
 1633 06ec 02F10602 		add	r2, r2, #6
 1634 06f0 1370     		strb	r3, [r2]
 1635              	.L94:
 442:..\src/command_processing.c ****                         for(j = 0; j < sod; j++) {
 1636              		.loc 1 442 0 is_stmt 0 discriminator 1
 1637 06f2 07F5AF53 		add	r3, r7, #5600
 1638 06f6 03F10603 		add	r3, r3, #6
 1639 06fa 1A78     		ldrb	r2, [r3]	@ zero_extendqisi2
 1640 06fc 07F5AF53 		add	r3, r7, #5600
 1641 0700 03F10303 		add	r3, r3, #3
 1642 0704 1B78     		ldrb	r3, [r3]	@ zero_extendqisi2
 1643 0706 9A42     		cmp	r2, r3
 1644 0708 B7D3     		bcc	.L95
 439:..\src/command_processing.c ****                         m_tmp = m_addr + i*sod;
 1645              		.loc 1 439 0 is_stmt 1 discriminator 2
 1646 070a 07F5AF53 		add	r3, r7, #5600
 1647 070e 03F10703 		add	r3, r3, #7
 1648 0712 1B78     		ldrb	r3, [r3]	@ zero_extendqisi2
 1649 0714 0133     		adds	r3, r3, #1
 1650 0716 07F5AF52 		add	r2, r7, #5600
 1651 071a 02F10702 		add	r2, r2, #7
 1652 071e 1370     		strb	r3, [r2]
 1653              	.L93:
 439:..\src/command_processing.c ****                         m_tmp = m_addr + i*sod;
 1654              		.loc 1 439 0 is_stmt 0 discriminator 1
 1655 0720 07F5AF53 		add	r3, r7, #5600
 1656 0724 03F10503 		add	r3, r3, #5
 1657 0728 1A78     		ldrb	r2, [r3]	@ zero_extendqisi2
 1658 072a 07F10803 		add	r3, r7, #8
 1659 072e 043B     		subs	r3, r3, #4
 1660 0730 1B68     		ldr	r3, [r3]
ARM GAS  C:\Users\Mattia\AppData\Local\Temp\ccPC8dFz.s 			page 54


 1661 0732 1344     		add	r3, r3, r2
 1662 0734 1B78     		ldrb	r3, [r3]	@ zero_extendqisi2
 1663 0736 07F5AF52 		add	r2, r7, #5600
 1664 073a 02F10702 		add	r2, r2, #7
 1665 073e 1278     		ldrb	r2, [r2]	@ zero_extendqisi2
 1666 0740 9A42     		cmp	r2, r3
 1667 0742 FFF471AF 		bcc	.L96
 444:..\src/command_processing.c ****                         }
 445:..\src/command_processing.c ****                     }
 446:..\src/command_processing.c ****                     break;
 1668              		.loc 1 446 0 is_stmt 1
 1669 0746 01F098BE 		b	.L105
 1670              	.L79:
 447:..\src/command_processing.c ****                 case TYPE_UINT32: 
 448:..\src/command_processing.c ****                     for (i=0; i<NUM_ITEMS[idx]; i++){
 1671              		.loc 1 448 0
 1672 074a 0023     		movs	r3, #0
 1673 074c 07F5AF52 		add	r2, r7, #5600
 1674 0750 02F10702 		add	r2, r2, #7
 1675 0754 1370     		strb	r3, [r2]
 1676 0756 7BE0     		b	.L97
 1677              	.L100:
 449:..\src/command_processing.c ****                         m_tmp = m_addr + i*sod;
 1678              		.loc 1 449 0
 1679 0758 07F5AF53 		add	r3, r7, #5600
 1680 075c 03F10703 		add	r3, r3, #7
 1681 0760 1B78     		ldrb	r3, [r3]	@ zero_extendqisi2
 1682 0762 07F5AF52 		add	r2, r7, #5600
 1683 0766 02F10302 		add	r2, r2, #3
 1684 076a 1278     		ldrb	r2, [r2]	@ zero_extendqisi2
 1685 076c 02FB03F3 		mul	r3, r2, r3
 1686 0770 1A46     		mov	r2, r3
 1687 0772 07F5AE53 		add	r3, r7, #5568
 1688 0776 03F11803 		add	r3, r3, #24
 1689 077a 1B68     		ldr	r3, [r3]
 1690 077c 1344     		add	r3, r3, r2
 1691 077e 07F5AE52 		add	r2, r7, #5568
 1692 0782 02F11402 		add	r2, r2, #20
 1693 0786 1360     		str	r3, [r2]
 450:..\src/command_processing.c ****                         aux_uint32 = *((uint32*)m_tmp);
 1694              		.loc 1 450 0
 1695 0788 07F5AE53 		add	r3, r7, #5568
 1696 078c 03F11403 		add	r3, r3, #20
 1697 0790 1B68     		ldr	r3, [r3]
 1698 0792 1A68     		ldr	r2, [r3]
 1699 0794 07F12803 		add	r3, r7, #40
 1700 0798 143B     		subs	r3, r3, #20
 1701 079a 1A60     		str	r2, [r3]
 451:..\src/command_processing.c ****                         for(j = 0; j < sod; j++) {
 1702              		.loc 1 451 0
 1703 079c 0023     		movs	r3, #0
 1704 079e 07F5AF52 		add	r2, r7, #5600
 1705 07a2 02F10602 		add	r2, r2, #6
 1706 07a6 1370     		strb	r3, [r2]
 1707 07a8 3BE0     		b	.L98
 1708              	.L99:
 452:..\src/command_processing.c ****                             packet_data[(4 + PARAM_BYTE_SLOT*idx + i*sod) + sod - j -1] = ((char*)(
ARM GAS  C:\Users\Mattia\AppData\Local\Temp\ccPC8dFz.s 			page 55


 1709              		.loc 1 452 0 discriminator 3
 1710 07aa 07F5AF53 		add	r3, r7, #5600
 1711 07ae 03F10503 		add	r3, r3, #5
 1712 07b2 1B78     		ldrb	r3, [r3]	@ zero_extendqisi2
 1713 07b4 3222     		movs	r2, #50
 1714 07b6 02FB03F3 		mul	r3, r2, r3
 1715 07ba 1A1D     		adds	r2, r3, #4
 1716 07bc 07F5AF53 		add	r3, r7, #5600
 1717 07c0 03F10703 		add	r3, r3, #7
 1718 07c4 1B78     		ldrb	r3, [r3]	@ zero_extendqisi2
 1719 07c6 07F5AF51 		add	r1, r7, #5600
 1720 07ca 01F10301 		add	r1, r1, #3
 1721 07ce 0978     		ldrb	r1, [r1]	@ zero_extendqisi2
 1722 07d0 01FB03F3 		mul	r3, r1, r3
 1723 07d4 1A44     		add	r2, r2, r3
 1724 07d6 07F5AF53 		add	r3, r7, #5600
 1725 07da 03F10303 		add	r3, r3, #3
 1726 07de 1B78     		ldrb	r3, [r3]	@ zero_extendqisi2
 1727 07e0 1A44     		add	r2, r2, r3
 1728 07e2 07F5AF53 		add	r3, r7, #5600
 1729 07e6 03F10603 		add	r3, r3, #6
 1730 07ea 1B78     		ldrb	r3, [r3]	@ zero_extendqisi2
 1731 07ec D31A     		subs	r3, r2, r3
 1732 07ee 5A1E     		subs	r2, r3, #1
 1733 07f0 07F5AF53 		add	r3, r7, #5600
 1734 07f4 03F10603 		add	r3, r3, #6
 1735 07f8 1978     		ldrb	r1, [r3]	@ zero_extendqisi2
 1736 07fa 07F12803 		add	r3, r7, #40
 1737 07fe 143B     		subs	r3, r3, #20
 1738 0800 0B44     		add	r3, r3, r1
 1739 0802 1978     		ldrb	r1, [r3]	@ zero_extendqisi2
 1740 0804 07F16803 		add	r3, r7, #104
 1741 0808 103B     		subs	r3, r3, #16
 1742 080a 9954     		strb	r1, [r3, r2]
 451:..\src/command_processing.c ****                         for(j = 0; j < sod; j++) {
 1743              		.loc 1 451 0 discriminator 3
 1744 080c 07F5AF53 		add	r3, r7, #5600
 1745 0810 03F10603 		add	r3, r3, #6
 1746 0814 1B78     		ldrb	r3, [r3]	@ zero_extendqisi2
 1747 0816 0133     		adds	r3, r3, #1
 1748 0818 07F5AF52 		add	r2, r7, #5600
 1749 081c 02F10602 		add	r2, r2, #6
 1750 0820 1370     		strb	r3, [r2]
 1751              	.L98:
 451:..\src/command_processing.c ****                         for(j = 0; j < sod; j++) {
 1752              		.loc 1 451 0 is_stmt 0 discriminator 1
 1753 0822 07F5AF53 		add	r3, r7, #5600
 1754 0826 03F10603 		add	r3, r3, #6
 1755 082a 1A78     		ldrb	r2, [r3]	@ zero_extendqisi2
 1756 082c 07F5AF53 		add	r3, r7, #5600
 1757 0830 03F10303 		add	r3, r3, #3
 1758 0834 1B78     		ldrb	r3, [r3]	@ zero_extendqisi2
 1759 0836 9A42     		cmp	r2, r3
 1760 0838 B7D3     		bcc	.L99
 448:..\src/command_processing.c ****                         m_tmp = m_addr + i*sod;
 1761              		.loc 1 448 0 is_stmt 1 discriminator 2
 1762 083a 07F5AF53 		add	r3, r7, #5600
ARM GAS  C:\Users\Mattia\AppData\Local\Temp\ccPC8dFz.s 			page 56


 1763 083e 03F10703 		add	r3, r3, #7
 1764 0842 1B78     		ldrb	r3, [r3]	@ zero_extendqisi2
 1765 0844 0133     		adds	r3, r3, #1
 1766 0846 07F5AF52 		add	r2, r7, #5600
 1767 084a 02F10702 		add	r2, r2, #7
 1768 084e 1370     		strb	r3, [r2]
 1769              	.L97:
 448:..\src/command_processing.c ****                         m_tmp = m_addr + i*sod;
 1770              		.loc 1 448 0 is_stmt 0 discriminator 1
 1771 0850 07F5AF53 		add	r3, r7, #5600
 1772 0854 03F10503 		add	r3, r3, #5
 1773 0858 1A78     		ldrb	r2, [r3]	@ zero_extendqisi2
 1774 085a 07F10803 		add	r3, r7, #8
 1775 085e 043B     		subs	r3, r3, #4
 1776 0860 1B68     		ldr	r3, [r3]
 1777 0862 1344     		add	r3, r3, r2
 1778 0864 1B78     		ldrb	r3, [r3]	@ zero_extendqisi2
 1779 0866 07F5AF52 		add	r2, r7, #5600
 1780 086a 02F10702 		add	r2, r2, #7
 1781 086e 1278     		ldrb	r2, [r2]	@ zero_extendqisi2
 1782 0870 9A42     		cmp	r2, r3
 1783 0872 FFF471AF 		bcc	.L100
 453:..\src/command_processing.c ****                         }
 454:..\src/command_processing.c ****                     }
 455:..\src/command_processing.c ****                     break;
 1784              		.loc 1 455 0 is_stmt 1
 1785 0876 01F000BE 		b	.L105
 1786              	.L80:
 456:..\src/command_processing.c ****                     
 457:..\src/command_processing.c ****                 case TYPE_FLOAT:
 458:..\src/command_processing.c ****                     for (i=0; i<NUM_ITEMS[idx]; i++){
 1787              		.loc 1 458 0
 1788 087a 0023     		movs	r3, #0
 1789 087c 07F5AF52 		add	r2, r7, #5600
 1790 0880 02F10702 		add	r2, r2, #7
 1791 0884 1370     		strb	r3, [r2]
 1792 0886 7BE0     		b	.L101
 1793              	.L104:
 459:..\src/command_processing.c ****                         m_tmp = m_addr + i*sod;
 1794              		.loc 1 459 0
 1795 0888 07F5AF53 		add	r3, r7, #5600
 1796 088c 03F10703 		add	r3, r3, #7
 1797 0890 1B78     		ldrb	r3, [r3]	@ zero_extendqisi2
 1798 0892 07F5AF52 		add	r2, r7, #5600
 1799 0896 02F10302 		add	r2, r2, #3
 1800 089a 1278     		ldrb	r2, [r2]	@ zero_extendqisi2
 1801 089c 02FB03F3 		mul	r3, r2, r3
 1802 08a0 1A46     		mov	r2, r3
 1803 08a2 07F5AE53 		add	r3, r7, #5568
 1804 08a6 03F11803 		add	r3, r3, #24
 1805 08aa 1B68     		ldr	r3, [r3]
 1806 08ac 1344     		add	r3, r3, r2
 1807 08ae 07F5AE52 		add	r2, r7, #5568
 1808 08b2 02F11402 		add	r2, r2, #20
 1809 08b6 1360     		str	r3, [r2]
 460:..\src/command_processing.c ****                         aux_float = *((float*)m_tmp);
 1810              		.loc 1 460 0
ARM GAS  C:\Users\Mattia\AppData\Local\Temp\ccPC8dFz.s 			page 57


 1811 08b8 07F5AE53 		add	r3, r7, #5568
 1812 08bc 03F11403 		add	r3, r3, #20
 1813 08c0 1B68     		ldr	r3, [r3]
 1814 08c2 1A68     		ldr	r2, [r3]	@ float
 1815 08c4 07F12803 		add	r3, r7, #40
 1816 08c8 083B     		subs	r3, r3, #8
 1817 08ca 1A60     		str	r2, [r3]	@ float
 461:..\src/command_processing.c ****                         for(j = 0; j < sod; j++) {
 1818              		.loc 1 461 0
 1819 08cc 0023     		movs	r3, #0
 1820 08ce 07F5AF52 		add	r2, r7, #5600
 1821 08d2 02F10602 		add	r2, r2, #6
 1822 08d6 1370     		strb	r3, [r2]
 1823 08d8 3BE0     		b	.L102
 1824              	.L103:
 462:..\src/command_processing.c ****                             packet_data[(4 + PARAM_BYTE_SLOT*idx + i*sod) + sod - j -1] = ((char*)(
 1825              		.loc 1 462 0 discriminator 3
 1826 08da 07F5AF53 		add	r3, r7, #5600
 1827 08de 03F10503 		add	r3, r3, #5
 1828 08e2 1B78     		ldrb	r3, [r3]	@ zero_extendqisi2
 1829 08e4 3222     		movs	r2, #50
 1830 08e6 02FB03F3 		mul	r3, r2, r3
 1831 08ea 1A1D     		adds	r2, r3, #4
 1832 08ec 07F5AF53 		add	r3, r7, #5600
 1833 08f0 03F10703 		add	r3, r3, #7
 1834 08f4 1B78     		ldrb	r3, [r3]	@ zero_extendqisi2
 1835 08f6 07F5AF51 		add	r1, r7, #5600
 1836 08fa 01F10301 		add	r1, r1, #3
 1837 08fe 0978     		ldrb	r1, [r1]	@ zero_extendqisi2
 1838 0900 01FB03F3 		mul	r3, r1, r3
 1839 0904 1A44     		add	r2, r2, r3
 1840 0906 07F5AF53 		add	r3, r7, #5600
 1841 090a 03F10303 		add	r3, r3, #3
 1842 090e 1B78     		ldrb	r3, [r3]	@ zero_extendqisi2
 1843 0910 1A44     		add	r2, r2, r3
 1844 0912 07F5AF53 		add	r3, r7, #5600
 1845 0916 03F10603 		add	r3, r3, #6
 1846 091a 1B78     		ldrb	r3, [r3]	@ zero_extendqisi2
 1847 091c D31A     		subs	r3, r2, r3
 1848 091e 5A1E     		subs	r2, r3, #1
 1849 0920 07F5AF53 		add	r3, r7, #5600
 1850 0924 03F10603 		add	r3, r3, #6
 1851 0928 1978     		ldrb	r1, [r3]	@ zero_extendqisi2
 1852 092a 07F12803 		add	r3, r7, #40
 1853 092e 083B     		subs	r3, r3, #8
 1854 0930 0B44     		add	r3, r3, r1
 1855 0932 1978     		ldrb	r1, [r3]	@ zero_extendqisi2
 1856 0934 07F16803 		add	r3, r7, #104
 1857 0938 103B     		subs	r3, r3, #16
 1858 093a 9954     		strb	r1, [r3, r2]
 461:..\src/command_processing.c ****                         for(j = 0; j < sod; j++) {
 1859              		.loc 1 461 0 discriminator 3
 1860 093c 07F5AF53 		add	r3, r7, #5600
 1861 0940 03F10603 		add	r3, r3, #6
 1862 0944 1B78     		ldrb	r3, [r3]	@ zero_extendqisi2
 1863 0946 0133     		adds	r3, r3, #1
 1864 0948 07F5AF52 		add	r2, r7, #5600
ARM GAS  C:\Users\Mattia\AppData\Local\Temp\ccPC8dFz.s 			page 58


 1865 094c 02F10602 		add	r2, r2, #6
 1866 0950 1370     		strb	r3, [r2]
 1867              	.L102:
 461:..\src/command_processing.c ****                         for(j = 0; j < sod; j++) {
 1868              		.loc 1 461 0 is_stmt 0 discriminator 1
 1869 0952 07F5AF53 		add	r3, r7, #5600
 1870 0956 03F10603 		add	r3, r3, #6
 1871 095a 1A78     		ldrb	r2, [r3]	@ zero_extendqisi2
 1872 095c 07F5AF53 		add	r3, r7, #5600
 1873 0960 03F10303 		add	r3, r3, #3
 1874 0964 1B78     		ldrb	r3, [r3]	@ zero_extendqisi2
 1875 0966 9A42     		cmp	r2, r3
 1876 0968 B7D3     		bcc	.L103
 458:..\src/command_processing.c ****                         m_tmp = m_addr + i*sod;
 1877              		.loc 1 458 0 is_stmt 1 discriminator 2
 1878 096a 07F5AF53 		add	r3, r7, #5600
 1879 096e 03F10703 		add	r3, r3, #7
 1880 0972 1B78     		ldrb	r3, [r3]	@ zero_extendqisi2
 1881 0974 0133     		adds	r3, r3, #1
 1882 0976 07F5AF52 		add	r2, r7, #5600
 1883 097a 02F10702 		add	r2, r2, #7
 1884 097e 1370     		strb	r3, [r2]
 1885              	.L101:
 458:..\src/command_processing.c ****                         m_tmp = m_addr + i*sod;
 1886              		.loc 1 458 0 is_stmt 0 discriminator 1
 1887 0980 07F5AF53 		add	r3, r7, #5600
 1888 0984 03F10503 		add	r3, r3, #5
 1889 0988 1A78     		ldrb	r2, [r3]	@ zero_extendqisi2
 1890 098a 07F10803 		add	r3, r7, #8
 1891 098e 043B     		subs	r3, r3, #4
 1892 0990 1B68     		ldr	r3, [r3]
 1893 0992 1344     		add	r3, r3, r2
 1894 0994 1B78     		ldrb	r3, [r3]	@ zero_extendqisi2
 1895 0996 07F5AF52 		add	r2, r7, #5600
 1896 099a 02F10702 		add	r2, r2, #7
 1897 099e 1278     		ldrb	r2, [r2]	@ zero_extendqisi2
 1898 09a0 9A42     		cmp	r2, r3
 1899 09a2 FFF471AF 		bcc	.L104
 463:..\src/command_processing.c ****                         }
 464:..\src/command_processing.c ****                     }
 465:..\src/command_processing.c ****                     break;   
 1900              		.loc 1 465 0 is_stmt 1 discriminator 7
 1901 09a6 00BF     		nop
 1902 09a8 01F067BD 		b	.L105
 1903              	.L71:
 466:..\src/command_processing.c ****             }
 467:..\src/command_processing.c ****         }
 468:..\src/command_processing.c ****         else {
 469:..\src/command_processing.c ****             
 470:..\src/command_processing.c **** // DO NOT MODIFY THE FUNCTION BEFORE THIS LINE
 471:..\src/command_processing.c ****             
 472:..\src/command_processing.c **** // MODIFY CUSTOM PARAM            
 473:..\src/command_processing.c ****                 switch(idx+1){
 1904              		.loc 1 473 0
 1905 09ac 07F5AF53 		add	r3, r7, #5600
 1906 09b0 03F10503 		add	r3, r3, #5
 1907 09b4 1B78     		ldrb	r3, [r3]	@ zero_extendqisi2
ARM GAS  C:\Users\Mattia\AppData\Local\Temp\ccPC8dFz.s 			page 59


 1908 09b6 0133     		adds	r3, r3, #1
 1909 09b8 023B     		subs	r3, r3, #2
 1910 09ba 332B     		cmp	r3, #51
 1911 09bc 01F25C85 		bhi	.L272
 1912 09c0 01A2     		adr	r2, .L108
 1913 09c2 52F823F0 		ldr	pc, [r2, r3, lsl #2]
 1914 09c6 00BF     		.p2align 2
 1915              	.L108:
 1916 09c8 990A0000 		.word	.L107+1
 1917 09cc 650F0000 		.word	.L109+1
 1918 09d0 79240000 		.word	.L272+1
 1919 09d4 79240000 		.word	.L272+1
 1920 09d8 79240000 		.word	.L272+1
 1921 09dc 79240000 		.word	.L272+1
 1922 09e0 35140000 		.word	.L110+1
 1923 09e4 79240000 		.word	.L272+1
 1924 09e8 79240000 		.word	.L272+1
 1925 09ec 5B150000 		.word	.L111+1
 1926 09f0 79240000 		.word	.L272+1
 1927 09f4 79240000 		.word	.L272+1
 1928 09f8 79240000 		.word	.L272+1
 1929 09fc 79240000 		.word	.L272+1
 1930 0a00 79240000 		.word	.L272+1
 1931 0a04 79240000 		.word	.L272+1
 1932 0a08 79240000 		.word	.L272+1
 1933 0a0c 79240000 		.word	.L272+1
 1934 0a10 79240000 		.word	.L272+1
 1935 0a14 79240000 		.word	.L272+1
 1936 0a18 79240000 		.word	.L272+1
 1937 0a1c 1F170000 		.word	.L112+1
 1938 0a20 79240000 		.word	.L272+1
 1939 0a24 79240000 		.word	.L272+1
 1940 0a28 79240000 		.word	.L272+1
 1941 0a2c 79240000 		.word	.L272+1
 1942 0a30 79240000 		.word	.L272+1
 1943 0a34 79240000 		.word	.L272+1
 1944 0a38 79240000 		.word	.L272+1
 1945 0a3c 79240000 		.word	.L272+1
 1946 0a40 79240000 		.word	.L272+1
 1947 0a44 79240000 		.word	.L272+1
 1948 0a48 79240000 		.word	.L272+1
 1949 0a4c 79240000 		.word	.L272+1
 1950 0a50 79240000 		.word	.L272+1
 1951 0a54 79240000 		.word	.L272+1
 1952 0a58 79240000 		.word	.L272+1
 1953 0a5c 79240000 		.word	.L272+1
 1954 0a60 79240000 		.word	.L272+1
 1955 0a64 79240000 		.word	.L272+1
 1956 0a68 79240000 		.word	.L272+1
 1957 0a6c 79240000 		.word	.L272+1
 1958 0a70 F3170000 		.word	.L113+1
 1959 0a74 BB1C0000 		.word	.L114+1
 1960 0a78 79240000 		.word	.L272+1
 1961 0a7c 79240000 		.word	.L272+1
 1962 0a80 79240000 		.word	.L272+1
 1963 0a84 79240000 		.word	.L272+1
 1964 0a88 89210000 		.word	.L115+1
ARM GAS  C:\Users\Mattia\AppData\Local\Temp\ccPC8dFz.s 			page 60


 1965 0a8c 79240000 		.word	.L272+1
 1966 0a90 79240000 		.word	.L272+1
 1967 0a94 AD220000 		.word	.L116+1
 1968              		.p2align 1
 1969              	.L107:
 474:..\src/command_processing.c ****                     case 2:         // Position PID
 475:..\src/command_processing.c ****                         if(c_mem.motor[MOTOR_IDX].control_mode != CURR_AND_POS_CONTROL) {
 1970              		.loc 1 475 0
 1971 0a98 07F5AE53 		add	r3, r7, #5568
 1972 0a9c 03F11F03 		add	r3, r3, #31
 1973 0aa0 1A78     		ldrb	r2, [r3]	@ zero_extendqisi2
 1974 0aa2 AC49     		ldr	r1, .L278
 1975 0aa4 1346     		mov	r3, r2
 1976 0aa6 DB00     		lsls	r3, r3, #3
 1977 0aa8 9B1A     		subs	r3, r3, r2
 1978 0aaa 1B01     		lsls	r3, r3, #4
 1979 0aac 0B44     		add	r3, r3, r1
 1980 0aae 03F20F13 		addw	r3, r3, #271
 1981 0ab2 1B78     		ldrb	r3, [r3]	@ zero_extendqisi2
 1982 0ab4 032B     		cmp	r3, #3
 1983 0ab6 00F02981 		beq	.L117
 476:..\src/command_processing.c ****                             aux_float = (float) c_mem.motor[MOTOR_IDX].k_p / 65536;
 1984              		.loc 1 476 0
 1985 0aba 07F5AE53 		add	r3, r7, #5568
 1986 0abe 03F11F03 		add	r3, r3, #31
 1987 0ac2 1A78     		ldrb	r2, [r3]	@ zero_extendqisi2
 1988 0ac4 A349     		ldr	r1, .L278
 1989 0ac6 1346     		mov	r3, r2
 1990 0ac8 DB00     		lsls	r3, r3, #3
 1991 0aca 9B1A     		subs	r3, r3, r2
 1992 0acc 1B01     		lsls	r3, r3, #4
 1993 0ace 0B44     		add	r3, r3, r1
 1994 0ad0 B033     		adds	r3, r3, #176
 1995 0ad2 1B68     		ldr	r3, [r3]
 1996 0ad4 1846     		mov	r0, r3
 1997 0ad6 FFF7FEFF 		bl	__aeabi_i2f
 1998 0ada 0346     		mov	r3, r0
 1999 0adc 4FF08F41 		mov	r1, #1199570944
 2000 0ae0 1846     		mov	r0, r3
 2001 0ae2 FFF7FEFF 		bl	__aeabi_fdiv
 2002 0ae6 0346     		mov	r3, r0
 2003 0ae8 1A46     		mov	r2, r3
 2004 0aea 07F12803 		add	r3, r7, #40
 2005 0aee 083B     		subs	r3, r3, #8
 2006 0af0 1A60     		str	r2, [r3]	@ float
 477:..\src/command_processing.c ****                             for(i = 0; i < sod; i++) {
 2007              		.loc 1 477 0
 2008 0af2 0023     		movs	r3, #0
 2009 0af4 07F5AF52 		add	r2, r7, #5600
 2010 0af8 02F10702 		add	r2, r2, #7
 2011 0afc 1370     		strb	r3, [r2]
 2012 0afe 2EE0     		b	.L118
 2013              	.L119:
 478:..\src/command_processing.c ****                                 packet_data[(4 + PARAM_BYTE_SLOT*idx) + sod - i -1] = ((char*)(&aux
 2014              		.loc 1 478 0 discriminator 3
 2015 0b00 07F5AF53 		add	r3, r7, #5600
 2016 0b04 03F10503 		add	r3, r3, #5
ARM GAS  C:\Users\Mattia\AppData\Local\Temp\ccPC8dFz.s 			page 61


 2017 0b08 1B78     		ldrb	r3, [r3]	@ zero_extendqisi2
 2018 0b0a 3222     		movs	r2, #50
 2019 0b0c 02FB03F3 		mul	r3, r2, r3
 2020 0b10 1A1D     		adds	r2, r3, #4
 2021 0b12 07F5AF53 		add	r3, r7, #5600
 2022 0b16 03F10303 		add	r3, r3, #3
 2023 0b1a 1B78     		ldrb	r3, [r3]	@ zero_extendqisi2
 2024 0b1c 1A44     		add	r2, r2, r3
 2025 0b1e 07F5AF53 		add	r3, r7, #5600
 2026 0b22 03F10703 		add	r3, r3, #7
 2027 0b26 1B78     		ldrb	r3, [r3]	@ zero_extendqisi2
 2028 0b28 D31A     		subs	r3, r2, r3
 2029 0b2a 5A1E     		subs	r2, r3, #1
 2030 0b2c 07F5AF53 		add	r3, r7, #5600
 2031 0b30 03F10703 		add	r3, r3, #7
 2032 0b34 1978     		ldrb	r1, [r3]	@ zero_extendqisi2
 2033 0b36 07F12803 		add	r3, r7, #40
 2034 0b3a 083B     		subs	r3, r3, #8
 2035 0b3c 0B44     		add	r3, r3, r1
 2036 0b3e 1978     		ldrb	r1, [r3]	@ zero_extendqisi2
 2037 0b40 07F16803 		add	r3, r7, #104
 2038 0b44 103B     		subs	r3, r3, #16
 2039 0b46 9954     		strb	r1, [r3, r2]
 477:..\src/command_processing.c ****                             for(i = 0; i < sod; i++) {
 2040              		.loc 1 477 0 discriminator 3
 2041 0b48 07F5AF53 		add	r3, r7, #5600
 2042 0b4c 03F10703 		add	r3, r3, #7
 2043 0b50 1B78     		ldrb	r3, [r3]	@ zero_extendqisi2
 2044 0b52 0133     		adds	r3, r3, #1
 2045 0b54 07F5AF52 		add	r2, r7, #5600
 2046 0b58 02F10702 		add	r2, r2, #7
 2047 0b5c 1370     		strb	r3, [r2]
 2048              	.L118:
 477:..\src/command_processing.c ****                             for(i = 0; i < sod; i++) {
 2049              		.loc 1 477 0 is_stmt 0 discriminator 1
 2050 0b5e 07F5AF53 		add	r3, r7, #5600
 2051 0b62 03F10703 		add	r3, r3, #7
 2052 0b66 1A78     		ldrb	r2, [r3]	@ zero_extendqisi2
 2053 0b68 07F5AF53 		add	r3, r7, #5600
 2054 0b6c 03F10303 		add	r3, r3, #3
 2055 0b70 1B78     		ldrb	r3, [r3]	@ zero_extendqisi2
 2056 0b72 9A42     		cmp	r2, r3
 2057 0b74 C4D3     		bcc	.L119
 479:..\src/command_processing.c ****                             }
 480:..\src/command_processing.c ****                             aux_float = (float) c_mem.motor[MOTOR_IDX].k_i / 65536;
 2058              		.loc 1 480 0 is_stmt 1
 2059 0b76 07F5AE53 		add	r3, r7, #5568
 2060 0b7a 03F11F03 		add	r3, r3, #31
 2061 0b7e 1A78     		ldrb	r2, [r3]	@ zero_extendqisi2
 2062 0b80 7449     		ldr	r1, .L278
 2063 0b82 1346     		mov	r3, r2
 2064 0b84 DB00     		lsls	r3, r3, #3
 2065 0b86 9B1A     		subs	r3, r3, r2
 2066 0b88 1B01     		lsls	r3, r3, #4
 2067 0b8a 0B44     		add	r3, r3, r1
 2068 0b8c B433     		adds	r3, r3, #180
 2069 0b8e 1B68     		ldr	r3, [r3]
ARM GAS  C:\Users\Mattia\AppData\Local\Temp\ccPC8dFz.s 			page 62


 2070 0b90 1846     		mov	r0, r3
 2071 0b92 FFF7FEFF 		bl	__aeabi_i2f
 2072 0b96 0346     		mov	r3, r0
 2073 0b98 4FF08F41 		mov	r1, #1199570944
 2074 0b9c 1846     		mov	r0, r3
 2075 0b9e FFF7FEFF 		bl	__aeabi_fdiv
 2076 0ba2 0346     		mov	r3, r0
 2077 0ba4 1A46     		mov	r2, r3
 2078 0ba6 07F12803 		add	r3, r7, #40
 2079 0baa 083B     		subs	r3, r3, #8
 2080 0bac 1A60     		str	r2, [r3]	@ float
 481:..\src/command_processing.c ****                             for(i = 0; i < sod; i++) {
 2081              		.loc 1 481 0
 2082 0bae 0023     		movs	r3, #0
 2083 0bb0 07F5AF52 		add	r2, r7, #5600
 2084 0bb4 02F10702 		add	r2, r2, #7
 2085 0bb8 1370     		strb	r3, [r2]
 2086 0bba 34E0     		b	.L120
 2087              	.L121:
 482:..\src/command_processing.c ****                                 packet_data[(4 + PARAM_BYTE_SLOT*idx + sod) + sod - i -1] = ((char*
 2088              		.loc 1 482 0 discriminator 3
 2089 0bbc 07F5AF53 		add	r3, r7, #5600
 2090 0bc0 03F10503 		add	r3, r3, #5
 2091 0bc4 1B78     		ldrb	r3, [r3]	@ zero_extendqisi2
 2092 0bc6 3222     		movs	r2, #50
 2093 0bc8 02FB03F3 		mul	r3, r2, r3
 2094 0bcc 1A1D     		adds	r2, r3, #4
 2095 0bce 07F5AF53 		add	r3, r7, #5600
 2096 0bd2 03F10303 		add	r3, r3, #3
 2097 0bd6 1B78     		ldrb	r3, [r3]	@ zero_extendqisi2
 2098 0bd8 1A44     		add	r2, r2, r3
 2099 0bda 07F5AF53 		add	r3, r7, #5600
 2100 0bde 03F10303 		add	r3, r3, #3
 2101 0be2 1B78     		ldrb	r3, [r3]	@ zero_extendqisi2
 2102 0be4 1A44     		add	r2, r2, r3
 2103 0be6 07F5AF53 		add	r3, r7, #5600
 2104 0bea 03F10703 		add	r3, r3, #7
 2105 0bee 1B78     		ldrb	r3, [r3]	@ zero_extendqisi2
 2106 0bf0 D31A     		subs	r3, r2, r3
 2107 0bf2 5A1E     		subs	r2, r3, #1
 2108 0bf4 07F5AF53 		add	r3, r7, #5600
 2109 0bf8 03F10703 		add	r3, r3, #7
 2110 0bfc 1978     		ldrb	r1, [r3]	@ zero_extendqisi2
 2111 0bfe 07F12803 		add	r3, r7, #40
 2112 0c02 083B     		subs	r3, r3, #8
 2113 0c04 0B44     		add	r3, r3, r1
 2114 0c06 1978     		ldrb	r1, [r3]	@ zero_extendqisi2
 2115 0c08 07F16803 		add	r3, r7, #104
 2116 0c0c 103B     		subs	r3, r3, #16
 2117 0c0e 9954     		strb	r1, [r3, r2]
 481:..\src/command_processing.c ****                             for(i = 0; i < sod; i++) {
 2118              		.loc 1 481 0 discriminator 3
 2119 0c10 07F5AF53 		add	r3, r7, #5600
 2120 0c14 03F10703 		add	r3, r3, #7
 2121 0c18 1B78     		ldrb	r3, [r3]	@ zero_extendqisi2
 2122 0c1a 0133     		adds	r3, r3, #1
 2123 0c1c 07F5AF52 		add	r2, r7, #5600
ARM GAS  C:\Users\Mattia\AppData\Local\Temp\ccPC8dFz.s 			page 63


 2124 0c20 02F10702 		add	r2, r2, #7
 2125 0c24 1370     		strb	r3, [r2]
 2126              	.L120:
 481:..\src/command_processing.c ****                             for(i = 0; i < sod; i++) {
 2127              		.loc 1 481 0 is_stmt 0 discriminator 1
 2128 0c26 07F5AF53 		add	r3, r7, #5600
 2129 0c2a 03F10703 		add	r3, r3, #7
 2130 0c2e 1A78     		ldrb	r2, [r3]	@ zero_extendqisi2
 2131 0c30 07F5AF53 		add	r3, r7, #5600
 2132 0c34 03F10303 		add	r3, r3, #3
 2133 0c38 1B78     		ldrb	r3, [r3]	@ zero_extendqisi2
 2134 0c3a 9A42     		cmp	r2, r3
 2135 0c3c BED3     		bcc	.L121
 483:..\src/command_processing.c ****                             }
 484:..\src/command_processing.c ****                             aux_float = (float) c_mem.motor[MOTOR_IDX].k_d / 65536;
 2136              		.loc 1 484 0 is_stmt 1
 2137 0c3e 07F5AE53 		add	r3, r7, #5568
 2138 0c42 03F11F03 		add	r3, r3, #31
 2139 0c46 1A78     		ldrb	r2, [r3]	@ zero_extendqisi2
 2140 0c48 4249     		ldr	r1, .L278
 2141 0c4a 1346     		mov	r3, r2
 2142 0c4c DB00     		lsls	r3, r3, #3
 2143 0c4e 9B1A     		subs	r3, r3, r2
 2144 0c50 1B01     		lsls	r3, r3, #4
 2145 0c52 0B44     		add	r3, r3, r1
 2146 0c54 B833     		adds	r3, r3, #184
 2147 0c56 1B68     		ldr	r3, [r3]
 2148 0c58 1846     		mov	r0, r3
 2149 0c5a FFF7FEFF 		bl	__aeabi_i2f
 2150 0c5e 0346     		mov	r3, r0
 2151 0c60 4FF08F41 		mov	r1, #1199570944
 2152 0c64 1846     		mov	r0, r3
 2153 0c66 FFF7FEFF 		bl	__aeabi_fdiv
 2154 0c6a 0346     		mov	r3, r0
 2155 0c6c 1A46     		mov	r2, r3
 2156 0c6e 07F12803 		add	r3, r7, #40
 2157 0c72 083B     		subs	r3, r3, #8
 2158 0c74 1A60     		str	r2, [r3]	@ float
 485:..\src/command_processing.c ****                             for(i = 0; i < sod; i++) {
 2159              		.loc 1 485 0
 2160 0c76 0023     		movs	r3, #0
 2161 0c78 07F5AF52 		add	r2, r7, #5600
 2162 0c7c 02F10702 		add	r2, r2, #7
 2163 0c80 1370     		strb	r3, [r2]
 2164 0c82 35E0     		b	.L122
 2165              	.L123:
 486:..\src/command_processing.c ****                                 packet_data[(4 + PARAM_BYTE_SLOT*idx + 2*sod) + sod - i -1] = ((cha
 2166              		.loc 1 486 0 discriminator 3
 2167 0c84 07F5AF53 		add	r3, r7, #5600
 2168 0c88 03F10503 		add	r3, r3, #5
 2169 0c8c 1B78     		ldrb	r3, [r3]	@ zero_extendqisi2
 2170 0c8e 3222     		movs	r2, #50
 2171 0c90 02FB03F3 		mul	r3, r2, r3
 2172 0c94 1A1D     		adds	r2, r3, #4
 2173 0c96 07F5AF53 		add	r3, r7, #5600
 2174 0c9a 03F10303 		add	r3, r3, #3
 2175 0c9e 1B78     		ldrb	r3, [r3]	@ zero_extendqisi2
ARM GAS  C:\Users\Mattia\AppData\Local\Temp\ccPC8dFz.s 			page 64


 2176 0ca0 5B00     		lsls	r3, r3, #1
 2177 0ca2 1A44     		add	r2, r2, r3
 2178 0ca4 07F5AF53 		add	r3, r7, #5600
 2179 0ca8 03F10303 		add	r3, r3, #3
 2180 0cac 1B78     		ldrb	r3, [r3]	@ zero_extendqisi2
 2181 0cae 1A44     		add	r2, r2, r3
 2182 0cb0 07F5AF53 		add	r3, r7, #5600
 2183 0cb4 03F10703 		add	r3, r3, #7
 2184 0cb8 1B78     		ldrb	r3, [r3]	@ zero_extendqisi2
 2185 0cba D31A     		subs	r3, r2, r3
 2186 0cbc 5A1E     		subs	r2, r3, #1
 2187 0cbe 07F5AF53 		add	r3, r7, #5600
 2188 0cc2 03F10703 		add	r3, r3, #7
 2189 0cc6 1978     		ldrb	r1, [r3]	@ zero_extendqisi2
 2190 0cc8 07F12803 		add	r3, r7, #40
 2191 0ccc 083B     		subs	r3, r3, #8
 2192 0cce 0B44     		add	r3, r3, r1
 2193 0cd0 1978     		ldrb	r1, [r3]	@ zero_extendqisi2
 2194 0cd2 07F16803 		add	r3, r7, #104
 2195 0cd6 103B     		subs	r3, r3, #16
 2196 0cd8 9954     		strb	r1, [r3, r2]
 485:..\src/command_processing.c ****                             for(i = 0; i < sod; i++) {
 2197              		.loc 1 485 0 discriminator 3
 2198 0cda 07F5AF53 		add	r3, r7, #5600
 2199 0cde 03F10703 		add	r3, r3, #7
 2200 0ce2 1B78     		ldrb	r3, [r3]	@ zero_extendqisi2
 2201 0ce4 0133     		adds	r3, r3, #1
 2202 0ce6 07F5AF52 		add	r2, r7, #5600
 2203 0cea 02F10702 		add	r2, r2, #7
 2204 0cee 1370     		strb	r3, [r2]
 2205              	.L122:
 485:..\src/command_processing.c ****                             for(i = 0; i < sod; i++) {
 2206              		.loc 1 485 0 is_stmt 0 discriminator 1
 2207 0cf0 07F5AF53 		add	r3, r7, #5600
 2208 0cf4 03F10703 		add	r3, r3, #7
 2209 0cf8 1A78     		ldrb	r2, [r3]	@ zero_extendqisi2
 2210 0cfa 07F5AF53 		add	r3, r7, #5600
 2211 0cfe 03F10303 		add	r3, r3, #3
 2212 0d02 1B78     		ldrb	r3, [r3]	@ zero_extendqisi2
 2213 0d04 9A42     		cmp	r2, r3
 2214 0d06 BDD3     		bcc	.L123
 487:..\src/command_processing.c ****                             } 
 488:..\src/command_processing.c ****                         }
 489:..\src/command_processing.c ****                         else {
 490:..\src/command_processing.c ****                             aux_float = (float) c_mem.motor[MOTOR_IDX].k_p_dl / 65536;
 491:..\src/command_processing.c ****                             for(i = 0; i < sod; i++) {
 492:..\src/command_processing.c ****                                 packet_data[(4 + PARAM_BYTE_SLOT*idx) + sod - i -1] = ((char*)(&aux
 493:..\src/command_processing.c ****                             }
 494:..\src/command_processing.c ****                             aux_float = (float) c_mem.motor[MOTOR_IDX].k_i_dl / 65536;
 495:..\src/command_processing.c ****                             for(i = 0; i < sod; i++) {
 496:..\src/command_processing.c ****                                 packet_data[(4 + PARAM_BYTE_SLOT*idx + sod) + sod - i -1] = ((char*
 497:..\src/command_processing.c ****                             }
 498:..\src/command_processing.c ****                             aux_float = (float) c_mem.motor[MOTOR_IDX].k_d_dl / 65536;
 499:..\src/command_processing.c ****                             for(i = 0; i < sod; i++) {
 500:..\src/command_processing.c ****                                 packet_data[(4 + PARAM_BYTE_SLOT*idx + 2*sod) + sod - i -1] = ((cha
 501:..\src/command_processing.c ****                             }
 502:..\src/command_processing.c ****                         }
ARM GAS  C:\Users\Mattia\AppData\Local\Temp\ccPC8dFz.s 			page 65


 503:..\src/command_processing.c ****                         break;
 2215              		.loc 1 503 0 is_stmt 1
 2216 0d08 01F0B7BB 		b	.L105
 2217              	.L117:
 490:..\src/command_processing.c ****                             for(i = 0; i < sod; i++) {
 2218              		.loc 1 490 0
 2219 0d0c 07F5AE53 		add	r3, r7, #5568
 2220 0d10 03F11F03 		add	r3, r3, #31
 2221 0d14 1A78     		ldrb	r2, [r3]	@ zero_extendqisi2
 2222 0d16 0F49     		ldr	r1, .L278
 2223 0d18 1346     		mov	r3, r2
 2224 0d1a DB00     		lsls	r3, r3, #3
 2225 0d1c 9B1A     		subs	r3, r3, r2
 2226 0d1e 1B01     		lsls	r3, r3, #4
 2227 0d20 0B44     		add	r3, r3, r1
 2228 0d22 C833     		adds	r3, r3, #200
 2229 0d24 1B68     		ldr	r3, [r3]
 2230 0d26 1846     		mov	r0, r3
 2231 0d28 FFF7FEFF 		bl	__aeabi_i2f
 2232 0d2c 0346     		mov	r3, r0
 2233 0d2e 4FF08F41 		mov	r1, #1199570944
 2234 0d32 1846     		mov	r0, r3
 2235 0d34 FFF7FEFF 		bl	__aeabi_fdiv
 2236 0d38 0346     		mov	r3, r0
 2237 0d3a 1A46     		mov	r2, r3
 2238 0d3c 07F12803 		add	r3, r7, #40
 2239 0d40 083B     		subs	r3, r3, #8
 2240 0d42 1A60     		str	r2, [r3]	@ float
 491:..\src/command_processing.c ****                                 packet_data[(4 + PARAM_BYTE_SLOT*idx) + sod - i -1] = ((char*)(&aux
 2241              		.loc 1 491 0
 2242 0d44 0023     		movs	r3, #0
 2243 0d46 07F5AF52 		add	r2, r7, #5600
 2244 0d4a 02F10702 		add	r2, r2, #7
 2245 0d4e 1370     		strb	r3, [r2]
 2246 0d50 31E0     		b	.L125
 2247              	.L279:
 2248 0d52 00BF     		.align	2
 2249              	.L278:
 2250 0d54 00000000 		.word	c_mem
 2251              	.L126:
 492:..\src/command_processing.c ****                             }
 2252              		.loc 1 492 0 discriminator 3
 2253 0d58 07F5AF53 		add	r3, r7, #5600
 2254 0d5c 03F10503 		add	r3, r3, #5
 2255 0d60 1B78     		ldrb	r3, [r3]	@ zero_extendqisi2
 2256 0d62 3222     		movs	r2, #50
 2257 0d64 02FB03F3 		mul	r3, r2, r3
 2258 0d68 1A1D     		adds	r2, r3, #4
 2259 0d6a 07F5AF53 		add	r3, r7, #5600
 2260 0d6e 03F10303 		add	r3, r3, #3
 2261 0d72 1B78     		ldrb	r3, [r3]	@ zero_extendqisi2
 2262 0d74 1A44     		add	r2, r2, r3
 2263 0d76 07F5AF53 		add	r3, r7, #5600
 2264 0d7a 03F10703 		add	r3, r3, #7
 2265 0d7e 1B78     		ldrb	r3, [r3]	@ zero_extendqisi2
 2266 0d80 D31A     		subs	r3, r2, r3
 2267 0d82 5A1E     		subs	r2, r3, #1
ARM GAS  C:\Users\Mattia\AppData\Local\Temp\ccPC8dFz.s 			page 66


 2268 0d84 07F5AF53 		add	r3, r7, #5600
 2269 0d88 03F10703 		add	r3, r3, #7
 2270 0d8c 1978     		ldrb	r1, [r3]	@ zero_extendqisi2
 2271 0d8e 07F12803 		add	r3, r7, #40
 2272 0d92 083B     		subs	r3, r3, #8
 2273 0d94 0B44     		add	r3, r3, r1
 2274 0d96 1978     		ldrb	r1, [r3]	@ zero_extendqisi2
 2275 0d98 07F16803 		add	r3, r7, #104
 2276 0d9c 103B     		subs	r3, r3, #16
 2277 0d9e 9954     		strb	r1, [r3, r2]
 491:..\src/command_processing.c ****                                 packet_data[(4 + PARAM_BYTE_SLOT*idx) + sod - i -1] = ((char*)(&aux
 2278              		.loc 1 491 0 discriminator 3
 2279 0da0 07F5AF53 		add	r3, r7, #5600
 2280 0da4 03F10703 		add	r3, r3, #7
 2281 0da8 1B78     		ldrb	r3, [r3]	@ zero_extendqisi2
 2282 0daa 0133     		adds	r3, r3, #1
 2283 0dac 07F5AF52 		add	r2, r7, #5600
 2284 0db0 02F10702 		add	r2, r2, #7
 2285 0db4 1370     		strb	r3, [r2]
 2286              	.L125:
 491:..\src/command_processing.c ****                                 packet_data[(4 + PARAM_BYTE_SLOT*idx) + sod - i -1] = ((char*)(&aux
 2287              		.loc 1 491 0 is_stmt 0 discriminator 1
 2288 0db6 07F5AF53 		add	r3, r7, #5600
 2289 0dba 03F10703 		add	r3, r3, #7
 2290 0dbe 1A78     		ldrb	r2, [r3]	@ zero_extendqisi2
 2291 0dc0 07F5AF53 		add	r3, r7, #5600
 2292 0dc4 03F10303 		add	r3, r3, #3
 2293 0dc8 1B78     		ldrb	r3, [r3]	@ zero_extendqisi2
 2294 0dca 9A42     		cmp	r2, r3
 2295 0dcc C4D3     		bcc	.L126
 494:..\src/command_processing.c ****                             for(i = 0; i < sod; i++) {
 2296              		.loc 1 494 0 is_stmt 1
 2297 0dce 07F5AE53 		add	r3, r7, #5568
 2298 0dd2 03F11F03 		add	r3, r3, #31
 2299 0dd6 1A78     		ldrb	r2, [r3]	@ zero_extendqisi2
 2300 0dd8 AB49     		ldr	r1, .L280
 2301 0dda 1346     		mov	r3, r2
 2302 0ddc DB00     		lsls	r3, r3, #3
 2303 0dde 9B1A     		subs	r3, r3, r2
 2304 0de0 1B01     		lsls	r3, r3, #4
 2305 0de2 0B44     		add	r3, r3, r1
 2306 0de4 CC33     		adds	r3, r3, #204
 2307 0de6 1B68     		ldr	r3, [r3]
 2308 0de8 1846     		mov	r0, r3
 2309 0dea FFF7FEFF 		bl	__aeabi_i2f
 2310 0dee 0346     		mov	r3, r0
 2311 0df0 4FF08F41 		mov	r1, #1199570944
 2312 0df4 1846     		mov	r0, r3
 2313 0df6 FFF7FEFF 		bl	__aeabi_fdiv
 2314 0dfa 0346     		mov	r3, r0
 2315 0dfc 1A46     		mov	r2, r3
 2316 0dfe 07F12803 		add	r3, r7, #40
 2317 0e02 083B     		subs	r3, r3, #8
 2318 0e04 1A60     		str	r2, [r3]	@ float
 495:..\src/command_processing.c ****                                 packet_data[(4 + PARAM_BYTE_SLOT*idx + sod) + sod - i -1] = ((char*
 2319              		.loc 1 495 0
 2320 0e06 0023     		movs	r3, #0
ARM GAS  C:\Users\Mattia\AppData\Local\Temp\ccPC8dFz.s 			page 67


 2321 0e08 07F5AF52 		add	r2, r7, #5600
 2322 0e0c 02F10702 		add	r2, r2, #7
 2323 0e10 1370     		strb	r3, [r2]
 2324 0e12 34E0     		b	.L127
 2325              	.L128:
 496:..\src/command_processing.c ****                             }
 2326              		.loc 1 496 0 discriminator 3
 2327 0e14 07F5AF53 		add	r3, r7, #5600
 2328 0e18 03F10503 		add	r3, r3, #5
 2329 0e1c 1B78     		ldrb	r3, [r3]	@ zero_extendqisi2
 2330 0e1e 3222     		movs	r2, #50
 2331 0e20 02FB03F3 		mul	r3, r2, r3
 2332 0e24 1A1D     		adds	r2, r3, #4
 2333 0e26 07F5AF53 		add	r3, r7, #5600
 2334 0e2a 03F10303 		add	r3, r3, #3
 2335 0e2e 1B78     		ldrb	r3, [r3]	@ zero_extendqisi2
 2336 0e30 1A44     		add	r2, r2, r3
 2337 0e32 07F5AF53 		add	r3, r7, #5600
 2338 0e36 03F10303 		add	r3, r3, #3
 2339 0e3a 1B78     		ldrb	r3, [r3]	@ zero_extendqisi2
 2340 0e3c 1A44     		add	r2, r2, r3
 2341 0e3e 07F5AF53 		add	r3, r7, #5600
 2342 0e42 03F10703 		add	r3, r3, #7
 2343 0e46 1B78     		ldrb	r3, [r3]	@ zero_extendqisi2
 2344 0e48 D31A     		subs	r3, r2, r3
 2345 0e4a 5A1E     		subs	r2, r3, #1
 2346 0e4c 07F5AF53 		add	r3, r7, #5600
 2347 0e50 03F10703 		add	r3, r3, #7
 2348 0e54 1978     		ldrb	r1, [r3]	@ zero_extendqisi2
 2349 0e56 07F12803 		add	r3, r7, #40
 2350 0e5a 083B     		subs	r3, r3, #8
 2351 0e5c 0B44     		add	r3, r3, r1
 2352 0e5e 1978     		ldrb	r1, [r3]	@ zero_extendqisi2
 2353 0e60 07F16803 		add	r3, r7, #104
 2354 0e64 103B     		subs	r3, r3, #16
 2355 0e66 9954     		strb	r1, [r3, r2]
 495:..\src/command_processing.c ****                                 packet_data[(4 + PARAM_BYTE_SLOT*idx + sod) + sod - i -1] = ((char*
 2356              		.loc 1 495 0 discriminator 3
 2357 0e68 07F5AF53 		add	r3, r7, #5600
 2358 0e6c 03F10703 		add	r3, r3, #7
 2359 0e70 1B78     		ldrb	r3, [r3]	@ zero_extendqisi2
 2360 0e72 0133     		adds	r3, r3, #1
 2361 0e74 07F5AF52 		add	r2, r7, #5600
 2362 0e78 02F10702 		add	r2, r2, #7
 2363 0e7c 1370     		strb	r3, [r2]
 2364              	.L127:
 495:..\src/command_processing.c ****                                 packet_data[(4 + PARAM_BYTE_SLOT*idx + sod) + sod - i -1] = ((char*
 2365              		.loc 1 495 0 is_stmt 0 discriminator 1
 2366 0e7e 07F5AF53 		add	r3, r7, #5600
 2367 0e82 03F10703 		add	r3, r3, #7
 2368 0e86 1A78     		ldrb	r2, [r3]	@ zero_extendqisi2
 2369 0e88 07F5AF53 		add	r3, r7, #5600
 2370 0e8c 03F10303 		add	r3, r3, #3
 2371 0e90 1B78     		ldrb	r3, [r3]	@ zero_extendqisi2
 2372 0e92 9A42     		cmp	r2, r3
 2373 0e94 BED3     		bcc	.L128
 498:..\src/command_processing.c ****                             for(i = 0; i < sod; i++) {
ARM GAS  C:\Users\Mattia\AppData\Local\Temp\ccPC8dFz.s 			page 68


 2374              		.loc 1 498 0 is_stmt 1
 2375 0e96 07F5AE53 		add	r3, r7, #5568
 2376 0e9a 03F11F03 		add	r3, r3, #31
 2377 0e9e 1A78     		ldrb	r2, [r3]	@ zero_extendqisi2
 2378 0ea0 7949     		ldr	r1, .L280
 2379 0ea2 1346     		mov	r3, r2
 2380 0ea4 DB00     		lsls	r3, r3, #3
 2381 0ea6 9B1A     		subs	r3, r3, r2
 2382 0ea8 1B01     		lsls	r3, r3, #4
 2383 0eaa 0B44     		add	r3, r3, r1
 2384 0eac D033     		adds	r3, r3, #208
 2385 0eae 1B68     		ldr	r3, [r3]
 2386 0eb0 1846     		mov	r0, r3
 2387 0eb2 FFF7FEFF 		bl	__aeabi_i2f
 2388 0eb6 0346     		mov	r3, r0
 2389 0eb8 4FF08F41 		mov	r1, #1199570944
 2390 0ebc 1846     		mov	r0, r3
 2391 0ebe FFF7FEFF 		bl	__aeabi_fdiv
 2392 0ec2 0346     		mov	r3, r0
 2393 0ec4 1A46     		mov	r2, r3
 2394 0ec6 07F12803 		add	r3, r7, #40
 2395 0eca 083B     		subs	r3, r3, #8
 2396 0ecc 1A60     		str	r2, [r3]	@ float
 499:..\src/command_processing.c ****                                 packet_data[(4 + PARAM_BYTE_SLOT*idx + 2*sod) + sod - i -1] = ((cha
 2397              		.loc 1 499 0
 2398 0ece 0023     		movs	r3, #0
 2399 0ed0 07F5AF52 		add	r2, r7, #5600
 2400 0ed4 02F10702 		add	r2, r2, #7
 2401 0ed8 1370     		strb	r3, [r2]
 2402 0eda 35E0     		b	.L129
 2403              	.L130:
 500:..\src/command_processing.c ****                             }
 2404              		.loc 1 500 0 discriminator 3
 2405 0edc 07F5AF53 		add	r3, r7, #5600
 2406 0ee0 03F10503 		add	r3, r3, #5
 2407 0ee4 1B78     		ldrb	r3, [r3]	@ zero_extendqisi2
 2408 0ee6 3222     		movs	r2, #50
 2409 0ee8 02FB03F3 		mul	r3, r2, r3
 2410 0eec 1A1D     		adds	r2, r3, #4
 2411 0eee 07F5AF53 		add	r3, r7, #5600
 2412 0ef2 03F10303 		add	r3, r3, #3
 2413 0ef6 1B78     		ldrb	r3, [r3]	@ zero_extendqisi2
 2414 0ef8 5B00     		lsls	r3, r3, #1
 2415 0efa 1A44     		add	r2, r2, r3
 2416 0efc 07F5AF53 		add	r3, r7, #5600
 2417 0f00 03F10303 		add	r3, r3, #3
 2418 0f04 1B78     		ldrb	r3, [r3]	@ zero_extendqisi2
 2419 0f06 1A44     		add	r2, r2, r3
 2420 0f08 07F5AF53 		add	r3, r7, #5600
 2421 0f0c 03F10703 		add	r3, r3, #7
 2422 0f10 1B78     		ldrb	r3, [r3]	@ zero_extendqisi2
 2423 0f12 D31A     		subs	r3, r2, r3
 2424 0f14 5A1E     		subs	r2, r3, #1
 2425 0f16 07F5AF53 		add	r3, r7, #5600
 2426 0f1a 03F10703 		add	r3, r3, #7
 2427 0f1e 1978     		ldrb	r1, [r3]	@ zero_extendqisi2
 2428 0f20 07F12803 		add	r3, r7, #40
ARM GAS  C:\Users\Mattia\AppData\Local\Temp\ccPC8dFz.s 			page 69


 2429 0f24 083B     		subs	r3, r3, #8
 2430 0f26 0B44     		add	r3, r3, r1
 2431 0f28 1978     		ldrb	r1, [r3]	@ zero_extendqisi2
 2432 0f2a 07F16803 		add	r3, r7, #104
 2433 0f2e 103B     		subs	r3, r3, #16
 2434 0f30 9954     		strb	r1, [r3, r2]
 499:..\src/command_processing.c ****                                 packet_data[(4 + PARAM_BYTE_SLOT*idx + 2*sod) + sod - i -1] = ((cha
 2435              		.loc 1 499 0 discriminator 3
 2436 0f32 07F5AF53 		add	r3, r7, #5600
 2437 0f36 03F10703 		add	r3, r3, #7
 2438 0f3a 1B78     		ldrb	r3, [r3]	@ zero_extendqisi2
 2439 0f3c 0133     		adds	r3, r3, #1
 2440 0f3e 07F5AF52 		add	r2, r7, #5600
 2441 0f42 02F10702 		add	r2, r2, #7
 2442 0f46 1370     		strb	r3, [r2]
 2443              	.L129:
 499:..\src/command_processing.c ****                                 packet_data[(4 + PARAM_BYTE_SLOT*idx + 2*sod) + sod - i -1] = ((cha
 2444              		.loc 1 499 0 is_stmt 0 discriminator 1
 2445 0f48 07F5AF53 		add	r3, r7, #5600
 2446 0f4c 03F10703 		add	r3, r3, #7
 2447 0f50 1A78     		ldrb	r2, [r3]	@ zero_extendqisi2
 2448 0f52 07F5AF53 		add	r3, r7, #5600
 2449 0f56 03F10303 		add	r3, r3, #3
 2450 0f5a 1B78     		ldrb	r3, [r3]	@ zero_extendqisi2
 2451 0f5c 9A42     		cmp	r2, r3
 2452 0f5e BDD3     		bcc	.L130
 2453              		.loc 1 503 0 is_stmt 1
 2454 0f60 01F08BBA 		b	.L105
 2455              	.L109:
 504:..\src/command_processing.c ****                         
 505:..\src/command_processing.c ****                     case 3:         //Current PID
 506:..\src/command_processing.c ****                         if(c_mem.motor[MOTOR_IDX].control_mode != CURR_AND_POS_CONTROL) {
 2456              		.loc 1 506 0
 2457 0f64 07F5AE53 		add	r3, r7, #5568
 2458 0f68 03F11F03 		add	r3, r3, #31
 2459 0f6c 1A78     		ldrb	r2, [r3]	@ zero_extendqisi2
 2460 0f6e 4649     		ldr	r1, .L280
 2461 0f70 1346     		mov	r3, r2
 2462 0f72 DB00     		lsls	r3, r3, #3
 2463 0f74 9B1A     		subs	r3, r3, r2
 2464 0f76 1B01     		lsls	r3, r3, #4
 2465 0f78 0B44     		add	r3, r3, r1
 2466 0f7a 03F20F13 		addw	r3, r3, #271
 2467 0f7e 1B78     		ldrb	r3, [r3]	@ zero_extendqisi2
 2468 0f80 032B     		cmp	r3, #3
 2469 0f82 00F02B81 		beq	.L131
 507:..\src/command_processing.c ****                             aux_float = (float) c_mem.motor[MOTOR_IDX].k_p_c / 65536;
 2470              		.loc 1 507 0
 2471 0f86 07F5AE53 		add	r3, r7, #5568
 2472 0f8a 03F11F03 		add	r3, r3, #31
 2473 0f8e 1A78     		ldrb	r2, [r3]	@ zero_extendqisi2
 2474 0f90 3D49     		ldr	r1, .L280
 2475 0f92 1346     		mov	r3, r2
 2476 0f94 DB00     		lsls	r3, r3, #3
 2477 0f96 9B1A     		subs	r3, r3, r2
 2478 0f98 1B01     		lsls	r3, r3, #4
 2479 0f9a 0B44     		add	r3, r3, r1
ARM GAS  C:\Users\Mattia\AppData\Local\Temp\ccPC8dFz.s 			page 70


 2480 0f9c BC33     		adds	r3, r3, #188
 2481 0f9e 1B68     		ldr	r3, [r3]
 2482 0fa0 1846     		mov	r0, r3
 2483 0fa2 FFF7FEFF 		bl	__aeabi_i2f
 2484 0fa6 0346     		mov	r3, r0
 2485 0fa8 4FF08F41 		mov	r1, #1199570944
 2486 0fac 1846     		mov	r0, r3
 2487 0fae FFF7FEFF 		bl	__aeabi_fdiv
 2488 0fb2 0346     		mov	r3, r0
 2489 0fb4 1A46     		mov	r2, r3
 2490 0fb6 07F12803 		add	r3, r7, #40
 2491 0fba 083B     		subs	r3, r3, #8
 2492 0fbc 1A60     		str	r2, [r3]	@ float
 508:..\src/command_processing.c ****                             for(i = 0; i < sod; i++) {
 2493              		.loc 1 508 0
 2494 0fbe 0023     		movs	r3, #0
 2495 0fc0 07F5AF52 		add	r2, r7, #5600
 2496 0fc4 02F10702 		add	r2, r2, #7
 2497 0fc8 1370     		strb	r3, [r2]
 2498 0fca 2EE0     		b	.L132
 2499              	.L133:
 509:..\src/command_processing.c ****                                 packet_data[(4 + PARAM_BYTE_SLOT*idx) + sod - i -1] = ((char*)(&aux
 2500              		.loc 1 509 0 discriminator 3
 2501 0fcc 07F5AF53 		add	r3, r7, #5600
 2502 0fd0 03F10503 		add	r3, r3, #5
 2503 0fd4 1B78     		ldrb	r3, [r3]	@ zero_extendqisi2
 2504 0fd6 3222     		movs	r2, #50
 2505 0fd8 02FB03F3 		mul	r3, r2, r3
 2506 0fdc 1A1D     		adds	r2, r3, #4
 2507 0fde 07F5AF53 		add	r3, r7, #5600
 2508 0fe2 03F10303 		add	r3, r3, #3
 2509 0fe6 1B78     		ldrb	r3, [r3]	@ zero_extendqisi2
 2510 0fe8 1A44     		add	r2, r2, r3
 2511 0fea 07F5AF53 		add	r3, r7, #5600
 2512 0fee 03F10703 		add	r3, r3, #7
 2513 0ff2 1B78     		ldrb	r3, [r3]	@ zero_extendqisi2
 2514 0ff4 D31A     		subs	r3, r2, r3
 2515 0ff6 5A1E     		subs	r2, r3, #1
 2516 0ff8 07F5AF53 		add	r3, r7, #5600
 2517 0ffc 03F10703 		add	r3, r3, #7
 2518 1000 1978     		ldrb	r1, [r3]	@ zero_extendqisi2
 2519 1002 07F12803 		add	r3, r7, #40
 2520 1006 083B     		subs	r3, r3, #8
 2521 1008 0B44     		add	r3, r3, r1
 2522 100a 1978     		ldrb	r1, [r3]	@ zero_extendqisi2
 2523 100c 07F16803 		add	r3, r7, #104
 2524 1010 103B     		subs	r3, r3, #16
 2525 1012 9954     		strb	r1, [r3, r2]
 508:..\src/command_processing.c ****                             for(i = 0; i < sod; i++) {
 2526              		.loc 1 508 0 discriminator 3
 2527 1014 07F5AF53 		add	r3, r7, #5600
 2528 1018 03F10703 		add	r3, r3, #7
 2529 101c 1B78     		ldrb	r3, [r3]	@ zero_extendqisi2
 2530 101e 0133     		adds	r3, r3, #1
 2531 1020 07F5AF52 		add	r2, r7, #5600
 2532 1024 02F10702 		add	r2, r2, #7
 2533 1028 1370     		strb	r3, [r2]
ARM GAS  C:\Users\Mattia\AppData\Local\Temp\ccPC8dFz.s 			page 71


 2534              	.L132:
 508:..\src/command_processing.c ****                             for(i = 0; i < sod; i++) {
 2535              		.loc 1 508 0 is_stmt 0 discriminator 1
 2536 102a 07F5AF53 		add	r3, r7, #5600
 2537 102e 03F10703 		add	r3, r3, #7
 2538 1032 1A78     		ldrb	r2, [r3]	@ zero_extendqisi2
 2539 1034 07F5AF53 		add	r3, r7, #5600
 2540 1038 03F10303 		add	r3, r3, #3
 2541 103c 1B78     		ldrb	r3, [r3]	@ zero_extendqisi2
 2542 103e 9A42     		cmp	r2, r3
 2543 1040 C4D3     		bcc	.L133
 510:..\src/command_processing.c ****                             }
 511:..\src/command_processing.c ****                             aux_float = (float) c_mem.motor[MOTOR_IDX].k_i_c / 65536;
 2544              		.loc 1 511 0 is_stmt 1
 2545 1042 07F5AE53 		add	r3, r7, #5568
 2546 1046 03F11F03 		add	r3, r3, #31
 2547 104a 1A78     		ldrb	r2, [r3]	@ zero_extendqisi2
 2548 104c 0E49     		ldr	r1, .L280
 2549 104e 1346     		mov	r3, r2
 2550 1050 DB00     		lsls	r3, r3, #3
 2551 1052 9B1A     		subs	r3, r3, r2
 2552 1054 1B01     		lsls	r3, r3, #4
 2553 1056 0B44     		add	r3, r3, r1
 2554 1058 C033     		adds	r3, r3, #192
 2555 105a 1B68     		ldr	r3, [r3]
 2556 105c 1846     		mov	r0, r3
 2557 105e FFF7FEFF 		bl	__aeabi_i2f
 2558 1062 0346     		mov	r3, r0
 2559 1064 4FF08F41 		mov	r1, #1199570944
 2560 1068 1846     		mov	r0, r3
 2561 106a FFF7FEFF 		bl	__aeabi_fdiv
 2562 106e 0346     		mov	r3, r0
 2563 1070 1A46     		mov	r2, r3
 2564 1072 07F12803 		add	r3, r7, #40
 2565 1076 083B     		subs	r3, r3, #8
 2566 1078 1A60     		str	r2, [r3]	@ float
 512:..\src/command_processing.c ****                             for(i = 0; i < sod; i++) {
 2567              		.loc 1 512 0
 2568 107a 0023     		movs	r3, #0
 2569 107c 07F5AF52 		add	r2, r7, #5600
 2570 1080 02F10702 		add	r2, r2, #7
 2571 1084 1370     		strb	r3, [r2]
 2572 1086 36E0     		b	.L134
 2573              	.L281:
 2574              		.align	2
 2575              	.L280:
 2576 1088 00000000 		.word	c_mem
 2577              	.L135:
 513:..\src/command_processing.c ****                                 packet_data[(4 + PARAM_BYTE_SLOT*idx + sod) + sod - i -1] = ((char*
 2578              		.loc 1 513 0 discriminator 3
 2579 108c 07F5AF53 		add	r3, r7, #5600
 2580 1090 03F10503 		add	r3, r3, #5
 2581 1094 1B78     		ldrb	r3, [r3]	@ zero_extendqisi2
 2582 1096 3222     		movs	r2, #50
 2583 1098 02FB03F3 		mul	r3, r2, r3
 2584 109c 1A1D     		adds	r2, r3, #4
 2585 109e 07F5AF53 		add	r3, r7, #5600
ARM GAS  C:\Users\Mattia\AppData\Local\Temp\ccPC8dFz.s 			page 72


 2586 10a2 03F10303 		add	r3, r3, #3
 2587 10a6 1B78     		ldrb	r3, [r3]	@ zero_extendqisi2
 2588 10a8 1A44     		add	r2, r2, r3
 2589 10aa 07F5AF53 		add	r3, r7, #5600
 2590 10ae 03F10303 		add	r3, r3, #3
 2591 10b2 1B78     		ldrb	r3, [r3]	@ zero_extendqisi2
 2592 10b4 1A44     		add	r2, r2, r3
 2593 10b6 07F5AF53 		add	r3, r7, #5600
 2594 10ba 03F10703 		add	r3, r3, #7
 2595 10be 1B78     		ldrb	r3, [r3]	@ zero_extendqisi2
 2596 10c0 D31A     		subs	r3, r2, r3
 2597 10c2 5A1E     		subs	r2, r3, #1
 2598 10c4 07F5AF53 		add	r3, r7, #5600
 2599 10c8 03F10703 		add	r3, r3, #7
 2600 10cc 1978     		ldrb	r1, [r3]	@ zero_extendqisi2
 2601 10ce 07F12803 		add	r3, r7, #40
 2602 10d2 083B     		subs	r3, r3, #8
 2603 10d4 0B44     		add	r3, r3, r1
 2604 10d6 1978     		ldrb	r1, [r3]	@ zero_extendqisi2
 2605 10d8 07F16803 		add	r3, r7, #104
 2606 10dc 103B     		subs	r3, r3, #16
 2607 10de 9954     		strb	r1, [r3, r2]
 512:..\src/command_processing.c ****                             for(i = 0; i < sod; i++) {
 2608              		.loc 1 512 0 discriminator 3
 2609 10e0 07F5AF53 		add	r3, r7, #5600
 2610 10e4 03F10703 		add	r3, r3, #7
 2611 10e8 1B78     		ldrb	r3, [r3]	@ zero_extendqisi2
 2612 10ea 0133     		adds	r3, r3, #1
 2613 10ec 07F5AF52 		add	r2, r7, #5600
 2614 10f0 02F10702 		add	r2, r2, #7
 2615 10f4 1370     		strb	r3, [r2]
 2616              	.L134:
 512:..\src/command_processing.c ****                             for(i = 0; i < sod; i++) {
 2617              		.loc 1 512 0 is_stmt 0 discriminator 1
 2618 10f6 07F5AF53 		add	r3, r7, #5600
 2619 10fa 03F10703 		add	r3, r3, #7
 2620 10fe 1A78     		ldrb	r2, [r3]	@ zero_extendqisi2
 2621 1100 07F5AF53 		add	r3, r7, #5600
 2622 1104 03F10303 		add	r3, r3, #3
 2623 1108 1B78     		ldrb	r3, [r3]	@ zero_extendqisi2
 2624 110a 9A42     		cmp	r2, r3
 2625 110c BED3     		bcc	.L135
 514:..\src/command_processing.c ****                             }
 515:..\src/command_processing.c ****                             aux_float = (float) c_mem.motor[MOTOR_IDX].k_d_c / 65536;
 2626              		.loc 1 515 0 is_stmt 1
 2627 110e 07F5AE53 		add	r3, r7, #5568
 2628 1112 03F11F03 		add	r3, r3, #31
 2629 1116 1A78     		ldrb	r2, [r3]	@ zero_extendqisi2
 2630 1118 C549     		ldr	r1, .L282
 2631 111a 1346     		mov	r3, r2
 2632 111c DB00     		lsls	r3, r3, #3
 2633 111e 9B1A     		subs	r3, r3, r2
 2634 1120 1B01     		lsls	r3, r3, #4
 2635 1122 0B44     		add	r3, r3, r1
 2636 1124 C433     		adds	r3, r3, #196
 2637 1126 1B68     		ldr	r3, [r3]
 2638 1128 1846     		mov	r0, r3
ARM GAS  C:\Users\Mattia\AppData\Local\Temp\ccPC8dFz.s 			page 73


 2639 112a FFF7FEFF 		bl	__aeabi_i2f
 2640 112e 0346     		mov	r3, r0
 2641 1130 4FF08F41 		mov	r1, #1199570944
 2642 1134 1846     		mov	r0, r3
 2643 1136 FFF7FEFF 		bl	__aeabi_fdiv
 2644 113a 0346     		mov	r3, r0
 2645 113c 1A46     		mov	r2, r3
 2646 113e 07F12803 		add	r3, r7, #40
 2647 1142 083B     		subs	r3, r3, #8
 2648 1144 1A60     		str	r2, [r3]	@ float
 516:..\src/command_processing.c ****                             for(i = 0; i < sod; i++) {
 2649              		.loc 1 516 0
 2650 1146 0023     		movs	r3, #0
 2651 1148 07F5AF52 		add	r2, r7, #5600
 2652 114c 02F10702 		add	r2, r2, #7
 2653 1150 1370     		strb	r3, [r2]
 2654 1152 35E0     		b	.L136
 2655              	.L137:
 517:..\src/command_processing.c ****                                 packet_data[(4 + PARAM_BYTE_SLOT*idx + 2*sod) + sod - i -1] = ((cha
 2656              		.loc 1 517 0 discriminator 3
 2657 1154 07F5AF53 		add	r3, r7, #5600
 2658 1158 03F10503 		add	r3, r3, #5
 2659 115c 1B78     		ldrb	r3, [r3]	@ zero_extendqisi2
 2660 115e 3222     		movs	r2, #50
 2661 1160 02FB03F3 		mul	r3, r2, r3
 2662 1164 1A1D     		adds	r2, r3, #4
 2663 1166 07F5AF53 		add	r3, r7, #5600
 2664 116a 03F10303 		add	r3, r3, #3
 2665 116e 1B78     		ldrb	r3, [r3]	@ zero_extendqisi2
 2666 1170 5B00     		lsls	r3, r3, #1
 2667 1172 1A44     		add	r2, r2, r3
 2668 1174 07F5AF53 		add	r3, r7, #5600
 2669 1178 03F10303 		add	r3, r3, #3
 2670 117c 1B78     		ldrb	r3, [r3]	@ zero_extendqisi2
 2671 117e 1A44     		add	r2, r2, r3
 2672 1180 07F5AF53 		add	r3, r7, #5600
 2673 1184 03F10703 		add	r3, r3, #7
 2674 1188 1B78     		ldrb	r3, [r3]	@ zero_extendqisi2
 2675 118a D31A     		subs	r3, r2, r3
 2676 118c 5A1E     		subs	r2, r3, #1
 2677 118e 07F5AF53 		add	r3, r7, #5600
 2678 1192 03F10703 		add	r3, r3, #7
 2679 1196 1978     		ldrb	r1, [r3]	@ zero_extendqisi2
 2680 1198 07F12803 		add	r3, r7, #40
 2681 119c 083B     		subs	r3, r3, #8
 2682 119e 0B44     		add	r3, r3, r1
 2683 11a0 1978     		ldrb	r1, [r3]	@ zero_extendqisi2
 2684 11a2 07F16803 		add	r3, r7, #104
 2685 11a6 103B     		subs	r3, r3, #16
 2686 11a8 9954     		strb	r1, [r3, r2]
 516:..\src/command_processing.c ****                             for(i = 0; i < sod; i++) {
 2687              		.loc 1 516 0 discriminator 3
 2688 11aa 07F5AF53 		add	r3, r7, #5600
 2689 11ae 03F10703 		add	r3, r3, #7
 2690 11b2 1B78     		ldrb	r3, [r3]	@ zero_extendqisi2
 2691 11b4 0133     		adds	r3, r3, #1
 2692 11b6 07F5AF52 		add	r2, r7, #5600
ARM GAS  C:\Users\Mattia\AppData\Local\Temp\ccPC8dFz.s 			page 74


 2693 11ba 02F10702 		add	r2, r2, #7
 2694 11be 1370     		strb	r3, [r2]
 2695              	.L136:
 516:..\src/command_processing.c ****                             for(i = 0; i < sod; i++) {
 2696              		.loc 1 516 0 is_stmt 0 discriminator 1
 2697 11c0 07F5AF53 		add	r3, r7, #5600
 2698 11c4 03F10703 		add	r3, r3, #7
 2699 11c8 1A78     		ldrb	r2, [r3]	@ zero_extendqisi2
 2700 11ca 07F5AF53 		add	r3, r7, #5600
 2701 11ce 03F10303 		add	r3, r3, #3
 2702 11d2 1B78     		ldrb	r3, [r3]	@ zero_extendqisi2
 2703 11d4 9A42     		cmp	r2, r3
 2704 11d6 BDD3     		bcc	.L137
 518:..\src/command_processing.c ****                             }
 519:..\src/command_processing.c ****                         }
 520:..\src/command_processing.c ****                         else {
 521:..\src/command_processing.c ****                             aux_float = (float) c_mem.motor[MOTOR_IDX].k_p_c_dl / 65536;
 522:..\src/command_processing.c ****                             for(i = 0; i < sod; i++) {
 523:..\src/command_processing.c ****                                 packet_data[(4 + PARAM_BYTE_SLOT*idx) + sod - i -1] = ((char*)(&aux
 524:..\src/command_processing.c ****                             }
 525:..\src/command_processing.c ****                             aux_float = (float) c_mem.motor[MOTOR_IDX].k_i_c_dl / 65536;
 526:..\src/command_processing.c ****                             for(i = 0; i < sod; i++) {
 527:..\src/command_processing.c ****                                 packet_data[(4 + PARAM_BYTE_SLOT*idx + sod) + sod - i -1] = ((char*
 528:..\src/command_processing.c ****                             }
 529:..\src/command_processing.c ****                             aux_float = (float) c_mem.motor[MOTOR_IDX].k_d_c_dl / 65536;
 530:..\src/command_processing.c ****                             for(i = 0; i < sod; i++) {
 531:..\src/command_processing.c ****                                 packet_data[(4 + PARAM_BYTE_SLOT*idx + 2*sod) + sod - i -1] = ((cha
 532:..\src/command_processing.c ****                             }
 533:..\src/command_processing.c ****                         }            
 534:..\src/command_processing.c ****                         break;  
 2705              		.loc 1 534 0 is_stmt 1
 2706 11d8 01F04FB9 		b	.L105
 2707              	.L131:
 521:..\src/command_processing.c ****                             for(i = 0; i < sod; i++) {
 2708              		.loc 1 521 0
 2709 11dc 07F5AE53 		add	r3, r7, #5568
 2710 11e0 03F11F03 		add	r3, r3, #31
 2711 11e4 1A78     		ldrb	r2, [r3]	@ zero_extendqisi2
 2712 11e6 9249     		ldr	r1, .L282
 2713 11e8 1346     		mov	r3, r2
 2714 11ea DB00     		lsls	r3, r3, #3
 2715 11ec 9B1A     		subs	r3, r3, r2
 2716 11ee 1B01     		lsls	r3, r3, #4
 2717 11f0 0B44     		add	r3, r3, r1
 2718 11f2 D433     		adds	r3, r3, #212
 2719 11f4 1B68     		ldr	r3, [r3]
 2720 11f6 1846     		mov	r0, r3
 2721 11f8 FFF7FEFF 		bl	__aeabi_i2f
 2722 11fc 0346     		mov	r3, r0
 2723 11fe 4FF08F41 		mov	r1, #1199570944
 2724 1202 1846     		mov	r0, r3
 2725 1204 FFF7FEFF 		bl	__aeabi_fdiv
 2726 1208 0346     		mov	r3, r0
 2727 120a 1A46     		mov	r2, r3
 2728 120c 07F12803 		add	r3, r7, #40
 2729 1210 083B     		subs	r3, r3, #8
 2730 1212 1A60     		str	r2, [r3]	@ float
ARM GAS  C:\Users\Mattia\AppData\Local\Temp\ccPC8dFz.s 			page 75


 522:..\src/command_processing.c ****                                 packet_data[(4 + PARAM_BYTE_SLOT*idx) + sod - i -1] = ((char*)(&aux
 2731              		.loc 1 522 0
 2732 1214 0023     		movs	r3, #0
 2733 1216 07F5AF52 		add	r2, r7, #5600
 2734 121a 02F10702 		add	r2, r2, #7
 2735 121e 1370     		strb	r3, [r2]
 2736 1220 2EE0     		b	.L139
 2737              	.L140:
 523:..\src/command_processing.c ****                             }
 2738              		.loc 1 523 0 discriminator 3
 2739 1222 07F5AF53 		add	r3, r7, #5600
 2740 1226 03F10503 		add	r3, r3, #5
 2741 122a 1B78     		ldrb	r3, [r3]	@ zero_extendqisi2
 2742 122c 3222     		movs	r2, #50
 2743 122e 02FB03F3 		mul	r3, r2, r3
 2744 1232 1A1D     		adds	r2, r3, #4
 2745 1234 07F5AF53 		add	r3, r7, #5600
 2746 1238 03F10303 		add	r3, r3, #3
 2747 123c 1B78     		ldrb	r3, [r3]	@ zero_extendqisi2
 2748 123e 1A44     		add	r2, r2, r3
 2749 1240 07F5AF53 		add	r3, r7, #5600
 2750 1244 03F10703 		add	r3, r3, #7
 2751 1248 1B78     		ldrb	r3, [r3]	@ zero_extendqisi2
 2752 124a D31A     		subs	r3, r2, r3
 2753 124c 5A1E     		subs	r2, r3, #1
 2754 124e 07F5AF53 		add	r3, r7, #5600
 2755 1252 03F10703 		add	r3, r3, #7
 2756 1256 1978     		ldrb	r1, [r3]	@ zero_extendqisi2
 2757 1258 07F12803 		add	r3, r7, #40
 2758 125c 083B     		subs	r3, r3, #8
 2759 125e 0B44     		add	r3, r3, r1
 2760 1260 1978     		ldrb	r1, [r3]	@ zero_extendqisi2
 2761 1262 07F16803 		add	r3, r7, #104
 2762 1266 103B     		subs	r3, r3, #16
 2763 1268 9954     		strb	r1, [r3, r2]
 522:..\src/command_processing.c ****                                 packet_data[(4 + PARAM_BYTE_SLOT*idx) + sod - i -1] = ((char*)(&aux
 2764              		.loc 1 522 0 discriminator 3
 2765 126a 07F5AF53 		add	r3, r7, #5600
 2766 126e 03F10703 		add	r3, r3, #7
 2767 1272 1B78     		ldrb	r3, [r3]	@ zero_extendqisi2
 2768 1274 0133     		adds	r3, r3, #1
 2769 1276 07F5AF52 		add	r2, r7, #5600
 2770 127a 02F10702 		add	r2, r2, #7
 2771 127e 1370     		strb	r3, [r2]
 2772              	.L139:
 522:..\src/command_processing.c ****                                 packet_data[(4 + PARAM_BYTE_SLOT*idx) + sod - i -1] = ((char*)(&aux
 2773              		.loc 1 522 0 is_stmt 0 discriminator 1
 2774 1280 07F5AF53 		add	r3, r7, #5600
 2775 1284 03F10703 		add	r3, r3, #7
 2776 1288 1A78     		ldrb	r2, [r3]	@ zero_extendqisi2
 2777 128a 07F5AF53 		add	r3, r7, #5600
 2778 128e 03F10303 		add	r3, r3, #3
 2779 1292 1B78     		ldrb	r3, [r3]	@ zero_extendqisi2
 2780 1294 9A42     		cmp	r2, r3
 2781 1296 C4D3     		bcc	.L140
 525:..\src/command_processing.c ****                             for(i = 0; i < sod; i++) {
 2782              		.loc 1 525 0 is_stmt 1
ARM GAS  C:\Users\Mattia\AppData\Local\Temp\ccPC8dFz.s 			page 76


 2783 1298 07F5AE53 		add	r3, r7, #5568
 2784 129c 03F11F03 		add	r3, r3, #31
 2785 12a0 1A78     		ldrb	r2, [r3]	@ zero_extendqisi2
 2786 12a2 6349     		ldr	r1, .L282
 2787 12a4 1346     		mov	r3, r2
 2788 12a6 DB00     		lsls	r3, r3, #3
 2789 12a8 9B1A     		subs	r3, r3, r2
 2790 12aa 1B01     		lsls	r3, r3, #4
 2791 12ac 0B44     		add	r3, r3, r1
 2792 12ae D833     		adds	r3, r3, #216
 2793 12b0 1B68     		ldr	r3, [r3]
 2794 12b2 1846     		mov	r0, r3
 2795 12b4 FFF7FEFF 		bl	__aeabi_i2f
 2796 12b8 0346     		mov	r3, r0
 2797 12ba 4FF08F41 		mov	r1, #1199570944
 2798 12be 1846     		mov	r0, r3
 2799 12c0 FFF7FEFF 		bl	__aeabi_fdiv
 2800 12c4 0346     		mov	r3, r0
 2801 12c6 1A46     		mov	r2, r3
 2802 12c8 07F12803 		add	r3, r7, #40
 2803 12cc 083B     		subs	r3, r3, #8
 2804 12ce 1A60     		str	r2, [r3]	@ float
 526:..\src/command_processing.c ****                                 packet_data[(4 + PARAM_BYTE_SLOT*idx + sod) + sod - i -1] = ((char*
 2805              		.loc 1 526 0
 2806 12d0 0023     		movs	r3, #0
 2807 12d2 07F5AF52 		add	r2, r7, #5600
 2808 12d6 02F10702 		add	r2, r2, #7
 2809 12da 1370     		strb	r3, [r2]
 2810 12dc 34E0     		b	.L141
 2811              	.L142:
 527:..\src/command_processing.c ****                             }
 2812              		.loc 1 527 0 discriminator 3
 2813 12de 07F5AF53 		add	r3, r7, #5600
 2814 12e2 03F10503 		add	r3, r3, #5
 2815 12e6 1B78     		ldrb	r3, [r3]	@ zero_extendqisi2
 2816 12e8 3222     		movs	r2, #50
 2817 12ea 02FB03F3 		mul	r3, r2, r3
 2818 12ee 1A1D     		adds	r2, r3, #4
 2819 12f0 07F5AF53 		add	r3, r7, #5600
 2820 12f4 03F10303 		add	r3, r3, #3
 2821 12f8 1B78     		ldrb	r3, [r3]	@ zero_extendqisi2
 2822 12fa 1A44     		add	r2, r2, r3
 2823 12fc 07F5AF53 		add	r3, r7, #5600
 2824 1300 03F10303 		add	r3, r3, #3
 2825 1304 1B78     		ldrb	r3, [r3]	@ zero_extendqisi2
 2826 1306 1A44     		add	r2, r2, r3
 2827 1308 07F5AF53 		add	r3, r7, #5600
 2828 130c 03F10703 		add	r3, r3, #7
 2829 1310 1B78     		ldrb	r3, [r3]	@ zero_extendqisi2
 2830 1312 D31A     		subs	r3, r2, r3
 2831 1314 5A1E     		subs	r2, r3, #1
 2832 1316 07F5AF53 		add	r3, r7, #5600
 2833 131a 03F10703 		add	r3, r3, #7
 2834 131e 1978     		ldrb	r1, [r3]	@ zero_extendqisi2
 2835 1320 07F12803 		add	r3, r7, #40
 2836 1324 083B     		subs	r3, r3, #8
 2837 1326 0B44     		add	r3, r3, r1
ARM GAS  C:\Users\Mattia\AppData\Local\Temp\ccPC8dFz.s 			page 77


 2838 1328 1978     		ldrb	r1, [r3]	@ zero_extendqisi2
 2839 132a 07F16803 		add	r3, r7, #104
 2840 132e 103B     		subs	r3, r3, #16
 2841 1330 9954     		strb	r1, [r3, r2]
 526:..\src/command_processing.c ****                                 packet_data[(4 + PARAM_BYTE_SLOT*idx + sod) + sod - i -1] = ((char*
 2842              		.loc 1 526 0 discriminator 3
 2843 1332 07F5AF53 		add	r3, r7, #5600
 2844 1336 03F10703 		add	r3, r3, #7
 2845 133a 1B78     		ldrb	r3, [r3]	@ zero_extendqisi2
 2846 133c 0133     		adds	r3, r3, #1
 2847 133e 07F5AF52 		add	r2, r7, #5600
 2848 1342 02F10702 		add	r2, r2, #7
 2849 1346 1370     		strb	r3, [r2]
 2850              	.L141:
 526:..\src/command_processing.c ****                                 packet_data[(4 + PARAM_BYTE_SLOT*idx + sod) + sod - i -1] = ((char*
 2851              		.loc 1 526 0 is_stmt 0 discriminator 1
 2852 1348 07F5AF53 		add	r3, r7, #5600
 2853 134c 03F10703 		add	r3, r3, #7
 2854 1350 1A78     		ldrb	r2, [r3]	@ zero_extendqisi2
 2855 1352 07F5AF53 		add	r3, r7, #5600
 2856 1356 03F10303 		add	r3, r3, #3
 2857 135a 1B78     		ldrb	r3, [r3]	@ zero_extendqisi2
 2858 135c 9A42     		cmp	r2, r3
 2859 135e BED3     		bcc	.L142
 529:..\src/command_processing.c ****                             for(i = 0; i < sod; i++) {
 2860              		.loc 1 529 0 is_stmt 1
 2861 1360 07F5AE53 		add	r3, r7, #5568
 2862 1364 03F11F03 		add	r3, r3, #31
 2863 1368 1A78     		ldrb	r2, [r3]	@ zero_extendqisi2
 2864 136a 3149     		ldr	r1, .L282
 2865 136c 1346     		mov	r3, r2
 2866 136e DB00     		lsls	r3, r3, #3
 2867 1370 9B1A     		subs	r3, r3, r2
 2868 1372 1B01     		lsls	r3, r3, #4
 2869 1374 0B44     		add	r3, r3, r1
 2870 1376 DC33     		adds	r3, r3, #220
 2871 1378 1B68     		ldr	r3, [r3]
 2872 137a 1846     		mov	r0, r3
 2873 137c FFF7FEFF 		bl	__aeabi_i2f
 2874 1380 0346     		mov	r3, r0
 2875 1382 4FF08F41 		mov	r1, #1199570944
 2876 1386 1846     		mov	r0, r3
 2877 1388 FFF7FEFF 		bl	__aeabi_fdiv
 2878 138c 0346     		mov	r3, r0
 2879 138e 1A46     		mov	r2, r3
 2880 1390 07F12803 		add	r3, r7, #40
 2881 1394 083B     		subs	r3, r3, #8
 2882 1396 1A60     		str	r2, [r3]	@ float
 530:..\src/command_processing.c ****                                 packet_data[(4 + PARAM_BYTE_SLOT*idx + 2*sod) + sod - i -1] = ((cha
 2883              		.loc 1 530 0
 2884 1398 0023     		movs	r3, #0
 2885 139a 07F5AF52 		add	r2, r7, #5600
 2886 139e 02F10702 		add	r2, r2, #7
 2887 13a2 1370     		strb	r3, [r2]
 2888 13a4 35E0     		b	.L143
 2889              	.L144:
 531:..\src/command_processing.c ****                             }
ARM GAS  C:\Users\Mattia\AppData\Local\Temp\ccPC8dFz.s 			page 78


 2890              		.loc 1 531 0 discriminator 3
 2891 13a6 07F5AF53 		add	r3, r7, #5600
 2892 13aa 03F10503 		add	r3, r3, #5
 2893 13ae 1B78     		ldrb	r3, [r3]	@ zero_extendqisi2
 2894 13b0 3222     		movs	r2, #50
 2895 13b2 02FB03F3 		mul	r3, r2, r3
 2896 13b6 1A1D     		adds	r2, r3, #4
 2897 13b8 07F5AF53 		add	r3, r7, #5600
 2898 13bc 03F10303 		add	r3, r3, #3
 2899 13c0 1B78     		ldrb	r3, [r3]	@ zero_extendqisi2
 2900 13c2 5B00     		lsls	r3, r3, #1
 2901 13c4 1A44     		add	r2, r2, r3
 2902 13c6 07F5AF53 		add	r3, r7, #5600
 2903 13ca 03F10303 		add	r3, r3, #3
 2904 13ce 1B78     		ldrb	r3, [r3]	@ zero_extendqisi2
 2905 13d0 1A44     		add	r2, r2, r3
 2906 13d2 07F5AF53 		add	r3, r7, #5600
 2907 13d6 03F10703 		add	r3, r3, #7
 2908 13da 1B78     		ldrb	r3, [r3]	@ zero_extendqisi2
 2909 13dc D31A     		subs	r3, r2, r3
 2910 13de 5A1E     		subs	r2, r3, #1
 2911 13e0 07F5AF53 		add	r3, r7, #5600
 2912 13e4 03F10703 		add	r3, r3, #7
 2913 13e8 1978     		ldrb	r1, [r3]	@ zero_extendqisi2
 2914 13ea 07F12803 		add	r3, r7, #40
 2915 13ee 083B     		subs	r3, r3, #8
 2916 13f0 0B44     		add	r3, r3, r1
 2917 13f2 1978     		ldrb	r1, [r3]	@ zero_extendqisi2
 2918 13f4 07F16803 		add	r3, r7, #104
 2919 13f8 103B     		subs	r3, r3, #16
 2920 13fa 9954     		strb	r1, [r3, r2]
 530:..\src/command_processing.c ****                                 packet_data[(4 + PARAM_BYTE_SLOT*idx + 2*sod) + sod - i -1] = ((cha
 2921              		.loc 1 530 0 discriminator 3
 2922 13fc 07F5AF53 		add	r3, r7, #5600
 2923 1400 03F10703 		add	r3, r3, #7
 2924 1404 1B78     		ldrb	r3, [r3]	@ zero_extendqisi2
 2925 1406 0133     		adds	r3, r3, #1
 2926 1408 07F5AF52 		add	r2, r7, #5600
 2927 140c 02F10702 		add	r2, r2, #7
 2928 1410 1370     		strb	r3, [r2]
 2929              	.L143:
 530:..\src/command_processing.c ****                                 packet_data[(4 + PARAM_BYTE_SLOT*idx + 2*sod) + sod - i -1] = ((cha
 2930              		.loc 1 530 0 is_stmt 0 discriminator 1
 2931 1412 07F5AF53 		add	r3, r7, #5600
 2932 1416 03F10703 		add	r3, r3, #7
 2933 141a 1A78     		ldrb	r2, [r3]	@ zero_extendqisi2
 2934 141c 07F5AF53 		add	r3, r7, #5600
 2935 1420 03F10303 		add	r3, r3, #3
 2936 1424 1B78     		ldrb	r3, [r3]	@ zero_extendqisi2
 2937 1426 9A42     		cmp	r2, r3
 2938 1428 BDD3     		bcc	.L144
 2939              		.loc 1 534 0 is_stmt 1
 2940 142a 01F026B8 		b	.L105
 2941              	.L283:
 2942 142e 00BF     		.align	2
 2943              	.L282:
 2944 1430 00000000 		.word	c_mem
ARM GAS  C:\Users\Mattia\AppData\Local\Temp\ccPC8dFz.s 			page 79


 2945              	.L110:
 535:..\src/command_processing.c **** 
 536:..\src/command_processing.c ****                     case 8:         //Measurement Offset
 537:..\src/command_processing.c ****                         aux_int16 = (c_mem.enc[g_mem.motor[MOTOR_IDX].encoder_line].m_off[i] >> c_m
 2946              		.loc 1 537 0
 2947 1434 07F5AE53 		add	r3, r7, #5568
 2948 1438 03F11F03 		add	r3, r3, #31
 2949 143c 1A78     		ldrb	r2, [r3]	@ zero_extendqisi2
 2950 143e CC49     		ldr	r1, .L284
 2951 1440 1346     		mov	r3, r2
 2952 1442 DB00     		lsls	r3, r3, #3
 2953 1444 9B1A     		subs	r3, r3, r2
 2954 1446 1B01     		lsls	r3, r3, #4
 2955 1448 0B44     		add	r3, r3, r1
 2956 144a 03F58873 		add	r3, r3, #272
 2957 144e 1B78     		ldrb	r3, [r3]	@ zero_extendqisi2
 2958 1450 1846     		mov	r0, r3
 2959 1452 07F5AF53 		add	r3, r7, #5600
 2960 1456 03F10703 		add	r3, r3, #7
 2961 145a 1A78     		ldrb	r2, [r3]	@ zero_extendqisi2
 2962 145c C549     		ldr	r1, .L284+4
 2963 145e 0346     		mov	r3, r0
 2964 1460 5B00     		lsls	r3, r3, #1
 2965 1462 0344     		add	r3, r3, r0
 2966 1464 9B00     		lsls	r3, r3, #2
 2967 1466 1344     		add	r3, r3, r2
 2968 1468 6633     		adds	r3, r3, #102
 2969 146a 51F82310 		ldr	r1, [r1, r3, lsl #2]
 2970 146e 07F5AE53 		add	r3, r7, #5568
 2971 1472 03F11F03 		add	r3, r3, #31
 2972 1476 1A78     		ldrb	r2, [r3]	@ zero_extendqisi2
 2973 1478 BD48     		ldr	r0, .L284
 2974 147a 1346     		mov	r3, r2
 2975 147c DB00     		lsls	r3, r3, #3
 2976 147e 9B1A     		subs	r3, r3, r2
 2977 1480 1B01     		lsls	r3, r3, #4
 2978 1482 0344     		add	r3, r3, r0
 2979 1484 03F58873 		add	r3, r3, #272
 2980 1488 1B78     		ldrb	r3, [r3]	@ zero_extendqisi2
 2981 148a 1C46     		mov	r4, r3
 2982 148c 07F5AF53 		add	r3, r7, #5600
 2983 1490 03F10703 		add	r3, r3, #7
 2984 1494 1A78     		ldrb	r2, [r3]	@ zero_extendqisi2
 2985 1496 B748     		ldr	r0, .L284+4
 2986 1498 2346     		mov	r3, r4
 2987 149a 5B00     		lsls	r3, r3, #1
 2988 149c 2344     		add	r3, r3, r4
 2989 149e 1B01     		lsls	r3, r3, #4
 2990 14a0 0344     		add	r3, r3, r0
 2991 14a2 1344     		add	r3, r3, r2
 2992 14a4 03F29513 		addw	r3, r3, #405
 2993 14a8 1B78     		ldrb	r3, [r3]	@ zero_extendqisi2
 2994 14aa 41FA03F3 		asr	r3, r1, r3
 2995 14ae 1AB2     		sxth	r2, r3
 2996 14b0 07F12803 		add	r3, r7, #40
 2997 14b4 0A3B     		subs	r3, r3, #10
 2998 14b6 1A80     		strh	r2, [r3]	@ movhi
ARM GAS  C:\Users\Mattia\AppData\Local\Temp\ccPC8dFz.s 			page 80


 538:..\src/command_processing.c ****                         for(j = 0; j < sod; j++) {
 2999              		.loc 1 538 0
 3000 14b8 0023     		movs	r3, #0
 3001 14ba 07F5AF52 		add	r2, r7, #5600
 3002 14be 02F10602 		add	r2, r2, #6
 3003 14c2 1370     		strb	r3, [r2]
 3004 14c4 3BE0     		b	.L145
 3005              	.L146:
 539:..\src/command_processing.c ****                             packet_data[(4 + PARAM_BYTE_SLOT*idx + i*sod) + sod - j -1] = ((char*)(
 3006              		.loc 1 539 0 discriminator 3
 3007 14c6 07F5AF53 		add	r3, r7, #5600
 3008 14ca 03F10503 		add	r3, r3, #5
 3009 14ce 1B78     		ldrb	r3, [r3]	@ zero_extendqisi2
 3010 14d0 3222     		movs	r2, #50
 3011 14d2 02FB03F3 		mul	r3, r2, r3
 3012 14d6 1A1D     		adds	r2, r3, #4
 3013 14d8 07F5AF53 		add	r3, r7, #5600
 3014 14dc 03F10703 		add	r3, r3, #7
 3015 14e0 1B78     		ldrb	r3, [r3]	@ zero_extendqisi2
 3016 14e2 07F5AF51 		add	r1, r7, #5600
 3017 14e6 01F10301 		add	r1, r1, #3
 3018 14ea 0978     		ldrb	r1, [r1]	@ zero_extendqisi2
 3019 14ec 01FB03F3 		mul	r3, r1, r3
 3020 14f0 1A44     		add	r2, r2, r3
 3021 14f2 07F5AF53 		add	r3, r7, #5600
 3022 14f6 03F10303 		add	r3, r3, #3
 3023 14fa 1B78     		ldrb	r3, [r3]	@ zero_extendqisi2
 3024 14fc 1A44     		add	r2, r2, r3
 3025 14fe 07F5AF53 		add	r3, r7, #5600
 3026 1502 03F10603 		add	r3, r3, #6
 3027 1506 1B78     		ldrb	r3, [r3]	@ zero_extendqisi2
 3028 1508 D31A     		subs	r3, r2, r3
 3029 150a 5A1E     		subs	r2, r3, #1
 3030 150c 07F5AF53 		add	r3, r7, #5600
 3031 1510 03F10603 		add	r3, r3, #6
 3032 1514 1978     		ldrb	r1, [r3]	@ zero_extendqisi2
 3033 1516 07F12803 		add	r3, r7, #40
 3034 151a 0A3B     		subs	r3, r3, #10
 3035 151c 0B44     		add	r3, r3, r1
 3036 151e 1978     		ldrb	r1, [r3]	@ zero_extendqisi2
 3037 1520 07F16803 		add	r3, r7, #104
 3038 1524 103B     		subs	r3, r3, #16
 3039 1526 9954     		strb	r1, [r3, r2]
 538:..\src/command_processing.c ****                         for(j = 0; j < sod; j++) {
 3040              		.loc 1 538 0 discriminator 3
 3041 1528 07F5AF53 		add	r3, r7, #5600
 3042 152c 03F10603 		add	r3, r3, #6
 3043 1530 1B78     		ldrb	r3, [r3]	@ zero_extendqisi2
 3044 1532 0133     		adds	r3, r3, #1
 3045 1534 07F5AF52 		add	r2, r7, #5600
 3046 1538 02F10602 		add	r2, r2, #6
 3047 153c 1370     		strb	r3, [r2]
 3048              	.L145:
 538:..\src/command_processing.c ****                         for(j = 0; j < sod; j++) {
 3049              		.loc 1 538 0 is_stmt 0 discriminator 1
 3050 153e 07F5AF53 		add	r3, r7, #5600
 3051 1542 03F10603 		add	r3, r3, #6
ARM GAS  C:\Users\Mattia\AppData\Local\Temp\ccPC8dFz.s 			page 81


 3052 1546 1A78     		ldrb	r2, [r3]	@ zero_extendqisi2
 3053 1548 07F5AF53 		add	r3, r7, #5600
 3054 154c 03F10303 		add	r3, r3, #3
 3055 1550 1B78     		ldrb	r3, [r3]	@ zero_extendqisi2
 3056 1552 9A42     		cmp	r2, r3
 3057 1554 B7D3     		bcc	.L146
 540:..\src/command_processing.c ****                         }
 541:..\src/command_processing.c ****                         break;
 3058              		.loc 1 541 0 is_stmt 1
 3059 1556 00F090BF 		b	.L105
 3060              	.L111:
 542:..\src/command_processing.c ****                 
 543:..\src/command_processing.c ****                     case 11:        //Position limits
 544:..\src/command_processing.c ****                         aux_int32 = (c_mem.motor[MOTOR_IDX].pos_lim_inf >> c_mem.enc[g_mem.motor[MO
 3061              		.loc 1 544 0
 3062 155a 07F5AE53 		add	r3, r7, #5568
 3063 155e 03F11F03 		add	r3, r3, #31
 3064 1562 1A78     		ldrb	r2, [r3]	@ zero_extendqisi2
 3065 1564 8349     		ldr	r1, .L284+4
 3066 1566 1346     		mov	r3, r2
 3067 1568 DB00     		lsls	r3, r3, #3
 3068 156a 9B1A     		subs	r3, r3, r2
 3069 156c 1B01     		lsls	r3, r3, #4
 3070 156e 0B44     		add	r3, r3, r1
 3071 1570 E433     		adds	r3, r3, #228
 3072 1572 1968     		ldr	r1, [r3]
 3073 1574 07F5AE53 		add	r3, r7, #5568
 3074 1578 03F11F03 		add	r3, r3, #31
 3075 157c 1A78     		ldrb	r2, [r3]	@ zero_extendqisi2
 3076 157e 7C48     		ldr	r0, .L284
 3077 1580 1346     		mov	r3, r2
 3078 1582 DB00     		lsls	r3, r3, #3
 3079 1584 9B1A     		subs	r3, r3, r2
 3080 1586 1B01     		lsls	r3, r3, #4
 3081 1588 0344     		add	r3, r3, r0
 3082 158a 03F58873 		add	r3, r3, #272
 3083 158e 1B78     		ldrb	r3, [r3]	@ zero_extendqisi2
 3084 1590 1846     		mov	r0, r3
 3085 1592 784A     		ldr	r2, .L284+4
 3086 1594 0346     		mov	r3, r0
 3087 1596 5B00     		lsls	r3, r3, #1
 3088 1598 0344     		add	r3, r3, r0
 3089 159a 1B01     		lsls	r3, r3, #4
 3090 159c 1344     		add	r3, r3, r2
 3091 159e 03F29513 		addw	r3, r3, #405
 3092 15a2 1B78     		ldrb	r3, [r3]	@ zero_extendqisi2
 3093 15a4 41FA03F2 		asr	r2, r1, r3
 3094 15a8 07F12803 		add	r3, r7, #40
 3095 15ac 103B     		subs	r3, r3, #16
 3096 15ae 1A60     		str	r2, [r3]
 545:..\src/command_processing.c ****                         for(j = 0; j < sod; j++) {
 3097              		.loc 1 545 0
 3098 15b0 0023     		movs	r3, #0
 3099 15b2 07F5AF52 		add	r2, r7, #5600
 3100 15b6 02F10602 		add	r2, r2, #6
 3101 15ba 1370     		strb	r3, [r2]
 3102 15bc 2EE0     		b	.L147
ARM GAS  C:\Users\Mattia\AppData\Local\Temp\ccPC8dFz.s 			page 82


 3103              	.L148:
 546:..\src/command_processing.c ****                             packet_data[(4 + PARAM_BYTE_SLOT*idx) + sod - j -1] = ((char*)(&aux_int
 3104              		.loc 1 546 0 discriminator 3
 3105 15be 07F5AF53 		add	r3, r7, #5600
 3106 15c2 03F10503 		add	r3, r3, #5
 3107 15c6 1B78     		ldrb	r3, [r3]	@ zero_extendqisi2
 3108 15c8 3222     		movs	r2, #50
 3109 15ca 02FB03F3 		mul	r3, r2, r3
 3110 15ce 1A1D     		adds	r2, r3, #4
 3111 15d0 07F5AF53 		add	r3, r7, #5600
 3112 15d4 03F10303 		add	r3, r3, #3
 3113 15d8 1B78     		ldrb	r3, [r3]	@ zero_extendqisi2
 3114 15da 1A44     		add	r2, r2, r3
 3115 15dc 07F5AF53 		add	r3, r7, #5600
 3116 15e0 03F10603 		add	r3, r3, #6
 3117 15e4 1B78     		ldrb	r3, [r3]	@ zero_extendqisi2
 3118 15e6 D31A     		subs	r3, r2, r3
 3119 15e8 5A1E     		subs	r2, r3, #1
 3120 15ea 07F5AF53 		add	r3, r7, #5600
 3121 15ee 03F10603 		add	r3, r3, #6
 3122 15f2 1978     		ldrb	r1, [r3]	@ zero_extendqisi2
 3123 15f4 07F12803 		add	r3, r7, #40
 3124 15f8 103B     		subs	r3, r3, #16
 3125 15fa 0B44     		add	r3, r3, r1
 3126 15fc 1978     		ldrb	r1, [r3]	@ zero_extendqisi2
 3127 15fe 07F16803 		add	r3, r7, #104
 3128 1602 103B     		subs	r3, r3, #16
 3129 1604 9954     		strb	r1, [r3, r2]
 545:..\src/command_processing.c ****                         for(j = 0; j < sod; j++) {
 3130              		.loc 1 545 0 discriminator 3
 3131 1606 07F5AF53 		add	r3, r7, #5600
 3132 160a 03F10603 		add	r3, r3, #6
 3133 160e 1B78     		ldrb	r3, [r3]	@ zero_extendqisi2
 3134 1610 0133     		adds	r3, r3, #1
 3135 1612 07F5AF52 		add	r2, r7, #5600
 3136 1616 02F10602 		add	r2, r2, #6
 3137 161a 1370     		strb	r3, [r2]
 3138              	.L147:
 545:..\src/command_processing.c ****                         for(j = 0; j < sod; j++) {
 3139              		.loc 1 545 0 is_stmt 0 discriminator 1
 3140 161c 07F5AF53 		add	r3, r7, #5600
 3141 1620 03F10603 		add	r3, r3, #6
 3142 1624 1A78     		ldrb	r2, [r3]	@ zero_extendqisi2
 3143 1626 07F5AF53 		add	r3, r7, #5600
 3144 162a 03F10303 		add	r3, r3, #3
 3145 162e 1B78     		ldrb	r3, [r3]	@ zero_extendqisi2
 3146 1630 9A42     		cmp	r2, r3
 3147 1632 C4D3     		bcc	.L148
 547:..\src/command_processing.c ****                         }
 548:..\src/command_processing.c ****                         aux_int32 = (c_mem.motor[MOTOR_IDX].pos_lim_sup >> c_mem.enc[g_mem.motor[MO
 3148              		.loc 1 548 0 is_stmt 1
 3149 1634 07F5AE53 		add	r3, r7, #5568
 3150 1638 03F11F03 		add	r3, r3, #31
 3151 163c 1A78     		ldrb	r2, [r3]	@ zero_extendqisi2
 3152 163e 4D49     		ldr	r1, .L284+4
 3153 1640 1346     		mov	r3, r2
 3154 1642 DB00     		lsls	r3, r3, #3
ARM GAS  C:\Users\Mattia\AppData\Local\Temp\ccPC8dFz.s 			page 83


 3155 1644 9B1A     		subs	r3, r3, r2
 3156 1646 1B01     		lsls	r3, r3, #4
 3157 1648 0B44     		add	r3, r3, r1
 3158 164a E833     		adds	r3, r3, #232
 3159 164c 1968     		ldr	r1, [r3]
 3160 164e 07F5AE53 		add	r3, r7, #5568
 3161 1652 03F11F03 		add	r3, r3, #31
 3162 1656 1A78     		ldrb	r2, [r3]	@ zero_extendqisi2
 3163 1658 4548     		ldr	r0, .L284
 3164 165a 1346     		mov	r3, r2
 3165 165c DB00     		lsls	r3, r3, #3
 3166 165e 9B1A     		subs	r3, r3, r2
 3167 1660 1B01     		lsls	r3, r3, #4
 3168 1662 0344     		add	r3, r3, r0
 3169 1664 03F58873 		add	r3, r3, #272
 3170 1668 1B78     		ldrb	r3, [r3]	@ zero_extendqisi2
 3171 166a 1846     		mov	r0, r3
 3172 166c 414A     		ldr	r2, .L284+4
 3173 166e 0346     		mov	r3, r0
 3174 1670 5B00     		lsls	r3, r3, #1
 3175 1672 0344     		add	r3, r3, r0
 3176 1674 1B01     		lsls	r3, r3, #4
 3177 1676 1344     		add	r3, r3, r2
 3178 1678 03F29513 		addw	r3, r3, #405
 3179 167c 1B78     		ldrb	r3, [r3]	@ zero_extendqisi2
 3180 167e 41FA03F2 		asr	r2, r1, r3
 3181 1682 07F12803 		add	r3, r7, #40
 3182 1686 103B     		subs	r3, r3, #16
 3183 1688 1A60     		str	r2, [r3]
 549:..\src/command_processing.c ****                         for(j = 0; j < sod; j++) {
 3184              		.loc 1 549 0
 3185 168a 0023     		movs	r3, #0
 3186 168c 07F5AF52 		add	r2, r7, #5600
 3187 1690 02F10602 		add	r2, r2, #6
 3188 1694 1370     		strb	r3, [r2]
 3189 1696 34E0     		b	.L149
 3190              	.L150:
 550:..\src/command_processing.c ****                             packet_data[(4 + PARAM_BYTE_SLOT*idx + sod) + sod - j -1] = ((char*)(&a
 3191              		.loc 1 550 0 discriminator 3
 3192 1698 07F5AF53 		add	r3, r7, #5600
 3193 169c 03F10503 		add	r3, r3, #5
 3194 16a0 1B78     		ldrb	r3, [r3]	@ zero_extendqisi2
 3195 16a2 3222     		movs	r2, #50
 3196 16a4 02FB03F3 		mul	r3, r2, r3
 3197 16a8 1A1D     		adds	r2, r3, #4
 3198 16aa 07F5AF53 		add	r3, r7, #5600
 3199 16ae 03F10303 		add	r3, r3, #3
 3200 16b2 1B78     		ldrb	r3, [r3]	@ zero_extendqisi2
 3201 16b4 1A44     		add	r2, r2, r3
 3202 16b6 07F5AF53 		add	r3, r7, #5600
 3203 16ba 03F10303 		add	r3, r3, #3
 3204 16be 1B78     		ldrb	r3, [r3]	@ zero_extendqisi2
 3205 16c0 1A44     		add	r2, r2, r3
 3206 16c2 07F5AF53 		add	r3, r7, #5600
 3207 16c6 03F10603 		add	r3, r3, #6
 3208 16ca 1B78     		ldrb	r3, [r3]	@ zero_extendqisi2
 3209 16cc D31A     		subs	r3, r2, r3
ARM GAS  C:\Users\Mattia\AppData\Local\Temp\ccPC8dFz.s 			page 84


 3210 16ce 5A1E     		subs	r2, r3, #1
 3211 16d0 07F5AF53 		add	r3, r7, #5600
 3212 16d4 03F10603 		add	r3, r3, #6
 3213 16d8 1978     		ldrb	r1, [r3]	@ zero_extendqisi2
 3214 16da 07F12803 		add	r3, r7, #40
 3215 16de 103B     		subs	r3, r3, #16
 3216 16e0 0B44     		add	r3, r3, r1
 3217 16e2 1978     		ldrb	r1, [r3]	@ zero_extendqisi2
 3218 16e4 07F16803 		add	r3, r7, #104
 3219 16e8 103B     		subs	r3, r3, #16
 3220 16ea 9954     		strb	r1, [r3, r2]
 549:..\src/command_processing.c ****                         for(j = 0; j < sod; j++) {
 3221              		.loc 1 549 0 discriminator 3
 3222 16ec 07F5AF53 		add	r3, r7, #5600
 3223 16f0 03F10603 		add	r3, r3, #6
 3224 16f4 1B78     		ldrb	r3, [r3]	@ zero_extendqisi2
 3225 16f6 0133     		adds	r3, r3, #1
 3226 16f8 07F5AF52 		add	r2, r7, #5600
 3227 16fc 02F10602 		add	r2, r2, #6
 3228 1700 1370     		strb	r3, [r2]
 3229              	.L149:
 549:..\src/command_processing.c ****                         for(j = 0; j < sod; j++) {
 3230              		.loc 1 549 0 is_stmt 0 discriminator 1
 3231 1702 07F5AF53 		add	r3, r7, #5600
 3232 1706 03F10603 		add	r3, r3, #6
 3233 170a 1A78     		ldrb	r2, [r3]	@ zero_extendqisi2
 3234 170c 07F5AF53 		add	r3, r7, #5600
 3235 1710 03F10303 		add	r3, r3, #3
 3236 1714 1B78     		ldrb	r3, [r3]	@ zero_extendqisi2
 3237 1716 9A42     		cmp	r2, r3
 3238 1718 BED3     		bcc	.L150
 551:..\src/command_processing.c ****                         }
 552:..\src/command_processing.c ****                         break;            
 3239              		.loc 1 552 0 is_stmt 1
 3240 171a 00F0AEBE 		b	.L105
 3241              	.L112:
 553:..\src/command_processing.c **** 
 554:..\src/command_processing.c ****                     case 23:        //Rest Position
 555:..\src/command_processing.c ****                         aux_int32 = (c_mem.SH.rest_pos >> c_mem.enc[g_mem.motor[MOTOR_IDX].encoder_
 3242              		.loc 1 555 0
 3243 171e 154B     		ldr	r3, .L284+4
 3244 1720 D3F8A012 		ldr	r1, [r3, #672]
 3245 1724 07F5AE53 		add	r3, r7, #5568
 3246 1728 03F11F03 		add	r3, r3, #31
 3247 172c 1A78     		ldrb	r2, [r3]	@ zero_extendqisi2
 3248 172e 1048     		ldr	r0, .L284
 3249 1730 1346     		mov	r3, r2
 3250 1732 DB00     		lsls	r3, r3, #3
 3251 1734 9B1A     		subs	r3, r3, r2
 3252 1736 1B01     		lsls	r3, r3, #4
 3253 1738 0344     		add	r3, r3, r0
 3254 173a 03F58873 		add	r3, r3, #272
 3255 173e 1B78     		ldrb	r3, [r3]	@ zero_extendqisi2
 3256 1740 1846     		mov	r0, r3
 3257 1742 0C4A     		ldr	r2, .L284+4
 3258 1744 0346     		mov	r3, r0
 3259 1746 5B00     		lsls	r3, r3, #1
ARM GAS  C:\Users\Mattia\AppData\Local\Temp\ccPC8dFz.s 			page 85


 3260 1748 0344     		add	r3, r3, r0
 3261 174a 1B01     		lsls	r3, r3, #4
 3262 174c 1344     		add	r3, r3, r2
 3263 174e 03F29513 		addw	r3, r3, #405
 3264 1752 1B78     		ldrb	r3, [r3]	@ zero_extendqisi2
 3265 1754 41FA03F2 		asr	r2, r1, r3
 3266 1758 07F12803 		add	r3, r7, #40
 3267 175c 103B     		subs	r3, r3, #16
 3268 175e 1A60     		str	r2, [r3]
 556:..\src/command_processing.c ****                         for(j = 0; j < sod; j++) {
 3269              		.loc 1 556 0
 3270 1760 0023     		movs	r3, #0
 3271 1762 07F5AF52 		add	r2, r7, #5600
 3272 1766 02F10602 		add	r2, r2, #6
 3273 176a 1370     		strb	r3, [r2]
 3274 176c 33E0     		b	.L151
 3275              	.L285:
 3276 176e 00BF     		.align	2
 3277              	.L284:
 3278 1770 00000000 		.word	g_mem
 3279 1774 00000000 		.word	c_mem
 3280              	.L152:
 557:..\src/command_processing.c ****                             packet_data[(4 + PARAM_BYTE_SLOT*idx) + sod - j -1] = ((char*)(&aux_int
 3281              		.loc 1 557 0 discriminator 3
 3282 1778 07F5AF53 		add	r3, r7, #5600
 3283 177c 03F10503 		add	r3, r3, #5
 3284 1780 1B78     		ldrb	r3, [r3]	@ zero_extendqisi2
 3285 1782 3222     		movs	r2, #50
 3286 1784 02FB03F3 		mul	r3, r2, r3
 3287 1788 1A1D     		adds	r2, r3, #4
 3288 178a 07F5AF53 		add	r3, r7, #5600
 3289 178e 03F10303 		add	r3, r3, #3
 3290 1792 1B78     		ldrb	r3, [r3]	@ zero_extendqisi2
 3291 1794 1A44     		add	r2, r2, r3
 3292 1796 07F5AF53 		add	r3, r7, #5600
 3293 179a 03F10603 		add	r3, r3, #6
 3294 179e 1B78     		ldrb	r3, [r3]	@ zero_extendqisi2
 3295 17a0 D31A     		subs	r3, r2, r3
 3296 17a2 5A1E     		subs	r2, r3, #1
 3297 17a4 07F5AF53 		add	r3, r7, #5600
 3298 17a8 03F10603 		add	r3, r3, #6
 3299 17ac 1978     		ldrb	r1, [r3]	@ zero_extendqisi2
 3300 17ae 07F12803 		add	r3, r7, #40
 3301 17b2 103B     		subs	r3, r3, #16
 3302 17b4 0B44     		add	r3, r3, r1
 3303 17b6 1978     		ldrb	r1, [r3]	@ zero_extendqisi2
 3304 17b8 07F16803 		add	r3, r7, #104
 3305 17bc 103B     		subs	r3, r3, #16
 3306 17be 9954     		strb	r1, [r3, r2]
 556:..\src/command_processing.c ****                         for(j = 0; j < sod; j++) {
 3307              		.loc 1 556 0 discriminator 3
 3308 17c0 07F5AF53 		add	r3, r7, #5600
 3309 17c4 03F10603 		add	r3, r3, #6
 3310 17c8 1B78     		ldrb	r3, [r3]	@ zero_extendqisi2
 3311 17ca 0133     		adds	r3, r3, #1
 3312 17cc 07F5AF52 		add	r2, r7, #5600
 3313 17d0 02F10602 		add	r2, r2, #6
ARM GAS  C:\Users\Mattia\AppData\Local\Temp\ccPC8dFz.s 			page 86


 3314 17d4 1370     		strb	r3, [r2]
 3315              	.L151:
 556:..\src/command_processing.c ****                         for(j = 0; j < sod; j++) {
 3316              		.loc 1 556 0 is_stmt 0 discriminator 1
 3317 17d6 07F5AF53 		add	r3, r7, #5600
 3318 17da 03F10603 		add	r3, r3, #6
 3319 17de 1A78     		ldrb	r2, [r3]	@ zero_extendqisi2
 3320 17e0 07F5AF53 		add	r3, r7, #5600
 3321 17e4 03F10303 		add	r3, r3, #3
 3322 17e8 1B78     		ldrb	r3, [r3]	@ zero_extendqisi2
 3323 17ea 9A42     		cmp	r2, r3
 3324 17ec C4D3     		bcc	.L152
 558:..\src/command_processing.c ****                         }
 559:..\src/command_processing.c ****                         break; 
 3325              		.loc 1 559 0 is_stmt 1
 3326 17ee 00F044BE 		b	.L105
 3327              	.L113:
 560:..\src/command_processing.c ****                         
 561:..\src/command_processing.c ****                     case 44:         // Second Motor Position PID
 562:..\src/command_processing.c ****                         if(c_mem.motor[SECOND_MOTOR_IDX].control_mode != CURR_AND_POS_CONTROL) {
 3328              		.loc 1 562 0
 3329 17f2 07F5AE53 		add	r3, r7, #5568
 3330 17f6 03F11E03 		add	r3, r3, #30
 3331 17fa 1A78     		ldrb	r2, [r3]	@ zero_extendqisi2
 3332 17fc AB49     		ldr	r1, .L286
 3333 17fe 1346     		mov	r3, r2
 3334 1800 DB00     		lsls	r3, r3, #3
 3335 1802 9B1A     		subs	r3, r3, r2
 3336 1804 1B01     		lsls	r3, r3, #4
 3337 1806 0B44     		add	r3, r3, r1
 3338 1808 03F20F13 		addw	r3, r3, #271
 3339 180c 1B78     		ldrb	r3, [r3]	@ zero_extendqisi2
 3340 180e 032B     		cmp	r3, #3
 3341 1810 00F02981 		beq	.L153
 563:..\src/command_processing.c ****                             aux_float = (float) c_mem.motor[SECOND_MOTOR_IDX].k_p / 65536;
 3342              		.loc 1 563 0
 3343 1814 07F5AE53 		add	r3, r7, #5568
 3344 1818 03F11E03 		add	r3, r3, #30
 3345 181c 1A78     		ldrb	r2, [r3]	@ zero_extendqisi2
 3346 181e A349     		ldr	r1, .L286
 3347 1820 1346     		mov	r3, r2
 3348 1822 DB00     		lsls	r3, r3, #3
 3349 1824 9B1A     		subs	r3, r3, r2
 3350 1826 1B01     		lsls	r3, r3, #4
 3351 1828 0B44     		add	r3, r3, r1
 3352 182a B033     		adds	r3, r3, #176
 3353 182c 1B68     		ldr	r3, [r3]
 3354 182e 1846     		mov	r0, r3
 3355 1830 FFF7FEFF 		bl	__aeabi_i2f
 3356 1834 0346     		mov	r3, r0
 3357 1836 4FF08F41 		mov	r1, #1199570944
 3358 183a 1846     		mov	r0, r3
 3359 183c FFF7FEFF 		bl	__aeabi_fdiv
 3360 1840 0346     		mov	r3, r0
 3361 1842 1A46     		mov	r2, r3
 3362 1844 07F12803 		add	r3, r7, #40
 3363 1848 083B     		subs	r3, r3, #8
ARM GAS  C:\Users\Mattia\AppData\Local\Temp\ccPC8dFz.s 			page 87


 3364 184a 1A60     		str	r2, [r3]	@ float
 564:..\src/command_processing.c ****                             for(i = 0; i < sod; i++) {
 3365              		.loc 1 564 0
 3366 184c 0023     		movs	r3, #0
 3367 184e 07F5AF52 		add	r2, r7, #5600
 3368 1852 02F10702 		add	r2, r2, #7
 3369 1856 1370     		strb	r3, [r2]
 3370 1858 2EE0     		b	.L154
 3371              	.L155:
 565:..\src/command_processing.c ****                                 packet_data[(4 + PARAM_BYTE_SLOT*idx) + sod - i -1] = ((char*)(&aux
 3372              		.loc 1 565 0 discriminator 3
 3373 185a 07F5AF53 		add	r3, r7, #5600
 3374 185e 03F10503 		add	r3, r3, #5
 3375 1862 1B78     		ldrb	r3, [r3]	@ zero_extendqisi2
 3376 1864 3222     		movs	r2, #50
 3377 1866 02FB03F3 		mul	r3, r2, r3
 3378 186a 1A1D     		adds	r2, r3, #4
 3379 186c 07F5AF53 		add	r3, r7, #5600
 3380 1870 03F10303 		add	r3, r3, #3
 3381 1874 1B78     		ldrb	r3, [r3]	@ zero_extendqisi2
 3382 1876 1A44     		add	r2, r2, r3
 3383 1878 07F5AF53 		add	r3, r7, #5600
 3384 187c 03F10703 		add	r3, r3, #7
 3385 1880 1B78     		ldrb	r3, [r3]	@ zero_extendqisi2
 3386 1882 D31A     		subs	r3, r2, r3
 3387 1884 5A1E     		subs	r2, r3, #1
 3388 1886 07F5AF53 		add	r3, r7, #5600
 3389 188a 03F10703 		add	r3, r3, #7
 3390 188e 1978     		ldrb	r1, [r3]	@ zero_extendqisi2
 3391 1890 07F12803 		add	r3, r7, #40
 3392 1894 083B     		subs	r3, r3, #8
 3393 1896 0B44     		add	r3, r3, r1
 3394 1898 1978     		ldrb	r1, [r3]	@ zero_extendqisi2
 3395 189a 07F16803 		add	r3, r7, #104
 3396 189e 103B     		subs	r3, r3, #16
 3397 18a0 9954     		strb	r1, [r3, r2]
 564:..\src/command_processing.c ****                             for(i = 0; i < sod; i++) {
 3398              		.loc 1 564 0 discriminator 3
 3399 18a2 07F5AF53 		add	r3, r7, #5600
 3400 18a6 03F10703 		add	r3, r3, #7
 3401 18aa 1B78     		ldrb	r3, [r3]	@ zero_extendqisi2
 3402 18ac 0133     		adds	r3, r3, #1
 3403 18ae 07F5AF52 		add	r2, r7, #5600
 3404 18b2 02F10702 		add	r2, r2, #7
 3405 18b6 1370     		strb	r3, [r2]
 3406              	.L154:
 564:..\src/command_processing.c ****                             for(i = 0; i < sod; i++) {
 3407              		.loc 1 564 0 is_stmt 0 discriminator 1
 3408 18b8 07F5AF53 		add	r3, r7, #5600
 3409 18bc 03F10703 		add	r3, r3, #7
 3410 18c0 1A78     		ldrb	r2, [r3]	@ zero_extendqisi2
 3411 18c2 07F5AF53 		add	r3, r7, #5600
 3412 18c6 03F10303 		add	r3, r3, #3
 3413 18ca 1B78     		ldrb	r3, [r3]	@ zero_extendqisi2
 3414 18cc 9A42     		cmp	r2, r3
 3415 18ce C4D3     		bcc	.L155
