ARM GAS  C:\Users\Mattia\AppData\Local\Temp\cc59Yqin.s 			page 1


   1              		.syntax unified
   2              		.cpu cortex-m3
   3              		.fpu softvfp
   4              		.eabi_attribute 20, 1
   5              		.eabi_attribute 21, 1
   6              		.eabi_attribute 23, 3
   7              		.eabi_attribute 24, 1
   8              		.eabi_attribute 25, 1
   9              		.eabi_attribute 26, 1
  10              		.eabi_attribute 30, 6
  11              		.eabi_attribute 34, 1
  12              		.eabi_attribute 18, 4
  13              		.thumb
  14              		.syntax unified
  15              		.file	"interruptions.c"
  16              		.text
  17              	.Ltext0:
  18              		.cfi_sections	.debug_frame
  19              		.section	.rodata
  20              		.align	2
  21              		.type	pwm_preload_values, %object
  22              		.size	pwm_preload_values, 29
  23              	pwm_preload_values:
  24 0000 64       		.byte	100
  25 0001 53       		.byte	83
  26 0002 4E       		.byte	78
  27 0003 4C       		.byte	76
  28 0004 4A       		.byte	74
  29 0005 48       		.byte	72
  30 0006 46       		.byte	70
  31 0007 44       		.byte	68
  32 0008 43       		.byte	67
  33 0009 41       		.byte	65
  34 000a 40       		.byte	64
  35 000b 3F       		.byte	63
  36 000c 3E       		.byte	62
  37 000d 3D       		.byte	61
  38 000e 3C       		.byte	60
  39 000f 3B       		.byte	59
  40 0010 3A       		.byte	58
  41 0011 39       		.byte	57
  42 0012 38       		.byte	56
  43 0013 38       		.byte	56
  44 0014 37       		.byte	55
  45 0015 36       		.byte	54
  46 0016 36       		.byte	54
  47 0017 35       		.byte	53
  48 0018 34       		.byte	52
  49 0019 34       		.byte	52
  50 001a 34       		.byte	52
  51 001b 33       		.byte	51
  52 001c 33       		.byte	51
  53              		.section	.text.ISR_RS485_RX_ExInterrupt,"ax",%progbits
  54              		.align	2
  55              		.global	ISR_RS485_RX_ExInterrupt
  56              		.thumb
  57              		.thumb_func
ARM GAS  C:\Users\Mattia\AppData\Local\Temp\cc59Yqin.s 			page 2


  58              		.type	ISR_RS485_RX_ExInterrupt, %function
  59              	ISR_RS485_RX_ExInterrupt:
  60              	.LFB64:
  61              		.file 1 "..\\src\\interruptions.c"
   1:..\src/interruptions.c **** // ----------------------------------------------------------------------------
   2:..\src/interruptions.c **** // BSD 3-Clause License
   3:..\src/interruptions.c **** 
   4:..\src/interruptions.c **** // Copyright (c) 2016, qbrobotics
   5:..\src/interruptions.c **** // Copyright (c) 2017-2020, Centro "E.Piaggio"
   6:..\src/interruptions.c **** // All rights reserved.
   7:..\src/interruptions.c **** 
   8:..\src/interruptions.c **** // Redistribution and use in source and binary forms, with or without
   9:..\src/interruptions.c **** // modification, are permitted provided that the following conditions are met:
  10:..\src/interruptions.c **** 
  11:..\src/interruptions.c **** // * Redistributions of source code must retain the above copyright notice, this
  12:..\src/interruptions.c **** //   list of conditions and the following disclaimer.
  13:..\src/interruptions.c **** 
  14:..\src/interruptions.c **** // * Redistributions in binary form must reproduce the above copyright notice,
  15:..\src/interruptions.c **** //   this list of conditions and the following disclaimer in the documentation
  16:..\src/interruptions.c **** //   and/or other materials provided with the distribution.
  17:..\src/interruptions.c **** 
  18:..\src/interruptions.c **** // * Neither the name of the copyright holder nor the names of its
  19:..\src/interruptions.c **** //   contributors may be used to endorse or promote products derived from
  20:..\src/interruptions.c **** //   this software without specific prior written permission.
  21:..\src/interruptions.c **** 
  22:..\src/interruptions.c **** // THIS SOFTWARE IS PROVIDED BY THE COPYRIGHT HOLDERS AND CONTRIBUTORS "AS IS"
  23:..\src/interruptions.c **** // AND ANY EXPRESS OR IMPLIED WARRANTIES, INCLUDING, BUT NOT LIMITED TO, THE
  24:..\src/interruptions.c **** // IMPLIED WARRANTIES OF MERCHANTABILITY AND FITNESS FOR A PARTICULAR PURPOSE ARE
  25:..\src/interruptions.c **** // DISCLAIMED. IN NO EVENT SHALL THE COPYRIGHT HOLDER OR CONTRIBUTORS BE LIABLE
  26:..\src/interruptions.c **** // FOR ANY DIRECT, INDIRECT, INCIDENTAL, SPECIAL, EXEMPLARY, OR CONSEQUENTIAL
  27:..\src/interruptions.c **** // DAMAGES (INCLUDING, BUT NOT LIMITED TO, PROCUREMENT OF SUBSTITUTE GOODS OR
  28:..\src/interruptions.c **** // SERVICES; LOSS OF USE, DATA, OR PROFITS; OR BUSINESS INTERRUPTION) HOWEVER
  29:..\src/interruptions.c **** // CAUSED AND ON ANY THEORY OF LIABILITY, WHETHER IN CONTRACT, STRICT LIABILITY,
  30:..\src/interruptions.c **** // OR TORT (INCLUDING NEGLIGENCE OR OTHERWISE) ARISING IN ANY WAY OUT OF THE USE
  31:..\src/interruptions.c **** // OF THIS SOFTWARE, EVEN IF ADVISED OF THE POSSIBILITY OF SUCH DAMAGE.
  32:..\src/interruptions.c **** // POSSIBILITY OF SUCH DAMAGE.
  33:..\src/interruptions.c **** // ----------------------------------------------------------------------------
  34:..\src/interruptions.c **** 
  35:..\src/interruptions.c **** /**
  36:..\src/interruptions.c **** * \file         interruptions.c
  37:..\src/interruptions.c **** *
  38:..\src/interruptions.c **** * \brief        Interruption handling and firmware core functions
  39:..\src/interruptions.c **** * \date         March 20th, 2020
  40:..\src/interruptions.c **** * \author       _Centro "E.Piaggio"_
  41:..\src/interruptions.c **** * \copyright    (C) 2012-2016 qbrobotics. All rights reserved.
  42:..\src/interruptions.c **** * \copyright    (C) 2017-2020 Centro "E.Piaggio". All rights reserved.
  43:..\src/interruptions.c **** */
  44:..\src/interruptions.c **** 
  45:..\src/interruptions.c **** 
  46:..\src/interruptions.c **** //=================================================================     includes
  47:..\src/interruptions.c **** #include "interruptions.h"
  48:..\src/interruptions.c **** 
  49:..\src/interruptions.c **** //==============================================================================
  50:..\src/interruptions.c **** //                                                            RS485 RX INTERRUPT
  51:..\src/interruptions.c **** //==============================================================================
  52:..\src/interruptions.c **** // Processing RS-485 data frame:
  53:..\src/interruptions.c **** //
ARM GAS  C:\Users\Mattia\AppData\Local\Temp\cc59Yqin.s 			page 3


  54:..\src/interruptions.c **** // - 0:     Waits for beginning characters
  55:..\src/interruptions.c **** // - 1:     Waits for ID;
  56:..\src/interruptions.c **** // - 2:     Data length;
  57:..\src/interruptions.c **** // - 3:     Receive all bytes;
  58:..\src/interruptions.c **** // - 4:     Wait for another device end of transmission;
  59:..\src/interruptions.c **** //
  60:..\src/interruptions.c **** //==============================================================================
  61:..\src/interruptions.c **** 
  62:..\src/interruptions.c **** // PWM values needed to obtain 11.5 V given a certain input tension
  63:..\src/interruptions.c **** // Numbers are sperimentally calculated //[index] (millivolts)
  64:..\src/interruptions.c **** static const uint8 pwm_preload_values[29] = {100,    //0 (11500)
  65:..\src/interruptions.c ****                                               83,
  66:..\src/interruptions.c ****                                               78,
  67:..\src/interruptions.c ****                                               76,
  68:..\src/interruptions.c ****                                               74,
  69:..\src/interruptions.c ****                                               72,    //5 (14000)
  70:..\src/interruptions.c ****                                               70,
  71:..\src/interruptions.c ****                                               68,
  72:..\src/interruptions.c ****                                               67,
  73:..\src/interruptions.c ****                                               65,
  74:..\src/interruptions.c ****                                               64,    //10 (16500)
  75:..\src/interruptions.c ****                                               63,
  76:..\src/interruptions.c ****                                               62,
  77:..\src/interruptions.c ****                                               61,
  78:..\src/interruptions.c ****                                               60,
  79:..\src/interruptions.c ****                                               59,    //15 (19000)
  80:..\src/interruptions.c ****                                               58,
  81:..\src/interruptions.c ****                                               57,
  82:..\src/interruptions.c ****                                               56,
  83:..\src/interruptions.c ****                                               56,
  84:..\src/interruptions.c ****                                               55,    //20 (21500)
  85:..\src/interruptions.c ****                                               54,
  86:..\src/interruptions.c ****                                               54,
  87:..\src/interruptions.c ****                                               53,
  88:..\src/interruptions.c ****                                               52,
  89:..\src/interruptions.c ****                                               52,    //25 (24000)
  90:..\src/interruptions.c ****                                               52,
  91:..\src/interruptions.c ****                                               51,
  92:..\src/interruptions.c ****                                               51};   //28 (25500)
  93:..\src/interruptions.c **** 
  94:..\src/interruptions.c **** //==============================================================================
  95:..\src/interruptions.c **** //                                                            RS485 RX INTERRUPT
  96:..\src/interruptions.c **** //==============================================================================
  97:..\src/interruptions.c **** 
  98:..\src/interruptions.c **** CY_ISR(ISR_RS485_RX_ExInterrupt) {
  62              		.loc 1 98 0
  63              		.cfi_startproc
  64              		@ args = 0, pretend = 0, frame = 0
  65              		@ frame_needed = 1, uses_anonymous_args = 0
  66              		@ link register save eliminated.
  67 0000 80B4     		push	{r7}
  68              		.cfi_def_cfa_offset 4
  69              		.cfi_offset 7, -4
  70 0002 00AF     		add	r7, sp, #0
  71              		.cfi_def_cfa_register 7
  99:..\src/interruptions.c **** 
 100:..\src/interruptions.c ****     // Set RS485 flag
ARM GAS  C:\Users\Mattia\AppData\Local\Temp\cc59Yqin.s 			page 4


 101:..\src/interruptions.c ****     
 102:..\src/interruptions.c ****     interrupt_flag = TRUE;
  72              		.loc 1 102 0
  73 0004 034B     		ldr	r3, .L2
  74 0006 0122     		movs	r2, #1
  75 0008 1A70     		strb	r2, [r3]
 103:..\src/interruptions.c ****      
 104:..\src/interruptions.c **** }
  76              		.loc 1 104 0
  77 000a 00BF     		nop
  78 000c BD46     		mov	sp, r7
  79              		.cfi_def_cfa_register 13
  80              		@ sp needed
  81 000e 80BC     		pop	{r7}
  82              		.cfi_restore 7
  83              		.cfi_def_cfa_offset 0
  84 0010 7047     		bx	lr
  85              	.L3:
  86 0012 00BF     		.align	2
  87              	.L2:
  88 0014 00000000 		.word	interrupt_flag
  89              		.cfi_endproc
  90              	.LFE64:
  91              		.size	ISR_RS485_RX_ExInterrupt, .-ISR_RS485_RX_ExInterrupt
  92              		.section	.text.ISR_CYCLES_Handler,"ax",%progbits
  93              		.align	2
  94              		.global	ISR_CYCLES_Handler
  95              		.thumb
  96              		.thumb_func
  97              		.type	ISR_CYCLES_Handler, %function
  98              	ISR_CYCLES_Handler:
  99              	.LFB65:
 105:..\src/interruptions.c **** 
 106:..\src/interruptions.c **** //==============================================================================
 107:..\src/interruptions.c **** //                                                        CYCLES TIMER INTERRUPT
 108:..\src/interruptions.c **** //==============================================================================
 109:..\src/interruptions.c **** CY_ISR(ISR_CYCLES_Handler){
 100              		.loc 1 109 0
 101              		.cfi_startproc
 102              		@ args = 0, pretend = 0, frame = 0
 103              		@ frame_needed = 1, uses_anonymous_args = 0
 104              		@ link register save eliminated.
 105 0000 80B4     		push	{r7}
 106              		.cfi_def_cfa_offset 4
 107              		.cfi_offset 7, -4
 108 0002 00AF     		add	r7, sp, #0
 109              		.cfi_def_cfa_register 7
 110:..\src/interruptions.c **** 
 111:..\src/interruptions.c ****     // Set cycles interrupt flag
 112:..\src/interruptions.c ****     
 113:..\src/interruptions.c ****     cycles_interrupt_flag = TRUE;
 110              		.loc 1 113 0
 111 0004 044B     		ldr	r3, .L5
 112 0006 0122     		movs	r2, #1
 113 0008 1A70     		strb	r2, [r3]
 114:..\src/interruptions.c ****     
 115:..\src/interruptions.c ****     CYCLES_TIMER_STATUS;
ARM GAS  C:\Users\Mattia\AppData\Local\Temp\cc59Yqin.s 			page 5


 114              		.loc 1 115 0
 115 000a 044B     		ldr	r3, .L5+4
 116 000c 1B78     		ldrb	r3, [r3]
 116:..\src/interruptions.c **** 
 117:..\src/interruptions.c **** }
 117              		.loc 1 117 0
 118 000e 00BF     		nop
 119 0010 BD46     		mov	sp, r7
 120              		.cfi_def_cfa_register 13
 121              		@ sp needed
 122 0012 80BC     		pop	{r7}
 123              		.cfi_restore 7
 124              		.cfi_def_cfa_offset 0
 125 0014 7047     		bx	lr
 126              	.L6:
 127 0016 00BF     		.align	2
 128              	.L5:
 129 0018 00000000 		.word	cycles_interrupt_flag
 130 001c 034F0040 		.word	1073762051
 131              		.cfi_endproc
 132              	.LFE65:
 133              		.size	ISR_CYCLES_Handler, .-ISR_CYCLES_Handler
 134              		.section	.text.interrupt_manager,"ax",%progbits
 135              		.align	2
 136              		.global	interrupt_manager
 137              		.thumb
 138              		.thumb_func
 139              		.type	interrupt_manager, %function
 140              	interrupt_manager:
 141              	.LFB66:
 118:..\src/interruptions.c **** 
 119:..\src/interruptions.c **** //==============================================================================
 120:..\src/interruptions.c **** //                                                             INTERRUPT MANAGER
 121:..\src/interruptions.c **** //==============================================================================
 122:..\src/interruptions.c **** // Manage interrupt from RS485 
 123:..\src/interruptions.c **** //==============================================================================
 124:..\src/interruptions.c **** // Processing RS-485 data frame:
 125:..\src/interruptions.c **** //
 126:..\src/interruptions.c **** // - WAIT_START:    Waits for beginning characters;
 127:..\src/interruptions.c **** // - WAIT_ID:       Waits for ID;
 128:..\src/interruptions.c **** // - WAIT_LENGTH:   Data length;
 129:..\src/interruptions.c **** // - RECEIVE:       Receive all bytes;
 130:..\src/interruptions.c **** // - UNLOAD:        Wait for another device end of transmission;
 131:..\src/interruptions.c **** //
 132:..\src/interruptions.c **** //==============================================================================
 133:..\src/interruptions.c **** 
 134:..\src/interruptions.c **** void interrupt_manager(){
 142              		.loc 1 134 0
 143              		.cfi_startproc
 144              		@ args = 0, pretend = 0, frame = 8
 145              		@ frame_needed = 1, uses_anonymous_args = 0
 146 0000 80B5     		push	{r7, lr}
 147              		.cfi_def_cfa_offset 8
 148              		.cfi_offset 7, -8
 149              		.cfi_offset 14, -4
 150 0002 82B0     		sub	sp, sp, #8
 151              		.cfi_def_cfa_offset 16
ARM GAS  C:\Users\Mattia\AppData\Local\Temp\cc59Yqin.s 			page 6


 152 0004 00AF     		add	r7, sp, #0
 153              		.cfi_def_cfa_register 7
 135:..\src/interruptions.c **** 
 136:..\src/interruptions.c ****     
 137:..\src/interruptions.c ****     //===========================================     local variables definition
 138:..\src/interruptions.c **** 
 139:..\src/interruptions.c ****     static uint8 CYDATA state = WAIT_START;                      // state
 140:..\src/interruptions.c ****     
 141:..\src/interruptions.c ****     //------------------------------------------------- local data packet
 142:..\src/interruptions.c ****     static uint8 CYDATA data_packet_index;
 143:..\src/interruptions.c ****     static uint8 CYDATA data_packet_length;
 144:..\src/interruptions.c ****     static uint8 data_packet_buffer[128];                     
 145:..\src/interruptions.c ****     static uint8 CYDATA rx_queue[3];                    // last 2 bytes received
 146:..\src/interruptions.c ****     //-------------------------------------------------
 147:..\src/interruptions.c **** 
 148:..\src/interruptions.c ****     uint8 CYDATA    rx_data;                            // RS485 UART rx data
 149:..\src/interruptions.c ****     CYBIT           rx_data_type = TRUE;                       // my id?
 154              		.loc 1 149 0
 155 0006 0123     		movs	r3, #1
 156 0008 FB71     		strb	r3, [r7, #7]
 150:..\src/interruptions.c ****     uint8 CYDATA    package_count = 0;                     
 157              		.loc 1 150 0
 158 000a 0023     		movs	r3, #0
 159 000c BB71     		strb	r3, [r7, #6]
 151:..\src/interruptions.c **** 
 152:..\src/interruptions.c ****     //======================================================     receive routine
 153:..\src/interruptions.c ****     
 154:..\src/interruptions.c ****     while(UART_RS485_GetRxBufferSize() && (package_count < 100)){
 160              		.loc 1 154 0
 161 000e D6E0     		b	.L8
 162              	.L28:
 155:..\src/interruptions.c ****         // 100 - estimated maximum number of packets we can read without blocking firmware executio
 156:..\src/interruptions.c **** 
 157:..\src/interruptions.c ****         // Get next char
 158:..\src/interruptions.c ****         rx_data = UART_RS485_GetChar();
 163              		.loc 1 158 0
 164 0010 FFF7FEFF 		bl	UART_RS485_GetChar
 165 0014 0346     		mov	r3, r0
 166 0016 7B71     		strb	r3, [r7, #5]
 159:..\src/interruptions.c ****         
 160:..\src/interruptions.c ****         switch (state) {
 167              		.loc 1 160 0
 168 0018 6F4B     		ldr	r3, .L31
 169 001a 1B78     		ldrb	r3, [r3]	@ zero_extendqisi2
 170 001c 042B     		cmp	r3, #4
 171 001e 00F2CE80 		bhi	.L8
 172 0022 01A2     		adr	r2, .L10
 173 0024 52F823F0 		ldr	pc, [r2, r3, lsl #2]
 174              		.p2align 2
 175              	.L10:
 176 0028 3D000000 		.word	.L9+1
 177 002c A3000000 		.word	.L11+1
 178 0030 CD000000 		.word	.L12+1
 179 0034 1B010000 		.word	.L13+1
 180 0038 85010000 		.word	.L14+1
 181              		.p2align 1
 182              	.L9:
ARM GAS  C:\Users\Mattia\AppData\Local\Temp\cc59Yqin.s 			page 7


 161:..\src/interruptions.c ****             //-----     wait for frame start     -------------------------------
 162:..\src/interruptions.c ****             case WAIT_START:
 163:..\src/interruptions.c ****             
 164:..\src/interruptions.c ****                 rx_queue[0] = rx_queue[1];
 183              		.loc 1 164 0
 184 003c 674B     		ldr	r3, .L31+4
 185 003e 5A78     		ldrb	r2, [r3, #1]	@ zero_extendqisi2
 186 0040 664B     		ldr	r3, .L31+4
 187 0042 1A70     		strb	r2, [r3]
 165:..\src/interruptions.c ****                 rx_queue[1] = rx_queue[2];
 188              		.loc 1 165 0
 189 0044 654B     		ldr	r3, .L31+4
 190 0046 9A78     		ldrb	r2, [r3, #2]	@ zero_extendqisi2
 191 0048 644B     		ldr	r3, .L31+4
 192 004a 5A70     		strb	r2, [r3, #1]
 166:..\src/interruptions.c ****                 rx_queue[2] = rx_data;
 193              		.loc 1 166 0
 194 004c 634A     		ldr	r2, .L31+4
 195 004e 7B79     		ldrb	r3, [r7, #5]
 196 0050 9370     		strb	r3, [r2, #2]
 167:..\src/interruptions.c ****                 
 168:..\src/interruptions.c ****                 // Check for header configuration package
 169:..\src/interruptions.c ****                 if ((rx_queue[1] == 58) && (rx_queue[2] == 58)) {
 197              		.loc 1 169 0
 198 0052 624B     		ldr	r3, .L31+4
 199 0054 5B78     		ldrb	r3, [r3, #1]	@ zero_extendqisi2
 200 0056 3A2B     		cmp	r3, #58
 201 0058 10D1     		bne	.L15
 202              		.loc 1 169 0 is_stmt 0 discriminator 1
 203 005a 604B     		ldr	r3, .L31+4
 204 005c 9B78     		ldrb	r3, [r3, #2]	@ zero_extendqisi2
 205 005e 3A2B     		cmp	r3, #58
 206 0060 0CD1     		bne	.L15
 170:..\src/interruptions.c ****                     rx_queue[0] = 0;
 207              		.loc 1 170 0 is_stmt 1
 208 0062 5E4B     		ldr	r3, .L31+4
 209 0064 0022     		movs	r2, #0
 210 0066 1A70     		strb	r2, [r3]
 171:..\src/interruptions.c ****                     rx_queue[1] = 0;
 211              		.loc 1 171 0
 212 0068 5C4B     		ldr	r3, .L31+4
 213 006a 0022     		movs	r2, #0
 214 006c 5A70     		strb	r2, [r3, #1]
 172:..\src/interruptions.c ****                     rx_queue[2] = 0;
 215              		.loc 1 172 0
 216 006e 5B4B     		ldr	r3, .L31+4
 217 0070 0022     		movs	r2, #0
 218 0072 9A70     		strb	r2, [r3, #2]
 173:..\src/interruptions.c ****                     state       = WAIT_ID;                    
 219              		.loc 1 173 0
 220 0074 584B     		ldr	r3, .L31
 221 0076 0122     		movs	r2, #1
 222 0078 1A70     		strb	r2, [r3]
 223 007a 11E0     		b	.L16
 224              	.L15:
 174:..\src/interruptions.c ****                 }else
 175:..\src/interruptions.c ****                     if ((rx_queue[0] == 63) &&      //ASCII - ?
ARM GAS  C:\Users\Mattia\AppData\Local\Temp\cc59Yqin.s 			page 8


 225              		.loc 1 175 0
 226 007c 574B     		ldr	r3, .L31+4
 227 007e 1B78     		ldrb	r3, [r3]	@ zero_extendqisi2
 228 0080 3F2B     		cmp	r3, #63
 229 0082 40F09C80 		bne	.L8
 176:..\src/interruptions.c ****                         (rx_queue[1] == 13) &&      //ASCII - CR
 230              		.loc 1 176 0 discriminator 1
 231 0086 554B     		ldr	r3, .L31+4
 232 0088 5B78     		ldrb	r3, [r3, #1]	@ zero_extendqisi2
 175:..\src/interruptions.c ****                         (rx_queue[1] == 13) &&      //ASCII - CR
 233              		.loc 1 175 0 discriminator 1
 234 008a 0D2B     		cmp	r3, #13
 235 008c 40F09780 		bne	.L8
 177:..\src/interruptions.c ****                         (rx_queue[2] == 10))        //ASCII - LF)
 236              		.loc 1 177 0
 237 0090 524B     		ldr	r3, .L31+4
 238 0092 9B78     		ldrb	r3, [r3, #2]	@ zero_extendqisi2
 176:..\src/interruptions.c ****                         (rx_queue[1] == 13) &&      //ASCII - CR
 239              		.loc 1 176 0
 240 0094 0A2B     		cmp	r3, #10
 241 0096 40F09280 		bne	.L8
 178:..\src/interruptions.c ****                         infoGet(INFO_ALL);
 242              		.loc 1 178 0
 243 009a 0020     		movs	r0, #0
 244 009c FFF7FEFF 		bl	infoGet
 245              	.L16:
 179:..\src/interruptions.c ****                 break;
 246              		.loc 1 179 0
 247 00a0 8DE0     		b	.L8
 248              	.L11:
 180:..\src/interruptions.c **** 
 181:..\src/interruptions.c ****             //-----     wait for id     ----------------------------------------
 182:..\src/interruptions.c ****             case  WAIT_ID:
 183:..\src/interruptions.c **** 
 184:..\src/interruptions.c ****                 // packet is for my ID or is broadcast
 185:..\src/interruptions.c **** #ifdef MASTER_FW
 186:..\src/interruptions.c ****                 if (rx_data == c_mem.dev.id || rx_data == 0 || (c_mem.MS.slave_comm_active && rx_da
 187:..\src/interruptions.c ****                    rx_data_type = FALSE;
 188:..\src/interruptions.c ****                 else                //packet is for others
 189:..\src/interruptions.c ****                     rx_data_type = TRUE;
 190:..\src/interruptions.c **** #else
 191:..\src/interruptions.c ****                 if (rx_data == c_mem.dev.id || rx_data == 0)
 249              		.loc 1 191 0
 250 00a2 4F4B     		ldr	r3, .L31+8
 251 00a4 93F8A030 		ldrb	r3, [r3, #160]	@ zero_extendqisi2
 252 00a8 7A79     		ldrb	r2, [r7, #5]	@ zero_extendqisi2
 253 00aa 9A42     		cmp	r2, r3
 254 00ac 02D0     		beq	.L17
 255              		.loc 1 191 0 is_stmt 0 discriminator 1
 256 00ae 7B79     		ldrb	r3, [r7, #5]	@ zero_extendqisi2
 257 00b0 002B     		cmp	r3, #0
 258 00b2 02D1     		bne	.L18
 259              	.L17:
 192:..\src/interruptions.c ****                     rx_data_type = FALSE;
 260              		.loc 1 192 0 is_stmt 1
 261 00b4 0023     		movs	r3, #0
 262 00b6 FB71     		strb	r3, [r7, #7]
ARM GAS  C:\Users\Mattia\AppData\Local\Temp\cc59Yqin.s 			page 9


 263 00b8 01E0     		b	.L19
 264              	.L18:
 193:..\src/interruptions.c ****                 else                //packet is for others
 194:..\src/interruptions.c ****                     rx_data_type = TRUE;
 265              		.loc 1 194 0
 266 00ba 0123     		movs	r3, #1
 267 00bc FB71     		strb	r3, [r7, #7]
 268              	.L19:
 195:..\src/interruptions.c **** #endif                
 196:..\src/interruptions.c ****                 data_packet_length = 0;
 269              		.loc 1 196 0
 270 00be 494B     		ldr	r3, .L31+12
 271 00c0 0022     		movs	r2, #0
 272 00c2 1A70     		strb	r2, [r3]
 197:..\src/interruptions.c ****                 state = WAIT_LENGTH;
 273              		.loc 1 197 0
 274 00c4 444B     		ldr	r3, .L31
 275 00c6 0222     		movs	r2, #2
 276 00c8 1A70     		strb	r2, [r3]
 198:..\src/interruptions.c ****                 break;
 277              		.loc 1 198 0
 278 00ca 78E0     		b	.L8
 279              	.L12:
 199:..\src/interruptions.c **** 
 200:..\src/interruptions.c ****             //-----     wait for length     ------------------------------------
 201:..\src/interruptions.c ****             case  WAIT_LENGTH:
 202:..\src/interruptions.c **** 
 203:..\src/interruptions.c ****                 data_packet_length = rx_data;
 280              		.loc 1 203 0
 281 00cc 454A     		ldr	r2, .L31+12
 282 00ce 7B79     		ldrb	r3, [r7, #5]
 283 00d0 1370     		strb	r3, [r2]
 204:..\src/interruptions.c ****                 // check validity of pack length
 205:..\src/interruptions.c ****                 if (data_packet_length <= 1) {
 284              		.loc 1 205 0
 285 00d2 444B     		ldr	r3, .L31+12
 286 00d4 1B78     		ldrb	r3, [r3]	@ zero_extendqisi2
 287 00d6 012B     		cmp	r3, #1
 288 00d8 06D8     		bhi	.L20
 206:..\src/interruptions.c ****                     data_packet_length = 0;
 289              		.loc 1 206 0
 290 00da 424B     		ldr	r3, .L31+12
 291 00dc 0022     		movs	r2, #0
 292 00de 1A70     		strb	r2, [r3]
 207:..\src/interruptions.c ****                     state = WAIT_START;
 293              		.loc 1 207 0
 294 00e0 3D4B     		ldr	r3, .L31
 295 00e2 0022     		movs	r2, #0
 296 00e4 1A70     		strb	r2, [r3]
 297 00e6 6AE0     		b	.L8
 298              	.L20:
 208:..\src/interruptions.c ****                 } else if (data_packet_length > 128) {
 299              		.loc 1 208 0
 300 00e8 3E4B     		ldr	r3, .L31+12
 301 00ea 1B78     		ldrb	r3, [r3]	@ zero_extendqisi2
 302 00ec 802B     		cmp	r3, #128
 303 00ee 06D9     		bls	.L22
ARM GAS  C:\Users\Mattia\AppData\Local\Temp\cc59Yqin.s 			page 10


 209:..\src/interruptions.c ****                     data_packet_length = 0;
 304              		.loc 1 209 0
 305 00f0 3C4B     		ldr	r3, .L31+12
 306 00f2 0022     		movs	r2, #0
 307 00f4 1A70     		strb	r2, [r3]
 210:..\src/interruptions.c ****                     state = WAIT_START;
 308              		.loc 1 210 0
 309 00f6 384B     		ldr	r3, .L31
 310 00f8 0022     		movs	r2, #0
 311 00fa 1A70     		strb	r2, [r3]
 312 00fc 5FE0     		b	.L8
 313              	.L22:
 211:..\src/interruptions.c ****                 } else {
 212:..\src/interruptions.c ****                     data_packet_index = 0;
 314              		.loc 1 212 0
 315 00fe 3A4B     		ldr	r3, .L31+16
 316 0100 0022     		movs	r2, #0
 317 0102 1A70     		strb	r2, [r3]
 213:..\src/interruptions.c ****                     
 214:..\src/interruptions.c ****                     if(rx_data_type == FALSE)
 318              		.loc 1 214 0
 319 0104 FB79     		ldrb	r3, [r7, #7]	@ zero_extendqisi2
 320 0106 002B     		cmp	r3, #0
 321 0108 03D1     		bne	.L23
 215:..\src/interruptions.c ****                         state = RECEIVE;          // packet for me or broadcast
 322              		.loc 1 215 0
 323 010a 334B     		ldr	r3, .L31
 324 010c 0322     		movs	r2, #3
 325 010e 1A70     		strb	r2, [r3]
 326 0110 55E0     		b	.L8
 327              	.L23:
 216:..\src/interruptions.c ****                     else
 217:..\src/interruptions.c ****                         state = UNLOAD;           // packet for others
 328              		.loc 1 217 0
 329 0112 314B     		ldr	r3, .L31
 330 0114 0422     		movs	r2, #4
 331 0116 1A70     		strb	r2, [r3]
 218:..\src/interruptions.c ****                 }
 219:..\src/interruptions.c ****                 break;
 332              		.loc 1 219 0
 333 0118 51E0     		b	.L8
 334              	.L13:
 220:..\src/interruptions.c **** 
 221:..\src/interruptions.c ****             //-----     receiving     -------------------------------------------
 222:..\src/interruptions.c ****             case RECEIVE:
 223:..\src/interruptions.c **** 
 224:..\src/interruptions.c ****                 data_packet_buffer[data_packet_index] = rx_data;
 335              		.loc 1 224 0
 336 011a 334B     		ldr	r3, .L31+16
 337 011c 1B78     		ldrb	r3, [r3]	@ zero_extendqisi2
 338 011e 1946     		mov	r1, r3
 339 0120 324A     		ldr	r2, .L31+20
 340 0122 7B79     		ldrb	r3, [r7, #5]
 341 0124 5354     		strb	r3, [r2, r1]
 225:..\src/interruptions.c ****                 data_packet_index++;
 342              		.loc 1 225 0
 343 0126 304B     		ldr	r3, .L31+16
ARM GAS  C:\Users\Mattia\AppData\Local\Temp\cc59Yqin.s 			page 11


 344 0128 1B78     		ldrb	r3, [r3]	@ zero_extendqisi2
 345 012a 0133     		adds	r3, r3, #1
 346 012c DAB2     		uxtb	r2, r3
 347 012e 2E4B     		ldr	r3, .L31+16
 348 0130 1A70     		strb	r2, [r3]
 226:..\src/interruptions.c ****                 
 227:..\src/interruptions.c ****                 // check end of transmission
 228:..\src/interruptions.c ****                 if (data_packet_index >= data_packet_length) {
 349              		.loc 1 228 0
 350 0132 2D4B     		ldr	r3, .L31+16
 351 0134 1A78     		ldrb	r2, [r3]	@ zero_extendqisi2
 352 0136 2B4B     		ldr	r3, .L31+12
 353 0138 1B78     		ldrb	r3, [r3]	@ zero_extendqisi2
 354 013a 9A42     		cmp	r2, r3
 355 013c 3FD3     		bcc	.L8
 229:..\src/interruptions.c ****                     // verify if frame ID corresponded to the device ID
 230:..\src/interruptions.c ****                     if (rx_data_type == FALSE) {
 356              		.loc 1 230 0
 357 013e FB79     		ldrb	r3, [r7, #7]	@ zero_extendqisi2
 358 0140 002B     		cmp	r3, #0
 359 0142 12D1     		bne	.L25
 231:..\src/interruptions.c ****                         // copying data from buffer to global packet
 232:..\src/interruptions.c ****                         memcpy(g_rx.buffer, data_packet_buffer, data_packet_length);
 360              		.loc 1 232 0
 361 0144 274B     		ldr	r3, .L31+12
 362 0146 1B78     		ldrb	r3, [r3]	@ zero_extendqisi2
 363 0148 1A46     		mov	r2, r3
 364 014a 2849     		ldr	r1, .L31+20
 365 014c 2848     		ldr	r0, .L31+24
 366 014e FFF7FEFF 		bl	memcpy
 233:..\src/interruptions.c ****                         g_rx.length = data_packet_length;
 367              		.loc 1 233 0
 368 0152 244B     		ldr	r3, .L31+12
 369 0154 1B78     		ldrb	r3, [r3]	@ zero_extendqisi2
 370 0156 1AB2     		sxth	r2, r3
 371 0158 254B     		ldr	r3, .L31+24
 372 015a A3F88020 		strh	r2, [r3, #128]	@ movhi
 234:..\src/interruptions.c ****                         g_rx.ready  = 1;
 373              		.loc 1 234 0
 374 015e 244B     		ldr	r3, .L31+24
 375 0160 0122     		movs	r2, #1
 376 0162 83F88420 		strb	r2, [r3, #132]
 235:..\src/interruptions.c ****                         commProcess();
 377              		.loc 1 235 0
 378 0166 FFF7FEFF 		bl	commProcess
 379              	.L25:
 236:..\src/interruptions.c ****                     }
 237:..\src/interruptions.c ****                     
 238:..\src/interruptions.c ****                     data_packet_index  = 0;
 380              		.loc 1 238 0
 381 016a 1F4B     		ldr	r3, .L31+16
 382 016c 0022     		movs	r2, #0
 383 016e 1A70     		strb	r2, [r3]
 239:..\src/interruptions.c ****                     data_packet_length = 0;
 384              		.loc 1 239 0
 385 0170 1C4B     		ldr	r3, .L31+12
 386 0172 0022     		movs	r2, #0
ARM GAS  C:\Users\Mattia\AppData\Local\Temp\cc59Yqin.s 			page 12


 387 0174 1A70     		strb	r2, [r3]
 240:..\src/interruptions.c ****                     state              = WAIT_START;
 388              		.loc 1 240 0
 389 0176 184B     		ldr	r3, .L31
 390 0178 0022     		movs	r2, #0
 391 017a 1A70     		strb	r2, [r3]
 241:..\src/interruptions.c ****                     package_count++;
 392              		.loc 1 241 0
 393 017c BB79     		ldrb	r3, [r7, #6]	@ zero_extendqisi2
 394 017e 0133     		adds	r3, r3, #1
 395 0180 BB71     		strb	r3, [r7, #6]
 242:..\src/interruptions.c ****                 
 243:..\src/interruptions.c ****                 }
 244:..\src/interruptions.c ****                 break;
 396              		.loc 1 244 0
 397 0182 1CE0     		b	.L8
 398              	.L14:
 245:..\src/interruptions.c **** 
 246:..\src/interruptions.c ****             //-----     other device is receving     ---------------------------
 247:..\src/interruptions.c ****             case UNLOAD:
 248:..\src/interruptions.c ****                 if (!(--data_packet_length)) {
 399              		.loc 1 248 0
 400 0184 174B     		ldr	r3, .L31+12
 401 0186 1B78     		ldrb	r3, [r3]	@ zero_extendqisi2
 402 0188 013B     		subs	r3, r3, #1
 403 018a DAB2     		uxtb	r2, r3
 404 018c 154B     		ldr	r3, .L31+12
 405 018e 1A70     		strb	r2, [r3]
 406 0190 144B     		ldr	r3, .L31+12
 407 0192 1B78     		ldrb	r3, [r3]	@ zero_extendqisi2
 408 0194 002B     		cmp	r3, #0
 409 0196 11D1     		bne	.L30
 249:..\src/interruptions.c ****                     data_packet_index  = 0;
 410              		.loc 1 249 0
 411 0198 134B     		ldr	r3, .L31+16
 412 019a 0022     		movs	r2, #0
 413 019c 1A70     		strb	r2, [r3]
 250:..\src/interruptions.c ****                     data_packet_length = 0;
 414              		.loc 1 250 0
 415 019e 114B     		ldr	r3, .L31+12
 416 01a0 0022     		movs	r2, #0
 417 01a2 1A70     		strb	r2, [r3]
 251:..\src/interruptions.c ****                     RS485_CTS_Write(1);
 418              		.loc 1 251 0
 419 01a4 0120     		movs	r0, #1
 420 01a6 FFF7FEFF 		bl	RS485_CTS_Write
 252:..\src/interruptions.c ****                     RS485_CTS_Write(0);
 421              		.loc 1 252 0
 422 01aa 0020     		movs	r0, #0
 423 01ac FFF7FEFF 		bl	RS485_CTS_Write
 253:..\src/interruptions.c ****                     state              = WAIT_START;
 424              		.loc 1 253 0
 425 01b0 094B     		ldr	r3, .L31
 426 01b2 0022     		movs	r2, #0
 427 01b4 1A70     		strb	r2, [r3]
 254:..\src/interruptions.c ****                     package_count++;
 428              		.loc 1 254 0
ARM GAS  C:\Users\Mattia\AppData\Local\Temp\cc59Yqin.s 			page 13


 429 01b6 BB79     		ldrb	r3, [r7, #6]	@ zero_extendqisi2
 430 01b8 0133     		adds	r3, r3, #1
 431 01ba BB71     		strb	r3, [r7, #6]
 432              	.L30:
 255:..\src/interruptions.c ****                 }
 256:..\src/interruptions.c ****                 break;
 433              		.loc 1 256 0
 434 01bc 00BF     		nop
 435              	.L8:
 154:..\src/interruptions.c ****         // 100 - estimated maximum number of packets we can read without blocking firmware executio
 436              		.loc 1 154 0
 437 01be FFF7FEFF 		bl	UART_RS485_GetRxBufferSize
 438 01c2 0346     		mov	r3, r0
 439 01c4 002B     		cmp	r3, #0
 440 01c6 03D0     		beq	.L29
 154:..\src/interruptions.c ****         // 100 - estimated maximum number of packets we can read without blocking firmware executio
 441              		.loc 1 154 0 is_stmt 0 discriminator 1
 442 01c8 BB79     		ldrb	r3, [r7, #6]	@ zero_extendqisi2
 443 01ca 632B     		cmp	r3, #99
 444 01cc 7FF620AF 		bls	.L28
 445              	.L29:
 257:..\src/interruptions.c ****         }
 258:..\src/interruptions.c ****     }
 259:..\src/interruptions.c **** }
 446              		.loc 1 259 0 is_stmt 1
 447 01d0 00BF     		nop
 448 01d2 0837     		adds	r7, r7, #8
 449              		.cfi_def_cfa_offset 8
 450 01d4 BD46     		mov	sp, r7
 451              		.cfi_def_cfa_register 13
 452              		@ sp needed
 453 01d6 80BD     		pop	{r7, pc}
 454              	.L32:
 455              		.align	2
 456              	.L31:
 457 01d8 00000000 		.word	state.10445
 458 01dc 04000000 		.word	rx_queue.10449
 459 01e0 00000000 		.word	c_mem
 460 01e4 07000000 		.word	data_packet_length.10447
 461 01e8 08000000 		.word	data_packet_index.10446
 462 01ec 0C000000 		.word	data_packet_buffer.10448
 463 01f0 00000000 		.word	g_rx
 464              		.cfi_endproc
 465              	.LFE66:
 466              		.size	interrupt_manager, .-interrupt_manager
 467              		.section	.rodata
 468 001d 000000   		.align	2
 469              	.LC0:
 470 0020 00       		.ascii	"\000"
 471              		.global	__aeabi_i2f
 472              		.global	__aeabi_fdiv
 473              		.section	.text.function_scheduler,"ax",%progbits
 474              		.align	2
 475              		.global	function_scheduler
 476              		.thumb
 477              		.thumb_func
 478              		.type	function_scheduler, %function
ARM GAS  C:\Users\Mattia\AppData\Local\Temp\cc59Yqin.s 			page 14


 479              	function_scheduler:
 480              	.LFB67:
 260:..\src/interruptions.c **** //==============================================================================
 261:..\src/interruptions.c **** //                                                            FUNCTION SCHEDULER
 262:..\src/interruptions.c **** //==============================================================================
 263:..\src/interruptions.c **** // Call all the function with the right frequency
 264:..\src/interruptions.c **** //==============================================================================
 265:..\src/interruptions.c **** // Base frequency 5000 Hz (110 us - max. 200 us cycle time)
 266:..\src/interruptions.c **** //==============================================================================
 267:..\src/interruptions.c **** 
 268:..\src/interruptions.c **** void function_scheduler(void) {
 481              		.loc 1 268 0
 482              		.cfi_startproc
 483              		@ args = 0, pretend = 0, frame = 17504
 484              		@ frame_needed = 1, uses_anonymous_args = 0
 485 0000 B0B5     		push	{r4, r5, r7, lr}
 486              		.cfi_def_cfa_offset 16
 487              		.cfi_offset 4, -16
 488              		.cfi_offset 5, -12
 489              		.cfi_offset 7, -8
 490              		.cfi_offset 14, -4
 491 0002 ADF5884D 		sub	sp, sp, #17408
 492              		.cfi_def_cfa_offset 17424
 493 0006 98B0     		sub	sp, sp, #96
 494              		.cfi_def_cfa_offset 17520
 495 0008 00AF     		add	r7, sp, #0
 496              		.cfi_def_cfa_register 7
 269:..\src/interruptions.c ****  
 270:..\src/interruptions.c ****     static uint16 counter_calibration = DIV_INIT_VALUE;
 271:..\src/interruptions.c ****     static uint16 counter_tension_func = DIV_INIT_VALUE;
 272:..\src/interruptions.c ****     char info_[2500] = "";
 497              		.loc 1 272 0
 498 000a 07F56A53 		add	r3, r7, #14976
 499 000e 03F11803 		add	r3, r3, #24
 500 0012 0022     		movs	r2, #0
 501 0014 1A60     		str	r2, [r3]
 502 0016 0433     		adds	r3, r3, #4
 503 0018 4FF41C62 		mov	r2, #2496
 504 001c 0021     		movs	r1, #0
 505 001e 1846     		mov	r0, r3
 506 0020 FFF7FEFF 		bl	memset
 273:..\src/interruptions.c ****     
 274:..\src/interruptions.c ****     uint8 MOTOR_IDX = 0;
 507              		.loc 1 274 0
 508 0024 0023     		movs	r3, #0
 509 0026 07F58842 		add	r2, r7, #17408
 510 002a 02F15E02 		add	r2, r2, #94
 511 002e 1370     		strb	r3, [r2]
 275:..\src/interruptions.c ****     uint8 SECOND_MOTOR_IDX = 1;
 512              		.loc 1 275 0
 513 0030 0123     		movs	r3, #1
 514 0032 07F58842 		add	r2, r7, #17408
 515 0036 02F15D02 		add	r2, r2, #93
 516 003a 1370     		strb	r3, [r2]
 276:..\src/interruptions.c ****     
 277:..\src/interruptions.c ****     MY_TIMER_REG_Write(0x00);
 517              		.loc 1 277 0
ARM GAS  C:\Users\Mattia\AppData\Local\Temp\cc59Yqin.s 			page 15


 518 003c 0020     		movs	r0, #0
 519 003e FFF7FEFF 		bl	MY_TIMER_REG_Write
 278:..\src/interruptions.c ****     timer_value0 = (uint32)MY_TIMER_ReadCounter();
 520              		.loc 1 278 0
 521 0042 FFF7FEFF 		bl	MY_TIMER_ReadCounter
 522 0046 0346     		mov	r3, r0
 523 0048 1A46     		mov	r2, r3
 524 004a C64B     		ldr	r3, .L79
 525 004c 1A80     		strh	r2, [r3]	@ movhi
 279:..\src/interruptions.c **** 
 280:..\src/interruptions.c ****     // Start ADC Conversion, SOC = 1
 281:..\src/interruptions.c **** 
 282:..\src/interruptions.c ****     ADC_SOC_Write(0x01); 
 526              		.loc 1 282 0
 527 004e 0120     		movs	r0, #1
 528 0050 FFF7FEFF 		bl	ADC_SOC_Write
 283:..\src/interruptions.c ****     
 284:..\src/interruptions.c ****     // Check Interrupt 
 285:..\src/interruptions.c **** 
 286:..\src/interruptions.c ****     if (interrupt_flag){
 529              		.loc 1 286 0
 530 0054 C44B     		ldr	r3, .L79+4
 531 0056 1B78     		ldrb	r3, [r3]	@ zero_extendqisi2
 532 0058 002B     		cmp	r3, #0
 533 005a 04D0     		beq	.L34
 287:..\src/interruptions.c ****         interrupt_flag = FALSE;
 534              		.loc 1 287 0
 535 005c C24B     		ldr	r3, .L79+4
 536 005e 0022     		movs	r2, #0
 537 0060 1A70     		strb	r2, [r3]
 288:..\src/interruptions.c ****         interrupt_manager();
 538              		.loc 1 288 0
 539 0062 FFF7FEFF 		bl	interrupt_manager
 540              	.L34:
 289:..\src/interruptions.c ****     }
 290:..\src/interruptions.c ****     
 291:..\src/interruptions.c ****     switch(c_mem.dev.dev_type){
 541              		.loc 1 291 0
 542 0066 C14B     		ldr	r3, .L79+8
 543 0068 93F8AC30 		ldrb	r3, [r3, #172]	@ zero_extendqisi2
 544 006c 042B     		cmp	r3, #4
 545 006e 00F20A82 		bhi	.L35
 546 0072 01A2     		adr	r2, .L37
 547 0074 52F823F0 		ldr	pc, [r2, r3, lsl #2]
 548              		.p2align 2
 549              	.L37:
 550 0078 8D000000 		.word	.L36+1
 551 007c 6B010000 		.word	.L38+1
 552 0080 79030000 		.word	.L39+1
 553 0084 79030000 		.word	.L39+1
 554 0088 6B010000 		.word	.L38+1
 555              		.p2align 1
 556              	.L36:
 292:..\src/interruptions.c ****         case SOFTHAND_PRO:
 293:..\src/interruptions.c ****         
 294:..\src/interruptions.c ****             //---------------------------------- Get Encoders
 295:..\src/interruptions.c ****             
ARM GAS  C:\Users\Mattia\AppData\Local\Temp\cc59Yqin.s 			page 16


 296:..\src/interruptions.c ****             // Get CS0 encoder line for RIGHT HAND and CS1 line for LEFT HAND
 297:..\src/interruptions.c ****             if (N_Encoder_Line_Connected[c_mem.motor[MOTOR_IDX].encoder_line] > 0) {
 557              		.loc 1 297 0
 558 008c 07F58843 		add	r3, r7, #17408
 559 0090 03F15E03 		add	r3, r3, #94
 560 0094 1A78     		ldrb	r2, [r3]	@ zero_extendqisi2
 561 0096 B549     		ldr	r1, .L79+8
 562 0098 1346     		mov	r3, r2
 563 009a DB00     		lsls	r3, r3, #3
 564 009c 9B1A     		subs	r3, r3, r2
 565 009e 1B01     		lsls	r3, r3, #4
 566 00a0 0B44     		add	r3, r3, r1
 567 00a2 03F58873 		add	r3, r3, #272
 568 00a6 1B78     		ldrb	r3, [r3]	@ zero_extendqisi2
 569 00a8 1A46     		mov	r2, r3
 570 00aa B14B     		ldr	r3, .L79+12
 571 00ac 9B5C     		ldrb	r3, [r3, r2]	@ zero_extendqisi2
 572 00ae 002B     		cmp	r3, #0
 573 00b0 2BD0     		beq	.L40
 298:..\src/interruptions.c ****                 // Change CS only if there are attached encoders on the line
 299:..\src/interruptions.c ****                 Change_CS_EncoderLine(c_mem.motor[MOTOR_IDX].encoder_line);
 574              		.loc 1 299 0
 575 00b2 07F58843 		add	r3, r7, #17408
 576 00b6 03F15E03 		add	r3, r3, #94
 577 00ba 1A78     		ldrb	r2, [r3]	@ zero_extendqisi2
 578 00bc AB49     		ldr	r1, .L79+8
 579 00be 1346     		mov	r3, r2
 580 00c0 DB00     		lsls	r3, r3, #3
 581 00c2 9B1A     		subs	r3, r3, r2
 582 00c4 1B01     		lsls	r3, r3, #4
 583 00c6 0B44     		add	r3, r3, r1
 584 00c8 03F58873 		add	r3, r3, #272
 585 00cc 1B78     		ldrb	r3, [r3]	@ zero_extendqisi2
 586 00ce 1846     		mov	r0, r3
 587 00d0 FFF7FEFF 		bl	Change_CS_EncoderLine
 300:..\src/interruptions.c ****                 
 301:..\src/interruptions.c ****                 encoder_reading_SPI(c_mem.motor[MOTOR_IDX].encoder_line, 0);    // assoc_motor = 0 
 588              		.loc 1 301 0
 589 00d4 07F58843 		add	r3, r7, #17408
 590 00d8 03F15E03 		add	r3, r3, #94
 591 00dc 1A78     		ldrb	r2, [r3]	@ zero_extendqisi2
 592 00de A349     		ldr	r1, .L79+8
 593 00e0 1346     		mov	r3, r2
 594 00e2 DB00     		lsls	r3, r3, #3
 595 00e4 9B1A     		subs	r3, r3, r2
 596 00e6 1B01     		lsls	r3, r3, #4
 597 00e8 0B44     		add	r3, r3, r1
 598 00ea 03F58873 		add	r3, r3, #272
 599 00ee 1B78     		ldrb	r3, [r3]	@ zero_extendqisi2
 600 00f0 0021     		movs	r1, #0
 601 00f2 1846     		mov	r0, r3
 602 00f4 FFF7FEFF 		bl	encoder_reading_SPI
 302:..\src/interruptions.c **** 
 303:..\src/interruptions.c ****                 // Check Interrupt     
 304:..\src/interruptions.c ****                 
 305:..\src/interruptions.c ****                 if (interrupt_flag){
 603              		.loc 1 305 0
ARM GAS  C:\Users\Mattia\AppData\Local\Temp\cc59Yqin.s 			page 17


 604 00f8 9B4B     		ldr	r3, .L79+4
 605 00fa 1B78     		ldrb	r3, [r3]	@ zero_extendqisi2
 606 00fc 002B     		cmp	r3, #0
 607 00fe 04D0     		beq	.L40
 306:..\src/interruptions.c ****                     interrupt_flag = FALSE;
 608              		.loc 1 306 0
 609 0100 994B     		ldr	r3, .L79+4
 610 0102 0022     		movs	r2, #0
 611 0104 1A70     		strb	r2, [r3]
 307:..\src/interruptions.c ****                     interrupt_manager();
 612              		.loc 1 307 0
 613 0106 FFF7FEFF 		bl	interrupt_manager
 614              	.L40:
 308:..\src/interruptions.c ****                 }
 309:..\src/interruptions.c ****             }
 310:..\src/interruptions.c ****             
 311:..\src/interruptions.c ****             //---------------------------------- Control SH Motor
 312:..\src/interruptions.c ****             
 313:..\src/interruptions.c ****             motor_control_SH();
 615              		.loc 1 313 0
 616 010a FFF7FEFF 		bl	motor_control_SH
 314:..\src/interruptions.c ****             
 315:..\src/interruptions.c ****             // Check external reference before processing other serial data and right after motor c
 316:..\src/interruptions.c ****             if (c_mem.motor[MOTOR_IDX].not_revers_motor_flag == TRUE) {
 617              		.loc 1 316 0
 618 010e 07F58843 		add	r3, r7, #17408
 619 0112 03F15E03 		add	r3, r3, #94
 620 0116 1A78     		ldrb	r2, [r3]	@ zero_extendqisi2
 621 0118 9449     		ldr	r1, .L79+8
 622 011a 1346     		mov	r3, r2
 623 011c DB00     		lsls	r3, r3, #3
 624 011e 9B1A     		subs	r3, r3, r2
 625 0120 1B01     		lsls	r3, r3, #4
 626 0122 0B44     		add	r3, r3, r1
 627 0124 03F58973 		add	r3, r3, #274
 628 0128 1B78     		ldrb	r3, [r3]	@ zero_extendqisi2
 629 012a 012B     		cmp	r3, #1
 630 012c 12D1     		bne	.L41
 317:..\src/interruptions.c ****                 if (c_mem.motor[MOTOR_IDX].input_mode == INPUT_MODE_EXTERNAL) {
 631              		.loc 1 317 0
 632 012e 07F58843 		add	r3, r7, #17408
 633 0132 03F15E03 		add	r3, r3, #94
 634 0136 1A78     		ldrb	r2, [r3]	@ zero_extendqisi2
 635 0138 8C49     		ldr	r1, .L79+8
 636 013a 1346     		mov	r3, r2
 637 013c DB00     		lsls	r3, r3, #3
 638 013e 9B1A     		subs	r3, r3, r2
 639 0140 1B01     		lsls	r3, r3, #4
 640 0142 0B44     		add	r3, r3, r1
 641 0144 03F58773 		add	r3, r3, #270
 642 0148 1B78     		ldrb	r3, [r3]	@ zero_extendqisi2
 643 014a 002B     		cmp	r3, #0
 644 014c 02D1     		bne	.L41
 318:..\src/interruptions.c ****                     change_ext_ref_flag = FALSE;
 645              		.loc 1 318 0
 646 014e 894B     		ldr	r3, .L79+16
 647 0150 0022     		movs	r2, #0
ARM GAS  C:\Users\Mattia\AppData\Local\Temp\cc59Yqin.s 			page 18


 648 0152 1A70     		strb	r2, [r3]
 649              	.L41:
 319:..\src/interruptions.c ****                 }   
 320:..\src/interruptions.c ****             }
 321:..\src/interruptions.c **** 
 322:..\src/interruptions.c ****             // Check Interrupt 
 323:..\src/interruptions.c **** 
 324:..\src/interruptions.c ****             if (interrupt_flag){
 650              		.loc 1 324 0
 651 0154 844B     		ldr	r3, .L79+4
 652 0156 1B78     		ldrb	r3, [r3]	@ zero_extendqisi2
 653 0158 002B     		cmp	r3, #0
 654 015a 00F08781 		beq	.L76
 325:..\src/interruptions.c ****                 interrupt_flag = FALSE;
 655              		.loc 1 325 0
 656 015e 824B     		ldr	r3, .L79+4
 657 0160 0022     		movs	r2, #0
 658 0162 1A70     		strb	r2, [r3]
 326:..\src/interruptions.c ****                 interrupt_manager();
 659              		.loc 1 326 0
 660 0164 FFF7FEFF 		bl	interrupt_manager
 327:..\src/interruptions.c ****             }
 328:..\src/interruptions.c ****             break;
 661              		.loc 1 328 0
 662 0168 80E1     		b	.L76
 663              	.L38:
 664              	.LBB2:
 329:..\src/interruptions.c ****             
 330:..\src/interruptions.c ****         case GENERIC_2_MOTORS: case SOFTHAND_2_MOTORS:
 331:..\src/interruptions.c ****             
 332:..\src/interruptions.c ****             //---------------------------------- Get Encoders
 333:..\src/interruptions.c ****             for (uint8 i = 0; i < N_ENCODER_LINE_MAX; i++) {
 665              		.loc 1 333 0
 666 016a 0023     		movs	r3, #0
 667 016c 07F58842 		add	r2, r7, #17408
 668 0170 02F15F02 		add	r2, r2, #95
 669 0174 1370     		strb	r3, [r2]
 670 0176 7DE0     		b	.L43
 671              	.L48:
 334:..\src/interruptions.c ****                 if (N_Encoder_Line_Connected[i] > 0) {
 672              		.loc 1 334 0
 673 0178 07F58843 		add	r3, r7, #17408
 674 017c 03F15F03 		add	r3, r3, #95
 675 0180 1B78     		ldrb	r3, [r3]	@ zero_extendqisi2
 676 0182 7B4A     		ldr	r2, .L79+12
 677 0184 D35C     		ldrb	r3, [r2, r3]	@ zero_extendqisi2
 678 0186 002B     		cmp	r3, #0
 679 0188 69D0     		beq	.L44
 335:..\src/interruptions.c ****                     // Change CS only if there are attached encoders on the line
 336:..\src/interruptions.c ****                     Change_CS_EncoderLine(i);
 680              		.loc 1 336 0
 681 018a 07F58843 		add	r3, r7, #17408
 682 018e 03F15F03 		add	r3, r3, #95
 683 0192 1B78     		ldrb	r3, [r3]	@ zero_extendqisi2
 684 0194 1846     		mov	r0, r3
 685 0196 FFF7FEFF 		bl	Change_CS_EncoderLine
 337:..\src/interruptions.c ****                               
ARM GAS  C:\Users\Mattia\AppData\Local\Temp\cc59Yqin.s 			page 19


 338:..\src/interruptions.c ****                     if (c_mem.motor[MOTOR_IDX].encoder_line == i) {
 686              		.loc 1 338 0
 687 019a 07F58843 		add	r3, r7, #17408
 688 019e 03F15E03 		add	r3, r3, #94
 689 01a2 1A78     		ldrb	r2, [r3]	@ zero_extendqisi2
 690 01a4 7149     		ldr	r1, .L79+8
 691 01a6 1346     		mov	r3, r2
 692 01a8 DB00     		lsls	r3, r3, #3
 693 01aa 9B1A     		subs	r3, r3, r2
 694 01ac 1B01     		lsls	r3, r3, #4
 695 01ae 0B44     		add	r3, r3, r1
 696 01b0 03F58873 		add	r3, r3, #272
 697 01b4 1B78     		ldrb	r3, [r3]	@ zero_extendqisi2
 698 01b6 07F58842 		add	r2, r7, #17408
 699 01ba 02F15F02 		add	r2, r2, #95
 700 01be 1278     		ldrb	r2, [r2]	@ zero_extendqisi2
 701 01c0 9A42     		cmp	r2, r3
 702 01c2 0ED1     		bne	.L45
 339:..\src/interruptions.c ****                         // Check if the line is used to control motor or not
 340:..\src/interruptions.c ****                         encoder_reading_SPI(i, MOTOR_IDX); 
 703              		.loc 1 340 0
 704 01c4 07F58843 		add	r3, r7, #17408
 705 01c8 03F15E03 		add	r3, r3, #94
 706 01cc 1A78     		ldrb	r2, [r3]	@ zero_extendqisi2
 707 01ce 07F58843 		add	r3, r7, #17408
 708 01d2 03F15F03 		add	r3, r3, #95
 709 01d6 1B78     		ldrb	r3, [r3]	@ zero_extendqisi2
 710 01d8 1146     		mov	r1, r2
 711 01da 1846     		mov	r0, r3
 712 01dc FFF7FEFF 		bl	encoder_reading_SPI
 713 01e0 34E0     		b	.L46
 714              	.L45:
 341:..\src/interruptions.c ****                     }
 342:..\src/interruptions.c ****                     else {
 343:..\src/interruptions.c ****                         if (c_mem.motor[SECOND_MOTOR_IDX].encoder_line == i) {
 715              		.loc 1 343 0
 716 01e2 07F58843 		add	r3, r7, #17408
 717 01e6 03F15D03 		add	r3, r3, #93
 718 01ea 1A78     		ldrb	r2, [r3]	@ zero_extendqisi2
 719 01ec 5F49     		ldr	r1, .L79+8
 720 01ee 1346     		mov	r3, r2
 721 01f0 DB00     		lsls	r3, r3, #3
 722 01f2 9B1A     		subs	r3, r3, r2
 723 01f4 1B01     		lsls	r3, r3, #4
 724 01f6 0B44     		add	r3, r3, r1
 725 01f8 03F58873 		add	r3, r3, #272
 726 01fc 1B78     		ldrb	r3, [r3]	@ zero_extendqisi2
 727 01fe 07F58842 		add	r2, r7, #17408
 728 0202 02F15F02 		add	r2, r2, #95
 729 0206 1278     		ldrb	r2, [r2]	@ zero_extendqisi2
 730 0208 9A42     		cmp	r2, r3
 731 020a 0ED1     		bne	.L47
 344:..\src/interruptions.c ****                             // Check if the line is used to control motor or not
 345:..\src/interruptions.c ****                             encoder_reading_SPI(i, SECOND_MOTOR_IDX); 
 732              		.loc 1 345 0
 733 020c 07F58843 		add	r3, r7, #17408
 734 0210 03F15D03 		add	r3, r3, #93
ARM GAS  C:\Users\Mattia\AppData\Local\Temp\cc59Yqin.s 			page 20


 735 0214 1A78     		ldrb	r2, [r3]	@ zero_extendqisi2
 736 0216 07F58843 		add	r3, r7, #17408
 737 021a 03F15F03 		add	r3, r3, #95
 738 021e 1B78     		ldrb	r3, [r3]	@ zero_extendqisi2
 739 0220 1146     		mov	r1, r2
 740 0222 1846     		mov	r0, r3
 741 0224 FFF7FEFF 		bl	encoder_reading_SPI
 742 0228 10E0     		b	.L46
 743              	.L47:
 346:..\src/interruptions.c ****                         }
 347:..\src/interruptions.c ****                         else {
 348:..\src/interruptions.c ****                             // Get only raw encoder value
 349:..\src/interruptions.c ****                             ReadEncoderLine(N_Encoder_Line_Connected[i], i);
 744              		.loc 1 349 0
 745 022a 07F58843 		add	r3, r7, #17408
 746 022e 03F15F03 		add	r3, r3, #95
 747 0232 1B78     		ldrb	r3, [r3]	@ zero_extendqisi2
 748 0234 4E4A     		ldr	r2, .L79+12
 749 0236 D35C     		ldrb	r3, [r2, r3]	@ zero_extendqisi2
 750 0238 1A46     		mov	r2, r3
 751 023a 07F58843 		add	r3, r7, #17408
 752 023e 03F15F03 		add	r3, r3, #95
 753 0242 1B78     		ldrb	r3, [r3]	@ zero_extendqisi2
 754 0244 1946     		mov	r1, r3
 755 0246 1046     		mov	r0, r2
 756 0248 FFF7FEFF 		bl	ReadEncoderLine
 757              	.L46:
 350:..\src/interruptions.c ****                             // Values are stored in Encoder_Value[i] vector
 351:..\src/interruptions.c ****                         }
 352:..\src/interruptions.c ****                     }
 353:..\src/interruptions.c **** 
 354:..\src/interruptions.c ****                     // Check Interrupt     
 355:..\src/interruptions.c ****                     
 356:..\src/interruptions.c ****                     if (interrupt_flag){
 758              		.loc 1 356 0
 759 024c 464B     		ldr	r3, .L79+4
 760 024e 1B78     		ldrb	r3, [r3]	@ zero_extendqisi2
 761 0250 002B     		cmp	r3, #0
 762 0252 04D0     		beq	.L44
 357:..\src/interruptions.c ****                         interrupt_flag = FALSE;
 763              		.loc 1 357 0
 764 0254 444B     		ldr	r3, .L79+4
 765 0256 0022     		movs	r2, #0
 766 0258 1A70     		strb	r2, [r3]
 358:..\src/interruptions.c ****                         interrupt_manager();
 767              		.loc 1 358 0
 768 025a FFF7FEFF 		bl	interrupt_manager
 769              	.L44:
 333:..\src/interruptions.c ****                 if (N_Encoder_Line_Connected[i] > 0) {
 770              		.loc 1 333 0 discriminator 2
 771 025e 07F58843 		add	r3, r7, #17408
 772 0262 03F15F03 		add	r3, r3, #95
 773 0266 1B78     		ldrb	r3, [r3]	@ zero_extendqisi2
 774 0268 0133     		adds	r3, r3, #1
 775 026a 07F58842 		add	r2, r7, #17408
 776 026e 02F15F02 		add	r2, r2, #95
 777 0272 1370     		strb	r3, [r2]
ARM GAS  C:\Users\Mattia\AppData\Local\Temp\cc59Yqin.s 			page 21


 778              	.L43:
 333:..\src/interruptions.c ****                 if (N_Encoder_Line_Connected[i] > 0) {
 779              		.loc 1 333 0 is_stmt 0 discriminator 1
 780 0274 07F58843 		add	r3, r7, #17408
 781 0278 03F15F03 		add	r3, r3, #95
 782 027c 1B78     		ldrb	r3, [r3]	@ zero_extendqisi2
 783 027e 012B     		cmp	r3, #1
 784 0280 7FF67AAF 		bls	.L48
 785              	.LBE2:
 359:..\src/interruptions.c ****                     }
 360:..\src/interruptions.c ****                 }
 361:..\src/interruptions.c ****             } 
 362:..\src/interruptions.c ****             
 363:..\src/interruptions.c ****             //---------------------------------- Control Motor
 364:..\src/interruptions.c ****             
 365:..\src/interruptions.c ****             // Control MOTOR_IDX motor (always active) according to motor driver type
 366:..\src/interruptions.c ****             motor_control_generic(MOTOR_IDX);
 786              		.loc 1 366 0 is_stmt 1
 787 0284 07F58843 		add	r3, r7, #17408
 788 0288 03F15E03 		add	r3, r3, #94
 789 028c 1B78     		ldrb	r3, [r3]	@ zero_extendqisi2
 790 028e 1846     		mov	r0, r3
 791 0290 FFF7FEFF 		bl	motor_control_generic
 367:..\src/interruptions.c ****             
 368:..\src/interruptions.c ****             // Check external reference before processing other serial data and right after motor c
 369:..\src/interruptions.c ****             if (c_mem.motor[MOTOR_IDX].not_revers_motor_flag == TRUE) {
 792              		.loc 1 369 0
 793 0294 07F58843 		add	r3, r7, #17408
 794 0298 03F15E03 		add	r3, r3, #94
 795 029c 1A78     		ldrb	r2, [r3]	@ zero_extendqisi2
 796 029e 3349     		ldr	r1, .L79+8
 797 02a0 1346     		mov	r3, r2
 798 02a2 DB00     		lsls	r3, r3, #3
 799 02a4 9B1A     		subs	r3, r3, r2
 800 02a6 1B01     		lsls	r3, r3, #4
 801 02a8 0B44     		add	r3, r3, r1
 802 02aa 03F58973 		add	r3, r3, #274
 803 02ae 1B78     		ldrb	r3, [r3]	@ zero_extendqisi2
 804 02b0 012B     		cmp	r3, #1
 805 02b2 12D1     		bne	.L49
 370:..\src/interruptions.c ****                 if (c_mem.motor[MOTOR_IDX].input_mode == INPUT_MODE_EXTERNAL) {
 806              		.loc 1 370 0
 807 02b4 07F58843 		add	r3, r7, #17408
 808 02b8 03F15E03 		add	r3, r3, #94
 809 02bc 1A78     		ldrb	r2, [r3]	@ zero_extendqisi2
 810 02be 2B49     		ldr	r1, .L79+8
 811 02c0 1346     		mov	r3, r2
 812 02c2 DB00     		lsls	r3, r3, #3
 813 02c4 9B1A     		subs	r3, r3, r2
 814 02c6 1B01     		lsls	r3, r3, #4
 815 02c8 0B44     		add	r3, r3, r1
 816 02ca 03F58773 		add	r3, r3, #270
 817 02ce 1B78     		ldrb	r3, [r3]	@ zero_extendqisi2
 818 02d0 002B     		cmp	r3, #0
 819 02d2 02D1     		bne	.L49
 371:..\src/interruptions.c ****                     change_ext_ref_flag = FALSE;
 820              		.loc 1 371 0
ARM GAS  C:\Users\Mattia\AppData\Local\Temp\cc59Yqin.s 			page 22


 821 02d4 274B     		ldr	r3, .L79+16
 822 02d6 0022     		movs	r2, #0
 823 02d8 1A70     		strb	r2, [r3]
 824              	.L49:
 372:..\src/interruptions.c ****                 }   
 373:..\src/interruptions.c ****             }
 374:..\src/interruptions.c ****             
 375:..\src/interruptions.c ****             // Check Interrupt 
 376:..\src/interruptions.c **** 
 377:..\src/interruptions.c ****             if (interrupt_flag){
 825              		.loc 1 377 0
 826 02da 234B     		ldr	r3, .L79+4
 827 02dc 1B78     		ldrb	r3, [r3]	@ zero_extendqisi2
 828 02de 002B     		cmp	r3, #0
 829 02e0 04D0     		beq	.L50
 378:..\src/interruptions.c ****                 interrupt_flag = FALSE;
 830              		.loc 1 378 0
 831 02e2 214B     		ldr	r3, .L79+4
 832 02e4 0022     		movs	r2, #0
 833 02e6 1A70     		strb	r2, [r3]
 379:..\src/interruptions.c ****                 interrupt_manager();
 834              		.loc 1 379 0
 835 02e8 FFF7FEFF 		bl	interrupt_manager
 836              	.L50:
 380:..\src/interruptions.c ****             }
 381:..\src/interruptions.c ****             
 382:..\src/interruptions.c ****             // Control 2nd motor (if necessary) according to motor driver type
 383:..\src/interruptions.c ****             if (c_mem.dev.use_2nd_motor_flag == TRUE){
 837              		.loc 1 383 0
 838 02ec 1F4B     		ldr	r3, .L79+8
 839 02ee 93F8A930 		ldrb	r3, [r3, #169]	@ zero_extendqisi2
 840 02f2 012B     		cmp	r3, #1
 841 02f4 40F0BC80 		bne	.L77
 384:..\src/interruptions.c ****                 motor_control_generic(SECOND_MOTOR_IDX);
 842              		.loc 1 384 0
 843 02f8 07F58843 		add	r3, r7, #17408
 844 02fc 03F15D03 		add	r3, r3, #93
 845 0300 1B78     		ldrb	r3, [r3]	@ zero_extendqisi2
 846 0302 1846     		mov	r0, r3
 847 0304 FFF7FEFF 		bl	motor_control_generic
 385:..\src/interruptions.c ****                 
 386:..\src/interruptions.c ****                 // Check external reference before processing other serial data and right after mot
 387:..\src/interruptions.c ****                 if (c_mem.motor[SECOND_MOTOR_IDX].not_revers_motor_flag == TRUE) {
 848              		.loc 1 387 0
 849 0308 07F58843 		add	r3, r7, #17408
 850 030c 03F15D03 		add	r3, r3, #93
 851 0310 1A78     		ldrb	r2, [r3]	@ zero_extendqisi2
 852 0312 1649     		ldr	r1, .L79+8
 853 0314 1346     		mov	r3, r2
 854 0316 DB00     		lsls	r3, r3, #3
 855 0318 9B1A     		subs	r3, r3, r2
 856 031a 1B01     		lsls	r3, r3, #4
 857 031c 0B44     		add	r3, r3, r1
 858 031e 03F58973 		add	r3, r3, #274
 859 0322 1B78     		ldrb	r3, [r3]	@ zero_extendqisi2
 860 0324 012B     		cmp	r3, #1
 861 0326 12D1     		bne	.L52
ARM GAS  C:\Users\Mattia\AppData\Local\Temp\cc59Yqin.s 			page 23


 388:..\src/interruptions.c ****                     if (c_mem.motor[SECOND_MOTOR_IDX].input_mode == INPUT_MODE_EXTERNAL) {
 862              		.loc 1 388 0
 863 0328 07F58843 		add	r3, r7, #17408
 864 032c 03F15D03 		add	r3, r3, #93
 865 0330 1A78     		ldrb	r2, [r3]	@ zero_extendqisi2
 866 0332 0E49     		ldr	r1, .L79+8
 867 0334 1346     		mov	r3, r2
 868 0336 DB00     		lsls	r3, r3, #3
 869 0338 9B1A     		subs	r3, r3, r2
 870 033a 1B01     		lsls	r3, r3, #4
 871 033c 0B44     		add	r3, r3, r1
 872 033e 03F58773 		add	r3, r3, #270
 873 0342 1B78     		ldrb	r3, [r3]	@ zero_extendqisi2
 874 0344 002B     		cmp	r3, #0
 875 0346 02D1     		bne	.L52
 389:..\src/interruptions.c ****                         change_ext_ref_flag = FALSE;
 876              		.loc 1 389 0
 877 0348 0A4B     		ldr	r3, .L79+16
 878 034a 0022     		movs	r2, #0
 879 034c 1A70     		strb	r2, [r3]
 880              	.L52:
 390:..\src/interruptions.c ****                     }   
 391:..\src/interruptions.c ****                 }
 392:..\src/interruptions.c ****                 
 393:..\src/interruptions.c ****                 // Check Interrupt 
 394:..\src/interruptions.c **** 
 395:..\src/interruptions.c ****                 if (interrupt_flag){
 881              		.loc 1 395 0
 882 034e 064B     		ldr	r3, .L79+4
 883 0350 1B78     		ldrb	r3, [r3]	@ zero_extendqisi2
 884 0352 002B     		cmp	r3, #0
 885 0354 00F08C80 		beq	.L77
 396:..\src/interruptions.c ****                     interrupt_flag = FALSE;
 886              		.loc 1 396 0
 887 0358 034B     		ldr	r3, .L79+4
 888 035a 0022     		movs	r2, #0
 889 035c 1A70     		strb	r2, [r3]
 397:..\src/interruptions.c ****                     interrupt_manager();
 890              		.loc 1 397 0
 891 035e FFF7FEFF 		bl	interrupt_manager
 398:..\src/interruptions.c ****                 }
 399:..\src/interruptions.c ****             }  
 400:..\src/interruptions.c ****             break;
 892              		.loc 1 400 0
 893 0362 85E0     		b	.L77
 894              	.L80:
 895              		.align	2
 896              	.L79:
 897 0364 00000000 		.word	timer_value0
 898 0368 00000000 		.word	interrupt_flag
 899 036c 00000000 		.word	c_mem
 900 0370 00000000 		.word	N_Encoder_Line_Connected
 901 0374 00000000 		.word	change_ext_ref_flag
 902              	.L39:
 401:..\src/interruptions.c ****             
 402:..\src/interruptions.c ****         case AIR_CHAMBERS_FB: case OTBK_ACT_WRIST_MS:
 403:..\src/interruptions.c ****             
ARM GAS  C:\Users\Mattia\AppData\Local\Temp\cc59Yqin.s 			page 24


 404:..\src/interruptions.c ****             //---------------------------------- Force Feedback control
 405:..\src/interruptions.c ****             if (master_mode && c_mem.MS.slave_comm_active) {
 903              		.loc 1 405 0
 904 0378 3E4B     		ldr	r3, .L81
 905 037a 1B78     		ldrb	r3, [r3]	@ zero_extendqisi2
 906 037c 002B     		cmp	r3, #0
 907 037e 38D0     		beq	.L53
 908              		.loc 1 405 0 is_stmt 0 discriminator 1
 909 0380 3D4B     		ldr	r3, .L81+4
 910 0382 93F8C032 		ldrb	r3, [r3, #704]	@ zero_extendqisi2
 911 0386 002B     		cmp	r3, #0
 912 0388 33D0     		beq	.L53
 406:..\src/interruptions.c ****                 
 407:..\src/interruptions.c ****                 if (c_mem.dev.dev_type == AIR_CHAMBERS_FB){
 913              		.loc 1 407 0 is_stmt 1
 914 038a 3B4B     		ldr	r3, .L81+4
 915 038c 93F8AC30 		ldrb	r3, [r3, #172]	@ zero_extendqisi2
 916 0390 022B     		cmp	r3, #2
 917 0392 08D1     		bne	.L54
 408:..\src/interruptions.c ****                     air_chambers_control(SECOND_MOTOR_IDX);
 918              		.loc 1 408 0
 919 0394 07F58843 		add	r3, r7, #17408
 920 0398 03F15D03 		add	r3, r3, #93
 921 039c 1B78     		ldrb	r3, [r3]	@ zero_extendqisi2
 922 039e 1846     		mov	r0, r3
 923 03a0 FFF7FEFF 		bl	air_chambers_control
 924 03a4 07E0     		b	.L55
 925              	.L54:
 409:..\src/interruptions.c ****                 }
 410:..\src/interruptions.c ****                 else{ //OTBK_ACT_WRIST_MS
 411:..\src/interruptions.c ****                     otbk_act_wrist_control(SECOND_MOTOR_IDX);
 926              		.loc 1 411 0
 927 03a6 07F58843 		add	r3, r7, #17408
 928 03aa 03F15D03 		add	r3, r3, #93
 929 03ae 1B78     		ldrb	r3, [r3]	@ zero_extendqisi2
 930 03b0 1846     		mov	r0, r3
 931 03b2 FFF7FEFF 		bl	otbk_act_wrist_control
 932              	.L55:
 412:..\src/interruptions.c ****                 }
 413:..\src/interruptions.c **** 
 414:..\src/interruptions.c ****                 // Check Interrupt 
 415:..\src/interruptions.c **** 
 416:..\src/interruptions.c ****                 if (interrupt_flag){
 933              		.loc 1 416 0
 934 03b6 314B     		ldr	r3, .L81+8
 935 03b8 1B78     		ldrb	r3, [r3]	@ zero_extendqisi2
 936 03ba 002B     		cmp	r3, #0
 937 03bc 04D0     		beq	.L56
 417:..\src/interruptions.c ****                     interrupt_flag = FALSE;
 938              		.loc 1 417 0
 939 03be 2F4B     		ldr	r3, .L81+8
 940 03c0 0022     		movs	r2, #0
 941 03c2 1A70     		strb	r2, [r3]
 418:..\src/interruptions.c ****                     interrupt_manager();
 942              		.loc 1 418 0
 943 03c4 FFF7FEFF 		bl	interrupt_manager
 944              	.L56:
ARM GAS  C:\Users\Mattia\AppData\Local\Temp\cc59Yqin.s 			page 25


 419:..\src/interruptions.c ****                 }
 420:..\src/interruptions.c ****             
 421:..\src/interruptions.c ****                 drive_slave(SECOND_MOTOR_IDX, c_mem.MS.slave_ID);
 945              		.loc 1 421 0
 946 03c8 2B4B     		ldr	r3, .L81+4
 947 03ca 93F8C122 		ldrb	r2, [r3, #705]	@ zero_extendqisi2
 948 03ce 07F58843 		add	r3, r7, #17408
 949 03d2 03F15D03 		add	r3, r3, #93
 950 03d6 1B78     		ldrb	r3, [r3]	@ zero_extendqisi2
 951 03d8 1146     		mov	r1, r2
 952 03da 1846     		mov	r0, r3
 953 03dc FFF7FEFF 		bl	drive_slave
 422:..\src/interruptions.c ****             
 423:..\src/interruptions.c ****                 // Check Interrupt 
 424:..\src/interruptions.c **** 
 425:..\src/interruptions.c ****                 if (interrupt_flag){
 954              		.loc 1 425 0
 955 03e0 264B     		ldr	r3, .L81+8
 956 03e2 1B78     		ldrb	r3, [r3]	@ zero_extendqisi2
 957 03e4 002B     		cmp	r3, #0
 958 03e6 04D0     		beq	.L53
 426:..\src/interruptions.c ****                     interrupt_flag = FALSE;
 959              		.loc 1 426 0
 960 03e8 244B     		ldr	r3, .L81+8
 961 03ea 0022     		movs	r2, #0
 962 03ec 1A70     		strb	r2, [r3]
 427:..\src/interruptions.c ****                     interrupt_manager();
 963              		.loc 1 427 0
 964 03ee FFF7FEFF 		bl	interrupt_manager
 965              	.L53:
 428:..\src/interruptions.c ****                 }
 429:..\src/interruptions.c ****             }
 430:..\src/interruptions.c ****             if (!master_mode){
 966              		.loc 1 430 0
 967 03f2 204B     		ldr	r3, .L81
 968 03f4 1B78     		ldrb	r3, [r3]	@ zero_extendqisi2
 969 03f6 002B     		cmp	r3, #0
 970 03f8 11D1     		bne	.L57
 431:..\src/interruptions.c ****                 
 432:..\src/interruptions.c ****                 if (c_mem.MS.slave_comm_active) {
 971              		.loc 1 432 0
 972 03fa 1F4B     		ldr	r3, .L81+4
 973 03fc 93F8C032 		ldrb	r3, [r3, #704]	@ zero_extendqisi2
 974 0400 002B     		cmp	r3, #0
 975 0402 01D0     		beq	.L58
 433:..\src/interruptions.c ****                     // Stop feedback motors
 434:..\src/interruptions.c ****                     stop_master_device();
 976              		.loc 1 434 0
 977 0404 FFF7FEFF 		bl	stop_master_device
 978              	.L58:
 435:..\src/interruptions.c ****                 }
 436:..\src/interruptions.c ****                 // Disable slave or motors
 437:..\src/interruptions.c ****                 deactivate_slaves();
 979              		.loc 1 437 0
 980 0408 FFF7FEFF 		bl	deactivate_slaves
 438:..\src/interruptions.c ****                         
 439:..\src/interruptions.c ****                 // Check Interrupt 
ARM GAS  C:\Users\Mattia\AppData\Local\Temp\cc59Yqin.s 			page 26


 440:..\src/interruptions.c ****                 if (interrupt_flag){
 981              		.loc 1 440 0
 982 040c 1B4B     		ldr	r3, .L81+8
 983 040e 1B78     		ldrb	r3, [r3]	@ zero_extendqisi2
 984 0410 002B     		cmp	r3, #0
 985 0412 04D0     		beq	.L57
 441:..\src/interruptions.c ****                     interrupt_flag = FALSE;
 986              		.loc 1 441 0
 987 0414 194B     		ldr	r3, .L81+8
 988 0416 0022     		movs	r2, #0
 989 0418 1A70     		strb	r2, [r3]
 442:..\src/interruptions.c ****                     interrupt_manager();
 990              		.loc 1 442 0
 991 041a FFF7FEFF 		bl	interrupt_manager
 992              	.L57:
 443:..\src/interruptions.c ****                 } 
 444:..\src/interruptions.c ****             }
 445:..\src/interruptions.c ****     
 446:..\src/interruptions.c ****             // Control Master device main motor 
 447:..\src/interruptions.c ****             // (e.g. in AIR_CHAMBERS_FB device controls MOTOR_IDX motor [PUMP] with PWM control)
 448:..\src/interruptions.c ****             motor_control_generic(MOTOR_IDX);
 993              		.loc 1 448 0
 994 041e 07F58843 		add	r3, r7, #17408
 995 0422 03F15E03 		add	r3, r3, #94
 996 0426 1B78     		ldrb	r3, [r3]	@ zero_extendqisi2
 997 0428 1846     		mov	r0, r3
 998 042a FFF7FEFF 		bl	motor_control_generic
 449:..\src/interruptions.c ****                         
 450:..\src/interruptions.c ****             // Always limit output voltage on the wrist
 451:..\src/interruptions.c ****              if (c_mem.dev.dev_type == OTBK_ACT_WRIST_MS){
 999              		.loc 1 451 0
 1000 042e 124B     		ldr	r3, .L81+4
 1001 0430 93F8AC30 		ldrb	r3, [r3, #172]	@ zero_extendqisi2
 1002 0434 032B     		cmp	r3, #3
 1003 0436 0FD1     		bne	.L59
 452:..\src/interruptions.c ****                 if (g_refNew[0].pwm > 67) // 67 (8.4V max of 2S ottobock battery) 66.6% of 12.6V
 1004              		.loc 1 452 0
 1005 0438 114B     		ldr	r3, .L81+12
 1006 043a 9B68     		ldr	r3, [r3, #8]
 1007 043c 432B     		cmp	r3, #67
 1008 043e 02DD     		ble	.L60
 453:..\src/interruptions.c ****                     g_refNew[0].pwm = 67; // 67
 1009              		.loc 1 453 0
 1010 0440 0F4B     		ldr	r3, .L81+12
 1011 0442 4322     		movs	r2, #67
 1012 0444 9A60     		str	r2, [r3, #8]
 1013              	.L60:
 454:..\src/interruptions.c ****                 if (g_refNew[0].pwm < -67)
 1014              		.loc 1 454 0
 1015 0446 0E4B     		ldr	r3, .L81+12
 1016 0448 9B68     		ldr	r3, [r3, #8]
 1017 044a 13F1430F 		cmn	r3, #67
 1018 044e 03DA     		bge	.L59
 455:..\src/interruptions.c ****                     g_refNew[0].pwm = -67;
 1019              		.loc 1 455 0
 1020 0450 0B4B     		ldr	r3, .L81+12
 1021 0452 6FF04202 		mvn	r2, #66
ARM GAS  C:\Users\Mattia\AppData\Local\Temp\cc59Yqin.s 			page 27


 1022 0456 9A60     		str	r2, [r3, #8]
 1023              	.L59:
 456:..\src/interruptions.c ****             }
 457:..\src/interruptions.c ****             
 458:..\src/interruptions.c ****             // Check Interrupt 
 459:..\src/interruptions.c **** 
 460:..\src/interruptions.c ****             if (interrupt_flag){
 1024              		.loc 1 460 0
 1025 0458 084B     		ldr	r3, .L81+8
 1026 045a 1B78     		ldrb	r3, [r3]	@ zero_extendqisi2
 1027 045c 002B     		cmp	r3, #0
 1028 045e 11D0     		beq	.L78
 461:..\src/interruptions.c ****                 interrupt_flag = FALSE;
 1029              		.loc 1 461 0
 1030 0460 064B     		ldr	r3, .L81+8
 1031 0462 0022     		movs	r2, #0
 1032 0464 1A70     		strb	r2, [r3]
 462:..\src/interruptions.c ****                 interrupt_manager();
 1033              		.loc 1 462 0
 1034 0466 FFF7FEFF 		bl	interrupt_manager
 463:..\src/interruptions.c ****             }
 464:..\src/interruptions.c ****             
 465:..\src/interruptions.c ****             break;
 1035              		.loc 1 465 0
 1036 046a 0BE0     		b	.L78
 1037              	.L76:
 328:..\src/interruptions.c ****             
 1038              		.loc 1 328 0
 1039 046c 00BF     		nop
 1040 046e 0AE0     		b	.L35
 1041              	.L77:
 400:..\src/interruptions.c ****             
 1042              		.loc 1 400 0
 1043 0470 00BF     		nop
 1044 0472 08E0     		b	.L35
 1045              	.L82:
 1046              		.align	2
 1047              	.L81:
 1048 0474 00000000 		.word	master_mode
 1049 0478 00000000 		.word	c_mem
 1050 047c 00000000 		.word	interrupt_flag
 1051 0480 00000000 		.word	g_refNew
 1052              	.L78:
 1053              		.loc 1 465 0
 1054 0484 00BF     		nop
 1055              	.L35:
 466:..\src/interruptions.c ****     }
 467:..\src/interruptions.c **** 
 468:..\src/interruptions.c ****     //---------------------------------- Read conversion buffer - LOCK function
 469:..\src/interruptions.c **** 
 470:..\src/interruptions.c ****     analog_read_end();
 1056              		.loc 1 470 0
 1057 0486 FFF7FEFF 		bl	analog_read_end
 471:..\src/interruptions.c **** 
 472:..\src/interruptions.c ****     if (interrupt_flag){
 1058              		.loc 1 472 0
 1059 048a A74B     		ldr	r3, .L83
ARM GAS  C:\Users\Mattia\AppData\Local\Temp\cc59Yqin.s 			page 28


 1060 048c 1B78     		ldrb	r3, [r3]	@ zero_extendqisi2
 1061 048e 002B     		cmp	r3, #0
 1062 0490 04D0     		beq	.L62
 473:..\src/interruptions.c ****         interrupt_flag = FALSE;
 1063              		.loc 1 473 0
 1064 0492 A54B     		ldr	r3, .L83
 1065 0494 0022     		movs	r2, #0
 1066 0496 1A70     		strb	r2, [r3]
 474:..\src/interruptions.c ****         interrupt_manager();
 1067              		.loc 1 474 0
 1068 0498 FFF7FEFF 		bl	interrupt_manager
 1069              	.L62:
 475:..\src/interruptions.c ****     }
 476:..\src/interruptions.c **** 
 477:..\src/interruptions.c ****     //---------------------------------- Control Overcurrent
 478:..\src/interruptions.c **** 
 479:..\src/interruptions.c ****     overcurrent_control();
 1070              		.loc 1 479 0
 1071 049c FFF7FEFF 		bl	overcurrent_control
 480:..\src/interruptions.c ****     
 481:..\src/interruptions.c ****     // Check Interrupt 
 482:..\src/interruptions.c ****     
 483:..\src/interruptions.c ****     if (interrupt_flag){
 1072              		.loc 1 483 0
 1073 04a0 A14B     		ldr	r3, .L83
 1074 04a2 1B78     		ldrb	r3, [r3]	@ zero_extendqisi2
 1075 04a4 002B     		cmp	r3, #0
 1076 04a6 04D0     		beq	.L63
 484:..\src/interruptions.c ****         interrupt_flag = FALSE;
 1077              		.loc 1 484 0
 1078 04a8 9F4B     		ldr	r3, .L83
 1079 04aa 0022     		movs	r2, #0
 1080 04ac 1A70     		strb	r2, [r3]
 485:..\src/interruptions.c ****         interrupt_manager();
 1081              		.loc 1 485 0
 1082 04ae FFF7FEFF 		bl	interrupt_manager
 1083              	.L63:
 486:..\src/interruptions.c ****     }
 487:..\src/interruptions.c **** 
 488:..\src/interruptions.c ****     //---------------------------------- Calibration 
 489:..\src/interruptions.c **** 
 490:..\src/interruptions.c ****     // Divider 10, freq = 500 Hz
 491:..\src/interruptions.c ****     if (calib.enabled == TRUE) {
 1084              		.loc 1 491 0
 1085 04b2 9E4B     		ldr	r3, .L83+4
 1086 04b4 1B78     		ldrb	r3, [r3]	@ zero_extendqisi2
 1087 04b6 012B     		cmp	r3, #1
 1088 04b8 0ED1     		bne	.L64
 492:..\src/interruptions.c ****         if (counter_calibration == CALIBRATION_DIV) {
 1089              		.loc 1 492 0
 1090 04ba 9D4B     		ldr	r3, .L83+8
 1091 04bc 1B88     		ldrh	r3, [r3]
 1092 04be 0A2B     		cmp	r3, #10
 1093 04c0 04D1     		bne	.L65
 493:..\src/interruptions.c ****             calibration();
 1094              		.loc 1 493 0
 1095 04c2 FFF7FEFF 		bl	calibration
ARM GAS  C:\Users\Mattia\AppData\Local\Temp\cc59Yqin.s 			page 29


 494:..\src/interruptions.c ****             counter_calibration = 0;
 1096              		.loc 1 494 0
 1097 04c6 9A4B     		ldr	r3, .L83+8
 1098 04c8 0022     		movs	r2, #0
 1099 04ca 1A80     		strh	r2, [r3]	@ movhi
 1100              	.L65:
 495:..\src/interruptions.c ****         }
 496:..\src/interruptions.c ****         counter_calibration++;
 1101              		.loc 1 496 0
 1102 04cc 984B     		ldr	r3, .L83+8
 1103 04ce 1B88     		ldrh	r3, [r3]
 1104 04d0 0133     		adds	r3, r3, #1
 1105 04d2 9AB2     		uxth	r2, r3
 1106 04d4 964B     		ldr	r3, .L83+8
 1107 04d6 1A80     		strh	r2, [r3]	@ movhi
 1108              	.L64:
 497:..\src/interruptions.c ****     }
 498:..\src/interruptions.c **** 
 499:..\src/interruptions.c ****     // Check Interrupt 
 500:..\src/interruptions.c ****     
 501:..\src/interruptions.c ****     if (interrupt_flag){
 1109              		.loc 1 501 0
 1110 04d8 934B     		ldr	r3, .L83
 1111 04da 1B78     		ldrb	r3, [r3]	@ zero_extendqisi2
 1112 04dc 002B     		cmp	r3, #0
 1113 04de 04D0     		beq	.L66
 502:..\src/interruptions.c ****         interrupt_flag = FALSE;
 1114              		.loc 1 502 0
 1115 04e0 914B     		ldr	r3, .L83
 1116 04e2 0022     		movs	r2, #0
 1117 04e4 1A70     		strb	r2, [r3]
 503:..\src/interruptions.c ****         interrupt_manager();
 1118              		.loc 1 503 0
 1119 04e6 FFF7FEFF 		bl	interrupt_manager
 1120              	.L66:
 504:..\src/interruptions.c ****     }
 505:..\src/interruptions.c ****     
 506:..\src/interruptions.c ****     if (c_mem.dev.dev_type == SOFTHAND_PRO){   
 1121              		.loc 1 506 0
 1122 04ea 924B     		ldr	r3, .L83+12
 1123 04ec 93F8AC30 		ldrb	r3, [r3, #172]	@ zero_extendqisi2
 1124 04f0 002B     		cmp	r3, #0
 1125 04f2 1CD1     		bne	.L67
 507:..\src/interruptions.c ****     
 508:..\src/interruptions.c ****         //---------------------------------- Rest position check
 509:..\src/interruptions.c **** 
 510:..\src/interruptions.c ****         // Divider 10, freq = 500 Hz
 511:..\src/interruptions.c ****         if (c_mem.SH.rest_position_flag == TRUE){
 1126              		.loc 1 511 0
 1127 04f4 8F4B     		ldr	r3, .L83+12
 1128 04f6 93F8AC32 		ldrb	r3, [r3, #684]	@ zero_extendqisi2
 1129 04fa 012B     		cmp	r3, #1
 1130 04fc 17D1     		bne	.L67
 512:..\src/interruptions.c ****             if (counter_calibration == CALIBRATION_DIV) {
 1131              		.loc 1 512 0
 1132 04fe 8C4B     		ldr	r3, .L83+8
 1133 0500 1B88     		ldrh	r3, [r3]
ARM GAS  C:\Users\Mattia\AppData\Local\Temp\cc59Yqin.s 			page 30


 1134 0502 0A2B     		cmp	r3, #10
 1135 0504 04D1     		bne	.L68
 513:..\src/interruptions.c ****                     check_rest_position();
 1136              		.loc 1 513 0
 1137 0506 FFF7FEFF 		bl	check_rest_position
 514:..\src/interruptions.c ****                     counter_calibration = 0;
 1138              		.loc 1 514 0
 1139 050a 894B     		ldr	r3, .L83+8
 1140 050c 0022     		movs	r2, #0
 1141 050e 1A80     		strh	r2, [r3]	@ movhi
 1142              	.L68:
 515:..\src/interruptions.c ****             }
 516:..\src/interruptions.c ****             counter_calibration++;
 1143              		.loc 1 516 0
 1144 0510 874B     		ldr	r3, .L83+8
 1145 0512 1B88     		ldrh	r3, [r3]
 1146 0514 0133     		adds	r3, r3, #1
 1147 0516 9AB2     		uxth	r2, r3
 1148 0518 854B     		ldr	r3, .L83+8
 1149 051a 1A80     		strh	r2, [r3]	@ movhi
 517:..\src/interruptions.c **** 
 518:..\src/interruptions.c ****             // Check Interrupt     
 519:..\src/interruptions.c ****             if (interrupt_flag){
 1150              		.loc 1 519 0
 1151 051c 824B     		ldr	r3, .L83
 1152 051e 1B78     		ldrb	r3, [r3]	@ zero_extendqisi2
 1153 0520 002B     		cmp	r3, #0
 1154 0522 04D0     		beq	.L67
 520:..\src/interruptions.c ****                 interrupt_flag = FALSE;
 1155              		.loc 1 520 0
 1156 0524 804B     		ldr	r3, .L83
 1157 0526 0022     		movs	r2, #0
 1158 0528 1A70     		strb	r2, [r3]
 521:..\src/interruptions.c ****                 interrupt_manager();
 1159              		.loc 1 521 0
 1160 052a FFF7FEFF 		bl	interrupt_manager
 1161              	.L67:
 522:..\src/interruptions.c ****             }
 523:..\src/interruptions.c ****         }
 524:..\src/interruptions.c ****         
 525:..\src/interruptions.c ****     }
 526:..\src/interruptions.c ****     
 527:..\src/interruptions.c ****      
 528:..\src/interruptions.c ****     //---------------------------------- EMG history Update
 529:..\src/interruptions.c ****     if (c_mem.exp.record_EMG_history_on_SD){
 1162              		.loc 1 529 0
 1163 052e 814B     		ldr	r3, .L83+12
 1164 0530 93F83432 		ldrb	r3, [r3, #564]	@ zero_extendqisi2
 1165 0534 002B     		cmp	r3, #0
 1166 0536 0AD0     		beq	.L69
 530:..\src/interruptions.c ****         
 531:..\src/interruptions.c ****         update_EMG_history();
 1167              		.loc 1 531 0
 1168 0538 FFF7FEFF 		bl	update_EMG_history
 532:..\src/interruptions.c **** 
 533:..\src/interruptions.c ****         // Check Interrupt 
 534:..\src/interruptions.c **** 
ARM GAS  C:\Users\Mattia\AppData\Local\Temp\cc59Yqin.s 			page 31


 535:..\src/interruptions.c ****         if (interrupt_flag){
 1169              		.loc 1 535 0
 1170 053c 7A4B     		ldr	r3, .L83
 1171 053e 1B78     		ldrb	r3, [r3]	@ zero_extendqisi2
 1172 0540 002B     		cmp	r3, #0
 1173 0542 04D0     		beq	.L69
 536:..\src/interruptions.c ****             interrupt_flag = FALSE;
 1174              		.loc 1 536 0
 1175 0544 784B     		ldr	r3, .L83
 1176 0546 0022     		movs	r2, #0
 1177 0548 1A70     		strb	r2, [r3]
 537:..\src/interruptions.c ****             interrupt_manager();
 1178              		.loc 1 537 0
 1179 054a FFF7FEFF 		bl	interrupt_manager
 1180              	.L69:
 538:..\src/interruptions.c ****         }
 539:..\src/interruptions.c ****     }
 540:..\src/interruptions.c **** 
 541:..\src/interruptions.c ****     
 542:..\src/interruptions.c ****     //---------------------------------- Control Cycles Counter
 543:..\src/interruptions.c **** 
 544:..\src/interruptions.c ****     cycles_counter_update();
 1181              		.loc 1 544 0
 1182 054e FFF7FEFF 		bl	cycles_counter_update
 545:..\src/interruptions.c **** 
 546:..\src/interruptions.c ****     // Check Cycles Interrupt 
 547:..\src/interruptions.c ****     
 548:..\src/interruptions.c ****     if (cycles_interrupt_flag){
 1183              		.loc 1 548 0
 1184 0552 794B     		ldr	r3, .L83+16
 1185 0554 1B78     		ldrb	r3, [r3]	@ zero_extendqisi2
 1186 0556 002B     		cmp	r3, #0
 1187 0558 5BD0     		beq	.L70
 549:..\src/interruptions.c ****         cycles_interrupt_flag = FALSE;
 1188              		.loc 1 549 0
 1189 055a 774B     		ldr	r3, .L83+16
 1190 055c 0022     		movs	r2, #0
 1191 055e 1A70     		strb	r2, [r3]
 550:..\src/interruptions.c **** 
 551:..\src/interruptions.c ****         // Cycles are written only every 120 seconds (CYCLES_TIMER interrupt)
 552:..\src/interruptions.c ****         // to save EEPROM writings (1M maximum)
 553:..\src/interruptions.c ****         if(can_write) {
 1192              		.loc 1 553 0
 1193 0560 764B     		ldr	r3, .L83+20
 1194 0562 1B78     		ldrb	r3, [r3]	@ zero_extendqisi2
 1195 0564 002B     		cmp	r3, #0
 1196 0566 54D0     		beq	.L70
 554:..\src/interruptions.c ****             cycles_status = PREPARE_DATA;
 1197              		.loc 1 554 0
 1198 0568 754B     		ldr	r3, .L83+24
 1199 056a 0022     		movs	r2, #0
 1200 056c 1A70     		strb	r2, [r3]
 555:..\src/interruptions.c ****             
 556:..\src/interruptions.c ****             //Update time variable
 557:..\src/interruptions.c ****             g_mem.cnt.total_time_on = g_mem.cnt.total_time_on + 120;  // Add 120 seconds.
 1201              		.loc 1 557 0
 1202 056e 754B     		ldr	r3, .L83+28
ARM GAS  C:\Users\Mattia\AppData\Local\Temp\cc59Yqin.s 			page 32


 1203 0570 9B6D     		ldr	r3, [r3, #88]
 1204 0572 7833     		adds	r3, r3, #120
 1205 0574 734A     		ldr	r2, .L83+28
 1206 0576 9365     		str	r3, [r2, #88]
 558:..\src/interruptions.c ****             
 559:..\src/interruptions.c ****             if (c_mem.exp.read_exp_port_flag == EXP_SD_RTC) {
 1207              		.loc 1 559 0
 1208 0578 6E4B     		ldr	r3, .L83+12
 1209 057a 93F82632 		ldrb	r3, [r3, #550]	@ zero_extendqisi2
 1210 057e 012B     		cmp	r3, #1
 1211 0580 47D1     		bne	.L70
 560:..\src/interruptions.c ****                 
 561:..\src/interruptions.c ****                 store_RTC_current_time();
 1212              		.loc 1 561 0
 1213 0582 FFF7FEFF 		bl	store_RTC_current_time
 562:..\src/interruptions.c ****                 
 563:..\src/interruptions.c ****                 //Write in SD card
 564:..\src/interruptions.c ****                 prepare_SD_info(info_);
 1214              		.loc 1 564 0
 1215 0586 07F56A53 		add	r3, r7, #14976
 1216 058a 03F11803 		add	r3, r3, #24
 1217 058e 1846     		mov	r0, r3
 1218 0590 FFF7FEFF 		bl	prepare_SD_info
 565:..\src/interruptions.c ****                 FS_Write(pFile, info_, strlen(info_));
 1219              		.loc 1 565 0
 1220 0594 6C4B     		ldr	r3, .L83+32
 1221 0596 1C68     		ldr	r4, [r3]
 1222 0598 07F56A53 		add	r3, r7, #14976
 1223 059c 03F11803 		add	r3, r3, #24
 1224 05a0 1846     		mov	r0, r3
 1225 05a2 FFF7FEFF 		bl	strlen
 1226 05a6 0246     		mov	r2, r0
 1227 05a8 07F56A53 		add	r3, r7, #14976
 1228 05ac 03F11803 		add	r3, r3, #24
 1229 05b0 1946     		mov	r1, r3
 1230 05b2 2046     		mov	r0, r4
 1231 05b4 FFF7FEFF 		bl	FS_Write
 566:..\src/interruptions.c ****                 
 567:..\src/interruptions.c ****                 if (c_mem.exp.record_EMG_history_on_SD){
 1232              		.loc 1 567 0
 1233 05b8 5E4B     		ldr	r3, .L83+12
 1234 05ba 93F83432 		ldrb	r3, [r3, #564]	@ zero_extendqisi2
 1235 05be 002B     		cmp	r3, #0
 1236 05c0 27D0     		beq	.L70
 1237              	.LBB3:
 568:..\src/interruptions.c ****                     char EMG_history_info_[15000] = "";
 1238              		.loc 1 568 0
 1239 05c2 07F16003 		add	r3, r7, #96
 1240 05c6 603B     		subs	r3, r3, #96
 1241 05c8 0022     		movs	r2, #0
 1242 05ca 1A60     		str	r2, [r3]
 1243 05cc 0433     		adds	r3, r3, #4
 1244 05ce 43F69422 		movw	r2, #14996
 1245 05d2 0021     		movs	r1, #0
 1246 05d4 1846     		mov	r0, r3
 1247 05d6 FFF7FEFF 		bl	memset
 569:..\src/interruptions.c ****                     strcpy(EMG_history_info_, "");
ARM GAS  C:\Users\Mattia\AppData\Local\Temp\cc59Yqin.s 			page 33


 1248              		.loc 1 569 0
 1249 05da 5C4B     		ldr	r3, .L83+36
 1250 05dc 1A78     		ldrb	r2, [r3]	@ zero_extendqisi2
 1251 05de 07F16003 		add	r3, r7, #96
 1252 05e2 603B     		subs	r3, r3, #96
 1253 05e4 1A70     		strb	r2, [r3]
 570:..\src/interruptions.c ****                     prepare_SD_EMG_history(EMG_history_info_);
 1254              		.loc 1 570 0
 1255 05e6 07F16003 		add	r3, r7, #96
 1256 05ea 603B     		subs	r3, r3, #96
 1257 05ec 1846     		mov	r0, r3
 1258 05ee FFF7FEFF 		bl	prepare_SD_EMG_history
 571:..\src/interruptions.c ****                     FS_Write(pEMGHFile, EMG_history_info_, strlen(EMG_history_info_));
 1259              		.loc 1 571 0
 1260 05f2 574B     		ldr	r3, .L83+40
 1261 05f4 1C68     		ldr	r4, [r3]
 1262 05f6 07F16003 		add	r3, r7, #96
 1263 05fa 603B     		subs	r3, r3, #96
 1264 05fc 1846     		mov	r0, r3
 1265 05fe FFF7FEFF 		bl	strlen
 1266 0602 0246     		mov	r2, r0
 1267 0604 07F16003 		add	r3, r7, #96
 1268 0608 603B     		subs	r3, r3, #96
 1269 060a 1946     		mov	r1, r3
 1270 060c 2046     		mov	r0, r4
 1271 060e FFF7FEFF 		bl	FS_Write
 1272              	.L70:
 1273              	.LBE3:
 572:..\src/interruptions.c ****                 }
 573:..\src/interruptions.c ****             }
 574:..\src/interruptions.c ****         }
 575:..\src/interruptions.c ****     }
 576:..\src/interruptions.c ****     
 577:..\src/interruptions.c ****     // Check Interrupt 
 578:..\src/interruptions.c ****     
 579:..\src/interruptions.c ****     if (interrupt_flag){
 1274              		.loc 1 579 0
 1275 0612 454B     		ldr	r3, .L83
 1276 0614 1B78     		ldrb	r3, [r3]	@ zero_extendqisi2
 1277 0616 002B     		cmp	r3, #0
 1278 0618 04D0     		beq	.L71
 580:..\src/interruptions.c ****         interrupt_flag = FALSE;
 1279              		.loc 1 580 0
 1280 061a 434B     		ldr	r3, .L83
 1281 061c 0022     		movs	r2, #0
 1282 061e 1A70     		strb	r2, [r3]
 581:..\src/interruptions.c ****         interrupt_manager();
 1283              		.loc 1 581 0
 1284 0620 FFF7FEFF 		bl	interrupt_manager
 1285              	.L71:
 582:..\src/interruptions.c ****     }
 583:..\src/interruptions.c ****     
 584:..\src/interruptions.c ****     
 585:..\src/interruptions.c ****     //---------------------------------- Check battery
 586:..\src/interruptions.c **** 
 587:..\src/interruptions.c ****     // Divider 10, freq = 500 Hz
 588:..\src/interruptions.c ****     if (counter_tension_func == CALIBRATION_DIV) {
ARM GAS  C:\Users\Mattia\AppData\Local\Temp\cc59Yqin.s 			page 34


 1286              		.loc 1 588 0
 1287 0624 4B4B     		ldr	r3, .L83+44
 1288 0626 1B88     		ldrh	r3, [r3]
 1289 0628 0A2B     		cmp	r3, #10
 1290 062a 04D1     		bne	.L72
 589:..\src/interruptions.c ****         battery_management();   
 1291              		.loc 1 589 0
 1292 062c FFF7FEFF 		bl	battery_management
 590:..\src/interruptions.c ****         counter_tension_func = 0;
 1293              		.loc 1 590 0
 1294 0630 484B     		ldr	r3, .L83+44
 1295 0632 0022     		movs	r2, #0
 1296 0634 1A80     		strh	r2, [r3]	@ movhi
 1297              	.L72:
 591:..\src/interruptions.c ****     }
 592:..\src/interruptions.c ****     counter_tension_func++;
 1298              		.loc 1 592 0
 1299 0636 474B     		ldr	r3, .L83+44
 1300 0638 1B88     		ldrh	r3, [r3]
 1301 063a 0133     		adds	r3, r3, #1
 1302 063c 9AB2     		uxth	r2, r3
 1303 063e 454B     		ldr	r3, .L83+44
 1304 0640 1A80     		strh	r2, [r3]	@ movhi
 593:..\src/interruptions.c **** 
 594:..\src/interruptions.c ****     // Check Interrupt 
 595:..\src/interruptions.c ****     
 596:..\src/interruptions.c ****     if (interrupt_flag){
 1305              		.loc 1 596 0
 1306 0642 394B     		ldr	r3, .L83
 1307 0644 1B78     		ldrb	r3, [r3]	@ zero_extendqisi2
 1308 0646 002B     		cmp	r3, #0
 1309 0648 04D0     		beq	.L73
 597:..\src/interruptions.c ****         interrupt_flag = FALSE;
 1310              		.loc 1 597 0
 1311 064a 374B     		ldr	r3, .L83
 1312 064c 0022     		movs	r2, #0
 1313 064e 1A70     		strb	r2, [r3]
 598:..\src/interruptions.c ****         interrupt_manager();
 1314              		.loc 1 598 0
 1315 0650 FFF7FEFF 		bl	interrupt_manager
 1316              	.L73:
 599:..\src/interruptions.c ****     }
 600:..\src/interruptions.c ****    
 601:..\src/interruptions.c ****     //---------------------------------- Read IMUs
 602:..\src/interruptions.c ****     if (c_mem.imu.read_imu_flag) {
 1317              		.loc 1 602 0
 1318 0654 374B     		ldr	r3, .L83+12
 1319 0656 93F80032 		ldrb	r3, [r3, #512]	@ zero_extendqisi2
 1320 065a 002B     		cmp	r3, #0
 1321 065c 0AD0     		beq	.L74
 603:..\src/interruptions.c ****         ReadAllIMUs();      // IMU reading is atomic, no RS485 request is handled
 1322              		.loc 1 603 0
 1323 065e FFF7FEFF 		bl	ReadAllIMUs
 604:..\src/interruptions.c ****         
 605:..\src/interruptions.c ****         if (interrupt_flag){
 1324              		.loc 1 605 0
 1325 0662 314B     		ldr	r3, .L83
ARM GAS  C:\Users\Mattia\AppData\Local\Temp\cc59Yqin.s 			page 35


 1326 0664 1B78     		ldrb	r3, [r3]	@ zero_extendqisi2
 1327 0666 002B     		cmp	r3, #0
 1328 0668 04D0     		beq	.L74
 606:..\src/interruptions.c ****             interrupt_flag = FALSE;
 1329              		.loc 1 606 0
 1330 066a 2F4B     		ldr	r3, .L83
 1331 066c 0022     		movs	r2, #0
 1332 066e 1A70     		strb	r2, [r3]
 607:..\src/interruptions.c ****             interrupt_manager();
 1333              		.loc 1 607 0
 1334 0670 FFF7FEFF 		bl	interrupt_manager
 1335              	.L74:
 608:..\src/interruptions.c ****         }
 609:..\src/interruptions.c ****     }
 610:..\src/interruptions.c ****    
 611:..\src/interruptions.c ****     //---------------------------------- Update States
 612:..\src/interruptions.c ****     
 613:..\src/interruptions.c ****     // Load k-1 state
 614:..\src/interruptions.c ****     memcpy( &g_adc_measOld, &g_adc_meas, sizeof(g_adc_meas) );
 1336              		.loc 1 614 0
 1337 0674 384A     		ldr	r2, .L83+48
 1338 0676 394B     		ldr	r3, .L83+52
 1339 0678 1446     		mov	r4, r2
 1340 067a 1D46     		mov	r5, r3
 1341 067c 0FCD     		ldmia	r5!, {r0, r1, r2, r3}
 1342 067e 0FC4     		stmia	r4!, {r0, r1, r2, r3}
 1343 0680 0FCD     		ldmia	r5!, {r0, r1, r2, r3}
 1344 0682 0FC4     		stmia	r4!, {r0, r1, r2, r3}
 1345 0684 95E80300 		ldmia	r5, {r0, r1}
 1346 0688 84E80300 		stmia	r4, {r0, r1}
 615:..\src/interruptions.c ****     memcpy( &g_measOld, &g_meas, sizeof(g_meas) );
 1347              		.loc 1 615 0
 1348 068c 344A     		ldr	r2, .L83+56
 1349 068e 354B     		ldr	r3, .L83+60
 1350 0690 1046     		mov	r0, r2
 1351 0692 1946     		mov	r1, r3
 1352 0694 6823     		movs	r3, #104
 1353 0696 1A46     		mov	r2, r3
 1354 0698 FFF7FEFF 		bl	memcpy
 616:..\src/interruptions.c ****     memcpy( &g_refOld, &g_ref, sizeof(g_ref) );
 1355              		.loc 1 616 0
 1356 069c 324A     		ldr	r2, .L83+64
 1357 069e 334B     		ldr	r3, .L83+68
 1358 06a0 1446     		mov	r4, r2
 1359 06a2 1D46     		mov	r5, r3
 1360 06a4 0FCD     		ldmia	r5!, {r0, r1, r2, r3}
 1361 06a6 0FC4     		stmia	r4!, {r0, r1, r2, r3}
 1362 06a8 95E80F00 		ldmia	r5, {r0, r1, r2, r3}
 1363 06ac 84E80F00 		stmia	r4, {r0, r1, r2, r3}
 617:..\src/interruptions.c **** 
 618:..\src/interruptions.c ****     // Load k+1 state        
 619:..\src/interruptions.c ****     memcpy( &g_ref, &g_refNew, sizeof(g_ref) );
 1364              		.loc 1 619 0
 1365 06b0 2E4A     		ldr	r2, .L83+68
 1366 06b2 2F4B     		ldr	r3, .L83+72
 1367 06b4 1446     		mov	r4, r2
 1368 06b6 1D46     		mov	r5, r3
ARM GAS  C:\Users\Mattia\AppData\Local\Temp\cc59Yqin.s 			page 36


 1369 06b8 0FCD     		ldmia	r5!, {r0, r1, r2, r3}
 1370 06ba 0FC4     		stmia	r4!, {r0, r1, r2, r3}
 1371 06bc 95E80F00 		ldmia	r5, {r0, r1, r2, r3}
 1372 06c0 84E80F00 		stmia	r4, {r0, r1, r2, r3}
 620:..\src/interruptions.c ****     memcpy( &g_imu, &g_imuNew, sizeof(g_imu) );
 1373              		.loc 1 620 0
 1374 06c4 2B4A     		ldr	r2, .L83+76
 1375 06c6 2C4B     		ldr	r3, .L83+80
 1376 06c8 1046     		mov	r0, r2
 1377 06ca 1946     		mov	r1, r3
 1378 06cc C823     		movs	r3, #200
 1379 06ce 1A46     		mov	r2, r3
 1380 06d0 FFF7FEFF 		bl	memcpy
 621:..\src/interruptions.c ****                 
 622:..\src/interruptions.c ****     if (interrupt_flag){
 1381              		.loc 1 622 0
 1382 06d4 144B     		ldr	r3, .L83
 1383 06d6 1B78     		ldrb	r3, [r3]	@ zero_extendqisi2
 1384 06d8 002B     		cmp	r3, #0
 1385 06da 04D0     		beq	.L75
 623:..\src/interruptions.c ****         interrupt_flag = FALSE;
 1386              		.loc 1 623 0
 1387 06dc 124B     		ldr	r3, .L83
 1388 06de 0022     		movs	r2, #0
 1389 06e0 1A70     		strb	r2, [r3]
 624:..\src/interruptions.c ****         interrupt_manager();
 1390              		.loc 1 624 0
 1391 06e2 FFF7FEFF 		bl	interrupt_manager
 1392              	.L75:
 625:..\src/interruptions.c ****     }
 626:..\src/interruptions.c **** 
 627:..\src/interruptions.c ****     timer_value = (uint16)MY_TIMER_ReadCounter();
 1393              		.loc 1 627 0
 1394 06e6 FFF7FEFF 		bl	MY_TIMER_ReadCounter
 1395 06ea 0346     		mov	r3, r0
 1396 06ec 1A46     		mov	r2, r3
 1397 06ee 234B     		ldr	r3, .L83+84
 1398 06f0 1A80     		strh	r2, [r3]	@ movhi
 628:..\src/interruptions.c ****     cycle_time = ((float)(timer_value0 - timer_value)/1000000.0);
 1399              		.loc 1 628 0
 1400 06f2 234B     		ldr	r3, .L83+88
 1401 06f4 1B88     		ldrh	r3, [r3]
 1402 06f6 1A46     		mov	r2, r3
 1403 06f8 204B     		ldr	r3, .L83+84
 1404 06fa 1B88     		ldrh	r3, [r3]
 1405 06fc D31A     		subs	r3, r2, r3
 1406 06fe 1846     		mov	r0, r3
 1407 0700 FFF7FEFF 		bl	__aeabi_i2f
 1408 0704 0346     		mov	r3, r0
 1409 0706 1F49     		ldr	r1, .L83+92
 1410 0708 1846     		mov	r0, r3
 1411 070a FFF7FEFF 		bl	__aeabi_fdiv
 1412 070e 0346     		mov	r3, r0
 1413 0710 1A46     		mov	r2, r3
 1414 0712 1D4B     		ldr	r3, .L83+96
 1415 0714 1A60     		str	r2, [r3]	@ float
 629:..\src/interruptions.c ****     MY_TIMER_REG_Write(0x01);   // reset timer
ARM GAS  C:\Users\Mattia\AppData\Local\Temp\cc59Yqin.s 			page 37


 1416              		.loc 1 629 0
 1417 0716 0120     		movs	r0, #1
 1418 0718 FFF7FEFF 		bl	MY_TIMER_REG_Write
 630:..\src/interruptions.c **** 
 631:..\src/interruptions.c **** }
 1419              		.loc 1 631 0
 1420 071c 00BF     		nop
 1421 071e 07F58847 		add	r7, r7, #17408
 1422 0722 6037     		adds	r7, r7, #96
 1423              		.cfi_def_cfa_offset 16
 1424 0724 BD46     		mov	sp, r7
 1425              		.cfi_def_cfa_register 13
 1426              		@ sp needed
 1427 0726 B0BD     		pop	{r4, r5, r7, pc}
 1428              	.L84:
 1429              		.align	2
 1430              	.L83:
 1431 0728 00000000 		.word	interrupt_flag
 1432 072c 00000000 		.word	calib
 1433 0730 00000000 		.word	counter_calibration.10465
 1434 0734 00000000 		.word	c_mem
 1435 0738 00000000 		.word	cycles_interrupt_flag
 1436 073c 00000000 		.word	can_write
 1437 0740 00000000 		.word	cycles_status
 1438 0744 00000000 		.word	g_mem
 1439 0748 00000000 		.word	pFile
 1440 074c 20000000 		.word	.LC0
 1441 0750 00000000 		.word	pEMGHFile
 1442 0754 02000000 		.word	counter_tension_func.10466
 1443 0758 00000000 		.word	g_adc_measOld
 1444 075c 00000000 		.word	g_adc_meas
 1445 0760 00000000 		.word	g_measOld
 1446 0764 00000000 		.word	g_meas
 1447 0768 00000000 		.word	g_refOld
 1448 076c 00000000 		.word	g_ref
 1449 0770 00000000 		.word	g_refNew
 1450 0774 00000000 		.word	g_imu
 1451 0778 00000000 		.word	g_imuNew
 1452 077c 00000000 		.word	timer_value
 1453 0780 00000000 		.word	timer_value0
 1454 0784 00247449 		.word	1232348160
 1455 0788 00000000 		.word	cycle_time
 1456              		.cfi_endproc
 1457              	.LFE67:
 1458              		.size	function_scheduler, .-function_scheduler
 1459              		.section	.text.compute_reference,"ax",%progbits
 1460              		.align	2
 1461              		.global	compute_reference
 1462              		.thumb
 1463              		.thumb_func
 1464              		.type	compute_reference, %function
 1465              	compute_reference:
 1466              	.LFB68:
 632:..\src/interruptions.c **** 
 633:..\src/interruptions.c **** //==============================================================================
 634:..\src/interruptions.c **** //                                                       COMPUTE MOTOR REFERENCE
 635:..\src/interruptions.c **** //==============================================================================
ARM GAS  C:\Users\Mattia\AppData\Local\Temp\cc59Yqin.s 			page 38


 636:..\src/interruptions.c **** void compute_reference(uint8 motor_idx, struct st_ref* st_ref_p, struct st_ref* st_refOld_p) {
 1467              		.loc 1 636 0
 1468              		.cfi_startproc
 1469              		@ args = 0, pretend = 0, frame = 40
 1470              		@ frame_needed = 1, uses_anonymous_args = 0
 1471 0000 80B5     		push	{r7, lr}
 1472              		.cfi_def_cfa_offset 8
 1473              		.cfi_offset 7, -8
 1474              		.cfi_offset 14, -4
 1475 0002 8CB0     		sub	sp, sp, #48
 1476              		.cfi_def_cfa_offset 56
 1477 0004 02AF     		add	r7, sp, #8
 1478              		.cfi_def_cfa 7, 48
 1479 0006 0346     		mov	r3, r0
 1480 0008 B960     		str	r1, [r7, #8]
 1481 000a 7A60     		str	r2, [r7, #4]
 1482 000c FB73     		strb	r3, [r7, #15]
 637:..\src/interruptions.c ****     
 638:..\src/interruptions.c ****     int32 CYDATA handle_value;
 639:..\src/interruptions.c ****     int32 CYDATA err_emg_1, err_emg_2;
 640:..\src/interruptions.c ****     struct st_motor* MOT = &c_mem.motor[motor_idx];      // SoftHand default motor
 1483              		.loc 1 640 0
 1484 000e FA7B     		ldrb	r2, [r7, #15]	@ zero_extendqisi2
 1485 0010 1346     		mov	r3, r2
 1486 0012 DB00     		lsls	r3, r3, #3
 1487 0014 9B1A     		subs	r3, r3, r2
 1488 0016 1B01     		lsls	r3, r3, #4
 1489 0018 B033     		adds	r3, r3, #176
 1490 001a A74A     		ldr	r2, .L149
 1491 001c 1344     		add	r3, r3, r2
 1492 001e 3B62     		str	r3, [r7, #32]
 641:..\src/interruptions.c ****     uint8 ENC_L = MOT->encoder_line;          // Associated encoder line
 1493              		.loc 1 641 0
 1494 0020 3B6A     		ldr	r3, [r7, #32]
 1495 0022 93F86030 		ldrb	r3, [r3, #96]
 1496 0026 FB77     		strb	r3, [r7, #31]
 642:..\src/interruptions.c ****     
 643:..\src/interruptions.c ****     static uint8 current_emg[NUM_OF_MOTORS] = {0, 0};   // 0 NONE
 644:..\src/interruptions.c ****                                                         // 1 EMG 1
 645:..\src/interruptions.c ****                                                         // 2 EMG 2
 646:..\src/interruptions.c ****                                                         // wait for both to get down
 647:..\src/interruptions.c ****     
 648:..\src/interruptions.c ****     err_emg_1 = g_adc_meas.emg[0] - c_mem.emg.emg_threshold[0];
 1497              		.loc 1 648 0
 1498 0028 A44B     		ldr	r3, .L149+4
 1499 002a 1B68     		ldr	r3, [r3]
 1500 002c A24A     		ldr	r2, .L149
 1501 002e B2F8F021 		ldrh	r2, [r2, #496]
 1502 0032 9B1A     		subs	r3, r3, r2
 1503 0034 BB61     		str	r3, [r7, #24]
 649:..\src/interruptions.c ****     err_emg_2 = g_adc_meas.emg[1] - c_mem.emg.emg_threshold[1];
 1504              		.loc 1 649 0
 1505 0036 A14B     		ldr	r3, .L149+4
 1506 0038 5B68     		ldr	r3, [r3, #4]
 1507 003a 9F4A     		ldr	r2, .L149
 1508 003c B2F8F221 		ldrh	r2, [r2, #498]
 1509 0040 9B1A     		subs	r3, r3, r2
ARM GAS  C:\Users\Mattia\AppData\Local\Temp\cc59Yqin.s 			page 39


 1510 0042 7B61     		str	r3, [r7, #20]
 650:..\src/interruptions.c ****     
 651:..\src/interruptions.c ****      // =========================== POSITION INPUT ==============================            
 652:..\src/interruptions.c ****     switch(MOT->input_mode) {
 1511              		.loc 1 652 0
 1512 0044 3B6A     		ldr	r3, [r7, #32]
 1513 0046 93F85E30 		ldrb	r3, [r3, #94]	@ zero_extendqisi2
 1514 004a 013B     		subs	r3, r3, #1
 1515 004c 062B     		cmp	r3, #6
 1516 004e 00F25182 		bhi	.L141
 1517 0052 01A2     		adr	r2, .L88
 1518 0054 52F823F0 		ldr	pc, [r2, r3, lsl #2]
 1519              		.p2align 2
 1520              	.L88:
 1521 0058 75000000 		.word	.L87+1
 1522 005c 21020000 		.word	.L89+1
 1523 0060 C9020000 		.word	.L90+1
 1524 0064 31030000 		.word	.L91+1
 1525 0068 11040000 		.word	.L92+1
 1526 006c 4D010000 		.word	.L93+1
 1527 0070 5B020000 		.word	.L94+1
 1528              		.p2align 1
 1529              	.L87:
 653:..\src/interruptions.c ****         case INPUT_MODE_ENCODER3:
 654:..\src/interruptions.c **** 
 655:..\src/interruptions.c ****             // Calculate handle value based on position of handle in the
 656:..\src/interruptions.c ****             // sensor chain and multiplication factor between handle and motor position
 657:..\src/interruptions.c ****             if (c_mem.enc[ENC_L].double_encoder_on_off) 
 1530              		.loc 1 657 0
 1531 0074 FA7F     		ldrb	r2, [r7, #31]	@ zero_extendqisi2
 1532 0076 9049     		ldr	r1, .L149
 1533 0078 1346     		mov	r3, r2
 1534 007a 5B00     		lsls	r3, r3, #1
 1535 007c 1344     		add	r3, r3, r2
 1536 007e 1B01     		lsls	r3, r3, #4
 1537 0080 0B44     		add	r3, r3, r1
 1538 0082 03F5D873 		add	r3, r3, #432
 1539 0086 1B78     		ldrb	r3, [r3]	@ zero_extendqisi2
 1540 0088 002B     		cmp	r3, #0
 1541 008a 19D0     		beq	.L95
 658:..\src/interruptions.c ****                 handle_value = (g_meas[ENC_L].pos[2] * c_mem.enc[ENC_L].motor_handle_ratio) + MOT->
 1542              		.loc 1 658 0
 1543 008c FB7F     		ldrb	r3, [r7, #31]	@ zero_extendqisi2
 1544 008e 8C4A     		ldr	r2, .L149+8
 1545 0090 3421     		movs	r1, #52
 1546 0092 01FB03F3 		mul	r3, r1, r3
 1547 0096 1344     		add	r3, r3, r2
 1548 0098 0833     		adds	r3, r3, #8
 1549 009a 1968     		ldr	r1, [r3]
 1550 009c FA7F     		ldrb	r2, [r7, #31]	@ zero_extendqisi2
 1551 009e 8648     		ldr	r0, .L149
 1552 00a0 1346     		mov	r3, r2
 1553 00a2 5B00     		lsls	r3, r3, #1
 1554 00a4 1344     		add	r3, r3, r2
 1555 00a6 1B01     		lsls	r3, r3, #4
 1556 00a8 0344     		add	r3, r3, r0
 1557 00aa 03F5DA73 		add	r3, r3, #436
ARM GAS  C:\Users\Mattia\AppData\Local\Temp\cc59Yqin.s 			page 40


 1558 00ae 93F90030 		ldrsb	r3, [r3]
 1559 00b2 03FB01F2 		mul	r2, r3, r1
 1560 00b6 3B6A     		ldr	r3, [r7, #32]
 1561 00b8 5B6B     		ldr	r3, [r3, #52]
 1562 00ba 1344     		add	r3, r3, r2
 1563 00bc 7B62     		str	r3, [r7, #36]
 1564 00be 18E0     		b	.L96
 1565              	.L95:
 659:..\src/interruptions.c ****             else
 660:..\src/interruptions.c ****                 handle_value = (g_meas[ENC_L].pos[1] * c_mem.enc[ENC_L].motor_handle_ratio) + MOT->
 1566              		.loc 1 660 0
 1567 00c0 FB7F     		ldrb	r3, [r7, #31]	@ zero_extendqisi2
 1568 00c2 7F4A     		ldr	r2, .L149+8
 1569 00c4 3421     		movs	r1, #52
 1570 00c6 01FB03F3 		mul	r3, r1, r3
 1571 00ca 1344     		add	r3, r3, r2
 1572 00cc 0433     		adds	r3, r3, #4
 1573 00ce 1968     		ldr	r1, [r3]
 1574 00d0 FA7F     		ldrb	r2, [r7, #31]	@ zero_extendqisi2
 1575 00d2 7948     		ldr	r0, .L149
 1576 00d4 1346     		mov	r3, r2
 1577 00d6 5B00     		lsls	r3, r3, #1
 1578 00d8 1344     		add	r3, r3, r2
 1579 00da 1B01     		lsls	r3, r3, #4
 1580 00dc 0344     		add	r3, r3, r0
 1581 00de 03F5DA73 		add	r3, r3, #436
 1582 00e2 93F90030 		ldrsb	r3, [r3]
 1583 00e6 03FB01F2 		mul	r2, r3, r1
 1584 00ea 3B6A     		ldr	r3, [r7, #32]
 1585 00ec 5B6B     		ldr	r3, [r3, #52]
 1586 00ee 1344     		add	r3, r3, r2
 1587 00f0 7B62     		str	r3, [r7, #36]
 1588              	.L96:
 661:..\src/interruptions.c ****             
 662:..\src/interruptions.c **** 
 663:..\src/interruptions.c ****             // Read handle and use it as reference for the motor
 664:..\src/interruptions.c ****             if (((handle_value - st_refOld_p->pos) > MOT->max_step_pos) && (MOT->max_step_pos != 0)
 1589              		.loc 1 664 0
 1590 00f2 7B68     		ldr	r3, [r7, #4]
 1591 00f4 1B68     		ldr	r3, [r3]
 1592 00f6 7A6A     		ldr	r2, [r7, #36]
 1593 00f8 D21A     		subs	r2, r2, r3
 1594 00fa 3B6A     		ldr	r3, [r7, #32]
 1595 00fc 1B6C     		ldr	r3, [r3, #64]
 1596 00fe 9A42     		cmp	r2, r3
 1597 0100 0BDD     		ble	.L97
 1598              		.loc 1 664 0 is_stmt 0 discriminator 1
 1599 0102 3B6A     		ldr	r3, [r7, #32]
 1600 0104 1B6C     		ldr	r3, [r3, #64]
 1601 0106 002B     		cmp	r3, #0
 1602 0108 07D0     		beq	.L97
 665:..\src/interruptions.c ****                 st_ref_p->pos += MOT->max_step_pos;
 1603              		.loc 1 665 0 is_stmt 1
 1604 010a BB68     		ldr	r3, [r7, #8]
 1605 010c 1A68     		ldr	r2, [r3]
 1606 010e 3B6A     		ldr	r3, [r7, #32]
 1607 0110 1B6C     		ldr	r3, [r3, #64]
ARM GAS  C:\Users\Mattia\AppData\Local\Temp\cc59Yqin.s 			page 41


 1608 0112 1A44     		add	r2, r2, r3
 1609 0114 BB68     		ldr	r3, [r7, #8]
 1610 0116 1A60     		str	r2, [r3]
 1611 0118 17E0     		b	.L98
 1612              	.L97:
 666:..\src/interruptions.c ****             else {
 667:..\src/interruptions.c ****                 if (((handle_value - st_refOld_p->pos) < MOT->max_step_neg) && (MOT->max_step_neg !
 1613              		.loc 1 667 0
 1614 011a 7B68     		ldr	r3, [r7, #4]
 1615 011c 1B68     		ldr	r3, [r3]
 1616 011e 7A6A     		ldr	r2, [r7, #36]
 1617 0120 D21A     		subs	r2, r2, r3
 1618 0122 3B6A     		ldr	r3, [r7, #32]
 1619 0124 DB6B     		ldr	r3, [r3, #60]
 1620 0126 9A42     		cmp	r2, r3
 1621 0128 0BDA     		bge	.L99
 1622              		.loc 1 667 0 is_stmt 0 discriminator 1
 1623 012a 3B6A     		ldr	r3, [r7, #32]
 1624 012c DB6B     		ldr	r3, [r3, #60]
 1625 012e 002B     		cmp	r3, #0
 1626 0130 07D0     		beq	.L99
 668:..\src/interruptions.c ****                     st_ref_p->pos += MOT->max_step_neg;
 1627              		.loc 1 668 0 is_stmt 1
 1628 0132 BB68     		ldr	r3, [r7, #8]
 1629 0134 1A68     		ldr	r2, [r3]
 1630 0136 3B6A     		ldr	r3, [r7, #32]
 1631 0138 DB6B     		ldr	r3, [r3, #60]
 1632 013a 1A44     		add	r2, r2, r3
 1633 013c BB68     		ldr	r3, [r7, #8]
 1634 013e 1A60     		str	r2, [r3]
 1635 0140 03E0     		b	.L98
 1636              	.L99:
 669:..\src/interruptions.c ****                 else
 670:..\src/interruptions.c ****                     st_ref_p->pos = handle_value;
 1637              		.loc 1 670 0
 1638 0142 BB68     		ldr	r3, [r7, #8]
 1639 0144 7A6A     		ldr	r2, [r7, #36]
 1640 0146 1A60     		str	r2, [r3]
 671:..\src/interruptions.c ****             }
 672:..\src/interruptions.c ****             break;
 1641              		.loc 1 672 0
 1642 0148 DFE1     		b	.L100
 1643              	.L98:
 1644 014a DEE1     		b	.L100
 1645              	.L93:
 673:..\src/interruptions.c ****         
 674:..\src/interruptions.c ****         case INPUT_MODE_JOYSTICK:
 675:..\src/interruptions.c ****             
 676:..\src/interruptions.c ****             if (c_mem.dev.use_2nd_motor_flag == FALSE){
 1646              		.loc 1 676 0
 1647 014c 5A4B     		ldr	r3, .L149
 1648 014e 93F8A930 		ldrb	r3, [r3, #169]	@ zero_extendqisi2
 1649 0152 002B     		cmp	r3, #0
 1650 0154 57D1     		bne	.L101
 677:..\src/interruptions.c ****                 // Code for single motor devices. Use only up/down direction to give speed referenc
 678:..\src/interruptions.c ****                 st_ref_p->pos = st_refOld_p->pos;
 1651              		.loc 1 678 0
ARM GAS  C:\Users\Mattia\AppData\Local\Temp\cc59Yqin.s 			page 42


 1652 0156 7B68     		ldr	r3, [r7, #4]
 1653 0158 1A68     		ldr	r2, [r3]
 1654 015a BB68     		ldr	r3, [r7, #8]
 1655 015c 1A60     		str	r2, [r3]
 679:..\src/interruptions.c ****                 if(!(g_adc_meas.joystick[0] > 700)) {
 1656              		.loc 1 679 0
 1657 015e 574B     		ldr	r3, .L149+4
 1658 0160 1B6A     		ldr	r3, [r3, #32]
 1659 0162 B3F52F7F 		cmp	r3, #700
 1660 0166 45DC     		bgt	.L102
 1661              	.LBB4:
 680:..\src/interruptions.c ****                     int32 CYDATA err_joy_1 = g_adc_meas.joystick[0] - c_mem.JOY_spec.joystick_thres
 1662              		.loc 1 680 0
 1663 0168 544B     		ldr	r3, .L149+4
 1664 016a 1B6A     		ldr	r3, [r3, #32]
 1665 016c 524A     		ldr	r2, .L149
 1666 016e B2F9B222 		ldrsh	r2, [r2, #690]
 1667 0172 9B1A     		subs	r3, r3, r2
 1668 0174 3B61     		str	r3, [r7, #16]
 681:..\src/interruptions.c **** 
 682:..\src/interruptions.c ****                     if(g_adc_meas.joystick[0] > c_mem.JOY_spec.joystick_threshold) {     //both mot
 1669              		.loc 1 682 0
 1670 0176 514B     		ldr	r3, .L149+4
 1671 0178 1B6A     		ldr	r3, [r3, #32]
 1672 017a 4F4A     		ldr	r2, .L149
 1673 017c B2F9B222 		ldrsh	r2, [r2, #690]
 1674 0180 9342     		cmp	r3, r2
 1675 0182 13DD     		ble	.L103
 683:..\src/interruptions.c ****                         st_ref_p->pos += ((int32) err_joy_1 * c_mem.JOY_spec.joystick_closure_speed
 1676              		.loc 1 683 0
 1677 0184 BB68     		ldr	r3, [r7, #8]
 1678 0186 1A68     		ldr	r2, [r3]
 1679 0188 4B4B     		ldr	r3, .L149
 1680 018a B3F8B032 		ldrh	r3, [r3, #688]
 1681 018e 1946     		mov	r1, r3
 1682 0190 3B69     		ldr	r3, [r7, #16]
 1683 0192 03FB01F1 		mul	r1, r3, r1
 1684 0196 484B     		ldr	r3, .L149
 1685 0198 B3F9B232 		ldrsh	r3, [r3, #690]
 1686 019c C3F58063 		rsb	r3, r3, #1024
 1687 01a0 91FBF3F3 		sdiv	r3, r1, r3
 1688 01a4 1A44     		add	r2, r2, r3
 1689 01a6 BB68     		ldr	r3, [r7, #8]
 1690 01a8 1A60     		str	r2, [r3]
 1691              	.LBE4:
 684:..\src/interruptions.c ****                     }
 685:..\src/interruptions.c ****                     else {
 686:..\src/interruptions.c ****                         err_joy_1 = g_adc_meas.joystick[0] + c_mem.JOY_spec.joystick_threshold;
 687:..\src/interruptions.c ****                         if(g_adc_meas.joystick[0] < -c_mem.JOY_spec.joystick_threshold) {  //both m
 688:..\src/interruptions.c ****                             st_ref_p->pos += ((int32) err_joy_1 * c_mem.JOY_spec.joystick_closure_s
 689:..\src/interruptions.c ****                         }
 690:..\src/interruptions.c ****                     }
 691:..\src/interruptions.c ****                 }
 692:..\src/interruptions.c ****                 else {  //The button is pressed and the motor reference is gradually set to zero 
 693:..\src/interruptions.c ****                     st_ref_p->pos -= (int32) g_mem.JOY_spec.joystick_closure_speed;
 694:..\src/interruptions.c ****                 }
 695:..\src/interruptions.c ****             }
ARM GAS  C:\Users\Mattia\AppData\Local\Temp\cc59Yqin.s 			page 43


 696:..\src/interruptions.c ****             else {
 697:..\src/interruptions.c ****                 // Code for two motors devices. Use both direction to give speed references
 698:..\src/interruptions.c ****                 if (c_mem.dev.dev_type == SOFTHAND_2_MOTORS){
 699:..\src/interruptions.c ****                     compute_SoftHand_2_motors_joystick_reference(motor_idx, st_ref_p, st_refOld_p);
 700:..\src/interruptions.c ****                 }
 701:..\src/interruptions.c ****             }
 702:..\src/interruptions.c ****             break;
 1692              		.loc 1 702 0
 1693 01aa A5E1     		b	.L142
 1694              	.L103:
 1695              	.LBB5:
 686:..\src/interruptions.c ****                         if(g_adc_meas.joystick[0] < -c_mem.JOY_spec.joystick_threshold) {  //both m
 1696              		.loc 1 686 0
 1697 01ac 434B     		ldr	r3, .L149+4
 1698 01ae 1B6A     		ldr	r3, [r3, #32]
 1699 01b0 414A     		ldr	r2, .L149
 1700 01b2 B2F9B222 		ldrsh	r2, [r2, #690]
 1701 01b6 1344     		add	r3, r3, r2
 1702 01b8 3B61     		str	r3, [r7, #16]
 687:..\src/interruptions.c ****                             st_ref_p->pos += ((int32) err_joy_1 * c_mem.JOY_spec.joystick_closure_s
 1703              		.loc 1 687 0
 1704 01ba 404B     		ldr	r3, .L149+4
 1705 01bc 1A6A     		ldr	r2, [r3, #32]
 1706 01be 3E4B     		ldr	r3, .L149
 1707 01c0 B3F9B232 		ldrsh	r3, [r3, #690]
 1708 01c4 5B42     		negs	r3, r3
 1709 01c6 9A42     		cmp	r2, r3
 1710 01c8 80F29681 		bge	.L142
 688:..\src/interruptions.c ****                         }
 1711              		.loc 1 688 0
 1712 01cc BB68     		ldr	r3, [r7, #8]
 1713 01ce 1A68     		ldr	r2, [r3]
 1714 01d0 394B     		ldr	r3, .L149
 1715 01d2 B3F8B032 		ldrh	r3, [r3, #688]
 1716 01d6 1946     		mov	r1, r3
 1717 01d8 3B69     		ldr	r3, [r7, #16]
 1718 01da 03FB01F1 		mul	r1, r3, r1
 1719 01de 364B     		ldr	r3, .L149
 1720 01e0 B3F9B232 		ldrsh	r3, [r3, #690]
 1721 01e4 C3F58063 		rsb	r3, r3, #1024
 1722 01e8 91FBF3F3 		sdiv	r3, r1, r3
 1723 01ec 1A44     		add	r2, r2, r3
 1724 01ee BB68     		ldr	r3, [r7, #8]
 1725 01f0 1A60     		str	r2, [r3]
 1726              	.LBE5:
 1727              		.loc 1 702 0
 1728 01f2 81E1     		b	.L142
 1729              	.L102:
 693:..\src/interruptions.c ****                 }
 1730              		.loc 1 693 0
 1731 01f4 BB68     		ldr	r3, [r7, #8]
 1732 01f6 1B68     		ldr	r3, [r3]
 1733 01f8 324A     		ldr	r2, .L149+12
 1734 01fa B2F8B022 		ldrh	r2, [r2, #688]
 1735 01fe 9A1A     		subs	r2, r3, r2
 1736 0200 BB68     		ldr	r3, [r7, #8]
 1737 0202 1A60     		str	r2, [r3]
ARM GAS  C:\Users\Mattia\AppData\Local\Temp\cc59Yqin.s 			page 44


 1738              		.loc 1 702 0
 1739 0204 78E1     		b	.L142
 1740              	.L101:
 698:..\src/interruptions.c ****                     compute_SoftHand_2_motors_joystick_reference(motor_idx, st_ref_p, st_refOld_p);
 1741              		.loc 1 698 0
 1742 0206 2C4B     		ldr	r3, .L149
 1743 0208 93F8AC30 		ldrb	r3, [r3, #172]	@ zero_extendqisi2
 1744 020c 042B     		cmp	r3, #4
 1745 020e 40F07381 		bne	.L142
 699:..\src/interruptions.c ****                 }
 1746              		.loc 1 699 0
 1747 0212 FB7B     		ldrb	r3, [r7, #15]	@ zero_extendqisi2
 1748 0214 7A68     		ldr	r2, [r7, #4]
 1749 0216 B968     		ldr	r1, [r7, #8]
 1750 0218 1846     		mov	r0, r3
 1751 021a FFF7FEFF 		bl	compute_SoftHand_2_motors_joystick_reference
 1752              		.loc 1 702 0
 1753 021e 6BE1     		b	.L142
 1754              	.L89:
 703:..\src/interruptions.c ****             
 704:..\src/interruptions.c ****         case INPUT_MODE_EMG_PROPORTIONAL:
 705:..\src/interruptions.c ****             if (err_emg_1 > 0)
 1755              		.loc 1 705 0
 1756 0220 BB69     		ldr	r3, [r7, #24]
 1757 0222 002B     		cmp	r3, #0
 1758 0224 15DD     		ble	.L107
 706:..\src/interruptions.c ****                 st_ref_p->pos = (err_emg_1 * g_mem.motor[motor_idx].pos_lim_sup) / (1024 - c_mem.em
 1759              		.loc 1 706 0
 1760 0226 FA7B     		ldrb	r2, [r7, #15]	@ zero_extendqisi2
 1761 0228 2649     		ldr	r1, .L149+12
 1762 022a 1346     		mov	r3, r2
 1763 022c DB00     		lsls	r3, r3, #3
 1764 022e 9B1A     		subs	r3, r3, r2
 1765 0230 1B01     		lsls	r3, r3, #4
 1766 0232 0B44     		add	r3, r3, r1
 1767 0234 E833     		adds	r3, r3, #232
 1768 0236 1B68     		ldr	r3, [r3]
 1769 0238 BA69     		ldr	r2, [r7, #24]
 1770 023a 02FB03F2 		mul	r2, r2, r3
 1771 023e 1E4B     		ldr	r3, .L149
 1772 0240 B3F8F031 		ldrh	r3, [r3, #496]
 1773 0244 C3F58063 		rsb	r3, r3, #1024
 1774 0248 92FBF3F2 		sdiv	r2, r2, r3
 1775 024c BB68     		ldr	r3, [r7, #8]
 1776 024e 1A60     		str	r2, [r3]
 707:..\src/interruptions.c ****             else
 708:..\src/interruptions.c ****                 st_ref_p->pos = 0;
 709:..\src/interruptions.c ****             break;
 1777              		.loc 1 709 0
 1778 0250 5BE1     		b	.L100
 1779              	.L107:
 708:..\src/interruptions.c ****             break;
 1780              		.loc 1 708 0
 1781 0252 BB68     		ldr	r3, [r7, #8]
 1782 0254 0022     		movs	r2, #0
 1783 0256 1A60     		str	r2, [r3]
 1784              		.loc 1 709 0
ARM GAS  C:\Users\Mattia\AppData\Local\Temp\cc59Yqin.s 			page 45


 1785 0258 57E1     		b	.L100
 1786              	.L94:
 710:..\src/interruptions.c ****         
 711:..\src/interruptions.c ****         case INPUT_MODE_EMG_PROPORTIONAL_NC:
 712:..\src/interruptions.c ****             if (err_emg_1 > 0)
 1787              		.loc 1 712 0
 1788 025a BB69     		ldr	r3, [r7, #24]
 1789 025c 002B     		cmp	r3, #0
 1790 025e 1FDD     		ble	.L109
 713:..\src/interruptions.c ****                 st_ref_p->pos = g_mem.motor[motor_idx].pos_lim_sup - (err_emg_1 * g_mem.motor[motor
 1791              		.loc 1 713 0
 1792 0260 FA7B     		ldrb	r2, [r7, #15]	@ zero_extendqisi2
 1793 0262 1849     		ldr	r1, .L149+12
 1794 0264 1346     		mov	r3, r2
 1795 0266 DB00     		lsls	r3, r3, #3
 1796 0268 9B1A     		subs	r3, r3, r2
 1797 026a 1B01     		lsls	r3, r3, #4
 1798 026c 0B44     		add	r3, r3, r1
 1799 026e E833     		adds	r3, r3, #232
 1800 0270 1968     		ldr	r1, [r3]
 1801 0272 FA7B     		ldrb	r2, [r7, #15]	@ zero_extendqisi2
 1802 0274 1348     		ldr	r0, .L149+12
 1803 0276 1346     		mov	r3, r2
 1804 0278 DB00     		lsls	r3, r3, #3
 1805 027a 9B1A     		subs	r3, r3, r2
 1806 027c 1B01     		lsls	r3, r3, #4
 1807 027e 0344     		add	r3, r3, r0
 1808 0280 E833     		adds	r3, r3, #232
 1809 0282 1B68     		ldr	r3, [r3]
 1810 0284 BA69     		ldr	r2, [r7, #24]
 1811 0286 02FB03F2 		mul	r2, r2, r3
 1812 028a 0B4B     		ldr	r3, .L149
 1813 028c B3F8F031 		ldrh	r3, [r3, #496]
 1814 0290 C3F58063 		rsb	r3, r3, #1024
 1815 0294 92FBF3F3 		sdiv	r3, r2, r3
 1816 0298 CA1A     		subs	r2, r1, r3
 1817 029a BB68     		ldr	r3, [r7, #8]
 1818 029c 1A60     		str	r2, [r3]
 714:..\src/interruptions.c ****             else
 715:..\src/interruptions.c ****                 st_ref_p->pos = g_mem.motor[motor_idx].pos_lim_sup;
 716:..\src/interruptions.c ****             break;
 1819              		.loc 1 716 0
 1820 029e 34E1     		b	.L100
 1821              	.L109:
 715:..\src/interruptions.c ****             break;
 1822              		.loc 1 715 0
 1823 02a0 FA7B     		ldrb	r2, [r7, #15]	@ zero_extendqisi2
 1824 02a2 0849     		ldr	r1, .L149+12
 1825 02a4 1346     		mov	r3, r2
 1826 02a6 DB00     		lsls	r3, r3, #3
 1827 02a8 9B1A     		subs	r3, r3, r2
 1828 02aa 1B01     		lsls	r3, r3, #4
 1829 02ac 0B44     		add	r3, r3, r1
 1830 02ae E833     		adds	r3, r3, #232
 1831 02b0 1A68     		ldr	r2, [r3]
 1832 02b2 BB68     		ldr	r3, [r7, #8]
 1833 02b4 1A60     		str	r2, [r3]
ARM GAS  C:\Users\Mattia\AppData\Local\Temp\cc59Yqin.s 			page 46


 1834              		.loc 1 716 0
 1835 02b6 28E1     		b	.L100
 1836              	.L150:
 1837              		.align	2
 1838              	.L149:
 1839 02b8 00000000 		.word	c_mem
 1840 02bc 00000000 		.word	g_adc_meas
 1841 02c0 00000000 		.word	g_meas
 1842 02c4 00000000 		.word	g_mem
 1843              	.L90:
 717:..\src/interruptions.c **** 
 718:..\src/interruptions.c ****         case INPUT_MODE_EMG_INTEGRAL:
 719:..\src/interruptions.c ****             st_ref_p->pos = st_refOld_p->pos;
 1844              		.loc 1 719 0
 1845 02c8 7B68     		ldr	r3, [r7, #4]
 1846 02ca 1A68     		ldr	r2, [r3]
 1847 02cc BB68     		ldr	r3, [r7, #8]
 1848 02ce 1A60     		str	r2, [r3]
 720:..\src/interruptions.c ****             if (err_emg_1 > 0) {
 1849              		.loc 1 720 0
 1850 02d0 BB69     		ldr	r3, [r7, #24]
 1851 02d2 002B     		cmp	r3, #0
 1852 02d4 13DD     		ble	.L111
 721:..\src/interruptions.c ****                 st_ref_p->pos = st_refOld_p->pos + (err_emg_1 * (int)g_mem.emg.emg_speed[0] * 2) / 
 1853              		.loc 1 721 0
 1854 02d6 7B68     		ldr	r3, [r7, #4]
 1855 02d8 1A68     		ldr	r2, [r3]
 1856 02da 884B     		ldr	r3, .L151
 1857 02dc 93F8FC31 		ldrb	r3, [r3, #508]	@ zero_extendqisi2
 1858 02e0 1946     		mov	r1, r3
 1859 02e2 BB69     		ldr	r3, [r7, #24]
 1860 02e4 03FB01F3 		mul	r3, r3, r1
 1861 02e8 5900     		lsls	r1, r3, #1
 1862 02ea 854B     		ldr	r3, .L151+4
 1863 02ec B3F8F031 		ldrh	r3, [r3, #496]
 1864 02f0 C3F58063 		rsb	r3, r3, #1024
 1865 02f4 91FBF3F3 		sdiv	r3, r1, r3
 1866 02f8 1A44     		add	r2, r2, r3
 1867 02fa BB68     		ldr	r3, [r7, #8]
 1868 02fc 1A60     		str	r2, [r3]
 1869              	.L111:
 722:..\src/interruptions.c ****             }
 723:..\src/interruptions.c ****             if (err_emg_2 > 0) {
 1870              		.loc 1 723 0
 1871 02fe 7B69     		ldr	r3, [r7, #20]
 1872 0300 002B     		cmp	r3, #0
 1873 0302 40F30181 		ble	.L143
 724:..\src/interruptions.c ****                 st_ref_p->pos = st_refOld_p->pos - (err_emg_2 * (int)g_mem.emg.emg_speed[1] * 2) / 
 1874              		.loc 1 724 0
 1875 0306 7B68     		ldr	r3, [r7, #4]
 1876 0308 1A68     		ldr	r2, [r3]
 1877 030a 7C4B     		ldr	r3, .L151
 1878 030c 93F8FD31 		ldrb	r3, [r3, #509]	@ zero_extendqisi2
 1879 0310 1946     		mov	r1, r3
 1880 0312 7B69     		ldr	r3, [r7, #20]
 1881 0314 03FB01F3 		mul	r3, r3, r1
 1882 0318 5900     		lsls	r1, r3, #1
ARM GAS  C:\Users\Mattia\AppData\Local\Temp\cc59Yqin.s 			page 47


 1883 031a 794B     		ldr	r3, .L151+4
 1884 031c B3F8F231 		ldrh	r3, [r3, #498]
 1885 0320 C3F58063 		rsb	r3, r3, #1024
 1886 0324 91FBF3F3 		sdiv	r3, r1, r3
 1887 0328 D21A     		subs	r2, r2, r3
 1888 032a BB68     		ldr	r3, [r7, #8]
 1889 032c 1A60     		str	r2, [r3]
 725:..\src/interruptions.c ****             }
 726:..\src/interruptions.c ****             break;
 1890              		.loc 1 726 0
 1891 032e EBE0     		b	.L143
 1892              	.L91:
 727:..\src/interruptions.c **** 
 728:..\src/interruptions.c ****         case INPUT_MODE_EMG_FCFS:
 729:..\src/interruptions.c ****             st_ref_p->pos = st_refOld_p->pos;
 1893              		.loc 1 729 0
 1894 0330 7B68     		ldr	r3, [r7, #4]
 1895 0332 1A68     		ldr	r2, [r3]
 1896 0334 BB68     		ldr	r3, [r7, #8]
 1897 0336 1A60     		str	r2, [r3]
 730:..\src/interruptions.c ****             if (c_mem.dev.dev_type != SOFTHAND_2_MOTORS){
 1898              		.loc 1 730 0
 1899 0338 714B     		ldr	r3, .L151+4
 1900 033a 93F8AC30 		ldrb	r3, [r3, #172]	@ zero_extendqisi2
 1901 033e 042B     		cmp	r3, #4
 1902 0340 5BD0     		beq	.L113
 731:..\src/interruptions.c ****                 switch (current_emg[motor_idx]) {
 1903              		.loc 1 731 0
 1904 0342 FB7B     		ldrb	r3, [r7, #15]	@ zero_extendqisi2
 1905 0344 6F4A     		ldr	r2, .L151+8
 1906 0346 D35C     		ldrb	r3, [r2, r3]	@ zero_extendqisi2
 1907 0348 012B     		cmp	r3, #1
 1908 034a 1CD0     		beq	.L115
 1909 034c 022B     		cmp	r3, #2
 1910 034e 37D0     		beq	.L116
 1911 0350 002B     		cmp	r3, #0
 1912 0352 00D0     		beq	.L117
 732:..\src/interruptions.c ****                     case 0:
 733:..\src/interruptions.c ****                         // Look for the first EMG passing the threshold
 734:..\src/interruptions.c ****                         if (err_emg_1 > 0 && err_emg_1 > err_emg_2) {
 735:..\src/interruptions.c ****                             current_emg[motor_idx] = 1;
 736:..\src/interruptions.c ****                             break;
 737:..\src/interruptions.c ****                         }
 738:..\src/interruptions.c ****                         if (err_emg_2 > 0 && err_emg_2 > err_emg_1) {
 739:..\src/interruptions.c ****                             current_emg[motor_idx] = 2;
 740:..\src/interruptions.c ****                             break;
 741:..\src/interruptions.c ****                         }
 742:..\src/interruptions.c ****                         break;
 743:..\src/interruptions.c **** 
 744:..\src/interruptions.c ****                     case 1:
 745:..\src/interruptions.c ****                         // EMG 1 is first
 746:..\src/interruptions.c ****                         if (err_emg_1 < 0) {
 747:..\src/interruptions.c ****                             current_emg[motor_idx] = 0;
 748:..\src/interruptions.c ****                             break;
 749:..\src/interruptions.c ****                         }
 750:..\src/interruptions.c ****                         st_ref_p->pos = st_refOld_p->pos + (err_emg_1 * g_mem.emg.emg_speed[0] << 2
 751:..\src/interruptions.c ****                         break;
ARM GAS  C:\Users\Mattia\AppData\Local\Temp\cc59Yqin.s 			page 48


 752:..\src/interruptions.c **** 
 753:..\src/interruptions.c ****                     case 2:
 754:..\src/interruptions.c ****                         // EMG 2 is first
 755:..\src/interruptions.c ****                         if (err_emg_2 < 0) {
 756:..\src/interruptions.c ****                             current_emg[motor_idx] = 0;
 757:..\src/interruptions.c ****                             break;
 758:..\src/interruptions.c ****                         }
 759:..\src/interruptions.c ****                         st_ref_p->pos = st_refOld_p->pos - (err_emg_2 * g_mem.emg.emg_speed[1] << 2
 760:..\src/interruptions.c ****                         break;
 761:..\src/interruptions.c **** 
 762:..\src/interruptions.c ****                     default:
 763:..\src/interruptions.c ****                         break;
 1913              		.loc 1 763 0
 1914 0354 5BE0     		b	.L123
 1915              	.L117:
 734:..\src/interruptions.c ****                             current_emg[motor_idx] = 1;
 1916              		.loc 1 734 0
 1917 0356 BB69     		ldr	r3, [r7, #24]
 1918 0358 002B     		cmp	r3, #0
 1919 035a 08DD     		ble	.L118
 734:..\src/interruptions.c ****                             current_emg[motor_idx] = 1;
 1920              		.loc 1 734 0 is_stmt 0 discriminator 1
 1921 035c BA69     		ldr	r2, [r7, #24]
 1922 035e 7B69     		ldr	r3, [r7, #20]
 1923 0360 9A42     		cmp	r2, r3
 1924 0362 04DD     		ble	.L118
 735:..\src/interruptions.c ****                             break;
 1925              		.loc 1 735 0 is_stmt 1
 1926 0364 FB7B     		ldrb	r3, [r7, #15]	@ zero_extendqisi2
 1927 0366 674A     		ldr	r2, .L151+8
 1928 0368 0121     		movs	r1, #1
 1929 036a D154     		strb	r1, [r2, r3]
 736:..\src/interruptions.c ****                         }
 1930              		.loc 1 736 0
 1931 036c 4FE0     		b	.L123
 1932              	.L118:
 738:..\src/interruptions.c ****                             current_emg[motor_idx] = 2;
 1933              		.loc 1 738 0
 1934 036e 7B69     		ldr	r3, [r7, #20]
 1935 0370 002B     		cmp	r3, #0
 1936 0372 4BDD     		ble	.L144
 738:..\src/interruptions.c ****                             current_emg[motor_idx] = 2;
 1937              		.loc 1 738 0 is_stmt 0 discriminator 1
 1938 0374 7A69     		ldr	r2, [r7, #20]
 1939 0376 BB69     		ldr	r3, [r7, #24]
 1940 0378 9A42     		cmp	r2, r3
 1941 037a 47DD     		ble	.L144
 739:..\src/interruptions.c ****                             break;
 1942              		.loc 1 739 0 is_stmt 1
 1943 037c FB7B     		ldrb	r3, [r7, #15]	@ zero_extendqisi2
 1944 037e 614A     		ldr	r2, .L151+8
 1945 0380 0221     		movs	r1, #2
 1946 0382 D154     		strb	r1, [r2, r3]
 740:..\src/interruptions.c ****                         }
 1947              		.loc 1 740 0
 1948 0384 43E0     		b	.L123
 1949              	.L115:
ARM GAS  C:\Users\Mattia\AppData\Local\Temp\cc59Yqin.s 			page 49


 746:..\src/interruptions.c ****                             current_emg[motor_idx] = 0;
 1950              		.loc 1 746 0
 1951 0386 BB69     		ldr	r3, [r7, #24]
 1952 0388 002B     		cmp	r3, #0
 1953 038a 04DA     		bge	.L121
 747:..\src/interruptions.c ****                             break;
 1954              		.loc 1 747 0
 1955 038c FB7B     		ldrb	r3, [r7, #15]	@ zero_extendqisi2
 1956 038e 5D4A     		ldr	r2, .L151+8
 1957 0390 0021     		movs	r1, #0
 1958 0392 D154     		strb	r1, [r2, r3]
 748:..\src/interruptions.c ****                         }
 1959              		.loc 1 748 0
 1960 0394 3BE0     		b	.L123
 1961              	.L121:
 750:..\src/interruptions.c ****                         break;
 1962              		.loc 1 750 0
 1963 0396 7B68     		ldr	r3, [r7, #4]
 1964 0398 1A68     		ldr	r2, [r3]
 1965 039a 584B     		ldr	r3, .L151
 1966 039c 93F8FC31 		ldrb	r3, [r3, #508]	@ zero_extendqisi2
 1967 03a0 1946     		mov	r1, r3
 1968 03a2 BB69     		ldr	r3, [r7, #24]
 1969 03a4 03FB01F3 		mul	r3, r3, r1
 1970 03a8 9900     		lsls	r1, r3, #2
 1971 03aa 554B     		ldr	r3, .L151+4
 1972 03ac B3F8F031 		ldrh	r3, [r3, #496]
 1973 03b0 C3F58063 		rsb	r3, r3, #1024
 1974 03b4 91FBF3F3 		sdiv	r3, r1, r3
 1975 03b8 1A44     		add	r2, r2, r3
 1976 03ba BB68     		ldr	r3, [r7, #8]
 1977 03bc 1A60     		str	r2, [r3]
 751:..\src/interruptions.c **** 
 1978              		.loc 1 751 0
 1979 03be 26E0     		b	.L123
 1980              	.L116:
 755:..\src/interruptions.c ****                             current_emg[motor_idx] = 0;
 1981              		.loc 1 755 0
 1982 03c0 7B69     		ldr	r3, [r7, #20]
 1983 03c2 002B     		cmp	r3, #0
 1984 03c4 04DA     		bge	.L122
 756:..\src/interruptions.c ****                             break;
 1985              		.loc 1 756 0
 1986 03c6 FB7B     		ldrb	r3, [r7, #15]	@ zero_extendqisi2
 1987 03c8 4E4A     		ldr	r2, .L151+8
 1988 03ca 0021     		movs	r1, #0
 1989 03cc D154     		strb	r1, [r2, r3]
 757:..\src/interruptions.c ****                         }
 1990              		.loc 1 757 0
 1991 03ce 1EE0     		b	.L123
 1992              	.L122:
 759:..\src/interruptions.c ****                         break;
 1993              		.loc 1 759 0
 1994 03d0 7B68     		ldr	r3, [r7, #4]
 1995 03d2 1A68     		ldr	r2, [r3]
 1996 03d4 494B     		ldr	r3, .L151
 1997 03d6 93F8FD31 		ldrb	r3, [r3, #509]	@ zero_extendqisi2
ARM GAS  C:\Users\Mattia\AppData\Local\Temp\cc59Yqin.s 			page 50


 1998 03da 1946     		mov	r1, r3
 1999 03dc 7B69     		ldr	r3, [r7, #20]
 2000 03de 03FB01F3 		mul	r3, r3, r1
 2001 03e2 9900     		lsls	r1, r3, #2
 2002 03e4 464B     		ldr	r3, .L151+4
 2003 03e6 B3F8F231 		ldrh	r3, [r3, #498]
 2004 03ea C3F58063 		rsb	r3, r3, #1024
 2005 03ee 91FBF3F3 		sdiv	r3, r1, r3
 2006 03f2 D21A     		subs	r2, r2, r3
 2007 03f4 BB68     		ldr	r3, [r7, #8]
 2008 03f6 1A60     		str	r2, [r3]
 760:..\src/interruptions.c **** 
 2009              		.loc 1 760 0
 2010 03f8 09E0     		b	.L123
 2011              	.L113:
 764:..\src/interruptions.c ****                 }
 765:..\src/interruptions.c ****             }
 766:..\src/interruptions.c ****             else{ // case SOFTHAND_2_MOTORS
 767:..\src/interruptions.c ****                 //compute reference using a FSM for choosing the right sinergy to activate
 768:..\src/interruptions.c ****                 compute_SoftHand_2_motors_emg_reference(motor_idx, st_ref_p, st_refOld_p, err_emg_1
 2012              		.loc 1 768 0
 2013 03fa F87B     		ldrb	r0, [r7, #15]	@ zero_extendqisi2
 2014 03fc 7B69     		ldr	r3, [r7, #20]
 2015 03fe 0093     		str	r3, [sp]
 2016 0400 BB69     		ldr	r3, [r7, #24]
 2017 0402 7A68     		ldr	r2, [r7, #4]
 2018 0404 B968     		ldr	r1, [r7, #8]
 2019 0406 FFF7FEFF 		bl	compute_SoftHand_2_motors_emg_reference
 769:..\src/interruptions.c ****             }
 770:..\src/interruptions.c ****             break;
 2020              		.loc 1 770 0
 2021 040a 7EE0     		b	.L100
 2022              	.L144:
 742:..\src/interruptions.c **** 
 2023              		.loc 1 742 0
 2024 040c 00BF     		nop
 2025              	.L123:
 2026              		.loc 1 770 0 discriminator 5
 2027 040e 7CE0     		b	.L100
 2028              	.L92:
 771:..\src/interruptions.c **** 
 772:..\src/interruptions.c ****         case INPUT_MODE_EMG_FCFS_ADV:
 773:..\src/interruptions.c ****             st_ref_p->pos = st_refOld_p->pos;
 2029              		.loc 1 773 0
 2030 0410 7B68     		ldr	r3, [r7, #4]
 2031 0412 1A68     		ldr	r2, [r3]
 2032 0414 BB68     		ldr	r3, [r7, #8]
 2033 0416 1A60     		str	r2, [r3]
 774:..\src/interruptions.c ****             switch (current_emg[motor_idx]) {
 2034              		.loc 1 774 0
 2035 0418 FB7B     		ldrb	r3, [r7, #15]	@ zero_extendqisi2
 2036 041a 3A4A     		ldr	r2, .L151+8
 2037 041c D35C     		ldrb	r3, [r2, r3]	@ zero_extendqisi2
 2038 041e 012B     		cmp	r3, #1
 2039 0420 1CD0     		beq	.L125
 2040 0422 022B     		cmp	r3, #2
 2041 0424 3DD0     		beq	.L126
ARM GAS  C:\Users\Mattia\AppData\Local\Temp\cc59Yqin.s 			page 51


 2042 0426 002B     		cmp	r3, #0
 2043 0428 00D0     		beq	.L127
 775:..\src/interruptions.c ****                 // Look for the first EMG passing the threshold
 776:..\src/interruptions.c ****                 case 0:
 777:..\src/interruptions.c ****                     if (err_emg_1 > 0 && err_emg_1 > err_emg_2) {
 778:..\src/interruptions.c ****                         current_emg[motor_idx] = 1;
 779:..\src/interruptions.c ****                         break;
 780:..\src/interruptions.c ****                     }
 781:..\src/interruptions.c ****                     if (err_emg_2 > 0 && err_emg_2 > err_emg_1) {
 782:..\src/interruptions.c ****                         current_emg[motor_idx] = 2;
 783:..\src/interruptions.c ****                         break;
 784:..\src/interruptions.c ****                     }
 785:..\src/interruptions.c ****                     break;
 786:..\src/interruptions.c **** 
 787:..\src/interruptions.c ****                 // EMG 1 is first
 788:..\src/interruptions.c ****                 case 1:
 789:..\src/interruptions.c ****                     // If both signals are under threshold go back to status 0
 790:..\src/interruptions.c ****                     if ((err_emg_1 < 0) && (err_emg_2 < 0)) {
 791:..\src/interruptions.c ****                         current_emg[motor_idx] = 0;
 792:..\src/interruptions.c ****                         break;
 793:..\src/interruptions.c ****                     }
 794:..\src/interruptions.c ****                     // but if the current signal come back over threshold, continue using it
 795:..\src/interruptions.c ****                     if (err_emg_1 > 0) 
 796:..\src/interruptions.c ****                         st_ref_p->pos = st_refOld_p->pos + (err_emg_1 * g_mem.emg.emg_speed[0] << 2
 797:..\src/interruptions.c ****                     
 798:..\src/interruptions.c ****                     break;
 799:..\src/interruptions.c **** 
 800:..\src/interruptions.c ****                 // EMG 2 is first
 801:..\src/interruptions.c ****                 case 2:
 802:..\src/interruptions.c ****                     // If both signals are under threshold go back to status 0
 803:..\src/interruptions.c ****                     if ((err_emg_1 < 0) && (err_emg_2 < 0)) {
 804:..\src/interruptions.c ****                         current_emg[motor_idx] = 0;
 805:..\src/interruptions.c ****                         break;
 806:..\src/interruptions.c ****                     }
 807:..\src/interruptions.c ****                     // but if the current signal come back over threshold, continue using it
 808:..\src/interruptions.c ****                     if (err_emg_2 > 0) {
 809:..\src/interruptions.c ****                         st_ref_p->pos = st_refOld_p->pos - (err_emg_2 * c_mem.emg.emg_speed[1] << 2
 810:..\src/interruptions.c ****                     }
 811:..\src/interruptions.c ****                     break;
 812:..\src/interruptions.c **** 
 813:..\src/interruptions.c ****                 default:
 814:..\src/interruptions.c ****                     break;
 2044              		.loc 1 814 0
 2045 042a 62E0     		b	.L129
 2046              	.L127:
 777:..\src/interruptions.c ****                         current_emg[motor_idx] = 1;
 2047              		.loc 1 777 0
 2048 042c BB69     		ldr	r3, [r7, #24]
 2049 042e 002B     		cmp	r3, #0
 2050 0430 08DD     		ble	.L128
 777:..\src/interruptions.c ****                         current_emg[motor_idx] = 1;
 2051              		.loc 1 777 0 is_stmt 0 discriminator 1
 2052 0432 BA69     		ldr	r2, [r7, #24]
 2053 0434 7B69     		ldr	r3, [r7, #20]
 2054 0436 9A42     		cmp	r2, r3
 2055 0438 04DD     		ble	.L128
 778:..\src/interruptions.c ****                         break;
ARM GAS  C:\Users\Mattia\AppData\Local\Temp\cc59Yqin.s 			page 52


 2056              		.loc 1 778 0 is_stmt 1
 2057 043a FB7B     		ldrb	r3, [r7, #15]	@ zero_extendqisi2
 2058 043c 314A     		ldr	r2, .L151+8
 2059 043e 0121     		movs	r1, #1
 2060 0440 D154     		strb	r1, [r2, r3]
 779:..\src/interruptions.c ****                     }
 2061              		.loc 1 779 0
 2062 0442 56E0     		b	.L129
 2063              	.L128:
 781:..\src/interruptions.c ****                         current_emg[motor_idx] = 2;
 2064              		.loc 1 781 0
 2065 0444 7B69     		ldr	r3, [r7, #20]
 2066 0446 002B     		cmp	r3, #0
 2067 0448 4EDD     		ble	.L145
 781:..\src/interruptions.c ****                         current_emg[motor_idx] = 2;
 2068              		.loc 1 781 0 is_stmt 0 discriminator 1
 2069 044a 7A69     		ldr	r2, [r7, #20]
 2070 044c BB69     		ldr	r3, [r7, #24]
 2071 044e 9A42     		cmp	r2, r3
 2072 0450 4ADD     		ble	.L145
 782:..\src/interruptions.c ****                         break;
 2073              		.loc 1 782 0 is_stmt 1
 2074 0452 FB7B     		ldrb	r3, [r7, #15]	@ zero_extendqisi2
 2075 0454 2B4A     		ldr	r2, .L151+8
 2076 0456 0221     		movs	r1, #2
 2077 0458 D154     		strb	r1, [r2, r3]
 783:..\src/interruptions.c ****                     }
 2078              		.loc 1 783 0
 2079 045a 4AE0     		b	.L129
 2080              	.L125:
 790:..\src/interruptions.c ****                         current_emg[motor_idx] = 0;
 2081              		.loc 1 790 0
 2082 045c BB69     		ldr	r3, [r7, #24]
 2083 045e 002B     		cmp	r3, #0
 2084 0460 07DA     		bge	.L131
 790:..\src/interruptions.c ****                         current_emg[motor_idx] = 0;
 2085              		.loc 1 790 0 is_stmt 0 discriminator 1
 2086 0462 7B69     		ldr	r3, [r7, #20]
 2087 0464 002B     		cmp	r3, #0
 2088 0466 04DA     		bge	.L131
 791:..\src/interruptions.c ****                         break;
 2089              		.loc 1 791 0 is_stmt 1
 2090 0468 FB7B     		ldrb	r3, [r7, #15]	@ zero_extendqisi2
 2091 046a 264A     		ldr	r2, .L151+8
 2092 046c 0021     		movs	r1, #0
 2093 046e D154     		strb	r1, [r2, r3]
 792:..\src/interruptions.c ****                     }
 2094              		.loc 1 792 0
 2095 0470 3FE0     		b	.L129
 2096              	.L131:
 795:..\src/interruptions.c ****                         st_ref_p->pos = st_refOld_p->pos + (err_emg_1 * g_mem.emg.emg_speed[0] << 2
 2097              		.loc 1 795 0
 2098 0472 BB69     		ldr	r3, [r7, #24]
 2099 0474 002B     		cmp	r3, #0
 2100 0476 39DD     		ble	.L146
 796:..\src/interruptions.c ****                     
 2101              		.loc 1 796 0
ARM GAS  C:\Users\Mattia\AppData\Local\Temp\cc59Yqin.s 			page 53


 2102 0478 7B68     		ldr	r3, [r7, #4]
 2103 047a 1A68     		ldr	r2, [r3]
 2104 047c 1F4B     		ldr	r3, .L151
 2105 047e 93F8FC31 		ldrb	r3, [r3, #508]	@ zero_extendqisi2
 2106 0482 1946     		mov	r1, r3
 2107 0484 BB69     		ldr	r3, [r7, #24]
 2108 0486 03FB01F3 		mul	r3, r3, r1
 2109 048a 9900     		lsls	r1, r3, #2
 2110 048c 1C4B     		ldr	r3, .L151+4
 2111 048e B3F8F031 		ldrh	r3, [r3, #496]
 2112 0492 C3F58063 		rsb	r3, r3, #1024
 2113 0496 91FBF3F3 		sdiv	r3, r1, r3
 2114 049a 1A44     		add	r2, r2, r3
 2115 049c BB68     		ldr	r3, [r7, #8]
 2116 049e 1A60     		str	r2, [r3]
 798:..\src/interruptions.c **** 
 2117              		.loc 1 798 0
 2118 04a0 24E0     		b	.L146
 2119              	.L126:
 803:..\src/interruptions.c ****                         current_emg[motor_idx] = 0;
 2120              		.loc 1 803 0
 2121 04a2 BB69     		ldr	r3, [r7, #24]
 2122 04a4 002B     		cmp	r3, #0
 2123 04a6 07DA     		bge	.L133
 803:..\src/interruptions.c ****                         current_emg[motor_idx] = 0;
 2124              		.loc 1 803 0 is_stmt 0 discriminator 1
 2125 04a8 7B69     		ldr	r3, [r7, #20]
 2126 04aa 002B     		cmp	r3, #0
 2127 04ac 04DA     		bge	.L133
 804:..\src/interruptions.c ****                         break;
 2128              		.loc 1 804 0 is_stmt 1
 2129 04ae FB7B     		ldrb	r3, [r7, #15]	@ zero_extendqisi2
 2130 04b0 144A     		ldr	r2, .L151+8
 2131 04b2 0021     		movs	r1, #0
 2132 04b4 D154     		strb	r1, [r2, r3]
 805:..\src/interruptions.c ****                     }
 2133              		.loc 1 805 0
 2134 04b6 1CE0     		b	.L129
 2135              	.L133:
 808:..\src/interruptions.c ****                         st_ref_p->pos = st_refOld_p->pos - (err_emg_2 * c_mem.emg.emg_speed[1] << 2
 2136              		.loc 1 808 0
 2137 04b8 7B69     		ldr	r3, [r7, #20]
 2138 04ba 002B     		cmp	r3, #0
 2139 04bc 18DD     		ble	.L147
 809:..\src/interruptions.c ****                     }
 2140              		.loc 1 809 0
 2141 04be 7B68     		ldr	r3, [r7, #4]
 2142 04c0 1A68     		ldr	r2, [r3]
 2143 04c2 0F4B     		ldr	r3, .L151+4
 2144 04c4 93F8FD31 		ldrb	r3, [r3, #509]	@ zero_extendqisi2
 2145 04c8 1946     		mov	r1, r3
 2146 04ca 7B69     		ldr	r3, [r7, #20]
 2147 04cc 03FB01F3 		mul	r3, r3, r1
 2148 04d0 9900     		lsls	r1, r3, #2
 2149 04d2 0B4B     		ldr	r3, .L151+4
 2150 04d4 B3F8F231 		ldrh	r3, [r3, #498]
 2151 04d8 C3F58063 		rsb	r3, r3, #1024
ARM GAS  C:\Users\Mattia\AppData\Local\Temp\cc59Yqin.s 			page 54


 2152 04dc 91FBF3F3 		sdiv	r3, r1, r3
 2153 04e0 D21A     		subs	r2, r2, r3
 2154 04e2 BB68     		ldr	r3, [r7, #8]
 2155 04e4 1A60     		str	r2, [r3]
 811:..\src/interruptions.c **** 
 2156              		.loc 1 811 0
 2157 04e6 03E0     		b	.L147
 2158              	.L145:
 785:..\src/interruptions.c **** 
 2159              		.loc 1 785 0
 2160 04e8 00BF     		nop
 2161 04ea 0EE0     		b	.L100
 2162              	.L146:
 798:..\src/interruptions.c **** 
 2163              		.loc 1 798 0
 2164 04ec 00BF     		nop
 2165 04ee 0CE0     		b	.L100
 2166              	.L147:
 811:..\src/interruptions.c **** 
 2167              		.loc 1 811 0
 2168 04f0 00BF     		nop
 2169              	.L129:
 815:..\src/interruptions.c ****             }
 816:..\src/interruptions.c ****             break;
 2170              		.loc 1 816 0 discriminator 6
 2171 04f2 0AE0     		b	.L100
 2172              	.L141:
 817:..\src/interruptions.c **** 
 818:..\src/interruptions.c ****         default:
 819:..\src/interruptions.c ****             break;
 2173              		.loc 1 819 0
 2174 04f4 00BF     		nop
 2175 04f6 08E0     		b	.L100
 2176              	.L142:
 702:..\src/interruptions.c ****             
 2177              		.loc 1 702 0
 2178 04f8 00BF     		nop
 2179 04fa 06E0     		b	.L100
 2180              	.L152:
 2181              		.align	2
 2182              	.L151:
 2183 04fc 00000000 		.word	g_mem
 2184 0500 00000000 		.word	c_mem
 2185 0504 8C000000 		.word	current_emg.10491
 2186              	.L143:
 726:..\src/interruptions.c **** 
 2187              		.loc 1 726 0
 2188 0508 00BF     		nop
 2189              	.L100:
 820:..\src/interruptions.c ****     }
 821:..\src/interruptions.c **** 
 822:..\src/interruptions.c ****     // Position limit saturation
 823:..\src/interruptions.c ****     if (MOT->pos_lim_flag) {
 2190              		.loc 1 823 0
 2191 050a 3B6A     		ldr	r3, [r7, #32]
 2192 050c 93F83330 		ldrb	r3, [r3, #51]	@ zero_extendqisi2
 2193 0510 002B     		cmp	r3, #0
ARM GAS  C:\Users\Mattia\AppData\Local\Temp\cc59Yqin.s 			page 55


 2194 0512 13D0     		beq	.L135
 824:..\src/interruptions.c ****         if (st_ref_p->pos < MOT->pos_lim_inf) 
 2195              		.loc 1 824 0
 2196 0514 BB68     		ldr	r3, [r7, #8]
 2197 0516 1A68     		ldr	r2, [r3]
 2198 0518 3B6A     		ldr	r3, [r7, #32]
 2199 051a 5B6B     		ldr	r3, [r3, #52]
 2200 051c 9A42     		cmp	r2, r3
 2201 051e 03DA     		bge	.L136
 825:..\src/interruptions.c ****             st_ref_p->pos = MOT->pos_lim_inf;
 2202              		.loc 1 825 0
 2203 0520 3B6A     		ldr	r3, [r7, #32]
 2204 0522 5A6B     		ldr	r2, [r3, #52]
 2205 0524 BB68     		ldr	r3, [r7, #8]
 2206 0526 1A60     		str	r2, [r3]
 2207              	.L136:
 826:..\src/interruptions.c ****         if (st_ref_p->pos > MOT->pos_lim_sup) 
 2208              		.loc 1 826 0
 2209 0528 BB68     		ldr	r3, [r7, #8]
 2210 052a 1A68     		ldr	r2, [r3]
 2211 052c 3B6A     		ldr	r3, [r7, #32]
 2212 052e 9B6B     		ldr	r3, [r3, #56]
 2213 0530 9A42     		cmp	r2, r3
 2214 0532 03DD     		ble	.L135
 827:..\src/interruptions.c ****             st_ref_p->pos = MOT->pos_lim_sup;
 2215              		.loc 1 827 0
 2216 0534 3B6A     		ldr	r3, [r7, #32]
 2217 0536 9A6B     		ldr	r2, [r3, #56]
 2218 0538 BB68     		ldr	r3, [r7, #8]
 2219 053a 1A60     		str	r2, [r3]
 2220              	.L135:
 828:..\src/interruptions.c ****     }
 829:..\src/interruptions.c ****     
 830:..\src/interruptions.c ****     // SAFETY
 831:..\src/interruptions.c ****     if (battery_low_SoC == TRUE) {
 2221              		.loc 1 831 0
 2222 053c 1D4B     		ldr	r3, .L153
 2223 053e 1B78     		ldrb	r3, [r3]	@ zero_extendqisi2
 2224 0540 012B     		cmp	r3, #1
 2225 0542 02D1     		bne	.L137
 832:..\src/interruptions.c ****         //Reopen the terminal device before disabling motor
 833:..\src/interruptions.c ****         st_ref_p->pos = 0;
 2226              		.loc 1 833 0
 2227 0544 BB68     		ldr	r3, [r7, #8]
 2228 0546 0022     		movs	r2, #0
 2229 0548 1A60     		str	r2, [r3]
 2230              	.L137:
 834:..\src/interruptions.c ****     }      
 835:..\src/interruptions.c ****     
 836:..\src/interruptions.c ****        
 837:..\src/interruptions.c ****     if (c_mem.SH.rest_position_flag == TRUE) {
 2231              		.loc 1 837 0
 2232 054a 1B4B     		ldr	r3, .L153+4
 2233 054c 93F8AC32 		ldrb	r3, [r3, #684]	@ zero_extendqisi2
 2234 0550 012B     		cmp	r3, #1
 2235 0552 2AD1     		bne	.L148
 838:..\src/interruptions.c ****         if (rest_enabled == 1){
ARM GAS  C:\Users\Mattia\AppData\Local\Temp\cc59Yqin.s 			page 56


 2236              		.loc 1 838 0
 2237 0554 194B     		ldr	r3, .L153+8
 2238 0556 1B78     		ldrb	r3, [r3]	@ zero_extendqisi2
 2239 0558 012B     		cmp	r3, #1
 2240 055a 03D1     		bne	.L139
 839:..\src/interruptions.c ****             // Change position reference to drive motor to rest position smoothly
 840:..\src/interruptions.c ****             st_ref_p->pos = rest_pos_curr_ref;
 2241              		.loc 1 840 0
 2242 055c 184B     		ldr	r3, .L153+12
 2243 055e 1A68     		ldr	r2, [r3]
 2244 0560 BB68     		ldr	r3, [r7, #8]
 2245 0562 1A60     		str	r2, [r3]
 2246              	.L139:
 841:..\src/interruptions.c ****         }
 842:..\src/interruptions.c ****         
 843:..\src/interruptions.c ****         if (forced_open == 1) {
 2247              		.loc 1 843 0
 2248 0564 174B     		ldr	r3, .L153+16
 2249 0566 1B78     		ldrb	r3, [r3]	@ zero_extendqisi2
 2250 0568 012B     		cmp	r3, #1
 2251 056a 1ED1     		bne	.L148
 844:..\src/interruptions.c ****             // Open the SoftHand as EMG PROPORTIONAL input mode 
 845:..\src/interruptions.c ****             if (err_emg_2 > 0)
 2252              		.loc 1 845 0
 2253 056c 7B69     		ldr	r3, [r7, #20]
 2254 056e 002B     		cmp	r3, #0
 2255 0570 13DD     		ble	.L140
 846:..\src/interruptions.c ****                 st_ref_p->pos = g_mem.SH.rest_pos - (err_emg_2 * g_mem.SH.rest_pos) / (1024 - c_mem
 2256              		.loc 1 846 0
 2257 0572 154B     		ldr	r3, .L153+20
 2258 0574 D3F8A022 		ldr	r2, [r3, #672]
 2259 0578 134B     		ldr	r3, .L153+20
 2260 057a D3F8A032 		ldr	r3, [r3, #672]
 2261 057e 7969     		ldr	r1, [r7, #20]
 2262 0580 01FB03F1 		mul	r1, r1, r3
 2263 0584 0C4B     		ldr	r3, .L153+4
 2264 0586 B3F8F231 		ldrh	r3, [r3, #498]
 2265 058a C3F58063 		rsb	r3, r3, #1024
 2266 058e 91FBF3F3 		sdiv	r3, r1, r3
 2267 0592 D21A     		subs	r2, r2, r3
 2268 0594 BB68     		ldr	r3, [r7, #8]
 2269 0596 1A60     		str	r2, [r3]
 847:..\src/interruptions.c ****             else {
 848:..\src/interruptions.c ****                 st_ref_p->pos = g_mem.SH.rest_pos;
 849:..\src/interruptions.c ****                 forced_open = 0;
 850:..\src/interruptions.c ****             }
 851:..\src/interruptions.c ****         }
 852:..\src/interruptions.c ****     }
 853:..\src/interruptions.c **** }
 2270              		.loc 1 853 0
 2271 0598 07E0     		b	.L148
 2272              	.L140:
 848:..\src/interruptions.c ****                 forced_open = 0;
 2273              		.loc 1 848 0
 2274 059a 0B4B     		ldr	r3, .L153+20
 2275 059c D3F8A022 		ldr	r2, [r3, #672]
 2276 05a0 BB68     		ldr	r3, [r7, #8]
ARM GAS  C:\Users\Mattia\AppData\Local\Temp\cc59Yqin.s 			page 57


 2277 05a2 1A60     		str	r2, [r3]
 849:..\src/interruptions.c ****             }
 2278              		.loc 1 849 0
 2279 05a4 074B     		ldr	r3, .L153+16
 2280 05a6 0022     		movs	r2, #0
 2281 05a8 1A70     		strb	r2, [r3]
 2282              	.L148:
 2283              		.loc 1 853 0
 2284 05aa 00BF     		nop
 2285 05ac 2837     		adds	r7, r7, #40
 2286              		.cfi_def_cfa_offset 8
 2287 05ae BD46     		mov	sp, r7
 2288              		.cfi_def_cfa_register 13
 2289              		@ sp needed
 2290 05b0 80BD     		pop	{r7, pc}
 2291              	.L154:
 2292 05b2 00BF     		.align	2
 2293              	.L153:
 2294 05b4 00000000 		.word	battery_low_SoC
 2295 05b8 00000000 		.word	c_mem
 2296 05bc 00000000 		.word	rest_enabled
 2297 05c0 00000000 		.word	rest_pos_curr_ref
 2298 05c4 00000000 		.word	forced_open
 2299 05c8 00000000 		.word	g_mem
 2300              		.cfi_endproc
 2301              	.LFE68:
 2302              		.size	compute_reference, .-compute_reference
 2303              		.section	.text.compute_SoftHand_2_motors_joystick_reference,"ax",%progbits
 2304              		.align	2
 2305              		.global	compute_SoftHand_2_motors_joystick_reference
 2306              		.thumb
 2307              		.thumb_func
 2308              		.type	compute_SoftHand_2_motors_joystick_reference, %function
 2309              	compute_SoftHand_2_motors_joystick_reference:
 2310              	.LFB69:
 854:..\src/interruptions.c **** 
 855:..\src/interruptions.c **** 
 856:..\src/interruptions.c **** //==============================================================================
 857:..\src/interruptions.c **** //                                  COMPUTE SOFTHAND 2 MOTORS JOYSTICK REFERENCE
 858:..\src/interruptions.c **** //==============================================================================
 859:..\src/interruptions.c **** void compute_SoftHand_2_motors_joystick_reference(uint8 motor_idx, struct st_ref* st_ref_p, struct 
 2311              		.loc 1 859 0
 2312              		.cfi_startproc
 2313              		@ args = 0, pretend = 0, frame = 32
 2314              		@ frame_needed = 1, uses_anonymous_args = 0
 2315              		@ link register save eliminated.
 2316 0000 80B4     		push	{r7}
 2317              		.cfi_def_cfa_offset 4
 2318              		.cfi_offset 7, -4
 2319 0002 89B0     		sub	sp, sp, #36
 2320              		.cfi_def_cfa_offset 40
 2321 0004 00AF     		add	r7, sp, #0
 2322              		.cfi_def_cfa_register 7
 2323 0006 0346     		mov	r3, r0
 2324 0008 B960     		str	r1, [r7, #8]
 2325 000a 7A60     		str	r2, [r7, #4]
 2326 000c FB73     		strb	r3, [r7, #15]
ARM GAS  C:\Users\Mattia\AppData\Local\Temp\cc59Yqin.s 			page 58


 860:..\src/interruptions.c ****     
 861:..\src/interruptions.c ****     if (c_mem.motor[0].input_mode == INPUT_MODE_JOYSTICK && c_mem.motor[1].input_mode == INPUT_MODE
 2327              		.loc 1 861 0
 2328 000e B04B     		ldr	r3, .L176
 2329 0010 93F80E31 		ldrb	r3, [r3, #270]	@ zero_extendqisi2
 2330 0014 062B     		cmp	r3, #6
 2331 0016 40F08581 		bne	.L174
 2332              		.loc 1 861 0 is_stmt 0 discriminator 1
 2333 001a AD4B     		ldr	r3, .L176
 2334 001c 93F87E31 		ldrb	r3, [r3, #382]	@ zero_extendqisi2
 2335 0020 062B     		cmp	r3, #6
 2336 0022 40F07F81 		bne	.L174
 862:..\src/interruptions.c ****         st_ref_p->pos = st_refOld_p->pos;
 2337              		.loc 1 862 0 is_stmt 1
 2338 0026 7B68     		ldr	r3, [r7, #4]
 2339 0028 1A68     		ldr	r2, [r3]
 2340 002a BB68     		ldr	r3, [r7, #8]
 2341 002c 1A60     		str	r2, [r3]
 863:..\src/interruptions.c ****     
 864:..\src/interruptions.c ****         if(!(g_adc_meas.joystick[0] > 700)) {
 2342              		.loc 1 864 0
 2343 002e A94B     		ldr	r3, .L176+4
 2344 0030 1B6A     		ldr	r3, [r3, #32]
 2345 0032 B3F52F7F 		cmp	r3, #700
 2346 0036 00F3C280 		bgt	.L157
 2347              	.LBB6:
 865:..\src/interruptions.c ****              
 866:..\src/interruptions.c ****             int32 CYDATA err_joy_1 = 0;
 2348              		.loc 1 866 0
 2349 003a 0023     		movs	r3, #0
 2350 003c FB61     		str	r3, [r7, #28]
 867:..\src/interruptions.c ****             int32 CYDATA err_joy_2 = 0;
 2351              		.loc 1 867 0
 2352 003e 0023     		movs	r3, #0
 2353 0040 BB61     		str	r3, [r7, #24]
 868:..\src/interruptions.c ****         
 869:..\src/interruptions.c ****             if(g_adc_meas.joystick[0] > c_mem.JOY_spec.joystick_threshold) {     //both motors wind
 2354              		.loc 1 869 0
 2355 0042 A44B     		ldr	r3, .L176+4
 2356 0044 1B6A     		ldr	r3, [r3, #32]
 2357 0046 A24A     		ldr	r2, .L176
 2358 0048 B2F9B222 		ldrsh	r2, [r2, #690]
 2359 004c 9342     		cmp	r3, r2
 2360 004e 1ADD     		ble	.L158
 870:..\src/interruptions.c ****                 err_joy_1 = g_adc_meas.joystick[0] - c_mem.JOY_spec.joystick_threshold;
 2361              		.loc 1 870 0
 2362 0050 A04B     		ldr	r3, .L176+4
 2363 0052 1B6A     		ldr	r3, [r3, #32]
 2364 0054 9E4A     		ldr	r2, .L176
 2365 0056 B2F9B222 		ldrsh	r2, [r2, #690]
 2366 005a 9B1A     		subs	r3, r3, r2
 2367 005c FB61     		str	r3, [r7, #28]
 871:..\src/interruptions.c ****                 st_ref_p->pos += ((int32) err_joy_1 * c_mem.JOY_spec.joystick_closure_speed) / (102
 2368              		.loc 1 871 0
 2369 005e BB68     		ldr	r3, [r7, #8]
 2370 0060 1A68     		ldr	r2, [r3]
 2371 0062 9B4B     		ldr	r3, .L176
ARM GAS  C:\Users\Mattia\AppData\Local\Temp\cc59Yqin.s 			page 59


 2372 0064 B3F8B032 		ldrh	r3, [r3, #688]
 2373 0068 1946     		mov	r1, r3
 2374 006a FB69     		ldr	r3, [r7, #28]
 2375 006c 03FB01F1 		mul	r1, r3, r1
 2376 0070 974B     		ldr	r3, .L176
 2377 0072 B3F9B232 		ldrsh	r3, [r3, #690]
 2378 0076 C3F58063 		rsb	r3, r3, #1024
 2379 007a 91FBF3F3 		sdiv	r3, r1, r3
 2380 007e 1A44     		add	r2, r2, r3
 2381 0080 BB68     		ldr	r3, [r7, #8]
 2382 0082 1A60     		str	r2, [r3]
 2383 0084 21E0     		b	.L159
 2384              	.L158:
 872:..\src/interruptions.c ****             }
 873:..\src/interruptions.c ****             else {
 874:..\src/interruptions.c ****                 if(g_adc_meas.joystick[0] < -c_mem.JOY_spec.joystick_threshold) {  //both motors un
 2385              		.loc 1 874 0
 2386 0086 934B     		ldr	r3, .L176+4
 2387 0088 1A6A     		ldr	r2, [r3, #32]
 2388 008a 914B     		ldr	r3, .L176
 2389 008c B3F9B232 		ldrsh	r3, [r3, #690]
 2390 0090 5B42     		negs	r3, r3
 2391 0092 9A42     		cmp	r2, r3
 2392 0094 19DA     		bge	.L159
 875:..\src/interruptions.c ****                     err_joy_1 = g_adc_meas.joystick[0] + c_mem.JOY_spec.joystick_threshold;
 2393              		.loc 1 875 0
 2394 0096 8F4B     		ldr	r3, .L176+4
 2395 0098 1B6A     		ldr	r3, [r3, #32]
 2396 009a 8D4A     		ldr	r2, .L176
 2397 009c B2F9B222 		ldrsh	r2, [r2, #690]
 2398 00a0 1344     		add	r3, r3, r2
 2399 00a2 FB61     		str	r3, [r7, #28]
 876:..\src/interruptions.c ****                     st_ref_p->pos += ((int32) err_joy_1 * c_mem.JOY_spec.joystick_closure_speed) / 
 2400              		.loc 1 876 0
 2401 00a4 BB68     		ldr	r3, [r7, #8]
 2402 00a6 1A68     		ldr	r2, [r3]
 2403 00a8 894B     		ldr	r3, .L176
 2404 00aa B3F8B032 		ldrh	r3, [r3, #688]
 2405 00ae 1946     		mov	r1, r3
 2406 00b0 FB69     		ldr	r3, [r7, #28]
 2407 00b2 03FB01F1 		mul	r1, r3, r1
 2408 00b6 864B     		ldr	r3, .L176
 2409 00b8 B3F9B232 		ldrsh	r3, [r3, #690]
 2410 00bc C3F58063 		rsb	r3, r3, #1024
 2411 00c0 91FBF3F3 		sdiv	r3, r1, r3
 2412 00c4 1A44     		add	r2, r2, r3
 2413 00c6 BB68     		ldr	r3, [r7, #8]
 2414 00c8 1A60     		str	r2, [r3]
 2415              	.L159:
 877:..\src/interruptions.c ****                 }
 878:..\src/interruptions.c ****             }
 879:..\src/interruptions.c **** 
 880:..\src/interruptions.c ****             if(g_adc_meas.joystick[1] > c_mem.JOY_spec.joystick_threshold) {    //The wire is winde
 2416              		.loc 1 880 0
 2417 00ca 824B     		ldr	r3, .L176+4
 2418 00cc 5B6A     		ldr	r3, [r3, #36]
 2419 00ce 804A     		ldr	r2, .L176
ARM GAS  C:\Users\Mattia\AppData\Local\Temp\cc59Yqin.s 			page 60


 2420 00d0 B2F9B222 		ldrsh	r2, [r2, #690]
 2421 00d4 9342     		cmp	r3, r2
 2422 00d6 34DD     		ble	.L160
 881:..\src/interruptions.c ****                 err_joy_2 = g_adc_meas.joystick[1] - c_mem.JOY_spec.joystick_threshold;
 2423              		.loc 1 881 0
 2424 00d8 7E4B     		ldr	r3, .L176+4
 2425 00da 5B6A     		ldr	r3, [r3, #36]
 2426 00dc 7C4A     		ldr	r2, .L176
 2427 00de B2F9B222 		ldrsh	r2, [r2, #690]
 2428 00e2 9B1A     		subs	r3, r3, r2
 2429 00e4 BB61     		str	r3, [r7, #24]
 882:..\src/interruptions.c ****                 if (motor_idx == 0){
 2430              		.loc 1 882 0
 2431 00e6 FB7B     		ldrb	r3, [r7, #15]	@ zero_extendqisi2
 2432 00e8 002B     		cmp	r3, #0
 2433 00ea 12D1     		bne	.L161
 883:..\src/interruptions.c ****                     st_ref_p->pos += ((int32) err_joy_2 * c_mem.JOY_spec.joystick_closure_speed) / 
 2434              		.loc 1 883 0
 2435 00ec BB68     		ldr	r3, [r7, #8]
 2436 00ee 1A68     		ldr	r2, [r3]
 2437 00f0 774B     		ldr	r3, .L176
 2438 00f2 B3F8B032 		ldrh	r3, [r3, #688]
 2439 00f6 1946     		mov	r1, r3
 2440 00f8 BB69     		ldr	r3, [r7, #24]
 2441 00fa 03FB01F1 		mul	r1, r3, r1
 2442 00fe 744B     		ldr	r3, .L176
 2443 0100 B3F9B232 		ldrsh	r3, [r3, #690]
 2444 0104 C3F58063 		rsb	r3, r3, #1024
 2445 0108 91FBF3F3 		sdiv	r3, r1, r3
 2446 010c 1A44     		add	r2, r2, r3
 2447 010e BB68     		ldr	r3, [r7, #8]
 2448 0110 1A60     		str	r2, [r3]
 2449              	.L161:
 884:..\src/interruptions.c ****                 }
 885:..\src/interruptions.c ****                 if (motor_idx == 1){
 2450              		.loc 1 885 0
 2451 0112 FB7B     		ldrb	r3, [r7, #15]	@ zero_extendqisi2
 2452 0114 012B     		cmp	r3, #1
 2453 0116 40F00581 		bne	.L174
 886:..\src/interruptions.c ****                     st_ref_p->pos -= ((int32) err_joy_2 * c_mem.JOY_spec.joystick_closure_speed) / 
 2454              		.loc 1 886 0
 2455 011a BB68     		ldr	r3, [r7, #8]
 2456 011c 1A68     		ldr	r2, [r3]
 2457 011e 6C4B     		ldr	r3, .L176
 2458 0120 B3F8B032 		ldrh	r3, [r3, #688]
 2459 0124 1946     		mov	r1, r3
 2460 0126 BB69     		ldr	r3, [r7, #24]
 2461 0128 03FB01F1 		mul	r1, r3, r1
 2462 012c 684B     		ldr	r3, .L176
 2463 012e B3F9B232 		ldrsh	r3, [r3, #690]
 2464 0132 C3F58063 		rsb	r3, r3, #1024
 2465 0136 91FBF3F3 		sdiv	r3, r1, r3
 2466 013a D21A     		subs	r2, r2, r3
 2467 013c BB68     		ldr	r3, [r7, #8]
 2468 013e 1A60     		str	r2, [r3]
 2469              	.LBE6:
 887:..\src/interruptions.c ****                 }          
ARM GAS  C:\Users\Mattia\AppData\Local\Temp\cc59Yqin.s 			page 61


 888:..\src/interruptions.c ****             }
 889:..\src/interruptions.c ****             else {
 890:..\src/interruptions.c ****                 if(g_adc_meas.joystick[1] < -c_mem.JOY_spec.joystick_threshold) {  //The wire is un
 891:..\src/interruptions.c ****                     
 892:..\src/interruptions.c ****                     err_joy_2 = g_adc_meas.joystick[1] + c_mem.JOY_spec.joystick_threshold;
 893:..\src/interruptions.c ****                     if (motor_idx == 0){
 894:..\src/interruptions.c ****                         st_ref_p->pos += ((int32) err_joy_2 * c_mem.JOY_spec.joystick_closure_speed
 895:..\src/interruptions.c ****                     }
 896:..\src/interruptions.c ****                     if (motor_idx == 1){
 897:..\src/interruptions.c ****                         st_ref_p->pos -= ((int32) err_joy_2 * c_mem.JOY_spec.joystick_closure_speed
 898:..\src/interruptions.c ****                     }
 899:..\src/interruptions.c ****                 }
 900:..\src/interruptions.c ****             }
 901:..\src/interruptions.c ****         }
 902:..\src/interruptions.c ****         else {  //The button is pressed and the hand is opened firstly making the position differen
 903:..\src/interruptions.c ****                 //equal to zero, then the position sum is gradually set to zero 
 904:..\src/interruptions.c ****             int32 pos_diff = (g_meas[c_mem.motor[0].encoder_line].pos[0] - g_meas[c_mem.motor[0].en
 905:..\src/interruptions.c ****             int32 pos_sum = (g_meas[c_mem.motor[0].encoder_line].pos[0] + g_meas[c_mem.motor[0].enc
 906:..\src/interruptions.c **** 
 907:..\src/interruptions.c ****             if(pos_diff > 500 || pos_diff < -500) {
 908:..\src/interruptions.c ****                 if(SIGN(pos_diff) == 1) {
 909:..\src/interruptions.c ****                     if (motor_idx == 1){
 910:..\src/interruptions.c ****                         st_ref_p->pos += c_mem.JOY_spec.joystick_closure_speed;
 911:..\src/interruptions.c ****                     }
 912:..\src/interruptions.c ****                     if (motor_idx == 0){
 913:..\src/interruptions.c ****                         st_ref_p->pos -= c_mem.JOY_spec.joystick_closure_speed / 2;
 914:..\src/interruptions.c ****                     }                    
 915:..\src/interruptions.c ****                 }
 916:..\src/interruptions.c ****                 else {
 917:..\src/interruptions.c ****                     if (motor_idx == 0){
 918:..\src/interruptions.c ****                         st_ref_p->pos += c_mem.JOY_spec.joystick_closure_speed;
 919:..\src/interruptions.c ****                     }
 920:..\src/interruptions.c ****                     if (motor_idx == 1){
 921:..\src/interruptions.c ****                         st_ref_p->pos -= c_mem.JOY_spec.joystick_closure_speed / 2;
 922:..\src/interruptions.c ****                     }
 923:..\src/interruptions.c ****                 }
 924:..\src/interruptions.c ****                 
 925:..\src/interruptions.c ****             }
 926:..\src/interruptions.c ****             else {
 927:..\src/interruptions.c ****                 if(pos_sum > 0) {
 928:..\src/interruptions.c ****                     if (motor_idx == 0){
 929:..\src/interruptions.c ****                         st_ref_p->pos -= c_mem.JOY_spec.joystick_closure_speed * 2;
 930:..\src/interruptions.c ****                     }
 931:..\src/interruptions.c ****                     if (motor_idx == 1){
 932:..\src/interruptions.c ****                         st_ref_p->pos -= c_mem.JOY_spec.joystick_closure_speed * 2;
 933:..\src/interruptions.c ****                     }
 934:..\src/interruptions.c ****                     
 935:..\src/interruptions.c ****                     if (st_ref_p->pos < 0){
 936:..\src/interruptions.c ****                         st_ref_p->pos = 0;
 937:..\src/interruptions.c ****                     }
 938:..\src/interruptions.c ****                 }
 939:..\src/interruptions.c ****             }
 940:..\src/interruptions.c ****         }
 941:..\src/interruptions.c ****     }           
 942:..\src/interruptions.c **** }
 2470              		.loc 1 942 0
 2471 0140 F0E0     		b	.L174
ARM GAS  C:\Users\Mattia\AppData\Local\Temp\cc59Yqin.s 			page 62


 2472              	.L160:
 2473              	.LBB7:
 890:..\src/interruptions.c ****                     
 2474              		.loc 1 890 0
 2475 0142 644B     		ldr	r3, .L176+4
 2476 0144 5A6A     		ldr	r2, [r3, #36]
 2477 0146 624B     		ldr	r3, .L176
 2478 0148 B3F9B232 		ldrsh	r3, [r3, #690]
 2479 014c 5B42     		negs	r3, r3
 2480 014e 9A42     		cmp	r2, r3
 2481 0150 80F2E880 		bge	.L174
 892:..\src/interruptions.c ****                     if (motor_idx == 0){
 2482              		.loc 1 892 0
 2483 0154 5F4B     		ldr	r3, .L176+4
 2484 0156 5B6A     		ldr	r3, [r3, #36]
 2485 0158 5D4A     		ldr	r2, .L176
 2486 015a B2F9B222 		ldrsh	r2, [r2, #690]
 2487 015e 1344     		add	r3, r3, r2
 2488 0160 BB61     		str	r3, [r7, #24]
 893:..\src/interruptions.c ****                         st_ref_p->pos += ((int32) err_joy_2 * c_mem.JOY_spec.joystick_closure_speed
 2489              		.loc 1 893 0
 2490 0162 FB7B     		ldrb	r3, [r7, #15]	@ zero_extendqisi2
 2491 0164 002B     		cmp	r3, #0
 2492 0166 12D1     		bne	.L164
 894:..\src/interruptions.c ****                     }
 2493              		.loc 1 894 0
 2494 0168 BB68     		ldr	r3, [r7, #8]
 2495 016a 1A68     		ldr	r2, [r3]
 2496 016c 584B     		ldr	r3, .L176
 2497 016e B3F8B032 		ldrh	r3, [r3, #688]
 2498 0172 1946     		mov	r1, r3
 2499 0174 BB69     		ldr	r3, [r7, #24]
 2500 0176 03FB01F1 		mul	r1, r3, r1
 2501 017a 554B     		ldr	r3, .L176
 2502 017c B3F9B232 		ldrsh	r3, [r3, #690]
 2503 0180 C3F58063 		rsb	r3, r3, #1024
 2504 0184 91FBF3F3 		sdiv	r3, r1, r3
 2505 0188 1A44     		add	r2, r2, r3
 2506 018a BB68     		ldr	r3, [r7, #8]
 2507 018c 1A60     		str	r2, [r3]
 2508              	.L164:
 896:..\src/interruptions.c ****                         st_ref_p->pos -= ((int32) err_joy_2 * c_mem.JOY_spec.joystick_closure_speed
 2509              		.loc 1 896 0
 2510 018e FB7B     		ldrb	r3, [r7, #15]	@ zero_extendqisi2
 2511 0190 012B     		cmp	r3, #1
 2512 0192 40F0C780 		bne	.L174
 897:..\src/interruptions.c ****                     }
 2513              		.loc 1 897 0
 2514 0196 BB68     		ldr	r3, [r7, #8]
 2515 0198 1A68     		ldr	r2, [r3]
 2516 019a 4D4B     		ldr	r3, .L176
 2517 019c B3F8B032 		ldrh	r3, [r3, #688]
 2518 01a0 1946     		mov	r1, r3
 2519 01a2 BB69     		ldr	r3, [r7, #24]
 2520 01a4 03FB01F1 		mul	r1, r3, r1
 2521 01a8 494B     		ldr	r3, .L176
 2522 01aa B3F9B232 		ldrsh	r3, [r3, #690]
ARM GAS  C:\Users\Mattia\AppData\Local\Temp\cc59Yqin.s 			page 63


 2523 01ae C3F58063 		rsb	r3, r3, #1024
 2524 01b2 91FBF3F3 		sdiv	r3, r1, r3
 2525 01b6 D21A     		subs	r2, r2, r3
 2526 01b8 BB68     		ldr	r3, [r7, #8]
 2527 01ba 1A60     		str	r2, [r3]
 2528              	.LBE7:
 2529              		.loc 1 942 0
 2530 01bc B2E0     		b	.L174
 2531              	.L157:
 2532              	.LBB8:
 904:..\src/interruptions.c ****             int32 pos_sum = (g_meas[c_mem.motor[0].encoder_line].pos[0] + g_meas[c_mem.motor[0].enc
 2533              		.loc 1 904 0
 2534 01be 444B     		ldr	r3, .L176
 2535 01c0 93F81031 		ldrb	r3, [r3, #272]	@ zero_extendqisi2
 2536 01c4 1946     		mov	r1, r3
 2537 01c6 444A     		ldr	r2, .L176+8
 2538 01c8 3423     		movs	r3, #52
 2539 01ca 03FB01F3 		mul	r3, r3, r1
 2540 01ce 1344     		add	r3, r3, r2
 2541 01d0 1A68     		ldr	r2, [r3]
 2542 01d2 3F4B     		ldr	r3, .L176
 2543 01d4 93F81031 		ldrb	r3, [r3, #272]	@ zero_extendqisi2
 2544 01d8 1846     		mov	r0, r3
 2545 01da 3F49     		ldr	r1, .L176+8
 2546 01dc 3423     		movs	r3, #52
 2547 01de 03FB00F3 		mul	r3, r3, r0
 2548 01e2 0B44     		add	r3, r3, r1
 2549 01e4 0433     		adds	r3, r3, #4
 2550 01e6 1B68     		ldr	r3, [r3]
 2551 01e8 D21A     		subs	r2, r2, r3
 2552 01ea 394B     		ldr	r3, .L176
 2553 01ec 93F81031 		ldrb	r3, [r3, #272]	@ zero_extendqisi2
 2554 01f0 1846     		mov	r0, r3
 2555 01f2 3749     		ldr	r1, .L176
 2556 01f4 0346     		mov	r3, r0
 2557 01f6 5B00     		lsls	r3, r3, #1
 2558 01f8 0344     		add	r3, r3, r0
 2559 01fa 1B01     		lsls	r3, r3, #4
 2560 01fc 0B44     		add	r3, r3, r1
 2561 01fe 03F29513 		addw	r3, r3, #405
 2562 0202 1B78     		ldrb	r3, [r3]	@ zero_extendqisi2
 2563 0204 42FA03F3 		asr	r3, r2, r3
 2564 0208 7B61     		str	r3, [r7, #20]
 905:..\src/interruptions.c **** 
 2565              		.loc 1 905 0
 2566 020a 314B     		ldr	r3, .L176
 2567 020c 93F81031 		ldrb	r3, [r3, #272]	@ zero_extendqisi2
 2568 0210 1946     		mov	r1, r3
 2569 0212 314A     		ldr	r2, .L176+8
 2570 0214 3423     		movs	r3, #52
 2571 0216 03FB01F3 		mul	r3, r3, r1
 2572 021a 1344     		add	r3, r3, r2
 2573 021c 1A68     		ldr	r2, [r3]
 2574 021e 2C4B     		ldr	r3, .L176
 2575 0220 93F81031 		ldrb	r3, [r3, #272]	@ zero_extendqisi2
 2576 0224 1846     		mov	r0, r3
 2577 0226 2C49     		ldr	r1, .L176+8
ARM GAS  C:\Users\Mattia\AppData\Local\Temp\cc59Yqin.s 			page 64


 2578 0228 3423     		movs	r3, #52
 2579 022a 03FB00F3 		mul	r3, r3, r0
 2580 022e 0B44     		add	r3, r3, r1
 2581 0230 0433     		adds	r3, r3, #4
 2582 0232 1B68     		ldr	r3, [r3]
 2583 0234 1A44     		add	r2, r2, r3
 2584 0236 264B     		ldr	r3, .L176
 2585 0238 93F81031 		ldrb	r3, [r3, #272]	@ zero_extendqisi2
 2586 023c 1846     		mov	r0, r3
 2587 023e 2449     		ldr	r1, .L176
 2588 0240 0346     		mov	r3, r0
 2589 0242 5B00     		lsls	r3, r3, #1
 2590 0244 0344     		add	r3, r3, r0
 2591 0246 1B01     		lsls	r3, r3, #4
 2592 0248 0B44     		add	r3, r3, r1
 2593 024a 03F29513 		addw	r3, r3, #405
 2594 024e 1B78     		ldrb	r3, [r3]	@ zero_extendqisi2
 2595 0250 42FA03F3 		asr	r3, r2, r3
 2596 0254 3B61     		str	r3, [r7, #16]
 907:..\src/interruptions.c ****                 if(SIGN(pos_diff) == 1) {
 2597              		.loc 1 907 0
 2598 0256 7B69     		ldr	r3, [r7, #20]
 2599 0258 B3F5FA7F 		cmp	r3, #500
 2600 025c 03DC     		bgt	.L165
 907:..\src/interruptions.c ****                 if(SIGN(pos_diff) == 1) {
 2601              		.loc 1 907 0 is_stmt 0 discriminator 1
 2602 025e 7B69     		ldr	r3, [r7, #20]
 2603 0260 13F5FA7F 		cmn	r3, #500
 2604 0264 3ADA     		bge	.L166
 2605              	.L165:
 908:..\src/interruptions.c ****                     if (motor_idx == 1){
 2606              		.loc 1 908 0 is_stmt 1
 2607 0266 7B69     		ldr	r3, [r7, #20]
 2608 0268 002B     		cmp	r3, #0
 2609 026a 18DB     		blt	.L167
 909:..\src/interruptions.c ****                         st_ref_p->pos += c_mem.JOY_spec.joystick_closure_speed;
 2610              		.loc 1 909 0
 2611 026c FB7B     		ldrb	r3, [r7, #15]	@ zero_extendqisi2
 2612 026e 012B     		cmp	r3, #1
 2613 0270 07D1     		bne	.L168
 910:..\src/interruptions.c ****                     }
 2614              		.loc 1 910 0
 2615 0272 BB68     		ldr	r3, [r7, #8]
 2616 0274 1B68     		ldr	r3, [r3]
 2617 0276 164A     		ldr	r2, .L176
 2618 0278 B2F8B022 		ldrh	r2, [r2, #688]
 2619 027c 1A44     		add	r2, r2, r3
 2620 027e BB68     		ldr	r3, [r7, #8]
 2621 0280 1A60     		str	r2, [r3]
 2622              	.L168:
 912:..\src/interruptions.c ****                         st_ref_p->pos -= c_mem.JOY_spec.joystick_closure_speed / 2;
 2623              		.loc 1 912 0
 2624 0282 FB7B     		ldrb	r3, [r7, #15]	@ zero_extendqisi2
 2625 0284 002B     		cmp	r3, #0
 2626 0286 4CD1     		bne	.L175
 913:..\src/interruptions.c ****                     }                    
 2627              		.loc 1 913 0
ARM GAS  C:\Users\Mattia\AppData\Local\Temp\cc59Yqin.s 			page 65


 2628 0288 BB68     		ldr	r3, [r7, #8]
 2629 028a 1B68     		ldr	r3, [r3]
 2630 028c 104A     		ldr	r2, .L176
 2631 028e B2F8B022 		ldrh	r2, [r2, #688]
 2632 0292 5208     		lsrs	r2, r2, #1
 2633 0294 92B2     		uxth	r2, r2
 2634 0296 9A1A     		subs	r2, r3, r2
 2635 0298 BB68     		ldr	r3, [r7, #8]
 2636 029a 1A60     		str	r2, [r3]
 908:..\src/interruptions.c ****                     if (motor_idx == 1){
 2637              		.loc 1 908 0
 2638 029c 41E0     		b	.L175
 2639              	.L167:
 917:..\src/interruptions.c ****                         st_ref_p->pos += c_mem.JOY_spec.joystick_closure_speed;
 2640              		.loc 1 917 0
 2641 029e FB7B     		ldrb	r3, [r7, #15]	@ zero_extendqisi2
 2642 02a0 002B     		cmp	r3, #0
 2643 02a2 07D1     		bne	.L171
 918:..\src/interruptions.c ****                     }
 2644              		.loc 1 918 0
 2645 02a4 BB68     		ldr	r3, [r7, #8]
 2646 02a6 1B68     		ldr	r3, [r3]
 2647 02a8 094A     		ldr	r2, .L176
 2648 02aa B2F8B022 		ldrh	r2, [r2, #688]
 2649 02ae 1A44     		add	r2, r2, r3
 2650 02b0 BB68     		ldr	r3, [r7, #8]
 2651 02b2 1A60     		str	r2, [r3]
 2652              	.L171:
 920:..\src/interruptions.c ****                         st_ref_p->pos -= c_mem.JOY_spec.joystick_closure_speed / 2;
 2653              		.loc 1 920 0
 2654 02b4 FB7B     		ldrb	r3, [r7, #15]	@ zero_extendqisi2
 2655 02b6 012B     		cmp	r3, #1
 2656 02b8 33D1     		bne	.L175
 921:..\src/interruptions.c ****                     }
 2657              		.loc 1 921 0
 2658 02ba BB68     		ldr	r3, [r7, #8]
 2659 02bc 1B68     		ldr	r3, [r3]
 2660 02be 044A     		ldr	r2, .L176
 2661 02c0 B2F8B022 		ldrh	r2, [r2, #688]
 2662 02c4 5208     		lsrs	r2, r2, #1
 2663 02c6 92B2     		uxth	r2, r2
 2664 02c8 9A1A     		subs	r2, r3, r2
 2665 02ca BB68     		ldr	r3, [r7, #8]
 2666 02cc 1A60     		str	r2, [r3]
 908:..\src/interruptions.c ****                     if (motor_idx == 1){
 2667              		.loc 1 908 0
 2668 02ce 28E0     		b	.L175
 2669              	.L177:
 2670              		.align	2
 2671              	.L176:
 2672 02d0 00000000 		.word	c_mem
 2673 02d4 00000000 		.word	g_adc_meas
 2674 02d8 00000000 		.word	g_meas
 2675              	.L166:
 927:..\src/interruptions.c ****                     if (motor_idx == 0){
 2676              		.loc 1 927 0
 2677 02dc 3B69     		ldr	r3, [r7, #16]
ARM GAS  C:\Users\Mattia\AppData\Local\Temp\cc59Yqin.s 			page 66


 2678 02de 002B     		cmp	r3, #0
 2679 02e0 20DD     		ble	.L174
 928:..\src/interruptions.c ****                         st_ref_p->pos -= c_mem.JOY_spec.joystick_closure_speed * 2;
 2680              		.loc 1 928 0
 2681 02e2 FB7B     		ldrb	r3, [r7, #15]	@ zero_extendqisi2
 2682 02e4 002B     		cmp	r3, #0
 2683 02e6 08D1     		bne	.L172
 929:..\src/interruptions.c ****                     }
 2684              		.loc 1 929 0
 2685 02e8 BB68     		ldr	r3, [r7, #8]
 2686 02ea 1A68     		ldr	r2, [r3]
 2687 02ec 104B     		ldr	r3, .L178
 2688 02ee B3F8B032 		ldrh	r3, [r3, #688]
 2689 02f2 5B00     		lsls	r3, r3, #1
 2690 02f4 D21A     		subs	r2, r2, r3
 2691 02f6 BB68     		ldr	r3, [r7, #8]
 2692 02f8 1A60     		str	r2, [r3]
 2693              	.L172:
 931:..\src/interruptions.c ****                         st_ref_p->pos -= c_mem.JOY_spec.joystick_closure_speed * 2;
 2694              		.loc 1 931 0
 2695 02fa FB7B     		ldrb	r3, [r7, #15]	@ zero_extendqisi2
 2696 02fc 012B     		cmp	r3, #1
 2697 02fe 08D1     		bne	.L173
 932:..\src/interruptions.c ****                     }
 2698              		.loc 1 932 0
 2699 0300 BB68     		ldr	r3, [r7, #8]
 2700 0302 1A68     		ldr	r2, [r3]
 2701 0304 0A4B     		ldr	r3, .L178
 2702 0306 B3F8B032 		ldrh	r3, [r3, #688]
 2703 030a 5B00     		lsls	r3, r3, #1
 2704 030c D21A     		subs	r2, r2, r3
 2705 030e BB68     		ldr	r3, [r7, #8]
 2706 0310 1A60     		str	r2, [r3]
 2707              	.L173:
 935:..\src/interruptions.c ****                         st_ref_p->pos = 0;
 2708              		.loc 1 935 0
 2709 0312 BB68     		ldr	r3, [r7, #8]
 2710 0314 1B68     		ldr	r3, [r3]
 2711 0316 002B     		cmp	r3, #0
 2712 0318 04DA     		bge	.L174
 936:..\src/interruptions.c ****                     }
 2713              		.loc 1 936 0
 2714 031a BB68     		ldr	r3, [r7, #8]
 2715 031c 0022     		movs	r2, #0
 2716 031e 1A60     		str	r2, [r3]
 2717              	.LBE8:
 2718              		.loc 1 942 0
 2719 0320 00E0     		b	.L174
 2720              	.L175:
 2721              	.LBB9:
 908:..\src/interruptions.c ****                     if (motor_idx == 1){
 2722              		.loc 1 908 0
 2723 0322 00BF     		nop
 2724              	.L174:
 2725              	.LBE9:
 2726              		.loc 1 942 0
 2727 0324 00BF     		nop
ARM GAS  C:\Users\Mattia\AppData\Local\Temp\cc59Yqin.s 			page 67


 2728 0326 2437     		adds	r7, r7, #36
 2729              		.cfi_def_cfa_offset 4
 2730 0328 BD46     		mov	sp, r7
 2731              		.cfi_def_cfa_register 13
 2732              		@ sp needed
 2733 032a 80BC     		pop	{r7}
 2734              		.cfi_restore 7
 2735              		.cfi_def_cfa_offset 0
 2736 032c 7047     		bx	lr
 2737              	.L179:
 2738 032e 00BF     		.align	2
 2739              	.L178:
 2740 0330 00000000 		.word	c_mem
 2741              		.cfi_endproc
 2742              	.LFE69:
 2743              		.size	compute_SoftHand_2_motors_joystick_reference, .-compute_SoftHand_2_motors_joystick_reference
 2744              		.section	.text.compute_SoftHand_2_motors_emg_reference,"ax",%progbits
 2745              		.align	2
 2746              		.global	compute_SoftHand_2_motors_emg_reference
 2747              		.thumb
 2748              		.thumb_func
 2749              		.type	compute_SoftHand_2_motors_emg_reference, %function
 2750              	compute_SoftHand_2_motors_emg_reference:
 2751              	.LFB70:
 943:..\src/interruptions.c **** 
 944:..\src/interruptions.c **** 
 945:..\src/interruptions.c **** //==============================================================================
 946:..\src/interruptions.c **** //                                       COMPUTE SOFTHAND 2 MOTORS EMG REFERENCE
 947:..\src/interruptions.c **** //==============================================================================
 948:..\src/interruptions.c **** void compute_SoftHand_2_motors_emg_reference(uint8 motor_idx, struct st_ref* st_ref_p, struct st_re
 949:..\src/interruptions.c ****     int32 err_emg_1, int32 err_emg_2) {
 2752              		.loc 1 949 0
 2753              		.cfi_startproc
 2754              		@ args = 4, pretend = 0, frame = 16
 2755              		@ frame_needed = 1, uses_anonymous_args = 0
 2756 0000 80B5     		push	{r7, lr}
 2757              		.cfi_def_cfa_offset 8
 2758              		.cfi_offset 7, -8
 2759              		.cfi_offset 14, -4
 2760 0002 84B0     		sub	sp, sp, #16
 2761              		.cfi_def_cfa_offset 24
 2762 0004 00AF     		add	r7, sp, #0
 2763              		.cfi_def_cfa_register 7
 2764 0006 B960     		str	r1, [r7, #8]
 2765 0008 7A60     		str	r2, [r7, #4]
 2766 000a 3B60     		str	r3, [r7]
 2767 000c 0346     		mov	r3, r0
 2768 000e FB73     		strb	r3, [r7, #15]
 950:..\src/interruptions.c ****     
 951:..\src/interruptions.c ****     //Compute reference using a FSM for choosing the right sinergy to activate (call this routine o
 952:..\src/interruptions.c ****     static uint8 fsm_state;     
 953:..\src/interruptions.c ****     if (motor_idx == 0){        //update the fsm only at motor 0 compute reference call and hold th
 2769              		.loc 1 953 0
 2770 0010 FB7B     		ldrb	r3, [r7, #15]	@ zero_extendqisi2
 2771 0012 002B     		cmp	r3, #0
 2772 0014 05D1     		bne	.L181
 954:..\src/interruptions.c ****         fsm_state = emg_activation_velocity_fsm();
ARM GAS  C:\Users\Mattia\AppData\Local\Temp\cc59Yqin.s 			page 68


 2773              		.loc 1 954 0
 2774 0016 FFF7FEFF 		bl	emg_activation_velocity_fsm
 2775 001a 0346     		mov	r3, r0
 2776 001c 1A46     		mov	r2, r3
 2777 001e 614B     		ldr	r3, .L196
 2778 0020 1A70     		strb	r2, [r3]
 2779              	.L181:
 955:..\src/interruptions.c ****     }
 956:..\src/interruptions.c ****        
 957:..\src/interruptions.c ****     switch (fsm_state){
 2780              		.loc 1 957 0
 2781 0022 604B     		ldr	r3, .L196
 2782 0024 1B78     		ldrb	r3, [r3]	@ zero_extendqisi2
 2783 0026 032B     		cmp	r3, #3
 2784 0028 00F2B780 		bhi	.L193
 2785 002c 01A2     		adr	r2, .L184
 2786 002e 52F823F0 		ldr	pc, [r2, r3, lsl #2]
 2787 0032 00BF     		.p2align 2
 2788              	.L184:
 2789 0034 45000000 		.word	.L183+1
 2790 0038 45000000 		.word	.L183+1
 2791 003c BF000000 		.word	.L185+1
 2792 0040 4F000000 		.word	.L186+1
 2793              		.p2align 1
 2794              	.L183:
 958:..\src/interruptions.c ****         case RELAX_STATE: case TIMER_STATE:
 959:..\src/interruptions.c ****              
 960:..\src/interruptions.c ****             st_ref_p->pos = st_refOld_p->pos;
 2795              		.loc 1 960 0
 2796 0044 7B68     		ldr	r3, [r7, #4]
 2797 0046 1A68     		ldr	r2, [r3]
 2798 0048 BB68     		ldr	r3, [r7, #8]
 2799 004a 1A60     		str	r2, [r3]
 961:..\src/interruptions.c ****     
 962:..\src/interruptions.c ****             break;
 2800              		.loc 1 962 0
 2801 004c A5E0     		b	.L182
 2802              	.L186:
 963:..\src/interruptions.c ****         
 964:..\src/interruptions.c ****         case MOVE_SLOW_ACT: // First sinergy movement (related to default slow activation)
 965:..\src/interruptions.c **** 
 966:..\src/interruptions.c ****             if (err_emg_1 > 0 && err_emg_1 > err_emg_2) {   //both motors wind the wire around the 
 2803              		.loc 1 966 0
 2804 004e 3B68     		ldr	r3, [r7]
 2805 0050 002B     		cmp	r3, #0
 2806 0052 17DD     		ble	.L187
 2807              		.loc 1 966 0 is_stmt 0 discriminator 1
 2808 0054 3A68     		ldr	r2, [r7]
 2809 0056 BB69     		ldr	r3, [r7, #24]
 2810 0058 9A42     		cmp	r2, r3
 2811 005a 13DD     		ble	.L187
 967:..\src/interruptions.c ****                st_ref_p->pos = st_refOld_p->pos + (err_emg_1 * g_mem.emg.emg_speed[0] << 2) / (1024
 2812              		.loc 1 967 0 is_stmt 1
 2813 005c 7B68     		ldr	r3, [r7, #4]
 2814 005e 1A68     		ldr	r2, [r3]
 2815 0060 514B     		ldr	r3, .L196+4
 2816 0062 93F8FC31 		ldrb	r3, [r3, #508]	@ zero_extendqisi2
ARM GAS  C:\Users\Mattia\AppData\Local\Temp\cc59Yqin.s 			page 69


 2817 0066 1946     		mov	r1, r3
 2818 0068 3B68     		ldr	r3, [r7]
 2819 006a 03FB01F3 		mul	r3, r3, r1
 2820 006e 9900     		lsls	r1, r3, #2
 2821 0070 4E4B     		ldr	r3, .L196+8
 2822 0072 B3F8F031 		ldrh	r3, [r3, #496]
 2823 0076 C3F58063 		rsb	r3, r3, #1024
 2824 007a 91FBF3F3 		sdiv	r3, r1, r3
 2825 007e 1A44     		add	r2, r2, r3
 2826 0080 BB68     		ldr	r3, [r7, #8]
 2827 0082 1A60     		str	r2, [r3]
 2828              	.L187:
 968:..\src/interruptions.c ****             }
 969:..\src/interruptions.c ****             if (err_emg_2 > 0 && err_emg_2 > err_emg_1) {   //both motors unroll the wire around th
 2829              		.loc 1 969 0
 2830 0084 BB69     		ldr	r3, [r7, #24]
 2831 0086 002B     		cmp	r3, #0
 2832 0088 40F38480 		ble	.L194
 2833              		.loc 1 969 0 is_stmt 0 discriminator 1
 2834 008c BA69     		ldr	r2, [r7, #24]
 2835 008e 3B68     		ldr	r3, [r7]
 2836 0090 9A42     		cmp	r2, r3
 2837 0092 7FDD     		ble	.L194
 970:..\src/interruptions.c ****                st_ref_p->pos = st_refOld_p->pos - (err_emg_2 * g_mem.emg.emg_speed[1] << 2) / (1024
 2838              		.loc 1 970 0 is_stmt 1
 2839 0094 7B68     		ldr	r3, [r7, #4]
 2840 0096 1A68     		ldr	r2, [r3]
 2841 0098 434B     		ldr	r3, .L196+4
 2842 009a 93F8FD31 		ldrb	r3, [r3, #509]	@ zero_extendqisi2
 2843 009e 1946     		mov	r1, r3
 2844 00a0 BB69     		ldr	r3, [r7, #24]
 2845 00a2 03FB01F3 		mul	r3, r3, r1
 2846 00a6 9900     		lsls	r1, r3, #2
 2847 00a8 404B     		ldr	r3, .L196+8
 2848 00aa B3F8F231 		ldrh	r3, [r3, #498]
 2849 00ae C3F58063 		rsb	r3, r3, #1024
 2850 00b2 91FBF3F3 		sdiv	r3, r1, r3
 2851 00b6 D21A     		subs	r2, r2, r3
 2852 00b8 BB68     		ldr	r3, [r7, #8]
 2853 00ba 1A60     		str	r2, [r3]
 971:..\src/interruptions.c ****             }
 972:..\src/interruptions.c ****             
 973:..\src/interruptions.c ****             break;
 2854              		.loc 1 973 0
 2855 00bc 6AE0     		b	.L194
 2856              	.L185:
 974:..\src/interruptions.c ****             
 975:..\src/interruptions.c ****         case MOVE_FAST_ACT: // Second sinergy movement (related to default fast activation)
 976:..\src/interruptions.c ****             
 977:..\src/interruptions.c ****             if (err_emg_1 > 0 && err_emg_1 > err_emg_2) {   //(Pinch) The wire is winded around the
 2857              		.loc 1 977 0
 2858 00be 3B68     		ldr	r3, [r7]
 2859 00c0 002B     		cmp	r3, #0
 2860 00c2 31DD     		ble	.L189
 2861              		.loc 1 977 0 is_stmt 0 discriminator 1
 2862 00c4 3A68     		ldr	r2, [r7]
 2863 00c6 BB69     		ldr	r3, [r7, #24]
ARM GAS  C:\Users\Mattia\AppData\Local\Temp\cc59Yqin.s 			page 70


 2864 00c8 9A42     		cmp	r2, r3
 2865 00ca 2DDD     		ble	.L189
 978:..\src/interruptions.c ****                 if (motor_idx == 0){
 2866              		.loc 1 978 0 is_stmt 1
 2867 00cc FB7B     		ldrb	r3, [r7, #15]	@ zero_extendqisi2
 2868 00ce 002B     		cmp	r3, #0
 2869 00d0 13D1     		bne	.L190
 979:..\src/interruptions.c ****                     st_ref_p->pos = st_refOld_p->pos + (err_emg_1 * g_mem.emg.emg_speed[0] << 2) / 
 2870              		.loc 1 979 0
 2871 00d2 7B68     		ldr	r3, [r7, #4]
 2872 00d4 1A68     		ldr	r2, [r3]
 2873 00d6 344B     		ldr	r3, .L196+4
 2874 00d8 93F8FC31 		ldrb	r3, [r3, #508]	@ zero_extendqisi2
 2875 00dc 1946     		mov	r1, r3
 2876 00de 3B68     		ldr	r3, [r7]
 2877 00e0 03FB01F3 		mul	r3, r3, r1
 2878 00e4 9900     		lsls	r1, r3, #2
 2879 00e6 314B     		ldr	r3, .L196+8
 2880 00e8 B3F8F031 		ldrh	r3, [r3, #496]
 2881 00ec C3F58063 		rsb	r3, r3, #1024
 2882 00f0 91FBF3F3 		sdiv	r3, r1, r3
 2883 00f4 1A44     		add	r2, r2, r3
 2884 00f6 BB68     		ldr	r3, [r7, #8]
 2885 00f8 1A60     		str	r2, [r3]
 2886              	.L190:
 980:..\src/interruptions.c ****                 }
 981:..\src/interruptions.c ****                 if (motor_idx == 1){
 2887              		.loc 1 981 0
 2888 00fa FB7B     		ldrb	r3, [r7, #15]	@ zero_extendqisi2
 2889 00fc 012B     		cmp	r3, #1
 2890 00fe 13D1     		bne	.L189
 982:..\src/interruptions.c ****                     st_ref_p->pos = st_refOld_p->pos - (err_emg_1 * g_mem.emg.emg_speed[0] << 2) / 
 2891              		.loc 1 982 0
 2892 0100 7B68     		ldr	r3, [r7, #4]
 2893 0102 1A68     		ldr	r2, [r3]
 2894 0104 284B     		ldr	r3, .L196+4
 2895 0106 93F8FC31 		ldrb	r3, [r3, #508]	@ zero_extendqisi2
 2896 010a 1946     		mov	r1, r3
 2897 010c 3B68     		ldr	r3, [r7]
 2898 010e 03FB01F3 		mul	r3, r3, r1
 2899 0112 9900     		lsls	r1, r3, #2
 2900 0114 254B     		ldr	r3, .L196+8
 2901 0116 B3F8F031 		ldrh	r3, [r3, #496]
 2902 011a C3F58063 		rsb	r3, r3, #1024
 2903 011e 91FBF3F3 		sdiv	r3, r1, r3
 2904 0122 D21A     		subs	r2, r2, r3
 2905 0124 BB68     		ldr	r3, [r7, #8]
 2906 0126 1A60     		str	r2, [r3]
 2907              	.L189:
 983:..\src/interruptions.c ****                 }   
 984:..\src/interruptions.c ****             }
 985:..\src/interruptions.c ****             if (err_emg_2 > 0 && err_emg_2 > err_emg_1) {   //(Index point) The wire is unwinded fr
 2908              		.loc 1 985 0
 2909 0128 BB69     		ldr	r3, [r7, #24]
 2910 012a 002B     		cmp	r3, #0
 2911 012c 34DD     		ble	.L195
 2912              		.loc 1 985 0 is_stmt 0 discriminator 1
ARM GAS  C:\Users\Mattia\AppData\Local\Temp\cc59Yqin.s 			page 71


 2913 012e BA69     		ldr	r2, [r7, #24]
 2914 0130 3B68     		ldr	r3, [r7]
 2915 0132 9A42     		cmp	r2, r3
 2916 0134 30DD     		ble	.L195
 986:..\src/interruptions.c ****                 if (motor_idx == 0){
 2917              		.loc 1 986 0 is_stmt 1
 2918 0136 FB7B     		ldrb	r3, [r7, #15]	@ zero_extendqisi2
 2919 0138 002B     		cmp	r3, #0
 2920 013a 13D1     		bne	.L192
 987:..\src/interruptions.c ****                     st_ref_p->pos = st_refOld_p->pos - (err_emg_2 * g_mem.emg.emg_speed[1] << 2) / 
 2921              		.loc 1 987 0
 2922 013c 7B68     		ldr	r3, [r7, #4]
 2923 013e 1A68     		ldr	r2, [r3]
 2924 0140 194B     		ldr	r3, .L196+4
 2925 0142 93F8FD31 		ldrb	r3, [r3, #509]	@ zero_extendqisi2
 2926 0146 1946     		mov	r1, r3
 2927 0148 BB69     		ldr	r3, [r7, #24]
 2928 014a 03FB01F3 		mul	r3, r3, r1
 2929 014e 9900     		lsls	r1, r3, #2
 2930 0150 164B     		ldr	r3, .L196+8
 2931 0152 B3F8F231 		ldrh	r3, [r3, #498]
 2932 0156 C3F58063 		rsb	r3, r3, #1024
 2933 015a 91FBF3F3 		sdiv	r3, r1, r3
 2934 015e D21A     		subs	r2, r2, r3
 2935 0160 BB68     		ldr	r3, [r7, #8]
 2936 0162 1A60     		str	r2, [r3]
 2937              	.L192:
 988:..\src/interruptions.c ****                 }
 989:..\src/interruptions.c ****                 if (motor_idx == 1){
 2938              		.loc 1 989 0
 2939 0164 FB7B     		ldrb	r3, [r7, #15]	@ zero_extendqisi2
 2940 0166 012B     		cmp	r3, #1
 2941 0168 16D1     		bne	.L195
 990:..\src/interruptions.c ****                     st_ref_p->pos = st_refOld_p->pos + (err_emg_2 * g_mem.emg.emg_speed[1] << 2) / 
 2942              		.loc 1 990 0
 2943 016a 7B68     		ldr	r3, [r7, #4]
 2944 016c 1A68     		ldr	r2, [r3]
 2945 016e 0E4B     		ldr	r3, .L196+4
 2946 0170 93F8FD31 		ldrb	r3, [r3, #509]	@ zero_extendqisi2
 2947 0174 1946     		mov	r1, r3
 2948 0176 BB69     		ldr	r3, [r7, #24]
 2949 0178 03FB01F3 		mul	r3, r3, r1
 2950 017c 9900     		lsls	r1, r3, #2
 2951 017e 0B4B     		ldr	r3, .L196+8
 2952 0180 B3F8F231 		ldrh	r3, [r3, #498]
 2953 0184 C3F58063 		rsb	r3, r3, #1024
 2954 0188 91FBF3F3 		sdiv	r3, r1, r3
 2955 018c 1A44     		add	r2, r2, r3
 2956 018e BB68     		ldr	r3, [r7, #8]
 2957 0190 1A60     		str	r2, [r3]
 991:..\src/interruptions.c ****                 }
 992:..\src/interruptions.c ****             }
 993:..\src/interruptions.c ****             
 994:..\src/interruptions.c ****             break;
 2958              		.loc 1 994 0
 2959 0192 01E0     		b	.L195
 2960              	.L194:
ARM GAS  C:\Users\Mattia\AppData\Local\Temp\cc59Yqin.s 			page 72


 973:..\src/interruptions.c ****             
 2961              		.loc 1 973 0
 2962 0194 00BF     		nop
 2963 0196 00E0     		b	.L193
 2964              	.L195:
 2965              		.loc 1 994 0
 2966 0198 00BF     		nop
 2967              	.L182:
 2968              	.L193:
 995:..\src/interruptions.c ****     }
 996:..\src/interruptions.c ****  
 997:..\src/interruptions.c **** }
 2969              		.loc 1 997 0
 2970 019a 00BF     		nop
 2971 019c 1037     		adds	r7, r7, #16
 2972              		.cfi_def_cfa_offset 8
 2973 019e BD46     		mov	sp, r7
 2974              		.cfi_def_cfa_register 13
 2975              		@ sp needed
 2976 01a0 80BD     		pop	{r7, pc}
 2977              	.L197:
 2978 01a2 00BF     		.align	2
 2979              	.L196:
 2980 01a4 8E000000 		.word	fsm_state.10528
 2981 01a8 00000000 		.word	g_mem
 2982 01ac 00000000 		.word	c_mem
 2983              		.cfi_endproc
 2984              	.LFE70:
 2985              		.size	compute_SoftHand_2_motors_emg_reference, .-compute_SoftHand_2_motors_emg_reference
 2986              		.section	.text.motor_control_SH,"ax",%progbits
 2987              		.align	2
 2988              		.global	motor_control_SH
 2989              		.thumb
 2990              		.thumb_func
 2991              		.type	motor_control_SH, %function
 2992              	motor_control_SH:
 2993              	.LFB71:
 998:..\src/interruptions.c **** 
 999:..\src/interruptions.c **** //==============================================================================
1000:..\src/interruptions.c **** //                                                        MOTOR CONTROL SOFTHAND
1001:..\src/interruptions.c **** //==============================================================================
1002:..\src/interruptions.c **** void motor_control_SH() {
 2994              		.loc 1 1002 0
 2995              		.cfi_startproc
 2996              		@ args = 0, pretend = 0, frame = 80
 2997              		@ frame_needed = 1, uses_anonymous_args = 0
 2998 0000 80B5     		push	{r7, lr}
 2999              		.cfi_def_cfa_offset 8
 3000              		.cfi_offset 7, -8
 3001              		.cfi_offset 14, -4
 3002 0002 94B0     		sub	sp, sp, #80
 3003              		.cfi_def_cfa_offset 88
 3004 0004 00AF     		add	r7, sp, #0
 3005              		.cfi_def_cfa_register 7
1003:..\src/interruptions.c **** 
1004:..\src/interruptions.c ****     int32 CYDATA pwm_input = 0;
 3006              		.loc 1 1004 0
ARM GAS  C:\Users\Mattia\AppData\Local\Temp\cc59Yqin.s 			page 73


 3007 0006 0023     		movs	r3, #0
 3008 0008 FB64     		str	r3, [r7, #76]
1005:..\src/interruptions.c ****     int32 CYDATA pos_error;         // position error
1006:..\src/interruptions.c ****     int32 CYDATA curr_error;        // current error
1007:..\src/interruptions.c ****     int32 CYDATA i_ref;             // current reference
1008:..\src/interruptions.c ****  
1009:..\src/interruptions.c ****     uint8 MOTOR_IDX = 0;
 3009              		.loc 1 1009 0
 3010 000a 0023     		movs	r3, #0
 3011 000c 87F84730 		strb	r3, [r7, #71]
1010:..\src/interruptions.c ****     
1011:..\src/interruptions.c ****     struct st_motor* SH_MOT = &c_mem.motor[MOTOR_IDX];      // SoftHand default motor
 3012              		.loc 1 1011 0
 3013 0010 97F84720 		ldrb	r2, [r7, #71]	@ zero_extendqisi2
 3014 0014 1346     		mov	r3, r2
 3015 0016 DB00     		lsls	r3, r3, #3
 3016 0018 9B1A     		subs	r3, r3, r2
 3017 001a 1B01     		lsls	r3, r3, #4
 3018 001c B033     		adds	r3, r3, #176
 3019 001e 9D4A     		ldr	r2, .L259
 3020 0020 1344     		add	r3, r3, r2
 3021 0022 3B64     		str	r3, [r7, #64]
1012:..\src/interruptions.c ****     uint8 SH_ENC_L = SH_MOT->encoder_line;          // Associated encoder line
 3022              		.loc 1 1012 0
 3023 0024 3B6C     		ldr	r3, [r7, #64]
 3024 0026 93F86030 		ldrb	r3, [r3, #96]
 3025 002a 87F83F30 		strb	r3, [r7, #63]
1013:..\src/interruptions.c ****     
1014:..\src/interruptions.c ****     int32 CYDATA k_p = SH_MOT->k_p;  
 3026              		.loc 1 1014 0
 3027 002e 3B6C     		ldr	r3, [r7, #64]
 3028 0030 1B68     		ldr	r3, [r3]
 3029 0032 BB63     		str	r3, [r7, #56]
1015:..\src/interruptions.c ****     int32 CYDATA k_i = SH_MOT->k_i; 
 3030              		.loc 1 1015 0
 3031 0034 3B6C     		ldr	r3, [r7, #64]
 3032 0036 5B68     		ldr	r3, [r3, #4]
 3033 0038 7B63     		str	r3, [r7, #52]
1016:..\src/interruptions.c ****     int32 CYDATA k_d = SH_MOT->k_d; 
 3034              		.loc 1 1016 0
 3035 003a 3B6C     		ldr	r3, [r7, #64]
 3036 003c 9B68     		ldr	r3, [r3, #8]
 3037 003e 3B63     		str	r3, [r7, #48]
1017:..\src/interruptions.c **** 
1018:..\src/interruptions.c ****     int32 CYDATA k_p_c = SH_MOT->k_p_c;  
 3038              		.loc 1 1018 0
 3039 0040 3B6C     		ldr	r3, [r7, #64]
 3040 0042 DB68     		ldr	r3, [r3, #12]
 3041 0044 FB62     		str	r3, [r7, #44]
1019:..\src/interruptions.c ****     int32 CYDATA k_i_c = SH_MOT->k_i_c; 
 3042              		.loc 1 1019 0
 3043 0046 3B6C     		ldr	r3, [r7, #64]
 3044 0048 1B69     		ldr	r3, [r3, #16]
 3045 004a BB62     		str	r3, [r7, #40]
1020:..\src/interruptions.c ****     int32 CYDATA k_d_c = SH_MOT->k_d_c;   
 3046              		.loc 1 1020 0
 3047 004c 3B6C     		ldr	r3, [r7, #64]
ARM GAS  C:\Users\Mattia\AppData\Local\Temp\cc59Yqin.s 			page 74


 3048 004e 5B69     		ldr	r3, [r3, #20]
 3049 0050 7B62     		str	r3, [r7, #36]
1021:..\src/interruptions.c **** 
1022:..\src/interruptions.c ****     int32 CYDATA k_p_dl = SH_MOT->k_p_dl;  
 3050              		.loc 1 1022 0
 3051 0052 3B6C     		ldr	r3, [r7, #64]
 3052 0054 9B69     		ldr	r3, [r3, #24]
 3053 0056 3B62     		str	r3, [r7, #32]
1023:..\src/interruptions.c ****     int32 CYDATA k_i_dl = SH_MOT->k_i_dl; 
 3054              		.loc 1 1023 0
 3055 0058 3B6C     		ldr	r3, [r7, #64]
 3056 005a DB69     		ldr	r3, [r3, #28]
 3057 005c FB61     		str	r3, [r7, #28]
1024:..\src/interruptions.c ****     int32 CYDATA k_d_dl = SH_MOT->k_d_dl;
 3058              		.loc 1 1024 0
 3059 005e 3B6C     		ldr	r3, [r7, #64]
 3060 0060 1B6A     		ldr	r3, [r3, #32]
 3061 0062 BB61     		str	r3, [r7, #24]
1025:..\src/interruptions.c ****     
1026:..\src/interruptions.c ****     int32 CYDATA k_p_c_dl = SH_MOT->k_p_c_dl;  
 3062              		.loc 1 1026 0
 3063 0064 3B6C     		ldr	r3, [r7, #64]
 3064 0066 5B6A     		ldr	r3, [r3, #36]
 3065 0068 7B61     		str	r3, [r7, #20]
1027:..\src/interruptions.c ****     int32 CYDATA k_i_c_dl = SH_MOT->k_i_c_dl; 
 3066              		.loc 1 1027 0
 3067 006a 3B6C     		ldr	r3, [r7, #64]
 3068 006c 9B6A     		ldr	r3, [r3, #40]
 3069 006e 3B61     		str	r3, [r7, #16]
1028:..\src/interruptions.c ****     int32 CYDATA k_d_c_dl = SH_MOT->k_d_c_dl;   
 3070              		.loc 1 1028 0
 3071 0070 3B6C     		ldr	r3, [r7, #64]
 3072 0072 DB6A     		ldr	r3, [r3, #44]
 3073 0074 FB60     		str	r3, [r7, #12]
1029:..\src/interruptions.c **** 
1030:..\src/interruptions.c ****     // Static Variables
1031:..\src/interruptions.c **** 
1032:..\src/interruptions.c ****     static int32 pos_error_sum;     // position error sum for integral
1033:..\src/interruptions.c ****     static int32 curr_error_sum;    // current error sum for integral
1034:..\src/interruptions.c ****     
1035:..\src/interruptions.c ****     static int32 prev_pos_err;      // previous position error for deriv. control
1036:..\src/interruptions.c ****     static int32 prev_curr_err;     // previous current error for deriv. control
1037:..\src/interruptions.c ****     static int32 prev_pwm;
1038:..\src/interruptions.c **** 
1039:..\src/interruptions.c ****     static CYBIT motor_dir = FALSE;
1040:..\src/interruptions.c ****     static uint32 position_counter = 0;
1041:..\src/interruptions.c ****   
1042:..\src/interruptions.c ****     // ======================= UPDATE MOTOR REFERENCE ==========================            
1043:..\src/interruptions.c ****     compute_reference(MOTOR_IDX, &g_ref[MOTOR_IDX], &g_refOld[MOTOR_IDX]);
 3074              		.loc 1 1043 0
 3075 0076 97F84730 		ldrb	r3, [r7, #71]	@ zero_extendqisi2
 3076 007a 1B01     		lsls	r3, r3, #4
 3077 007c 864A     		ldr	r2, .L259+4
 3078 007e 9918     		adds	r1, r3, r2
 3079 0080 97F84730 		ldrb	r3, [r7, #71]	@ zero_extendqisi2
 3080 0084 1B01     		lsls	r3, r3, #4
 3081 0086 854A     		ldr	r2, .L259+8
ARM GAS  C:\Users\Mattia\AppData\Local\Temp\cc59Yqin.s 			page 75


 3082 0088 1A44     		add	r2, r2, r3
 3083 008a 97F84730 		ldrb	r3, [r7, #71]	@ zero_extendqisi2
 3084 008e 1846     		mov	r0, r3
 3085 0090 FFF7FEFF 		bl	compute_reference
1044:..\src/interruptions.c ****      
1045:..\src/interruptions.c ****     switch(SH_MOT->control_mode) {
 3086              		.loc 1 1045 0
 3087 0094 3B6C     		ldr	r3, [r7, #64]
 3088 0096 93F85F30 		ldrb	r3, [r3, #95]	@ zero_extendqisi2
 3089 009a 032B     		cmp	r3, #3
 3090 009c 00F2F781 		bhi	.L199
 3091 00a0 01A2     		adr	r2, .L201
 3092 00a2 52F823F0 		ldr	pc, [r2, r3, lsl #2]
 3093 00a6 00BF     		.p2align 2
 3094              	.L201:
 3095 00a8 55020000 		.word	.L200+1
 3096 00ac 49040000 		.word	.L202+1
 3097 00b0 3B030000 		.word	.L203+1
 3098 00b4 B9000000 		.word	.L204+1
 3099              		.p2align 1
 3100              	.L204:
1046:..\src/interruptions.c ****         // ======================= CURRENT AND POSITION CONTROL =======================
1047:..\src/interruptions.c ****         case CURR_AND_POS_CONTROL:
1048:..\src/interruptions.c ****             pos_error = g_ref[MOTOR_IDX].pos - g_meas[SH_ENC_L].pos[0];
 3101              		.loc 1 1048 0
 3102 00b8 97F84730 		ldrb	r3, [r7, #71]	@ zero_extendqisi2
 3103 00bc 764A     		ldr	r2, .L259+4
 3104 00be 1B01     		lsls	r3, r3, #4
 3105 00c0 1344     		add	r3, r3, r2
 3106 00c2 1A68     		ldr	r2, [r3]
 3107 00c4 97F83F30 		ldrb	r3, [r7, #63]	@ zero_extendqisi2
 3108 00c8 7549     		ldr	r1, .L259+12
 3109 00ca 3420     		movs	r0, #52
 3110 00cc 00FB03F3 		mul	r3, r0, r3
 3111 00d0 0B44     		add	r3, r3, r1
 3112 00d2 1B68     		ldr	r3, [r3]
 3113 00d4 D31A     		subs	r3, r2, r3
 3114 00d6 BB60     		str	r3, [r7, #8]
1049:..\src/interruptions.c **** 
1050:..\src/interruptions.c ****             pos_error_sum += pos_error;
 3115              		.loc 1 1050 0
 3116 00d8 724B     		ldr	r3, .L259+16
 3117 00da 1A68     		ldr	r2, [r3]
 3118 00dc BB68     		ldr	r3, [r7, #8]
 3119 00de 1344     		add	r3, r3, r2
 3120 00e0 704A     		ldr	r2, .L259+16
 3121 00e2 1360     		str	r3, [r2]
1051:..\src/interruptions.c **** 
1052:..\src/interruptions.c ****             // error_sum saturation
1053:..\src/interruptions.c ****             if (pos_error_sum > POS_INTEGRAL_SAT_LIMIT)
 3122              		.loc 1 1053 0
 3123 00e4 6F4B     		ldr	r3, .L259+16
 3124 00e6 1B68     		ldr	r3, [r3]
 3125 00e8 6F4A     		ldr	r2, .L259+20
 3126 00ea 9342     		cmp	r3, r2
 3127 00ec 03DD     		ble	.L205
1054:..\src/interruptions.c ****                 pos_error_sum = POS_INTEGRAL_SAT_LIMIT;
ARM GAS  C:\Users\Mattia\AppData\Local\Temp\cc59Yqin.s 			page 76


 3128              		.loc 1 1054 0
 3129 00ee 6D4B     		ldr	r3, .L259+16
 3130 00f0 6D4A     		ldr	r2, .L259+20
 3131 00f2 1A60     		str	r2, [r3]
 3132 00f4 07E0     		b	.L206
 3133              	.L205:
1055:..\src/interruptions.c ****             else {
1056:..\src/interruptions.c ****                 if (pos_error_sum < -POS_INTEGRAL_SAT_LIMIT) 
 3134              		.loc 1 1056 0
 3135 00f6 6B4B     		ldr	r3, .L259+16
 3136 00f8 1B68     		ldr	r3, [r3]
 3137 00fa 6C4A     		ldr	r2, .L259+24
 3138 00fc 9342     		cmp	r3, r2
 3139 00fe 02DA     		bge	.L206
1057:..\src/interruptions.c ****                     pos_error_sum = -POS_INTEGRAL_SAT_LIMIT;
 3140              		.loc 1 1057 0
 3141 0100 684B     		ldr	r3, .L259+16
 3142 0102 6A4A     		ldr	r2, .L259+24
 3143 0104 1A60     		str	r2, [r3]
 3144              	.L206:
1058:..\src/interruptions.c ****             }
1059:..\src/interruptions.c ****             
1060:..\src/interruptions.c ****             // ------ position PID control ------
1061:..\src/interruptions.c **** 
1062:..\src/interruptions.c ****             i_ref = 0;
 3145              		.loc 1 1062 0
 3146 0106 0023     		movs	r3, #0
 3147 0108 BB64     		str	r3, [r7, #72]
1063:..\src/interruptions.c ****             
1064:..\src/interruptions.c ****             // Proportional
1065:..\src/interruptions.c ****             if (k_p_dl != 0)
 3148              		.loc 1 1065 0
 3149 010a 3B6A     		ldr	r3, [r7, #32]
 3150 010c 002B     		cmp	r3, #0
 3151 010e 07D0     		beq	.L207
1066:..\src/interruptions.c ****                 i_ref += (int32)(k_p_dl * pos_error) >> 16;
 3152              		.loc 1 1066 0
 3153 0110 3B6A     		ldr	r3, [r7, #32]
 3154 0112 BA68     		ldr	r2, [r7, #8]
 3155 0114 02FB03F3 		mul	r3, r2, r3
 3156 0118 1B14     		asrs	r3, r3, #16
 3157 011a BA6C     		ldr	r2, [r7, #72]
 3158 011c 1344     		add	r3, r3, r2
 3159 011e BB64     		str	r3, [r7, #72]
 3160              	.L207:
1067:..\src/interruptions.c **** 
1068:..\src/interruptions.c ****             // Integral
1069:..\src/interruptions.c ****             if (k_i_dl != 0)
 3161              		.loc 1 1069 0
 3162 0120 FB69     		ldr	r3, [r7, #28]
 3163 0122 002B     		cmp	r3, #0
 3164 0124 08D0     		beq	.L208
1070:..\src/interruptions.c ****                 i_ref += (int32)(k_i_dl * pos_error_sum) >> 16;
 3165              		.loc 1 1070 0
 3166 0126 5F4B     		ldr	r3, .L259+16
 3167 0128 1B68     		ldr	r3, [r3]
 3168 012a FA69     		ldr	r2, [r7, #28]
ARM GAS  C:\Users\Mattia\AppData\Local\Temp\cc59Yqin.s 			page 77


 3169 012c 02FB03F3 		mul	r3, r2, r3
 3170 0130 1B14     		asrs	r3, r3, #16
 3171 0132 BA6C     		ldr	r2, [r7, #72]
 3172 0134 1344     		add	r3, r3, r2
 3173 0136 BB64     		str	r3, [r7, #72]
 3174              	.L208:
1071:..\src/interruptions.c **** 
1072:..\src/interruptions.c ****             // Derivative
1073:..\src/interruptions.c ****             if (k_d_dl != 0)
 3175              		.loc 1 1073 0
 3176 0138 BB69     		ldr	r3, [r7, #24]
 3177 013a 002B     		cmp	r3, #0
 3178 013c 0AD0     		beq	.L209
1074:..\src/interruptions.c ****                 i_ref += (int32)(k_d_dl * (pos_error - prev_pos_err)) >> 16;
 3179              		.loc 1 1074 0
 3180 013e 5C4B     		ldr	r3, .L259+28
 3181 0140 1B68     		ldr	r3, [r3]
 3182 0142 BA68     		ldr	r2, [r7, #8]
 3183 0144 D31A     		subs	r3, r2, r3
 3184 0146 BA69     		ldr	r2, [r7, #24]
 3185 0148 02FB03F3 		mul	r3, r2, r3
 3186 014c 1B14     		asrs	r3, r3, #16
 3187 014e BA6C     		ldr	r2, [r7, #72]
 3188 0150 1344     		add	r3, r3, r2
 3189 0152 BB64     		str	r3, [r7, #72]
 3190              	.L209:
1075:..\src/interruptions.c ****                         
1076:..\src/interruptions.c ****             // Update previous position
1077:..\src/interruptions.c ****             prev_pos_err = pos_error;
 3191              		.loc 1 1077 0
 3192 0154 564A     		ldr	r2, .L259+28
 3193 0156 BB68     		ldr	r3, [r7, #8]
 3194 0158 1360     		str	r3, [r2]
1078:..\src/interruptions.c **** 
1079:..\src/interruptions.c ****             // motor direction depends on i_ref
1080:..\src/interruptions.c ****             if (i_ref >= 0)
 3195              		.loc 1 1080 0
 3196 015a BB6C     		ldr	r3, [r7, #72]
 3197 015c 002B     		cmp	r3, #0
 3198 015e 03DB     		blt	.L210
1081:..\src/interruptions.c ****                 motor_dir = TRUE;
 3199              		.loc 1 1081 0
 3200 0160 544B     		ldr	r3, .L259+32
 3201 0162 0122     		movs	r2, #1
 3202 0164 1A70     		strb	r2, [r3]
 3203 0166 02E0     		b	.L211
 3204              	.L210:
1082:..\src/interruptions.c ****             else
1083:..\src/interruptions.c ****                 motor_dir = FALSE;
 3205              		.loc 1 1083 0
 3206 0168 524B     		ldr	r3, .L259+32
 3207 016a 0022     		movs	r2, #0
 3208 016c 1A70     		strb	r2, [r3]
 3209              	.L211:
1084:..\src/interruptions.c **** 
1085:..\src/interruptions.c ****             // saturate max current
1086:..\src/interruptions.c ****             if (i_ref > SH_MOT->current_limit)
ARM GAS  C:\Users\Mattia\AppData\Local\Temp\cc59Yqin.s 			page 78


 3210              		.loc 1 1086 0
 3211 016e 3B6C     		ldr	r3, [r7, #64]
 3212 0170 B3F95C30 		ldrsh	r3, [r3, #92]
 3213 0174 1A46     		mov	r2, r3
 3214 0176 BB6C     		ldr	r3, [r7, #72]
 3215 0178 9A42     		cmp	r2, r3
 3216 017a 04DA     		bge	.L212
1087:..\src/interruptions.c ****                 i_ref = SH_MOT->current_limit;
 3217              		.loc 1 1087 0
 3218 017c 3B6C     		ldr	r3, [r7, #64]
 3219 017e B3F95C30 		ldrsh	r3, [r3, #92]
 3220 0182 BB64     		str	r3, [r7, #72]
 3221 0184 0BE0     		b	.L213
 3222              	.L212:
1088:..\src/interruptions.c ****             else {
1089:..\src/interruptions.c ****                 if (i_ref < -SH_MOT->current_limit)
 3223              		.loc 1 1089 0
 3224 0186 3B6C     		ldr	r3, [r7, #64]
 3225 0188 B3F95C30 		ldrsh	r3, [r3, #92]
 3226 018c 5A42     		negs	r2, r3
 3227 018e BB6C     		ldr	r3, [r7, #72]
 3228 0190 9A42     		cmp	r2, r3
 3229 0192 04DD     		ble	.L213
1090:..\src/interruptions.c ****                     i_ref = -SH_MOT->current_limit;
 3230              		.loc 1 1090 0
 3231 0194 3B6C     		ldr	r3, [r7, #64]
 3232 0196 B3F95C30 		ldrsh	r3, [r3, #92]
 3233 019a 5B42     		negs	r3, r3
 3234 019c BB64     		str	r3, [r7, #72]
 3235              	.L213:
1091:..\src/interruptions.c ****         	}
1092:..\src/interruptions.c **** 
1093:..\src/interruptions.c ****             // current error and curr error sum
1094:..\src/interruptions.c ****             curr_error = i_ref - g_meas[SH_ENC_L].curr;
 3236              		.loc 1 1094 0
 3237 019e 97F83F30 		ldrb	r3, [r7, #63]	@ zero_extendqisi2
 3238 01a2 3F4A     		ldr	r2, .L259+12
 3239 01a4 3421     		movs	r1, #52
 3240 01a6 01FB03F3 		mul	r3, r1, r3
 3241 01aa 1344     		add	r3, r3, r2
 3242 01ac 0C33     		adds	r3, r3, #12
 3243 01ae 1B68     		ldr	r3, [r3]
 3244 01b0 BA6C     		ldr	r2, [r7, #72]
 3245 01b2 D31A     		subs	r3, r2, r3
 3246 01b4 7B60     		str	r3, [r7, #4]
1095:..\src/interruptions.c ****             curr_error_sum += curr_error;
 3247              		.loc 1 1095 0
 3248 01b6 404B     		ldr	r3, .L259+36
 3249 01b8 1A68     		ldr	r2, [r3]
 3250 01ba 7B68     		ldr	r3, [r7, #4]
 3251 01bc 1344     		add	r3, r3, r2
 3252 01be 3E4A     		ldr	r2, .L259+36
 3253 01c0 1360     		str	r3, [r2]
1096:..\src/interruptions.c ****             
1097:..\src/interruptions.c ****             if (curr_error_sum > CURR_INTEGRAL_SAT_LIMIT)
 3254              		.loc 1 1097 0
 3255 01c2 3D4B     		ldr	r3, .L259+36
ARM GAS  C:\Users\Mattia\AppData\Local\Temp\cc59Yqin.s 			page 79


 3256 01c4 1B68     		ldr	r3, [r3]
 3257 01c6 3D4A     		ldr	r2, .L259+40
 3258 01c8 9342     		cmp	r3, r2
 3259 01ca 03DD     		ble	.L214
1098:..\src/interruptions.c ****                 curr_error_sum = CURR_INTEGRAL_SAT_LIMIT;
 3260              		.loc 1 1098 0
 3261 01cc 3A4B     		ldr	r3, .L259+36
 3262 01ce 3B4A     		ldr	r2, .L259+40
 3263 01d0 1A60     		str	r2, [r3]
 3264 01d2 07E0     		b	.L215
 3265              	.L214:
1099:..\src/interruptions.c ****             else {
1100:..\src/interruptions.c ****                 if (curr_error_sum < -CURR_INTEGRAL_SAT_LIMIT)
 3266              		.loc 1 1100 0
 3267 01d4 384B     		ldr	r3, .L259+36
 3268 01d6 1B68     		ldr	r3, [r3]
 3269 01d8 394A     		ldr	r2, .L259+44
 3270 01da 9342     		cmp	r3, r2
 3271 01dc 02DA     		bge	.L215
1101:..\src/interruptions.c ****                     curr_error_sum = -CURR_INTEGRAL_SAT_LIMIT;
 3272              		.loc 1 1101 0
 3273 01de 364B     		ldr	r3, .L259+36
 3274 01e0 374A     		ldr	r2, .L259+44
 3275 01e2 1A60     		str	r2, [r3]
 3276              	.L215:
1102:..\src/interruptions.c ****             }
1103:..\src/interruptions.c **** 
1104:..\src/interruptions.c ****             // ----- current PID control -----
1105:..\src/interruptions.c **** 
1106:..\src/interruptions.c ****             pwm_input = 0;
 3277              		.loc 1 1106 0
 3278 01e4 0023     		movs	r3, #0
 3279 01e6 FB64     		str	r3, [r7, #76]
1107:..\src/interruptions.c **** 
1108:..\src/interruptions.c ****             // Proportional
1109:..\src/interruptions.c ****             if (k_p_c_dl != 0)
 3280              		.loc 1 1109 0
 3281 01e8 7B69     		ldr	r3, [r7, #20]
 3282 01ea 002B     		cmp	r3, #0
 3283 01ec 07D0     		beq	.L216
1110:..\src/interruptions.c ****                 pwm_input += (int32)(k_p_c_dl * curr_error) >> 16;
 3284              		.loc 1 1110 0
 3285 01ee 7B69     		ldr	r3, [r7, #20]
 3286 01f0 7A68     		ldr	r2, [r7, #4]
 3287 01f2 02FB03F3 		mul	r3, r2, r3
 3288 01f6 1B14     		asrs	r3, r3, #16
 3289 01f8 FA6C     		ldr	r2, [r7, #76]
 3290 01fa 1344     		add	r3, r3, r2
 3291 01fc FB64     		str	r3, [r7, #76]
 3292              	.L216:
1111:..\src/interruptions.c **** 
1112:..\src/interruptions.c ****             // Integral
1113:..\src/interruptions.c ****             if (k_i_c_dl != 0)
 3293              		.loc 1 1113 0
 3294 01fe 3B69     		ldr	r3, [r7, #16]
 3295 0200 002B     		cmp	r3, #0
 3296 0202 08D0     		beq	.L217
ARM GAS  C:\Users\Mattia\AppData\Local\Temp\cc59Yqin.s 			page 80


1114:..\src/interruptions.c ****                 pwm_input += (int32)(k_i_c_dl * curr_error_sum) >> 16;
 3297              		.loc 1 1114 0
 3298 0204 2C4B     		ldr	r3, .L259+36
 3299 0206 1B68     		ldr	r3, [r3]
 3300 0208 3A69     		ldr	r2, [r7, #16]
 3301 020a 02FB03F3 		mul	r3, r2, r3
 3302 020e 1B14     		asrs	r3, r3, #16
 3303 0210 FA6C     		ldr	r2, [r7, #76]
 3304 0212 1344     		add	r3, r3, r2
 3305 0214 FB64     		str	r3, [r7, #76]
 3306              	.L217:
1115:..\src/interruptions.c **** 
1116:..\src/interruptions.c ****             // Derivative
1117:..\src/interruptions.c ****             if (k_d_c_dl != 0)
 3307              		.loc 1 1117 0
 3308 0216 FB68     		ldr	r3, [r7, #12]
 3309 0218 002B     		cmp	r3, #0
 3310 021a 0AD0     		beq	.L218
1118:..\src/interruptions.c ****                 pwm_input += (int32)(k_d_c_dl * (curr_error - prev_curr_err)) >> 16;
 3311              		.loc 1 1118 0
 3312 021c 294B     		ldr	r3, .L259+48
 3313 021e 1B68     		ldr	r3, [r3]
 3314 0220 7A68     		ldr	r2, [r7, #4]
 3315 0222 D31A     		subs	r3, r2, r3
 3316 0224 FA68     		ldr	r2, [r7, #12]
 3317 0226 02FB03F3 		mul	r3, r2, r3
 3318 022a 1B14     		asrs	r3, r3, #16
 3319 022c FA6C     		ldr	r2, [r7, #76]
 3320 022e 1344     		add	r3, r3, r2
 3321 0230 FB64     		str	r3, [r7, #76]
 3322              	.L218:
1119:..\src/interruptions.c **** 
1120:..\src/interruptions.c ****             // pwm_input saturation
1121:..\src/interruptions.c ****             if (pwm_input < -PWM_MAX_VALUE) 
 3323              		.loc 1 1121 0
 3324 0232 FB6C     		ldr	r3, [r7, #76]
 3325 0234 13F1640F 		cmn	r3, #100
 3326 0238 03DA     		bge	.L219
1122:..\src/interruptions.c ****                 pwm_input = -PWM_MAX_VALUE;
 3327              		.loc 1 1122 0
 3328 023a 6FF06303 		mvn	r3, #99
 3329 023e FB64     		str	r3, [r7, #76]
 3330 0240 04E0     		b	.L220
 3331              	.L219:
1123:..\src/interruptions.c ****             else {
1124:..\src/interruptions.c ****                 if (pwm_input > PWM_MAX_VALUE)
 3332              		.loc 1 1124 0
 3333 0242 FB6C     		ldr	r3, [r7, #76]
 3334 0244 642B     		cmp	r3, #100
 3335 0246 01DD     		ble	.L220
1125:..\src/interruptions.c ****                     pwm_input = PWM_MAX_VALUE;
 3336              		.loc 1 1125 0
 3337 0248 6423     		movs	r3, #100
 3338 024a FB64     		str	r3, [r7, #76]
 3339              	.L220:
1126:..\src/interruptions.c ****             }
1127:..\src/interruptions.c **** 
ARM GAS  C:\Users\Mattia\AppData\Local\Temp\cc59Yqin.s 			page 81


1128:..\src/interruptions.c ****             // Update previous current
1129:..\src/interruptions.c ****             prev_curr_err = curr_error;
 3340              		.loc 1 1129 0
 3341 024c 1D4A     		ldr	r2, .L259+48
 3342 024e 7B68     		ldr	r3, [r7, #4]
 3343 0250 1360     		str	r3, [r2]
1130:..\src/interruptions.c **** 
1131:..\src/interruptions.c ****         break;
 3344              		.loc 1 1131 0
 3345 0252 1CE1     		b	.L199
 3346              	.L200:
1132:..\src/interruptions.c **** 
1133:..\src/interruptions.c ****         // ============================== POSITION CONTROL =====================
1134:..\src/interruptions.c ****         case CONTROL_ANGLE:
1135:..\src/interruptions.c ****             pos_error = g_ref[MOTOR_IDX].pos - g_meas[SH_ENC_L].pos[0];
 3347              		.loc 1 1135 0
 3348 0254 97F84730 		ldrb	r3, [r7, #71]	@ zero_extendqisi2
 3349 0258 0F4A     		ldr	r2, .L259+4
 3350 025a 1B01     		lsls	r3, r3, #4
 3351 025c 1344     		add	r3, r3, r2
 3352 025e 1A68     		ldr	r2, [r3]
 3353 0260 97F83F30 		ldrb	r3, [r7, #63]	@ zero_extendqisi2
 3354 0264 0E49     		ldr	r1, .L259+12
 3355 0266 3420     		movs	r0, #52
 3356 0268 00FB03F3 		mul	r3, r0, r3
 3357 026c 0B44     		add	r3, r3, r1
 3358 026e 1B68     		ldr	r3, [r3]
 3359 0270 D31A     		subs	r3, r2, r3
 3360 0272 BB60     		str	r3, [r7, #8]
1136:..\src/interruptions.c **** 
1137:..\src/interruptions.c ****             pos_error_sum += pos_error;
 3361              		.loc 1 1137 0
 3362 0274 0B4B     		ldr	r3, .L259+16
 3363 0276 1A68     		ldr	r2, [r3]
 3364 0278 BB68     		ldr	r3, [r7, #8]
 3365 027a 1344     		add	r3, r3, r2
 3366 027c 094A     		ldr	r2, .L259+16
 3367 027e 1360     		str	r3, [r2]
1138:..\src/interruptions.c **** 
1139:..\src/interruptions.c ****             // anti-windup (for integral control)
1140:..\src/interruptions.c ****             if (pos_error_sum > ANTI_WINDUP)
 3368              		.loc 1 1140 0
 3369 0280 084B     		ldr	r3, .L259+16
 3370 0282 1B68     		ldr	r3, [r3]
 3371 0284 B3F57A7F 		cmp	r3, #1000
 3372 0288 1EDD     		ble	.L221
1141:..\src/interruptions.c ****                 pos_error_sum = ANTI_WINDUP;
 3373              		.loc 1 1141 0
 3374 028a 064B     		ldr	r3, .L259+16
 3375 028c 4FF47A72 		mov	r2, #1000
 3376 0290 1A60     		str	r2, [r3]
 3377 0292 21E0     		b	.L222
 3378              	.L260:
 3379              		.align	2
 3380              	.L259:
 3381 0294 00000000 		.word	c_mem
 3382 0298 00000000 		.word	g_ref
ARM GAS  C:\Users\Mattia\AppData\Local\Temp\cc59Yqin.s 			page 82


 3383 029c 00000000 		.word	g_refOld
 3384 02a0 00000000 		.word	g_meas
 3385 02a4 90000000 		.word	pos_error_sum.10555
 3386 02a8 80F0FA02 		.word	50000000
 3387 02ac 800F05FD 		.word	-50000000
 3388 02b0 94000000 		.word	prev_pos_err.10557
 3389 02b4 98000000 		.word	motor_dir.10560
 3390 02b8 9C000000 		.word	curr_error_sum.10556
 3391 02bc A0860100 		.word	100000
 3392 02c0 6079FEFF 		.word	-100000
 3393 02c4 A0000000 		.word	prev_curr_err.10558
 3394              	.L221:
1142:..\src/interruptions.c ****             else {
1143:..\src/interruptions.c **** 				if (pos_error_sum < -ANTI_WINDUP)
 3395              		.loc 1 1143 0
 3396 02c8 9D4B     		ldr	r3, .L261
 3397 02ca 1B68     		ldr	r3, [r3]
 3398 02cc 13F57A7F 		cmn	r3, #1000
 3399 02d0 02DA     		bge	.L222
1144:..\src/interruptions.c ****                 	pos_error_sum = -ANTI_WINDUP;
 3400              		.loc 1 1144 0
 3401 02d2 9B4B     		ldr	r3, .L261
 3402 02d4 9B4A     		ldr	r2, .L261+4
 3403 02d6 1A60     		str	r2, [r3]
 3404              	.L222:
1145:..\src/interruptions.c ****             }
1146:..\src/interruptions.c **** 
1147:..\src/interruptions.c ****             // Proportional
1148:..\src/interruptions.c ****             if (k_p != 0) 
 3405              		.loc 1 1148 0
 3406 02d8 BB6B     		ldr	r3, [r7, #56]
 3407 02da 002B     		cmp	r3, #0
 3408 02dc 05D0     		beq	.L223
1149:..\src/interruptions.c ****                 pwm_input = (int32)(k_p * pos_error) >> 16;
 3409              		.loc 1 1149 0
 3410 02de BB6B     		ldr	r3, [r7, #56]
 3411 02e0 BA68     		ldr	r2, [r7, #8]
 3412 02e2 02FB03F3 		mul	r3, r2, r3
 3413 02e6 1B14     		asrs	r3, r3, #16
 3414 02e8 FB64     		str	r3, [r7, #76]
 3415              	.L223:
1150:..\src/interruptions.c ****             
1151:..\src/interruptions.c **** 
1152:..\src/interruptions.c ****             // Integral
1153:..\src/interruptions.c ****             if (k_i != 0) 
 3416              		.loc 1 1153 0
 3417 02ea 7B6B     		ldr	r3, [r7, #52]
 3418 02ec 002B     		cmp	r3, #0
 3419 02ee 08D0     		beq	.L224
1154:..\src/interruptions.c ****                 pwm_input += (int32)(k_i * pos_error_sum) >> 16;
 3420              		.loc 1 1154 0
 3421 02f0 934B     		ldr	r3, .L261
 3422 02f2 1B68     		ldr	r3, [r3]
 3423 02f4 7A6B     		ldr	r2, [r7, #52]
 3424 02f6 02FB03F3 		mul	r3, r2, r3
 3425 02fa 1B14     		asrs	r3, r3, #16
 3426 02fc FA6C     		ldr	r2, [r7, #76]
ARM GAS  C:\Users\Mattia\AppData\Local\Temp\cc59Yqin.s 			page 83


 3427 02fe 1344     		add	r3, r3, r2
 3428 0300 FB64     		str	r3, [r7, #76]
 3429              	.L224:
1155:..\src/interruptions.c ****             
1156:..\src/interruptions.c **** 
1157:..\src/interruptions.c ****             // Derivative
1158:..\src/interruptions.c ****             if (k_d != 0) 
 3430              		.loc 1 1158 0
 3431 0302 3B6B     		ldr	r3, [r7, #48]
 3432 0304 002B     		cmp	r3, #0
 3433 0306 0AD0     		beq	.L225
1159:..\src/interruptions.c ****                 pwm_input += (int32)(k_d * (pos_error - prev_pos_err)) >> 16;
 3434              		.loc 1 1159 0
 3435 0308 8F4B     		ldr	r3, .L261+8
 3436 030a 1B68     		ldr	r3, [r3]
 3437 030c BA68     		ldr	r2, [r7, #8]
 3438 030e D31A     		subs	r3, r2, r3
 3439 0310 3A6B     		ldr	r2, [r7, #48]
 3440 0312 02FB03F3 		mul	r3, r2, r3
 3441 0316 1B14     		asrs	r3, r3, #16
 3442 0318 FA6C     		ldr	r2, [r7, #76]
 3443 031a 1344     		add	r3, r3, r2
 3444 031c FB64     		str	r3, [r7, #76]
 3445              	.L225:
1160:..\src/interruptions.c ****             
1161:..\src/interruptions.c **** 
1162:..\src/interruptions.c ****             // Update measure
1163:..\src/interruptions.c ****             prev_pos_err = pos_error;
 3446              		.loc 1 1163 0
 3447 031e 8A4A     		ldr	r2, .L261+8
 3448 0320 BB68     		ldr	r3, [r7, #8]
 3449 0322 1360     		str	r3, [r2]
1164:..\src/interruptions.c **** 
1165:..\src/interruptions.c ****             if (pwm_input > 0)
 3450              		.loc 1 1165 0
 3451 0324 FB6C     		ldr	r3, [r7, #76]
 3452 0326 002B     		cmp	r3, #0
 3453 0328 03DD     		ble	.L226
1166:..\src/interruptions.c ****                 motor_dir = TRUE;
 3454              		.loc 1 1166 0
 3455 032a 884B     		ldr	r3, .L261+12
 3456 032c 0122     		movs	r2, #1
 3457 032e 1A70     		strb	r2, [r3]
1167:..\src/interruptions.c ****             else
1168:..\src/interruptions.c ****                 motor_dir = FALSE;
1169:..\src/interruptions.c **** 
1170:..\src/interruptions.c ****         break;
 3458              		.loc 1 1170 0
 3459 0330 ADE0     		b	.L199
 3460              	.L226:
1168:..\src/interruptions.c **** 
 3461              		.loc 1 1168 0
 3462 0332 864B     		ldr	r3, .L261+12
 3463 0334 0022     		movs	r2, #0
 3464 0336 1A70     		strb	r2, [r3]
 3465              		.loc 1 1170 0
 3466 0338 A9E0     		b	.L199
ARM GAS  C:\Users\Mattia\AppData\Local\Temp\cc59Yqin.s 			page 84


 3467              	.L203:
1171:..\src/interruptions.c **** 
1172:..\src/interruptions.c ****         // ========================== CURRENT CONTROL ==========================
1173:..\src/interruptions.c ****         case CONTROL_CURRENT:
1174:..\src/interruptions.c ****             if(g_ref[MOTOR_IDX].onoff && tension_valid) {
 3468              		.loc 1 1174 0
 3469 033a 97F84730 		ldrb	r3, [r7, #71]	@ zero_extendqisi2
 3470 033e 844A     		ldr	r2, .L261+16
 3471 0340 1B01     		lsls	r3, r3, #4
 3472 0342 1344     		add	r3, r3, r2
 3473 0344 0C33     		adds	r3, r3, #12
 3474 0346 1B78     		ldrb	r3, [r3]	@ zero_extendqisi2
 3475 0348 002B     		cmp	r3, #0
 3476 034a 00F09D80 		beq	.L257
 3477              		.loc 1 1174 0 is_stmt 0 discriminator 1
 3478 034e 814B     		ldr	r3, .L261+20
 3479 0350 1B78     		ldrb	r3, [r3]	@ zero_extendqisi2
 3480 0352 002B     		cmp	r3, #0
 3481 0354 00F09880 		beq	.L257
1175:..\src/interruptions.c ****                 
1176:..\src/interruptions.c ****                 i_ref = g_ref[MOTOR_IDX].curr;
 3482              		.loc 1 1176 0 is_stmt 1
 3483 0358 97F84730 		ldrb	r3, [r7, #71]	@ zero_extendqisi2
 3484 035c 7C4A     		ldr	r2, .L261+16
 3485 035e 1B01     		lsls	r3, r3, #4
 3486 0360 1344     		add	r3, r3, r2
 3487 0362 0433     		adds	r3, r3, #4
 3488 0364 1B68     		ldr	r3, [r3]
 3489 0366 BB64     		str	r3, [r7, #72]
1177:..\src/interruptions.c **** 
1178:..\src/interruptions.c ****                 if (i_ref > SH_MOT->current_limit) 
 3490              		.loc 1 1178 0
 3491 0368 3B6C     		ldr	r3, [r7, #64]
 3492 036a B3F95C30 		ldrsh	r3, [r3, #92]
 3493 036e 1A46     		mov	r2, r3
 3494 0370 BB6C     		ldr	r3, [r7, #72]
 3495 0372 9A42     		cmp	r2, r3
 3496 0374 04DA     		bge	.L229
1179:..\src/interruptions.c ****                     i_ref = SH_MOT->current_limit;
 3497              		.loc 1 1179 0
 3498 0376 3B6C     		ldr	r3, [r7, #64]
 3499 0378 B3F95C30 		ldrsh	r3, [r3, #92]
 3500 037c BB64     		str	r3, [r7, #72]
 3501 037e 0BE0     		b	.L230
 3502              	.L229:
1180:..\src/interruptions.c ****                 else {
1181:..\src/interruptions.c ****                     if (i_ref < -SH_MOT->current_limit)
 3503              		.loc 1 1181 0
 3504 0380 3B6C     		ldr	r3, [r7, #64]
 3505 0382 B3F95C30 		ldrsh	r3, [r3, #92]
 3506 0386 5A42     		negs	r2, r3
 3507 0388 BB6C     		ldr	r3, [r7, #72]
 3508 038a 9A42     		cmp	r2, r3
 3509 038c 04DD     		ble	.L230
1182:..\src/interruptions.c ****                         i_ref = -SH_MOT->current_limit;
 3510              		.loc 1 1182 0
 3511 038e 3B6C     		ldr	r3, [r7, #64]
ARM GAS  C:\Users\Mattia\AppData\Local\Temp\cc59Yqin.s 			page 85


 3512 0390 B3F95C30 		ldrsh	r3, [r3, #92]
 3513 0394 5B42     		negs	r3, r3
 3514 0396 BB64     		str	r3, [r7, #72]
 3515              	.L230:
1183:..\src/interruptions.c ****                 }
1184:..\src/interruptions.c ****                 
1185:..\src/interruptions.c ****                 // current error
1186:..\src/interruptions.c ****                 curr_error = i_ref - g_meas[SH_ENC_L].curr;            
 3516              		.loc 1 1186 0
 3517 0398 97F83F30 		ldrb	r3, [r7, #63]	@ zero_extendqisi2
 3518 039c 6E4A     		ldr	r2, .L261+24
 3519 039e 3421     		movs	r1, #52
 3520 03a0 01FB03F3 		mul	r3, r1, r3
 3521 03a4 1344     		add	r3, r3, r2
 3522 03a6 0C33     		adds	r3, r3, #12
 3523 03a8 1B68     		ldr	r3, [r3]
 3524 03aa BA6C     		ldr	r2, [r7, #72]
 3525 03ac D31A     		subs	r3, r2, r3
 3526 03ae 7B60     		str	r3, [r7, #4]
1187:..\src/interruptions.c ****                 curr_error_sum += curr_error;
 3527              		.loc 1 1187 0
 3528 03b0 6A4B     		ldr	r3, .L261+28
 3529 03b2 1A68     		ldr	r2, [r3]
 3530 03b4 7B68     		ldr	r3, [r7, #4]
 3531 03b6 1344     		add	r3, r3, r2
 3532 03b8 684A     		ldr	r2, .L261+28
 3533 03ba 1360     		str	r3, [r2]
1188:..\src/interruptions.c ****                 
1189:..\src/interruptions.c ****                 if (curr_error_sum > CURR_INTEGRAL_SAT_LIMIT)
 3534              		.loc 1 1189 0
 3535 03bc 674B     		ldr	r3, .L261+28
 3536 03be 1B68     		ldr	r3, [r3]
 3537 03c0 674A     		ldr	r2, .L261+32
 3538 03c2 9342     		cmp	r3, r2
 3539 03c4 03DD     		ble	.L231
1190:..\src/interruptions.c ****                     curr_error_sum = CURR_INTEGRAL_SAT_LIMIT;
 3540              		.loc 1 1190 0
 3541 03c6 654B     		ldr	r3, .L261+28
 3542 03c8 654A     		ldr	r2, .L261+32
 3543 03ca 1A60     		str	r2, [r3]
 3544 03cc 07E0     		b	.L232
 3545              	.L231:
1191:..\src/interruptions.c ****                 else {
1192:..\src/interruptions.c ****                     if (curr_error_sum < -CURR_INTEGRAL_SAT_LIMIT) 
 3546              		.loc 1 1192 0
 3547 03ce 634B     		ldr	r3, .L261+28
 3548 03d0 1B68     		ldr	r3, [r3]
 3549 03d2 644A     		ldr	r2, .L261+36
 3550 03d4 9342     		cmp	r3, r2
 3551 03d6 02DA     		bge	.L232
1193:..\src/interruptions.c ****                         curr_error_sum = -CURR_INTEGRAL_SAT_LIMIT;
 3552              		.loc 1 1193 0
 3553 03d8 604B     		ldr	r3, .L261+28
 3554 03da 624A     		ldr	r2, .L261+36
 3555 03dc 1A60     		str	r2, [r3]
 3556              	.L232:
1194:..\src/interruptions.c ****                 }
ARM GAS  C:\Users\Mattia\AppData\Local\Temp\cc59Yqin.s 			page 86


1195:..\src/interruptions.c **** 
1196:..\src/interruptions.c ****                 pwm_input = 0;
 3557              		.loc 1 1196 0
 3558 03de 0023     		movs	r3, #0
 3559 03e0 FB64     		str	r3, [r7, #76]
1197:..\src/interruptions.c **** 
1198:..\src/interruptions.c ****                 // Proportional
1199:..\src/interruptions.c ****                 if (k_p_c != 0)
 3560              		.loc 1 1199 0
 3561 03e2 FB6A     		ldr	r3, [r7, #44]
 3562 03e4 002B     		cmp	r3, #0
 3563 03e6 07D0     		beq	.L233
1200:..\src/interruptions.c ****                     pwm_input += (int32)(k_p_c * curr_error) >> 16;
 3564              		.loc 1 1200 0
 3565 03e8 FB6A     		ldr	r3, [r7, #44]
 3566 03ea 7A68     		ldr	r2, [r7, #4]
 3567 03ec 02FB03F3 		mul	r3, r2, r3
 3568 03f0 1B14     		asrs	r3, r3, #16
 3569 03f2 FA6C     		ldr	r2, [r7, #76]
 3570 03f4 1344     		add	r3, r3, r2
 3571 03f6 FB64     		str	r3, [r7, #76]
 3572              	.L233:
1201:..\src/interruptions.c **** 
1202:..\src/interruptions.c ****                 // Integral
1203:..\src/interruptions.c ****                 if (k_i_c != 0)
 3573              		.loc 1 1203 0
 3574 03f8 BB6A     		ldr	r3, [r7, #40]
 3575 03fa 002B     		cmp	r3, #0
 3576 03fc 08D0     		beq	.L234
1204:..\src/interruptions.c ****                     pwm_input += (int32)(k_i_c * curr_error_sum) >> 16;
 3577              		.loc 1 1204 0
 3578 03fe 574B     		ldr	r3, .L261+28
 3579 0400 1B68     		ldr	r3, [r3]
 3580 0402 BA6A     		ldr	r2, [r7, #40]
 3581 0404 02FB03F3 		mul	r3, r2, r3
 3582 0408 1B14     		asrs	r3, r3, #16
 3583 040a FA6C     		ldr	r2, [r7, #76]
 3584 040c 1344     		add	r3, r3, r2
 3585 040e FB64     		str	r3, [r7, #76]
 3586              	.L234:
1205:..\src/interruptions.c **** 
1206:..\src/interruptions.c ****                 // Derivative
1207:..\src/interruptions.c ****                 if (k_d_c != 0)
 3587              		.loc 1 1207 0
 3588 0410 7B6A     		ldr	r3, [r7, #36]
 3589 0412 002B     		cmp	r3, #0
 3590 0414 0AD0     		beq	.L235
1208:..\src/interruptions.c ****                     pwm_input += (int32)(k_d_c * (curr_error - prev_curr_err)) >> 16;
 3591              		.loc 1 1208 0
 3592 0416 544B     		ldr	r3, .L261+40
 3593 0418 1B68     		ldr	r3, [r3]
 3594 041a 7A68     		ldr	r2, [r7, #4]
 3595 041c D31A     		subs	r3, r2, r3
 3596 041e 7A6A     		ldr	r2, [r7, #36]
 3597 0420 02FB03F3 		mul	r3, r2, r3
 3598 0424 1B14     		asrs	r3, r3, #16
 3599 0426 FA6C     		ldr	r2, [r7, #76]
ARM GAS  C:\Users\Mattia\AppData\Local\Temp\cc59Yqin.s 			page 87


 3600 0428 1344     		add	r3, r3, r2
 3601 042a FB64     		str	r3, [r7, #76]
 3602              	.L235:
1209:..\src/interruptions.c ****                 
1210:..\src/interruptions.c ****                 prev_curr_err = curr_error;
 3603              		.loc 1 1210 0
 3604 042c 4E4A     		ldr	r2, .L261+40
 3605 042e 7B68     		ldr	r3, [r7, #4]
 3606 0430 1360     		str	r3, [r2]
1211:..\src/interruptions.c ****                 
1212:..\src/interruptions.c ****                 if (pwm_input >= 0) 
 3607              		.loc 1 1212 0
 3608 0432 FB6C     		ldr	r3, [r7, #76]
 3609 0434 002B     		cmp	r3, #0
 3610 0436 03DB     		blt	.L236
1213:..\src/interruptions.c ****                     motor_dir = TRUE;
 3611              		.loc 1 1213 0
 3612 0438 444B     		ldr	r3, .L261+12
 3613 043a 0122     		movs	r2, #1
 3614 043c 1A70     		strb	r2, [r3]
1214:..\src/interruptions.c ****                 else
1215:..\src/interruptions.c ****                     motor_dir = FALSE;
1216:..\src/interruptions.c ****             }
1217:..\src/interruptions.c ****         break;
 3615              		.loc 1 1217 0
 3616 043e 23E0     		b	.L257
 3617              	.L236:
1215:..\src/interruptions.c ****             }
 3618              		.loc 1 1215 0
 3619 0440 424B     		ldr	r3, .L261+12
 3620 0442 0022     		movs	r2, #0
 3621 0444 1A70     		strb	r2, [r3]
 3622              		.loc 1 1217 0
 3623 0446 1FE0     		b	.L257
 3624              	.L202:
1218:..\src/interruptions.c ****         
1219:..\src/interruptions.c ****         // ================= DIRECT PWM CONTROL ================================
1220:..\src/interruptions.c ****         case CONTROL_PWM:
1221:..\src/interruptions.c **** 
1222:..\src/interruptions.c ****             pwm_input = g_ref[MOTOR_IDX].pwm;
 3625              		.loc 1 1222 0
 3626 0448 97F84730 		ldrb	r3, [r7, #71]	@ zero_extendqisi2
 3627 044c 404A     		ldr	r2, .L261+16
 3628 044e 1B01     		lsls	r3, r3, #4
 3629 0450 1344     		add	r3, r3, r2
 3630 0452 0833     		adds	r3, r3, #8
 3631 0454 1B68     		ldr	r3, [r3]
 3632 0456 FB64     		str	r3, [r7, #76]
1223:..\src/interruptions.c **** 
1224:..\src/interruptions.c ****             if (pwm_input > 0) 
 3633              		.loc 1 1224 0
 3634 0458 FB6C     		ldr	r3, [r7, #76]
 3635 045a 002B     		cmp	r3, #0
 3636 045c 03DD     		ble	.L237
1225:..\src/interruptions.c ****                 motor_dir = TRUE;
 3637              		.loc 1 1225 0
 3638 045e 3B4B     		ldr	r3, .L261+12
ARM GAS  C:\Users\Mattia\AppData\Local\Temp\cc59Yqin.s 			page 88


 3639 0460 0122     		movs	r2, #1
 3640 0462 1A70     		strb	r2, [r3]
 3641 0464 02E0     		b	.L238
 3642              	.L237:
1226:..\src/interruptions.c ****             else 
1227:..\src/interruptions.c ****                 motor_dir = FALSE;
 3643              		.loc 1 1227 0
 3644 0466 394B     		ldr	r3, .L261+12
 3645 0468 0022     		movs	r2, #0
 3646 046a 1A70     		strb	r2, [r3]
 3647              	.L238:
1228:..\src/interruptions.c ****             
1229:..\src/interruptions.c **** 
1230:..\src/interruptions.c ****             // pwm_input saturation
1231:..\src/interruptions.c ****             if (pwm_input < -PWM_MAX_VALUE) 
 3648              		.loc 1 1231 0
 3649 046c FB6C     		ldr	r3, [r7, #76]
 3650 046e 13F1640F 		cmn	r3, #100
 3651 0472 03DA     		bge	.L239
1232:..\src/interruptions.c ****                 pwm_input = -PWM_MAX_VALUE;
 3652              		.loc 1 1232 0
 3653 0474 6FF06303 		mvn	r3, #99
 3654 0478 FB64     		str	r3, [r7, #76]
1233:..\src/interruptions.c ****             else {
1234:..\src/interruptions.c **** 				if (pwm_input > PWM_MAX_VALUE) 
1235:..\src/interruptions.c ****                 	pwm_input = PWM_MAX_VALUE;
1236:..\src/interruptions.c ****         	}
1237:..\src/interruptions.c **** 
1238:..\src/interruptions.c ****         break;
 3655              		.loc 1 1238 0
 3656 047a 07E0     		b	.L258
 3657              	.L239:
1234:..\src/interruptions.c ****                 	pwm_input = PWM_MAX_VALUE;
 3658              		.loc 1 1234 0
 3659 047c FB6C     		ldr	r3, [r7, #76]
 3660 047e 642B     		cmp	r3, #100
 3661 0480 04DD     		ble	.L258
1235:..\src/interruptions.c ****         	}
 3662              		.loc 1 1235 0
 3663 0482 6423     		movs	r3, #100
 3664 0484 FB64     		str	r3, [r7, #76]
 3665              		.loc 1 1238 0
 3666 0486 01E0     		b	.L258
 3667              	.L257:
1217:..\src/interruptions.c ****         
 3668              		.loc 1 1217 0
 3669 0488 00BF     		nop
 3670 048a 00E0     		b	.L199
 3671              	.L258:
 3672              		.loc 1 1238 0
 3673 048c 00BF     		nop
 3674              	.L199:
1239:..\src/interruptions.c ****             
1240:..\src/interruptions.c ****     }
1241:..\src/interruptions.c **** 
1242:..\src/interruptions.c ****     ////////////////////////////////////////////////////////////////////////////
1243:..\src/interruptions.c **** 
ARM GAS  C:\Users\Mattia\AppData\Local\Temp\cc59Yqin.s 			page 89


1244:..\src/interruptions.c ****     if(pwm_input >  PWM_MAX_VALUE) 
 3675              		.loc 1 1244 0
 3676 048e FB6C     		ldr	r3, [r7, #76]
 3677 0490 642B     		cmp	r3, #100
 3678 0492 01DD     		ble	.L241
1245:..\src/interruptions.c ****         pwm_input =  PWM_MAX_VALUE;
 3679              		.loc 1 1245 0
 3680 0494 6423     		movs	r3, #100
 3681 0496 FB64     		str	r3, [r7, #76]
 3682              	.L241:
1246:..\src/interruptions.c ****     if(pwm_input < -PWM_MAX_VALUE) 
 3683              		.loc 1 1246 0
 3684 0498 FB6C     		ldr	r3, [r7, #76]
 3685 049a 13F1640F 		cmn	r3, #100
 3686 049e 02DA     		bge	.L242
1247:..\src/interruptions.c ****         pwm_input = -PWM_MAX_VALUE;
 3687              		.loc 1 1247 0
 3688 04a0 6FF06303 		mvn	r3, #99
 3689 04a4 FB64     		str	r3, [r7, #76]
 3690              	.L242:
1248:..\src/interruptions.c **** 
1249:..\src/interruptions.c ****     if (SH_MOT->control_mode != CONTROL_PWM) 
 3691              		.loc 1 1249 0
 3692 04a6 3B6C     		ldr	r3, [r7, #64]
 3693 04a8 93F85F30 		ldrb	r3, [r3, #95]	@ zero_extendqisi2
 3694 04ac 012B     		cmp	r3, #1
 3695 04ae 0DD0     		beq	.L243
1250:..\src/interruptions.c ****         pwm_input = (((pwm_input << 10) / PWM_MAX_VALUE) * dev_pwm_limit[0]) >> 10;
 3696              		.loc 1 1250 0
 3697 04b0 FB6C     		ldr	r3, [r7, #76]
 3698 04b2 9B02     		lsls	r3, r3, #10
 3699 04b4 2D4A     		ldr	r2, .L261+44
 3700 04b6 82FB0312 		smull	r1, r2, r2, r3
 3701 04ba 5211     		asrs	r2, r2, #5
 3702 04bc DB17     		asrs	r3, r3, #31
 3703 04be D31A     		subs	r3, r2, r3
 3704 04c0 2B4A     		ldr	r2, .L261+48
 3705 04c2 1278     		ldrb	r2, [r2]	@ zero_extendqisi2
 3706 04c4 02FB03F3 		mul	r3, r2, r3
 3707 04c8 9B12     		asrs	r3, r3, #10
 3708 04ca FB64     		str	r3, [r7, #76]
 3709              	.L243:
1251:..\src/interruptions.c ****  
1252:..\src/interruptions.c ****     //// RATE LIMITER ////
1253:..\src/interruptions.c ****     if((pwm_input-prev_pwm) > SH_MOT->pwm_rate_limiter){
 3710              		.loc 1 1253 0
 3711 04cc 294B     		ldr	r3, .L261+52
 3712 04ce 1B68     		ldr	r3, [r3]
 3713 04d0 FA6C     		ldr	r2, [r7, #76]
 3714 04d2 D31A     		subs	r3, r2, r3
 3715 04d4 3A6C     		ldr	r2, [r7, #64]
 3716 04d6 92F86120 		ldrb	r2, [r2, #97]	@ zero_extendqisi2
 3717 04da 9342     		cmp	r3, r2
 3718 04dc 08DD     		ble	.L244
1254:..\src/interruptions.c ****         pwm_input =  prev_pwm + SH_MOT->pwm_rate_limiter;
 3719              		.loc 1 1254 0
 3720 04de 3B6C     		ldr	r3, [r7, #64]
ARM GAS  C:\Users\Mattia\AppData\Local\Temp\cc59Yqin.s 			page 90


 3721 04e0 93F86130 		ldrb	r3, [r3, #97]	@ zero_extendqisi2
 3722 04e4 1A46     		mov	r2, r3
 3723 04e6 234B     		ldr	r3, .L261+52
 3724 04e8 1B68     		ldr	r3, [r3]
 3725 04ea 1344     		add	r3, r3, r2
 3726 04ec FB64     		str	r3, [r7, #76]
 3727 04ee 10E0     		b	.L245
 3728              	.L244:
1255:..\src/interruptions.c ****     }
1256:..\src/interruptions.c ****     else {
1257:..\src/interruptions.c ****         if((pwm_input-prev_pwm) < -SH_MOT->pwm_rate_limiter)
 3729              		.loc 1 1257 0
 3730 04f0 204B     		ldr	r3, .L261+52
 3731 04f2 1B68     		ldr	r3, [r3]
 3732 04f4 FA6C     		ldr	r2, [r7, #76]
 3733 04f6 D21A     		subs	r2, r2, r3
 3734 04f8 3B6C     		ldr	r3, [r7, #64]
 3735 04fa 93F86130 		ldrb	r3, [r3, #97]	@ zero_extendqisi2
 3736 04fe 5B42     		negs	r3, r3
 3737 0500 9A42     		cmp	r2, r3
 3738 0502 06DA     		bge	.L245
1258:..\src/interruptions.c ****             pwm_input =  prev_pwm - SH_MOT->pwm_rate_limiter;
 3739              		.loc 1 1258 0
 3740 0504 1B4B     		ldr	r3, .L261+52
 3741 0506 1B68     		ldr	r3, [r3]
 3742 0508 3A6C     		ldr	r2, [r7, #64]
 3743 050a 92F86120 		ldrb	r2, [r2, #97]	@ zero_extendqisi2
 3744 050e 9B1A     		subs	r3, r3, r2
 3745 0510 FB64     		str	r3, [r7, #76]
 3746              	.L245:
1259:..\src/interruptions.c ****     }
1260:..\src/interruptions.c ****     
1261:..\src/interruptions.c ****     if(pwm_input >  PWM_MAX_VALUE) 
 3747              		.loc 1 1261 0
 3748 0512 FB6C     		ldr	r3, [r7, #76]
 3749 0514 642B     		cmp	r3, #100
 3750 0516 01DD     		ble	.L246
1262:..\src/interruptions.c ****         pwm_input =  PWM_MAX_VALUE;
 3751              		.loc 1 1262 0
 3752 0518 6423     		movs	r3, #100
 3753 051a FB64     		str	r3, [r7, #76]
 3754              	.L246:
1263:..\src/interruptions.c ****     if(pwm_input < -PWM_MAX_VALUE) 
 3755              		.loc 1 1263 0
 3756 051c FB6C     		ldr	r3, [r7, #76]
 3757 051e 13F1640F 		cmn	r3, #100
 3758 0522 02DA     		bge	.L247
1264:..\src/interruptions.c ****         pwm_input = -PWM_MAX_VALUE;
 3759              		.loc 1 1264 0
 3760 0524 6FF06303 		mvn	r3, #99
 3761 0528 FB64     		str	r3, [r7, #76]
 3762              	.L247:
1265:..\src/interruptions.c ****     
1266:..\src/interruptions.c ****     prev_pwm = pwm_input;
 3763              		.loc 1 1266 0
 3764 052a 124A     		ldr	r2, .L261+52
 3765 052c FB6C     		ldr	r3, [r7, #76]
ARM GAS  C:\Users\Mattia\AppData\Local\Temp\cc59Yqin.s 			page 91


 3766 052e 1360     		str	r3, [r2]
1267:..\src/interruptions.c **** 	
1268:..\src/interruptions.c ****     pwm_sign[MOTOR_IDX] = SIGN(pwm_input);   
 3767              		.loc 1 1268 0
 3768 0530 97F84730 		ldrb	r3, [r7, #71]	@ zero_extendqisi2
 3769 0534 FA6C     		ldr	r2, [r7, #76]
 3770 0536 002A     		cmp	r2, #0
 3771 0538 1EDB     		blt	.L248
 3772              		.loc 1 1268 0 is_stmt 0 discriminator 1
 3773 053a 0121     		movs	r1, #1
 3774 053c 1EE0     		b	.L249
 3775              	.L262:
 3776 053e 00BF     		.align	2
 3777              	.L261:
 3778 0540 90000000 		.word	pos_error_sum.10555
 3779 0544 18FCFFFF 		.word	-1000
 3780 0548 94000000 		.word	prev_pos_err.10557
 3781 054c 98000000 		.word	motor_dir.10560
 3782 0550 00000000 		.word	g_ref
 3783 0554 00000000 		.word	tension_valid
 3784 0558 00000000 		.word	g_meas
 3785 055c 9C000000 		.word	curr_error_sum.10556
 3786 0560 A0860100 		.word	100000
 3787 0564 6079FEFF 		.word	-100000
 3788 0568 A0000000 		.word	prev_curr_err.10558
 3789 056c 1F85EB51 		.word	1374389535
 3790 0570 00000000 		.word	dev_pwm_limit
 3791 0574 A4000000 		.word	prev_pwm.10559
 3792              	.L248:
 3793              		.loc 1 1268 0 discriminator 2
 3794 0578 4FF0FF31 		mov	r1, #-1
 3795              	.L249:
 3796              		.loc 1 1268 0 discriminator 4
 3797 057c 5A4A     		ldr	r2, .L263
 3798 057e D154     		strb	r1, [r2, r3]
1269:..\src/interruptions.c ****     
1270:..\src/interruptions.c ****     if (SH_MOT->not_revers_motor_flag == TRUE) {
 3799              		.loc 1 1270 0 is_stmt 1 discriminator 4
 3800 0580 3B6C     		ldr	r3, [r7, #64]
 3801 0582 93F86230 		ldrb	r3, [r3, #98]	@ zero_extendqisi2
 3802 0586 012B     		cmp	r3, #1
 3803 0588 40F09680 		bne	.L250
1271:..\src/interruptions.c ****         // Block motor with pwm = 0 to exploit not reversible motor behaviour 
1272:..\src/interruptions.c ****     	if ( SH_MOT->control_mode != CONTROL_PWM && ((g_measOld[SH_ENC_L].pos[0]-g_meas[SH_ENC_L].pos[
 3804              		.loc 1 1272 0
 3805 058c 3B6C     		ldr	r3, [r7, #64]
 3806 058e 93F85F30 		ldrb	r3, [r3, #95]	@ zero_extendqisi2
 3807 0592 012B     		cmp	r3, #1
 3808 0594 00F08D80 		beq	.L251
 3809              		.loc 1 1272 0 is_stmt 0 discriminator 1
 3810 0598 97F83F30 		ldrb	r3, [r7, #63]	@ zero_extendqisi2
 3811 059c 534A     		ldr	r2, .L263+4
 3812 059e 3421     		movs	r1, #52
 3813 05a0 01FB03F3 		mul	r3, r1, r3
 3814 05a4 1344     		add	r3, r3, r2
 3815 05a6 1A68     		ldr	r2, [r3]
 3816 05a8 97F83F30 		ldrb	r3, [r7, #63]	@ zero_extendqisi2
ARM GAS  C:\Users\Mattia\AppData\Local\Temp\cc59Yqin.s 			page 92


 3817 05ac 5049     		ldr	r1, .L263+8
 3818 05ae 3420     		movs	r0, #52
 3819 05b0 00FB03F3 		mul	r3, r0, r3
 3820 05b4 0B44     		add	r3, r3, r1
 3821 05b6 1B68     		ldr	r3, [r3]
 3822 05b8 D31A     		subs	r3, r2, r3
 3823 05ba 312B     		cmp	r3, #49
 3824 05bc 79DC     		bgt	.L251
1273:..\src/interruptions.c ****             (g_measOld[SH_ENC_L].pos[0]-g_meas[SH_ENC_L].pos[0]) > -50) && 
 3825              		.loc 1 1273 0 is_stmt 1 discriminator 2
 3826 05be 97F83F30 		ldrb	r3, [r7, #63]	@ zero_extendqisi2
 3827 05c2 4A4A     		ldr	r2, .L263+4
 3828 05c4 3421     		movs	r1, #52
 3829 05c6 01FB03F3 		mul	r3, r1, r3
 3830 05ca 1344     		add	r3, r3, r2
 3831 05cc 1A68     		ldr	r2, [r3]
 3832 05ce 97F83F30 		ldrb	r3, [r7, #63]	@ zero_extendqisi2
 3833 05d2 4749     		ldr	r1, .L263+8
 3834 05d4 3420     		movs	r0, #52
 3835 05d6 00FB03F3 		mul	r3, r0, r3
 3836 05da 0B44     		add	r3, r3, r1
 3837 05dc 1B68     		ldr	r3, [r3]
 3838 05de D31A     		subs	r3, r2, r3
1272:..\src/interruptions.c ****             (g_measOld[SH_ENC_L].pos[0]-g_meas[SH_ENC_L].pos[0]) > -50) && 
 3839              		.loc 1 1272 0 discriminator 2
 3840 05e0 13F1310F 		cmn	r3, #49
 3841 05e4 65DB     		blt	.L251
1274:..\src/interruptions.c ****             ((g_refOld[MOTOR_IDX].pos - g_ref[MOTOR_IDX].pos) < 100 && (g_refOld[MOTOR_IDX].pos - g
 3842              		.loc 1 1274 0
 3843 05e6 97F84730 		ldrb	r3, [r7, #71]	@ zero_extendqisi2
 3844 05ea 424A     		ldr	r2, .L263+12
 3845 05ec 1B01     		lsls	r3, r3, #4
 3846 05ee 1344     		add	r3, r3, r2
 3847 05f0 1A68     		ldr	r2, [r3]
 3848 05f2 97F84730 		ldrb	r3, [r7, #71]	@ zero_extendqisi2
 3849 05f6 4049     		ldr	r1, .L263+16
 3850 05f8 1B01     		lsls	r3, r3, #4
 3851 05fa 0B44     		add	r3, r3, r1
 3852 05fc 1B68     		ldr	r3, [r3]
 3853 05fe D31A     		subs	r3, r2, r3
1273:..\src/interruptions.c ****             (g_measOld[SH_ENC_L].pos[0]-g_meas[SH_ENC_L].pos[0]) > -50) && 
 3854              		.loc 1 1273 0
 3855 0600 632B     		cmp	r3, #99
 3856 0602 56DC     		bgt	.L251
 3857              		.loc 1 1274 0
 3858 0604 97F84730 		ldrb	r3, [r7, #71]	@ zero_extendqisi2
 3859 0608 3A4A     		ldr	r2, .L263+12
 3860 060a 1B01     		lsls	r3, r3, #4
 3861 060c 1344     		add	r3, r3, r2
 3862 060e 1A68     		ldr	r2, [r3]
 3863 0610 97F84730 		ldrb	r3, [r7, #71]	@ zero_extendqisi2
 3864 0614 3849     		ldr	r1, .L263+16
 3865 0616 1B01     		lsls	r3, r3, #4
 3866 0618 0B44     		add	r3, r3, r1
 3867 061a 1B68     		ldr	r3, [r3]
 3868 061c D31A     		subs	r3, r2, r3
 3869 061e 13F1630F 		cmn	r3, #99
ARM GAS  C:\Users\Mattia\AppData\Local\Temp\cc59Yqin.s 			page 93


 3870 0622 46DB     		blt	.L251
1275:..\src/interruptions.c ****             position_counter++;
 3871              		.loc 1 1275 0
 3872 0624 354B     		ldr	r3, .L263+20
 3873 0626 1B68     		ldr	r3, [r3]
 3874 0628 0133     		adds	r3, r3, #1
 3875 062a 344A     		ldr	r2, .L263+20
 3876 062c 1360     		str	r3, [r2]
1276:..\src/interruptions.c ****             
1277:..\src/interruptions.c ****             if (position_counter >= 250) { 
 3877              		.loc 1 1277 0
 3878 062e 334B     		ldr	r3, .L263+20
 3879 0630 1B68     		ldr	r3, [r3]
 3880 0632 F92B     		cmp	r3, #249
 3881 0634 40D9     		bls	.L250
1278:..\src/interruptions.c ****                 if (SH_MOT->input_mode == INPUT_MODE_EXTERNAL && change_ext_ref_flag == FALSE) {
 3882              		.loc 1 1278 0
 3883 0636 3B6C     		ldr	r3, [r7, #64]
 3884 0638 93F85E30 		ldrb	r3, [r3, #94]	@ zero_extendqisi2
 3885 063c 002B     		cmp	r3, #0
 3886 063e 11D1     		bne	.L253
 3887              		.loc 1 1278 0 is_stmt 0 discriminator 1
 3888 0640 2F4B     		ldr	r3, .L263+24
 3889 0642 1B78     		ldrb	r3, [r3]	@ zero_extendqisi2
 3890 0644 002B     		cmp	r3, #0
 3891 0646 0DD1     		bne	.L253
1279:..\src/interruptions.c ****                     g_refNew[MOTOR_IDX].pos = g_meas[SH_ENC_L].pos[0];       // Needed only when US
 3892              		.loc 1 1279 0 is_stmt 1
 3893 0648 97F84730 		ldrb	r3, [r7, #71]	@ zero_extendqisi2
 3894 064c 97F83F20 		ldrb	r2, [r7, #63]	@ zero_extendqisi2
 3895 0650 2749     		ldr	r1, .L263+8
 3896 0652 3420     		movs	r0, #52
 3897 0654 00FB02F2 		mul	r2, r0, r2
 3898 0658 0A44     		add	r2, r2, r1
 3899 065a 1268     		ldr	r2, [r2]
 3900 065c 2949     		ldr	r1, .L263+28
 3901 065e 1B01     		lsls	r3, r3, #4
 3902 0660 0B44     		add	r3, r3, r1
 3903 0662 1A60     		str	r2, [r3]
 3904              	.L253:
1280:..\src/interruptions.c ****                 }
1281:..\src/interruptions.c ****                 g_ref[MOTOR_IDX].pos = g_meas[SH_ENC_L].pos[0];
 3905              		.loc 1 1281 0
 3906 0664 97F84730 		ldrb	r3, [r7, #71]	@ zero_extendqisi2
 3907 0668 97F83F20 		ldrb	r2, [r7, #63]	@ zero_extendqisi2
