ARM GAS  C:\Users\Mattia\AppData\Local\Temp\ccPr8Am1.s 			page 1


   1              		.syntax unified
   2              		.cpu cortex-m3
   3              		.fpu softvfp
   4              		.eabi_attribute 20, 1
   5              		.eabi_attribute 21, 1
   6              		.eabi_attribute 23, 3
   7              		.eabi_attribute 24, 1
   8              		.eabi_attribute 25, 1
   9              		.eabi_attribute 26, 1
  10              		.eabi_attribute 30, 6
  11              		.eabi_attribute 34, 1
  12              		.eabi_attribute 18, 4
  13              		.thumb
  14              		.syntax unified
  15              		.file	"SD_RTC_functions.c"
  16              		.text
  17              	.Ltext0:
  18              		.cfi_sections	.debug_frame
  19              		.section	.text.DS1302_write,"ax",%progbits
  20              		.align	2
  21              		.global	DS1302_write
  22              		.thumb
  23              		.thumb_func
  24              		.type	DS1302_write, %function
  25              	DS1302_write:
  26              	.LFB64:
  27              		.file 1 "..\\src\\SD_RTC_functions.c"
   1:..\src/SD_RTC_functions.c **** // ----------------------------------------------------------------------------
   2:..\src/SD_RTC_functions.c **** // BSD 3-Clause License
   3:..\src/SD_RTC_functions.c **** 
   4:..\src/SD_RTC_functions.c **** // Copyright (c) 2016, qbrobotics
   5:..\src/SD_RTC_functions.c **** // Copyright (c) 2017-2020, Centro "E.Piaggio"
   6:..\src/SD_RTC_functions.c **** // All rights reserved.
   7:..\src/SD_RTC_functions.c **** 
   8:..\src/SD_RTC_functions.c **** // Redistribution and use in source and binary forms, with or without
   9:..\src/SD_RTC_functions.c **** // modification, are permitted provided that the following conditions are met:
  10:..\src/SD_RTC_functions.c **** 
  11:..\src/SD_RTC_functions.c **** // * Redistributions of source code must retain the above copyright notice, this
  12:..\src/SD_RTC_functions.c **** //   list of conditions and the following disclaimer.
  13:..\src/SD_RTC_functions.c **** 
  14:..\src/SD_RTC_functions.c **** // * Redistributions in binary form must reproduce the above copyright notice,
  15:..\src/SD_RTC_functions.c **** //   this list of conditions and the following disclaimer in the documentation
  16:..\src/SD_RTC_functions.c **** //   and/or other materials provided with the distribution.
  17:..\src/SD_RTC_functions.c **** 
  18:..\src/SD_RTC_functions.c **** // * Neither the name of the copyright holder nor the names of its
  19:..\src/SD_RTC_functions.c **** //   contributors may be used to endorse or promote products derived from
  20:..\src/SD_RTC_functions.c **** //   this software without specific prior written permission.
  21:..\src/SD_RTC_functions.c **** 
  22:..\src/SD_RTC_functions.c **** // THIS SOFTWARE IS PROVIDED BY THE COPYRIGHT HOLDERS AND CONTRIBUTORS "AS IS"
  23:..\src/SD_RTC_functions.c **** // AND ANY EXPRESS OR IMPLIED WARRANTIES, INCLUDING, BUT NOT LIMITED TO, THE
  24:..\src/SD_RTC_functions.c **** // IMPLIED WARRANTIES OF MERCHANTABILITY AND FITNESS FOR A PARTICULAR PURPOSE ARE
  25:..\src/SD_RTC_functions.c **** // DISCLAIMED. IN NO EVENT SHALL THE COPYRIGHT HOLDER OR CONTRIBUTORS BE LIABLE
  26:..\src/SD_RTC_functions.c **** // FOR ANY DIRECT, INDIRECT, INCIDENTAL, SPECIAL, EXEMPLARY, OR CONSEQUENTIAL
  27:..\src/SD_RTC_functions.c **** // DAMAGES (INCLUDING, BUT NOT LIMITED TO, PROCUREMENT OF SUBSTITUTE GOODS OR
  28:..\src/SD_RTC_functions.c **** // SERVICES; LOSS OF USE, DATA, OR PROFITS; OR BUSINESS INTERRUPTION) HOWEVER
  29:..\src/SD_RTC_functions.c **** // CAUSED AND ON ANY THEORY OF LIABILITY, WHETHER IN CONTRACT, STRICT LIABILITY,
  30:..\src/SD_RTC_functions.c **** // OR TORT (INCLUDING NEGLIGENCE OR OTHERWISE) ARISING IN ANY WAY OUT OF THE USE
ARM GAS  C:\Users\Mattia\AppData\Local\Temp\ccPr8Am1.s 			page 2


  31:..\src/SD_RTC_functions.c **** // OF THIS SOFTWARE, EVEN IF ADVISED OF THE POSSIBILITY OF SUCH DAMAGE.
  32:..\src/SD_RTC_functions.c **** // POSSIBILITY OF SUCH DAMAGE.
  33:..\src/SD_RTC_functions.c **** // ----------------------------------------------------------------------------
  34:..\src/SD_RTC_functions.c **** 
  35:..\src/SD_RTC_functions.c **** /**
  36:..\src/SD_RTC_functions.c **** * \file         SD_RTC_functions.c
  37:..\src/SD_RTC_functions.c **** *
  38:..\src/SD_RTC_functions.c **** * \brief        Implementation of SD and RTC module functions.
  39:..\src/SD_RTC_functions.c **** * \date         March 20th, 2020
  40:..\src/SD_RTC_functions.c **** * \author       _Centro "E.Piaggio"_
  41:..\src/SD_RTC_functions.c **** * \copyright    (C) 2012-2016 qbrobotics. All rights reserved.
  42:..\src/SD_RTC_functions.c **** * \copyright    (C) 2017-2020 Centro "E.Piaggio". All rights reserved.
  43:..\src/SD_RTC_functions.c **** */
  44:..\src/SD_RTC_functions.c **** 
  45:..\src/SD_RTC_functions.c **** #include "SD_RTC_functions.h"
  46:..\src/SD_RTC_functions.c **** 
  47:..\src/SD_RTC_functions.c **** // --------------------------------------------------------
  48:..\src/SD_RTC_functions.c **** // DS1302_write
  49:..\src/SD_RTC_functions.c **** void DS1302_write(uint8 address, uint8 data_wr) {
  28              		.loc 1 49 0
  29              		.cfi_startproc
  30              		@ args = 0, pretend = 0, frame = 8
  31              		@ frame_needed = 1, uses_anonymous_args = 0
  32 0000 80B5     		push	{r7, lr}
  33              		.cfi_def_cfa_offset 8
  34              		.cfi_offset 7, -8
  35              		.cfi_offset 14, -4
  36 0002 82B0     		sub	sp, sp, #8
  37              		.cfi_def_cfa_offset 16
  38 0004 00AF     		add	r7, sp, #0
  39              		.cfi_def_cfa_register 7
  40 0006 0346     		mov	r3, r0
  41 0008 0A46     		mov	r2, r1
  42 000a FB71     		strb	r3, [r7, #7]
  43 000c 1346     		mov	r3, r2
  44 000e BB71     		strb	r3, [r7, #6]
  50:..\src/SD_RTC_functions.c **** 
  51:..\src/SD_RTC_functions.c ****   CLK_RTC_Write(0);  
  45              		.loc 1 51 0
  46 0010 0020     		movs	r0, #0
  47 0012 FFF7FEFF 		bl	CLK_RTC_Write
  52:..\src/SD_RTC_functions.c ****   CS_RTC_Write(1);
  48              		.loc 1 52 0
  49 0016 0120     		movs	r0, #1
  50 0018 FFF7FEFF 		bl	CS_RTC_Write
  53:..\src/SD_RTC_functions.c ****   CyDelayUs(5);
  51              		.loc 1 53 0
  52 001c 0520     		movs	r0, #5
  53 001e FFF7FEFF 		bl	CyDelayUs
  54:..\src/SD_RTC_functions.c ****   DS1302_writeByte(address);
  54              		.loc 1 54 0
  55 0022 FB79     		ldrb	r3, [r7, #7]	@ zero_extendqisi2
  56 0024 1846     		mov	r0, r3
  57 0026 FFF7FEFF 		bl	DS1302_writeByte
  55:..\src/SD_RTC_functions.c ****   DS1302_writeByte(data_wr);
  58              		.loc 1 55 0
  59 002a BB79     		ldrb	r3, [r7, #6]	@ zero_extendqisi2
ARM GAS  C:\Users\Mattia\AppData\Local\Temp\ccPr8Am1.s 			page 3


  60 002c 1846     		mov	r0, r3
  61 002e FFF7FEFF 		bl	DS1302_writeByte
  56:..\src/SD_RTC_functions.c ****   
  57:..\src/SD_RTC_functions.c ****   CS_RTC_Write(0);
  62              		.loc 1 57 0
  63 0032 0020     		movs	r0, #0
  64 0034 FFF7FEFF 		bl	CS_RTC_Write
  58:..\src/SD_RTC_functions.c ****   CyDelayUs(5);
  65              		.loc 1 58 0
  66 0038 0520     		movs	r0, #5
  67 003a FFF7FEFF 		bl	CyDelayUs
  59:..\src/SD_RTC_functions.c **** }
  68              		.loc 1 59 0
  69 003e 00BF     		nop
  70 0040 0837     		adds	r7, r7, #8
  71              		.cfi_def_cfa_offset 8
  72 0042 BD46     		mov	sp, r7
  73              		.cfi_def_cfa_register 13
  74              		@ sp needed
  75 0044 80BD     		pop	{r7, pc}
  76              		.cfi_endproc
  77              	.LFE64:
  78              		.size	DS1302_write, .-DS1302_write
  79 0046 00BF     		.section	.text.DS1302_writeByte,"ax",%progbits
  80              		.align	2
  81              		.global	DS1302_writeByte
  82              		.thumb
  83              		.thumb_func
  84              		.type	DS1302_writeByte, %function
  85              	DS1302_writeByte:
  86              	.LFB65:
  60:..\src/SD_RTC_functions.c **** 
  61:..\src/SD_RTC_functions.c **** void DS1302_writeByte(uint8 data_wr) {
  87              		.loc 1 61 0
  88              		.cfi_startproc
  89              		@ args = 0, pretend = 0, frame = 8
  90              		@ frame_needed = 1, uses_anonymous_args = 0
  91 0000 80B5     		push	{r7, lr}
  92              		.cfi_def_cfa_offset 8
  93              		.cfi_offset 7, -8
  94              		.cfi_offset 14, -4
  95 0002 82B0     		sub	sp, sp, #8
  96              		.cfi_def_cfa_offset 16
  97 0004 00AF     		add	r7, sp, #0
  98              		.cfi_def_cfa_register 7
  99 0006 0346     		mov	r3, r0
 100 0008 FB71     		strb	r3, [r7, #7]
  62:..\src/SD_RTC_functions.c ****   
  63:..\src/SD_RTC_functions.c ****   shiftOut_RTC(data_wr);
 101              		.loc 1 63 0
 102 000a FB79     		ldrb	r3, [r7, #7]	@ zero_extendqisi2
 103 000c 1846     		mov	r0, r3
 104 000e FFF7FEFF 		bl	shiftOut_RTC
  64:..\src/SD_RTC_functions.c **** 
  65:..\src/SD_RTC_functions.c **** }
 105              		.loc 1 65 0
 106 0012 00BF     		nop
ARM GAS  C:\Users\Mattia\AppData\Local\Temp\ccPr8Am1.s 			page 4


 107 0014 0837     		adds	r7, r7, #8
 108              		.cfi_def_cfa_offset 8
 109 0016 BD46     		mov	sp, r7
 110              		.cfi_def_cfa_register 13
 111              		@ sp needed
 112 0018 80BD     		pop	{r7, pc}
 113              		.cfi_endproc
 114              	.LFE65:
 115              		.size	DS1302_writeByte, .-DS1302_writeByte
 116 001a 00BF     		.section	.text.DS1302_read,"ax",%progbits
 117              		.align	2
 118              		.global	DS1302_read
 119              		.thumb
 120              		.thumb_func
 121              		.type	DS1302_read, %function
 122              	DS1302_read:
 123              	.LFB66:
  66:..\src/SD_RTC_functions.c **** 
  67:..\src/SD_RTC_functions.c **** uint8 DS1302_read(uint8 address) {
 124              		.loc 1 67 0
 125              		.cfi_startproc
 126              		@ args = 0, pretend = 0, frame = 16
 127              		@ frame_needed = 1, uses_anonymous_args = 0
 128 0000 80B5     		push	{r7, lr}
 129              		.cfi_def_cfa_offset 8
 130              		.cfi_offset 7, -8
 131              		.cfi_offset 14, -4
 132 0002 84B0     		sub	sp, sp, #16
 133              		.cfi_def_cfa_offset 24
 134 0004 00AF     		add	r7, sp, #0
 135              		.cfi_def_cfa_register 7
 136 0006 0346     		mov	r3, r0
 137 0008 FB71     		strb	r3, [r7, #7]
  68:..\src/SD_RTC_functions.c **** 
  69:..\src/SD_RTC_functions.c ****   uint8 readValue;
  70:..\src/SD_RTC_functions.c ****   CLK_RTC_Write(0); 
 138              		.loc 1 70 0
 139 000a 0020     		movs	r0, #0
 140 000c FFF7FEFF 		bl	CLK_RTC_Write
  71:..\src/SD_RTC_functions.c ****   CS_RTC_Write(1);
 141              		.loc 1 71 0
 142 0010 0120     		movs	r0, #1
 143 0012 FFF7FEFF 		bl	CS_RTC_Write
  72:..\src/SD_RTC_functions.c ****   CyDelayUs(5);
 144              		.loc 1 72 0
 145 0016 0520     		movs	r0, #5
 146 0018 FFF7FEFF 		bl	CyDelayUs
  73:..\src/SD_RTC_functions.c ****   DS1302_writeByte(address);
 147              		.loc 1 73 0
 148 001c FB79     		ldrb	r3, [r7, #7]	@ zero_extendqisi2
 149 001e 1846     		mov	r0, r3
 150 0020 FFF7FEFF 		bl	DS1302_writeByte
  74:..\src/SD_RTC_functions.c ****   readValue = DS1302_readByte();
 151              		.loc 1 74 0
 152 0024 FFF7FEFF 		bl	DS1302_readByte
 153 0028 0346     		mov	r3, r0
 154 002a FB73     		strb	r3, [r7, #15]
ARM GAS  C:\Users\Mattia\AppData\Local\Temp\ccPr8Am1.s 			page 5


  75:..\src/SD_RTC_functions.c ****   CS_RTC_Write(0);
 155              		.loc 1 75 0
 156 002c 0020     		movs	r0, #0
 157 002e FFF7FEFF 		bl	CS_RTC_Write
  76:..\src/SD_RTC_functions.c ****   CyDelayUs(5);
 158              		.loc 1 76 0
 159 0032 0520     		movs	r0, #5
 160 0034 FFF7FEFF 		bl	CyDelayUs
  77:..\src/SD_RTC_functions.c ****   return readValue;
 161              		.loc 1 77 0
 162 0038 FB7B     		ldrb	r3, [r7, #15]	@ zero_extendqisi2
  78:..\src/SD_RTC_functions.c ****   
  79:..\src/SD_RTC_functions.c **** }
 163              		.loc 1 79 0
 164 003a 1846     		mov	r0, r3
 165 003c 1037     		adds	r7, r7, #16
 166              		.cfi_def_cfa_offset 8
 167 003e BD46     		mov	sp, r7
 168              		.cfi_def_cfa_register 13
 169              		@ sp needed
 170 0040 80BD     		pop	{r7, pc}
 171              		.cfi_endproc
 172              	.LFE66:
 173              		.size	DS1302_read, .-DS1302_read
 174 0042 00BF     		.section	.text.DS1302_readByte,"ax",%progbits
 175              		.align	2
 176              		.global	DS1302_readByte
 177              		.thumb
 178              		.thumb_func
 179              		.type	DS1302_readByte, %function
 180              	DS1302_readByte:
 181              	.LFB67:
  80:..\src/SD_RTC_functions.c **** 
  81:..\src/SD_RTC_functions.c **** uint8 DS1302_readByte() {
 182              		.loc 1 81 0
 183              		.cfi_startproc
 184              		@ args = 0, pretend = 0, frame = 16
 185              		@ frame_needed = 1, uses_anonymous_args = 0
 186 0000 80B5     		push	{r7, lr}
 187              		.cfi_def_cfa_offset 8
 188              		.cfi_offset 7, -8
 189              		.cfi_offset 14, -4
 190 0002 84B0     		sub	sp, sp, #16
 191              		.cfi_def_cfa_offset 24
 192 0004 00AF     		add	r7, sp, #0
 193              		.cfi_def_cfa_register 7
  82:..\src/SD_RTC_functions.c **** 
  83:..\src/SD_RTC_functions.c ****   uint8 value = 0;
 194              		.loc 1 83 0
 195 0006 0023     		movs	r3, #0
 196 0008 FB73     		strb	r3, [r7, #15]
  84:..\src/SD_RTC_functions.c ****   uint8 currentBit = 0;
 197              		.loc 1 84 0
 198 000a 0023     		movs	r3, #0
 199 000c FB71     		strb	r3, [r7, #7]
  85:..\src/SD_RTC_functions.c ****   int i=0;
 200              		.loc 1 85 0
ARM GAS  C:\Users\Mattia\AppData\Local\Temp\ccPr8Am1.s 			page 6


 201 000e 0023     		movs	r3, #0
 202 0010 BB60     		str	r3, [r7, #8]
  86:..\src/SD_RTC_functions.c ****   for (i = 0; i < 8; ++i)
 203              		.loc 1 86 0
 204 0012 0023     		movs	r3, #0
 205 0014 BB60     		str	r3, [r7, #8]
 206 0016 19E0     		b	.L6
 207              	.L7:
  87:..\src/SD_RTC_functions.c ****   {
  88:..\src/SD_RTC_functions.c ****     currentBit = MISO_RTC_Read();
 208              		.loc 1 88 0 discriminator 3
 209 0018 FFF7FEFF 		bl	MISO_RTC_Read
 210 001c 0346     		mov	r3, r0
 211 001e FB71     		strb	r3, [r7, #7]
  89:..\src/SD_RTC_functions.c ****     value |= (currentBit << i);
 212              		.loc 1 89 0 discriminator 3
 213 0020 FA79     		ldrb	r2, [r7, #7]	@ zero_extendqisi2
 214 0022 BB68     		ldr	r3, [r7, #8]
 215 0024 02FA03F3 		lsl	r3, r2, r3
 216 0028 5AB2     		sxtb	r2, r3
 217 002a 97F90F30 		ldrsb	r3, [r7, #15]
 218 002e 1343     		orrs	r3, r3, r2
 219 0030 5BB2     		sxtb	r3, r3
 220 0032 FB73     		strb	r3, [r7, #15]
  90:..\src/SD_RTC_functions.c ****     CLK_RTC_Write(1);
 221              		.loc 1 90 0 discriminator 3
 222 0034 0120     		movs	r0, #1
 223 0036 FFF7FEFF 		bl	CLK_RTC_Write
  91:..\src/SD_RTC_functions.c ****     CyDelayUs(1);
 224              		.loc 1 91 0 discriminator 3
 225 003a 0120     		movs	r0, #1
 226 003c FFF7FEFF 		bl	CyDelayUs
  92:..\src/SD_RTC_functions.c ****     CLK_RTC_Write(0);
 227              		.loc 1 92 0 discriminator 3
 228 0040 0020     		movs	r0, #0
 229 0042 FFF7FEFF 		bl	CLK_RTC_Write
  86:..\src/SD_RTC_functions.c ****   {
 230              		.loc 1 86 0 discriminator 3
 231 0046 BB68     		ldr	r3, [r7, #8]
 232 0048 0133     		adds	r3, r3, #1
 233 004a BB60     		str	r3, [r7, #8]
 234              	.L6:
  86:..\src/SD_RTC_functions.c ****   {
 235              		.loc 1 86 0 is_stmt 0 discriminator 1
 236 004c BB68     		ldr	r3, [r7, #8]
 237 004e 072B     		cmp	r3, #7
 238 0050 E2DD     		ble	.L7
  93:..\src/SD_RTC_functions.c ****   }
  94:..\src/SD_RTC_functions.c ****   return value;
 239              		.loc 1 94 0 is_stmt 1
 240 0052 FB7B     		ldrb	r3, [r7, #15]	@ zero_extendqisi2
  95:..\src/SD_RTC_functions.c **** }
 241              		.loc 1 95 0
 242 0054 1846     		mov	r0, r3
 243 0056 1037     		adds	r7, r7, #16
 244              		.cfi_def_cfa_offset 8
 245 0058 BD46     		mov	sp, r7
ARM GAS  C:\Users\Mattia\AppData\Local\Temp\ccPr8Am1.s 			page 7


 246              		.cfi_def_cfa_register 13
 247              		@ sp needed
 248 005a 80BD     		pop	{r7, pc}
 249              		.cfi_endproc
 250              	.LFE67:
 251              		.size	DS1302_readByte, .-DS1302_readByte
 252              		.section	.text.shiftOut_RTC,"ax",%progbits
 253              		.align	2
 254              		.global	shiftOut_RTC
 255              		.thumb
 256              		.thumb_func
 257              		.type	shiftOut_RTC, %function
 258              	shiftOut_RTC:
 259              	.LFB68:
  96:..\src/SD_RTC_functions.c **** 
  97:..\src/SD_RTC_functions.c **** void shiftOut_RTC(uint8 val)
  98:..\src/SD_RTC_functions.c **** {
 260              		.loc 1 98 0
 261              		.cfi_startproc
 262              		@ args = 0, pretend = 0, frame = 16
 263              		@ frame_needed = 1, uses_anonymous_args = 0
 264 0000 80B5     		push	{r7, lr}
 265              		.cfi_def_cfa_offset 8
 266              		.cfi_offset 7, -8
 267              		.cfi_offset 14, -4
 268 0002 84B0     		sub	sp, sp, #16
 269              		.cfi_def_cfa_offset 24
 270 0004 00AF     		add	r7, sp, #0
 271              		.cfi_def_cfa_register 7
 272 0006 0346     		mov	r3, r0
 273 0008 FB71     		strb	r3, [r7, #7]
  99:..\src/SD_RTC_functions.c ****     uint8 i;
 100:..\src/SD_RTC_functions.c ****     for (i = 0; i < 8; i++)  {
 274              		.loc 1 100 0
 275 000a 0023     		movs	r3, #0
 276 000c FB73     		strb	r3, [r7, #15]
 277 000e 16E0     		b	.L10
 278              	.L11:
 101:..\src/SD_RTC_functions.c ****         MOSI_RTC_Write(!!(val & (1 << i)));
 279              		.loc 1 101 0 discriminator 3
 280 0010 FA79     		ldrb	r2, [r7, #7]	@ zero_extendqisi2
 281 0012 FB7B     		ldrb	r3, [r7, #15]	@ zero_extendqisi2
 282 0014 42FA03F3 		asr	r3, r2, r3
 283 0018 03F00103 		and	r3, r3, #1
 284 001c 002B     		cmp	r3, #0
 285 001e 14BF     		ite	ne
 286 0020 0123     		movne	r3, #1
 287 0022 0023     		moveq	r3, #0
 288 0024 DBB2     		uxtb	r3, r3
 289 0026 1846     		mov	r0, r3
 290 0028 FFF7FEFF 		bl	MOSI_RTC_Write
 102:..\src/SD_RTC_functions.c ****         CLK_RTC_Write(1);
 291              		.loc 1 102 0 discriminator 3
 292 002c 0120     		movs	r0, #1
 293 002e FFF7FEFF 		bl	CLK_RTC_Write
 103:..\src/SD_RTC_functions.c ****         CLK_RTC_Write(0);
 294              		.loc 1 103 0 discriminator 3
ARM GAS  C:\Users\Mattia\AppData\Local\Temp\ccPr8Am1.s 			page 8


 295 0032 0020     		movs	r0, #0
 296 0034 FFF7FEFF 		bl	CLK_RTC_Write
 100:..\src/SD_RTC_functions.c ****         MOSI_RTC_Write(!!(val & (1 << i)));
 297              		.loc 1 100 0 discriminator 3
 298 0038 FB7B     		ldrb	r3, [r7, #15]	@ zero_extendqisi2
 299 003a 0133     		adds	r3, r3, #1
 300 003c FB73     		strb	r3, [r7, #15]
 301              	.L10:
 100:..\src/SD_RTC_functions.c ****         MOSI_RTC_Write(!!(val & (1 << i)));
 302              		.loc 1 100 0 is_stmt 0 discriminator 1
 303 003e FB7B     		ldrb	r3, [r7, #15]	@ zero_extendqisi2
 304 0040 072B     		cmp	r3, #7
 305 0042 E5D9     		bls	.L11
 104:..\src/SD_RTC_functions.c ****     }
 105:..\src/SD_RTC_functions.c **** }
 306              		.loc 1 105 0 is_stmt 1
 307 0044 00BF     		nop
 308 0046 1037     		adds	r7, r7, #16
 309              		.cfi_def_cfa_offset 8
 310 0048 BD46     		mov	sp, r7
 311              		.cfi_def_cfa_register 13
 312              		@ sp needed
 313 004a 80BD     		pop	{r7, pc}
 314              		.cfi_endproc
 315              	.LFE68:
 316              		.size	shiftOut_RTC, .-shiftOut_RTC
 317              		.section	.text.store_RTC_current_time,"ax",%progbits
 318              		.align	2
 319              		.global	store_RTC_current_time
 320              		.thumb
 321              		.thumb_func
 322              		.type	store_RTC_current_time, %function
 323              	store_RTC_current_time:
 324              	.LFB69:
 106:..\src/SD_RTC_functions.c **** 
 107:..\src/SD_RTC_functions.c **** void store_RTC_current_time(){
 325              		.loc 1 107 0
 326              		.cfi_startproc
 327              		@ args = 0, pretend = 0, frame = 8
 328              		@ frame_needed = 1, uses_anonymous_args = 0
 329 0000 80B5     		push	{r7, lr}
 330              		.cfi_def_cfa_offset 8
 331              		.cfi_offset 7, -8
 332              		.cfi_offset 14, -4
 333 0002 82B0     		sub	sp, sp, #8
 334              		.cfi_def_cfa_offset 16
 335 0004 00AF     		add	r7, sp, #0
 336              		.cfi_def_cfa_register 7
 108:..\src/SD_RTC_functions.c ****     uint8 rtc_data;
 109:..\src/SD_RTC_functions.c ****     
 110:..\src/SD_RTC_functions.c ****     // Update current time
 111:..\src/SD_RTC_functions.c ****     rtc_data = DS1302_read(DS1302_DATE_RD);
 337              		.loc 1 111 0
 338 0006 8720     		movs	r0, #135
 339 0008 FFF7FEFF 		bl	DS1302_read
 340 000c 0346     		mov	r3, r0
 341 000e FB71     		strb	r3, [r7, #7]
ARM GAS  C:\Users\Mattia\AppData\Local\Temp\ccPr8Am1.s 			page 9


 112:..\src/SD_RTC_functions.c ****     g_mem.exp.curr_time[0] = (rtc_data/16) * 10 + rtc_data%16;
 342              		.loc 1 112 0
 343 0010 FB79     		ldrb	r3, [r7, #7]	@ zero_extendqisi2
 344 0012 1B09     		lsrs	r3, r3, #4
 345 0014 DBB2     		uxtb	r3, r3
 346 0016 1A46     		mov	r2, r3
 347 0018 9200     		lsls	r2, r2, #2
 348 001a 1344     		add	r3, r3, r2
 349 001c 5B00     		lsls	r3, r3, #1
 350 001e DAB2     		uxtb	r2, r3
 351 0020 FB79     		ldrb	r3, [r7, #7]
 352 0022 03F00F03 		and	r3, r3, #15
 353 0026 DBB2     		uxtb	r3, r3
 354 0028 1344     		add	r3, r3, r2
 355 002a DAB2     		uxtb	r2, r3
 356 002c 3A4B     		ldr	r3, .L13
 357 002e 83F82022 		strb	r2, [r3, #544]
 113:..\src/SD_RTC_functions.c ****     rtc_data = DS1302_read(DS1302_MONTH_RD);
 358              		.loc 1 113 0
 359 0032 8920     		movs	r0, #137
 360 0034 FFF7FEFF 		bl	DS1302_read
 361 0038 0346     		mov	r3, r0
 362 003a FB71     		strb	r3, [r7, #7]
 114:..\src/SD_RTC_functions.c ****     g_mem.exp.curr_time[1] = (rtc_data/16) * 10 + rtc_data%16;
 363              		.loc 1 114 0
 364 003c FB79     		ldrb	r3, [r7, #7]	@ zero_extendqisi2
 365 003e 1B09     		lsrs	r3, r3, #4
 366 0040 DBB2     		uxtb	r3, r3
 367 0042 1A46     		mov	r2, r3
 368 0044 9200     		lsls	r2, r2, #2
 369 0046 1344     		add	r3, r3, r2
 370 0048 5B00     		lsls	r3, r3, #1
 371 004a DAB2     		uxtb	r2, r3
 372 004c FB79     		ldrb	r3, [r7, #7]
 373 004e 03F00F03 		and	r3, r3, #15
 374 0052 DBB2     		uxtb	r3, r3
 375 0054 1344     		add	r3, r3, r2
 376 0056 DAB2     		uxtb	r2, r3
 377 0058 2F4B     		ldr	r3, .L13
 378 005a 83F82122 		strb	r2, [r3, #545]
 115:..\src/SD_RTC_functions.c ****     rtc_data = DS1302_read(DS1302_YEAR_RD);
 379              		.loc 1 115 0
 380 005e 8D20     		movs	r0, #141
 381 0060 FFF7FEFF 		bl	DS1302_read
 382 0064 0346     		mov	r3, r0
 383 0066 FB71     		strb	r3, [r7, #7]
 116:..\src/SD_RTC_functions.c ****     g_mem.exp.curr_time[2] = (rtc_data/16) * 10 + rtc_data%16;
 384              		.loc 1 116 0
 385 0068 FB79     		ldrb	r3, [r7, #7]	@ zero_extendqisi2
 386 006a 1B09     		lsrs	r3, r3, #4
 387 006c DBB2     		uxtb	r3, r3
 388 006e 1A46     		mov	r2, r3
 389 0070 9200     		lsls	r2, r2, #2
 390 0072 1344     		add	r3, r3, r2
 391 0074 5B00     		lsls	r3, r3, #1
 392 0076 DAB2     		uxtb	r2, r3
 393 0078 FB79     		ldrb	r3, [r7, #7]
ARM GAS  C:\Users\Mattia\AppData\Local\Temp\ccPr8Am1.s 			page 10


 394 007a 03F00F03 		and	r3, r3, #15
 395 007e DBB2     		uxtb	r3, r3
 396 0080 1344     		add	r3, r3, r2
 397 0082 DAB2     		uxtb	r2, r3
 398 0084 244B     		ldr	r3, .L13
 399 0086 83F82222 		strb	r2, [r3, #546]
 117:..\src/SD_RTC_functions.c **** 
 118:..\src/SD_RTC_functions.c **** 
 119:..\src/SD_RTC_functions.c ****     rtc_data = DS1302_read(DS1302_HOUR_RD);
 400              		.loc 1 119 0
 401 008a 8520     		movs	r0, #133
 402 008c FFF7FEFF 		bl	DS1302_read
 403 0090 0346     		mov	r3, r0
 404 0092 FB71     		strb	r3, [r7, #7]
 120:..\src/SD_RTC_functions.c ****     g_mem.exp.curr_time[3] = (rtc_data/16) * 10 + rtc_data%16;
 405              		.loc 1 120 0
 406 0094 FB79     		ldrb	r3, [r7, #7]	@ zero_extendqisi2
 407 0096 1B09     		lsrs	r3, r3, #4
 408 0098 DBB2     		uxtb	r3, r3
 409 009a 1A46     		mov	r2, r3
 410 009c 9200     		lsls	r2, r2, #2
 411 009e 1344     		add	r3, r3, r2
 412 00a0 5B00     		lsls	r3, r3, #1
 413 00a2 DAB2     		uxtb	r2, r3
 414 00a4 FB79     		ldrb	r3, [r7, #7]
 415 00a6 03F00F03 		and	r3, r3, #15
 416 00aa DBB2     		uxtb	r3, r3
 417 00ac 1344     		add	r3, r3, r2
 418 00ae DAB2     		uxtb	r2, r3
 419 00b0 194B     		ldr	r3, .L13
 420 00b2 83F82322 		strb	r2, [r3, #547]
 121:..\src/SD_RTC_functions.c ****     rtc_data = DS1302_read(DS1302_MINUTES_RD);
 421              		.loc 1 121 0
 422 00b6 8320     		movs	r0, #131
 423 00b8 FFF7FEFF 		bl	DS1302_read
 424 00bc 0346     		mov	r3, r0
 425 00be FB71     		strb	r3, [r7, #7]
 122:..\src/SD_RTC_functions.c ****     g_mem.exp.curr_time[4] = (rtc_data/16) * 10 + rtc_data%16;
 426              		.loc 1 122 0
 427 00c0 FB79     		ldrb	r3, [r7, #7]	@ zero_extendqisi2
 428 00c2 1B09     		lsrs	r3, r3, #4
 429 00c4 DBB2     		uxtb	r3, r3
 430 00c6 1A46     		mov	r2, r3
 431 00c8 9200     		lsls	r2, r2, #2
 432 00ca 1344     		add	r3, r3, r2
 433 00cc 5B00     		lsls	r3, r3, #1
 434 00ce DAB2     		uxtb	r2, r3
 435 00d0 FB79     		ldrb	r3, [r7, #7]
 436 00d2 03F00F03 		and	r3, r3, #15
 437 00d6 DBB2     		uxtb	r3, r3
 438 00d8 1344     		add	r3, r3, r2
 439 00da DAB2     		uxtb	r2, r3
 440 00dc 0E4B     		ldr	r3, .L13
 441 00de 83F82422 		strb	r2, [r3, #548]
 123:..\src/SD_RTC_functions.c ****     rtc_data = DS1302_read(DS1302_SECONDS_RD);
 442              		.loc 1 123 0
 443 00e2 8120     		movs	r0, #129
ARM GAS  C:\Users\Mattia\AppData\Local\Temp\ccPr8Am1.s 			page 11


 444 00e4 FFF7FEFF 		bl	DS1302_read
 445 00e8 0346     		mov	r3, r0
 446 00ea FB71     		strb	r3, [r7, #7]
 124:..\src/SD_RTC_functions.c ****     g_mem.exp.curr_time[5] = (rtc_data/16) * 10 + rtc_data%16;
 447              		.loc 1 124 0
 448 00ec FB79     		ldrb	r3, [r7, #7]	@ zero_extendqisi2
 449 00ee 1B09     		lsrs	r3, r3, #4
 450 00f0 DBB2     		uxtb	r3, r3
 451 00f2 1A46     		mov	r2, r3
 452 00f4 9200     		lsls	r2, r2, #2
 453 00f6 1344     		add	r3, r3, r2
 454 00f8 5B00     		lsls	r3, r3, #1
 455 00fa DAB2     		uxtb	r2, r3
 456 00fc FB79     		ldrb	r3, [r7, #7]
 457 00fe 03F00F03 		and	r3, r3, #15
 458 0102 DBB2     		uxtb	r3, r3
 459 0104 1344     		add	r3, r3, r2
 460 0106 DAB2     		uxtb	r2, r3
 461 0108 034B     		ldr	r3, .L13
 462 010a 83F82522 		strb	r2, [r3, #549]
 125:..\src/SD_RTC_functions.c **** }
 463              		.loc 1 125 0
 464 010e 00BF     		nop
 465 0110 0837     		adds	r7, r7, #8
 466              		.cfi_def_cfa_offset 8
 467 0112 BD46     		mov	sp, r7
 468              		.cfi_def_cfa_register 13
 469              		@ sp needed
 470 0114 80BD     		pop	{r7, pc}
 471              	.L14:
 472 0116 00BF     		.align	2
 473              	.L13:
 474 0118 00000000 		.word	g_mem
 475              		.cfi_endproc
 476              	.LFE69:
 477              		.size	store_RTC_current_time, .-store_RTC_current_time
 478              		.section	.text.set_RTC_time,"ax",%progbits
 479              		.align	2
 480              		.global	set_RTC_time
 481              		.thumb
 482              		.thumb_func
 483              		.type	set_RTC_time, %function
 484              	set_RTC_time:
 485              	.LFB70:
 126:..\src/SD_RTC_functions.c **** 
 127:..\src/SD_RTC_functions.c **** void set_RTC_time(){
 486              		.loc 1 127 0
 487              		.cfi_startproc
 488              		@ args = 0, pretend = 0, frame = 0
 489              		@ frame_needed = 1, uses_anonymous_args = 0
 490 0000 80B5     		push	{r7, lr}
 491              		.cfi_def_cfa_offset 8
 492              		.cfi_offset 7, -8
 493              		.cfi_offset 14, -4
 494 0002 00AF     		add	r7, sp, #0
 495              		.cfi_def_cfa_register 7
 128:..\src/SD_RTC_functions.c ****     DS1302_write(DS1302_DATE_WR, (((g_mem.exp.curr_time[0] / 10)*16) + (g_mem.exp.curr_time[0] % 10
ARM GAS  C:\Users\Mattia\AppData\Local\Temp\ccPr8Am1.s 			page 12


 496              		.loc 1 128 0
 497 0004 574B     		ldr	r3, .L16
 498 0006 93F82032 		ldrb	r3, [r3, #544]	@ zero_extendqisi2
 499 000a 574A     		ldr	r2, .L16+4
 500 000c A2FB0323 		umull	r2, r3, r2, r3
 501 0010 DB08     		lsrs	r3, r3, #3
 502 0012 DBB2     		uxtb	r3, r3
 503 0014 1B01     		lsls	r3, r3, #4
 504 0016 D8B2     		uxtb	r0, r3
 505 0018 524B     		ldr	r3, .L16
 506 001a 93F82022 		ldrb	r2, [r3, #544]	@ zero_extendqisi2
 507 001e 524B     		ldr	r3, .L16+4
 508 0020 A3FB0213 		umull	r1, r3, r3, r2
 509 0024 D908     		lsrs	r1, r3, #3
 510 0026 0B46     		mov	r3, r1
 511 0028 9B00     		lsls	r3, r3, #2
 512 002a 0B44     		add	r3, r3, r1
 513 002c 5B00     		lsls	r3, r3, #1
 514 002e D31A     		subs	r3, r2, r3
 515 0030 DBB2     		uxtb	r3, r3
 516 0032 0344     		add	r3, r3, r0
 517 0034 DBB2     		uxtb	r3, r3
 518 0036 1946     		mov	r1, r3
 519 0038 8620     		movs	r0, #134
 520 003a FFF7FEFF 		bl	DS1302_write
 129:..\src/SD_RTC_functions.c ****     DS1302_write(DS1302_MONTH_WR, (((g_mem.exp.curr_time[1] / 10)*16) + (g_mem.exp.curr_time[1] % 1
 521              		.loc 1 129 0
 522 003e 494B     		ldr	r3, .L16
 523 0040 93F82132 		ldrb	r3, [r3, #545]	@ zero_extendqisi2
 524 0044 484A     		ldr	r2, .L16+4
 525 0046 A2FB0323 		umull	r2, r3, r2, r3
 526 004a DB08     		lsrs	r3, r3, #3
 527 004c DBB2     		uxtb	r3, r3
 528 004e 1B01     		lsls	r3, r3, #4
 529 0050 D8B2     		uxtb	r0, r3
 530 0052 444B     		ldr	r3, .L16
 531 0054 93F82122 		ldrb	r2, [r3, #545]	@ zero_extendqisi2
 532 0058 434B     		ldr	r3, .L16+4
 533 005a A3FB0213 		umull	r1, r3, r3, r2
 534 005e D908     		lsrs	r1, r3, #3
 535 0060 0B46     		mov	r3, r1
 536 0062 9B00     		lsls	r3, r3, #2
 537 0064 0B44     		add	r3, r3, r1
 538 0066 5B00     		lsls	r3, r3, #1
 539 0068 D31A     		subs	r3, r2, r3
 540 006a DBB2     		uxtb	r3, r3
 541 006c 0344     		add	r3, r3, r0
 542 006e DBB2     		uxtb	r3, r3
 543 0070 1946     		mov	r1, r3
 544 0072 8820     		movs	r0, #136
 545 0074 FFF7FEFF 		bl	DS1302_write
 130:..\src/SD_RTC_functions.c ****     DS1302_write(DS1302_YEAR_WR, (((g_mem.exp.curr_time[2] / 10)*16) + (g_mem.exp.curr_time[2] % 10
 546              		.loc 1 130 0
 547 0078 3A4B     		ldr	r3, .L16
 548 007a 93F82232 		ldrb	r3, [r3, #546]	@ zero_extendqisi2
 549 007e 3A4A     		ldr	r2, .L16+4
 550 0080 A2FB0323 		umull	r2, r3, r2, r3
ARM GAS  C:\Users\Mattia\AppData\Local\Temp\ccPr8Am1.s 			page 13


 551 0084 DB08     		lsrs	r3, r3, #3
 552 0086 DBB2     		uxtb	r3, r3
 553 0088 1B01     		lsls	r3, r3, #4
 554 008a D8B2     		uxtb	r0, r3
 555 008c 354B     		ldr	r3, .L16
 556 008e 93F82222 		ldrb	r2, [r3, #546]	@ zero_extendqisi2
 557 0092 354B     		ldr	r3, .L16+4
 558 0094 A3FB0213 		umull	r1, r3, r3, r2
 559 0098 D908     		lsrs	r1, r3, #3
 560 009a 0B46     		mov	r3, r1
 561 009c 9B00     		lsls	r3, r3, #2
 562 009e 0B44     		add	r3, r3, r1
 563 00a0 5B00     		lsls	r3, r3, #1
 564 00a2 D31A     		subs	r3, r2, r3
 565 00a4 DBB2     		uxtb	r3, r3
 566 00a6 0344     		add	r3, r3, r0
 567 00a8 DBB2     		uxtb	r3, r3
 568 00aa 1946     		mov	r1, r3
 569 00ac 8C20     		movs	r0, #140
 570 00ae FFF7FEFF 		bl	DS1302_write
 131:..\src/SD_RTC_functions.c ****     DS1302_write(DS1302_HOUR_WR, (((g_mem.exp.curr_time[3] / 10)*16) + (g_mem.exp.curr_time[3] % 10
 571              		.loc 1 131 0
 572 00b2 2C4B     		ldr	r3, .L16
 573 00b4 93F82332 		ldrb	r3, [r3, #547]	@ zero_extendqisi2
 574 00b8 2B4A     		ldr	r2, .L16+4
 575 00ba A2FB0323 		umull	r2, r3, r2, r3
 576 00be DB08     		lsrs	r3, r3, #3
 577 00c0 DBB2     		uxtb	r3, r3
 578 00c2 1B01     		lsls	r3, r3, #4
 579 00c4 D8B2     		uxtb	r0, r3
 580 00c6 274B     		ldr	r3, .L16
 581 00c8 93F82322 		ldrb	r2, [r3, #547]	@ zero_extendqisi2
 582 00cc 264B     		ldr	r3, .L16+4
 583 00ce A3FB0213 		umull	r1, r3, r3, r2
 584 00d2 D908     		lsrs	r1, r3, #3
 585 00d4 0B46     		mov	r3, r1
 586 00d6 9B00     		lsls	r3, r3, #2
 587 00d8 0B44     		add	r3, r3, r1
 588 00da 5B00     		lsls	r3, r3, #1
 589 00dc D31A     		subs	r3, r2, r3
 590 00de DBB2     		uxtb	r3, r3
 591 00e0 0344     		add	r3, r3, r0
 592 00e2 DBB2     		uxtb	r3, r3
 593 00e4 1946     		mov	r1, r3
 594 00e6 8420     		movs	r0, #132
 595 00e8 FFF7FEFF 		bl	DS1302_write
 132:..\src/SD_RTC_functions.c ****     DS1302_write(DS1302_MINUTES_WR, (((g_mem.exp.curr_time[4] / 10)*16) + (g_mem.exp.curr_time[4] %
 596              		.loc 1 132 0
 597 00ec 1D4B     		ldr	r3, .L16
 598 00ee 93F82432 		ldrb	r3, [r3, #548]	@ zero_extendqisi2
 599 00f2 1D4A     		ldr	r2, .L16+4
 600 00f4 A2FB0323 		umull	r2, r3, r2, r3
 601 00f8 DB08     		lsrs	r3, r3, #3
 602 00fa DBB2     		uxtb	r3, r3
 603 00fc 1B01     		lsls	r3, r3, #4
 604 00fe D8B2     		uxtb	r0, r3
 605 0100 184B     		ldr	r3, .L16
ARM GAS  C:\Users\Mattia\AppData\Local\Temp\ccPr8Am1.s 			page 14


 606 0102 93F82422 		ldrb	r2, [r3, #548]	@ zero_extendqisi2
 607 0106 184B     		ldr	r3, .L16+4
 608 0108 A3FB0213 		umull	r1, r3, r3, r2
 609 010c D908     		lsrs	r1, r3, #3
 610 010e 0B46     		mov	r3, r1
 611 0110 9B00     		lsls	r3, r3, #2
 612 0112 0B44     		add	r3, r3, r1
 613 0114 5B00     		lsls	r3, r3, #1
 614 0116 D31A     		subs	r3, r2, r3
 615 0118 DBB2     		uxtb	r3, r3
 616 011a 0344     		add	r3, r3, r0
 617 011c DBB2     		uxtb	r3, r3
 618 011e 1946     		mov	r1, r3
 619 0120 8220     		movs	r0, #130
 620 0122 FFF7FEFF 		bl	DS1302_write
 133:..\src/SD_RTC_functions.c ****     DS1302_write(DS1302_SECONDS_WR, (((g_mem.exp.curr_time[5] / 10)*16) + (g_mem.exp.curr_time[5] %
 621              		.loc 1 133 0
 622 0126 0F4B     		ldr	r3, .L16
 623 0128 93F82532 		ldrb	r3, [r3, #549]	@ zero_extendqisi2
 624 012c 0E4A     		ldr	r2, .L16+4
 625 012e A2FB0323 		umull	r2, r3, r2, r3
 626 0132 DB08     		lsrs	r3, r3, #3
 627 0134 DBB2     		uxtb	r3, r3
 628 0136 1B01     		lsls	r3, r3, #4
 629 0138 D8B2     		uxtb	r0, r3
 630 013a 0A4B     		ldr	r3, .L16
 631 013c 93F82522 		ldrb	r2, [r3, #549]	@ zero_extendqisi2
 632 0140 094B     		ldr	r3, .L16+4
 633 0142 A3FB0213 		umull	r1, r3, r3, r2
 634 0146 D908     		lsrs	r1, r3, #3
 635 0148 0B46     		mov	r3, r1
 636 014a 9B00     		lsls	r3, r3, #2
 637 014c 0B44     		add	r3, r3, r1
 638 014e 5B00     		lsls	r3, r3, #1
 639 0150 D31A     		subs	r3, r2, r3
 640 0152 DBB2     		uxtb	r3, r3
 641 0154 0344     		add	r3, r3, r0
 642 0156 DBB2     		uxtb	r3, r3
 643 0158 1946     		mov	r1, r3
 644 015a 8020     		movs	r0, #128
 645 015c FFF7FEFF 		bl	DS1302_write
 134:..\src/SD_RTC_functions.c **** }
 646              		.loc 1 134 0
 647 0160 00BF     		nop
 648 0162 80BD     		pop	{r7, pc}
 649              	.L17:
 650              		.align	2
 651              	.L16:
 652 0164 00000000 		.word	g_mem
 653 0168 CDCCCCCC 		.word	-858993459
 654              		.cfi_endproc
 655              	.LFE70:
 656              		.size	set_RTC_time, .-set_RTC_time
 657              		.section	.rodata
 658              		.align	2
 659              	.LC2:
 660 0000 5C257300 		.ascii	"\\%s\000"
ARM GAS  C:\Users\Mattia\AppData\Local\Temp\ccPr8Am1.s 			page 15


 661              		.align	2
 662              	.LC3:
 663 0004 25735C32 		.ascii	"%s\\20%02d\000"
 663      30253032 
 663      6400
 664 000e 0000     		.align	2
 665              	.LC4:
 666 0010 25735C25 		.ascii	"%s\\%02d\000"
 666      30326400 
 667              		.align	2
 668              	.LC5:
 669 0018 25735C25 		.ascii	"%s\\%s_%d.csv\000"
 669      735F2564 
 669      2E637376 
 669      00
 670 0025 000000   		.align	2
 671              	.LC6:
 672 0028 7200     		.ascii	"r\000"
 673 002a 0000     		.align	2
 674              	.LC7:
 675 002c 6100     		.ascii	"a\000"
 676 002e 0000     		.align	2
 677              	.LC8:
 678 0030 7700     		.ascii	"w\000"
 679 0032 0000     		.align	2
 680              	.LC0:
 681 0034 55736553 		.ascii	"UseStats\000"
 681      74617473 
 681      00
 682 003d 00       		.space	1
 683 003e 0000     		.align	2
 684              	.LC1:
 685 0040 50617261 		.ascii	"Param\000"
 685      6D00
 686 0046 00       		.space	1
 687              		.section	.text.InitSD_FS,"ax",%progbits
 688              		.align	2
 689              		.global	InitSD_FS
 690              		.thumb
 691              		.thumb_func
 692              		.type	InitSD_FS, %function
 693              	InitSD_FS:
 694              	.LFB71:
 135:..\src/SD_RTC_functions.c **** 
 136:..\src/SD_RTC_functions.c **** /*******************************************************************************
 137:..\src/SD_RTC_functions.c **** * Function Name: Init SD Filesystem
 138:..\src/SD_RTC_functions.c **** *********************************************************************************/
 139:..\src/SD_RTC_functions.c **** void InitSD_FS()
 140:..\src/SD_RTC_functions.c **** {
 695              		.loc 1 140 0
 696              		.cfi_startproc
 697              		@ args = 0, pretend = 0, frame = 5240
 698              		@ frame_needed = 1, uses_anonymous_args = 0
 699 0000 90B5     		push	{r4, r7, lr}
 700              		.cfi_def_cfa_offset 12
 701              		.cfi_offset 4, -12
 702              		.cfi_offset 7, -8
ARM GAS  C:\Users\Mattia\AppData\Local\Temp\ccPr8Am1.s 			page 16


 703              		.cfi_offset 14, -4
 704 0002 ADF5A45D 		sub	sp, sp, #5248
 705              		.cfi_def_cfa_offset 5260
 706 0006 81B0     		sub	sp, sp, #4
 707              		.cfi_def_cfa_offset 5264
 708 0008 02AF     		add	r7, sp, #8
 709              		.cfi_def_cfa 7, 5256
 141:..\src/SD_RTC_functions.c ****     //char sdFile[12] = "";              // No long file name (LFN) support enabled. Max 12 chars f
 142:..\src/SD_RTC_functions.c **** 
 143:..\src/SD_RTC_functions.c ****     char sdDir[100] = "";
 710              		.loc 1 143 0
 711 000a 0023     		movs	r3, #0
 712 000c 07F5A052 		add	r2, r7, #5120
 713 0010 1360     		str	r3, [r2]
 714 0012 07F5A053 		add	r3, r7, #5120
 715 0016 03F10403 		add	r3, r3, #4
 716 001a 6022     		movs	r2, #96
 717 001c 0021     		movs	r1, #0
 718 001e 1846     		mov	r0, r3
 719 0020 FFF7FEFF 		bl	memset
 144:..\src/SD_RTC_functions.c ****     char lastsdParam[100] = "";
 720              		.loc 1 144 0
 721 0024 0023     		movs	r3, #0
 722 0026 07F59C52 		add	r2, r7, #4992
 723 002a 02F11C02 		add	r2, r2, #28
 724 002e 1360     		str	r3, [r2]
 725 0030 07F59D53 		add	r3, r7, #5024
 726 0034 6022     		movs	r2, #96
 727 0036 0021     		movs	r1, #0
 728 0038 1846     		mov	r0, r3
 729 003a FFF7FEFF 		bl	memset
 145:..\src/SD_RTC_functions.c ****     char info_[2500] = "";
 730              		.loc 1 145 0
 731 003e 07F6D813 		addw	r3, r7, #2520
 732 0042 0022     		movs	r2, #0
 733 0044 1A60     		str	r2, [r3]
 734 0046 0433     		adds	r3, r3, #4
 735 0048 4FF41C62 		mov	r2, #2496
 736 004c 0021     		movs	r1, #0
 737 004e 1846     		mov	r0, r3
 738 0050 FFF7FEFF 		bl	memset
 146:..\src/SD_RTC_functions.c ****     char info_read_[2500] = "";
 739              		.loc 1 146 0
 740 0054 07F11803 		add	r3, r7, #24
 741 0058 043B     		subs	r3, r3, #4
 742 005a 0022     		movs	r2, #0
 743 005c 1A60     		str	r2, [r3]
 744 005e 0433     		adds	r3, r3, #4
 745 0060 4FF41C62 		mov	r2, #2496
 746 0064 0021     		movs	r1, #0
 747 0066 1846     		mov	r0, r3
 748 0068 FFF7FEFF 		bl	memset
 147:..\src/SD_RTC_functions.c ****     char Data_filename[10] = "UseStats";
 749              		.loc 1 147 0
 750 006c 07F11804 		add	r4, r7, #24
 751 0070 103C     		subs	r4, r4, #16
 752 0072 9E4A     		ldr	r2, .L27
ARM GAS  C:\Users\Mattia\AppData\Local\Temp\ccPr8Am1.s 			page 17


 753 0074 2346     		mov	r3, r4
 754 0076 07CA     		ldmia	r2, {r0, r1, r2}
 755 0078 03C3     		stmia	r3!, {r0, r1}
 756 007a 1A70     		strb	r2, [r3]
 757 007c 0023     		movs	r3, #0
 758 007e 6372     		strb	r3, [r4, #9]
 148:..\src/SD_RTC_functions.c ****     char Param_filename[7] = "Param";
 759              		.loc 1 148 0
 760 0080 07F11803 		add	r3, r7, #24
 761 0084 183B     		subs	r3, r3, #24
 762 0086 9A49     		ldr	r1, .L27+4
 763 0088 1A46     		mov	r2, r3
 764 008a 03C9     		ldmia	r1, {r0, r1}
 765 008c 1060     		str	r0, [r2]
 766 008e 0432     		adds	r2, r2, #4
 767 0090 1180     		strh	r1, [r2]	@ movhi
 768 0092 0022     		movs	r2, #0
 769 0094 9A71     		strb	r2, [r3, #6]
 149:..\src/SD_RTC_functions.c ****     uint8 Write_new_info = TRUE;
 770              		.loc 1 149 0
 771 0096 0123     		movs	r3, #1
 772 0098 07F5A352 		add	r2, r7, #5216
 773 009c 02F11702 		add	r2, r2, #23
 774 00a0 1370     		strb	r3, [r2]
 150:..\src/SD_RTC_functions.c ****     uint8 num_files = 0;
 775              		.loc 1 150 0
 776 00a2 0023     		movs	r3, #0
 777 00a4 07F5A352 		add	r2, r7, #5216
 778 00a8 02F11602 		add	r2, r2, #22
 779 00ac 1370     		strb	r3, [r2]
 151:..\src/SD_RTC_functions.c ****     FS_FILE* pParam;
 152:..\src/SD_RTC_functions.c ****     FS_FILE* pFile_read;
 153:..\src/SD_RTC_functions.c ****     FS_DIR *pDir;
 154:..\src/SD_RTC_functions.c ****     uint32 i = 0;
 780              		.loc 1 154 0
 781 00ae 0023     		movs	r3, #0
 782 00b0 07F5A352 		add	r2, r7, #5216
 783 00b4 02F11002 		add	r2, r2, #16
 784 00b8 1360     		str	r3, [r2]
 155:..\src/SD_RTC_functions.c ****     
 156:..\src/SD_RTC_functions.c ****     FS_Init();
 785              		.loc 1 156 0
 786 00ba FFF7FEFF 		bl	FS_Init
 157:..\src/SD_RTC_functions.c ****     FS_FAT_SupportLFN();
 787              		.loc 1 157 0
 788 00be FFF7FEFF 		bl	FS_FAT_SupportLFN
 158:..\src/SD_RTC_functions.c ****         
 159:..\src/SD_RTC_functions.c ****     // Create Filesystem with USER\YYYY\MM\DD folder
 160:..\src/SD_RTC_functions.c ****     sprintf(sdDir, "\\%s", g_mem.user[g_mem.dev.user_id].user_code_string); 
 789              		.loc 1 160 0
 790 00c2 8C4B     		ldr	r3, .L27+8
 791 00c4 93F8AB30 		ldrb	r3, [r3, #171]	@ zero_extendqisi2
 792 00c8 1233     		adds	r3, r3, #18
 793 00ca 5B01     		lsls	r3, r3, #5
 794 00cc 894A     		ldr	r2, .L27+8
 795 00ce 1A44     		add	r2, r2, r3
 796 00d0 07F5A053 		add	r3, r7, #5120
ARM GAS  C:\Users\Mattia\AppData\Local\Temp\ccPr8Am1.s 			page 18


 797 00d4 8849     		ldr	r1, .L27+12
 798 00d6 1846     		mov	r0, r3
 799 00d8 FFF7FEFF 		bl	sprintf
 161:..\src/SD_RTC_functions.c ****     FS_MkDir(sdDir);
 800              		.loc 1 161 0
 801 00dc 07F5A053 		add	r3, r7, #5120
 802 00e0 1846     		mov	r0, r3
 803 00e2 FFF7FEFF 		bl	FS_MkDir
 162:..\src/SD_RTC_functions.c ****     sprintf(sdDir, "%s\\20%02d", sdDir, g_mem.exp.curr_time[2]); 
 804              		.loc 1 162 0
 805 00e6 834B     		ldr	r3, .L27+8
 806 00e8 93F82232 		ldrb	r3, [r3, #546]	@ zero_extendqisi2
 807 00ec 07F5A052 		add	r2, r7, #5120
 808 00f0 07F5A050 		add	r0, r7, #5120
 809 00f4 8149     		ldr	r1, .L27+16
 810 00f6 FFF7FEFF 		bl	sprintf
 163:..\src/SD_RTC_functions.c ****     FS_MkDir(sdDir);
 811              		.loc 1 163 0
 812 00fa 07F5A053 		add	r3, r7, #5120
 813 00fe 1846     		mov	r0, r3
 814 0100 FFF7FEFF 		bl	FS_MkDir
 164:..\src/SD_RTC_functions.c ****     sprintf(sdDir, "%s\\%02d", sdDir, g_mem.exp.curr_time[1]);
 815              		.loc 1 164 0
 816 0104 7B4B     		ldr	r3, .L27+8
 817 0106 93F82132 		ldrb	r3, [r3, #545]	@ zero_extendqisi2
 818 010a 07F5A052 		add	r2, r7, #5120
 819 010e 07F5A050 		add	r0, r7, #5120
 820 0112 7B49     		ldr	r1, .L27+20
 821 0114 FFF7FEFF 		bl	sprintf
 165:..\src/SD_RTC_functions.c ****     FS_MkDir(sdDir);
 822              		.loc 1 165 0
 823 0118 07F5A053 		add	r3, r7, #5120
 824 011c 1846     		mov	r0, r3
 825 011e FFF7FEFF 		bl	FS_MkDir
 166:..\src/SD_RTC_functions.c ****     sprintf(sdDir, "%s\\%02d", sdDir, g_mem.exp.curr_time[0]);
 826              		.loc 1 166 0
 827 0122 744B     		ldr	r3, .L27+8
 828 0124 93F82032 		ldrb	r3, [r3, #544]	@ zero_extendqisi2
 829 0128 07F5A052 		add	r2, r7, #5120
 830 012c 07F5A050 		add	r0, r7, #5120
 831 0130 7349     		ldr	r1, .L27+20
 832 0132 FFF7FEFF 		bl	sprintf
 167:..\src/SD_RTC_functions.c ****     FS_MkDir(sdDir);
 833              		.loc 1 167 0
 834 0136 07F5A053 		add	r3, r7, #5120
 835 013a 1846     		mov	r0, r3
 836 013c FFF7FEFF 		bl	FS_MkDir
 168:..\src/SD_RTC_functions.c ****     
 169:..\src/SD_RTC_functions.c ****     // Create param info
 170:..\src/SD_RTC_functions.c ****     prepare_SD_param_info(info_);
 837              		.loc 1 170 0
 838 0140 07F6D813 		addw	r3, r7, #2520
 839 0144 1846     		mov	r0, r3
 840 0146 FFF7FEFF 		bl	prepare_SD_param_info
 171:..\src/SD_RTC_functions.c ****             
 172:..\src/SD_RTC_functions.c ****     // Open folder and count the number of files, it should be even (1 param and 1 data file)
 173:..\src/SD_RTC_functions.c ****     pDir = FS_OpenDir(sdDir);
ARM GAS  C:\Users\Mattia\AppData\Local\Temp\ccPr8Am1.s 			page 19


 841              		.loc 1 173 0
 842 014a 07F5A053 		add	r3, r7, #5120
 843 014e 1846     		mov	r0, r3
 844 0150 FFF7FEFF 		bl	FS_OpenDir
 845 0154 07F5A353 		add	r3, r7, #5216
 846 0158 03F10C03 		add	r3, r3, #12
 847 015c 1860     		str	r0, [r3]
 174:..\src/SD_RTC_functions.c ****     num_files = FS_GetNumFiles(pDir);    
 848              		.loc 1 174 0
 849 015e 07F5A353 		add	r3, r7, #5216
 850 0162 03F10C03 		add	r3, r3, #12
 851 0166 1868     		ldr	r0, [r3]
 852 0168 FFF7FEFF 		bl	FS_GetNumFiles
 853 016c 0346     		mov	r3, r0
 854 016e 07F5A352 		add	r2, r7, #5216
 855 0172 02F11602 		add	r2, r2, #22
 856 0176 1370     		strb	r3, [r2]
 175:..\src/SD_RTC_functions.c **** 
 176:..\src/SD_RTC_functions.c ****     // Prepare filenames
 177:..\src/SD_RTC_functions.c **** 
 178:..\src/SD_RTC_functions.c ****     if (num_files != 0) {
 857              		.loc 1 178 0
 858 0178 07F5A353 		add	r3, r7, #5216
 859 017c 03F11603 		add	r3, r3, #22
 860 0180 1B78     		ldrb	r3, [r3]	@ zero_extendqisi2
 861 0182 002B     		cmp	r3, #0
 862 0184 00F0C680 		beq	.L19
 179:..\src/SD_RTC_functions.c ****         // The directory is not empty
 180:..\src/SD_RTC_functions.c ****          
 181:..\src/SD_RTC_functions.c ****         // Decide whether to create new param and data files or not
 182:..\src/SD_RTC_functions.c ****         sprintf(lastsdParam, "%s\\%s_%d.csv", sdDir, Param_filename, (num_files/2) - 1);
 863              		.loc 1 182 0
 864 0188 07F5A353 		add	r3, r7, #5216
 865 018c 03F11603 		add	r3, r3, #22
 866 0190 1B78     		ldrb	r3, [r3]	@ zero_extendqisi2
 867 0192 5B08     		lsrs	r3, r3, #1
 868 0194 DBB2     		uxtb	r3, r3
 869 0196 5A1E     		subs	r2, r3, #1
 870 0198 07F11803 		add	r3, r7, #24
 871 019c 183B     		subs	r3, r3, #24
 872 019e 07F5A051 		add	r1, r7, #5120
 873 01a2 07F59C50 		add	r0, r7, #4992
 874 01a6 00F11C00 		add	r0, r0, #28
 875 01aa 0092     		str	r2, [sp]
 876 01ac 0A46     		mov	r2, r1
 877 01ae 5549     		ldr	r1, .L27+24
 878 01b0 FFF7FEFF 		bl	sprintf
 183:..\src/SD_RTC_functions.c **** 
 184:..\src/SD_RTC_functions.c ****         pFile_read = FS_FOpen(lastsdParam, "r"); 
 879              		.loc 1 184 0
 880 01b4 07F59C53 		add	r3, r7, #4992
 881 01b8 03F11C03 		add	r3, r3, #28
 882 01bc 5249     		ldr	r1, .L27+28
 883 01be 1846     		mov	r0, r3
 884 01c0 FFF7FEFF 		bl	FS_FOpen
 885 01c4 07F5A353 		add	r3, r7, #5216
 886 01c8 03F10803 		add	r3, r3, #8
ARM GAS  C:\Users\Mattia\AppData\Local\Temp\ccPr8Am1.s 			page 20


 887 01cc 1860     		str	r0, [r3]
 185:..\src/SD_RTC_functions.c ****         if (pFile_read != 0) {
 888              		.loc 1 185 0
 889 01ce 07F5A353 		add	r3, r7, #5216
 890 01d2 03F10803 		add	r3, r3, #8
 891 01d6 1B68     		ldr	r3, [r3]
 892 01d8 002B     		cmp	r3, #0
 893 01da 7FD0     		beq	.L20
 186:..\src/SD_RTC_functions.c ****             i = FS_FRead(info_read_, 1, sizeof(info_read_) - 1, pFile_read);
 894              		.loc 1 186 0
 895 01dc 07F11800 		add	r0, r7, #24
 896 01e0 0438     		subs	r0, r0, #4
 897 01e2 07F5A353 		add	r3, r7, #5216
 898 01e6 03F10803 		add	r3, r3, #8
 899 01ea 1B68     		ldr	r3, [r3]
 900 01ec 40F6C312 		movw	r2, #2499
 901 01f0 0121     		movs	r1, #1
 902 01f2 FFF7FEFF 		bl	FS_FRead
 903 01f6 07F5A353 		add	r3, r7, #5216
 904 01fa 03F11003 		add	r3, r3, #16
 905 01fe 1860     		str	r0, [r3]
 187:..\src/SD_RTC_functions.c ****             info_read_[i] = 0;
 906              		.loc 1 187 0
 907 0200 07F11803 		add	r3, r7, #24
 908 0204 043B     		subs	r3, r3, #4
 909 0206 07F5A352 		add	r2, r7, #5216
 910 020a 02F11002 		add	r2, r2, #16
 911 020e 1268     		ldr	r2, [r2]
 912 0210 1344     		add	r3, r3, r2
 913 0212 0022     		movs	r2, #0
 914 0214 1A70     		strb	r2, [r3]
 188:..\src/SD_RTC_functions.c ****             if (strcmp(info_, info_read_)) {    // if different
 915              		.loc 1 188 0
 916 0216 07F11803 		add	r3, r7, #24
 917 021a 043B     		subs	r3, r3, #4
 918 021c 07F6D812 		addw	r2, r7, #2520
 919 0220 1946     		mov	r1, r3
 920 0222 1046     		mov	r0, r2
 921 0224 FFF7FEFF 		bl	strcmp
 922 0228 0346     		mov	r3, r0
 923 022a 002B     		cmp	r3, #0
 924 022c 2AD0     		beq	.L21
 189:..\src/SD_RTC_functions.c ****                 Write_new_info = TRUE;
 925              		.loc 1 189 0
 926 022e 0123     		movs	r3, #1
 927 0230 07F5A352 		add	r2, r7, #5216
 928 0234 02F11702 		add	r2, r2, #23
 929 0238 1370     		strb	r3, [r2]
 190:..\src/SD_RTC_functions.c ****                 sprintf(sdParam, "%s\\%s_%d.csv", sdDir, Param_filename, num_files/2);  // new para
 930              		.loc 1 190 0
 931 023a 07F5A353 		add	r3, r7, #5216
 932 023e 03F11603 		add	r3, r3, #22
 933 0242 1B78     		ldrb	r3, [r3]	@ zero_extendqisi2
 934 0244 5B08     		lsrs	r3, r3, #1
 935 0246 DBB2     		uxtb	r3, r3
 936 0248 1946     		mov	r1, r3
 937 024a 07F11803 		add	r3, r7, #24
ARM GAS  C:\Users\Mattia\AppData\Local\Temp\ccPr8Am1.s 			page 21


 938 024e 183B     		subs	r3, r3, #24
 939 0250 07F5A052 		add	r2, r7, #5120
 940 0254 0091     		str	r1, [sp]
 941 0256 2B49     		ldr	r1, .L27+24
 942 0258 2C48     		ldr	r0, .L27+32
 943 025a FFF7FEFF 		bl	sprintf
 191:..\src/SD_RTC_functions.c ****                 sprintf(sdFile, "%s\\%s_%d.csv", sdDir, Data_filename, num_files/2);    // new data
 944              		.loc 1 191 0
 945 025e 07F5A353 		add	r3, r7, #5216
 946 0262 03F11603 		add	r3, r3, #22
 947 0266 1B78     		ldrb	r3, [r3]	@ zero_extendqisi2
 948 0268 5B08     		lsrs	r3, r3, #1
 949 026a DBB2     		uxtb	r3, r3
 950 026c 1946     		mov	r1, r3
 951 026e 07F11803 		add	r3, r7, #24
 952 0272 103B     		subs	r3, r3, #16
 953 0274 07F5A052 		add	r2, r7, #5120
 954 0278 0091     		str	r1, [sp]
 955 027a 2249     		ldr	r1, .L27+24
 956 027c 2448     		ldr	r0, .L27+36
 957 027e FFF7FEFF 		bl	sprintf
 958 0282 2BE0     		b	.L20
 959              	.L21:
 192:..\src/SD_RTC_functions.c ****             }
 193:..\src/SD_RTC_functions.c ****             else {
 194:..\src/SD_RTC_functions.c ****                 sprintf(sdParam, "%s\\%s_%d.csv", sdDir, Param_filename, (num_files/2)-1);  // last
 960              		.loc 1 194 0
 961 0284 07F5A353 		add	r3, r7, #5216
 962 0288 03F11603 		add	r3, r3, #22
 963 028c 1B78     		ldrb	r3, [r3]	@ zero_extendqisi2
 964 028e 5B08     		lsrs	r3, r3, #1
 965 0290 DBB2     		uxtb	r3, r3
 966 0292 5A1E     		subs	r2, r3, #1
 967 0294 07F11803 		add	r3, r7, #24
 968 0298 183B     		subs	r3, r3, #24
 969 029a 07F5A051 		add	r1, r7, #5120
 970 029e 0092     		str	r2, [sp]
 971 02a0 0A46     		mov	r2, r1
 972 02a2 1849     		ldr	r1, .L27+24
 973 02a4 1948     		ldr	r0, .L27+32
 974 02a6 FFF7FEFF 		bl	sprintf
 195:..\src/SD_RTC_functions.c ****                 sprintf(sdFile, "%s\\%s_%d.csv", sdDir, Data_filename, (num_files/2)-1);    // last
 975              		.loc 1 195 0
 976 02aa 07F5A353 		add	r3, r7, #5216
 977 02ae 03F11603 		add	r3, r3, #22
 978 02b2 1B78     		ldrb	r3, [r3]	@ zero_extendqisi2
 979 02b4 5B08     		lsrs	r3, r3, #1
 980 02b6 DBB2     		uxtb	r3, r3
 981 02b8 5A1E     		subs	r2, r3, #1
 982 02ba 07F11803 		add	r3, r7, #24
 983 02be 103B     		subs	r3, r3, #16
 984 02c0 07F5A051 		add	r1, r7, #5120
 985 02c4 0092     		str	r2, [sp]
 986 02c6 0A46     		mov	r2, r1
 987 02c8 0E49     		ldr	r1, .L27+24
 988 02ca 1148     		ldr	r0, .L27+36
 989 02cc FFF7FEFF 		bl	sprintf
ARM GAS  C:\Users\Mattia\AppData\Local\Temp\ccPr8Am1.s 			page 22


 196:..\src/SD_RTC_functions.c ****                 Write_new_info = FALSE;
 990              		.loc 1 196 0
 991 02d0 0023     		movs	r3, #0
 992 02d2 07F5A352 		add	r2, r7, #5216
 993 02d6 02F11702 		add	r2, r2, #23
 994 02da 1370     		strb	r3, [r2]
 995              	.L20:
 197:..\src/SD_RTC_functions.c ****             }
 198:..\src/SD_RTC_functions.c ****         }
 199:..\src/SD_RTC_functions.c ****         FS_FClose(pFile_read);
 996              		.loc 1 199 0
 997 02dc 07F5A353 		add	r3, r7, #5216
 998 02e0 03F10803 		add	r3, r3, #8
 999 02e4 1868     		ldr	r0, [r3]
 1000 02e6 FFF7FEFF 		bl	FS_FClose
 1001 02ea 31E0     		b	.L22
 1002              	.L28:
 1003              		.align	2
 1004              	.L27:
 1005 02ec 34000000 		.word	.LC0
 1006 02f0 40000000 		.word	.LC1
 1007 02f4 00000000 		.word	g_mem
 1008 02f8 00000000 		.word	.LC2
 1009 02fc 04000000 		.word	.LC3
 1010 0300 10000000 		.word	.LC4
 1011 0304 18000000 		.word	.LC5
 1012 0308 28000000 		.word	.LC6
 1013 030c 00000000 		.word	sdParam
 1014 0310 00000000 		.word	sdFile
 1015              	.L19:
 200:..\src/SD_RTC_functions.c ****     } 
 201:..\src/SD_RTC_functions.c ****     else {
 202:..\src/SD_RTC_functions.c ****         // The directory is empty
 203:..\src/SD_RTC_functions.c ****         sprintf(sdParam, "%s\\%s_%d.csv", sdDir, Param_filename, 0);  // first param filename
 1016              		.loc 1 203 0
 1017 0314 07F11803 		add	r3, r7, #24
 1018 0318 183B     		subs	r3, r3, #24
 1019 031a 07F5A051 		add	r1, r7, #5120
 1020 031e 0022     		movs	r2, #0
 1021 0320 0092     		str	r2, [sp]
 1022 0322 0A46     		mov	r2, r1
 1023 0324 4449     		ldr	r1, .L29
 1024 0326 4548     		ldr	r0, .L29+4
 1025 0328 FFF7FEFF 		bl	sprintf
 204:..\src/SD_RTC_functions.c ****         sprintf(sdFile, "%s\\%s_%d.csv", sdDir, Data_filename, 0);    //first data filename
 1026              		.loc 1 204 0
 1027 032c 07F11803 		add	r3, r7, #24
 1028 0330 103B     		subs	r3, r3, #16
 1029 0332 07F5A051 		add	r1, r7, #5120
 1030 0336 0022     		movs	r2, #0
 1031 0338 0092     		str	r2, [sp]
 1032 033a 0A46     		mov	r2, r1
 1033 033c 3E49     		ldr	r1, .L29
 1034 033e 4048     		ldr	r0, .L29+8
 1035 0340 FFF7FEFF 		bl	sprintf
 205:..\src/SD_RTC_functions.c ****         Write_new_info = TRUE;
 1036              		.loc 1 205 0
ARM GAS  C:\Users\Mattia\AppData\Local\Temp\ccPr8Am1.s 			page 23


 1037 0344 0123     		movs	r3, #1
 1038 0346 07F5A352 		add	r2, r7, #5216
 1039 034a 02F11702 		add	r2, r2, #23
 1040 034e 1370     		strb	r3, [r2]
 1041              	.L22:
 206:..\src/SD_RTC_functions.c ****     } 
 207:..\src/SD_RTC_functions.c ****     FS_CloseDir(pDir);
 1042              		.loc 1 207 0
 1043 0350 07F5A353 		add	r3, r7, #5216
 1044 0354 03F10C03 		add	r3, r3, #12
 1045 0358 1868     		ldr	r0, [r3]
 1046 035a FFF7FEFF 		bl	FS_CloseDir
 208:..\src/SD_RTC_functions.c ****     
 209:..\src/SD_RTC_functions.c ****     // Write chosen data in SD card        
 210:..\src/SD_RTC_functions.c ****     if (Write_new_info) {            
 1047              		.loc 1 210 0
 1048 035e 07F5A353 		add	r3, r7, #5216
 1049 0362 03F11703 		add	r3, r3, #23
 1050 0366 1B78     		ldrb	r3, [r3]	@ zero_extendqisi2
 1051 0368 002B     		cmp	r3, #0
 1052 036a 1FD0     		beq	.L23
 211:..\src/SD_RTC_functions.c ****         pParam = FS_FOpen(sdParam, "a");
 1053              		.loc 1 211 0
 1054 036c 3549     		ldr	r1, .L29+12
 1055 036e 3348     		ldr	r0, .L29+4
 1056 0370 FFF7FEFF 		bl	FS_FOpen
 1057 0374 07F5A353 		add	r3, r7, #5216
 1058 0378 03F10403 		add	r3, r3, #4
 1059 037c 1860     		str	r0, [r3]
 212:..\src/SD_RTC_functions.c ****         //info_ string has been already created
 213:..\src/SD_RTC_functions.c ****         FS_Write(pParam, info_, strlen(info_));
 1060              		.loc 1 213 0
 1061 037e 07F6D813 		addw	r3, r7, #2520
 1062 0382 1846     		mov	r0, r3
 1063 0384 FFF7FEFF 		bl	strlen
 1064 0388 0246     		mov	r2, r0
 1065 038a 07F6D813 		addw	r3, r7, #2520
 1066 038e 1946     		mov	r1, r3
 1067 0390 07F5A353 		add	r3, r7, #5216
 1068 0394 03F10403 		add	r3, r3, #4
 1069 0398 1868     		ldr	r0, [r3]
 1070 039a FFF7FEFF 		bl	FS_Write
 214:..\src/SD_RTC_functions.c ****         FS_FClose(pParam);
 1071              		.loc 1 214 0
 1072 039e 07F5A353 		add	r3, r7, #5216
 1073 03a2 03F10403 		add	r3, r3, #4
 1074 03a6 1868     		ldr	r0, [r3]
 1075 03a8 FFF7FEFF 		bl	FS_FClose
 1076              	.L23:
 215:..\src/SD_RTC_functions.c ****     }
 216:..\src/SD_RTC_functions.c ****     
 217:..\src/SD_RTC_functions.c ****     // Open chosen data file in append mode
 218:..\src/SD_RTC_functions.c ****     pFile = FS_FOpen(sdFile, "a");
 1077              		.loc 1 218 0
 1078 03ac 2549     		ldr	r1, .L29+12
 1079 03ae 2448     		ldr	r0, .L29+8
 1080 03b0 FFF7FEFF 		bl	FS_FOpen
ARM GAS  C:\Users\Mattia\AppData\Local\Temp\ccPr8Am1.s 			page 24


 1081 03b4 0246     		mov	r2, r0
 1082 03b6 244B     		ldr	r3, .L29+16
 1083 03b8 1A60     		str	r2, [r3]
 219:..\src/SD_RTC_functions.c ****     if (Write_new_info) { 
 1084              		.loc 1 219 0
 1085 03ba 07F5A353 		add	r3, r7, #5216
 1086 03be 03F11703 		add	r3, r3, #23
 1087 03c2 1B78     		ldrb	r3, [r3]	@ zero_extendqisi2
 1088 03c4 002B     		cmp	r3, #0
 1089 03c6 12D0     		beq	.L24
 220:..\src/SD_RTC_functions.c ****         // The file doesn't exist, so write legend info inside
 221:..\src/SD_RTC_functions.c ****         prepare_SD_legend(info_);
 1090              		.loc 1 221 0
 1091 03c8 07F6D813 		addw	r3, r7, #2520
 1092 03cc 1846     		mov	r0, r3
 1093 03ce FFF7FEFF 		bl	prepare_SD_legend
 222:..\src/SD_RTC_functions.c ****         FS_Write(pFile, info_, strlen(info_));
 1094              		.loc 1 222 0
 1095 03d2 1D4B     		ldr	r3, .L29+16
 1096 03d4 1C68     		ldr	r4, [r3]
 1097 03d6 07F6D813 		addw	r3, r7, #2520
 1098 03da 1846     		mov	r0, r3
 1099 03dc FFF7FEFF 		bl	strlen
 1100 03e0 0246     		mov	r2, r0
 1101 03e2 07F6D813 		addw	r3, r7, #2520
 1102 03e6 1946     		mov	r1, r3
 1103 03e8 2046     		mov	r0, r4
 1104 03ea FFF7FEFF 		bl	FS_Write
 1105              	.L24:
 223:..\src/SD_RTC_functions.c ****     }
 224:..\src/SD_RTC_functions.c ****     //FS_FClose(pFile); 
 225:..\src/SD_RTC_functions.c ****      
 226:..\src/SD_RTC_functions.c ****     // Open file for EMG History in write mode (create it if it does not exist)
 227:..\src/SD_RTC_functions.c ****     if (c_mem.exp.record_EMG_history_on_SD){
 1106              		.loc 1 227 0
 1107 03ee 174B     		ldr	r3, .L29+20
 1108 03f0 93F83432 		ldrb	r3, [r3, #564]	@ zero_extendqisi2
 1109 03f4 002B     		cmp	r3, #0
 1110 03f6 19D0     		beq	.L26
 228:..\src/SD_RTC_functions.c ****         pEMGHFile = FS_FOpen(sdEMGHFile, "w");
 1111              		.loc 1 228 0
 1112 03f8 1549     		ldr	r1, .L29+24
 1113 03fa 1648     		ldr	r0, .L29+28
 1114 03fc FFF7FEFF 		bl	FS_FOpen
 1115 0400 0246     		mov	r2, r0
 1116 0402 154B     		ldr	r3, .L29+32
 1117 0404 1A60     		str	r2, [r3]
 229:..\src/SD_RTC_functions.c ****         prepare_SD_EMG_History_legend(info_);
 1118              		.loc 1 229 0
 1119 0406 07F6D813 		addw	r3, r7, #2520
 1120 040a 1846     		mov	r0, r3
 1121 040c FFF7FEFF 		bl	prepare_SD_EMG_History_legend
 230:..\src/SD_RTC_functions.c ****         FS_Write(pEMGHFile, info_, strlen(info_));
 1122              		.loc 1 230 0
 1123 0410 114B     		ldr	r3, .L29+32
 1124 0412 1C68     		ldr	r4, [r3]
 1125 0414 07F6D813 		addw	r3, r7, #2520
ARM GAS  C:\Users\Mattia\AppData\Local\Temp\ccPr8Am1.s 			page 25


 1126 0418 1846     		mov	r0, r3
 1127 041a FFF7FEFF 		bl	strlen
 1128 041e 0246     		mov	r2, r0
 1129 0420 07F6D813 		addw	r3, r7, #2520
 1130 0424 1946     		mov	r1, r3
 1131 0426 2046     		mov	r0, r4
 1132 0428 FFF7FEFF 		bl	FS_Write
 1133              	.L26:
 231:..\src/SD_RTC_functions.c ****     }
 232:..\src/SD_RTC_functions.c **** }
 1134              		.loc 1 232 0
 1135 042c 00BF     		nop
 1136 042e 07F5A357 		add	r7, r7, #5216
 1137 0432 1C37     		adds	r7, r7, #28
 1138              		.cfi_def_cfa_offset 12
 1139 0434 BD46     		mov	sp, r7
 1140              		.cfi_def_cfa_register 13
 1141              		@ sp needed
 1142 0436 90BD     		pop	{r4, r7, pc}
 1143              	.L30:
 1144              		.align	2
 1145              	.L29:
 1146 0438 18000000 		.word	.LC5
 1147 043c 00000000 		.word	sdParam
 1148 0440 00000000 		.word	sdFile
 1149 0444 2C000000 		.word	.LC7
 1150 0448 00000000 		.word	pFile
 1151 044c 00000000 		.word	c_mem
 1152 0450 30000000 		.word	.LC8
 1153 0454 00000000 		.word	sdEMGHFile
 1154 0458 00000000 		.word	pEMGHFile
 1155              		.cfi_endproc
 1156              	.LFE71:
 1157              		.size	InitSD_FS, .-InitSD_FS
 1158              		.section	.text.Write_SD_Param_file,"ax",%progbits
 1159              		.align	2
 1160              		.global	Write_SD_Param_file
 1161              		.thumb
 1162              		.thumb_func
 1163              		.type	Write_SD_Param_file, %function
 1164              	Write_SD_Param_file:
 1165              	.LFB72:
 233:..\src/SD_RTC_functions.c **** 
 234:..\src/SD_RTC_functions.c **** /*******************************************************************************
 235:..\src/SD_RTC_functions.c **** * Function Name: Write SD Param File
 236:..\src/SD_RTC_functions.c **** *********************************************************************************/
 237:..\src/SD_RTC_functions.c **** void Write_SD_Param_file(){
 1166              		.loc 1 237 0
 1167              		.cfi_startproc
 1168              		@ args = 0, pretend = 0, frame = 2504
 1169              		@ frame_needed = 1, uses_anonymous_args = 0
 1170 0000 90B5     		push	{r4, r7, lr}
 1171              		.cfi_def_cfa_offset 12
 1172              		.cfi_offset 4, -12
 1173              		.cfi_offset 7, -8
 1174              		.cfi_offset 14, -4
 1175 0002 ADF6CC1D 		subw	sp, sp, #2508
ARM GAS  C:\Users\Mattia\AppData\Local\Temp\ccPr8Am1.s 			page 26


 1176              		.cfi_def_cfa_offset 2520
 1177 0006 00AF     		add	r7, sp, #0
 1178              		.cfi_def_cfa_register 7
 238:..\src/SD_RTC_functions.c ****     char info_[2500] = "";
 1179              		.loc 1 238 0
 1180 0008 3B1D     		adds	r3, r7, #4
 1181 000a 0022     		movs	r2, #0
 1182 000c 1A60     		str	r2, [r3]
 1183 000e 0433     		adds	r3, r3, #4
 1184 0010 4FF41C62 		mov	r2, #2496
 1185 0014 0021     		movs	r1, #0
 1186 0016 1846     		mov	r0, r3
 1187 0018 FFF7FEFF 		bl	memset
 239:..\src/SD_RTC_functions.c ****     
 240:..\src/SD_RTC_functions.c ****     prepare_SD_param_info(info_);
 1188              		.loc 1 240 0
 1189 001c 3B1D     		adds	r3, r7, #4
 1190 001e 1846     		mov	r0, r3
 1191 0020 FFF7FEFF 		bl	prepare_SD_param_info
 241:..\src/SD_RTC_functions.c ****     FS_Write(pFile, info_, strlen(info_));
 1192              		.loc 1 241 0
 1193 0024 084B     		ldr	r3, .L32
 1194 0026 1C68     		ldr	r4, [r3]
 1195 0028 3B1D     		adds	r3, r7, #4
 1196 002a 1846     		mov	r0, r3
 1197 002c FFF7FEFF 		bl	strlen
 1198 0030 0246     		mov	r2, r0
 1199 0032 3B1D     		adds	r3, r7, #4
 1200 0034 1946     		mov	r1, r3
 1201 0036 2046     		mov	r0, r4
 1202 0038 FFF7FEFF 		bl	FS_Write
 242:..\src/SD_RTC_functions.c **** }
 1203              		.loc 1 242 0
 1204 003c 00BF     		nop
 1205 003e 07F6CC17 		addw	r7, r7, #2508
 1206              		.cfi_def_cfa_offset 12
 1207 0042 BD46     		mov	sp, r7
 1208              		.cfi_def_cfa_register 13
 1209              		@ sp needed
 1210 0044 90BD     		pop	{r4, r7, pc}
 1211              	.L33:
 1212 0046 00BF     		.align	2
 1213              	.L32:
 1214 0048 00000000 		.word	pFile
 1215              		.cfi_endproc
 1216              	.LFE72:
 1217              		.size	Write_SD_Param_file, .-Write_SD_Param_file
 1218              		.section	.text.Read_SD_Closed_File,"ax",%progbits
 1219              		.align	2
 1220              		.global	Read_SD_Closed_File
 1221              		.thumb
 1222              		.thumb_func
 1223              		.type	Read_SD_Closed_File, %function
 1224              	Read_SD_Closed_File:
 1225              	.LFB73:
 243:..\src/SD_RTC_functions.c **** 
 244:..\src/SD_RTC_functions.c **** /*******************************************************************************
ARM GAS  C:\Users\Mattia\AppData\Local\Temp\ccPr8Am1.s 			page 27


 245:..\src/SD_RTC_functions.c **** * Function Name: Read SD Closed File (Param or closed Data files)
 246:..\src/SD_RTC_functions.c **** *********************************************************************************/
 247:..\src/SD_RTC_functions.c **** void Read_SD_Closed_File(char* src_file, char* info_file, int n_p){
 1226              		.loc 1 247 0
 1227              		.cfi_startproc
 1228              		@ args = 0, pretend = 0, frame = 24
 1229              		@ frame_needed = 1, uses_anonymous_args = 0
 1230 0000 80B5     		push	{r7, lr}
 1231              		.cfi_def_cfa_offset 8
 1232              		.cfi_offset 7, -8
 1233              		.cfi_offset 14, -4
 1234 0002 86B0     		sub	sp, sp, #24
 1235              		.cfi_def_cfa_offset 32
 1236 0004 00AF     		add	r7, sp, #0
 1237              		.cfi_def_cfa_register 7
 1238 0006 F860     		str	r0, [r7, #12]
 1239 0008 B960     		str	r1, [r7, #8]
 1240 000a 7A60     		str	r2, [r7, #4]
 248:..\src/SD_RTC_functions.c ****     int i;
 249:..\src/SD_RTC_functions.c ****     FS_FILE* pF;
 250:..\src/SD_RTC_functions.c ****     
 251:..\src/SD_RTC_functions.c ****     // Open param file in read mode
 252:..\src/SD_RTC_functions.c ****     pF = FS_FOpen(src_file, "r");
 1241              		.loc 1 252 0
 1242 000c 0D49     		ldr	r1, .L36
 1243 000e F868     		ldr	r0, [r7, #12]
 1244 0010 FFF7FEFF 		bl	FS_FOpen
 1245 0014 7861     		str	r0, [r7, #20]
 253:..\src/SD_RTC_functions.c ****     if (pF != 0) {
 1246              		.loc 1 253 0
 1247 0016 7B69     		ldr	r3, [r7, #20]
 1248 0018 002B     		cmp	r3, #0
 1249 001a 0CD0     		beq	.L35
 254:..\src/SD_RTC_functions.c ****         i = FS_FRead(info_file, 1, n_p, pF);
 1250              		.loc 1 254 0
 1251 001c 7A68     		ldr	r2, [r7, #4]
 1252 001e 7B69     		ldr	r3, [r7, #20]
 1253 0020 0121     		movs	r1, #1
 1254 0022 B868     		ldr	r0, [r7, #8]
 1255 0024 FFF7FEFF 		bl	FS_FRead
 1256 0028 0346     		mov	r3, r0
 1257 002a 3B61     		str	r3, [r7, #16]
 255:..\src/SD_RTC_functions.c ****         info_file[i] = 0;
 1258              		.loc 1 255 0
 1259 002c 3B69     		ldr	r3, [r7, #16]
 1260 002e BA68     		ldr	r2, [r7, #8]
 1261 0030 1344     		add	r3, r3, r2
 1262 0032 0022     		movs	r2, #0
 1263 0034 1A70     		strb	r2, [r3]
 1264              	.L35:
 256:..\src/SD_RTC_functions.c ****     }
 257:..\src/SD_RTC_functions.c ****     FS_FClose(pF);
 1265              		.loc 1 257 0
 1266 0036 7869     		ldr	r0, [r7, #20]
 1267 0038 FFF7FEFF 		bl	FS_FClose
 258:..\src/SD_RTC_functions.c **** }
 1268              		.loc 1 258 0
ARM GAS  C:\Users\Mattia\AppData\Local\Temp\ccPr8Am1.s 			page 28


 1269 003c 00BF     		nop
 1270 003e 1837     		adds	r7, r7, #24
 1271              		.cfi_def_cfa_offset 8
 1272 0040 BD46     		mov	sp, r7
 1273              		.cfi_def_cfa_register 13
 1274              		@ sp needed
 1275 0042 80BD     		pop	{r7, pc}
 1276              	.L37:
 1277              		.align	2
 1278              	.L36:
 1279 0044 28000000 		.word	.LC6
 1280              		.cfi_endproc
 1281              	.LFE73:
 1282              		.size	Read_SD_Closed_File, .-Read_SD_Closed_File
 1283              		.section	.text.Read_SD_Current_Data,"ax",%progbits
 1284              		.align	2
 1285              		.global	Read_SD_Current_Data
 1286              		.thumb
 1287              		.thumb_func
 1288              		.type	Read_SD_Current_Data, %function
 1289              	Read_SD_Current_Data:
 1290              	.LFB74:
 259:..\src/SD_RTC_functions.c **** 
 260:..\src/SD_RTC_functions.c **** /*******************************************************************************
 261:..\src/SD_RTC_functions.c **** * Function Name: Read SD Current Open Data File
 262:..\src/SD_RTC_functions.c **** *********************************************************************************/
 263:..\src/SD_RTC_functions.c **** void Read_SD_Current_Data(char* info_data, int n_d){
 1291              		.loc 1 263 0
 1292              		.cfi_startproc
 1293              		@ args = 0, pretend = 0, frame = 16
 1294              		@ frame_needed = 1, uses_anonymous_args = 0
 1295 0000 80B5     		push	{r7, lr}
 1296              		.cfi_def_cfa_offset 8
 1297              		.cfi_offset 7, -8
 1298              		.cfi_offset 14, -4
 1299 0002 84B0     		sub	sp, sp, #16
 1300              		.cfi_def_cfa_offset 24
 1301 0004 00AF     		add	r7, sp, #0
 1302              		.cfi_def_cfa_register 7
 1303 0006 7860     		str	r0, [r7, #4]
 1304 0008 3960     		str	r1, [r7]
 264:..\src/SD_RTC_functions.c ****     int i;
 265:..\src/SD_RTC_functions.c ****     FS_FILE* pData;
 266:..\src/SD_RTC_functions.c ****     
 267:..\src/SD_RTC_functions.c ****     FS_FClose(pFile);
 1305              		.loc 1 267 0
 1306 000a 144B     		ldr	r3, .L40
 1307 000c 1B68     		ldr	r3, [r3]
 1308 000e 1846     		mov	r0, r3
 1309 0010 FFF7FEFF 		bl	FS_FClose
 268:..\src/SD_RTC_functions.c ****     
 269:..\src/SD_RTC_functions.c ****     // Open data file in read mode    
 270:..\src/SD_RTC_functions.c ****     pData = FS_FOpen(sdFile, "r");
 1310              		.loc 1 270 0
 1311 0014 1249     		ldr	r1, .L40+4
 1312 0016 1348     		ldr	r0, .L40+8
 1313 0018 FFF7FEFF 		bl	FS_FOpen
ARM GAS  C:\Users\Mattia\AppData\Local\Temp\ccPr8Am1.s 			page 29


 1314 001c F860     		str	r0, [r7, #12]
 271:..\src/SD_RTC_functions.c ****     if (pData != 0) {
 1315              		.loc 1 271 0
 1316 001e FB68     		ldr	r3, [r7, #12]
 1317 0020 002B     		cmp	r3, #0
 1318 0022 0CD0     		beq	.L39
 272:..\src/SD_RTC_functions.c ****         i = FS_FRead(info_data, 1, n_d, pData);
 1319              		.loc 1 272 0
 1320 0024 3A68     		ldr	r2, [r7]
 1321 0026 FB68     		ldr	r3, [r7, #12]
 1322 0028 0121     		movs	r1, #1
 1323 002a 7868     		ldr	r0, [r7, #4]
 1324 002c FFF7FEFF 		bl	FS_FRead
 1325 0030 0346     		mov	r3, r0
 1326 0032 BB60     		str	r3, [r7, #8]
 273:..\src/SD_RTC_functions.c ****         info_data[i] = 0;  
 1327              		.loc 1 273 0
 1328 0034 BB68     		ldr	r3, [r7, #8]
 1329 0036 7A68     		ldr	r2, [r7, #4]
 1330 0038 1344     		add	r3, r3, r2
 1331 003a 0022     		movs	r2, #0
 1332 003c 1A70     		strb	r2, [r3]
 1333              	.L39:
 274:..\src/SD_RTC_functions.c ****     }
 275:..\src/SD_RTC_functions.c ****     FS_FClose(pData);
 1334              		.loc 1 275 0
 1335 003e F868     		ldr	r0, [r7, #12]
 1336 0040 FFF7FEFF 		bl	FS_FClose
 276:..\src/SD_RTC_functions.c ****     
 277:..\src/SD_RTC_functions.c ****     // Before exiting, reopen data file in append mode
 278:..\src/SD_RTC_functions.c ****     pFile = FS_FOpen(sdFile, "a");
 1337              		.loc 1 278 0
 1338 0044 0849     		ldr	r1, .L40+12
 1339 0046 0748     		ldr	r0, .L40+8
 1340 0048 FFF7FEFF 		bl	FS_FOpen
 1341 004c 0246     		mov	r2, r0
 1342 004e 034B     		ldr	r3, .L40
 1343 0050 1A60     		str	r2, [r3]
 279:..\src/SD_RTC_functions.c **** }
 1344              		.loc 1 279 0
 1345 0052 00BF     		nop
 1346 0054 1037     		adds	r7, r7, #16
 1347              		.cfi_def_cfa_offset 8
 1348 0056 BD46     		mov	sp, r7
 1349              		.cfi_def_cfa_register 13
 1350              		@ sp needed
 1351 0058 80BD     		pop	{r7, pc}
 1352              	.L41:
 1353 005a 00BF     		.align	2
 1354              	.L40:
 1355 005c 00000000 		.word	pFile
 1356 0060 28000000 		.word	.LC6
 1357 0064 00000000 		.word	sdFile
 1358 0068 2C000000 		.word	.LC7
 1359              		.cfi_endproc
 1360              	.LFE74:
 1361              		.size	Read_SD_Current_Data, .-Read_SD_Current_Data
ARM GAS  C:\Users\Mattia\AppData\Local\Temp\ccPr8Am1.s 			page 30


 1362              		.section	.text.Read_SD_EMG_History_Data,"ax",%progbits
 1363              		.align	2
 1364              		.global	Read_SD_EMG_History_Data
 1365              		.thumb
 1366              		.thumb_func
 1367              		.type	Read_SD_EMG_History_Data, %function
 1368              	Read_SD_EMG_History_Data:
 1369              	.LFB75:
 280:..\src/SD_RTC_functions.c **** 
 281:..\src/SD_RTC_functions.c **** /*******************************************************************************
 282:..\src/SD_RTC_functions.c **** * Function Name: Read SD Current Open EMG History File
 283:..\src/SD_RTC_functions.c **** *********************************************************************************/
 284:..\src/SD_RTC_functions.c **** void Read_SD_EMG_History_Data(){
 1370              		.loc 1 284 0
 1371              		.cfi_startproc
 1372              		@ args = 0, pretend = 0, frame = 24
 1373              		@ frame_needed = 1, uses_anonymous_args = 0
 1374 0000 80B5     		push	{r7, lr}
 1375              		.cfi_def_cfa_offset 8
 1376              		.cfi_offset 7, -8
 1377              		.cfi_offset 14, -4
 1378 0002 86B0     		sub	sp, sp, #24
 1379              		.cfi_def_cfa_offset 32
 1380 0004 00AF     		add	r7, sp, #0
 1381              		.cfi_def_cfa_register 7
 285:..\src/SD_RTC_functions.c ****     int i;
 286:..\src/SD_RTC_functions.c ****     FS_FILE* pData;
 287:..\src/SD_RTC_functions.c ****     char iData[10];
 288:..\src/SD_RTC_functions.c ****     
 289:..\src/SD_RTC_functions.c ****     FS_FClose(pEMGHFile);
 1382              		.loc 1 289 0
 1383 0006 164B     		ldr	r3, .L44
 1384 0008 1B68     		ldr	r3, [r3]
 1385 000a 1846     		mov	r0, r3
 1386 000c FFF7FEFF 		bl	FS_FClose
 290:..\src/SD_RTC_functions.c ****     
 291:..\src/SD_RTC_functions.c ****     // Open data file in read mode    
 292:..\src/SD_RTC_functions.c ****     pData = FS_FOpen(sdEMGHFile, "r");
 1387              		.loc 1 292 0
 1388 0010 1449     		ldr	r1, .L44+4
 1389 0012 1548     		ldr	r0, .L44+8
 1390 0014 FFF7FEFF 		bl	FS_FOpen
 1391 0018 7861     		str	r0, [r7, #20]
 293:..\src/SD_RTC_functions.c ****     
 294:..\src/SD_RTC_functions.c ****     UART_RS485_ClearTxBuffer();
 1392              		.loc 1 294 0
 1393 001a FFF7FEFF 		bl	UART_RS485_ClearTxBuffer
 1394              	.L43:
 295:..\src/SD_RTC_functions.c ****     do {
 296:..\src/SD_RTC_functions.c ****         i = FS_FRead(iData, 1, 1, pData);
 1395              		.loc 1 296 0 discriminator 1
 1396 001e 381D     		adds	r0, r7, #4
 1397 0020 7B69     		ldr	r3, [r7, #20]
 1398 0022 0122     		movs	r2, #1
 1399 0024 0121     		movs	r1, #1
 1400 0026 FFF7FEFF 		bl	FS_FRead
 1401 002a 0346     		mov	r3, r0
ARM GAS  C:\Users\Mattia\AppData\Local\Temp\ccPr8Am1.s 			page 31


 1402 002c 3B61     		str	r3, [r7, #16]
 297:..\src/SD_RTC_functions.c ****         UART_RS485_PutChar((uint8)iData[0]);
 1403              		.loc 1 297 0 discriminator 1
 1404 002e 3B79     		ldrb	r3, [r7, #4]	@ zero_extendqisi2
 1405 0030 1846     		mov	r0, r3
 1406 0032 FFF7FEFF 		bl	UART_RS485_PutChar
 298:..\src/SD_RTC_functions.c ****     }
 299:..\src/SD_RTC_functions.c ****     while(i);
 1407              		.loc 1 299 0 discriminator 1
 1408 0036 3B69     		ldr	r3, [r7, #16]
 1409 0038 002B     		cmp	r3, #0
 1410 003a F0D1     		bne	.L43
 300:..\src/SD_RTC_functions.c ****     UART_RS485_PutChar((uint8)0);
 1411              		.loc 1 300 0
 1412 003c 0020     		movs	r0, #0
 1413 003e FFF7FEFF 		bl	UART_RS485_PutChar
 301:..\src/SD_RTC_functions.c ****     
 302:..\src/SD_RTC_functions.c ****     FS_FClose(pData);
 1414              		.loc 1 302 0
 1415 0042 7869     		ldr	r0, [r7, #20]
 1416 0044 FFF7FEFF 		bl	FS_FClose
 303:..\src/SD_RTC_functions.c ****     
 304:..\src/SD_RTC_functions.c ****     // Before exiting, reopen file in append mode
 305:..\src/SD_RTC_functions.c ****     pEMGHFile = FS_FOpen(sdEMGHFile, "a");
 1417              		.loc 1 305 0
 1418 0048 0849     		ldr	r1, .L44+12
 1419 004a 0748     		ldr	r0, .L44+8
 1420 004c FFF7FEFF 		bl	FS_FOpen
 1421 0050 0246     		mov	r2, r0
 1422 0052 034B     		ldr	r3, .L44
 1423 0054 1A60     		str	r2, [r3]
 306:..\src/SD_RTC_functions.c **** }
 1424              		.loc 1 306 0
 1425 0056 00BF     		nop
 1426 0058 1837     		adds	r7, r7, #24
 1427              		.cfi_def_cfa_offset 8
 1428 005a BD46     		mov	sp, r7
 1429              		.cfi_def_cfa_register 13
 1430              		@ sp needed
 1431 005c 80BD     		pop	{r7, pc}
 1432              	.L45:
 1433 005e 00BF     		.align	2
 1434              	.L44:
 1435 0060 00000000 		.word	pEMGHFile
 1436 0064 28000000 		.word	.LC6
 1437 0068 00000000 		.word	sdEMGHFile
 1438 006c 2C000000 		.word	.LC7
 1439              		.cfi_endproc
 1440              	.LFE75:
 1441              		.size	Read_SD_EMG_History_Data, .-Read_SD_EMG_History_Data
 1442              		.section	.rodata
 1443 0047 00       		.align	2
 1444              	.LC9:
 1445 0048 5C00     		.ascii	"\\\000"
 1446 004a 0000     		.align	2
 1447              	.LC10:
 1448 004c 2E00     		.ascii	".\000"
ARM GAS  C:\Users\Mattia\AppData\Local\Temp\ccPr8Am1.s 			page 32


 1449 004e 0000     		.align	2
 1450              	.LC11:
 1451 0050 2E2E00   		.ascii	"..\000"
 1452              		.section	.text.Get_DirectoriesList,"ax",%progbits
 1453              		.align	2
 1454              		.global	Get_DirectoriesList
 1455              		.thumb
 1456              		.thumb_func
 1457              		.type	Get_DirectoriesList, %function
 1458              	Get_DirectoriesList:
 1459              	.LFB76:
 307:..\src/SD_RTC_functions.c **** 
 308:..\src/SD_RTC_functions.c **** /*******************************************************************************
 309:..\src/SD_RTC_functions.c **** * Function Name: Get SD Directories List
 310:..\src/SD_RTC_functions.c **** *********************************************************************************/
 311:..\src/SD_RTC_functions.c **** int Get_DirectoriesList(char* path, char directories_list[3000][8], int first_idx){
 1460              		.loc 1 311 0
 1461              		.cfi_startproc
 1462              		@ args = 0, pretend = 0, frame = 208
 1463              		@ frame_needed = 1, uses_anonymous_args = 0
 1464 0000 80B5     		push	{r7, lr}
 1465              		.cfi_def_cfa_offset 8
 1466              		.cfi_offset 7, -8
 1467              		.cfi_offset 14, -4
 1468 0002 B4B0     		sub	sp, sp, #208
 1469              		.cfi_def_cfa_offset 216
 1470 0004 00AF     		add	r7, sp, #0
 1471              		.cfi_def_cfa_register 7
 1472 0006 F860     		str	r0, [r7, #12]
 1473 0008 B960     		str	r1, [r7, #8]
 1474 000a 7A60     		str	r2, [r7, #4]
 312:..\src/SD_RTC_functions.c ****     
 313:..\src/SD_RTC_functions.c ****     FS_FIND_DATA fd;
 314:..\src/SD_RTC_functions.c ****     int num_found_dirs = 0;
 1475              		.loc 1 314 0
 1476 000c 0023     		movs	r3, #0
 1477 000e C7F8CC30 		str	r3, [r7, #204]
 315:..\src/SD_RTC_functions.c ****     char acDirname[20];    
 316:..\src/SD_RTC_functions.c ****     
 317:..\src/SD_RTC_functions.c ****     if (FS_FindFirstFile(&fd, path, acDirname, sizeof(acDirname)) == 0) {
 1478              		.loc 1 317 0
 1479 0012 07F17402 		add	r2, r7, #116
 1480 0016 07F18800 		add	r0, r7, #136
 1481 001a 1423     		movs	r3, #20
 1482 001c F968     		ldr	r1, [r7, #12]
 1483 001e FFF7FEFF 		bl	FS_FindFirstFile
 1484 0022 0346     		mov	r3, r0
 1485 0024 002B     		cmp	r3, #0
 1486 0026 77D1     		bne	.L47
 1487              	.L49:
 1488              	.LBB2:
 318:..\src/SD_RTC_functions.c ****         do {
 319:..\src/SD_RTC_functions.c ****             FS_DIR *pDir;
 320:..\src/SD_RTC_functions.c ****             char curr_path[100] = "";
 1489              		.loc 1 320 0
 1490 0028 0023     		movs	r3, #0
 1491 002a 3B61     		str	r3, [r7, #16]
ARM GAS  C:\Users\Mattia\AppData\Local\Temp\ccPr8Am1.s 			page 33


 1492 002c 07F11403 		add	r3, r7, #20
 1493 0030 6022     		movs	r2, #96
 1494 0032 0021     		movs	r1, #0
 1495 0034 1846     		mov	r0, r3
 1496 0036 FFF7FEFF 		bl	memset
 321:..\src/SD_RTC_functions.c ****             strcpy(curr_path, path);
 1497              		.loc 1 321 0
 1498 003a 07F11003 		add	r3, r7, #16
 1499 003e F968     		ldr	r1, [r7, #12]
 1500 0040 1846     		mov	r0, r3
 1501 0042 FFF7FEFF 		bl	strcpy
 322:..\src/SD_RTC_functions.c ****             strcat(curr_path, "\\");
 1502              		.loc 1 322 0
 1503 0046 07F11003 		add	r3, r7, #16
 1504 004a 1846     		mov	r0, r3
 1505 004c FFF7FEFF 		bl	strlen
 1506 0050 0346     		mov	r3, r0
 1507 0052 1A46     		mov	r2, r3
 1508 0054 07F11003 		add	r3, r7, #16
 1509 0058 1344     		add	r3, r3, r2
 1510 005a 3549     		ldr	r1, .L51
 1511 005c 1A46     		mov	r2, r3
 1512 005e 0B46     		mov	r3, r1
 1513 0060 1B88     		ldrh	r3, [r3]	@ unaligned
 1514 0062 1380     		strh	r3, [r2]	@ unaligned
 323:..\src/SD_RTC_functions.c ****             strcat(curr_path, acDirname);
 1515              		.loc 1 323 0
 1516 0064 07F17402 		add	r2, r7, #116
 1517 0068 07F11003 		add	r3, r7, #16
 1518 006c 1146     		mov	r1, r2
 1519 006e 1846     		mov	r0, r3
 1520 0070 FFF7FEFF 		bl	strcat
 324:..\src/SD_RTC_functions.c ****             strcat(curr_path, "\\");
 1521              		.loc 1 324 0
 1522 0074 07F11003 		add	r3, r7, #16
 1523 0078 1846     		mov	r0, r3
 1524 007a FFF7FEFF 		bl	strlen
 1525 007e 0346     		mov	r3, r0
 1526 0080 1A46     		mov	r2, r3
 1527 0082 07F11003 		add	r3, r7, #16
 1528 0086 1344     		add	r3, r3, r2
 1529 0088 2949     		ldr	r1, .L51
 1530 008a 1A46     		mov	r2, r3
 1531 008c 0B46     		mov	r3, r1
 1532 008e 1B88     		ldrh	r3, [r3]	@ unaligned
 1533 0090 1380     		strh	r3, [r2]	@ unaligned
 325:..\src/SD_RTC_functions.c ****             pDir = FS_OpenDir(curr_path);
 1534              		.loc 1 325 0
 1535 0092 07F11003 		add	r3, r7, #16
 1536 0096 1846     		mov	r0, r3
 1537 0098 FFF7FEFF 		bl	FS_OpenDir
 1538 009c C7F8C800 		str	r0, [r7, #200]
 326:..\src/SD_RTC_functions.c ****             int num_files_dir = FS_GetNumFiles(pDir);
 1539              		.loc 1 326 0
 1540 00a0 D7F8C800 		ldr	r0, [r7, #200]
 1541 00a4 FFF7FEFF 		bl	FS_GetNumFiles
 1542 00a8 0346     		mov	r3, r0
ARM GAS  C:\Users\Mattia\AppData\Local\Temp\ccPr8Am1.s 			page 34


 1543 00aa C7F8C430 		str	r3, [r7, #196]
 327:..\src/SD_RTC_functions.c ****             FS_CloseDir(pDir);
 1544              		.loc 1 327 0
 1545 00ae D7F8C800 		ldr	r0, [r7, #200]
 1546 00b2 FFF7FEFF 		bl	FS_CloseDir
 328:..\src/SD_RTC_functions.c ****             if (num_files_dir != -1){
 1547              		.loc 1 328 0
 1548 00b6 D7F8C430 		ldr	r3, [r7, #196]
 1549 00ba B3F1FF3F 		cmp	r3, #-1
 1550 00be 23D0     		beq	.L48
 329:..\src/SD_RTC_functions.c ****   
 330:..\src/SD_RTC_functions.c ****                 if (strcmp(acDirname, ".") && strcmp(acDirname, "..")){
 1551              		.loc 1 330 0
 1552 00c0 07F17403 		add	r3, r7, #116
 1553 00c4 1B49     		ldr	r1, .L51+4
 1554 00c6 1846     		mov	r0, r3
 1555 00c8 FFF7FEFF 		bl	strcmp
 1556 00cc 0346     		mov	r3, r0
 1557 00ce 002B     		cmp	r3, #0
 1558 00d0 1AD0     		beq	.L48
 1559              		.loc 1 330 0 is_stmt 0 discriminator 1
 1560 00d2 07F17403 		add	r3, r7, #116
 1561 00d6 1849     		ldr	r1, .L51+8
 1562 00d8 1846     		mov	r0, r3
 1563 00da FFF7FEFF 		bl	strcmp
 1564 00de 0346     		mov	r3, r0
 1565 00e0 002B     		cmp	r3, #0
 1566 00e2 11D0     		beq	.L48
 331:..\src/SD_RTC_functions.c ****                     strcpy(directories_list[first_idx + num_found_dirs], acDirname);               
 1567              		.loc 1 331 0 is_stmt 1
 1568 00e4 7A68     		ldr	r2, [r7, #4]
 1569 00e6 D7F8CC30 		ldr	r3, [r7, #204]
 1570 00ea 1344     		add	r3, r3, r2
 1571 00ec DB00     		lsls	r3, r3, #3
 1572 00ee BA68     		ldr	r2, [r7, #8]
 1573 00f0 1344     		add	r3, r3, r2
 1574 00f2 07F17402 		add	r2, r7, #116
 1575 00f6 1146     		mov	r1, r2
 1576 00f8 1846     		mov	r0, r3
 1577 00fa FFF7FEFF 		bl	strcpy
 332:..\src/SD_RTC_functions.c ****                     num_found_dirs++;
 1578              		.loc 1 332 0
 1579 00fe D7F8CC30 		ldr	r3, [r7, #204]
 1580 0102 0133     		adds	r3, r3, #1
 1581 0104 C7F8CC30 		str	r3, [r7, #204]
 1582              	.L48:
 1583              	.LBE2:
 333:..\src/SD_RTC_functions.c ****                 }
 334:..\src/SD_RTC_functions.c ****             }    
 335:..\src/SD_RTC_functions.c ****  
 336:..\src/SD_RTC_functions.c ****         } while (FS_FindNextFile (&fd));
 1584              		.loc 1 336 0
 1585 0108 07F18803 		add	r3, r7, #136
 1586 010c 1846     		mov	r0, r3
 1587 010e FFF7FEFF 		bl	FS_FindNextFile
 1588 0112 0346     		mov	r3, r0
 1589 0114 002B     		cmp	r3, #0
ARM GAS  C:\Users\Mattia\AppData\Local\Temp\ccPr8Am1.s 			page 35


 1590 0116 87D1     		bne	.L49
 1591              	.L47:
 337:..\src/SD_RTC_functions.c ****     }
 338:..\src/SD_RTC_functions.c ****     FS_FindClose(&fd);
 1592              		.loc 1 338 0
 1593 0118 07F18803 		add	r3, r7, #136
 1594 011c 1846     		mov	r0, r3
 1595 011e FFF7FEFF 		bl	FS_FindClose
 339:..\src/SD_RTC_functions.c ****     
 340:..\src/SD_RTC_functions.c ****     return num_found_dirs;
 1596              		.loc 1 340 0
 1597 0122 D7F8CC30 		ldr	r3, [r7, #204]
 341:..\src/SD_RTC_functions.c **** }
 1598              		.loc 1 341 0
 1599 0126 1846     		mov	r0, r3
 1600 0128 D037     		adds	r7, r7, #208
 1601              		.cfi_def_cfa_offset 8
 1602 012a BD46     		mov	sp, r7
 1603              		.cfi_def_cfa_register 13
 1604              		@ sp needed
 1605 012c 80BD     		pop	{r7, pc}
 1606              	.L52:
 1607 012e 00BF     		.align	2
 1608              	.L51:
 1609 0130 48000000 		.word	.LC9
 1610 0134 4C000000 		.word	.LC10
 1611 0138 50000000 		.word	.LC11
 1612              		.cfi_endproc
 1613              	.LFE76:
 1614              		.size	Get_DirectoriesList, .-Get_DirectoriesList
 1615              		.section	.rodata
 1616 0053 00       		.align	2
 1617              	.LC12:
 1618 0054 5C25735C 		.ascii	"\\%s\\%s\\%s\\%s,%d\015\012\000"
 1618      25735C25 
 1618      735C2573 
 1618      2C25640D 
 1618      0A00
 1619              		.section	.text.Get_SD_FS,"ax",%progbits
 1620              		.align	2
 1621              		.global	Get_SD_FS
 1622              		.thumb
 1623              		.thumb_func
 1624              		.type	Get_SD_FS, %function
 1625              	Get_SD_FS:
 1626              	.LFB77:
 342:..\src/SD_RTC_functions.c **** 
 343:..\src/SD_RTC_functions.c **** /*******************************************************************************
 344:..\src/SD_RTC_functions.c **** * Function Name: Get SD Filesystem
 345:..\src/SD_RTC_functions.c **** *********************************************************************************/
 346:..\src/SD_RTC_functions.c **** void Get_SD_FS(char* info_data){
 1627              		.loc 1 346 0
 1628              		.cfi_startproc
 1629              		@ args = 0, pretend = 0, frame = 24720
 1630              		@ frame_needed = 1, uses_anonymous_args = 0
 1631 0000 B0B5     		push	{r4, r5, r7, lr}
 1632              		.cfi_def_cfa_offset 16
ARM GAS  C:\Users\Mattia\AppData\Local\Temp\ccPr8Am1.s 			page 36


 1633              		.cfi_offset 4, -16
 1634              		.cfi_offset 5, -12
 1635              		.cfi_offset 7, -8
 1636              		.cfi_offset 14, -4
 1637 0002 ADF5C14D 		sub	sp, sp, #24704
 1638              		.cfi_def_cfa_offset 24720
 1639 0006 88B0     		sub	sp, sp, #32
 1640              		.cfi_def_cfa_offset 24752
 1641 0008 04AF     		add	r7, sp, #16
 1642              		.cfi_def_cfa 7, 24736
 1643 000a 07F11003 		add	r3, r7, #16
 1644 000e 0C3B     		subs	r3, r3, #12
 1645 0010 1860     		str	r0, [r3]
 347:..\src/SD_RTC_functions.c ****         
 348:..\src/SD_RTC_functions.c ****     // Called with PING command
 349:..\src/SD_RTC_functions.c ****     // Get all the folders with path and contained files number in the CSV-like format
 350:..\src/SD_RTC_functions.c ****     // and send to API through info_data string
 351:..\src/SD_RTC_functions.c ****     // USER\YYYY\MM\DD, number_of_files
 352:..\src/SD_RTC_functions.c ****     
 353:..\src/SD_RTC_functions.c ****     
 354:..\src/SD_RTC_functions.c ****     strcpy(info_data, "");
 1646              		.loc 1 354 0
 1647 0012 07F11003 		add	r3, r7, #16
 1648 0016 0C3B     		subs	r3, r3, #12
 1649 0018 1B68     		ldr	r3, [r3]
 1650 001a 0022     		movs	r2, #0
 1651 001c 1A70     		strb	r2, [r3]
 355:..\src/SD_RTC_functions.c ****     
 356:..\src/SD_RTC_functions.c ****     // Get users folders   
 357:..\src/SD_RTC_functions.c ****     int num_found_users = 0;
 1652              		.loc 1 357 0
 1653 001e 0023     		movs	r3, #0
 1654 0020 07F5C042 		add	r2, r7, #24576
 1655 0024 02F16C02 		add	r2, r2, #108
 1656 0028 1360     		str	r3, [r2]
 358:..\src/SD_RTC_functions.c ****     char CYDATA found_users[20][8];         // Max. 20 users (each with 8 max. characters)
 359:..\src/SD_RTC_functions.c ****     char CYDATA folder_tree_data[3000][8];  //3000 days (>8 yrs) of everyday folders for each users
 360:..\src/SD_RTC_functions.c ****     memset(&found_users, 0, 20*8);
 1657              		.loc 1 360 0
 1658 002a 07F5BF43 		add	r3, r7, #24448
 1659 002e 03F14003 		add	r3, r3, #64
 1660 0032 A022     		movs	r2, #160
 1661 0034 0021     		movs	r1, #0
 1662 0036 1846     		mov	r0, r3
 1663 0038 FFF7FEFF 		bl	memset
 361:..\src/SD_RTC_functions.c ****     memset(&folder_tree_data, 0, 3000*8);
 1664              		.loc 1 361 0
 1665 003c 07F50473 		add	r3, r7, #528
 1666 0040 103B     		subs	r3, r3, #16
 1667 0042 45F6C052 		movw	r2, #24000
 1668 0046 0021     		movs	r1, #0
 1669 0048 1846     		mov	r0, r3
 1670 004a FFF7FEFF 		bl	memset
 362:..\src/SD_RTC_functions.c ****    
 363:..\src/SD_RTC_functions.c ****     num_found_users = Get_DirectoriesList("\\", folder_tree_data, 0);
 1671              		.loc 1 363 0
 1672 004e 07F50473 		add	r3, r7, #528
ARM GAS  C:\Users\Mattia\AppData\Local\Temp\ccPr8Am1.s 			page 37


 1673 0052 103B     		subs	r3, r3, #16
 1674 0054 0022     		movs	r2, #0
 1675 0056 1946     		mov	r1, r3
 1676 0058 B348     		ldr	r0, .L64
 1677 005a FFF7FEFF 		bl	Get_DirectoriesList
 1678 005e 07F5C043 		add	r3, r7, #24576
 1679 0062 03F16C03 		add	r3, r3, #108
 1680 0066 1860     		str	r0, [r3]
 1681              	.LBB3:
 364:..\src/SD_RTC_functions.c ****     for (int i=0; i< num_found_users; i++){ // Copy user folders and free the tree structure
 1682              		.loc 1 364 0
 1683 0068 0023     		movs	r3, #0
 1684 006a 07F5C142 		add	r2, r7, #24704
 1685 006e 02F10C02 		add	r2, r2, #12
 1686 0072 1360     		str	r3, [r2]
 1687 0074 22E0     		b	.L54
 1688              	.L55:
 365:..\src/SD_RTC_functions.c ****         strcpy(found_users[i], folder_tree_data[i]);
 1689              		.loc 1 365 0 discriminator 3
 1690 0076 07F5BF42 		add	r2, r7, #24448
 1691 007a 02F14002 		add	r2, r2, #64
 1692 007e 07F5C143 		add	r3, r7, #24704
 1693 0082 03F10C03 		add	r3, r3, #12
 1694 0086 1B68     		ldr	r3, [r3]
 1695 0088 DB00     		lsls	r3, r3, #3
 1696 008a D018     		adds	r0, r2, r3
 1697 008c 07F50473 		add	r3, r7, #528
 1698 0090 103B     		subs	r3, r3, #16
 1699 0092 07F5C142 		add	r2, r7, #24704
 1700 0096 02F10C02 		add	r2, r2, #12
 1701 009a 1268     		ldr	r2, [r2]
 1702 009c D200     		lsls	r2, r2, #3
 1703 009e 1344     		add	r3, r3, r2
 1704 00a0 1946     		mov	r1, r3
 1705 00a2 FFF7FEFF 		bl	strcpy
 364:..\src/SD_RTC_functions.c ****     for (int i=0; i< num_found_users; i++){ // Copy user folders and free the tree structure
 1706              		.loc 1 364 0 discriminator 3
 1707 00a6 07F5C143 		add	r3, r7, #24704
 1708 00aa 03F10C03 		add	r3, r3, #12
 1709 00ae 1B68     		ldr	r3, [r3]
 1710 00b0 0133     		adds	r3, r3, #1
 1711 00b2 07F5C142 		add	r2, r7, #24704
 1712 00b6 02F10C02 		add	r2, r2, #12
 1713 00ba 1360     		str	r3, [r2]
 1714              	.L54:
 364:..\src/SD_RTC_functions.c ****     for (int i=0; i< num_found_users; i++){ // Copy user folders and free the tree structure
 1715              		.loc 1 364 0 is_stmt 0 discriminator 1
 1716 00bc 07F5C143 		add	r3, r7, #24704
 1717 00c0 03F10C03 		add	r3, r3, #12
 1718 00c4 1A68     		ldr	r2, [r3]
 1719 00c6 07F5C043 		add	r3, r7, #24576
 1720 00ca 03F16C03 		add	r3, r3, #108
 1721 00ce 1B68     		ldr	r3, [r3]
 1722 00d0 9A42     		cmp	r2, r3
 1723 00d2 D0DB     		blt	.L55
 1724              	.LBE3:
 366:..\src/SD_RTC_functions.c ****     }
ARM GAS  C:\Users\Mattia\AppData\Local\Temp\ccPr8Am1.s 			page 38


 367:..\src/SD_RTC_functions.c ****     memset(&folder_tree_data, 0, 3000*8);
 1725              		.loc 1 367 0 is_stmt 1
 1726 00d4 07F50473 		add	r3, r7, #528
 1727 00d8 103B     		subs	r3, r3, #16
 1728 00da 45F6C052 		movw	r2, #24000
 1729 00de 0021     		movs	r1, #0
 1730 00e0 1846     		mov	r0, r3
 1731 00e2 FFF7FEFF 		bl	memset
 368:..\src/SD_RTC_functions.c ****     
 369:..\src/SD_RTC_functions.c ****     int n_idx = 0;
 1732              		.loc 1 369 0
 1733 00e6 0023     		movs	r3, #0
 1734 00e8 07F5C142 		add	r2, r7, #24704
 1735 00ec 02F10802 		add	r2, r2, #8
 1736 00f0 1360     		str	r3, [r2]
 1737              	.LBB4:
 370:..\src/SD_RTC_functions.c ****     for (int i=0; i< num_found_users; i++){
 1738              		.loc 1 370 0
 1739 00f2 0023     		movs	r3, #0
 1740 00f4 07F5C142 		add	r2, r7, #24704
 1741 00f8 02F10402 		add	r2, r2, #4
 1742 00fc 1360     		str	r3, [r2]
 1743 00fe 56E2     		b	.L56
 1744              	.L63:
 1745              	.LBB5:
 371:..\src/SD_RTC_functions.c ****         char y_path[100] = "\\";
 1746              		.loc 1 371 0
 1747 0100 07F11003 		add	r3, r7, #16
 1748 0104 043B     		subs	r3, r3, #4
 1749 0106 5C22     		movs	r2, #92
 1750 0108 1A60     		str	r2, [r3]
 1751 010a 0433     		adds	r3, r3, #4
 1752 010c 6022     		movs	r2, #96
 1753 010e 0021     		movs	r1, #0
 1754 0110 1846     		mov	r0, r3
 1755 0112 FFF7FEFF 		bl	memset
 372:..\src/SD_RTC_functions.c ****         strcat(y_path, found_users[i]);
 1756              		.loc 1 372 0
 1757 0116 07F5BF42 		add	r2, r7, #24448
 1758 011a 02F14002 		add	r2, r2, #64
 1759 011e 07F5C143 		add	r3, r7, #24704
 1760 0122 03F10403 		add	r3, r3, #4
 1761 0126 1B68     		ldr	r3, [r3]
 1762 0128 DB00     		lsls	r3, r3, #3
 1763 012a 1A44     		add	r2, r2, r3
 1764 012c 07F11003 		add	r3, r7, #16
 1765 0130 043B     		subs	r3, r3, #4
 1766 0132 1146     		mov	r1, r2
 1767 0134 1846     		mov	r0, r3
 1768 0136 FFF7FEFF 		bl	strcat
 373:..\src/SD_RTC_functions.c ****         strcat(y_path, "\\");
 1769              		.loc 1 373 0
 1770 013a 07F11003 		add	r3, r7, #16
 1771 013e 043B     		subs	r3, r3, #4
 1772 0140 1846     		mov	r0, r3
 1773 0142 FFF7FEFF 		bl	strlen
 1774 0146 0346     		mov	r3, r0
ARM GAS  C:\Users\Mattia\AppData\Local\Temp\ccPr8Am1.s 			page 39


 1775 0148 1A46     		mov	r2, r3
 1776 014a 07F11003 		add	r3, r7, #16
 1777 014e 043B     		subs	r3, r3, #4
 1778 0150 1344     		add	r3, r3, r2
 1779 0152 7549     		ldr	r1, .L64
 1780 0154 1A46     		mov	r2, r3
 1781 0156 0B46     		mov	r3, r1
 1782 0158 1B88     		ldrh	r3, [r3]	@ unaligned
 1783 015a 1380     		strh	r3, [r2]	@ unaligned
 374:..\src/SD_RTC_functions.c ****         
 375:..\src/SD_RTC_functions.c ****         int nyears = Get_DirectoriesList(y_path, folder_tree_data, n_idx);
 1784              		.loc 1 375 0
 1785 015c 07F50471 		add	r1, r7, #528
 1786 0160 1039     		subs	r1, r1, #16
 1787 0162 07F11003 		add	r3, r7, #16
 1788 0166 043B     		subs	r3, r3, #4
 1789 0168 07F5C142 		add	r2, r7, #24704
 1790 016c 02F10802 		add	r2, r2, #8
 1791 0170 1268     		ldr	r2, [r2]
 1792 0172 1846     		mov	r0, r3
 1793 0174 FFF7FEFF 		bl	Get_DirectoriesList
 1794 0178 07F5C043 		add	r3, r7, #24576
 1795 017c 03F16803 		add	r3, r3, #104
 1796 0180 1860     		str	r0, [r3]
 376:..\src/SD_RTC_functions.c ****         int nmonths = 0, ndays = 0;
 1797              		.loc 1 376 0
 1798 0182 0023     		movs	r3, #0
 1799 0184 07F5C142 		add	r2, r7, #24704
 1800 0188 1360     		str	r3, [r2]
 1801 018a 0023     		movs	r3, #0
 1802 018c 07F5C042 		add	r2, r7, #24576
 1803 0190 02F17C02 		add	r2, r2, #124
 1804 0194 1360     		str	r3, [r2]
 1805              	.LBB6:
 377:..\src/SD_RTC_functions.c ****         for (int j=0; j< nyears; j++){
 1806              		.loc 1 377 0
 1807 0196 0023     		movs	r3, #0
 1808 0198 07F5C042 		add	r2, r7, #24576
 1809 019c 02F17802 		add	r2, r2, #120
 1810 01a0 1360     		str	r3, [r2]
 1811 01a2 D2E1     		b	.L57
 1812              	.L62:
 1813              	.LBB7:
 378:..\src/SD_RTC_functions.c ****             char m_path[100] = "\\";
 1814              		.loc 1 378 0
 1815 01a4 07F19003 		add	r3, r7, #144
 1816 01a8 203B     		subs	r3, r3, #32
 1817 01aa 5C22     		movs	r2, #92
 1818 01ac 1A60     		str	r2, [r3]
 1819 01ae 0433     		adds	r3, r3, #4
 1820 01b0 6022     		movs	r2, #96
 1821 01b2 0021     		movs	r1, #0
 1822 01b4 1846     		mov	r0, r3
 1823 01b6 FFF7FEFF 		bl	memset
 379:..\src/SD_RTC_functions.c ****             strcpy(m_path, y_path);
 1824              		.loc 1 379 0
 1825 01ba 07F11002 		add	r2, r7, #16
ARM GAS  C:\Users\Mattia\AppData\Local\Temp\ccPr8Am1.s 			page 40


 1826 01be 043A     		subs	r2, r2, #4
 1827 01c0 07F19003 		add	r3, r7, #144
 1828 01c4 203B     		subs	r3, r3, #32
 1829 01c6 1146     		mov	r1, r2
 1830 01c8 1846     		mov	r0, r3
 1831 01ca FFF7FEFF 		bl	strcpy
 380:..\src/SD_RTC_functions.c ****             strcat(m_path, folder_tree_data[n_idx + j]);
 1832              		.loc 1 380 0
 1833 01ce 07F5C143 		add	r3, r7, #24704
 1834 01d2 03F10803 		add	r3, r3, #8
 1835 01d6 1A68     		ldr	r2, [r3]
 1836 01d8 07F5C043 		add	r3, r7, #24576
 1837 01dc 03F17803 		add	r3, r3, #120
 1838 01e0 1B68     		ldr	r3, [r3]
 1839 01e2 1A44     		add	r2, r2, r3
 1840 01e4 07F50473 		add	r3, r7, #528
 1841 01e8 103B     		subs	r3, r3, #16
 1842 01ea D200     		lsls	r2, r2, #3
 1843 01ec 1A44     		add	r2, r2, r3
 1844 01ee 07F19003 		add	r3, r7, #144
 1845 01f2 203B     		subs	r3, r3, #32
 1846 01f4 1146     		mov	r1, r2
 1847 01f6 1846     		mov	r0, r3
 1848 01f8 FFF7FEFF 		bl	strcat
 381:..\src/SD_RTC_functions.c ****             strcat(m_path, "\\");
 1849              		.loc 1 381 0
 1850 01fc 07F19003 		add	r3, r7, #144
 1851 0200 203B     		subs	r3, r3, #32
 1852 0202 1846     		mov	r0, r3
 1853 0204 FFF7FEFF 		bl	strlen
 1854 0208 0346     		mov	r3, r0
 1855 020a 1A46     		mov	r2, r3
 1856 020c 07F19003 		add	r3, r7, #144
 1857 0210 203B     		subs	r3, r3, #32
 1858 0212 1344     		add	r3, r3, r2
 1859 0214 4449     		ldr	r1, .L64
 1860 0216 1A46     		mov	r2, r3
 1861 0218 0B46     		mov	r3, r1
 1862 021a 1B88     		ldrh	r3, [r3]	@ unaligned
 1863 021c 1380     		strh	r3, [r2]	@ unaligned
 382:..\src/SD_RTC_functions.c ****             nmonths = Get_DirectoriesList(m_path, folder_tree_data, n_idx + nyears);
 1864              		.loc 1 382 0
 1865 021e 07F5C143 		add	r3, r7, #24704
 1866 0222 03F10803 		add	r3, r3, #8
 1867 0226 1A68     		ldr	r2, [r3]
 1868 0228 07F5C043 		add	r3, r7, #24576
 1869 022c 03F16803 		add	r3, r3, #104
 1870 0230 1B68     		ldr	r3, [r3]
 1871 0232 1A44     		add	r2, r2, r3
 1872 0234 07F50471 		add	r1, r7, #528
 1873 0238 1039     		subs	r1, r1, #16
 1874 023a 07F19003 		add	r3, r7, #144
 1875 023e 203B     		subs	r3, r3, #32
 1876 0240 1846     		mov	r0, r3
 1877 0242 FFF7FEFF 		bl	Get_DirectoriesList
 1878 0246 07F5C143 		add	r3, r7, #24704
 1879 024a 1860     		str	r0, [r3]
ARM GAS  C:\Users\Mattia\AppData\Local\Temp\ccPr8Am1.s 			page 41


 1880              	.LBB8:
 383:..\src/SD_RTC_functions.c ****             for (int k=0; k< nmonths; k++){
 1881              		.loc 1 383 0
 1882 024c 0023     		movs	r3, #0
 1883 024e 07F5C042 		add	r2, r7, #24576
 1884 0252 02F17402 		add	r2, r2, #116
 1885 0256 1360     		str	r3, [r2]
 1886 0258 61E1     		b	.L58
 1887              	.L61:
 1888              	.LBB9:
 384:..\src/SD_RTC_functions.c ****                 char d_path[100] = "\\";
 1889              		.loc 1 384 0
 1890 025a 07F58873 		add	r3, r7, #272
 1891 025e 3C3B     		subs	r3, r3, #60
 1892 0260 5C22     		movs	r2, #92
 1893 0262 1A60     		str	r2, [r3]
 1894 0264 0433     		adds	r3, r3, #4
 1895 0266 6022     		movs	r2, #96
 1896 0268 0021     		movs	r1, #0
 1897 026a 1846     		mov	r0, r3
 1898 026c FFF7FEFF 		bl	memset
 385:..\src/SD_RTC_functions.c ****                 strcpy(d_path, m_path);
 1899              		.loc 1 385 0
 1900 0270 07F19002 		add	r2, r7, #144
 1901 0274 203A     		subs	r2, r2, #32
 1902 0276 07F58873 		add	r3, r7, #272
 1903 027a 3C3B     		subs	r3, r3, #60
 1904 027c 1146     		mov	r1, r2
 1905 027e 1846     		mov	r0, r3
 1906 0280 FFF7FEFF 		bl	strcpy
 386:..\src/SD_RTC_functions.c ****                 strcat(d_path, folder_tree_data[n_idx + nyears + k]);
 1907              		.loc 1 386 0
 1908 0284 07F5C143 		add	r3, r7, #24704
 1909 0288 03F10803 		add	r3, r3, #8
 1910 028c 1A68     		ldr	r2, [r3]
 1911 028e 07F5C043 		add	r3, r7, #24576
 1912 0292 03F16803 		add	r3, r3, #104
 1913 0296 1B68     		ldr	r3, [r3]
 1914 0298 1A44     		add	r2, r2, r3
 1915 029a 07F5C043 		add	r3, r7, #24576
 1916 029e 03F17403 		add	r3, r3, #116
 1917 02a2 1B68     		ldr	r3, [r3]
 1918 02a4 1A44     		add	r2, r2, r3
 1919 02a6 07F50473 		add	r3, r7, #528
 1920 02aa 103B     		subs	r3, r3, #16
 1921 02ac D200     		lsls	r2, r2, #3
 1922 02ae 1A44     		add	r2, r2, r3
 1923 02b0 07F58873 		add	r3, r7, #272
 1924 02b4 3C3B     		subs	r3, r3, #60
 1925 02b6 1146     		mov	r1, r2
 1926 02b8 1846     		mov	r0, r3
 1927 02ba FFF7FEFF 		bl	strcat
 387:..\src/SD_RTC_functions.c ****                 strcat(d_path, "\\");
 1928              		.loc 1 387 0
 1929 02be 07F58873 		add	r3, r7, #272
 1930 02c2 3C3B     		subs	r3, r3, #60
 1931 02c4 1846     		mov	r0, r3
ARM GAS  C:\Users\Mattia\AppData\Local\Temp\ccPr8Am1.s 			page 42


 1932 02c6 FFF7FEFF 		bl	strlen
 1933 02ca 0346     		mov	r3, r0
 1934 02cc 1A46     		mov	r2, r3
 1935 02ce 07F58873 		add	r3, r7, #272
 1936 02d2 3C3B     		subs	r3, r3, #60
 1937 02d4 1344     		add	r3, r3, r2
 1938 02d6 1449     		ldr	r1, .L64
 1939 02d8 1A46     		mov	r2, r3
 1940 02da 0B46     		mov	r3, r1
 1941 02dc 1B88     		ldrh	r3, [r3]	@ unaligned
 1942 02de 1380     		strh	r3, [r2]	@ unaligned
 388:..\src/SD_RTC_functions.c ****                 ndays = Get_DirectoriesList(d_path, folder_tree_data, n_idx + nyears + nmonths);
 1943              		.loc 1 388 0
 1944 02e0 07F5C143 		add	r3, r7, #24704
 1945 02e4 03F10803 		add	r3, r3, #8
 1946 02e8 1A68     		ldr	r2, [r3]
 1947 02ea 07F5C043 		add	r3, r7, #24576
 1948 02ee 03F16803 		add	r3, r3, #104
 1949 02f2 1B68     		ldr	r3, [r3]
 1950 02f4 1A44     		add	r2, r2, r3
 1951 02f6 07F5C143 		add	r3, r7, #24704
 1952 02fa 1B68     		ldr	r3, [r3]
 1953 02fc 1A44     		add	r2, r2, r3
 1954 02fe 07F50471 		add	r1, r7, #528
 1955 0302 1039     		subs	r1, r1, #16
 1956 0304 07F58873 		add	r3, r7, #272
 1957 0308 3C3B     		subs	r3, r3, #60
 1958 030a 1846     		mov	r0, r3
 1959 030c FFF7FEFF 		bl	Get_DirectoriesList
 1960 0310 07F5C043 		add	r3, r7, #24576
 1961 0314 03F17C03 		add	r3, r3, #124
 1962 0318 1860     		str	r0, [r3]
 1963              	.LBB10:
 389:..\src/SD_RTC_functions.c ****                 for (int h=0; h< ndays; h++){
 1964              		.loc 1 389 0
 1965 031a 0023     		movs	r3, #0
 1966 031c 07F5C042 		add	r2, r7, #24576
 1967 0320 02F17002 		add	r2, r2, #112
 1968 0324 1360     		str	r3, [r2]
 1969 0326 E2E0     		b	.L59
 1970              	.L65:
 1971              		.align	2
 1972              	.L64:
 1973 0328 48000000 		.word	.LC9
 1974              	.L60:
 1975              	.LBB11:
 390:..\src/SD_RTC_functions.c ****                     
 391:..\src/SD_RTC_functions.c ****                     char f_path[100] = "\\";
 1976              		.loc 1 391 0 discriminator 3
 1977 032c 07F5C873 		add	r3, r7, #400
 1978 0330 583B     		subs	r3, r3, #88
 1979 0332 5C22     		movs	r2, #92
 1980 0334 1A60     		str	r2, [r3]
 1981 0336 0433     		adds	r3, r3, #4
 1982 0338 6022     		movs	r2, #96
 1983 033a 0021     		movs	r1, #0
 1984 033c 1846     		mov	r0, r3
ARM GAS  C:\Users\Mattia\AppData\Local\Temp\ccPr8Am1.s 			page 43


 1985 033e FFF7FEFF 		bl	memset
 392:..\src/SD_RTC_functions.c ****                     strcpy(f_path, d_path);
 1986              		.loc 1 392 0 discriminator 3
 1987 0342 07F58872 		add	r2, r7, #272
 1988 0346 3C3A     		subs	r2, r2, #60
 1989 0348 07F5C873 		add	r3, r7, #400
 1990 034c 583B     		subs	r3, r3, #88
 1991 034e 1146     		mov	r1, r2
 1992 0350 1846     		mov	r0, r3
 1993 0352 FFF7FEFF 		bl	strcpy
 393:..\src/SD_RTC_functions.c ****                     strcat(f_path, folder_tree_data[n_idx + nyears + nmonths + h]);
 1994              		.loc 1 393 0 discriminator 3
 1995 0356 07F5C143 		add	r3, r7, #24704
 1996 035a 03F10803 		add	r3, r3, #8
 1997 035e 1A68     		ldr	r2, [r3]
 1998 0360 07F5C043 		add	r3, r7, #24576
 1999 0364 03F16803 		add	r3, r3, #104
 2000 0368 1B68     		ldr	r3, [r3]
 2001 036a 1A44     		add	r2, r2, r3
 2002 036c 07F5C143 		add	r3, r7, #24704
 2003 0370 1B68     		ldr	r3, [r3]
 2004 0372 1A44     		add	r2, r2, r3
 2005 0374 07F5C043 		add	r3, r7, #24576
 2006 0378 03F17003 		add	r3, r3, #112
 2007 037c 1B68     		ldr	r3, [r3]
 2008 037e 1A44     		add	r2, r2, r3
 2009 0380 07F50473 		add	r3, r7, #528
 2010 0384 103B     		subs	r3, r3, #16
 2011 0386 D200     		lsls	r2, r2, #3
 2012 0388 1A44     		add	r2, r2, r3
 2013 038a 07F5C873 		add	r3, r7, #400
 2014 038e 583B     		subs	r3, r3, #88
 2015 0390 1146     		mov	r1, r2
 2016 0392 1846     		mov	r0, r3
 2017 0394 FFF7FEFF 		bl	strcat
 394:..\src/SD_RTC_functions.c ****                     strcat(f_path, "\\");
 2018              		.loc 1 394 0 discriminator 3
 2019 0398 07F5C873 		add	r3, r7, #400
 2020 039c 583B     		subs	r3, r3, #88
 2021 039e 1846     		mov	r0, r3
 2022 03a0 FFF7FEFF 		bl	strlen
 2023 03a4 0346     		mov	r3, r0
 2024 03a6 1A46     		mov	r2, r3
 2025 03a8 07F5C873 		add	r3, r7, #400
 2026 03ac 583B     		subs	r3, r3, #88
 2027 03ae 1344     		add	r3, r3, r2
 2028 03b0 8849     		ldr	r1, .L66
 2029 03b2 1A46     		mov	r2, r3
 2030 03b4 0B46     		mov	r3, r1
 2031 03b6 1B88     		ldrh	r3, [r3]	@ unaligned
 2032 03b8 1380     		strh	r3, [r2]	@ unaligned
 395:..\src/SD_RTC_functions.c ****                     
 396:..\src/SD_RTC_functions.c ****                     // A directory with data files cannot be empty
 397:..\src/SD_RTC_functions.c ****                     FS_DIR* pDir = FS_OpenDir(f_path);
 2033              		.loc 1 397 0 discriminator 3
 2034 03ba 07F5C873 		add	r3, r7, #400
 2035 03be 583B     		subs	r3, r3, #88
ARM GAS  C:\Users\Mattia\AppData\Local\Temp\ccPr8Am1.s 			page 44


 2036 03c0 1846     		mov	r0, r3
 2037 03c2 FFF7FEFF 		bl	FS_OpenDir
 2038 03c6 07F5C043 		add	r3, r7, #24576
 2039 03ca 03F16403 		add	r3, r3, #100
 2040 03ce 1860     		str	r0, [r3]
 398:..\src/SD_RTC_functions.c ****                     int nfiles = FS_GetNumFiles(pDir);
 2041              		.loc 1 398 0 discriminator 3
 2042 03d0 07F5C043 		add	r3, r7, #24576
 2043 03d4 03F16403 		add	r3, r3, #100
 2044 03d8 1868     		ldr	r0, [r3]
 2045 03da FFF7FEFF 		bl	FS_GetNumFiles
 2046 03de 0346     		mov	r3, r0
 2047 03e0 07F5C042 		add	r2, r7, #24576
 2048 03e4 02F16002 		add	r2, r2, #96
 2049 03e8 1360     		str	r3, [r2]
 399:..\src/SD_RTC_functions.c ****                     FS_CloseDir(pDir);
 2050              		.loc 1 399 0 discriminator 3
 2051 03ea 07F5C043 		add	r3, r7, #24576
 2052 03ee 03F16403 		add	r3, r3, #100
 2053 03f2 1868     		ldr	r0, [r3]
 2054 03f4 FFF7FEFF 		bl	FS_CloseDir
 400:..\src/SD_RTC_functions.c ****                               
 401:..\src/SD_RTC_functions.c ****                     char str[100] = "";
 2055              		.loc 1 401 0 discriminator 3
 2056 03f8 07F50473 		add	r3, r7, #528
 2057 03fc 743B     		subs	r3, r3, #116
 2058 03fe 0022     		movs	r2, #0
 2059 0400 1A60     		str	r2, [r3]
 2060 0402 0433     		adds	r3, r3, #4
 2061 0404 6022     		movs	r2, #96
 2062 0406 0021     		movs	r1, #0
 2063 0408 1846     		mov	r0, r3
 2064 040a FFF7FEFF 		bl	memset
 402:..\src/SD_RTC_functions.c ****                     sprintf(str, "\\%s\\%s\\%s\\%s,%d\r\n", found_users[i], folder_tree_data[n_idx+
 2065              		.loc 1 402 0 discriminator 3
 2066 040e 07F5BF42 		add	r2, r7, #24448
 2067 0412 02F14002 		add	r2, r2, #64
 2068 0416 07F5C143 		add	r3, r7, #24704
 2069 041a 03F10403 		add	r3, r3, #4
 2070 041e 1B68     		ldr	r3, [r3]
 2071 0420 DB00     		lsls	r3, r3, #3
 2072 0422 D418     		adds	r4, r2, r3
 2073 0424 07F5C143 		add	r3, r7, #24704
 2074 0428 03F10803 		add	r3, r3, #8
 2075 042c 1A68     		ldr	r2, [r3]
 2076 042e 07F5C043 		add	r3, r7, #24576
 2077 0432 03F17803 		add	r3, r3, #120
 2078 0436 1B68     		ldr	r3, [r3]
 2079 0438 1A44     		add	r2, r2, r3
 2080 043a 07F50473 		add	r3, r7, #528
 2081 043e 103B     		subs	r3, r3, #16
 2082 0440 D200     		lsls	r2, r2, #3
 2083 0442 9D18     		adds	r5, r3, r2
 403:..\src/SD_RTC_functions.c ****                             folder_tree_data[n_idx+nyears+k], folder_tree_data[n_idx+nyears+nmonths
 2084              		.loc 1 403 0 discriminator 3
 2085 0444 07F5C143 		add	r3, r7, #24704
 2086 0448 03F10803 		add	r3, r3, #8
ARM GAS  C:\Users\Mattia\AppData\Local\Temp\ccPr8Am1.s 			page 45


 2087 044c 1A68     		ldr	r2, [r3]
 2088 044e 07F5C043 		add	r3, r7, #24576
 2089 0452 03F16803 		add	r3, r3, #104
 2090 0456 1B68     		ldr	r3, [r3]
 2091 0458 1A44     		add	r2, r2, r3
 2092 045a 07F5C043 		add	r3, r7, #24576
 2093 045e 03F17403 		add	r3, r3, #116
 2094 0462 1B68     		ldr	r3, [r3]
 2095 0464 1A44     		add	r2, r2, r3
 2096 0466 07F50473 		add	r3, r7, #528
 2097 046a 103B     		subs	r3, r3, #16
 2098 046c D200     		lsls	r2, r2, #3
 2099 046e 1A44     		add	r2, r2, r3
 2100 0470 07F5C143 		add	r3, r7, #24704
 2101 0474 03F10803 		add	r3, r3, #8
 2102 0478 1968     		ldr	r1, [r3]
 2103 047a 07F5C043 		add	r3, r7, #24576
 2104 047e 03F16803 		add	r3, r3, #104
 2105 0482 1B68     		ldr	r3, [r3]
 2106 0484 1944     		add	r1, r1, r3
 2107 0486 07F5C143 		add	r3, r7, #24704
 2108 048a 1B68     		ldr	r3, [r3]
 2109 048c 1944     		add	r1, r1, r3
 2110 048e 07F5C043 		add	r3, r7, #24576
 2111 0492 03F17003 		add	r3, r3, #112
 2112 0496 1B68     		ldr	r3, [r3]
 2113 0498 1944     		add	r1, r1, r3
 2114 049a 07F50473 		add	r3, r7, #528
 2115 049e 103B     		subs	r3, r3, #16
 2116 04a0 C900     		lsls	r1, r1, #3
 2117 04a2 0B44     		add	r3, r3, r1
 402:..\src/SD_RTC_functions.c ****                     sprintf(str, "\\%s\\%s\\%s\\%s,%d\r\n", found_users[i], folder_tree_data[n_idx+
 2118              		.loc 1 402 0 discriminator 3
 2119 04a4 07F50470 		add	r0, r7, #528
 2120 04a8 7438     		subs	r0, r0, #116
 2121 04aa 07F5C041 		add	r1, r7, #24576
 2122 04ae 01F16001 		add	r1, r1, #96
 2123 04b2 0968     		ldr	r1, [r1]
 2124 04b4 0291     		str	r1, [sp, #8]
 2125 04b6 0193     		str	r3, [sp, #4]
 2126 04b8 0092     		str	r2, [sp]
 2127 04ba 2B46     		mov	r3, r5
 2128 04bc 2246     		mov	r2, r4
 2129 04be 4649     		ldr	r1, .L66+4
 2130 04c0 FFF7FEFF 		bl	sprintf
 404:..\src/SD_RTC_functions.c ****                     strcat(info_data, str);
 2131              		.loc 1 404 0 discriminator 3
 2132 04c4 07F50472 		add	r2, r7, #528
 2133 04c8 743A     		subs	r2, r2, #116
 2134 04ca 07F11003 		add	r3, r7, #16
 2135 04ce 0C3B     		subs	r3, r3, #12
 2136 04d0 1146     		mov	r1, r2
 2137 04d2 1868     		ldr	r0, [r3]
 2138 04d4 FFF7FEFF 		bl	strcat
 2139              	.LBE11:
 389:..\src/SD_RTC_functions.c ****                     
 2140              		.loc 1 389 0 discriminator 3
ARM GAS  C:\Users\Mattia\AppData\Local\Temp\ccPr8Am1.s 			page 46


 2141 04d8 07F5C043 		add	r3, r7, #24576
 2142 04dc 03F17003 		add	r3, r3, #112
 2143 04e0 1B68     		ldr	r3, [r3]
 2144 04e2 0133     		adds	r3, r3, #1
 2145 04e4 07F5C042 		add	r2, r7, #24576
 2146 04e8 02F17002 		add	r2, r2, #112
 2147 04ec 1360     		str	r3, [r2]
 2148              	.L59:
 389:..\src/SD_RTC_functions.c ****                     
 2149              		.loc 1 389 0 is_stmt 0 discriminator 1
 2150 04ee 07F5C043 		add	r3, r7, #24576
 2151 04f2 03F17003 		add	r3, r3, #112
 2152 04f6 1A68     		ldr	r2, [r3]
 2153 04f8 07F5C043 		add	r3, r7, #24576
 2154 04fc 03F17C03 		add	r3, r3, #124
 2155 0500 1B68     		ldr	r3, [r3]
 2156 0502 9A42     		cmp	r2, r3
 2157 0504 FFF612AF 		blt	.L60
 2158              	.LBE10:
 2159              	.LBE9:
 383:..\src/SD_RTC_functions.c ****                 char d_path[100] = "\\";
 2160              		.loc 1 383 0 is_stmt 1 discriminator 2
 2161 0508 07F5C043 		add	r3, r7, #24576
 2162 050c 03F17403 		add	r3, r3, #116
 2163 0510 1B68     		ldr	r3, [r3]
 2164 0512 0133     		adds	r3, r3, #1
 2165 0514 07F5C042 		add	r2, r7, #24576
 2166 0518 02F17402 		add	r2, r2, #116
 2167 051c 1360     		str	r3, [r2]
 2168              	.L58:
 383:..\src/SD_RTC_functions.c ****                 char d_path[100] = "\\";
 2169              		.loc 1 383 0 is_stmt 0 discriminator 1
 2170 051e 07F5C043 		add	r3, r7, #24576
 2171 0522 03F17403 		add	r3, r3, #116
 2172 0526 1A68     		ldr	r2, [r3]
 2173 0528 07F5C143 		add	r3, r7, #24704
 2174 052c 1B68     		ldr	r3, [r3]
 2175 052e 9A42     		cmp	r2, r3
 2176 0530 FFF693AE 		blt	.L61
 2177              	.LBE8:
 2178              	.LBE7:
 377:..\src/SD_RTC_functions.c ****             char m_path[100] = "\\";
 2179              		.loc 1 377 0 is_stmt 1 discriminator 2
 2180 0534 07F5C043 		add	r3, r7, #24576
 2181 0538 03F17803 		add	r3, r3, #120
 2182 053c 1B68     		ldr	r3, [r3]
 2183 053e 0133     		adds	r3, r3, #1
 2184 0540 07F5C042 		add	r2, r7, #24576
 2185 0544 02F17802 		add	r2, r2, #120
 2186 0548 1360     		str	r3, [r2]
 2187              	.L57:
 377:..\src/SD_RTC_functions.c ****             char m_path[100] = "\\";
 2188              		.loc 1 377 0 is_stmt 0 discriminator 1
 2189 054a 07F5C043 		add	r3, r7, #24576
 2190 054e 03F17803 		add	r3, r3, #120
 2191 0552 1A68     		ldr	r2, [r3]
 2192 0554 07F5C043 		add	r3, r7, #24576
ARM GAS  C:\Users\Mattia\AppData\Local\Temp\ccPr8Am1.s 			page 47


 2193 0558 03F16803 		add	r3, r3, #104
 2194 055c 1B68     		ldr	r3, [r3]
 2195 055e 9A42     		cmp	r2, r3
 2196 0560 FFF620AE 		blt	.L62
 2197              	.LBE6:
 405:..\src/SD_RTC_functions.c ****                 }
 406:..\src/SD_RTC_functions.c ****             }
 407:..\src/SD_RTC_functions.c ****         }
 408:..\src/SD_RTC_functions.c ****         n_idx += nyears + nmonths + ndays;
 2198              		.loc 1 408 0 is_stmt 1 discriminator 2
 2199 0564 07F5C043 		add	r3, r7, #24576
 2200 0568 03F16803 		add	r3, r3, #104
 2201 056c 1A68     		ldr	r2, [r3]
 2202 056e 07F5C143 		add	r3, r7, #24704
 2203 0572 1B68     		ldr	r3, [r3]
 2204 0574 1A44     		add	r2, r2, r3
 2205 0576 07F5C043 		add	r3, r7, #24576
 2206 057a 03F17C03 		add	r3, r3, #124
 2207 057e 1B68     		ldr	r3, [r3]
 2208 0580 1344     		add	r3, r3, r2
 2209 0582 07F5C142 		add	r2, r7, #24704
 2210 0586 02F10802 		add	r2, r2, #8
 2211 058a 1268     		ldr	r2, [r2]
 2212 058c 1344     		add	r3, r3, r2
 2213 058e 07F5C142 		add	r2, r7, #24704
 2214 0592 02F10802 		add	r2, r2, #8
 2215 0596 1360     		str	r3, [r2]
 2216              	.LBE5:
 370:..\src/SD_RTC_functions.c ****         char y_path[100] = "\\";
 2217              		.loc 1 370 0 discriminator 2
 2218 0598 07F5C143 		add	r3, r7, #24704
 2219 059c 03F10403 		add	r3, r3, #4
 2220 05a0 1B68     		ldr	r3, [r3]
 2221 05a2 0133     		adds	r3, r3, #1
 2222 05a4 07F5C142 		add	r2, r7, #24704
 2223 05a8 02F10402 		add	r2, r2, #4
 2224 05ac 1360     		str	r3, [r2]
 2225              	.L56:
 370:..\src/SD_RTC_functions.c ****         char y_path[100] = "\\";
 2226              		.loc 1 370 0 is_stmt 0 discriminator 1
 2227 05ae 07F5C143 		add	r3, r7, #24704
 2228 05b2 03F10403 		add	r3, r3, #4
 2229 05b6 1A68     		ldr	r2, [r3]
 2230 05b8 07F5C043 		add	r3, r7, #24576
 2231 05bc 03F16C03 		add	r3, r3, #108
 2232 05c0 1B68     		ldr	r3, [r3]
 2233 05c2 9A42     		cmp	r2, r3
 2234 05c4 FFF69CAD 		blt	.L63
 2235              	.LBE4:
 409:..\src/SD_RTC_functions.c ****     }    
 410:..\src/SD_RTC_functions.c **** }...
 2236              		.loc 1 410 0 is_stmt 1
 2237 05c8 00BF     		nop
 2238 05ca 07F5C147 		add	r7, r7, #24704
 2239 05ce 1037     		adds	r7, r7, #16
 2240              		.cfi_def_cfa_offset 16
 2241 05d0 BD46     		mov	sp, r7
ARM GAS  C:\Users\Mattia\AppData\Local\Temp\ccPr8Am1.s 			page 48


 2242              		.cfi_def_cfa_register 13
 2243              		@ sp needed
 2244 05d2 B0BD     		pop	{r4, r5, r7, pc}
 2245              	.L67:
 2246              		.align	2
 2247              	.L66:
 2248 05d4 48000000 		.word	.LC9
 2249 05d8 54000000 		.word	.LC12
 2250              		.cfi_endproc
 2251              	.LFE77:
 2252              		.size	Get_SD_FS, .-Get_SD_FS
 2253              		.text
 2254              	.Letext0:
 2255              		.file 2 "c:\\program files (x86)\\cypress\\psoc creator\\4.4\\psoc creator\\import\\gnu\\arm\\5.4.
 2256              		.file 3 "c:\\program files (x86)\\cypress\\psoc creator\\4.4\\psoc creator\\import\\gnu\\arm\\5.4.
 2257              		.file 4 "Generated_Source\\PSoC5/cytypes.h"
 2258              		.file 5 "..\\src\\emFile_V322c\\Code\\Include\\PSoC5/FS_Types.h"
 2259              		.file 6 "..\\src\\emFile_V322c\\Code\\Include\\PSoC5/FS.h"
 2260              		.file 7 "..\\src\\globals.h"
 2261              		.file 8 "Generated_Source\\PSoC5/core_cm3.h"
 2262              		.section	.debug_info,"",%progbits
 2263              	.Ldebug_info0:
 2264 0000 83100000 		.4byte	0x1083
 2265 0004 0400     		.2byte	0x4
 2266 0006 00000000 		.4byte	.Ldebug_abbrev0
 2267 000a 04       		.byte	0x4
 2268 000b 01       		.uleb128 0x1
 2269 000c D3000000 		.4byte	.LASF202
 2270 0010 0C       		.byte	0xc
 2271 0011 65090000 		.4byte	.LASF203
 2272 0015 1E050000 		.4byte	.LASF204
 2273 0019 00000000 		.4byte	.Ldebug_ranges0+0
 2274 001d 00000000 		.4byte	0
 2275 0021 00000000 		.4byte	.Ldebug_line0
 2276 0025 02       		.uleb128 0x2
 2277 0026 01       		.byte	0x1
 2278 0027 06       		.byte	0x6
 2279 0028 0D020000 		.4byte	.LASF0
 2280 002c 02       		.uleb128 0x2
 2281 002d 01       		.byte	0x1
 2282 002e 08       		.byte	0x8
 2283 002f 05070000 		.4byte	.LASF1
 2284 0033 02       		.uleb128 0x2
 2285 0034 02       		.byte	0x2
 2286 0035 05       		.byte	0x5
 2287 0036 3F070000 		.4byte	.LASF2
 2288 003a 02       		.uleb128 0x2
 2289 003b 02       		.byte	0x2
 2290 003c 07       		.byte	0x7
 2291 003d 47040000 		.4byte	.LASF3
 2292 0041 03       		.uleb128 0x3
 2293 0042 EE040000 		.4byte	.LASF9
 2294 0046 02       		.byte	0x2
 2295 0047 3F       		.byte	0x3f
 2296 0048 4C000000 		.4byte	0x4c
 2297 004c 02       		.uleb128 0x2
 2298 004d 04       		.byte	0x4
ARM GAS  C:\Users\Mattia\AppData\Local\Temp\ccPr8Am1.s 			page 49


 2299 004e 05       		.byte	0x5
 2300 004f 32020000 		.4byte	.LASF4
 2301 0053 02       		.uleb128 0x2
 2302 0054 04       		.byte	0x4
 2303 0055 07       		.byte	0x7
 2304 0056 C4030000 		.4byte	.LASF5
 2305 005a 02       		.uleb128 0x2
 2306 005b 08       		.byte	0x8
 2307 005c 05       		.byte	0x5
 2308 005d FF010000 		.4byte	.LASF6
 2309 0061 02       		.uleb128 0x2
 2310 0062 08       		.byte	0x8
 2311 0063 07       		.byte	0x7
 2312 0064 66010000 		.4byte	.LASF7
 2313 0068 04       		.uleb128 0x4
 2314 0069 04       		.byte	0x4
 2315 006a 05       		.byte	0x5
 2316 006b 696E7400 		.ascii	"int\000"
 2317 006f 02       		.uleb128 0x2
 2318 0070 04       		.byte	0x4
 2319 0071 07       		.byte	0x7
 2320 0072 9D030000 		.4byte	.LASF8
 2321 0076 03       		.uleb128 0x3
 2322 0077 FD060000 		.4byte	.LASF10
 2323 007b 03       		.byte	0x3
 2324 007c 2C       		.byte	0x2c
 2325 007d 41000000 		.4byte	0x41
 2326 0081 05       		.uleb128 0x5
 2327 0082 6E020000 		.4byte	.LASF11
 2328 0086 04       		.byte	0x4
 2329 0087 E401     		.2byte	0x1e4
 2330 0089 2C000000 		.4byte	0x2c
 2331 008d 05       		.uleb128 0x5
 2332 008e 13070000 		.4byte	.LASF12
 2333 0092 04       		.byte	0x4
 2334 0093 E501     		.2byte	0x1e5
 2335 0095 3A000000 		.4byte	0x3a
 2336 0099 05       		.uleb128 0x5
 2337 009a 0E030000 		.4byte	.LASF13
 2338 009e 04       		.byte	0x4
 2339 009f E601     		.2byte	0x1e6
 2340 00a1 53000000 		.4byte	0x53
 2341 00a5 05       		.uleb128 0x5
 2342 00a6 79040000 		.4byte	.LASF14
 2343 00aa 04       		.byte	0x4
 2344 00ab E701     		.2byte	0x1e7
 2345 00ad 25000000 		.4byte	0x25
 2346 00b1 05       		.uleb128 0x5
 2347 00b2 BE090000 		.4byte	.LASF15
 2348 00b6 04       		.byte	0x4
 2349 00b7 E801     		.2byte	0x1e8
 2350 00b9 33000000 		.4byte	0x33
 2351 00bd 05       		.uleb128 0x5
 2352 00be 20020000 		.4byte	.LASF16
 2353 00c2 04       		.byte	0x4
 2354 00c3 E901     		.2byte	0x1e9
 2355 00c5 4C000000 		.4byte	0x4c
ARM GAS  C:\Users\Mattia\AppData\Local\Temp\ccPr8Am1.s 			page 50


 2356 00c9 05       		.uleb128 0x5
 2357 00ca 88050000 		.4byte	.LASF17
 2358 00ce 04       		.byte	0x4
 2359 00cf EA01     		.2byte	0x1ea
 2360 00d1 D5000000 		.4byte	0xd5
 2361 00d5 02       		.uleb128 0x2
 2362 00d6 04       		.byte	0x4
 2363 00d7 04       		.byte	0x4
 2364 00d8 09080000 		.4byte	.LASF18
 2365 00dc 02       		.uleb128 0x2
 2366 00dd 08       		.byte	0x8
 2367 00de 04       		.byte	0x4
 2368 00df 450A0000 		.4byte	.LASF19
 2369 00e3 02       		.uleb128 0x2
 2370 00e4 01       		.byte	0x1
 2371 00e5 08       		.byte	0x8
 2372 00e6 33080000 		.4byte	.LASF20
 2373 00ea 02       		.uleb128 0x2
 2374 00eb 08       		.byte	0x8
 2375 00ec 04       		.byte	0x4
 2376 00ed 1F030000 		.4byte	.LASF21
 2377 00f1 02       		.uleb128 0x2
 2378 00f2 04       		.byte	0x4
 2379 00f3 07       		.byte	0x7
 2380 00f4 90050000 		.4byte	.LASF22
 2381 00f8 06       		.uleb128 0x6
 2382 00f9 04       		.byte	0x4
 2383 00fa E3000000 		.4byte	0xe3
 2384 00fe 07       		.uleb128 0x7
 2385 00ff E3000000 		.4byte	0xe3
 2386 0103 0E010000 		.4byte	0x10e
 2387 0107 08       		.uleb128 0x8
 2388 0108 F1000000 		.4byte	0xf1
 2389 010c 07       		.byte	0x7
 2390 010d 00       		.byte	0
 2391 010e 03       		.uleb128 0x3
 2392 010f F8040000 		.4byte	.LASF23
 2393 0113 05       		.byte	0x5
 2394 0114 7D       		.byte	0x7d
 2395 0115 19010000 		.4byte	0x119
 2396 0119 09       		.uleb128 0x9
 2397 011a F8040000 		.4byte	.LASF23
 2398 011e 03       		.uleb128 0x3
 2399 011f 49090000 		.4byte	.LASF24
 2400 0123 05       		.byte	0x5
 2401 0124 7E       		.byte	0x7e
 2402 0125 29010000 		.4byte	0x129
 2403 0129 09       		.uleb128 0x9
 2404 012a 49090000 		.4byte	.LASF24
 2405 012e 03       		.uleb128 0x3
 2406 012f 90080000 		.4byte	.LASF25
 2407 0133 05       		.byte	0x5
 2408 0134 80       		.byte	0x80
 2409 0135 39010000 		.4byte	0x139
 2410 0139 09       		.uleb128 0x9
 2411 013a 90080000 		.4byte	.LASF25
 2412 013e 0A       		.uleb128 0xa
ARM GAS  C:\Users\Mattia\AppData\Local\Temp\ccPr8Am1.s 			page 51


 2413 013f 10       		.byte	0x10
 2414 0140 06       		.byte	0x6
 2415 0141 C2       		.byte	0xc2
 2416 0142 77010000 		.4byte	0x177
 2417 0146 0B       		.uleb128 0xb
 2418 0147 15040000 		.4byte	.LASF26
 2419 014b 06       		.byte	0x6
 2420 014c C3       		.byte	0xc3
 2421 014d 53000000 		.4byte	0x53
 2422 0151 00       		.byte	0
 2423 0152 0B       		.uleb128 0xb
 2424 0153 E7070000 		.4byte	.LASF27
 2425 0157 06       		.byte	0x6
 2426 0158 C4       		.byte	0xc4
 2427 0159 53000000 		.4byte	0x53
 2428 015d 04       		.byte	0x4
 2429 015e 0B       		.uleb128 0xb
 2430 015f 2B030000 		.4byte	.LASF28
 2431 0163 06       		.byte	0x6
 2432 0164 C5       		.byte	0xc5
 2433 0165 53000000 		.4byte	0x53
 2434 0169 08       		.byte	0x8
 2435 016a 0B       		.uleb128 0xb
 2436 016b 3A040000 		.4byte	.LASF29
 2437 016f 06       		.byte	0x6
 2438 0170 C6       		.byte	0xc6
 2439 0171 53000000 		.4byte	0x53
 2440 0175 0C       		.byte	0xc
 2441 0176 00       		.byte	0
 2442 0177 03       		.uleb128 0x3
 2443 0178 E3040000 		.4byte	.LASF30
 2444 017c 06       		.byte	0x6
 2445 017d C7       		.byte	0xc7
 2446 017e 3E010000 		.4byte	0x13e
 2447 0182 0A       		.uleb128 0xa
 2448 0183 20       		.byte	0x20
 2449 0184 06       		.byte	0x6
 2450 0185 C9       		.byte	0xc9
 2451 0186 D3010000 		.4byte	0x1d3
 2452 018a 0B       		.uleb128 0xb
 2453 018b 03060000 		.4byte	.LASF31
 2454 018f 06       		.byte	0x6
 2455 0190 CA       		.byte	0xca
 2456 0191 77010000 		.4byte	0x177
 2457 0195 00       		.byte	0
 2458 0196 0B       		.uleb128 0xb
 2459 0197 2B030000 		.4byte	.LASF28
 2460 019b 06       		.byte	0x6
 2461 019c CB       		.byte	0xcb
 2462 019d 3A000000 		.4byte	0x3a
 2463 01a1 10       		.byte	0x10
 2464 01a2 0B       		.uleb128 0xb
 2465 01a3 E7070000 		.4byte	.LASF27
 2466 01a7 06       		.byte	0x6
 2467 01a8 CC       		.byte	0xcc
 2468 01a9 53000000 		.4byte	0x53
 2469 01ad 14       		.byte	0x14
ARM GAS  C:\Users\Mattia\AppData\Local\Temp\ccPr8Am1.s 			page 52


 2470 01ae 0B       		.uleb128 0xb
 2471 01af 1E0A0000 		.4byte	.LASF32
 2472 01b3 06       		.byte	0x6
 2473 01b4 CD       		.byte	0xcd
 2474 01b5 D3010000 		.4byte	0x1d3
 2475 01b9 18       		.byte	0x18
 2476 01ba 0B       		.uleb128 0xb
 2477 01bb 8A060000 		.4byte	.LASF33
 2478 01bf 06       		.byte	0x6
 2479 01c0 CE       		.byte	0xce
 2480 01c1 33000000 		.4byte	0x33
 2481 01c5 1C       		.byte	0x1c
 2482 01c6 0B       		.uleb128 0xb
 2483 01c7 26020000 		.4byte	.LASF34
 2484 01cb 06       		.byte	0x6
 2485 01cc CF       		.byte	0xcf
 2486 01cd 2C000000 		.4byte	0x2c
 2487 01d1 1E       		.byte	0x1e
 2488 01d2 00       		.byte	0
 2489 01d3 06       		.uleb128 0x6
 2490 01d4 04       		.byte	0x4
 2491 01d5 2E010000 		.4byte	0x12e
 2492 01d9 03       		.uleb128 0x3
 2493 01da 01080000 		.4byte	.LASF35
 2494 01de 06       		.byte	0x6
 2495 01df D0       		.byte	0xd0
 2496 01e0 82010000 		.4byte	0x182
 2497 01e4 0A       		.uleb128 0xa
 2498 01e5 3C       		.byte	0x3c
 2499 01e6 06       		.byte	0x6
 2500 01e7 DC       		.byte	0xdc
 2501 01e8 4D020000 		.4byte	0x24d
 2502 01ec 0B       		.uleb128 0xb
 2503 01ed 3B020000 		.4byte	.LASF36
 2504 01f1 06       		.byte	0x6
 2505 01f2 DD       		.byte	0xdd
 2506 01f3 2C000000 		.4byte	0x2c
 2507 01f7 00       		.byte	0
 2508 01f8 0B       		.uleb128 0xb
 2509 01f9 CC010000 		.4byte	.LASF37
 2510 01fd 06       		.byte	0x6
 2511 01fe DE       		.byte	0xde
 2512 01ff 53000000 		.4byte	0x53
 2513 0203 04       		.byte	0x4
 2514 0204 0B       		.uleb128 0xb
 2515 0205 E3030000 		.4byte	.LASF38
 2516 0209 06       		.byte	0x6
 2517 020a DF       		.byte	0xdf
 2518 020b 53000000 		.4byte	0x53
 2519 020f 08       		.byte	0x8
 2520 0210 0B       		.uleb128 0xb
 2521 0211 5B080000 		.4byte	.LASF39
 2522 0215 06       		.byte	0x6
 2523 0216 E0       		.byte	0xe0
 2524 0217 53000000 		.4byte	0x53
 2525 021b 0C       		.byte	0xc
 2526 021c 0B       		.uleb128 0xb
ARM GAS  C:\Users\Mattia\AppData\Local\Temp\ccPr8Am1.s 			page 53


 2527 021d E3050000 		.4byte	.LASF40
 2528 0221 06       		.byte	0x6
 2529 0222 E1       		.byte	0xe1
 2530 0223 53000000 		.4byte	0x53
 2531 0227 10       		.byte	0x10
 2532 0228 0B       		.uleb128 0xb
 2533 0229 B3080000 		.4byte	.LASF41
 2534 022d 06       		.byte	0x6
 2535 022e E2       		.byte	0xe2
 2536 022f F8000000 		.4byte	0xf8
 2537 0233 14       		.byte	0x14
 2538 0234 0B       		.uleb128 0xb
 2539 0235 69080000 		.4byte	.LASF42
 2540 0239 06       		.byte	0x6
 2541 023a E4       		.byte	0xe4
 2542 023b 68000000 		.4byte	0x68
 2543 023f 18       		.byte	0x18
 2544 0240 0C       		.uleb128 0xc
 2545 0241 44697200 		.ascii	"Dir\000"
 2546 0245 06       		.byte	0x6
 2547 0246 E5       		.byte	0xe5
 2548 0247 D9010000 		.4byte	0x1d9
 2549 024b 1C       		.byte	0x1c
 2550 024c 00       		.byte	0
 2551 024d 03       		.uleb128 0x3
 2552 024e E2090000 		.4byte	.LASF43
 2553 0252 06       		.byte	0x6
 2554 0253 E6       		.byte	0xe6
 2555 0254 E4010000 		.4byte	0x1e4
 2556 0258 06       		.uleb128 0x6
 2557 0259 04       		.byte	0x4
 2558 025a 1E010000 		.4byte	0x11e
 2559 025e 07       		.uleb128 0x7
 2560 025f BD000000 		.4byte	0xbd
 2561 0263 6E020000 		.4byte	0x26e
 2562 0267 08       		.uleb128 0x8
 2563 0268 F1000000 		.4byte	0xf1
 2564 026c 02       		.byte	0x2
 2565 026d 00       		.byte	0
 2566 026e 07       		.uleb128 0x7
 2567 026f A5000000 		.4byte	0xa5
 2568 0273 7E020000 		.4byte	0x27e
 2569 0277 08       		.uleb128 0x8
 2570 0278 F1000000 		.4byte	0xf1
 2571 027c 02       		.byte	0x2
 2572 027d 00       		.byte	0
 2573 027e 0D       		.uleb128 0xd
 2574 027f 76070000 		.4byte	.LASF51
 2575 0283 50       		.byte	0x50
 2576 0284 07       		.byte	0x7
 2577 0285 1401     		.2byte	0x114
 2578 0287 E7020000 		.4byte	0x2e7
 2579 028b 0E       		.uleb128 0xe
 2580 028c AA070000 		.4byte	.LASF44
 2581 0290 07       		.byte	0x7
 2582 0291 1501     		.2byte	0x115
 2583 0293 E7020000 		.4byte	0x2e7
ARM GAS  C:\Users\Mattia\AppData\Local\Temp\ccPr8Am1.s 			page 54


 2584 0297 00       		.byte	0
 2585 0298 0E       		.uleb128 0xe
 2586 0299 D5040000 		.4byte	.LASF45
 2587 029d 07       		.byte	0x7
 2588 029e 1601     		.2byte	0x116
 2589 02a0 F7020000 		.4byte	0x2f7
 2590 02a4 08       		.byte	0x8
 2591 02a5 0E       		.uleb128 0xe
 2592 02a6 40060000 		.4byte	.LASF46
 2593 02aa 07       		.byte	0x7
 2594 02ab 1701     		.2byte	0x117
 2595 02ad 07030000 		.4byte	0x307
 2596 02b1 30       		.byte	0x30
 2597 02b2 0E       		.uleb128 0xe
 2598 02b3 F4070000 		.4byte	.LASF47
 2599 02b7 07       		.byte	0x7
 2600 02b8 1801     		.2byte	0x118
 2601 02ba 99000000 		.4byte	0x99
 2602 02be 40       		.byte	0x40
 2603 02bf 0E       		.uleb128 0xe
 2604 02c0 51080000 		.4byte	.LASF48
 2605 02c4 07       		.byte	0x7
 2606 02c5 1901     		.2byte	0x119
 2607 02c7 99000000 		.4byte	0x99
 2608 02cb 44       		.byte	0x44
 2609 02cc 0E       		.uleb128 0xe
 2610 02cd 76000000 		.4byte	.LASF49
 2611 02d1 07       		.byte	0x7
 2612 02d2 1A01     		.2byte	0x11a
 2613 02d4 99000000 		.4byte	0x99
 2614 02d8 48       		.byte	0x48
 2615 02d9 0E       		.uleb128 0xe
 2616 02da D7070000 		.4byte	.LASF50
 2617 02de 07       		.byte	0x7
 2618 02df 1B01     		.2byte	0x11b
 2619 02e1 99000000 		.4byte	0x99
 2620 02e5 4C       		.byte	0x4c
 2621 02e6 00       		.byte	0
 2622 02e7 07       		.uleb128 0x7
 2623 02e8 99000000 		.4byte	0x99
 2624 02ec F7020000 		.4byte	0x2f7
 2625 02f0 08       		.uleb128 0x8
 2626 02f1 F1000000 		.4byte	0xf1
 2627 02f5 01       		.byte	0x1
 2628 02f6 00       		.byte	0
 2629 02f7 07       		.uleb128 0x7
 2630 02f8 99000000 		.4byte	0x99
 2631 02fc 07030000 		.4byte	0x307
 2632 0300 08       		.uleb128 0x8
 2633 0301 F1000000 		.4byte	0xf1
 2634 0305 09       		.byte	0x9
 2635 0306 00       		.byte	0
 2636 0307 07       		.uleb128 0x7
 2637 0308 99000000 		.4byte	0x99
 2638 030c 17030000 		.4byte	0x317
 2639 0310 08       		.uleb128 0x8
 2640 0311 F1000000 		.4byte	0xf1
ARM GAS  C:\Users\Mattia\AppData\Local\Temp\ccPr8Am1.s 			page 55


 2641 0315 03       		.byte	0x3
 2642 0316 00       		.byte	0
 2643 0317 0D       		.uleb128 0xd
 2644 0318 BF050000 		.4byte	.LASF52
 2645 031c 10       		.byte	0x10
 2646 031d 07       		.byte	0x7
 2647 031e 2201     		.2byte	0x122
 2648 0320 A6030000 		.4byte	0x3a6
 2649 0324 0F       		.uleb128 0xf
 2650 0325 696400   		.ascii	"id\000"
 2651 0328 07       		.byte	0x7
 2652 0329 2301     		.2byte	0x123
 2653 032b 81000000 		.4byte	0x81
 2654 032f 00       		.byte	0
 2655 0330 0E       		.uleb128 0xe
 2656 0331 10050000 		.4byte	.LASF53
 2657 0335 07       		.byte	0x7
 2658 0336 2401     		.2byte	0x124
 2659 0338 A6030000 		.4byte	0x3a6
 2660 033c 01       		.byte	0x1
 2661 033d 0E       		.uleb128 0xe
 2662 033e 2D0A0000 		.4byte	.LASF54
 2663 0342 07       		.byte	0x7
 2664 0343 2501     		.2byte	0x125
 2665 0345 A6030000 		.4byte	0x3a6
 2666 0349 04       		.byte	0x4
 2667 034a 0E       		.uleb128 0xe
 2668 034b 8A020000 		.4byte	.LASF55
 2669 034f 07       		.byte	0x7
 2670 0350 2601     		.2byte	0x126
 2671 0352 81000000 		.4byte	0x81
 2672 0356 07       		.byte	0x7
 2673 0357 0E       		.uleb128 0xe
 2674 0358 6B030000 		.4byte	.LASF56
 2675 035c 07       		.byte	0x7
 2676 035d 2701     		.2byte	0x127
 2677 035f 81000000 		.4byte	0x81
 2678 0363 08       		.byte	0x8
 2679 0364 0E       		.uleb128 0xe
 2680 0365 15000000 		.4byte	.LASF57
 2681 0369 07       		.byte	0x7
 2682 036a 2801     		.2byte	0x128
 2683 036c 81000000 		.4byte	0x81
 2684 0370 09       		.byte	0x9
 2685 0371 0E       		.uleb128 0xe
 2686 0372 7D010000 		.4byte	.LASF58
 2687 0376 07       		.byte	0x7
 2688 0377 2901     		.2byte	0x129
 2689 0379 81000000 		.4byte	0x81
 2690 037d 0A       		.byte	0xa
 2691 037e 0E       		.uleb128 0xe
 2692 037f CF080000 		.4byte	.LASF59
 2693 0383 07       		.byte	0x7
 2694 0384 2A01     		.2byte	0x12a
 2695 0386 81000000 		.4byte	0x81
 2696 038a 0B       		.byte	0xb
 2697 038b 0E       		.uleb128 0xe
ARM GAS  C:\Users\Mattia\AppData\Local\Temp\ccPr8Am1.s 			page 56


 2698 038c BD080000 		.4byte	.LASF60
 2699 0390 07       		.byte	0x7
 2700 0391 2B01     		.2byte	0x12b
 2701 0393 81000000 		.4byte	0x81
 2702 0397 0C       		.byte	0xc
 2703 0398 0E       		.uleb128 0xe
 2704 0399 9C040000 		.4byte	.LASF61
 2705 039d 07       		.byte	0x7
 2706 039e 2C01     		.2byte	0x12c
 2707 03a0 A6030000 		.4byte	0x3a6
 2708 03a4 0D       		.byte	0xd
 2709 03a5 00       		.byte	0
 2710 03a6 07       		.uleb128 0x7
 2711 03a7 81000000 		.4byte	0x81
 2712 03ab B6030000 		.4byte	0x3b6
 2713 03af 08       		.uleb128 0x8
 2714 03b0 F1000000 		.4byte	0xf1
 2715 03b4 02       		.byte	0x2
 2716 03b5 00       		.byte	0
 2717 03b6 0D       		.uleb128 0xd
 2718 03b7 E9080000 		.4byte	.LASF62
 2719 03bb 70       		.byte	0x70
 2720 03bc 07       		.byte	0x7
 2721 03bd 3301     		.2byte	0x133
 2722 03bf 30050000 		.4byte	0x530
 2723 03c3 0F       		.uleb128 0xf
 2724 03c4 6B5F7000 		.ascii	"k_p\000"
 2725 03c8 07       		.byte	0x7
 2726 03c9 3401     		.2byte	0x134
 2727 03cb BD000000 		.4byte	0xbd
 2728 03cf 00       		.byte	0
 2729 03d0 0F       		.uleb128 0xf
 2730 03d1 6B5F6900 		.ascii	"k_i\000"
 2731 03d5 07       		.byte	0x7
 2732 03d6 3501     		.2byte	0x135
 2733 03d8 BD000000 		.4byte	0xbd
 2734 03dc 04       		.byte	0x4
 2735 03dd 0F       		.uleb128 0xf
 2736 03de 6B5F6400 		.ascii	"k_d\000"
 2737 03e2 07       		.byte	0x7
 2738 03e3 3601     		.2byte	0x136
 2739 03e5 BD000000 		.4byte	0xbd
 2740 03e9 08       		.byte	0x8
 2741 03ea 0E       		.uleb128 0xe
 2742 03eb EC050000 		.4byte	.LASF63
 2743 03ef 07       		.byte	0x7
 2744 03f0 3701     		.2byte	0x137
 2745 03f2 BD000000 		.4byte	0xbd
 2746 03f6 0C       		.byte	0xc
 2747 03f7 0E       		.uleb128 0xe
 2748 03f8 050A0000 		.4byte	.LASF64
 2749 03fc 07       		.byte	0x7
 2750 03fd 3801     		.2byte	0x138
 2751 03ff BD000000 		.4byte	0xbd
 2752 0403 10       		.byte	0x10
 2753 0404 0E       		.uleb128 0xe
 2754 0405 39090000 		.4byte	.LASF65
ARM GAS  C:\Users\Mattia\AppData\Local\Temp\ccPr8Am1.s 			page 57


 2755 0409 07       		.byte	0x7
 2756 040a 3901     		.2byte	0x139
 2757 040c BD000000 		.4byte	0xbd
 2758 0410 14       		.byte	0x14
 2759 0411 0E       		.uleb128 0xe
 2760 0412 4C0A0000 		.4byte	.LASF66
 2761 0416 07       		.byte	0x7
 2762 0417 3A01     		.2byte	0x13a
 2763 0419 BD000000 		.4byte	0xbd
 2764 041d 18       		.byte	0x18
 2765 041e 0E       		.uleb128 0xe
 2766 041f BD030000 		.4byte	.LASF67
 2767 0423 07       		.byte	0x7
 2768 0424 3B01     		.2byte	0x13b
 2769 0426 BD000000 		.4byte	0xbd
 2770 042a 1C       		.byte	0x1c
 2771 042b 0E       		.uleb128 0xe
 2772 042c 07030000 		.4byte	.LASF68
 2773 0430 07       		.byte	0x7
 2774 0431 3C01     		.2byte	0x13c
 2775 0433 BD000000 		.4byte	0xbd
 2776 0437 20       		.byte	0x20
 2777 0438 0E       		.uleb128 0xe
 2778 0439 3F030000 		.4byte	.LASF69
 2779 043d 07       		.byte	0x7
 2780 043e 3D01     		.2byte	0x13d
 2781 0440 BD000000 		.4byte	0xbd
 2782 0444 24       		.byte	0x24
 2783 0445 0E       		.uleb128 0xe
 2784 0446 C6080000 		.4byte	.LASF70
 2785 044a 07       		.byte	0x7
 2786 044b 3E01     		.2byte	0x13e
 2787 044d BD000000 		.4byte	0xbd
 2788 0451 28       		.byte	0x28
 2789 0452 0E       		.uleb128 0xe
 2790 0453 B5090000 		.4byte	.LASF71
 2791 0457 07       		.byte	0x7
 2792 0458 3F01     		.2byte	0x13f
 2793 045a BD000000 		.4byte	0xbd
 2794 045e 2C       		.byte	0x2c
 2795 045f 0E       		.uleb128 0xe
 2796 0460 74060000 		.4byte	.LASF72
 2797 0464 07       		.byte	0x7
 2798 0465 4001     		.2byte	0x140
 2799 0467 81000000 		.4byte	0x81
 2800 046b 30       		.byte	0x30
 2801 046c 0E       		.uleb128 0xe
 2802 046d 0F080000 		.4byte	.LASF73
 2803 0471 07       		.byte	0x7
 2804 0472 4101     		.2byte	0x141
 2805 0474 81000000 		.4byte	0x81
 2806 0478 31       		.byte	0x31
 2807 0479 0E       		.uleb128 0xe
 2808 047a 7E040000 		.4byte	.LASF74
 2809 047e 07       		.byte	0x7
 2810 047f 4201     		.2byte	0x142
 2811 0481 81000000 		.4byte	0x81
ARM GAS  C:\Users\Mattia\AppData\Local\Temp\ccPr8Am1.s 			page 58


 2812 0485 32       		.byte	0x32
 2813 0486 0E       		.uleb128 0xe
 2814 0487 B6070000 		.4byte	.LASF75
 2815 048b 07       		.byte	0x7
 2816 048c 4301     		.2byte	0x143
 2817 048e 81000000 		.4byte	0x81
 2818 0492 33       		.byte	0x33
 2819 0493 0E       		.uleb128 0xe
 2820 0494 90040000 		.4byte	.LASF76
 2821 0498 07       		.byte	0x7
 2822 0499 4401     		.2byte	0x144
 2823 049b BD000000 		.4byte	0xbd
 2824 049f 34       		.byte	0x34
 2825 04a0 0E       		.uleb128 0xe
 2826 04a1 13060000 		.4byte	.LASF77
 2827 04a5 07       		.byte	0x7
 2828 04a6 4501     		.2byte	0x145
 2829 04a8 BD000000 		.4byte	0xbd
 2830 04ac 38       		.byte	0x38
 2831 04ad 0E       		.uleb128 0xe
 2832 04ae D6030000 		.4byte	.LASF78
 2833 04b2 07       		.byte	0x7
 2834 04b3 4601     		.2byte	0x146
 2835 04b5 BD000000 		.4byte	0xbd
 2836 04b9 3C       		.byte	0x3c
 2837 04ba 0E       		.uleb128 0xe
 2838 04bb CA070000 		.4byte	.LASF79
 2839 04bf 07       		.byte	0x7
 2840 04c0 4701     		.2byte	0x147
 2841 04c2 BD000000 		.4byte	0xbd
 2842 04c6 40       		.byte	0x40
 2843 04c7 0E       		.uleb128 0xe
 2844 04c8 91030000 		.4byte	.LASF80
 2845 04cc 07       		.byte	0x7
 2846 04cd 4801     		.2byte	0x148
 2847 04cf 30050000 		.4byte	0x530
 2848 04d3 44       		.byte	0x44
 2849 04d4 0E       		.uleb128 0xe
 2850 04d5 68070000 		.4byte	.LASF81
 2851 04d9 07       		.byte	0x7
 2852 04da 4901     		.2byte	0x149
 2853 04dc B1000000 		.4byte	0xb1
 2854 04e0 5C       		.byte	0x5c
 2855 04e1 0E       		.uleb128 0xe
 2856 04e2 5A030000 		.4byte	.LASF82
 2857 04e6 07       		.byte	0x7
 2858 04e7 4A01     		.2byte	0x14a
 2859 04e9 81000000 		.4byte	0x81
 2860 04ed 5E       		.byte	0x5e
 2861 04ee 0E       		.uleb128 0xe
 2862 04ef B4020000 		.4byte	.LASF83
 2863 04f3 07       		.byte	0x7
 2864 04f4 4B01     		.2byte	0x14b
 2865 04f6 81000000 		.4byte	0x81
 2866 04fa 5F       		.byte	0x5f
 2867 04fb 0E       		.uleb128 0xe
 2868 04fc 8A000000 		.4byte	.LASF84
ARM GAS  C:\Users\Mattia\AppData\Local\Temp\ccPr8Am1.s 			page 59


 2869 0500 07       		.byte	0x7
 2870 0501 4C01     		.2byte	0x14c
 2871 0503 81000000 		.4byte	0x81
 2872 0507 60       		.byte	0x60
 2873 0508 0E       		.uleb128 0xe
 2874 0509 530A0000 		.4byte	.LASF85
 2875 050d 07       		.byte	0x7
 2876 050e 4D01     		.2byte	0x14d
 2877 0510 81000000 		.4byte	0x81
 2878 0514 61       		.byte	0x61
 2879 0515 0E       		.uleb128 0xe
 2880 0516 74020000 		.4byte	.LASF86
 2881 051a 07       		.byte	0x7
 2882 051b 4E01     		.2byte	0x14e
 2883 051d 81000000 		.4byte	0x81
 2884 0521 62       		.byte	0x62
 2885 0522 0E       		.uleb128 0xe
 2886 0523 9C040000 		.4byte	.LASF61
 2887 0527 07       		.byte	0x7
 2888 0528 4F01     		.2byte	0x14f
 2889 052a 40050000 		.4byte	0x540
 2890 052e 63       		.byte	0x63
 2891 052f 00       		.byte	0
 2892 0530 07       		.uleb128 0x7
 2893 0531 D5000000 		.4byte	0xd5
 2894 0535 40050000 		.4byte	0x540
 2895 0539 08       		.uleb128 0x8
 2896 053a F1000000 		.4byte	0xf1
 2897 053e 05       		.byte	0x5
 2898 053f 00       		.byte	0
 2899 0540 07       		.uleb128 0x7
 2900 0541 81000000 		.4byte	0x81
 2901 0545 50050000 		.4byte	0x550
 2902 0549 08       		.uleb128 0x8
 2903 054a F1000000 		.4byte	0xf1
 2904 054e 0C       		.byte	0xc
 2905 054f 00       		.byte	0
 2906 0550 0D       		.uleb128 0xd
 2907 0551 49070000 		.4byte	.LASF87
 2908 0555 30       		.byte	0x30
 2909 0556 07       		.byte	0x7
 2910 0557 5601     		.2byte	0x156
 2911 0559 D3050000 		.4byte	0x5d3
 2912 055d 0E       		.uleb128 0xe
 2913 055e D7080000 		.4byte	.LASF88
 2914 0562 07       		.byte	0x7
 2915 0563 5701     		.2byte	0x157
 2916 0565 D3050000 		.4byte	0x5d3
 2917 0569 00       		.byte	0
 2918 056a 0F       		.uleb128 0xf
 2919 056b 72657300 		.ascii	"res\000"
 2920 056f 07       		.byte	0x7
 2921 0570 5801     		.2byte	0x158
 2922 0572 A6030000 		.4byte	0x3a6
 2923 0576 05       		.byte	0x5
 2924 0577 0E       		.uleb128 0xe
 2925 0578 84000000 		.4byte	.LASF89
ARM GAS  C:\Users\Mattia\AppData\Local\Temp\ccPr8Am1.s 			page 60


 2926 057c 07       		.byte	0x7
 2927 057d 5901     		.2byte	0x159
 2928 057f 5E020000 		.4byte	0x25e
 2929 0583 08       		.byte	0x8
 2930 0584 0E       		.uleb128 0xe
 2931 0585 22070000 		.4byte	.LASF90
 2932 0589 07       		.byte	0x7
 2933 058a 5A01     		.2byte	0x15a
 2934 058c E3050000 		.4byte	0x5e3
 2935 0590 14       		.byte	0x14
 2936 0591 0E       		.uleb128 0xe
 2937 0592 EF090000 		.4byte	.LASF91
 2938 0596 07       		.byte	0x7
 2939 0597 5B01     		.2byte	0x15b
 2940 0599 81000000 		.4byte	0x81
 2941 059d 20       		.byte	0x20
 2942 059e 0E       		.uleb128 0xe
 2943 059f 9B060000 		.4byte	.LASF92
 2944 05a3 07       		.byte	0x7
 2945 05a4 5C01     		.2byte	0x15c
 2946 05a6 A6030000 		.4byte	0x3a6
 2947 05aa 21       		.byte	0x21
 2948 05ab 0E       		.uleb128 0xe
 2949 05ac AA030000 		.4byte	.LASF93
 2950 05b0 07       		.byte	0x7
 2951 05b1 5D01     		.2byte	0x15d
 2952 05b3 A5000000 		.4byte	0xa5
 2953 05b7 24       		.byte	0x24
 2954 05b8 0E       		.uleb128 0xe
 2955 05b9 29070000 		.4byte	.LASF94
 2956 05bd 07       		.byte	0x7
 2957 05be 5E01     		.2byte	0x15e
 2958 05c0 6E020000 		.4byte	0x26e
 2959 05c4 25       		.byte	0x25
 2960 05c5 0E       		.uleb128 0xe
 2961 05c6 9C040000 		.4byte	.LASF61
 2962 05ca 07       		.byte	0x7
 2963 05cb 5F01     		.2byte	0x15f
 2964 05cd F3050000 		.4byte	0x5f3
 2965 05d1 28       		.byte	0x28
 2966 05d2 00       		.byte	0
 2967 05d3 07       		.uleb128 0x7
 2968 05d4 81000000 		.4byte	0x81
 2969 05d8 E3050000 		.4byte	0x5e3
 2970 05dc 08       		.uleb128 0x8
 2971 05dd F1000000 		.4byte	0xf1
 2972 05e1 04       		.byte	0x4
 2973 05e2 00       		.byte	0
 2974 05e3 07       		.uleb128 0x7
 2975 05e4 C9000000 		.4byte	0xc9
 2976 05e8 F3050000 		.4byte	0x5f3
 2977 05ec 08       		.uleb128 0x8
 2978 05ed F1000000 		.4byte	0xf1
 2979 05f1 02       		.byte	0x2
 2980 05f2 00       		.byte	0
 2981 05f3 07       		.uleb128 0x7
 2982 05f4 81000000 		.4byte	0x81
ARM GAS  C:\Users\Mattia\AppData\Local\Temp\ccPr8Am1.s 			page 61


 2983 05f8 03060000 		.4byte	0x603
 2984 05fc 08       		.uleb128 0x8
 2985 05fd F1000000 		.4byte	0xf1
 2986 0601 07       		.byte	0x7
 2987 0602 00       		.byte	0
 2988 0603 0D       		.uleb128 0xd
 2989 0604 C3070000 		.4byte	.LASF95
 2990 0608 10       		.byte	0x10
 2991 0609 07       		.byte	0x7
 2992 060a 6601     		.2byte	0x166
 2993 060c 52060000 		.4byte	0x652
 2994 0610 0E       		.uleb128 0xe
 2995 0611 F1010000 		.4byte	.LASF96
 2996 0615 07       		.byte	0x7
 2997 0616 6701     		.2byte	0x167
 2998 0618 52060000 		.4byte	0x652
 2999 061c 00       		.byte	0
 3000 061d 0E       		.uleb128 0xe
 3001 061e 98090000 		.4byte	.LASF97
 3002 0622 07       		.byte	0x7
 3003 0623 6801     		.2byte	0x168
 3004 0625 E7020000 		.4byte	0x2e7
 3005 0629 04       		.byte	0x4
 3006 062a 0E       		.uleb128 0xe
 3007 062b 7A060000 		.4byte	.LASF98
 3008 062f 07       		.byte	0x7
 3009 0630 6901     		.2byte	0x169
 3010 0632 62060000 		.4byte	0x662
 3011 0636 0C       		.byte	0xc
 3012 0637 0E       		.uleb128 0xe
 3013 0638 0B090000 		.4byte	.LASF99
 3014 063c 07       		.byte	0x7
 3015 063d 6A01     		.2byte	0x16a
 3016 063f 81000000 		.4byte	0x81
 3017 0643 0E       		.byte	0xe
 3018 0644 0E       		.uleb128 0xe
 3019 0645 48030000 		.4byte	.LASF100
 3020 0649 07       		.byte	0x7
 3021 064a 6B01     		.2byte	0x16b
 3022 064c 81000000 		.4byte	0x81
 3023 0650 0F       		.byte	0xf
 3024 0651 00       		.byte	0
 3025 0652 07       		.uleb128 0x7
 3026 0653 8D000000 		.4byte	0x8d
 3027 0657 62060000 		.4byte	0x662
 3028 065b 08       		.uleb128 0x8
 3029 065c F1000000 		.4byte	0xf1
 3030 0660 01       		.byte	0x1
 3031 0661 00       		.byte	0
 3032 0662 07       		.uleb128 0x7
 3033 0663 81000000 		.4byte	0x81
 3034 0667 72060000 		.4byte	0x672
 3035 066b 08       		.uleb128 0x8
 3036 066c F1000000 		.4byte	0xf1
 3037 0670 01       		.byte	0x1
 3038 0671 00       		.byte	0
 3039 0672 0D       		.uleb128 0xd
ARM GAS  C:\Users\Mattia\AppData\Local\Temp\ccPr8Am1.s 			page 62


 3040 0673 63000000 		.4byte	.LASF101
 3041 0677 20       		.byte	0x20
 3042 0678 07       		.byte	0x7
 3043 0679 7201     		.2byte	0x172
 3044 067b B4060000 		.4byte	0x6b4
 3045 067f 0E       		.uleb128 0xe
 3046 0680 51090000 		.4byte	.LASF102
 3047 0684 07       		.byte	0x7
 3048 0685 7301     		.2byte	0x173
 3049 0687 81000000 		.4byte	0x81
 3050 068b 00       		.byte	0
 3051 068c 0E       		.uleb128 0xe
 3052 068d A5020000 		.4byte	.LASF103
 3053 0691 07       		.byte	0x7
 3054 0692 7401     		.2byte	0x174
 3055 0694 81000000 		.4byte	0x81
 3056 0698 01       		.byte	0x1
 3057 0699 0E       		.uleb128 0xe
 3058 069a 6E050000 		.4byte	.LASF104
 3059 069e 07       		.byte	0x7
 3060 069f 7501     		.2byte	0x175
 3061 06a1 B4060000 		.4byte	0x6b4
 3062 06a5 02       		.byte	0x2
 3063 06a6 0E       		.uleb128 0xe
 3064 06a7 9C040000 		.4byte	.LASF61
 3065 06ab 07       		.byte	0x7
 3066 06ac 7601     		.2byte	0x176
 3067 06ae D3050000 		.4byte	0x5d3
 3068 06b2 1B       		.byte	0x1b
 3069 06b3 00       		.byte	0
 3070 06b4 07       		.uleb128 0x7
 3071 06b5 81000000 		.4byte	0x81
 3072 06b9 CA060000 		.4byte	0x6ca
 3073 06bd 08       		.uleb128 0x8
 3074 06be F1000000 		.4byte	0xf1
 3075 06c2 04       		.byte	0x4
 3076 06c3 08       		.uleb128 0x8
 3077 06c4 F1000000 		.4byte	0xf1
 3078 06c8 04       		.byte	0x4
 3079 06c9 00       		.byte	0
 3080 06ca 0D       		.uleb128 0xd
 3081 06cb 78080000 		.4byte	.LASF105
 3082 06cf 20       		.byte	0x20
 3083 06d0 07       		.byte	0x7
 3084 06d1 7D01     		.2byte	0x17d
 3085 06d3 26070000 		.4byte	0x726
 3086 06d7 0E       		.uleb128 0xe
 3087 06d8 4D060000 		.4byte	.LASF106
 3088 06dc 07       		.byte	0x7
 3089 06dd 7E01     		.2byte	0x17e
 3090 06df 26070000 		.4byte	0x726
 3091 06e3 00       		.byte	0
 3092 06e4 0E       		.uleb128 0xe
 3093 06e5 C4090000 		.4byte	.LASF107
 3094 06e9 07       		.byte	0x7
 3095 06ea 7F01     		.2byte	0x17f
 3096 06ec 81000000 		.4byte	0x81
ARM GAS  C:\Users\Mattia\AppData\Local\Temp\ccPr8Am1.s 			page 63


 3097 06f0 06       		.byte	0x6
 3098 06f1 0E       		.uleb128 0xe
 3099 06f2 F2030000 		.4byte	.LASF108
 3100 06f6 07       		.byte	0x7
 3101 06f7 8001     		.2byte	0x180
 3102 06f9 81000000 		.4byte	0x81
 3103 06fd 07       		.byte	0x7
 3104 06fe 0E       		.uleb128 0xe
 3105 06ff 36070000 		.4byte	.LASF109
 3106 0703 07       		.byte	0x7
 3107 0704 8101     		.2byte	0x181
 3108 0706 36070000 		.4byte	0x736
 3109 070a 08       		.byte	0x8
 3110 070b 0E       		.uleb128 0xe
 3111 070c 9A080000 		.4byte	.LASF110
 3112 0710 07       		.byte	0x7
 3113 0711 8201     		.2byte	0x182
 3114 0713 81000000 		.4byte	0x81
 3115 0717 14       		.byte	0x14
 3116 0718 0E       		.uleb128 0xe
 3117 0719 9C040000 		.4byte	.LASF61
 3118 071d 07       		.byte	0x7
 3119 071e 8301     		.2byte	0x183
 3120 0720 46070000 		.4byte	0x746
 3121 0724 15       		.byte	0x15
 3122 0725 00       		.byte	0
 3123 0726 07       		.uleb128 0x7
 3124 0727 81000000 		.4byte	0x81
 3125 072b 36070000 		.4byte	0x736
 3126 072f 08       		.uleb128 0x8
 3127 0730 F1000000 		.4byte	0xf1
 3128 0734 05       		.byte	0x5
 3129 0735 00       		.byte	0
 3130 0736 07       		.uleb128 0x7
 3131 0737 81000000 		.4byte	0x81
 3132 073b 46070000 		.4byte	0x746
 3133 073f 08       		.uleb128 0x8
 3134 0740 F1000000 		.4byte	0xf1
 3135 0744 0B       		.byte	0xb
 3136 0745 00       		.byte	0
 3137 0746 07       		.uleb128 0x7
 3138 0747 81000000 		.4byte	0x81
 3139 074b 56070000 		.4byte	0x756
 3140 074f 08       		.uleb128 0x8
 3141 0750 F1000000 		.4byte	0xf1
 3142 0754 0A       		.byte	0xa
 3143 0755 00       		.byte	0
 3144 0756 0D       		.uleb128 0xd
 3145 0757 0D040000 		.4byte	.LASF111
 3146 075b 20       		.byte	0x20
 3147 075c 07       		.byte	0x7
 3148 075d 8A01     		.2byte	0x18a
 3149 075f 8B070000 		.4byte	0x78b
 3150 0763 0E       		.uleb128 0xe
 3151 0764 77050000 		.4byte	.LASF112
 3152 0768 07       		.byte	0x7
 3153 0769 8B01     		.2byte	0x18b
ARM GAS  C:\Users\Mattia\AppData\Local\Temp\ccPr8Am1.s 			page 64


 3154 076b FE000000 		.4byte	0xfe
 3155 076f 00       		.byte	0
 3156 0770 0E       		.uleb128 0xe
 3157 0771 1D040000 		.4byte	.LASF113
 3158 0775 07       		.byte	0x7
 3159 0776 8C01     		.2byte	0x18c
 3160 0778 03060000 		.4byte	0x603
 3161 077c 08       		.byte	0x8
 3162 077d 0E       		.uleb128 0xe
 3163 077e 9C040000 		.4byte	.LASF61
 3164 0782 07       		.byte	0x7
 3165 0783 8D01     		.2byte	0x18d
 3166 0785 F3050000 		.4byte	0x5f3
 3167 0789 18       		.byte	0x18
 3168 078a 00       		.byte	0
 3169 078b 0D       		.uleb128 0xd
 3170 078c D7090000 		.4byte	.LASF114
 3171 0790 10       		.byte	0x10
 3172 0791 07       		.byte	0x7
 3173 0792 9401     		.2byte	0x194
 3174 0794 DA070000 		.4byte	0x7da
 3175 0798 0E       		.uleb128 0xe
 3176 0799 0A060000 		.4byte	.LASF115
 3177 079d 07       		.byte	0x7
 3178 079e 9501     		.2byte	0x195
 3179 07a0 BD000000 		.4byte	0xbd
 3180 07a4 00       		.byte	0
 3181 07a5 0E       		.uleb128 0xe
 3182 07a6 95010000 		.4byte	.LASF116
 3183 07aa 07       		.byte	0x7
 3184 07ab 9601     		.2byte	0x196
 3185 07ad BD000000 		.4byte	0xbd
 3186 07b1 04       		.byte	0x4
 3187 07b2 0E       		.uleb128 0xe
 3188 07b3 E8010000 		.4byte	.LASF117
 3189 07b7 07       		.byte	0x7
 3190 07b8 9701     		.2byte	0x197
 3191 07ba BD000000 		.4byte	0xbd
 3192 07be 08       		.byte	0x8
 3193 07bf 0E       		.uleb128 0xe
 3194 07c0 38080000 		.4byte	.LASF118
 3195 07c4 07       		.byte	0x7
 3196 07c5 9801     		.2byte	0x198
 3197 07c7 81000000 		.4byte	0x81
 3198 07cb 0C       		.byte	0xc
 3199 07cc 0E       		.uleb128 0xe
 3200 07cd 9C040000 		.4byte	.LASF61
 3201 07d1 07       		.byte	0x7
 3202 07d2 9901     		.2byte	0x199
 3203 07d4 A6030000 		.4byte	0x3a6
 3204 07d8 0D       		.byte	0xd
 3205 07d9 00       		.byte	0
 3206 07da 0D       		.uleb128 0xd
 3207 07db C9050000 		.4byte	.LASF119
 3208 07df 10       		.byte	0x10
 3209 07e0 07       		.byte	0x7
 3210 07e1 A001     		.2byte	0x1a0
ARM GAS  C:\Users\Mattia\AppData\Local\Temp\ccPr8Am1.s 			page 65


 3211 07e3 1C080000 		.4byte	0x81c
 3212 07e7 0E       		.uleb128 0xe
 3213 07e8 7A030000 		.4byte	.LASF120
 3214 07ec 07       		.byte	0x7
 3215 07ed A101     		.2byte	0x1a1
 3216 07ef 8D000000 		.4byte	0x8d
 3217 07f3 00       		.byte	0
 3218 07f4 0E       		.uleb128 0xe
 3219 07f5 50000000 		.4byte	.LASF121
 3220 07f9 07       		.byte	0x7
 3221 07fa A201     		.2byte	0x1a2
 3222 07fc B1000000 		.4byte	0xb1
 3223 0800 02       		.byte	0x2
 3224 0801 0E       		.uleb128 0xe
 3225 0802 F2080000 		.4byte	.LASF122
 3226 0806 07       		.byte	0x7
 3227 0807 A301     		.2byte	0x1a3
 3228 0809 52060000 		.4byte	0x652
 3229 080d 04       		.byte	0x4
 3230 080e 0E       		.uleb128 0xe
 3231 080f 9C040000 		.4byte	.LASF61
 3232 0813 07       		.byte	0x7
 3233 0814 A401     		.2byte	0x1a4
 3234 0816 F3050000 		.4byte	0x5f3
 3235 081a 08       		.byte	0x8
 3236 081b 00       		.byte	0
 3237 081c 0D       		.uleb128 0xd
 3238 081d 82070000 		.4byte	.LASF123
 3239 0821 10       		.byte	0x10
 3240 0822 07       		.byte	0x7
 3241 0823 AB01     		.2byte	0x1ab
 3242 0825 51080000 		.4byte	0x851
 3243 0829 0E       		.uleb128 0xe
 3244 082a A9040000 		.4byte	.LASF124
 3245 082e 07       		.byte	0x7
 3246 082f AC01     		.2byte	0x1ac
 3247 0831 81000000 		.4byte	0x81
 3248 0835 00       		.byte	0
 3249 0836 0E       		.uleb128 0xe
 3250 0837 5F070000 		.4byte	.LASF125
 3251 083b 07       		.byte	0x7
 3252 083c AD01     		.2byte	0x1ad
 3253 083e 81000000 		.4byte	0x81
 3254 0842 01       		.byte	0x1
 3255 0843 0E       		.uleb128 0xe
 3256 0844 9C040000 		.4byte	.LASF61
 3257 0848 07       		.byte	0x7
 3258 0849 AE01     		.2byte	0x1ae
 3259 084b 51080000 		.4byte	0x851
 3260 084f 02       		.byte	0x2
 3261 0850 00       		.byte	0
 3262 0851 07       		.uleb128 0x7
 3263 0852 81000000 		.4byte	0x81
 3264 0856 61080000 		.4byte	0x861
 3265 085a 08       		.uleb128 0x8
 3266 085b F1000000 		.4byte	0xf1
 3267 085f 0D       		.byte	0xd
ARM GAS  C:\Users\Mattia\AppData\Local\Temp\ccPr8Am1.s 			page 66


 3268 0860 00       		.byte	0
 3269 0861 0D       		.uleb128 0xd
 3270 0862 3C000000 		.4byte	.LASF126
 3271 0866 10       		.byte	0x10
 3272 0867 07       		.byte	0x7
 3273 0868 B501     		.2byte	0x1b5
 3274 086a A3080000 		.4byte	0x8a3
 3275 086e 0E       		.uleb128 0xe
 3276 086f 00000000 		.4byte	.LASF127
 3277 0873 07       		.byte	0x7
 3278 0874 B601     		.2byte	0x1b6
 3279 0876 BD000000 		.4byte	0xbd
 3280 087a 00       		.byte	0
 3281 087b 0E       		.uleb128 0xe
 3282 087c A3050000 		.4byte	.LASF128
 3283 0880 07       		.byte	0x7
 3284 0881 B701     		.2byte	0x1b7
 3285 0883 D5000000 		.4byte	0xd5
 3286 0887 04       		.byte	0x4
 3287 0888 0E       		.uleb128 0xe
 3288 0889 C4040000 		.4byte	.LASF129
 3289 088d 07       		.byte	0x7
 3290 088e B801     		.2byte	0x1b8
 3291 0890 D5000000 		.4byte	0xd5
 3292 0894 08       		.byte	0x8
 3293 0895 0E       		.uleb128 0xe
 3294 0896 9C040000 		.4byte	.LASF61
 3295 089a 07       		.byte	0x7
 3296 089b B901     		.2byte	0x1b9
 3297 089d A3080000 		.4byte	0x8a3
 3298 08a1 0C       		.byte	0xc
 3299 08a2 00       		.byte	0
 3300 08a3 07       		.uleb128 0x7
 3301 08a4 81000000 		.4byte	0x81
 3302 08a8 B3080000 		.4byte	0x8b3
 3303 08ac 08       		.uleb128 0x8
 3304 08ad F1000000 		.4byte	0xf1
 3305 08b1 03       		.byte	0x3
 3306 08b2 00       		.byte	0
 3307 08b3 0D       		.uleb128 0xd
 3308 08b4 F8050000 		.4byte	.LASF130
 3309 08b8 12       		.byte	0x12
 3310 08b9 07       		.byte	0x7
 3311 08ba C001     		.2byte	0x1c0
 3312 08bc F5080000 		.4byte	0x8f5
 3313 08c0 0E       		.uleb128 0xe
 3314 08c1 A0010000 		.4byte	.LASF131
 3315 08c5 07       		.byte	0x7
 3316 08c6 C101     		.2byte	0x1c1
 3317 08c8 81000000 		.4byte	0x81
 3318 08cc 00       		.byte	0
 3319 08cd 0E       		.uleb128 0xe
 3320 08ce F4020000 		.4byte	.LASF132
 3321 08d2 07       		.byte	0x7
 3322 08d3 C201     		.2byte	0x1c2
 3323 08d5 52060000 		.4byte	0x652
 3324 08d9 02       		.byte	0x2
ARM GAS  C:\Users\Mattia\AppData\Local\Temp\ccPr8Am1.s 			page 67


 3325 08da 0E       		.uleb128 0xe
 3326 08db B7000000 		.4byte	.LASF133
 3327 08df 07       		.byte	0x7
 3328 08e0 C301     		.2byte	0x1c3
 3329 08e2 81000000 		.4byte	0x81
 3330 08e6 06       		.byte	0x6
 3331 08e7 0E       		.uleb128 0xe
 3332 08e8 9C040000 		.4byte	.LASF61
 3333 08ec 07       		.byte	0x7
 3334 08ed C401     		.2byte	0x1c4
 3335 08ef F5080000 		.4byte	0x8f5
 3336 08f3 07       		.byte	0x7
 3337 08f4 00       		.byte	0
 3338 08f5 07       		.uleb128 0x7
 3339 08f6 81000000 		.4byte	0x81
 3340 08fa 05090000 		.4byte	0x905
 3341 08fe 08       		.uleb128 0x8
 3342 08ff F1000000 		.4byte	0xf1
 3343 0903 09       		.byte	0x9
 3344 0904 00       		.byte	0
 3345 0905 10       		.uleb128 0x10
 3346 0906 15030000 		.4byte	.LASF134
 3347 090a F402     		.2byte	0x2f4
 3348 090c 07       		.byte	0x7
 3349 090d CD01     		.2byte	0x1cd
 3350 090f EA090000 		.4byte	0x9ea
 3351 0913 0E       		.uleb128 0xe
 3352 0914 54070000 		.4byte	.LASF135
 3353 0918 07       		.byte	0x7
 3354 0919 CF01     		.2byte	0x1cf
 3355 091b 81000000 		.4byte	0x81
 3356 091f 00       		.byte	0
 3357 0920 0E       		.uleb128 0xe
 3358 0921 9C040000 		.4byte	.LASF61
 3359 0925 07       		.byte	0x7
 3360 0926 D001     		.2byte	0x1d0
 3361 0928 EA090000 		.4byte	0x9ea
 3362 092c 01       		.byte	0x1
 3363 092d 0F       		.uleb128 0xf
 3364 092e 636E7400 		.ascii	"cnt\000"
 3365 0932 07       		.byte	0x7
 3366 0933 D101     		.2byte	0x1d1
 3367 0935 7E020000 		.4byte	0x27e
 3368 0939 10       		.byte	0x10
 3369 093a 0E       		.uleb128 0xe
 3370 093b C1020000 		.4byte	.LASF136
 3371 093f 07       		.byte	0x7
 3372 0940 D201     		.2byte	0x1d2
 3373 0942 FA090000 		.4byte	0x9fa
 3374 0946 60       		.byte	0x60
 3375 0947 0F       		.uleb128 0xf
 3376 0948 64657600 		.ascii	"dev\000"
 3377 094c 07       		.byte	0x7
 3378 094d D301     		.2byte	0x1d3
 3379 094f 17030000 		.4byte	0x317
 3380 0953 A0       		.byte	0xa0
 3381 0954 0E       		.uleb128 0xe
ARM GAS  C:\Users\Mattia\AppData\Local\Temp\ccPr8Am1.s 			page 68


 3382 0955 84060000 		.4byte	.LASF137
 3383 0959 07       		.byte	0x7
 3384 095a D401     		.2byte	0x1d4
 3385 095c 0A0A0000 		.4byte	0xa0a
 3386 0960 B0       		.byte	0xb0
 3387 0961 11       		.uleb128 0x11
 3388 0962 656E6300 		.ascii	"enc\000"
 3389 0966 07       		.byte	0x7
 3390 0967 D501     		.2byte	0x1d5
 3391 0969 1A0A0000 		.4byte	0xa1a
 3392 096d 9001     		.2byte	0x190
 3393 096f 11       		.uleb128 0x11
 3394 0970 656D6700 		.ascii	"emg\000"
 3395 0974 07       		.byte	0x7
 3396 0975 D601     		.2byte	0x1d6
 3397 0977 03060000 		.4byte	0x603
 3398 097b F001     		.2byte	0x1f0
 3399 097d 11       		.uleb128 0x11
 3400 097e 696D7500 		.ascii	"imu\000"
 3401 0982 07       		.byte	0x7
 3402 0983 D701     		.2byte	0x1d7
 3403 0985 72060000 		.4byte	0x672
 3404 0989 0002     		.2byte	0x200
 3405 098b 11       		.uleb128 0x11
 3406 098c 65787000 		.ascii	"exp\000"
 3407 0990 07       		.byte	0x7
 3408 0991 D801     		.2byte	0x1d8
 3409 0993 CA060000 		.4byte	0x6ca
 3410 0997 2002     		.2byte	0x220
 3411 0999 12       		.uleb128 0x12
 3412 099a D5060000 		.4byte	.LASF138
 3413 099e 07       		.byte	0x7
 3414 099f D901     		.2byte	0x1d9
 3415 09a1 2A0A0000 		.4byte	0xa2a
 3416 09a5 4002     		.2byte	0x240
 3417 09a7 11       		.uleb128 0x11
 3418 09a8 534800   		.ascii	"SH\000"
 3419 09ab 07       		.byte	0x7
 3420 09ac DB01     		.2byte	0x1db
 3421 09ae 8B070000 		.4byte	0x78b
 3422 09b2 A002     		.2byte	0x2a0
 3423 09b4 12       		.uleb128 0x12
 3424 09b5 47000000 		.4byte	.LASF139
 3425 09b9 07       		.byte	0x7
 3426 09ba DC01     		.2byte	0x1dc
 3427 09bc DA070000 		.4byte	0x7da
 3428 09c0 B002     		.2byte	0x2b0
 3429 09c2 11       		.uleb128 0x11
 3430 09c3 4D5300   		.ascii	"MS\000"
 3431 09c6 07       		.byte	0x7
 3432 09c7 DD01     		.2byte	0x1dd
 3433 09c9 1C080000 		.4byte	0x81c
 3434 09cd C002     		.2byte	0x2c0
 3435 09cf 11       		.uleb128 0x11
 3436 09d0 464200   		.ascii	"FB\000"
 3437 09d3 07       		.byte	0x7
 3438 09d4 DE01     		.2byte	0x1de
ARM GAS  C:\Users\Mattia\AppData\Local\Temp\ccPr8Am1.s 			page 69


 3439 09d6 61080000 		.4byte	0x861
 3440 09da D002     		.2byte	0x2d0
 3441 09dc 11       		.uleb128 0x11
 3442 09dd 575200   		.ascii	"WR\000"
 3443 09e0 07       		.byte	0x7
 3444 09e1 DF01     		.2byte	0x1df
 3445 09e3 B3080000 		.4byte	0x8b3
 3446 09e7 E002     		.2byte	0x2e0
 3447 09e9 00       		.byte	0
 3448 09ea 07       		.uleb128 0x7
 3449 09eb 81000000 		.4byte	0x81
 3450 09ef FA090000 		.4byte	0x9fa
 3451 09f3 08       		.uleb128 0x8
 3452 09f4 F1000000 		.4byte	0xf1
 3453 09f8 0E       		.byte	0xe
 3454 09f9 00       		.byte	0
 3455 09fa 07       		.uleb128 0x7
 3456 09fb 81000000 		.4byte	0x81
 3457 09ff 0A0A0000 		.4byte	0xa0a
 3458 0a03 08       		.uleb128 0x8
 3459 0a04 F1000000 		.4byte	0xf1
 3460 0a08 3F       		.byte	0x3f
 3461 0a09 00       		.byte	0
 3462 0a0a 07       		.uleb128 0x7
 3463 0a0b B6030000 		.4byte	0x3b6
 3464 0a0f 1A0A0000 		.4byte	0xa1a
 3465 0a13 08       		.uleb128 0x8
 3466 0a14 F1000000 		.4byte	0xf1
 3467 0a18 01       		.byte	0x1
 3468 0a19 00       		.byte	0
 3469 0a1a 07       		.uleb128 0x7
 3470 0a1b 50050000 		.4byte	0x550
 3471 0a1f 2A0A0000 		.4byte	0xa2a
 3472 0a23 08       		.uleb128 0x8
 3473 0a24 F1000000 		.4byte	0xf1
 3474 0a28 01       		.byte	0x1
 3475 0a29 00       		.byte	0
 3476 0a2a 07       		.uleb128 0x7
 3477 0a2b 56070000 		.4byte	0x756
 3478 0a2f 3A0A0000 		.4byte	0xa3a
 3479 0a33 08       		.uleb128 0x8
 3480 0a34 F1000000 		.4byte	0xf1
 3481 0a38 02       		.byte	0x2
 3482 0a39 00       		.byte	0
 3483 0a3a 13       		.uleb128 0x13
 3484 0a3b 67060000 		.4byte	.LASF142
 3485 0a3f 01       		.byte	0x1
 3486 0a40 31       		.byte	0x31
 3487 0a41 00000000 		.4byte	.LFB64
 3488 0a45 46000000 		.4byte	.LFE64-.LFB64
 3489 0a49 01       		.uleb128 0x1
 3490 0a4a 9C       		.byte	0x9c
 3491 0a4b 6C0A0000 		.4byte	0xa6c
 3492 0a4f 14       		.uleb128 0x14
 3493 0a50 D5050000 		.4byte	.LASF140
 3494 0a54 01       		.byte	0x1
 3495 0a55 31       		.byte	0x31
ARM GAS  C:\Users\Mattia\AppData\Local\Temp\ccPr8Am1.s 			page 70


 3496 0a56 81000000 		.4byte	0x81
 3497 0a5a 02       		.uleb128 0x2
 3498 0a5b 91       		.byte	0x91
 3499 0a5c 77       		.sleb128 -9
 3500 0a5d 14       		.uleb128 0x14
 3501 0a5e DA060000 		.4byte	.LASF141
 3502 0a62 01       		.byte	0x1
 3503 0a63 31       		.byte	0x31
 3504 0a64 81000000 		.4byte	0x81
 3505 0a68 02       		.uleb128 0x2
 3506 0a69 91       		.byte	0x91
 3507 0a6a 76       		.sleb128 -10
 3508 0a6b 00       		.byte	0
 3509 0a6c 13       		.uleb128 0x13
 3510 0a6d FF040000 		.4byte	.LASF143
 3511 0a71 01       		.byte	0x1
 3512 0a72 3D       		.byte	0x3d
 3513 0a73 00000000 		.4byte	.LFB65
 3514 0a77 1A000000 		.4byte	.LFE65-.LFB65
 3515 0a7b 01       		.uleb128 0x1
 3516 0a7c 9C       		.byte	0x9c
 3517 0a7d 900A0000 		.4byte	0xa90
 3518 0a81 14       		.uleb128 0x14
 3519 0a82 DA060000 		.4byte	.LASF141
 3520 0a86 01       		.byte	0x1
 3521 0a87 3D       		.byte	0x3d
 3522 0a88 81000000 		.4byte	0x81
 3523 0a8c 02       		.uleb128 0x2
 3524 0a8d 91       		.byte	0x91
 3525 0a8e 77       		.sleb128 -9
 3526 0a8f 00       		.byte	0
 3527 0a90 15       		.uleb128 0x15
 3528 0a91 63040000 		.4byte	.LASF172
 3529 0a95 01       		.byte	0x1
 3530 0a96 43       		.byte	0x43
 3531 0a97 81000000 		.4byte	0x81
 3532 0a9b 00000000 		.4byte	.LFB66
 3533 0a9f 42000000 		.4byte	.LFE66-.LFB66
 3534 0aa3 01       		.uleb128 0x1
 3535 0aa4 9C       		.byte	0x9c
 3536 0aa5 C60A0000 		.4byte	0xac6
 3537 0aa9 14       		.uleb128 0x14
 3538 0aaa D5050000 		.4byte	.LASF140
 3539 0aae 01       		.byte	0x1
 3540 0aaf 43       		.byte	0x43
 3541 0ab0 81000000 		.4byte	0x81
 3542 0ab4 02       		.uleb128 0x2
 3543 0ab5 91       		.byte	0x91
 3544 0ab6 6F       		.sleb128 -17
 3545 0ab7 16       		.uleb128 0x16
 3546 0ab8 A0070000 		.4byte	.LASF145
 3547 0abc 01       		.byte	0x1
 3548 0abd 45       		.byte	0x45
 3549 0abe 81000000 		.4byte	0x81
 3550 0ac2 02       		.uleb128 0x2
 3551 0ac3 91       		.byte	0x91
 3552 0ac4 77       		.sleb128 -9
ARM GAS  C:\Users\Mattia\AppData\Local\Temp\ccPr8Am1.s 			page 71


 3553 0ac5 00       		.byte	0
 3554 0ac6 17       		.uleb128 0x17
 3555 0ac7 95020000 		.4byte	.LASF144
 3556 0acb 01       		.byte	0x1
 3557 0acc 51       		.byte	0x51
 3558 0acd 81000000 		.4byte	0x81
 3559 0ad1 00000000 		.4byte	.LFB67
 3560 0ad5 5C000000 		.4byte	.LFE67-.LFB67
 3561 0ad9 01       		.uleb128 0x1
 3562 0ada 9C       		.byte	0x9c
 3563 0adb 080B0000 		.4byte	0xb08
 3564 0adf 16       		.uleb128 0x16
 3565 0ae0 65030000 		.4byte	.LASF146
 3566 0ae4 01       		.byte	0x1
 3567 0ae5 53       		.byte	0x53
 3568 0ae6 81000000 		.4byte	0x81
 3569 0aea 02       		.uleb128 0x2
 3570 0aeb 91       		.byte	0x91
 3571 0aec 77       		.sleb128 -9
 3572 0aed 16       		.uleb128 0x16
 3573 0aee CA060000 		.4byte	.LASF147
 3574 0af2 01       		.byte	0x1
 3575 0af3 54       		.byte	0x54
 3576 0af4 81000000 		.4byte	0x81
 3577 0af8 02       		.uleb128 0x2
 3578 0af9 91       		.byte	0x91
 3579 0afa 6F       		.sleb128 -17
 3580 0afb 18       		.uleb128 0x18
 3581 0afc 6900     		.ascii	"i\000"
 3582 0afe 01       		.byte	0x1
 3583 0aff 55       		.byte	0x55
 3584 0b00 68000000 		.4byte	0x68
 3585 0b04 02       		.uleb128 0x2
 3586 0b05 91       		.byte	0x91
 3587 0b06 70       		.sleb128 -16
 3588 0b07 00       		.byte	0
 3589 0b08 13       		.uleb128 0x13
 3590 0b09 26080000 		.4byte	.LASF148
 3591 0b0d 01       		.byte	0x1
 3592 0b0e 61       		.byte	0x61
 3593 0b0f 00000000 		.4byte	.LFB68
 3594 0b13 4C000000 		.4byte	.LFE68-.LFB68
 3595 0b17 01       		.uleb128 0x1
 3596 0b18 9C       		.byte	0x9c
 3597 0b19 380B0000 		.4byte	0xb38
 3598 0b1d 19       		.uleb128 0x19
 3599 0b1e 76616C00 		.ascii	"val\000"
 3600 0b22 01       		.byte	0x1
 3601 0b23 61       		.byte	0x61
 3602 0b24 81000000 		.4byte	0x81
 3603 0b28 02       		.uleb128 0x2
 3604 0b29 91       		.byte	0x91
 3605 0b2a 6F       		.sleb128 -17
 3606 0b2b 18       		.uleb128 0x18
 3607 0b2c 6900     		.ascii	"i\000"
 3608 0b2e 01       		.byte	0x1
 3609 0b2f 63       		.byte	0x63
ARM GAS  C:\Users\Mattia\AppData\Local\Temp\ccPr8Am1.s 			page 72


 3610 0b30 81000000 		.4byte	0x81
 3611 0b34 02       		.uleb128 0x2
 3612 0b35 91       		.byte	0x91
 3613 0b36 77       		.sleb128 -9
 3614 0b37 00       		.byte	0
 3615 0b38 1A       		.uleb128 0x1a
 3616 0b39 B3060000 		.4byte	.LASF150
 3617 0b3d 01       		.byte	0x1
 3618 0b3e 6B       		.byte	0x6b
 3619 0b3f 00000000 		.4byte	.LFB69
 3620 0b43 1C010000 		.4byte	.LFE69-.LFB69
 3621 0b47 01       		.uleb128 0x1
 3622 0b48 9C       		.byte	0x9c
 3623 0b49 5C0B0000 		.4byte	0xb5c
 3624 0b4d 16       		.uleb128 0x16
 3625 0b4e 5A040000 		.4byte	.LASF149
 3626 0b52 01       		.byte	0x1
 3627 0b53 6C       		.byte	0x6c
 3628 0b54 81000000 		.4byte	0x81
 3629 0b58 02       		.uleb128 0x2
 3630 0b59 91       		.byte	0x91
 3631 0b5a 77       		.sleb128 -9
 3632 0b5b 00       		.byte	0
 3633 0b5c 1B       		.uleb128 0x1b
 3634 0b5d 57020000 		.4byte	.LASF205
 3635 0b61 01       		.byte	0x1
 3636 0b62 7F       		.byte	0x7f
 3637 0b63 00000000 		.4byte	.LFB70
 3638 0b67 6C010000 		.4byte	.LFE70-.LFB70
 3639 0b6b 01       		.uleb128 0x1
 3640 0b6c 9C       		.byte	0x9c
 3641 0b6d 1A       		.uleb128 0x1a
 3642 0b6e 99050000 		.4byte	.LASF151
 3643 0b72 01       		.byte	0x1
 3644 0b73 8B       		.byte	0x8b
 3645 0b74 00000000 		.4byte	.LFB71
 3646 0b78 5C040000 		.4byte	.LFE71-.LFB71
 3647 0b7c 01       		.uleb128 0x1
 3648 0b7d 9C       		.byte	0x9c
 3649 0b7e 2F0C0000 		.4byte	0xc2f
 3650 0b82 16       		.uleb128 0x16
 3651 0b83 4B080000 		.4byte	.LASF152
 3652 0b87 01       		.byte	0x1
 3653 0b88 8F       		.byte	0x8f
 3654 0b89 2F0C0000 		.4byte	0xc2f
 3655 0b8d 03       		.uleb128 0x3
 3656 0b8e 91       		.byte	0x91
 3657 0b8f F87E     		.sleb128 -136
 3658 0b91 16       		.uleb128 0x16
 3659 0b92 6A000000 		.4byte	.LASF153
 3660 0b96 01       		.byte	0x1
 3661 0b97 90       		.byte	0x90
 3662 0b98 2F0C0000 		.4byte	0xc2f
 3663 0b9c 03       		.uleb128 0x3
 3664 0b9d 91       		.byte	0x91
 3665 0b9e 947E     		.sleb128 -236
 3666 0ba0 16       		.uleb128 0x16
ARM GAS  C:\Users\Mattia\AppData\Local\Temp\ccPr8Am1.s 			page 73


 3667 0ba1 59070000 		.4byte	.LASF154
 3668 0ba5 01       		.byte	0x1
 3669 0ba6 91       		.byte	0x91
 3670 0ba7 3F0C0000 		.4byte	0xc3f
 3671 0bab 03       		.uleb128 0x3
 3672 0bac 91       		.byte	0x91
 3673 0bad D06A     		.sleb128 -2736
 3674 0baf 16       		.uleb128 0x16
 3675 0bb0 90060000 		.4byte	.LASF155
 3676 0bb4 01       		.byte	0x1
 3677 0bb5 92       		.byte	0x92
 3678 0bb6 3F0C0000 		.4byte	0xc3f
 3679 0bba 03       		.uleb128 0x3
 3680 0bbb 91       		.byte	0x91
 3681 0bbc 8C57     		.sleb128 -5236
 3682 0bbe 16       		.uleb128 0x16
 3683 0bbf 87010000 		.4byte	.LASF156
 3684 0bc3 01       		.byte	0x1
 3685 0bc4 93       		.byte	0x93
 3686 0bc5 500C0000 		.4byte	0xc50
 3687 0bc9 03       		.uleb128 0x3
 3688 0bca 91       		.byte	0x91
 3689 0bcb 8057     		.sleb128 -5248
 3690 0bcd 16       		.uleb128 0x16
 3691 0bce A6090000 		.4byte	.LASF157
 3692 0bd2 01       		.byte	0x1
 3693 0bd3 94       		.byte	0x94
 3694 0bd4 600C0000 		.4byte	0xc60
 3695 0bd8 03       		.uleb128 0x3
 3696 0bd9 91       		.byte	0x91
 3697 0bda F856     		.sleb128 -5256
 3698 0bdc 16       		.uleb128 0x16
 3699 0bdd D9010000 		.4byte	.LASF158
 3700 0be1 01       		.byte	0x1
 3701 0be2 95       		.byte	0x95
 3702 0be3 81000000 		.4byte	0x81
 3703 0be7 02       		.uleb128 0x2
 3704 0be8 91       		.byte	0x91
 3705 0be9 6F       		.sleb128 -17
 3706 0bea 16       		.uleb128 0x16
 3707 0beb 2C060000 		.4byte	.LASF159
 3708 0bef 01       		.byte	0x1
 3709 0bf0 96       		.byte	0x96
 3710 0bf1 81000000 		.4byte	0x81
 3711 0bf5 02       		.uleb128 0x2
 3712 0bf6 91       		.byte	0x91
 3713 0bf7 6E       		.sleb128 -18
 3714 0bf8 16       		.uleb128 0x16
 3715 0bf9 53030000 		.4byte	.LASF160
 3716 0bfd 01       		.byte	0x1
 3717 0bfe 97       		.byte	0x97
 3718 0bff 58020000 		.4byte	0x258
 3719 0c03 02       		.uleb128 0x2
 3720 0c04 91       		.byte	0x91
 3721 0c05 5C       		.sleb128 -36
 3722 0c06 16       		.uleb128 0x16
 3723 0c07 97000000 		.4byte	.LASF161
ARM GAS  C:\Users\Mattia\AppData\Local\Temp\ccPr8Am1.s 			page 74


 3724 0c0b 01       		.byte	0x1
 3725 0c0c 98       		.byte	0x98
 3726 0c0d 58020000 		.4byte	0x258
 3727 0c11 02       		.uleb128 0x2
 3728 0c12 91       		.byte	0x91
 3729 0c13 60       		.sleb128 -32
 3730 0c14 16       		.uleb128 0x16
 3731 0c15 89090000 		.4byte	.LASF162
 3732 0c19 01       		.byte	0x1
 3733 0c1a 99       		.byte	0x99
 3734 0c1b 700C0000 		.4byte	0xc70
 3735 0c1f 02       		.uleb128 0x2
 3736 0c20 91       		.byte	0x91
 3737 0c21 64       		.sleb128 -28
 3738 0c22 18       		.uleb128 0x18
 3739 0c23 6900     		.ascii	"i\000"
 3740 0c25 01       		.byte	0x1
 3741 0c26 9A       		.byte	0x9a
 3742 0c27 99000000 		.4byte	0x99
 3743 0c2b 02       		.uleb128 0x2
 3744 0c2c 91       		.byte	0x91
 3745 0c2d 68       		.sleb128 -24
 3746 0c2e 00       		.byte	0
 3747 0c2f 07       		.uleb128 0x7
 3748 0c30 E3000000 		.4byte	0xe3
 3749 0c34 3F0C0000 		.4byte	0xc3f
 3750 0c38 08       		.uleb128 0x8
 3751 0c39 F1000000 		.4byte	0xf1
 3752 0c3d 63       		.byte	0x63
 3753 0c3e 00       		.byte	0
 3754 0c3f 07       		.uleb128 0x7
 3755 0c40 E3000000 		.4byte	0xe3
 3756 0c44 500C0000 		.4byte	0xc50
 3757 0c48 1C       		.uleb128 0x1c
 3758 0c49 F1000000 		.4byte	0xf1
 3759 0c4d C309     		.2byte	0x9c3
 3760 0c4f 00       		.byte	0
 3761 0c50 07       		.uleb128 0x7
 3762 0c51 E3000000 		.4byte	0xe3
 3763 0c55 600C0000 		.4byte	0xc60
 3764 0c59 08       		.uleb128 0x8
 3765 0c5a F1000000 		.4byte	0xf1
 3766 0c5e 09       		.byte	0x9
 3767 0c5f 00       		.byte	0
 3768 0c60 07       		.uleb128 0x7
 3769 0c61 E3000000 		.4byte	0xe3
 3770 0c65 700C0000 		.4byte	0xc70
 3771 0c69 08       		.uleb128 0x8
 3772 0c6a F1000000 		.4byte	0xf1
 3773 0c6e 06       		.byte	0x6
 3774 0c6f 00       		.byte	0
 3775 0c70 06       		.uleb128 0x6
 3776 0c71 04       		.byte	0x4
 3777 0c72 0E010000 		.4byte	0x10e
 3778 0c76 1A       		.uleb128 0x1a
 3779 0c77 E9060000 		.4byte	.LASF163
 3780 0c7b 01       		.byte	0x1
ARM GAS  C:\Users\Mattia\AppData\Local\Temp\ccPr8Am1.s 			page 75


 3781 0c7c ED       		.byte	0xed
 3782 0c7d 00000000 		.4byte	.LFB72
 3783 0c81 4C000000 		.4byte	.LFE72-.LFB72
 3784 0c85 01       		.uleb128 0x1
 3785 0c86 9C       		.byte	0x9c
 3786 0c87 9B0C0000 		.4byte	0xc9b
 3787 0c8b 16       		.uleb128 0x16
 3788 0c8c 59070000 		.4byte	.LASF154
 3789 0c90 01       		.byte	0x1
 3790 0c91 EE       		.byte	0xee
 3791 0c92 3F0C0000 		.4byte	0xc3f
 3792 0c96 03       		.uleb128 0x3
 3793 0c97 91       		.byte	0x91
 3794 0c98 AC6C     		.sleb128 -2516
 3795 0c9a 00       		.byte	0
 3796 0c9b 13       		.uleb128 0x13
 3797 0c9c CF020000 		.4byte	.LASF164
 3798 0ca0 01       		.byte	0x1
 3799 0ca1 F7       		.byte	0xf7
 3800 0ca2 00000000 		.4byte	.LFB73
 3801 0ca6 48000000 		.4byte	.LFE73-.LFB73
 3802 0caa 01       		.uleb128 0x1
 3803 0cab 9C       		.byte	0x9c
 3804 0cac F40C0000 		.4byte	0xcf4
 3805 0cb0 14       		.uleb128 0x14
 3806 0cb1 BB040000 		.4byte	.LASF165
 3807 0cb5 01       		.byte	0x1
 3808 0cb6 F7       		.byte	0xf7
 3809 0cb7 F8000000 		.4byte	0xf8
 3810 0cbb 02       		.uleb128 0x2
 3811 0cbc 91       		.byte	0x91
 3812 0cbd 6C       		.sleb128 -20
 3813 0cbe 14       		.uleb128 0x14
 3814 0cbf 3F090000 		.4byte	.LASF166
 3815 0cc3 01       		.byte	0x1
 3816 0cc4 F7       		.byte	0xf7
 3817 0cc5 F8000000 		.4byte	0xf8
 3818 0cc9 02       		.uleb128 0x2
 3819 0cca 91       		.byte	0x91
 3820 0ccb 68       		.sleb128 -24
 3821 0ccc 19       		.uleb128 0x19
 3822 0ccd 6E5F7000 		.ascii	"n_p\000"
 3823 0cd1 01       		.byte	0x1
 3824 0cd2 F7       		.byte	0xf7
 3825 0cd3 68000000 		.4byte	0x68
 3826 0cd7 02       		.uleb128 0x2
 3827 0cd8 91       		.byte	0x91
 3828 0cd9 64       		.sleb128 -28
 3829 0cda 18       		.uleb128 0x18
 3830 0cdb 6900     		.ascii	"i\000"
 3831 0cdd 01       		.byte	0x1
 3832 0cde F8       		.byte	0xf8
 3833 0cdf 68000000 		.4byte	0x68
 3834 0ce3 02       		.uleb128 0x2
 3835 0ce4 91       		.byte	0x91
 3836 0ce5 70       		.sleb128 -16
 3837 0ce6 18       		.uleb128 0x18
ARM GAS  C:\Users\Mattia\AppData\Local\Temp\ccPr8Am1.s 			page 76


 3838 0ce7 704600   		.ascii	"pF\000"
 3839 0cea 01       		.byte	0x1
 3840 0ceb F9       		.byte	0xf9
 3841 0cec 58020000 		.4byte	0x258
 3842 0cf0 02       		.uleb128 0x2
 3843 0cf1 91       		.byte	0x91
 3844 0cf2 74       		.sleb128 -12
 3845 0cf3 00       		.byte	0
 3846 0cf4 1D       		.uleb128 0x1d
 3847 0cf5 A2000000 		.4byte	.LASF167
 3848 0cf9 01       		.byte	0x1
 3849 0cfa 0701     		.2byte	0x107
 3850 0cfc 00000000 		.4byte	.LFB74
 3851 0d00 6C000000 		.4byte	.LFE74-.LFB74
 3852 0d04 01       		.uleb128 0x1
 3853 0d05 9C       		.byte	0x9c
 3854 0d06 450D0000 		.4byte	0xd45
 3855 0d0a 1E       		.uleb128 0x1e
 3856 0d0b 36060000 		.4byte	.LASF168
 3857 0d0f 01       		.byte	0x1
 3858 0d10 0701     		.2byte	0x107
 3859 0d12 F8000000 		.4byte	0xf8
 3860 0d16 02       		.uleb128 0x2
 3861 0d17 91       		.byte	0x91
 3862 0d18 6C       		.sleb128 -20
 3863 0d19 1F       		.uleb128 0x1f
 3864 0d1a 6E5F6400 		.ascii	"n_d\000"
 3865 0d1e 01       		.byte	0x1
 3866 0d1f 0701     		.2byte	0x107
 3867 0d21 68000000 		.4byte	0x68
 3868 0d25 02       		.uleb128 0x2
 3869 0d26 91       		.byte	0x91
 3870 0d27 68       		.sleb128 -24
 3871 0d28 20       		.uleb128 0x20
 3872 0d29 6900     		.ascii	"i\000"
 3873 0d2b 01       		.byte	0x1
 3874 0d2c 0801     		.2byte	0x108
 3875 0d2e 68000000 		.4byte	0x68
 3876 0d32 02       		.uleb128 0x2
 3877 0d33 91       		.byte	0x91
 3878 0d34 70       		.sleb128 -16
 3879 0d35 21       		.uleb128 0x21
 3880 0d36 39030000 		.4byte	.LASF169
 3881 0d3a 01       		.byte	0x1
 3882 0d3b 0901     		.2byte	0x109
 3883 0d3d 58020000 		.4byte	0x258
 3884 0d41 02       		.uleb128 0x2
 3885 0d42 91       		.byte	0x91
 3886 0d43 74       		.sleb128 -12
 3887 0d44 00       		.byte	0
 3888 0d45 22       		.uleb128 0x22
 3889 0d46 20090000 		.4byte	.LASF170
 3890 0d4a 01       		.byte	0x1
 3891 0d4b 1C01     		.2byte	0x11c
 3892 0d4d 00000000 		.4byte	.LFB75
 3893 0d51 70000000 		.4byte	.LFE75-.LFB75
 3894 0d55 01       		.uleb128 0x1
ARM GAS  C:\Users\Mattia\AppData\Local\Temp\ccPr8Am1.s 			page 77


 3895 0d56 9C       		.byte	0x9c
 3896 0d57 870D0000 		.4byte	0xd87
 3897 0d5b 20       		.uleb128 0x20
 3898 0d5c 6900     		.ascii	"i\000"
 3899 0d5e 01       		.byte	0x1
 3900 0d5f 1D01     		.2byte	0x11d
 3901 0d61 68000000 		.4byte	0x68
 3902 0d65 02       		.uleb128 0x2
 3903 0d66 91       		.byte	0x91
 3904 0d67 70       		.sleb128 -16
 3905 0d68 21       		.uleb128 0x21
 3906 0d69 39030000 		.4byte	.LASF169
 3907 0d6d 01       		.byte	0x1
 3908 0d6e 1E01     		.2byte	0x11e
 3909 0d70 58020000 		.4byte	0x258
 3910 0d74 02       		.uleb128 0x2
 3911 0d75 91       		.byte	0x91
 3912 0d76 74       		.sleb128 -12
 3913 0d77 21       		.uleb128 0x21
 3914 0d78 5F090000 		.4byte	.LASF171
 3915 0d7c 01       		.byte	0x1
 3916 0d7d 1F01     		.2byte	0x11f
 3917 0d7f 500C0000 		.4byte	0xc50
 3918 0d83 02       		.uleb128 0x2
 3919 0d84 91       		.byte	0x91
 3920 0d85 64       		.sleb128 -28
 3921 0d86 00       		.byte	0
 3922 0d87 23       		.uleb128 0x23
 3923 0d88 26040000 		.4byte	.LASF173
 3924 0d8c 01       		.byte	0x1
 3925 0d8d 3701     		.2byte	0x137
 3926 0d8f 68000000 		.4byte	0x68
 3927 0d93 00000000 		.4byte	.LFB76
 3928 0d97 3C010000 		.4byte	.LFE76-.LFB76
 3929 0d9b 01       		.uleb128 0x1
 3930 0d9c 9C       		.byte	0x9c
 3931 0d9d 380E0000 		.4byte	0xe38
 3932 0da1 1E       		.uleb128 0x1e
 3933 0da2 61010000 		.4byte	.LASF174
 3934 0da6 01       		.byte	0x1
 3935 0da7 3701     		.2byte	0x137
 3936 0da9 F8000000 		.4byte	0xf8
 3937 0dad 03       		.uleb128 0x3
 3938 0dae 91       		.byte	0x91
 3939 0daf B47E     		.sleb128 -204
 3940 0db1 1E       		.uleb128 0x1e
 3941 0db2 E3020000 		.4byte	.LASF175
 3942 0db6 01       		.byte	0x1
 3943 0db7 3701     		.2byte	0x137
 3944 0db9 380E0000 		.4byte	0xe38
 3945 0dbd 03       		.uleb128 0x3
 3946 0dbe 91       		.byte	0x91
 3947 0dbf B07E     		.sleb128 -208
 3948 0dc1 1E       		.uleb128 0x1e
 3949 0dc2 01090000 		.4byte	.LASF176
 3950 0dc6 01       		.byte	0x1
 3951 0dc7 3701     		.2byte	0x137
ARM GAS  C:\Users\Mattia\AppData\Local\Temp\ccPr8Am1.s 			page 78


 3952 0dc9 68000000 		.4byte	0x68
 3953 0dcd 03       		.uleb128 0x3
 3954 0dce 91       		.byte	0x91
 3955 0dcf AC7E     		.sleb128 -212
 3956 0dd1 20       		.uleb128 0x20
 3957 0dd2 666400   		.ascii	"fd\000"
 3958 0dd5 01       		.byte	0x1
 3959 0dd6 3901     		.2byte	0x139
 3960 0dd8 4D020000 		.4byte	0x24d
 3961 0ddc 03       		.uleb128 0x3
 3962 0ddd 91       		.byte	0x91
 3963 0dde B07F     		.sleb128 -80
 3964 0de0 21       		.uleb128 0x21
 3965 0de1 BD010000 		.4byte	.LASF177
 3966 0de5 01       		.byte	0x1
 3967 0de6 3A01     		.2byte	0x13a
 3968 0de8 68000000 		.4byte	0x68
 3969 0dec 02       		.uleb128 0x2
 3970 0ded 91       		.byte	0x91
 3971 0dee 74       		.sleb128 -12
 3972 0def 21       		.uleb128 0x21
 3973 0df0 8E090000 		.4byte	.LASF178
 3974 0df4 01       		.byte	0x1
 3975 0df5 3B01     		.2byte	0x13b
 3976 0df7 3E0E0000 		.4byte	0xe3e
 3977 0dfb 03       		.uleb128 0x3
 3978 0dfc 91       		.byte	0x91
 3979 0dfd 9C7F     		.sleb128 -100
 3980 0dff 24       		.uleb128 0x24
 3981 0e00 28000000 		.4byte	.LBB2
 3982 0e04 E0000000 		.4byte	.LBE2-.LBB2
 3983 0e08 21       		.uleb128 0x21
 3984 0e09 89090000 		.4byte	.LASF162
 3985 0e0d 01       		.byte	0x1
 3986 0e0e 3F01     		.2byte	0x13f
 3987 0e10 700C0000 		.4byte	0xc70
 3988 0e14 02       		.uleb128 0x2
 3989 0e15 91       		.byte	0x91
 3990 0e16 70       		.sleb128 -16
 3991 0e17 21       		.uleb128 0x21
 3992 0e18 6F040000 		.4byte	.LASF179
 3993 0e1c 01       		.byte	0x1
 3994 0e1d 4001     		.2byte	0x140
 3995 0e1f 2F0C0000 		.4byte	0xc2f
 3996 0e23 03       		.uleb128 0x3
 3997 0e24 91       		.byte	0x91
 3998 0e25 B87E     		.sleb128 -200
 3999 0e27 21       		.uleb128 0x21
 4000 0e28 2E000000 		.4byte	.LASF180
 4001 0e2c 01       		.byte	0x1
 4002 0e2d 4601     		.2byte	0x146
 4003 0e2f 68000000 		.4byte	0x68
 4004 0e33 02       		.uleb128 0x2
 4005 0e34 91       		.byte	0x91
 4006 0e35 6C       		.sleb128 -20
 4007 0e36 00       		.byte	0
 4008 0e37 00       		.byte	0
ARM GAS  C:\Users\Mattia\AppData\Local\Temp\ccPr8Am1.s 			page 79


 4009 0e38 06       		.uleb128 0x6
 4010 0e39 04       		.byte	0x4
 4011 0e3a FE000000 		.4byte	0xfe
 4012 0e3e 07       		.uleb128 0x7
 4013 0e3f E3000000 		.4byte	0xe3
 4014 0e43 4E0E0000 		.4byte	0xe4e
 4015 0e47 08       		.uleb128 0x8
 4016 0e48 F1000000 		.4byte	0xf1
 4017 0e4c 13       		.byte	0x13
 4018 0e4d 00       		.byte	0
 4019 0e4e 1D       		.uleb128 0x1d
 4020 0e4f 64020000 		.4byte	.LASF181
 4021 0e53 01       		.byte	0x1
 4022 0e54 5A01     		.2byte	0x15a
 4023 0e56 00000000 		.4byte	.LFB77
 4024 0e5a DC050000 		.4byte	.LFE77-.LFB77
 4025 0e5e 01       		.uleb128 0x1
 4026 0e5f 9C       		.byte	0x9c
 4027 0e60 F40F0000 		.4byte	0xff4
 4028 0e64 1E       		.uleb128 0x1e
 4029 0e65 36060000 		.4byte	.LASF168
 4030 0e69 01       		.byte	0x1
 4031 0e6a 5A01     		.2byte	0x15a
 4032 0e6c F8000000 		.4byte	0xf8
 4033 0e70 04       		.uleb128 0x4
 4034 0e71 91       		.byte	0x91
 4035 0e72 E4BE7E   		.sleb128 -24732
 4036 0e75 21       		.uleb128 0x21
 4037 0e76 57060000 		.4byte	.LASF182
 4038 0e7a 01       		.byte	0x1
 4039 0e7b 6501     		.2byte	0x165
 4040 0e7d 68000000 		.4byte	0x68
 4041 0e81 02       		.uleb128 0x2
 4042 0e82 91       		.byte	0x91
 4043 0e83 4C       		.sleb128 -52
 4044 0e84 21       		.uleb128 0x21
 4045 0e85 0B0A0000 		.4byte	.LASF183
 4046 0e89 01       		.byte	0x1
 4047 0e8a 6601     		.2byte	0x166
 4048 0e8c F40F0000 		.4byte	0xff4
 4049 0e90 03       		.uleb128 0x3
 4050 0e91 91       		.byte	0x91
 4051 0e92 A07E     		.sleb128 -224
 4052 0e94 21       		.uleb128 0x21
 4053 0e95 46020000 		.4byte	.LASF184
 4054 0e99 01       		.byte	0x1
 4055 0e9a 6701     		.2byte	0x167
 4056 0e9c 0A100000 		.4byte	0x100a
 4057 0ea0 04       		.uleb128 0x4
 4058 0ea1 91       		.byte	0x91
 4059 0ea2 E0C27E   		.sleb128 -24224
 4060 0ea5 21       		.uleb128 0x21
 4061 0ea6 F2050000 		.4byte	.LASF185
 4062 0eaa 01       		.byte	0x1
 4063 0eab 7101     		.2byte	0x171
 4064 0ead 68000000 		.4byte	0x68
 4065 0eb1 02       		.uleb128 0x2
ARM GAS  C:\Users\Mattia\AppData\Local\Temp\ccPr8Am1.s 			page 80


 4066 0eb2 91       		.byte	0x91
 4067 0eb3 68       		.sleb128 -24
 4068 0eb4 25       		.uleb128 0x25
 4069 0eb5 68000000 		.4byte	.LBB3
 4070 0eb9 6C000000 		.4byte	.LBE3-.LBB3
 4071 0ebd CF0E0000 		.4byte	0xecf
 4072 0ec1 20       		.uleb128 0x20
 4073 0ec2 6900     		.ascii	"i\000"
 4074 0ec4 01       		.byte	0x1
 4075 0ec5 6C01     		.2byte	0x16c
 4076 0ec7 68000000 		.4byte	0x68
 4077 0ecb 02       		.uleb128 0x2
 4078 0ecc 91       		.byte	0x91
 4079 0ecd 6C       		.sleb128 -20
 4080 0ece 00       		.byte	0
 4081 0ecf 24       		.uleb128 0x24
 4082 0ed0 F2000000 		.4byte	.LBB4
 4083 0ed4 D6040000 		.4byte	.LBE4-.LBB4
 4084 0ed8 20       		.uleb128 0x20
 4085 0ed9 6900     		.ascii	"i\000"
 4086 0edb 01       		.byte	0x1
 4087 0edc 7201     		.2byte	0x172
 4088 0ede 68000000 		.4byte	0x68
 4089 0ee2 02       		.uleb128 0x2
 4090 0ee3 91       		.byte	0x91
 4091 0ee4 64       		.sleb128 -28
 4092 0ee5 24       		.uleb128 0x24
 4093 0ee6 00010000 		.4byte	.LBB5
 4094 0eea 98040000 		.4byte	.LBE5-.LBB5
 4095 0eee 21       		.uleb128 0x21
 4096 0eef 19020000 		.4byte	.LASF186
 4097 0ef3 01       		.byte	0x1
 4098 0ef4 7301     		.2byte	0x173
 4099 0ef6 2F0C0000 		.4byte	0xc2f
 4100 0efa 04       		.uleb128 0x4
 4101 0efb 91       		.byte	0x91
 4102 0efc ECBE7E   		.sleb128 -24724
 4103 0eff 21       		.uleb128 0x21
 4104 0f00 91070000 		.4byte	.LASF187
 4105 0f04 01       		.byte	0x1
 4106 0f05 7701     		.2byte	0x177
 4107 0f07 68000000 		.4byte	0x68
 4108 0f0b 02       		.uleb128 0x2
 4109 0f0c 91       		.byte	0x91
 4110 0f0d 48       		.sleb128 -56
 4111 0f0e 21       		.uleb128 0x21
 4112 0f0f 98070000 		.4byte	.LASF188
 4113 0f13 01       		.byte	0x1
 4114 0f14 7801     		.2byte	0x178
 4115 0f16 68000000 		.4byte	0x68
 4116 0f1a 02       		.uleb128 0x2
 4117 0f1b 91       		.byte	0x91
 4118 0f1c 60       		.sleb128 -32
 4119 0f1d 21       		.uleb128 0x21
 4120 0f1e 2C020000 		.4byte	.LASF189
 4121 0f22 01       		.byte	0x1
 4122 0f23 7801     		.2byte	0x178
ARM GAS  C:\Users\Mattia\AppData\Local\Temp\ccPr8Am1.s 			page 81


 4123 0f25 68000000 		.4byte	0x68
 4124 0f29 02       		.uleb128 0x2
 4125 0f2a 91       		.byte	0x91
 4126 0f2b 5C       		.sleb128 -36
 4127 0f2c 24       		.uleb128 0x24
 4128 0f2d 96010000 		.4byte	.LBB6
 4129 0f31 CE030000 		.4byte	.LBE6-.LBB6
 4130 0f35 20       		.uleb128 0x20
 4131 0f36 6A00     		.ascii	"j\000"
 4132 0f38 01       		.byte	0x1
 4133 0f39 7901     		.2byte	0x179
 4134 0f3b 68000000 		.4byte	0x68
 4135 0f3f 02       		.uleb128 0x2
 4136 0f40 91       		.byte	0x91
 4137 0f41 58       		.sleb128 -40
 4138 0f42 24       		.uleb128 0x24
 4139 0f43 A4010000 		.4byte	.LBB7
 4140 0f47 90030000 		.4byte	.LBE7-.LBB7
 4141 0f4b 21       		.uleb128 0x21
 4142 0f4c 260A0000 		.4byte	.LASF190
 4143 0f50 01       		.byte	0x1
 4144 0f51 7A01     		.2byte	0x17a
 4145 0f53 2F0C0000 		.4byte	0xc2f
 4146 0f57 04       		.uleb128 0x4
 4147 0f58 91       		.byte	0x91
 4148 0f59 D0BF7E   		.sleb128 -24624
 4149 0f5c 24       		.uleb128 0x24
 4150 0f5d 4C020000 		.4byte	.LBB8
 4151 0f61 E8020000 		.4byte	.LBE8-.LBB8
 4152 0f65 20       		.uleb128 0x20
 4153 0f66 6B00     		.ascii	"k\000"
 4154 0f68 01       		.byte	0x1
 4155 0f69 7F01     		.2byte	0x17f
 4156 0f6b 68000000 		.4byte	0x68
 4157 0f6f 02       		.uleb128 0x2
 4158 0f70 91       		.byte	0x91
 4159 0f71 54       		.sleb128 -44
 4160 0f72 24       		.uleb128 0x24
 4161 0f73 5A020000 		.4byte	.LBB9
 4162 0f77 AE020000 		.4byte	.LBE9-.LBB9
 4163 0f7b 21       		.uleb128 0x21
 4164 0f7c 170A0000 		.4byte	.LASF191
 4165 0f80 01       		.byte	0x1
 4166 0f81 8001     		.2byte	0x180
 4167 0f83 2F0C0000 		.4byte	0xc2f
 4168 0f87 04       		.uleb128 0x4
 4169 0f88 91       		.byte	0x91
 4170 0f89 B4C07E   		.sleb128 -24524
 4171 0f8c 24       		.uleb128 0x24
 4172 0f8d 1A030000 		.4byte	.LBB10
 4173 0f91 EE010000 		.4byte	.LBE10-.LBB10
 4174 0f95 20       		.uleb128 0x20
 4175 0f96 6800     		.ascii	"h\000"
 4176 0f98 01       		.byte	0x1
 4177 0f99 8501     		.2byte	0x185
 4178 0f9b 68000000 		.4byte	0x68
 4179 0f9f 02       		.uleb128 0x2
ARM GAS  C:\Users\Mattia\AppData\Local\Temp\ccPr8Am1.s 			page 82


 4180 0fa0 91       		.byte	0x91
 4181 0fa1 50       		.sleb128 -48
 4182 0fa2 24       		.uleb128 0x24
 4183 0fa3 2C030000 		.4byte	.LBB11
 4184 0fa7 AC010000 		.4byte	.LBE11-.LBB11
 4185 0fab 21       		.uleb128 0x21
 4186 0fac B8050000 		.4byte	.LASF192
 4187 0fb0 01       		.byte	0x1
 4188 0fb1 8701     		.2byte	0x187
 4189 0fb3 2F0C0000 		.4byte	0xc2f
 4190 0fb7 04       		.uleb128 0x4
 4191 0fb8 91       		.byte	0x91
 4192 0fb9 98C17E   		.sleb128 -24424
 4193 0fbc 21       		.uleb128 0x21
 4194 0fbd 89090000 		.4byte	.LASF162
 4195 0fc1 01       		.byte	0x1
 4196 0fc2 8D01     		.2byte	0x18d
 4197 0fc4 700C0000 		.4byte	0xc70
 4198 0fc8 02       		.uleb128 0x2
 4199 0fc9 91       		.byte	0x91
 4200 0fca 44       		.sleb128 -60
 4201 0fcb 21       		.uleb128 0x21
 4202 0fcc E2060000 		.4byte	.LASF193
 4203 0fd0 01       		.byte	0x1
 4204 0fd1 8E01     		.2byte	0x18e
 4205 0fd3 68000000 		.4byte	0x68
 4206 0fd7 02       		.uleb128 0x2
 4207 0fd8 91       		.byte	0x91
 4208 0fd9 40       		.sleb128 -64
 4209 0fda 20       		.uleb128 0x20
 4210 0fdb 73747200 		.ascii	"str\000"
 4211 0fdf 01       		.byte	0x1
 4212 0fe0 9101     		.2byte	0x191
 4213 0fe2 2F0C0000 		.4byte	0xc2f
 4214 0fe6 04       		.uleb128 0x4
 4215 0fe7 91       		.byte	0x91
 4216 0fe8 FCC17E   		.sleb128 -24324
 4217 0feb 00       		.byte	0
 4218 0fec 00       		.byte	0
 4219 0fed 00       		.byte	0
 4220 0fee 00       		.byte	0
 4221 0fef 00       		.byte	0
 4222 0ff0 00       		.byte	0
 4223 0ff1 00       		.byte	0
 4224 0ff2 00       		.byte	0
 4225 0ff3 00       		.byte	0
 4226 0ff4 07       		.uleb128 0x7
 4227 0ff5 E3000000 		.4byte	0xe3
 4228 0ff9 0A100000 		.4byte	0x100a
 4229 0ffd 08       		.uleb128 0x8
 4230 0ffe F1000000 		.4byte	0xf1
 4231 1002 13       		.byte	0x13
 4232 1003 08       		.uleb128 0x8
 4233 1004 F1000000 		.4byte	0xf1
 4234 1008 07       		.byte	0x7
 4235 1009 00       		.byte	0
 4236 100a 07       		.uleb128 0x7
ARM GAS  C:\Users\Mattia\AppData\Local\Temp\ccPr8Am1.s 			page 83


 4237 100b E3000000 		.4byte	0xe3
 4238 100f 21100000 		.4byte	0x1021
 4239 1013 1C       		.uleb128 0x1c
 4240 1014 F1000000 		.4byte	0xf1
 4241 1018 B70B     		.2byte	0xbb7
 4242 101a 08       		.uleb128 0x8
 4243 101b F1000000 		.4byte	0xf1
 4244 101f 07       		.byte	0x7
 4245 1020 00       		.byte	0
 4246 1021 26       		.uleb128 0x26
 4247 1022 B0010000 		.4byte	.LASF194
 4248 1026 08       		.byte	0x8
 4249 1027 1207     		.2byte	0x712
 4250 1029 2D100000 		.4byte	0x102d
 4251 102d 27       		.uleb128 0x27
 4252 102e 76000000 		.4byte	0x76
 4253 1032 26       		.uleb128 0x26
 4254 1033 DD050000 		.4byte	.LASF195
 4255 1037 07       		.byte	0x7
 4256 1038 2202     		.2byte	0x222
 4257 103a 05090000 		.4byte	0x905
 4258 103e 26       		.uleb128 0x26
 4259 103f 28000000 		.4byte	.LASF196
 4260 1043 07       		.byte	0x7
 4261 1044 2202     		.2byte	0x222
 4262 1046 05090000 		.4byte	0x905
 4263 104a 26       		.uleb128 0x26
 4264 104b 1F060000 		.4byte	.LASF197
 4265 104f 07       		.byte	0x7
 4266 1050 5702     		.2byte	0x257
 4267 1052 58020000 		.4byte	0x258
 4268 1056 26       		.uleb128 0x26
 4269 1057 25060000 		.4byte	.LASF198
 4270 105b 07       		.byte	0x7
 4271 105c 5802     		.2byte	0x258
 4272 105e 2F0C0000 		.4byte	0xc2f
 4273 1062 26       		.uleb128 0x26
 4274 1063 1A070000 		.4byte	.LASF199
 4275 1067 07       		.byte	0x7
 4276 1068 5902     		.2byte	0x259
 4277 106a 2F0C0000 		.4byte	0xc2f
 4278 106e 26       		.uleb128 0x26
 4279 106f 7F090000 		.4byte	.LASF200
 4280 1073 07       		.byte	0x7
 4281 1074 5A02     		.2byte	0x25a
 4282 1076 58020000 		.4byte	0x258
 4283 107a 26       		.uleb128 0x26
 4284 107b 85080000 		.4byte	.LASF201
 4285 107f 07       		.byte	0x7
 4286 1080 5B02     		.2byte	0x25b
 4287 1082 2F0C0000 		.4byte	0xc2f
 4288 1086 00       		.byte	0
 4289              		.section	.debug_abbrev,"",%progbits
 4290              	.Ldebug_abbrev0:
 4291 0000 01       		.uleb128 0x1
 4292 0001 11       		.uleb128 0x11
 4293 0002 01       		.byte	0x1
ARM GAS  C:\Users\Mattia\AppData\Local\Temp\ccPr8Am1.s 			page 84


 4294 0003 25       		.uleb128 0x25
 4295 0004 0E       		.uleb128 0xe
 4296 0005 13       		.uleb128 0x13
 4297 0006 0B       		.uleb128 0xb
 4298 0007 03       		.uleb128 0x3
 4299 0008 0E       		.uleb128 0xe
 4300 0009 1B       		.uleb128 0x1b
 4301 000a 0E       		.uleb128 0xe
 4302 000b 55       		.uleb128 0x55
 4303 000c 17       		.uleb128 0x17
 4304 000d 11       		.uleb128 0x11
 4305 000e 01       		.uleb128 0x1
 4306 000f 10       		.uleb128 0x10
 4307 0010 17       		.uleb128 0x17
 4308 0011 00       		.byte	0
 4309 0012 00       		.byte	0
 4310 0013 02       		.uleb128 0x2
 4311 0014 24       		.uleb128 0x24
 4312 0015 00       		.byte	0
 4313 0016 0B       		.uleb128 0xb
 4314 0017 0B       		.uleb128 0xb
 4315 0018 3E       		.uleb128 0x3e
 4316 0019 0B       		.uleb128 0xb
 4317 001a 03       		.uleb128 0x3
 4318 001b 0E       		.uleb128 0xe
 4319 001c 00       		.byte	0
 4320 001d 00       		.byte	0
 4321 001e 03       		.uleb128 0x3
 4322 001f 16       		.uleb128 0x16
 4323 0020 00       		.byte	0
 4324 0021 03       		.uleb128 0x3
 4325 0022 0E       		.uleb128 0xe
 4326 0023 3A       		.uleb128 0x3a
 4327 0024 0B       		.uleb128 0xb
 4328 0025 3B       		.uleb128 0x3b
 4329 0026 0B       		.uleb128 0xb
 4330 0027 49       		.uleb128 0x49
 4331 0028 13       		.uleb128 0x13
 4332 0029 00       		.byte	0
 4333 002a 00       		.byte	0
 4334 002b 04       		.uleb128 0x4
 4335 002c 24       		.uleb128 0x24
 4336 002d 00       		.byte	0
 4337 002e 0B       		.uleb128 0xb
 4338 002f 0B       		.uleb128 0xb
 4339 0030 3E       		.uleb128 0x3e
 4340 0031 0B       		.uleb128 0xb
 4341 0032 03       		.uleb128 0x3
 4342 0033 08       		.uleb128 0x8
 4343 0034 00       		.byte	0
 4344 0035 00       		.byte	0
 4345 0036 05       		.uleb128 0x5
 4346 0037 16       		.uleb128 0x16
 4347 0038 00       		.byte	0
 4348 0039 03       		.uleb128 0x3
 4349 003a 0E       		.uleb128 0xe
 4350 003b 3A       		.uleb128 0x3a
ARM GAS  C:\Users\Mattia\AppData\Local\Temp\ccPr8Am1.s 			page 85


 4351 003c 0B       		.uleb128 0xb
 4352 003d 3B       		.uleb128 0x3b
 4353 003e 05       		.uleb128 0x5
 4354 003f 49       		.uleb128 0x49
 4355 0040 13       		.uleb128 0x13
 4356 0041 00       		.byte	0
 4357 0042 00       		.byte	0
 4358 0043 06       		.uleb128 0x6
 4359 0044 0F       		.uleb128 0xf
 4360 0045 00       		.byte	0
 4361 0046 0B       		.uleb128 0xb
 4362 0047 0B       		.uleb128 0xb
 4363 0048 49       		.uleb128 0x49
 4364 0049 13       		.uleb128 0x13
 4365 004a 00       		.byte	0
 4366 004b 00       		.byte	0
 4367 004c 07       		.uleb128 0x7
 4368 004d 01       		.uleb128 0x1
 4369 004e 01       		.byte	0x1
 4370 004f 49       		.uleb128 0x49
 4371 0050 13       		.uleb128 0x13
 4372 0051 01       		.uleb128 0x1
 4373 0052 13       		.uleb128 0x13
 4374 0053 00       		.byte	0
 4375 0054 00       		.byte	0
 4376 0055 08       		.uleb128 0x8
 4377 0056 21       		.uleb128 0x21
 4378 0057 00       		.byte	0
 4379 0058 49       		.uleb128 0x49
 4380 0059 13       		.uleb128 0x13
 4381 005a 2F       		.uleb128 0x2f
 4382 005b 0B       		.uleb128 0xb
 4383 005c 00       		.byte	0
 4384 005d 00       		.byte	0
 4385 005e 09       		.uleb128 0x9
 4386 005f 13       		.uleb128 0x13
 4387 0060 00       		.byte	0
 4388 0061 03       		.uleb128 0x3
 4389 0062 0E       		.uleb128 0xe
 4390 0063 3C       		.uleb128 0x3c
 4391 0064 19       		.uleb128 0x19
 4392 0065 00       		.byte	0
 4393 0066 00       		.byte	0
 4394 0067 0A       		.uleb128 0xa
 4395 0068 13       		.uleb128 0x13
 4396 0069 01       		.byte	0x1
 4397 006a 0B       		.uleb128 0xb
 4398 006b 0B       		.uleb128 0xb
 4399 006c 3A       		.uleb128 0x3a
 4400 006d 0B       		.uleb128 0xb
 4401 006e 3B       		.uleb128 0x3b
 4402 006f 0B       		.uleb128 0xb
 4403 0070 01       		.uleb128 0x1
 4404 0071 13       		.uleb128 0x13
 4405 0072 00       		.byte	0
 4406 0073 00       		.byte	0
 4407 0074 0B       		.uleb128 0xb
ARM GAS  C:\Users\Mattia\AppData\Local\Temp\ccPr8Am1.s 			page 86


 4408 0075 0D       		.uleb128 0xd
 4409 0076 00       		.byte	0
 4410 0077 03       		.uleb128 0x3
 4411 0078 0E       		.uleb128 0xe
 4412 0079 3A       		.uleb128 0x3a
 4413 007a 0B       		.uleb128 0xb
 4414 007b 3B       		.uleb128 0x3b
 4415 007c 0B       		.uleb128 0xb
 4416 007d 49       		.uleb128 0x49
 4417 007e 13       		.uleb128 0x13
 4418 007f 38       		.uleb128 0x38
 4419 0080 0B       		.uleb128 0xb
 4420 0081 00       		.byte	0
 4421 0082 00       		.byte	0
 4422 0083 0C       		.uleb128 0xc
 4423 0084 0D       		.uleb128 0xd
 4424 0085 00       		.byte	0
 4425 0086 03       		.uleb128 0x3
 4426 0087 08       		.uleb128 0x8
 4427 0088 3A       		.uleb128 0x3a
 4428 0089 0B       		.uleb128 0xb
 4429 008a 3B       		.uleb128 0x3b
 4430 008b 0B       		.uleb128 0xb
 4431 008c 49       		.uleb128 0x49
 4432 008d 13       		.uleb128 0x13
 4433 008e 38       		.uleb128 0x38
 4434 008f 0B       		.uleb128 0xb
 4435 0090 00       		.byte	0
 4436 0091 00       		.byte	0
 4437 0092 0D       		.uleb128 0xd
 4438 0093 13       		.uleb128 0x13
 4439 0094 01       		.byte	0x1
 4440 0095 03       		.uleb128 0x3
 4441 0096 0E       		.uleb128 0xe
 4442 0097 0B       		.uleb128 0xb
 4443 0098 0B       		.uleb128 0xb
 4444 0099 3A       		.uleb128 0x3a
 4445 009a 0B       		.uleb128 0xb
 4446 009b 3B       		.uleb128 0x3b
 4447 009c 05       		.uleb128 0x5
 4448 009d 01       		.uleb128 0x1
 4449 009e 13       		.uleb128 0x13
 4450 009f 00       		.byte	0
 4451 00a0 00       		.byte	0
 4452 00a1 0E       		.uleb128 0xe
 4453 00a2 0D       		.uleb128 0xd
 4454 00a3 00       		.byte	0
 4455 00a4 03       		.uleb128 0x3
 4456 00a5 0E       		.uleb128 0xe
 4457 00a6 3A       		.uleb128 0x3a
 4458 00a7 0B       		.uleb128 0xb
 4459 00a8 3B       		.uleb128 0x3b
 4460 00a9 05       		.uleb128 0x5
 4461 00aa 49       		.uleb128 0x49
 4462 00ab 13       		.uleb128 0x13
 4463 00ac 38       		.uleb128 0x38
 4464 00ad 0B       		.uleb128 0xb
ARM GAS  C:\Users\Mattia\AppData\Local\Temp\ccPr8Am1.s 			page 87


 4465 00ae 00       		.byte	0
 4466 00af 00       		.byte	0
 4467 00b0 0F       		.uleb128 0xf
 4468 00b1 0D       		.uleb128 0xd
 4469 00b2 00       		.byte	0
 4470 00b3 03       		.uleb128 0x3
 4471 00b4 08       		.uleb128 0x8
 4472 00b5 3A       		.uleb128 0x3a
 4473 00b6 0B       		.uleb128 0xb
 4474 00b7 3B       		.uleb128 0x3b
 4475 00b8 05       		.uleb128 0x5
 4476 00b9 49       		.uleb128 0x49
 4477 00ba 13       		.uleb128 0x13
 4478 00bb 38       		.uleb128 0x38
 4479 00bc 0B       		.uleb128 0xb
 4480 00bd 00       		.byte	0
 4481 00be 00       		.byte	0
 4482 00bf 10       		.uleb128 0x10
 4483 00c0 13       		.uleb128 0x13
 4484 00c1 01       		.byte	0x1
 4485 00c2 03       		.uleb128 0x3
 4486 00c3 0E       		.uleb128 0xe
 4487 00c4 0B       		.uleb128 0xb
 4488 00c5 05       		.uleb128 0x5
 4489 00c6 3A       		.uleb128 0x3a
 4490 00c7 0B       		.uleb128 0xb
 4491 00c8 3B       		.uleb128 0x3b
 4492 00c9 05       		.uleb128 0x5
 4493 00ca 01       		.uleb128 0x1
 4494 00cb 13       		.uleb128 0x13
 4495 00cc 00       		.byte	0
 4496 00cd 00       		.byte	0
 4497 00ce 11       		.uleb128 0x11
 4498 00cf 0D       		.uleb128 0xd
 4499 00d0 00       		.byte	0
 4500 00d1 03       		.uleb128 0x3
 4501 00d2 08       		.uleb128 0x8
 4502 00d3 3A       		.uleb128 0x3a
 4503 00d4 0B       		.uleb128 0xb
 4504 00d5 3B       		.uleb128 0x3b
 4505 00d6 05       		.uleb128 0x5
 4506 00d7 49       		.uleb128 0x49
 4507 00d8 13       		.uleb128 0x13
 4508 00d9 38       		.uleb128 0x38
 4509 00da 05       		.uleb128 0x5
 4510 00db 00       		.byte	0
 4511 00dc 00       		.byte	0
 4512 00dd 12       		.uleb128 0x12
 4513 00de 0D       		.uleb128 0xd
 4514 00df 00       		.byte	0
 4515 00e0 03       		.uleb128 0x3
 4516 00e1 0E       		.uleb128 0xe
 4517 00e2 3A       		.uleb128 0x3a
 4518 00e3 0B       		.uleb128 0xb
 4519 00e4 3B       		.uleb128 0x3b
 4520 00e5 05       		.uleb128 0x5
 4521 00e6 49       		.uleb128 0x49
ARM GAS  C:\Users\Mattia\AppData\Local\Temp\ccPr8Am1.s 			page 88


 4522 00e7 13       		.uleb128 0x13
 4523 00e8 38       		.uleb128 0x38
 4524 00e9 05       		.uleb128 0x5
 4525 00ea 00       		.byte	0
 4526 00eb 00       		.byte	0
 4527 00ec 13       		.uleb128 0x13
 4528 00ed 2E       		.uleb128 0x2e
 4529 00ee 01       		.byte	0x1
 4530 00ef 3F       		.uleb128 0x3f
 4531 00f0 19       		.uleb128 0x19
 4532 00f1 03       		.uleb128 0x3
 4533 00f2 0E       		.uleb128 0xe
 4534 00f3 3A       		.uleb128 0x3a
 4535 00f4 0B       		.uleb128 0xb
 4536 00f5 3B       		.uleb128 0x3b
 4537 00f6 0B       		.uleb128 0xb
 4538 00f7 27       		.uleb128 0x27
 4539 00f8 19       		.uleb128 0x19
 4540 00f9 11       		.uleb128 0x11
 4541 00fa 01       		.uleb128 0x1
 4542 00fb 12       		.uleb128 0x12
 4543 00fc 06       		.uleb128 0x6
 4544 00fd 40       		.uleb128 0x40
 4545 00fe 18       		.uleb128 0x18
 4546 00ff 9642     		.uleb128 0x2116
 4547 0101 19       		.uleb128 0x19
 4548 0102 01       		.uleb128 0x1
 4549 0103 13       		.uleb128 0x13
 4550 0104 00       		.byte	0
 4551 0105 00       		.byte	0
 4552 0106 14       		.uleb128 0x14
 4553 0107 05       		.uleb128 0x5
 4554 0108 00       		.byte	0
 4555 0109 03       		.uleb128 0x3
 4556 010a 0E       		.uleb128 0xe
 4557 010b 3A       		.uleb128 0x3a
 4558 010c 0B       		.uleb128 0xb
 4559 010d 3B       		.uleb128 0x3b
 4560 010e 0B       		.uleb128 0xb
 4561 010f 49       		.uleb128 0x49
 4562 0110 13       		.uleb128 0x13
 4563 0111 02       		.uleb128 0x2
 4564 0112 18       		.uleb128 0x18
 4565 0113 00       		.byte	0
 4566 0114 00       		.byte	0
 4567 0115 15       		.uleb128 0x15
 4568 0116 2E       		.uleb128 0x2e
 4569 0117 01       		.byte	0x1
 4570 0118 3F       		.uleb128 0x3f
 4571 0119 19       		.uleb128 0x19
 4572 011a 03       		.uleb128 0x3
 4573 011b 0E       		.uleb128 0xe
 4574 011c 3A       		.uleb128 0x3a
 4575 011d 0B       		.uleb128 0xb
 4576 011e 3B       		.uleb128 0x3b
 4577 011f 0B       		.uleb128 0xb
 4578 0120 27       		.uleb128 0x27
ARM GAS  C:\Users\Mattia\AppData\Local\Temp\ccPr8Am1.s 			page 89


 4579 0121 19       		.uleb128 0x19
 4580 0122 49       		.uleb128 0x49
 4581 0123 13       		.uleb128 0x13
 4582 0124 11       		.uleb128 0x11
 4583 0125 01       		.uleb128 0x1
 4584 0126 12       		.uleb128 0x12
 4585 0127 06       		.uleb128 0x6
 4586 0128 40       		.uleb128 0x40
 4587 0129 18       		.uleb128 0x18
 4588 012a 9642     		.uleb128 0x2116
 4589 012c 19       		.uleb128 0x19
 4590 012d 01       		.uleb128 0x1
 4591 012e 13       		.uleb128 0x13
 4592 012f 00       		.byte	0
 4593 0130 00       		.byte	0
 4594 0131 16       		.uleb128 0x16
 4595 0132 34       		.uleb128 0x34
 4596 0133 00       		.byte	0
 4597 0134 03       		.uleb128 0x3
 4598 0135 0E       		.uleb128 0xe
 4599 0136 3A       		.uleb128 0x3a
 4600 0137 0B       		.uleb128 0xb
 4601 0138 3B       		.uleb128 0x3b
 4602 0139 0B       		.uleb128 0xb
 4603 013a 49       		.uleb128 0x49
 4604 013b 13       		.uleb128 0x13
 4605 013c 02       		.uleb128 0x2
 4606 013d 18       		.uleb128 0x18
 4607 013e 00       		.byte	0
 4608 013f 00       		.byte	0
 4609 0140 17       		.uleb128 0x17
 4610 0141 2E       		.uleb128 0x2e
 4611 0142 01       		.byte	0x1
 4612 0143 3F       		.uleb128 0x3f
 4613 0144 19       		.uleb128 0x19
 4614 0145 03       		.uleb128 0x3
 4615 0146 0E       		.uleb128 0xe
 4616 0147 3A       		.uleb128 0x3a
 4617 0148 0B       		.uleb128 0xb
 4618 0149 3B       		.uleb128 0x3b
 4619 014a 0B       		.uleb128 0xb
 4620 014b 49       		.uleb128 0x49
 4621 014c 13       		.uleb128 0x13
 4622 014d 11       		.uleb128 0x11
 4623 014e 01       		.uleb128 0x1
 4624 014f 12       		.uleb128 0x12
 4625 0150 06       		.uleb128 0x6
 4626 0151 40       		.uleb128 0x40
 4627 0152 18       		.uleb128 0x18
 4628 0153 9642     		.uleb128 0x2116
 4629 0155 19       		.uleb128 0x19
 4630 0156 01       		.uleb128 0x1
 4631 0157 13       		.uleb128 0x13
 4632 0158 00       		.byte	0
 4633 0159 00       		.byte	0
 4634 015a 18       		.uleb128 0x18
 4635 015b 34       		.uleb128 0x34
ARM GAS  C:\Users\Mattia\AppData\Local\Temp\ccPr8Am1.s 			page 90


 4636 015c 00       		.byte	0
 4637 015d 03       		.uleb128 0x3
 4638 015e 08       		.uleb128 0x8
 4639 015f 3A       		.uleb128 0x3a
 4640 0160 0B       		.uleb128 0xb
 4641 0161 3B       		.uleb128 0x3b
 4642 0162 0B       		.uleb128 0xb
 4643 0163 49       		.uleb128 0x49
 4644 0164 13       		.uleb128 0x13
 4645 0165 02       		.uleb128 0x2
 4646 0166 18       		.uleb128 0x18
 4647 0167 00       		.byte	0
 4648 0168 00       		.byte	0
 4649 0169 19       		.uleb128 0x19
 4650 016a 05       		.uleb128 0x5
 4651 016b 00       		.byte	0
 4652 016c 03       		.uleb128 0x3
 4653 016d 08       		.uleb128 0x8
 4654 016e 3A       		.uleb128 0x3a
 4655 016f 0B       		.uleb128 0xb
 4656 0170 3B       		.uleb128 0x3b
 4657 0171 0B       		.uleb128 0xb
 4658 0172 49       		.uleb128 0x49
 4659 0173 13       		.uleb128 0x13
 4660 0174 02       		.uleb128 0x2
 4661 0175 18       		.uleb128 0x18
 4662 0176 00       		.byte	0
 4663 0177 00       		.byte	0
 4664 0178 1A       		.uleb128 0x1a
 4665 0179 2E       		.uleb128 0x2e
 4666 017a 01       		.byte	0x1
 4667 017b 3F       		.uleb128 0x3f
 4668 017c 19       		.uleb128 0x19
 4669 017d 03       		.uleb128 0x3
 4670 017e 0E       		.uleb128 0xe
 4671 017f 3A       		.uleb128 0x3a
 4672 0180 0B       		.uleb128 0xb
 4673 0181 3B       		.uleb128 0x3b
 4674 0182 0B       		.uleb128 0xb
 4675 0183 11       		.uleb128 0x11
 4676 0184 01       		.uleb128 0x1
 4677 0185 12       		.uleb128 0x12
 4678 0186 06       		.uleb128 0x6
 4679 0187 40       		.uleb128 0x40
 4680 0188 18       		.uleb128 0x18
 4681 0189 9642     		.uleb128 0x2116
 4682 018b 19       		.uleb128 0x19
 4683 018c 01       		.uleb128 0x1
 4684 018d 13       		.uleb128 0x13
 4685 018e 00       		.byte	0
 4686 018f 00       		.byte	0
 4687 0190 1B       		.uleb128 0x1b
 4688 0191 2E       		.uleb128 0x2e
 4689 0192 00       		.byte	0
 4690 0193 3F       		.uleb128 0x3f
 4691 0194 19       		.uleb128 0x19
 4692 0195 03       		.uleb128 0x3
ARM GAS  C:\Users\Mattia\AppData\Local\Temp\ccPr8Am1.s 			page 91


 4693 0196 0E       		.uleb128 0xe
 4694 0197 3A       		.uleb128 0x3a
 4695 0198 0B       		.uleb128 0xb
 4696 0199 3B       		.uleb128 0x3b
 4697 019a 0B       		.uleb128 0xb
 4698 019b 11       		.uleb128 0x11
 4699 019c 01       		.uleb128 0x1
 4700 019d 12       		.uleb128 0x12
 4701 019e 06       		.uleb128 0x6
 4702 019f 40       		.uleb128 0x40
 4703 01a0 18       		.uleb128 0x18
 4704 01a1 9642     		.uleb128 0x2116
 4705 01a3 19       		.uleb128 0x19
 4706 01a4 00       		.byte	0
 4707 01a5 00       		.byte	0
 4708 01a6 1C       		.uleb128 0x1c
 4709 01a7 21       		.uleb128 0x21
 4710 01a8 00       		.byte	0
 4711 01a9 49       		.uleb128 0x49
 4712 01aa 13       		.uleb128 0x13
 4713 01ab 2F       		.uleb128 0x2f
 4714 01ac 05       		.uleb128 0x5
 4715 01ad 00       		.byte	0
 4716 01ae 00       		.byte	0
 4717 01af 1D       		.uleb128 0x1d
 4718 01b0 2E       		.uleb128 0x2e
 4719 01b1 01       		.byte	0x1
 4720 01b2 3F       		.uleb128 0x3f
 4721 01b3 19       		.uleb128 0x19
 4722 01b4 03       		.uleb128 0x3
 4723 01b5 0E       		.uleb128 0xe
 4724 01b6 3A       		.uleb128 0x3a
 4725 01b7 0B       		.uleb128 0xb
 4726 01b8 3B       		.uleb128 0x3b
 4727 01b9 05       		.uleb128 0x5
 4728 01ba 27       		.uleb128 0x27
 4729 01bb 19       		.uleb128 0x19
 4730 01bc 11       		.uleb128 0x11
 4731 01bd 01       		.uleb128 0x1
 4732 01be 12       		.uleb128 0x12
 4733 01bf 06       		.uleb128 0x6
 4734 01c0 40       		.uleb128 0x40
 4735 01c1 18       		.uleb128 0x18
 4736 01c2 9642     		.uleb128 0x2116
 4737 01c4 19       		.uleb128 0x19
 4738 01c5 01       		.uleb128 0x1
 4739 01c6 13       		.uleb128 0x13
 4740 01c7 00       		.byte	0
 4741 01c8 00       		.byte	0
 4742 01c9 1E       		.uleb128 0x1e
 4743 01ca 05       		.uleb128 0x5
 4744 01cb 00       		.byte	0
 4745 01cc 03       		.uleb128 0x3
 4746 01cd 0E       		.uleb128 0xe
 4747 01ce 3A       		.uleb128 0x3a
 4748 01cf 0B       		.uleb128 0xb
 4749 01d0 3B       		.uleb128 0x3b
ARM GAS  C:\Users\Mattia\AppData\Local\Temp\ccPr8Am1.s 			page 92


 4750 01d1 05       		.uleb128 0x5
 4751 01d2 49       		.uleb128 0x49
 4752 01d3 13       		.uleb128 0x13
 4753 01d4 02       		.uleb128 0x2
 4754 01d5 18       		.uleb128 0x18
 4755 01d6 00       		.byte	0
 4756 01d7 00       		.byte	0
 4757 01d8 1F       		.uleb128 0x1f
 4758 01d9 05       		.uleb128 0x5
 4759 01da 00       		.byte	0
 4760 01db 03       		.uleb128 0x3
 4761 01dc 08       		.uleb128 0x8
 4762 01dd 3A       		.uleb128 0x3a
 4763 01de 0B       		.uleb128 0xb
 4764 01df 3B       		.uleb128 0x3b
 4765 01e0 05       		.uleb128 0x5
 4766 01e1 49       		.uleb128 0x49
 4767 01e2 13       		.uleb128 0x13
 4768 01e3 02       		.uleb128 0x2
 4769 01e4 18       		.uleb128 0x18
 4770 01e5 00       		.byte	0
 4771 01e6 00       		.byte	0
 4772 01e7 20       		.uleb128 0x20
 4773 01e8 34       		.uleb128 0x34
 4774 01e9 00       		.byte	0
 4775 01ea 03       		.uleb128 0x3
 4776 01eb 08       		.uleb128 0x8
 4777 01ec 3A       		.uleb128 0x3a
 4778 01ed 0B       		.uleb128 0xb
 4779 01ee 3B       		.uleb128 0x3b
 4780 01ef 05       		.uleb128 0x5
 4781 01f0 49       		.uleb128 0x49
 4782 01f1 13       		.uleb128 0x13
 4783 01f2 02       		.uleb128 0x2
 4784 01f3 18       		.uleb128 0x18
 4785 01f4 00       		.byte	0
 4786 01f5 00       		.byte	0
 4787 01f6 21       		.uleb128 0x21
 4788 01f7 34       		.uleb128 0x34
 4789 01f8 00       		.byte	0
 4790 01f9 03       		.uleb128 0x3
 4791 01fa 0E       		.uleb128 0xe
 4792 01fb 3A       		.uleb128 0x3a
 4793 01fc 0B       		.uleb128 0xb
 4794 01fd 3B       		.uleb128 0x3b
 4795 01fe 05       		.uleb128 0x5
 4796 01ff 49       		.uleb128 0x49
 4797 0200 13       		.uleb128 0x13
 4798 0201 02       		.uleb128 0x2
 4799 0202 18       		.uleb128 0x18
 4800 0203 00       		.byte	0
 4801 0204 00       		.byte	0
 4802 0205 22       		.uleb128 0x22
 4803 0206 2E       		.uleb128 0x2e
 4804 0207 01       		.byte	0x1
 4805 0208 3F       		.uleb128 0x3f
 4806 0209 19       		.uleb128 0x19
ARM GAS  C:\Users\Mattia\AppData\Local\Temp\ccPr8Am1.s 			page 93


 4807 020a 03       		.uleb128 0x3
 4808 020b 0E       		.uleb128 0xe
 4809 020c 3A       		.uleb128 0x3a
 4810 020d 0B       		.uleb128 0xb
 4811 020e 3B       		.uleb128 0x3b
 4812 020f 05       		.uleb128 0x5
 4813 0210 11       		.uleb128 0x11
 4814 0211 01       		.uleb128 0x1
 4815 0212 12       		.uleb128 0x12
 4816 0213 06       		.uleb128 0x6
 4817 0214 40       		.uleb128 0x40
 4818 0215 18       		.uleb128 0x18
 4819 0216 9642     		.uleb128 0x2116
 4820 0218 19       		.uleb128 0x19
 4821 0219 01       		.uleb128 0x1
 4822 021a 13       		.uleb128 0x13
 4823 021b 00       		.byte	0
 4824 021c 00       		.byte	0
 4825 021d 23       		.uleb128 0x23
 4826 021e 2E       		.uleb128 0x2e
 4827 021f 01       		.byte	0x1
 4828 0220 3F       		.uleb128 0x3f
 4829 0221 19       		.uleb128 0x19
 4830 0222 03       		.uleb128 0x3
 4831 0223 0E       		.uleb128 0xe
 4832 0224 3A       		.uleb128 0x3a
 4833 0225 0B       		.uleb128 0xb
 4834 0226 3B       		.uleb128 0x3b
 4835 0227 05       		.uleb128 0x5
 4836 0228 27       		.uleb128 0x27
 4837 0229 19       		.uleb128 0x19
 4838 022a 49       		.uleb128 0x49
 4839 022b 13       		.uleb128 0x13
 4840 022c 11       		.uleb128 0x11
 4841 022d 01       		.uleb128 0x1
 4842 022e 12       		.uleb128 0x12
 4843 022f 06       		.uleb128 0x6
 4844 0230 40       		.uleb128 0x40
 4845 0231 18       		.uleb128 0x18
 4846 0232 9642     		.uleb128 0x2116
 4847 0234 19       		.uleb128 0x19
 4848 0235 01       		.uleb128 0x1
 4849 0236 13       		.uleb128 0x13
 4850 0237 00       		.byte	0
 4851 0238 00       		.byte	0
 4852 0239 24       		.uleb128 0x24
 4853 023a 0B       		.uleb128 0xb
 4854 023b 01       		.byte	0x1
 4855 023c 11       		.uleb128 0x11
 4856 023d 01       		.uleb128 0x1
 4857 023e 12       		.uleb128 0x12
 4858 023f 06       		.uleb128 0x6
 4859 0240 00       		.byte	0
 4860 0241 00       		.byte	0
 4861 0242 25       		.uleb128 0x25
 4862 0243 0B       		.uleb128 0xb
 4863 0244 01       		.byte	0x1
ARM GAS  C:\Users\Mattia\AppData\Local\Temp\ccPr8Am1.s 			page 94


 4864 0245 11       		.uleb128 0x11
 4865 0246 01       		.uleb128 0x1
 4866 0247 12       		.uleb128 0x12
 4867 0248 06       		.uleb128 0x6
 4868 0249 01       		.uleb128 0x1
 4869 024a 13       		.uleb128 0x13
 4870 024b 00       		.byte	0
 4871 024c 00       		.byte	0
 4872 024d 26       		.uleb128 0x26
 4873 024e 34       		.uleb128 0x34
 4874 024f 00       		.byte	0
 4875 0250 03       		.uleb128 0x3
 4876 0251 0E       		.uleb128 0xe
 4877 0252 3A       		.uleb128 0x3a
 4878 0253 0B       		.uleb128 0xb
 4879 0254 3B       		.uleb128 0x3b
 4880 0255 05       		.uleb128 0x5
 4881 0256 49       		.uleb128 0x49
 4882 0257 13       		.uleb128 0x13
 4883 0258 3F       		.uleb128 0x3f
 4884 0259 19       		.uleb128 0x19
 4885 025a 3C       		.uleb128 0x3c
 4886 025b 19       		.uleb128 0x19
 4887 025c 00       		.byte	0
 4888 025d 00       		.byte	0
 4889 025e 27       		.uleb128 0x27
 4890 025f 35       		.uleb128 0x35
 4891 0260 00       		.byte	0
 4892 0261 49       		.uleb128 0x49
 4893 0262 13       		.uleb128 0x13
 4894 0263 00       		.byte	0
 4895 0264 00       		.byte	0
 4896 0265 00       		.byte	0
 4897              		.section	.debug_aranges,"",%progbits
 4898 0000 84000000 		.4byte	0x84
 4899 0004 0200     		.2byte	0x2
 4900 0006 00000000 		.4byte	.Ldebug_info0
 4901 000a 04       		.byte	0x4
 4902 000b 00       		.byte	0
 4903 000c 0000     		.2byte	0
 4904 000e 0000     		.2byte	0
 4905 0010 00000000 		.4byte	.LFB64
 4906 0014 46000000 		.4byte	.LFE64-.LFB64
 4907 0018 00000000 		.4byte	.LFB65
 4908 001c 1A000000 		.4byte	.LFE65-.LFB65
 4909 0020 00000000 		.4byte	.LFB66
 4910 0024 42000000 		.4byte	.LFE66-.LFB66
 4911 0028 00000000 		.4byte	.LFB67
 4912 002c 5C000000 		.4byte	.LFE67-.LFB67
 4913 0030 00000000 		.4byte	.LFB68
 4914 0034 4C000000 		.4byte	.LFE68-.LFB68
 4915 0038 00000000 		.4byte	.LFB69
 4916 003c 1C010000 		.4byte	.LFE69-.LFB69
 4917 0040 00000000 		.4byte	.LFB70
 4918 0044 6C010000 		.4byte	.LFE70-.LFB70
 4919 0048 00000000 		.4byte	.LFB71
 4920 004c 5C040000 		.4byte	.LFE71-.LFB71
ARM GAS  C:\Users\Mattia\AppData\Local\Temp\ccPr8Am1.s 			page 95


 4921 0050 00000000 		.4byte	.LFB72
 4922 0054 4C000000 		.4byte	.LFE72-.LFB72
 4923 0058 00000000 		.4byte	.LFB73
 4924 005c 48000000 		.4byte	.LFE73-.LFB73
 4925 0060 00000000 		.4byte	.LFB74
 4926 0064 6C000000 		.4byte	.LFE74-.LFB74
 4927 0068 00000000 		.4byte	.LFB75
 4928 006c 70000000 		.4byte	.LFE75-.LFB75
 4929 0070 00000000 		.4byte	.LFB76
 4930 0074 3C010000 		.4byte	.LFE76-.LFB76
 4931 0078 00000000 		.4byte	.LFB77
 4932 007c DC050000 		.4byte	.LFE77-.LFB77
 4933 0080 00000000 		.4byte	0
 4934 0084 00000000 		.4byte	0
 4935              		.section	.debug_ranges,"",%progbits
 4936              	.Ldebug_ranges0:
 4937 0000 00000000 		.4byte	.LFB64
 4938 0004 46000000 		.4byte	.LFE64
 4939 0008 00000000 		.4byte	.LFB65
 4940 000c 1A000000 		.4byte	.LFE65
 4941 0010 00000000 		.4byte	.LFB66
 4942 0014 42000000 		.4byte	.LFE66
 4943 0018 00000000 		.4byte	.LFB67
 4944 001c 5C000000 		.4byte	.LFE67
 4945 0020 00000000 		.4byte	.LFB68
 4946 0024 4C000000 		.4byte	.LFE68
 4947 0028 00000000 		.4byte	.LFB69
 4948 002c 1C010000 		.4byte	.LFE69
 4949 0030 00000000 		.4byte	.LFB70
 4950 0034 6C010000 		.4byte	.LFE70
 4951 0038 00000000 		.4byte	.LFB71
 4952 003c 5C040000 		.4byte	.LFE71
 4953 0040 00000000 		.4byte	.LFB72
 4954 0044 4C000000 		.4byte	.LFE72
 4955 0048 00000000 		.4byte	.LFB73
 4956 004c 48000000 		.4byte	.LFE73
 4957 0050 00000000 		.4byte	.LFB74
 4958 0054 6C000000 		.4byte	.LFE74
 4959 0058 00000000 		.4byte	.LFB75
 4960 005c 70000000 		.4byte	.LFE75
 4961 0060 00000000 		.4byte	.LFB76
 4962 0064 3C010000 		.4byte	.LFE76
 4963 0068 00000000 		.4byte	.LFB77
 4964 006c DC050000 		.4byte	.LFE77
 4965 0070 00000000 		.4byte	0
 4966 0074 00000000 		.4byte	0
 4967              		.section	.debug_line,"",%progbits
 4968              	.Ldebug_line0:
 4969 0000 41040000 		.section	.debug_str,"MS",%progbits,1
 4969      0200A901 
 4969      00000201 
 4969      FB0E0D00 
 4969      01010101 
 4970              	.LASF127:
 4971 0000 6D61785F 		.ascii	"max_residual_current\000"
 4971      72657369 
 4971      6475616C 
ARM GAS  C:\Users\Mattia\AppData\Local\Temp\ccPr8Am1.s 			page 96


 4971      5F637572 
 4971      72656E74 
 4972              	.LASF57:
 4973 0015 7573655F 		.ascii	"use_2nd_motor_flag\000"
 4973      326E645F 
 4973      6D6F746F 
 4973      725F666C 
 4973      616700
 4974              	.LASF196:
 4975 0028 635F6D65 		.ascii	"c_mem\000"
 4975      6D00
 4976              	.LASF180:
 4977 002e 6E756D5F 		.ascii	"num_files_dir\000"
 4977      66696C65 
 4977      735F6469 
 4977      7200
 4978              	.LASF126:
 4979 003c 73745F46 		.ascii	"st_FB_spec\000"
 4979      425F7370 
 4979      656300
 4980              	.LASF139:
 4981 0047 4A4F595F 		.ascii	"JOY_spec\000"
 4981      73706563 
 4981      00
 4982              	.LASF121:
 4983 0050 6A6F7973 		.ascii	"joystick_threshold\000"
 4983      7469636B 
 4983      5F746872 
 4983      6573686F 
 4983      6C6400
 4984              	.LASF101:
 4985 0063 73745F69 		.ascii	"st_imu\000"
 4985      6D7500
 4986              	.LASF153:
 4987 006a 6C617374 		.ascii	"lastsdParam\000"
 4987      73645061 
 4987      72616D00 
 4988              	.LASF49:
 4989 0076 746F7461 		.ascii	"total_time_on\000"
 4989      6C5F7469 
 4989      6D655F6F 
 4989      6E00
 4990              	.LASF89:
 4991 0084 6D5F6F66 		.ascii	"m_off\000"
 4991      6600
 4992              	.LASF84:
 4993 008a 656E636F 		.ascii	"encoder_line\000"
 4993      6465725F 
 4993      6C696E65 
 4993      00
 4994              	.LASF161:
 4995 0097 7046696C 		.ascii	"pFile_read\000"
 4995      655F7265 
 4995      616400
 4996              	.LASF167:
 4997 00a2 52656164 		.ascii	"Read_SD_Current_Data\000"
 4997      5F53445F 
ARM GAS  C:\Users\Mattia\AppData\Local\Temp\ccPr8Am1.s 			page 97


 4997      43757272 
 4997      656E745F 
 4997      44617461 
 4998              	.LASF133:
 4999 00b7 77726973 		.ascii	"wrist_direction_association\000"
 4999      745F6469 
 4999      72656374 
 4999      696F6E5F 
 4999      6173736F 
 5000              	.LASF202:
 5001 00d3 474E5520 		.ascii	"GNU C11 5.4.1 20160609 (release) [ARM/embedded-5-br"
 5001      43313120 
 5001      352E342E 
 5001      31203230 
 5001      31363036 
 5002 0106 616E6368 		.ascii	"anch revision 237715] -mcpu=cortex-m3 -mthumb -g -O"
 5002      20726576 
 5002      6973696F 
 5002      6E203233 
 5002      37373135 
 5003 0139 30202D66 		.ascii	"0 -ffunction-sections -ffat-lto-objects\000"
 5003      66756E63 
 5003      74696F6E 
 5003      2D736563 
 5003      74696F6E 
 5004              	.LASF174:
 5005 0161 70617468 		.ascii	"path\000"
 5005      00
 5006              	.LASF7:
 5007 0166 6C6F6E67 		.ascii	"long long unsigned int\000"
 5007      206C6F6E 
 5007      6720756E 
 5007      7369676E 
 5007      65642069 
 5008              	.LASF58:
 5009 017d 62617564 		.ascii	"baud_rate\000"
 5009      5F726174 
 5009      6500
 5010              	.LASF156:
 5011 0187 44617461 		.ascii	"Data_filename\000"
 5011      5F66696C 
 5011      656E616D 
 5011      6500
 5012              	.LASF116:
 5013 0195 72657374 		.ascii	"rest_delay\000"
 5013      5F64656C 
 5013      617900
 5014              	.LASF131:
 5015 01a0 61637469 		.ascii	"activation_mode\000"
 5015      76617469 
 5015      6F6E5F6D 
 5015      6F646500 
 5016              	.LASF194:
 5017 01b0 49544D5F 		.ascii	"ITM_RxBuffer\000"
 5017      52784275 
 5017      66666572 
 5017      00
ARM GAS  C:\Users\Mattia\AppData\Local\Temp\ccPr8Am1.s 			page 98


 5018              	.LASF177:
 5019 01bd 6E756D5F 		.ascii	"num_found_dirs\000"
 5019      666F756E 
 5019      645F6469 
 5019      727300
 5020              	.LASF37:
 5021 01cc 43726561 		.ascii	"CreationTime\000"
 5021      74696F6E 
 5021      54696D65 
 5021      00
 5022              	.LASF158:
 5023 01d9 57726974 		.ascii	"Write_new_info\000"
 5023      655F6E65 
 5023      775F696E 
 5023      666F00
 5024              	.LASF117:
 5025 01e8 72657374 		.ascii	"rest_vel\000"
 5025      5F76656C 
 5025      00
 5026              	.LASF96:
 5027 01f1 656D675F 		.ascii	"emg_threshold\000"
 5027      74687265 
 5027      73686F6C 
 5027      6400
 5028              	.LASF6:
 5029 01ff 6C6F6E67 		.ascii	"long long int\000"
 5029      206C6F6E 
 5029      6720696E 
 5029      7400
 5030              	.LASF0:
 5031 020d 7369676E 		.ascii	"signed char\000"
 5031      65642063 
 5031      68617200 
 5032              	.LASF186:
 5033 0219 795F7061 		.ascii	"y_path\000"
 5033      746800
 5034              	.LASF16:
 5035 0220 696E7433 		.ascii	"int32\000"
 5035      3200
 5036              	.LASF34:
 5037 0226 496E5573 		.ascii	"InUse\000"
 5037      6500
 5038              	.LASF189:
 5039 022c 6E646179 		.ascii	"ndays\000"
 5039      7300
 5040              	.LASF4:
 5041 0232 6C6F6E67 		.ascii	"long int\000"
 5041      20696E74 
 5041      00
 5042              	.LASF36:
 5043 023b 41747472 		.ascii	"Attributes\000"
 5043      69627574 
 5043      657300
 5044              	.LASF184:
 5045 0246 666F6C64 		.ascii	"folder_tree_data\000"
 5045      65725F74 
 5045      7265655F 
ARM GAS  C:\Users\Mattia\AppData\Local\Temp\ccPr8Am1.s 			page 99


 5045      64617461 
 5045      00
 5046              	.LASF205:
 5047 0257 7365745F 		.ascii	"set_RTC_time\000"
 5047      5254435F 
 5047      74696D65 
 5047      00
 5048              	.LASF181:
 5049 0264 4765745F 		.ascii	"Get_SD_FS\000"
 5049      53445F46 
 5049      5300
 5050              	.LASF11:
 5051 026e 75696E74 		.ascii	"uint8\000"
 5051      3800
 5052              	.LASF86:
 5053 0274 6E6F745F 		.ascii	"not_revers_motor_flag\000"
 5053      72657665 
 5053      72735F6D 
 5053      6F746F72 
 5053      5F666C61 
 5054              	.LASF55:
 5055 028a 72696768 		.ascii	"right_left\000"
 5055      745F6C65 
 5055      667400
 5056              	.LASF144:
 5057 0295 44533133 		.ascii	"DS1302_readByte\000"
 5057      30325F72 
 5057      65616442 
 5057      79746500 
 5058              	.LASF103:
 5059 02a5 5350495F 		.ascii	"SPI_read_delay\000"
 5059      72656164 
 5059      5F64656C 
 5059      617900
 5060              	.LASF83:
 5061 02b4 636F6E74 		.ascii	"control_mode\000"
 5061      726F6C5F 
 5061      6D6F6465 
 5061      00
 5062              	.LASF136:
 5063 02c1 756E7573 		.ascii	"unused_bytes1\000"
 5063      65645F62 
 5063      79746573 
 5063      3100
 5064              	.LASF164:
 5065 02cf 52656164 		.ascii	"Read_SD_Closed_File\000"
 5065      5F53445F 
 5065      436C6F73 
 5065      65645F46 
 5065      696C6500 
 5066              	.LASF175:
 5067 02e3 64697265 		.ascii	"directories_list\000"
 5067      63746F72 
 5067      6965735F 
 5067      6C697374 
 5067      00
 5068              	.LASF132:
ARM GAS  C:\Users\Mattia\AppData\Local\Temp\ccPr8Am1.s 			page 100


 5069 02f4 66617374 		.ascii	"fast_act_threshold\000"
 5069      5F616374 
 5069      5F746872 
 5069      6573686F 
 5069      6C6400
 5070              	.LASF68:
 5071 0307 6B5F645F 		.ascii	"k_d_dl\000"
 5071      646C00
 5072              	.LASF13:
 5073 030e 75696E74 		.ascii	"uint32\000"
 5073      333200
 5074              	.LASF134:
 5075 0315 73745F65 		.ascii	"st_eeprom\000"
 5075      6570726F 
 5075      6D00
 5076              	.LASF21:
 5077 031f 6C6F6E67 		.ascii	"long double\000"
 5077      20646F75 
 5077      626C6500 
 5078              	.LASF28:
 5079 032b 44697245 		.ascii	"DirEntryIndex\000"
 5079      6E747279 
 5079      496E6465 
 5079      7800
 5080              	.LASF169:
 5081 0339 70446174 		.ascii	"pData\000"
 5081      6100
 5082              	.LASF69:
 5083 033f 6B5F705F 		.ascii	"k_p_c_dl\000"
 5083      635F646C 
 5083      00
 5084              	.LASF100:
 5085 0348 73776974 		.ascii	"switch_emg\000"
 5085      63685F65 
 5085      6D6700
 5086              	.LASF160:
 5087 0353 70506172 		.ascii	"pParam\000"
 5087      616D00
 5088              	.LASF82:
 5089 035a 696E7075 		.ascii	"input_mode\000"
 5089      745F6D6F 
 5089      646500
 5090              	.LASF146:
 5091 0365 76616C75 		.ascii	"value\000"
 5091      6500
 5092              	.LASF56:
 5093 036b 72657365 		.ascii	"reset_counters\000"
 5093      745F636F 
 5093      756E7465 
 5093      727300
 5094              	.LASF120:
 5095 037a 6A6F7973 		.ascii	"joystick_closure_speed\000"
 5095      7469636B 
 5095      5F636C6F 
 5095      73757265 
 5095      5F737065 
 5096              	.LASF80:
ARM GAS  C:\Users\Mattia\AppData\Local\Temp\ccPr8Am1.s 			page 101


 5097 0391 63757272 		.ascii	"curr_lookup\000"
 5097      5F6C6F6F 
 5097      6B757000 
 5098              	.LASF8:
 5099 039d 756E7369 		.ascii	"unsigned int\000"
 5099      676E6564 
 5099      20696E74 
 5099      00
 5100              	.LASF93:
 5101 03aa 6D6F746F 		.ascii	"motor_handle_ratio\000"
 5101      725F6861 
 5101      6E646C65 
 5101      5F726174 
 5101      696F00
 5102              	.LASF67:
 5103 03bd 6B5F695F 		.ascii	"k_i_dl\000"
 5103      646C00
 5104              	.LASF5:
 5105 03c4 6C6F6E67 		.ascii	"long unsigned int\000"
 5105      20756E73 
 5105      69676E65 
 5105      6420696E 
 5105      7400
 5106              	.LASF78:
 5107 03d6 6D61785F 		.ascii	"max_step_neg\000"
 5107      73746570 
 5107      5F6E6567 
 5107      00
 5108              	.LASF38:
 5109 03e3 4C617374 		.ascii	"LastAccessTime\000"
 5109      41636365 
 5109      73735469 
 5109      6D6500
 5110              	.LASF108:
 5111 03f2 72656164 		.ascii	"read_ADC_sensors_port_flag\000"
 5111      5F414443 
 5111      5F73656E 
 5111      736F7273 
 5111      5F706F72 
 5112              	.LASF111:
 5113 040d 73745F75 		.ascii	"st_user\000"
 5113      73657200 
 5114              	.LASF26:
 5115 0415 436C7573 		.ascii	"Cluster\000"
 5115      74657200 
 5116              	.LASF113:
 5117 041d 75736572 		.ascii	"user_emg\000"
 5117      5F656D67 
 5117      00
 5118              	.LASF173:
 5119 0426 4765745F 		.ascii	"Get_DirectoriesList\000"
 5119      44697265 
 5119      63746F72 
 5119      6965734C 
 5119      69737400 
 5120              	.LASF29:
 5121 043a 436C7573 		.ascii	"ClusterIndex\000"
ARM GAS  C:\Users\Mattia\AppData\Local\Temp\ccPr8Am1.s 			page 102


 5121      74657249 
 5121      6E646578 
 5121      00
 5122              	.LASF3:
 5123 0447 73686F72 		.ascii	"short unsigned int\000"
 5123      7420756E 
 5123      7369676E 
 5123      65642069 
 5123      6E7400
 5124              	.LASF149:
 5125 045a 7274635F 		.ascii	"rtc_data\000"
 5125      64617461 
 5125      00
 5126              	.LASF172:
 5127 0463 44533133 		.ascii	"DS1302_read\000"
 5127      30325F72 
 5127      65616400 
 5128              	.LASF179:
 5129 046f 63757272 		.ascii	"curr_path\000"
 5129      5F706174 
 5129      6800
 5130              	.LASF14:
 5131 0479 696E7438 		.ascii	"int8\000"
 5131      00
 5132              	.LASF74:
 5133 047e 6D6F746F 		.ascii	"motor_driver_type\000"
 5133      725F6472 
 5133      69766572 
 5133      5F747970 
 5133      6500
 5134              	.LASF76:
 5135 0490 706F735F 		.ascii	"pos_lim_inf\000"
 5135      6C696D5F 
 5135      696E6600 
 5136              	.LASF61:
 5137 049c 756E7573 		.ascii	"unused_bytes\000"
 5137      65645F62 
 5137      79746573 
 5137      00
 5138              	.LASF124:
 5139 04a9 736C6176 		.ascii	"slave_comm_active\000"
 5139      655F636F 
 5139      6D6D5F61 
 5139      63746976 
 5139      6500
 5140              	.LASF165:
 5141 04bb 7372635F 		.ascii	"src_file\000"
 5141      66696C65 
 5141      00
 5142              	.LASF129:
 5143 04c4 70726F70 		.ascii	"prop_err_fb_gain\000"
 5143      5F657272 
 5143      5F66625F 
 5143      6761696E 
 5143      00
 5144              	.LASF45:
 5145 04d5 706F7369 		.ascii	"position_hist\000"
ARM GAS  C:\Users\Mattia\AppData\Local\Temp\ccPr8Am1.s 			page 103


 5145      74696F6E 
 5145      5F686973 
 5145      7400
 5146              	.LASF30:
 5147 04e3 46535F44 		.ascii	"FS_DIR_POS\000"
 5147      49525F50 
 5147      4F5300
 5148              	.LASF9:
 5149 04ee 5F5F696E 		.ascii	"__int32_t\000"
 5149      7433325F 
 5149      7400
 5150              	.LASF23:
 5151 04f8 46535F44 		.ascii	"FS_DIR\000"
 5151      495200
 5152              	.LASF143:
 5153 04ff 44533133 		.ascii	"DS1302_writeByte\000"
 5153      30325F77 
 5153      72697465 
 5153      42797465 
 5153      00
 5154              	.LASF53:
 5155 0510 68775F6D 		.ascii	"hw_maint_date\000"
 5155      61696E74 
 5155      5F646174 
 5155      6500
 5156              	.LASF204:
 5157 051e 433A5C55 		.ascii	"C:\\Users\\Mattia\\Documents\\GitHub\\SoftHandPRO-a"
 5157      73657273 
 5157      5C4D6174 
 5157      7469615C 
 5157      446F6375 
 5158 054c 6E642D47 		.ascii	"nd-Generic-FW-PSoC5\\Generic.cydsn\000"
 5158      656E6572 
 5158      69632D46 
 5158      572D5053 
 5158      6F43355C 
 5159              	.LASF104:
 5160 056e 494D555F 		.ascii	"IMU_conf\000"
 5160      636F6E66 
 5160      00
 5161              	.LASF112:
 5162 0577 75736572 		.ascii	"user_code_string\000"
 5162      5F636F64 
 5162      655F7374 
 5162      72696E67 
 5162      00
 5163              	.LASF17:
 5164 0588 666C6F61 		.ascii	"float32\000"
 5164      74333200 
 5165              	.LASF22:
 5166 0590 73697A65 		.ascii	"sizetype\000"
 5166      74797065 
 5166      00
 5167              	.LASF151:
 5168 0599 496E6974 		.ascii	"InitSD_FS\000"
 5168      53445F46 
 5168      5300
ARM GAS  C:\Users\Mattia\AppData\Local\Temp\ccPr8Am1.s 			page 104


 5169              	.LASF128:
 5170 05a3 6D617869 		.ascii	"maximum_pressure_kPa\000"
 5170      6D756D5F 
 5170      70726573 
 5170      73757265 
 5170      5F6B5061 
 5171              	.LASF192:
 5172 05b8 665F7061 		.ascii	"f_path\000"
 5172      746800
 5173              	.LASF52:
 5174 05bf 73745F64 		.ascii	"st_device\000"
 5174      65766963 
 5174      6500
 5175              	.LASF119:
 5176 05c9 73745F4A 		.ascii	"st_JOY_spec\000"
 5176      4F595F73 
 5176      70656300 
 5177              	.LASF140:
 5178 05d5 61646472 		.ascii	"address\000"
 5178      65737300 
 5179              	.LASF195:
 5180 05dd 675F6D65 		.ascii	"g_mem\000"
 5180      6D00
 5181              	.LASF40:
 5182 05e3 46696C65 		.ascii	"FileSize\000"
 5182      53697A65 
 5182      00
 5183              	.LASF63:
 5184 05ec 6B5F705F 		.ascii	"k_p_c\000"
 5184      6300
 5185              	.LASF185:
 5186 05f2 6E5F6964 		.ascii	"n_idx\000"
 5186      7800
 5187              	.LASF130:
 5188 05f8 73745F57 		.ascii	"st_WR_spec\000"
 5188      525F7370 
 5188      656300
 5189              	.LASF31:
 5190 0603 44697250 		.ascii	"DirPos\000"
 5190      6F7300
 5191              	.LASF115:
 5192 060a 72657374 		.ascii	"rest_pos\000"
 5192      5F706F73 
 5192      00
 5193              	.LASF77:
 5194 0613 706F735F 		.ascii	"pos_lim_sup\000"
 5194      6C696D5F 
 5194      73757000 
 5195              	.LASF197:
 5196 061f 7046696C 		.ascii	"pFile\000"
 5196      6500
 5197              	.LASF198:
 5198 0625 73644669 		.ascii	"sdFile\000"
 5198      6C6500
 5199              	.LASF159:
 5200 062c 6E756D5F 		.ascii	"num_files\000"
 5200      66696C65 
ARM GAS  C:\Users\Mattia\AppData\Local\Temp\ccPr8Am1.s 			page 105


 5200      7300
 5201              	.LASF168:
 5202 0636 696E666F 		.ascii	"info_data\000"
 5202      5F646174 
 5202      6100
 5203              	.LASF46:
 5204 0640 63757272 		.ascii	"current_hist\000"
 5204      656E745F 
 5204      68697374 
 5204      00
 5205              	.LASF106:
 5206 064d 63757272 		.ascii	"curr_time\000"
 5206      5F74696D 
 5206      6500
 5207              	.LASF182:
 5208 0657 6E756D5F 		.ascii	"num_found_users\000"
 5208      666F756E 
 5208      645F7573 
 5208      65727300 
 5209              	.LASF142:
 5210 0667 44533133 		.ascii	"DS1302_write\000"
 5210      30325F77 
 5210      72697465 
 5210      00
 5211              	.LASF72:
 5212 0674 61637469 		.ascii	"activ\000"
 5212      7600
 5213              	.LASF98:
 5214 067a 656D675F 		.ascii	"emg_speed\000"
 5214      73706565 
 5214      6400
 5215              	.LASF137:
 5216 0684 6D6F746F 		.ascii	"motor\000"
 5216      7200
 5217              	.LASF33:
 5218 068a 6572726F 		.ascii	"error\000"
 5218      7200
 5219              	.LASF155:
 5220 0690 696E666F 		.ascii	"info_read_\000"
 5220      5F726561 
 5220      645F00
 5221              	.LASF92:
 5222 069b 456E635F 		.ascii	"Enc_idx_use_for_control\000"
 5222      6964785F 
 5222      7573655F 
 5222      666F725F 
 5222      636F6E74 
 5223              	.LASF150:
 5224 06b3 73746F72 		.ascii	"store_RTC_current_time\000"
 5224      655F5254 
 5224      435F6375 
 5224      7272656E 
 5224      745F7469 
 5225              	.LASF147:
 5226 06ca 63757272 		.ascii	"currentBit\000"
 5226      656E7442 
 5226      697400
ARM GAS  C:\Users\Mattia\AppData\Local\Temp\ccPr8Am1.s 			page 106


 5227              	.LASF138:
 5228 06d5 75736572 		.ascii	"user\000"
 5228      00
 5229              	.LASF141:
 5230 06da 64617461 		.ascii	"data_wr\000"
 5230      5F777200 
 5231              	.LASF193:
 5232 06e2 6E66696C 		.ascii	"nfiles\000"
 5232      657300
 5233              	.LASF163:
 5234 06e9 57726974 		.ascii	"Write_SD_Param_file\000"
 5234      655F5344 
 5234      5F506172 
 5234      616D5F66 
 5234      696C6500 
 5235              	.LASF10:
 5236 06fd 696E7433 		.ascii	"int32_t\000"
 5236      325F7400 
 5237              	.LASF1:
 5238 0705 756E7369 		.ascii	"unsigned char\000"
 5238      676E6564 
 5238      20636861 
 5238      7200
 5239              	.LASF12:
 5240 0713 75696E74 		.ascii	"uint16\000"
 5240      313600
 5241              	.LASF199:
 5242 071a 73645061 		.ascii	"sdParam\000"
 5242      72616D00 
 5243              	.LASF90:
 5244 0722 6D5F6D75 		.ascii	"m_mult\000"
 5244      6C7400
 5245              	.LASF94:
 5246 0729 67656172 		.ascii	"gears_params\000"
 5246      735F7061 
 5246      72616D73 
 5246      00
 5247              	.LASF109:
 5248 0736 4144435F 		.ascii	"ADC_conf\000"
 5248      636F6E66 
 5248      00
 5249              	.LASF2:
 5250 073f 73686F72 		.ascii	"short int\000"
 5250      7420696E 
 5250      7400
 5251              	.LASF87:
 5252 0749 73745F65 		.ascii	"st_encoder\000"
 5252      6E636F64 
 5252      657200
 5253              	.LASF135:
 5254 0754 666C6167 		.ascii	"flag\000"
 5254      00
 5255              	.LASF154:
 5256 0759 696E666F 		.ascii	"info_\000"
 5256      5F00
 5257              	.LASF125:
 5258 075f 736C6176 		.ascii	"slave_ID\000"
ARM GAS  C:\Users\Mattia\AppData\Local\Temp\ccPr8Am1.s 			page 107


 5258      655F4944 
 5258      00
 5259              	.LASF81:
 5260 0768 63757272 		.ascii	"current_limit\000"
 5260      656E745F 
 5260      6C696D69 
 5260      7400
 5261              	.LASF51:
 5262 0776 73745F63 		.ascii	"st_counters\000"
 5262      6F756E74 
 5262      65727300 
 5263              	.LASF123:
 5264 0782 73745F4D 		.ascii	"st_MASTER_spec\000"
 5264      41535445 
 5264      525F7370 
 5264      656300
 5265              	.LASF187:
 5266 0791 6E796561 		.ascii	"nyears\000"
 5266      727300
 5267              	.LASF188:
 5268 0798 6E6D6F6E 		.ascii	"nmonths\000"
 5268      74687300 
 5269              	.LASF145:
 5270 07a0 72656164 		.ascii	"readValue\000"
 5270      56616C75 
 5270      6500
 5271              	.LASF44:
 5272 07aa 656D675F 		.ascii	"emg_counter\000"
 5272      636F756E 
 5272      74657200 
 5273              	.LASF75:
 5274 07b6 706F735F 		.ascii	"pos_lim_flag\000"
 5274      6C696D5F 
 5274      666C6167 
 5274      00
 5275              	.LASF95:
 5276 07c3 73745F65 		.ascii	"st_emg\000"
 5276      6D6700
 5277              	.LASF79:
 5278 07ca 6D61785F 		.ascii	"max_step_pos\000"
 5278      73746570 
 5278      5F706F73 
 5278      00
 5279              	.LASF50:
 5280 07d7 746F7461 		.ascii	"total_time_rest\000"
 5280      6C5F7469 
 5280      6D655F72 
 5280      65737400 
 5281              	.LASF27:
 5282 07e7 46697273 		.ascii	"FirstCluster\000"
 5282      74436C75 
 5282      73746572 
 5282      00
 5283              	.LASF47:
 5284 07f4 72657374 		.ascii	"rest_counter\000"
 5284      5F636F75 
 5284      6E746572 
ARM GAS  C:\Users\Mattia\AppData\Local\Temp\ccPr8Am1.s 			page 108


 5284      00
 5285              	.LASF35:
 5286 0801 46535F5F 		.ascii	"FS__DIR\000"
 5286      44495200 
 5287              	.LASF18:
 5288 0809 666C6F61 		.ascii	"float\000"
 5288      7400
 5289              	.LASF73:
 5290 080f 61637469 		.ascii	"activate_pwm_rescaling\000"
 5290      76617465 
 5290      5F70776D 
 5290      5F726573 
 5290      63616C69 
 5291              	.LASF148:
 5292 0826 73686966 		.ascii	"shiftOut_RTC\000"
 5292      744F7574 
 5292      5F525443 
 5292      00
 5293              	.LASF20:
 5294 0833 63686172 		.ascii	"char\000"
 5294      00
 5295              	.LASF118:
 5296 0838 72657374 		.ascii	"rest_position_flag\000"
 5296      5F706F73 
 5296      6974696F 
 5296      6E5F666C 
 5296      616700
 5297              	.LASF152:
 5298 084b 73644469 		.ascii	"sdDir\000"
 5298      7200
 5299              	.LASF48:
 5300 0851 77697265 		.ascii	"wire_disp\000"
 5300      5F646973 
 5300      7000
 5301              	.LASF39:
 5302 085b 4C617374 		.ascii	"LastWriteTime\000"
 5302      57726974 
 5302      6554696D 
 5302      6500
 5303              	.LASF42:
 5304 0869 53697A65 		.ascii	"SizeofFileName\000"
 5304      6F664669 
 5304      6C654E61 
 5304      6D6500
 5305              	.LASF105:
 5306 0878 73745F65 		.ascii	"st_expansion\000"
 5306      7870616E 
 5306      73696F6E 
 5306      00
 5307              	.LASF201:
 5308 0885 7364454D 		.ascii	"sdEMGHFile\000"
 5308      47484669 
 5308      6C6500
 5309              	.LASF25:
 5310 0890 46535F56 		.ascii	"FS_VOLUME\000"
 5310      4F4C554D 
 5310      4500
ARM GAS  C:\Users\Mattia\AppData\Local\Temp\ccPr8Am1.s 			page 109


 5311              	.LASF110:
 5312 089a 7265636F 		.ascii	"record_EMG_history_on_SD\000"
 5312      72645F45 
 5312      4D475F68 
 5312      6973746F 
 5312      72795F6F 
 5313              	.LASF41:
 5314 08b3 7346696C 		.ascii	"sFileName\000"
 5314      654E616D 
 5314      6500
 5315              	.LASF60:
 5316 08bd 6465765F 		.ascii	"dev_type\000"
 5316      74797065 
 5316      00
 5317              	.LASF70:
 5318 08c6 6B5F695F 		.ascii	"k_i_c_dl\000"
 5318      635F646C 
 5318      00
 5319              	.LASF59:
 5320 08cf 75736572 		.ascii	"user_id\000"
 5320      5F696400 
 5321              	.LASF88:
 5322 08d7 456E635F 		.ascii	"Enc_raw_read_conf\000"
 5322      7261775F 
 5322      72656164 
 5322      5F636F6E 
 5322      6600
 5323              	.LASF62:
 5324 08e9 73745F6D 		.ascii	"st_motor\000"
 5324      6F746F72 
 5324      00
 5325              	.LASF122:
 5326 08f2 6A6F7973 		.ascii	"joystick_gains\000"
 5326      7469636B 
 5326      5F676169 
 5326      6E7300
 5327              	.LASF176:
 5328 0901 66697273 		.ascii	"first_idx\000"
 5328      745F6964 
 5328      7800
 5329              	.LASF99:
 5330 090b 656D675F 		.ascii	"emg_calibration_flag\000"
 5330      63616C69 
 5330      62726174 
 5330      696F6E5F 
 5330      666C6167 
 5331              	.LASF170:
 5332 0920 52656164 		.ascii	"Read_SD_EMG_History_Data\000"
 5332      5F53445F 
 5332      454D475F 
 5332      48697374 
 5332      6F72795F 
 5333              	.LASF65:
 5334 0939 6B5F645F 		.ascii	"k_d_c\000"
 5334      6300
 5335              	.LASF166:
 5336 093f 696E666F 		.ascii	"info_file\000"
ARM GAS  C:\Users\Mattia\AppData\Local\Temp\ccPr8Am1.s 			page 110


 5336      5F66696C 
 5336      6500
 5337              	.LASF24:
 5338 0949 46535F46 		.ascii	"FS_FILE\000"
 5338      494C4500 
 5339              	.LASF102:
 5340 0951 72656164 		.ascii	"read_imu_flag\000"
 5340      5F696D75 
 5340      5F666C61 
 5340      6700
 5341              	.LASF171:
 5342 095f 69446174 		.ascii	"iData\000"
 5342      6100
 5343              	.LASF203:
 5344 0965 2E2E5C73 		.ascii	"..\\src\\SD_RTC_functions.c\000"
 5344      72635C53 
 5344      445F5254 
 5344      435F6675 
 5344      6E637469 
 5345              	.LASF200:
 5346 097f 70454D47 		.ascii	"pEMGHFile\000"
 5346      4846696C 
 5346      6500
 5347              	.LASF162:
 5348 0989 70446972 		.ascii	"pDir\000"
 5348      00
 5349              	.LASF178:
 5350 098e 61634469 		.ascii	"acDirname\000"
 5350      726E616D 
 5350      6500
 5351              	.LASF97:
 5352 0998 656D675F 		.ascii	"emg_max_value\000"
 5352      6D61785F 
 5352      76616C75 
 5352      6500
 5353              	.LASF157:
 5354 09a6 50617261 		.ascii	"Param_filename\000"
 5354      6D5F6669 
 5354      6C656E61 
 5354      6D6500
 5355              	.LASF71:
 5356 09b5 6B5F645F 		.ascii	"k_d_c_dl\000"
 5356      635F646C 
 5356      00
 5357              	.LASF15:
 5358 09be 696E7431 		.ascii	"int16\000"
 5358      3600
 5359              	.LASF107:
 5360 09c4 72656164 		.ascii	"read_exp_port_flag\000"
 5360      5F657870 
 5360      5F706F72 
 5360      745F666C 
 5360      616700
 5361              	.LASF114:
 5362 09d7 73745F53 		.ascii	"st_SH_spec\000"
 5362      485F7370 
 5362      656300
ARM GAS  C:\Users\Mattia\AppData\Local\Temp\ccPr8Am1.s 			page 111


 5363              	.LASF43:
 5364 09e2 46535F46 		.ascii	"FS_FIND_DATA\000"
 5364      494E445F 
 5364      44415441 
 5364      00
 5365              	.LASF91:
 5366 09ef 646F7562 		.ascii	"double_encoder_on_off\000"
 5366      6C655F65 
 5366      6E636F64 
 5366      65725F6F 
 5366      6E5F6F66 
 5367              	.LASF64:
 5368 0a05 6B5F695F 		.ascii	"k_i_c\000"
 5368      6300
 5369              	.LASF183:
 5370 0a0b 666F756E 		.ascii	"found_users\000"
 5370      645F7573 
 5370      65727300 
 5371              	.LASF191:
 5372 0a17 645F7061 		.ascii	"d_path\000"
 5372      746800
 5373              	.LASF32:
 5374 0a1e 70566F6C 		.ascii	"pVolume\000"
 5374      756D6500 
 5375              	.LASF190:
 5376 0a26 6D5F7061 		.ascii	"m_path\000"
 5376      746800
 5377              	.LASF54:
 5378 0a2d 73746174 		.ascii	"stats_period_begin_date\000"
 5378      735F7065 
 5378      72696F64 
 5378      5F626567 
 5378      696E5F64 
 5379              	.LASF19:
 5380 0a45 646F7562 		.ascii	"double\000"
 5380      6C6500
 5381              	.LASF66:
 5382 0a4c 6B5F705F 		.ascii	"k_p_dl\000"
 5382      646C00
 5383              	.LASF85:
 5384 0a53 70776D5F 		.ascii	"pwm_rate_limiter\000"
 5384      72617465 
 5384      5F6C696D 
 5384      69746572 
 5384      00
 5385              		.ident	"GCC: (GNU Tools for ARM Embedded Processors) 5.4.1 20160609 (release) [ARM/embedded-5-bran
