ARM GAS  C:\Users\Mattia\AppData\Local\Temp\ccsjO7ze.s 			page 1


   1              		.syntax unified
   2              		.cpu cortex-m3
   3              		.fpu softvfp
   4              		.eabi_attribute 20, 1
   5              		.eabi_attribute 21, 1
   6              		.eabi_attribute 23, 3
   7              		.eabi_attribute 24, 1
   8              		.eabi_attribute 25, 1
   9              		.eabi_attribute 26, 1
  10              		.eabi_attribute 30, 6
  11              		.eabi_attribute 34, 1
  12              		.eabi_attribute 18, 4
  13              		.thumb
  14              		.syntax unified
  15              		.file	"utils.c"
  16              		.text
  17              	.Ltext0:
  18              		.cfi_sections	.debug_frame
  19              		.global	__aeabi_i2f
  20              		.global	__aeabi_fmul
  21              		.global	__aeabi_fadd
  22              		.global	__aeabi_fdiv
  23              		.global	__aeabi_f2iz
  24              		.section	.text.curr_estim,"ax",%progbits
  25              		.align	2
  26              		.global	curr_estim
  27              		.thumb
  28              		.thumb_func
  29              		.type	curr_estim, %function
  30              	curr_estim:
  31              	.LFB64:
  32              		.file 1 "..\\src\\utils.c"
   1:..\src/utils.c **** // ----------------------------------------------------------------------------
   2:..\src/utils.c **** // BSD 3-Clause License
   3:..\src/utils.c **** 
   4:..\src/utils.c **** // Copyright (c) 2016, qbrobotics
   5:..\src/utils.c **** // Copyright (c) 2017-2020, Centro "E.Piaggio"
   6:..\src/utils.c **** // All rights reserved.
   7:..\src/utils.c **** 
   8:..\src/utils.c **** // Redistribution and use in source and binary forms, with or without
   9:..\src/utils.c **** // modification, are permitted provided that the following conditions are met:
  10:..\src/utils.c **** 
  11:..\src/utils.c **** // * Redistributions of source code must retain the above copyright notice, this
  12:..\src/utils.c **** //   list of conditions and the following disclaimer.
  13:..\src/utils.c **** 
  14:..\src/utils.c **** // * Redistributions in binary form must reproduce the above copyright notice,
  15:..\src/utils.c **** //   this list of conditions and the following disclaimer in the documentation
  16:..\src/utils.c **** //   and/or other materials provided with the distribution.
  17:..\src/utils.c **** 
  18:..\src/utils.c **** // * Neither the name of the copyright holder nor the names of its
  19:..\src/utils.c **** //   contributors may be used to endorse or promote products derived from
  20:..\src/utils.c **** //   this software without specific prior written permission.
  21:..\src/utils.c **** 
  22:..\src/utils.c **** // THIS SOFTWARE IS PROVIDED BY THE COPYRIGHT HOLDERS AND CONTRIBUTORS "AS IS"
  23:..\src/utils.c **** // AND ANY EXPRESS OR IMPLIED WARRANTIES, INCLUDING, BUT NOT LIMITED TO, THE
  24:..\src/utils.c **** // IMPLIED WARRANTIES OF MERCHANTABILITY AND FITNESS FOR A PARTICULAR PURPOSE ARE
  25:..\src/utils.c **** // DISCLAIMED. IN NO EVENT SHALL THE COPYRIGHT HOLDER OR CONTRIBUTORS BE LIABLE
ARM GAS  C:\Users\Mattia\AppData\Local\Temp\ccsjO7ze.s 			page 2


  26:..\src/utils.c **** // FOR ANY DIRECT, INDIRECT, INCIDENTAL, SPECIAL, EXEMPLARY, OR CONSEQUENTIAL
  27:..\src/utils.c **** // DAMAGES (INCLUDING, BUT NOT LIMITED TO, PROCUREMENT OF SUBSTITUTE GOODS OR
  28:..\src/utils.c **** // SERVICES; LOSS OF USE, DATA, OR PROFITS; OR BUSINESS INTERRUPTION) HOWEVER
  29:..\src/utils.c **** // CAUSED AND ON ANY THEORY OF LIABILITY, WHETHER IN CONTRACT, STRICT LIABILITY,
  30:..\src/utils.c **** // OR TORT (INCLUDING NEGLIGENCE OR OTHERWISE) ARISING IN ANY WAY OUT OF THE USE
  31:..\src/utils.c **** // OF THIS SOFTWARE, EVEN IF ADVISED OF THE POSSIBILITY OF SUCH DAMAGE.
  32:..\src/utils.c **** // POSSIBILITY OF SUCH DAMAGE.
  33:..\src/utils.c **** // ----------------------------------------------------------------------------
  34:..\src/utils.c **** 
  35:..\src/utils.c **** /**
  36:..\src/utils.c **** * \file         utils.c
  37:..\src/utils.c **** *
  38:..\src/utils.c **** * \brief        Definition of utility functions.
  39:..\src/utils.c **** * \date         March 20th, 2020
  40:..\src/utils.c **** * \author       _Centro "E.Piaggio"_
  41:..\src/utils.c **** * \copyright    (C) 2012-2016 qbrobotics. All rights reserved.
  42:..\src/utils.c **** * \copyright    (C) 2017-2020 Centro "E.Piaggio". All rights reserved.
  43:..\src/utils.c **** */
  44:..\src/utils.c **** 
  45:..\src/utils.c **** #include "utils.h"
  46:..\src/utils.c **** 
  47:..\src/utils.c **** //==============================================================================
  48:..\src/utils.c **** //                                                            Current Estimation
  49:..\src/utils.c **** //==============================================================================
  50:..\src/utils.c **** 
  51:..\src/utils.c **** int32 curr_estim ( uint8 idx, int32 pos, int32 vel, int32 ref ) {
  33              		.loc 1 51 0
  34              		.cfi_startproc
  35              		@ args = 0, pretend = 0, frame = 24
  36              		@ frame_needed = 1, uses_anonymous_args = 0
  37 0000 B0B5     		push	{r4, r5, r7, lr}
  38              		.cfi_def_cfa_offset 16
  39              		.cfi_offset 4, -16
  40              		.cfi_offset 5, -12
  41              		.cfi_offset 7, -8
  42              		.cfi_offset 14, -4
  43 0002 86B0     		sub	sp, sp, #24
  44              		.cfi_def_cfa_offset 40
  45 0004 00AF     		add	r7, sp, #0
  46              		.cfi_def_cfa_register 7
  47 0006 B960     		str	r1, [r7, #8]
  48 0008 7A60     		str	r2, [r7, #4]
  49 000a 3B60     		str	r3, [r7]
  50 000c 0346     		mov	r3, r0
  51 000e FB73     		strb	r3, [r7, #15]
  52:..\src/utils.c **** 
  53:..\src/utils.c ****         static int32 virtual_pos_friction[NUM_OF_MOTORS]; 	// Virtual position used to estimate fri
  54:..\src/utils.c ****         static int32 err_pos_dt[NUM_OF_MOTORS];			    // Temporal evolution of error position.
  55:..\src/utils.c **** 											// Needed to model the current transients due to reference steps.
  56:..\src/utils.c ****         int32 curr_estimate;
  57:..\src/utils.c **** 
  58:..\src/utils.c ****         if (pos < ZERO_TOL) 
  52              		.loc 1 58 0
  53 0010 BB68     		ldr	r3, [r7, #8]
  54 0012 632B     		cmp	r3, #99
  55 0014 05DC     		bgt	.L2
  59:..\src/utils.c **** 			virtual_pos_friction[idx] = pos;
ARM GAS  C:\Users\Mattia\AppData\Local\Temp\ccsjO7ze.s 			page 3


  56              		.loc 1 59 0
  57 0016 FB7B     		ldrb	r3, [r7, #15]	@ zero_extendqisi2
  58 0018 9049     		ldr	r1, .L9
  59 001a BA68     		ldr	r2, [r7, #8]
  60 001c 41F82320 		str	r2, [r1, r3, lsl #2]
  61 0020 1DE0     		b	.L3
  62              	.L2:
  60:..\src/utils.c ****         else {
  61:..\src/utils.c **** 			if ((pos - virtual_pos_friction[idx]) > ZMAX) 
  63              		.loc 1 61 0
  64 0022 FB7B     		ldrb	r3, [r7, #15]	@ zero_extendqisi2
  65 0024 8D4A     		ldr	r2, .L9
  66 0026 52F82330 		ldr	r3, [r2, r3, lsl #2]
  67 002a BA68     		ldr	r2, [r7, #8]
  68 002c D31A     		subs	r3, r2, r3
  69 002e 052B     		cmp	r3, #5
  70 0030 06DD     		ble	.L4
  62:..\src/utils.c **** 				virtual_pos_friction[idx] =  pos - ZMAX;
  71              		.loc 1 62 0
  72 0032 FB7B     		ldrb	r3, [r7, #15]	@ zero_extendqisi2
  73 0034 BA68     		ldr	r2, [r7, #8]
  74 0036 053A     		subs	r2, r2, #5
  75 0038 8849     		ldr	r1, .L9
  76 003a 41F82320 		str	r2, [r1, r3, lsl #2]
  77 003e 0EE0     		b	.L3
  78              	.L4:
  63:..\src/utils.c ****         	else { 
  64:..\src/utils.c **** 				if ((pos - virtual_pos_friction[idx]) < -ZMAX) 
  79              		.loc 1 64 0
  80 0040 FB7B     		ldrb	r3, [r7, #15]	@ zero_extendqisi2
  81 0042 864A     		ldr	r2, .L9
  82 0044 52F82330 		ldr	r3, [r2, r3, lsl #2]
  83 0048 BA68     		ldr	r2, [r7, #8]
  84 004a D31A     		subs	r3, r2, r3
  85 004c 13F1050F 		cmn	r3, #5
  86 0050 05DA     		bge	.L3
  65:..\src/utils.c **** 					virtual_pos_friction[idx] =  pos + ZMAX;
  87              		.loc 1 65 0
  88 0052 FB7B     		ldrb	r3, [r7, #15]	@ zero_extendqisi2
  89 0054 BA68     		ldr	r2, [r7, #8]
  90 0056 0532     		adds	r2, r2, #5
  91 0058 8049     		ldr	r1, .L9
  92 005a 41F82320 		str	r2, [r1, r3, lsl #2]
  93              	.L3:
  66:..\src/utils.c **** 			}
  67:..\src/utils.c **** 		}        
  68:..\src/utils.c ****        
  69:..\src/utils.c ****         curr_estimate = pos * g_mem.motor[idx].curr_lookup[0] * (1 + pos * g_mem.motor[idx].curr_lo
  94              		.loc 1 69 0
  95 005e B868     		ldr	r0, [r7, #8]
  96 0060 FFF7FEFF 		bl	__aeabi_i2f
  97 0064 FA7B     		ldrb	r2, [r7, #15]	@ zero_extendqisi2
  98 0066 7E49     		ldr	r1, .L9+4
  99 0068 1346     		mov	r3, r2
 100 006a DB00     		lsls	r3, r3, #3
 101 006c 9B1A     		subs	r3, r3, r2
 102 006e 1B01     		lsls	r3, r3, #4
ARM GAS  C:\Users\Mattia\AppData\Local\Temp\ccsjO7ze.s 			page 4


 103 0070 0B44     		add	r3, r3, r1
 104 0072 F433     		adds	r3, r3, #244
 105 0074 1B68     		ldr	r3, [r3]	@ float
 106 0076 1946     		mov	r1, r3
 107 0078 FFF7FEFF 		bl	__aeabi_fmul
 108 007c 0346     		mov	r3, r0
 109 007e 1C46     		mov	r4, r3
 110 0080 B868     		ldr	r0, [r7, #8]
 111 0082 FFF7FEFF 		bl	__aeabi_i2f
 112 0086 FA7B     		ldrb	r2, [r7, #15]	@ zero_extendqisi2
 113 0088 7549     		ldr	r1, .L9+4
 114 008a 1346     		mov	r3, r2
 115 008c DB00     		lsls	r3, r3, #3
 116 008e 9B1A     		subs	r3, r3, r2
 117 0090 1B01     		lsls	r3, r3, #4
 118 0092 0B44     		add	r3, r3, r1
 119 0094 F833     		adds	r3, r3, #248
 120 0096 1B68     		ldr	r3, [r3]	@ float
 121 0098 1946     		mov	r1, r3
 122 009a FFF7FEFF 		bl	__aeabi_fmul
 123 009e 0346     		mov	r3, r0
 124 00a0 4FF07E51 		mov	r1, #1065353216
 125 00a4 1846     		mov	r0, r3
 126 00a6 FFF7FEFF 		bl	__aeabi_fadd
 127 00aa 0346     		mov	r3, r0
 128 00ac 1946     		mov	r1, r3
 129 00ae 2046     		mov	r0, r4
 130 00b0 FFF7FEFF 		bl	__aeabi_fmul
 131 00b4 0346     		mov	r3, r0
 132 00b6 1C46     		mov	r4, r3
 133 00b8 FB7B     		ldrb	r3, [r7, #15]	@ zero_extendqisi2
 134 00ba 684A     		ldr	r2, .L9
 135 00bc 52F82330 		ldr	r3, [r2, r3, lsl #2]
 136 00c0 BA68     		ldr	r2, [r7, #8]
 137 00c2 D31A     		subs	r3, r2, r3
 138 00c4 1846     		mov	r0, r3
 139 00c6 FFF7FEFF 		bl	__aeabi_i2f
 140 00ca 0546     		mov	r5, r0
 141 00cc FA7B     		ldrb	r2, [r7, #15]	@ zero_extendqisi2
 142 00ce 6449     		ldr	r1, .L9+4
 143 00d0 1346     		mov	r3, r2
 144 00d2 DB00     		lsls	r3, r3, #3
 145 00d4 9B1A     		subs	r3, r3, r2
 146 00d6 1B01     		lsls	r3, r3, #4
 147 00d8 0B44     		add	r3, r3, r1
 148 00da FC33     		adds	r3, r3, #252
 149 00dc 1B68     		ldr	r3, [r3]	@ float
 150 00de 6149     		ldr	r1, .L9+8
 151 00e0 1846     		mov	r0, r3
 152 00e2 FFF7FEFF 		bl	__aeabi_fdiv
 153 00e6 0346     		mov	r3, r0
 154 00e8 1946     		mov	r1, r3
 155 00ea 2846     		mov	r0, r5
 156 00ec FFF7FEFF 		bl	__aeabi_fmul
 157 00f0 0346     		mov	r3, r0
 158 00f2 1946     		mov	r1, r3
 159 00f4 2046     		mov	r0, r4
ARM GAS  C:\Users\Mattia\AppData\Local\Temp\ccsjO7ze.s 			page 5


 160 00f6 FFF7FEFF 		bl	__aeabi_fadd
 161 00fa 0346     		mov	r3, r0
 162 00fc 1C46     		mov	r4, r3
 163 00fe 7868     		ldr	r0, [r7, #4]
 164 0100 FFF7FEFF 		bl	__aeabi_i2f
 165 0104 FA7B     		ldrb	r2, [r7, #15]	@ zero_extendqisi2
 166 0106 5649     		ldr	r1, .L9+4
 167 0108 1346     		mov	r3, r2
 168 010a DB00     		lsls	r3, r3, #3
 169 010c 9B1A     		subs	r3, r3, r2
 170 010e 1B01     		lsls	r3, r3, #4
 171 0110 0B44     		add	r3, r3, r1
 172 0112 03F58073 		add	r3, r3, #256
 173 0116 1B68     		ldr	r3, [r3]	@ float
 174 0118 1946     		mov	r1, r3
 175 011a FFF7FEFF 		bl	__aeabi_fmul
 176 011e 0346     		mov	r3, r0
 177 0120 1D46     		mov	r5, r3
 178 0122 7B68     		ldr	r3, [r7, #4]
 179 0124 002B     		cmp	r3, #0
 180 0126 B8BF     		it	lt
 181 0128 5B42     		rsblt	r3, r3, #0
 182 012a 1846     		mov	r0, r3
 183 012c FFF7FEFF 		bl	__aeabi_i2f
 184 0130 FA7B     		ldrb	r2, [r7, #15]	@ zero_extendqisi2
 185 0132 4B49     		ldr	r1, .L9+4
 186 0134 1346     		mov	r3, r2
 187 0136 DB00     		lsls	r3, r3, #3
 188 0138 9B1A     		subs	r3, r3, r2
 189 013a 1B01     		lsls	r3, r3, #4
 190 013c 0B44     		add	r3, r3, r1
 191 013e 03F58273 		add	r3, r3, #260
 192 0142 1B68     		ldr	r3, [r3]	@ float
 193 0144 1946     		mov	r1, r3
 194 0146 FFF7FEFF 		bl	__aeabi_fmul
 195 014a 0346     		mov	r3, r0
 196 014c 4FF07E51 		mov	r1, #1065353216
 197 0150 1846     		mov	r0, r3
 198 0152 FFF7FEFF 		bl	__aeabi_fadd
 199 0156 0346     		mov	r3, r0
 200 0158 1946     		mov	r1, r3
 201 015a 2846     		mov	r0, r5
 202 015c FFF7FEFF 		bl	__aeabi_fmul
 203 0160 0346     		mov	r3, r0
 204 0162 1946     		mov	r1, r3
 205 0164 2046     		mov	r0, r4
 206 0166 FFF7FEFF 		bl	__aeabi_fadd
 207 016a 0346     		mov	r3, r0
 208 016c 1C46     		mov	r4, r3
 209 016e FB7B     		ldrb	r3, [r7, #15]	@ zero_extendqisi2
 210 0170 3D4A     		ldr	r2, .L9+12
 211 0172 52F82330 		ldr	r3, [r2, r3, lsl #2]
 212 0176 3A68     		ldr	r2, [r7]
 213 0178 D31A     		subs	r3, r2, r3
 214 017a 1846     		mov	r0, r3
 215 017c FFF7FEFF 		bl	__aeabi_i2f
 216 0180 FA7B     		ldrb	r2, [r7, #15]	@ zero_extendqisi2
ARM GAS  C:\Users\Mattia\AppData\Local\Temp\ccsjO7ze.s 			page 6


 217 0182 3749     		ldr	r1, .L9+4
 218 0184 1346     		mov	r3, r2
 219 0186 DB00     		lsls	r3, r3, #3
 220 0188 9B1A     		subs	r3, r3, r2
 221 018a 1B01     		lsls	r3, r3, #4
 222 018c 0B44     		add	r3, r3, r1
 223 018e 03F58473 		add	r3, r3, #264
 224 0192 1B68     		ldr	r3, [r3]	@ float
 225 0194 1946     		mov	r1, r3
 226 0196 FFF7FEFF 		bl	__aeabi_fmul
 227 019a 0346     		mov	r3, r0
 228 019c 1946     		mov	r1, r3
 229 019e 2046     		mov	r0, r4
 230 01a0 FFF7FEFF 		bl	__aeabi_fadd
 231 01a4 0346     		mov	r3, r0
 232 01a6 1846     		mov	r0, r3
 233 01a8 FFF7FEFF 		bl	__aeabi_f2iz
 234 01ac 0346     		mov	r3, r0
 235 01ae 7B61     		str	r3, [r7, #20]
  70:..\src/utils.c ****         
  71:..\src/utils.c ****         if (curr_estimate > c_mem.motor[idx].current_limit) 
 236              		.loc 1 71 0
 237 01b0 FA7B     		ldrb	r2, [r7, #15]	@ zero_extendqisi2
 238 01b2 2E49     		ldr	r1, .L9+16
 239 01b4 1346     		mov	r3, r2
 240 01b6 DB00     		lsls	r3, r3, #3
 241 01b8 9B1A     		subs	r3, r3, r2
 242 01ba 1B01     		lsls	r3, r3, #4
 243 01bc 0B44     		add	r3, r3, r1
 244 01be 03F58673 		add	r3, r3, #268
 245 01c2 B3F90030 		ldrsh	r3, [r3]
 246 01c6 1A46     		mov	r2, r3
 247 01c8 7B69     		ldr	r3, [r7, #20]
 248 01ca 9A42     		cmp	r2, r3
 249 01cc 0CDA     		bge	.L5
  72:..\src/utils.c ****             curr_estimate = c_mem.motor[idx].current_limit;
 250              		.loc 1 72 0
 251 01ce FA7B     		ldrb	r2, [r7, #15]	@ zero_extendqisi2
 252 01d0 2649     		ldr	r1, .L9+16
 253 01d2 1346     		mov	r3, r2
 254 01d4 DB00     		lsls	r3, r3, #3
 255 01d6 9B1A     		subs	r3, r3, r2
 256 01d8 1B01     		lsls	r3, r3, #4
 257 01da 0B44     		add	r3, r3, r1
 258 01dc 03F58673 		add	r3, r3, #268
 259 01e0 B3F90030 		ldrsh	r3, [r3]
 260 01e4 7B61     		str	r3, [r7, #20]
 261 01e6 1BE0     		b	.L6
 262              	.L5:
  73:..\src/utils.c ****         else {
  74:..\src/utils.c **** 			if (curr_estimate < -c_mem.motor[idx].current_limit)
 263              		.loc 1 74 0
 264 01e8 FA7B     		ldrb	r2, [r7, #15]	@ zero_extendqisi2
 265 01ea 2049     		ldr	r1, .L9+16
 266 01ec 1346     		mov	r3, r2
 267 01ee DB00     		lsls	r3, r3, #3
 268 01f0 9B1A     		subs	r3, r3, r2
ARM GAS  C:\Users\Mattia\AppData\Local\Temp\ccsjO7ze.s 			page 7


 269 01f2 1B01     		lsls	r3, r3, #4
 270 01f4 0B44     		add	r3, r3, r1
 271 01f6 03F58673 		add	r3, r3, #268
 272 01fa B3F90030 		ldrsh	r3, [r3]
 273 01fe 5A42     		negs	r2, r3
 274 0200 7B69     		ldr	r3, [r7, #20]
 275 0202 9A42     		cmp	r2, r3
 276 0204 0CDD     		ble	.L6
  75:..\src/utils.c ****             	curr_estimate = -c_mem.motor[idx].current_limit;
 277              		.loc 1 75 0
 278 0206 FA7B     		ldrb	r2, [r7, #15]	@ zero_extendqisi2
 279 0208 1849     		ldr	r1, .L9+16
 280 020a 1346     		mov	r3, r2
 281 020c DB00     		lsls	r3, r3, #3
 282 020e 9B1A     		subs	r3, r3, r2
 283 0210 1B01     		lsls	r3, r3, #4
 284 0212 0B44     		add	r3, r3, r1
 285 0214 03F58673 		add	r3, r3, #268
 286 0218 B3F90030 		ldrsh	r3, [r3]
 287 021c 5B42     		negs	r3, r3
 288 021e 7B61     		str	r3, [r7, #20]
 289              	.L6:
  76:..\src/utils.c **** 		}
  77:..\src/utils.c **** 
  78:..\src/utils.c ****         err_pos_dt[idx] = (REFSPEED * ref + (1024 - REFSPEED) * err_pos_dt[idx]) / 1024;         
 290              		.loc 1 78 0
 291 0220 F97B     		ldrb	r1, [r7, #15]	@ zero_extendqisi2
 292 0222 3A68     		ldr	r2, [r7]
 293 0224 1346     		mov	r3, r2
 294 0226 9B00     		lsls	r3, r3, #2
 295 0228 1344     		add	r3, r3, r2
 296 022a 9B00     		lsls	r3, r3, #2
 297 022c 1846     		mov	r0, r3
 298 022e FB7B     		ldrb	r3, [r7, #15]	@ zero_extendqisi2
 299 0230 0D4A     		ldr	r2, .L9+12
 300 0232 52F82330 		ldr	r3, [r2, r3, lsl #2]
 301 0236 4FF47B72 		mov	r2, #1004
 302 023a 02FB03F3 		mul	r3, r2, r3
 303 023e 0344     		add	r3, r3, r0
 304 0240 002B     		cmp	r3, #0
 305 0242 01DA     		bge	.L7
 306 0244 03F2FF33 		addw	r3, r3, #1023
 307              	.L7:
 308 0248 9B12     		asrs	r3, r3, #10
 309 024a 1A46     		mov	r2, r3
 310 024c 064B     		ldr	r3, .L9+12
 311 024e 43F82120 		str	r2, [r3, r1, lsl #2]
  79:..\src/utils.c ****         
  80:..\src/utils.c ****         return curr_estimate; 
 312              		.loc 1 80 0
 313 0252 7B69     		ldr	r3, [r7, #20]
  81:..\src/utils.c ****     
  82:..\src/utils.c **** }
 314              		.loc 1 82 0
 315 0254 1846     		mov	r0, r3
 316 0256 1837     		adds	r7, r7, #24
 317              		.cfi_def_cfa_offset 16
ARM GAS  C:\Users\Mattia\AppData\Local\Temp\ccsjO7ze.s 			page 8


 318 0258 BD46     		mov	sp, r7
 319              		.cfi_def_cfa_register 13
 320              		@ sp needed
 321 025a B0BD     		pop	{r4, r5, r7, pc}
 322              	.L10:
 323              		.align	2
 324              	.L9:
 325 025c 00000000 		.word	virtual_pos_friction.10181
 326 0260 00000000 		.word	g_mem
 327 0264 0000A040 		.word	1084227584
 328 0268 08000000 		.word	err_pos_dt.10182
 329 026c 00000000 		.word	c_mem
 330              		.cfi_endproc
 331              	.LFE64:
 332              		.size	curr_estim, .-curr_estim
 333              		.section	.text.filter,"ax",%progbits
 334              		.align	2
 335              		.global	filter
 336              		.thumb
 337              		.thumb_func
 338              		.type	filter, %function
 339              	filter:
 340              	.LFB65:
  83:..\src/utils.c **** 
  84:..\src/utils.c **** //==============================================================================
  85:..\src/utils.c **** //                                                                General filter
  86:..\src/utils.c **** //==============================================================================
  87:..\src/utils.c **** int32 filter(int32 new_value, struct st_filter *f) {
 341              		.loc 1 87 0
 342              		.cfi_startproc
 343              		@ args = 0, pretend = 0, frame = 16
 344              		@ frame_needed = 1, uses_anonymous_args = 0
 345              		@ link register save eliminated.
 346 0000 80B4     		push	{r7}
 347              		.cfi_def_cfa_offset 4
 348              		.cfi_offset 7, -4
 349 0002 85B0     		sub	sp, sp, #20
 350              		.cfi_def_cfa_offset 24
 351 0004 00AF     		add	r7, sp, #0
 352              		.cfi_def_cfa_register 7
 353 0006 7860     		str	r0, [r7, #4]
 354 0008 3960     		str	r1, [r7]
  88:..\src/utils.c **** 
  89:..\src/utils.c ****     int32 aux;
  90:..\src/utils.c **** 
  91:..\src/utils.c ****     aux = (f->old_value * (1024 - f->gain) + (new_value << 6) * (f->gain)) /1024;
 355              		.loc 1 91 0
 356 000a 3B68     		ldr	r3, [r7]
 357 000c 1B68     		ldr	r3, [r3]
 358 000e 3A68     		ldr	r2, [r7]
 359 0010 5268     		ldr	r2, [r2, #4]
 360 0012 C2F58062 		rsb	r2, r2, #1024
 361 0016 02FB03F2 		mul	r2, r2, r3
 362 001a 7B68     		ldr	r3, [r7, #4]
 363 001c 9B01     		lsls	r3, r3, #6
 364 001e 3968     		ldr	r1, [r7]
 365 0020 4968     		ldr	r1, [r1, #4]
ARM GAS  C:\Users\Mattia\AppData\Local\Temp\ccsjO7ze.s 			page 9


 366 0022 01FB03F3 		mul	r3, r1, r3
 367 0026 1344     		add	r3, r3, r2
 368 0028 002B     		cmp	r3, #0
 369 002a 01DA     		bge	.L12
 370 002c 03F2FF33 		addw	r3, r3, #1023
 371              	.L12:
 372 0030 9B12     		asrs	r3, r3, #10
 373 0032 FB60     		str	r3, [r7, #12]
  92:..\src/utils.c **** 
  93:..\src/utils.c ****     f->old_value = aux;
 374              		.loc 1 93 0
 375 0034 3B68     		ldr	r3, [r7]
 376 0036 FA68     		ldr	r2, [r7, #12]
 377 0038 1A60     		str	r2, [r3]
  94:..\src/utils.c **** 
  95:..\src/utils.c ****     return (aux / 64);
 378              		.loc 1 95 0
 379 003a FB68     		ldr	r3, [r7, #12]
 380 003c 002B     		cmp	r3, #0
 381 003e 00DA     		bge	.L13
 382 0040 3F33     		adds	r3, r3, #63
 383              	.L13:
 384 0042 9B11     		asrs	r3, r3, #6
  96:..\src/utils.c **** }
 385              		.loc 1 96 0
 386 0044 1846     		mov	r0, r3
 387 0046 1437     		adds	r7, r7, #20
 388              		.cfi_def_cfa_offset 4
 389 0048 BD46     		mov	sp, r7
 390              		.cfi_def_cfa_register 13
 391              		@ sp needed
 392 004a 80BC     		pop	{r7}
 393              		.cfi_restore 7
 394              		.cfi_def_cfa_offset 0
 395 004c 7047     		bx	lr
 396              		.cfi_endproc
 397              	.LFE65:
 398              		.size	filter, .-filter
 399 004e 00BF     		.section	.text.my_mod,"ax",%progbits
 400              		.align	2
 401              		.global	my_mod
 402              		.thumb
 403              		.thumb_func
 404              		.type	my_mod, %function
 405              	my_mod:
 406              	.LFB66:
  97:..\src/utils.c **** 
  98:..\src/utils.c **** //==============================================================================
  99:..\src/utils.c **** //                                                                        MODULE
 100:..\src/utils.c **** //==============================================================================
 101:..\src/utils.c **** 
 102:..\src/utils.c **** uint32 my_mod(int32 val, int32 divisor) {
 407              		.loc 1 102 0
 408              		.cfi_startproc
 409              		@ args = 0, pretend = 0, frame = 8
 410              		@ frame_needed = 1, uses_anonymous_args = 0
 411              		@ link register save eliminated.
ARM GAS  C:\Users\Mattia\AppData\Local\Temp\ccsjO7ze.s 			page 10


 412 0000 80B4     		push	{r7}
 413              		.cfi_def_cfa_offset 4
 414              		.cfi_offset 7, -4
 415 0002 83B0     		sub	sp, sp, #12
 416              		.cfi_def_cfa_offset 16
 417 0004 00AF     		add	r7, sp, #0
 418              		.cfi_def_cfa_register 7
 419 0006 7860     		str	r0, [r7, #4]
 420 0008 3960     		str	r1, [r7]
 103:..\src/utils.c **** 
 104:..\src/utils.c ****     if (val >= 0) {
 421              		.loc 1 104 0
 422 000a 7B68     		ldr	r3, [r7, #4]
 423 000c 002B     		cmp	r3, #0
 424 000e 08DB     		blt	.L16
 105:..\src/utils.c ****         return (int32)(val % divisor);
 425              		.loc 1 105 0
 426 0010 7B68     		ldr	r3, [r7, #4]
 427 0012 3A68     		ldr	r2, [r7]
 428 0014 93FBF2F2 		sdiv	r2, r3, r2
 429 0018 3968     		ldr	r1, [r7]
 430 001a 01FB02F2 		mul	r2, r1, r2
 431 001e 9B1A     		subs	r3, r3, r2
 432 0020 11E0     		b	.L17
 433              	.L16:
 106:..\src/utils.c ****     } else {
 107:..\src/utils.c ****         return (int32)((divisor - (-val % divisor)) % divisor);
 434              		.loc 1 107 0
 435 0022 7B68     		ldr	r3, [r7, #4]
 436 0024 5B42     		negs	r3, r3
 437 0026 3A68     		ldr	r2, [r7]
 438 0028 93FBF2F2 		sdiv	r2, r3, r2
 439 002c 3968     		ldr	r1, [r7]
 440 002e 01FB02F2 		mul	r2, r1, r2
 441 0032 9B1A     		subs	r3, r3, r2
 442 0034 3A68     		ldr	r2, [r7]
 443 0036 D31A     		subs	r3, r2, r3
 444 0038 3A68     		ldr	r2, [r7]
 445 003a 93FBF2F2 		sdiv	r2, r3, r2
 446 003e 3968     		ldr	r1, [r7]
 447 0040 01FB02F2 		mul	r2, r1, r2
 448 0044 9B1A     		subs	r3, r3, r2
 449              	.L17:
 108:..\src/utils.c ****     }
 109:..\src/utils.c **** }
 450              		.loc 1 109 0
 451 0046 1846     		mov	r0, r3
 452 0048 0C37     		adds	r7, r7, #12
 453              		.cfi_def_cfa_offset 4
 454 004a BD46     		mov	sp, r7
 455              		.cfi_def_cfa_register 13
 456              		@ sp needed
 457 004c 80BC     		pop	{r7}
 458              		.cfi_restore 7
 459              		.cfi_def_cfa_offset 0
 460 004e 7047     		bx	lr
 461              		.cfi_endproc
ARM GAS  C:\Users\Mattia\AppData\Local\Temp\ccsjO7ze.s 			page 11


 462              	.LFE66:
 463              		.size	my_mod, .-my_mod
 464              		.section	.text.calibration,"ax",%progbits
 465              		.align	2
 466              		.global	calibration
 467              		.thumb
 468              		.thumb_func
 469              		.type	calibration, %function
 470              	calibration:
 471              	.LFB67:
 110:..\src/utils.c **** 
 111:..\src/utils.c **** 
 112:..\src/utils.c **** //==============================================================================
 113:..\src/utils.c **** //                                                                     CALIBRATE
 114:..\src/utils.c **** //==============================================================================
 115:..\src/utils.c **** 
 116:..\src/utils.c **** void calibration(void) {
 472              		.loc 1 116 0
 473              		.cfi_startproc
 474              		@ args = 0, pretend = 0, frame = 0
 475              		@ frame_needed = 1, uses_anonymous_args = 0
 476              		@ link register save eliminated.
 477 0000 90B4     		push	{r4, r7}
 478              		.cfi_def_cfa_offset 8
 479              		.cfi_offset 4, -8
 480              		.cfi_offset 7, -4
 481 0002 00AF     		add	r7, sp, #0
 482              		.cfi_def_cfa_register 7
 117:..\src/utils.c ****     static uint8 direction;                 //0 closing, 1 opening.
 118:..\src/utils.c ****     static uint16 closure_counter = 0;          //Range [0 - 2^16].
 119:..\src/utils.c ****     //static CYBIT count_one = 1;             //Used to count only one cycle, when inputs are gener
 120:..\src/utils.c ****                                             //and pass the threshold, having the condition verified
 121:..\src/utils.c **** 
 122:..\src/utils.c ****     // closing
 123:..\src/utils.c ****     if (direction == 0) {
 483              		.loc 1 123 0
 484 0004 2E4B     		ldr	r3, .L23
 485 0006 1B78     		ldrb	r3, [r3]	@ zero_extendqisi2
 486 0008 002B     		cmp	r3, #0
 487 000a 22D1     		bne	.L19
 124:..\src/utils.c ****         g_refNew[0].pos += (calib.speed << g_mem.enc[g_mem.motor[0].encoder_line].res[0]);
 488              		.loc 1 124 0
 489 000c 2D4B     		ldr	r3, .L23+4
 490 000e 1A68     		ldr	r2, [r3]
 491 0010 2D4B     		ldr	r3, .L23+8
 492 0012 B3F90230 		ldrsh	r3, [r3, #2]
 493 0016 1C46     		mov	r4, r3
 494 0018 2C4B     		ldr	r3, .L23+12
 495 001a 93F81031 		ldrb	r3, [r3, #272]	@ zero_extendqisi2
 496 001e 1846     		mov	r0, r3
 497 0020 2A49     		ldr	r1, .L23+12
 498 0022 0346     		mov	r3, r0
 499 0024 5B00     		lsls	r3, r3, #1
 500 0026 0344     		add	r3, r3, r0
 501 0028 1B01     		lsls	r3, r3, #4
 502 002a 0B44     		add	r3, r3, r1
 503 002c 03F29513 		addw	r3, r3, #405
ARM GAS  C:\Users\Mattia\AppData\Local\Temp\ccsjO7ze.s 			page 12


 504 0030 1B78     		ldrb	r3, [r3]	@ zero_extendqisi2
 505 0032 04FA03F3 		lsl	r3, r4, r3
 506 0036 1344     		add	r3, r3, r2
 507 0038 224A     		ldr	r2, .L23+4
 508 003a 1360     		str	r3, [r2]
 125:..\src/utils.c ****         
 126:..\src/utils.c ****         if ((g_refNew[0].pos) > g_mem.motor[0].pos_lim_sup) {
 509              		.loc 1 126 0
 510 003c 214B     		ldr	r3, .L23+4
 511 003e 1A68     		ldr	r2, [r3]
 512 0040 224B     		ldr	r3, .L23+12
 513 0042 D3F8E830 		ldr	r3, [r3, #232]
 514 0046 9A42     		cmp	r2, r3
 515 0048 36DD     		ble	.L22
 127:..\src/utils.c ****             direction = 1;
 516              		.loc 1 127 0
 517 004a 1D4B     		ldr	r3, .L23
 518 004c 0122     		movs	r2, #1
 519 004e 1A70     		strb	r2, [r3]
 128:..\src/utils.c ****         }
 129:..\src/utils.c ****     } else { //opening
 130:..\src/utils.c ****         g_refNew[0].pos -= (calib.speed << g_mem.enc[g_mem.motor[0].encoder_line].res[0]);
 131:..\src/utils.c ****         if (SIGN(g_refNew[0].pos) != 1) {
 132:..\src/utils.c ****             direction = 0;
 133:..\src/utils.c ****             closure_counter++;
 134:..\src/utils.c **** //            count_one = 1;          // Enables back the cycles counter
 135:..\src/utils.c ****             if (closure_counter == calib.repetitions) {
 136:..\src/utils.c ****                 closure_counter = 0;
 137:..\src/utils.c ****                 calib.enabled = FALSE;
 138:..\src/utils.c ****             }
 139:..\src/utils.c ****         }
 140:..\src/utils.c ****     }
 141:..\src/utils.c **** }
 520              		.loc 1 141 0
 521 0050 32E0     		b	.L22
 522              	.L19:
 130:..\src/utils.c ****         if (SIGN(g_refNew[0].pos) != 1) {
 523              		.loc 1 130 0
 524 0052 1C4B     		ldr	r3, .L23+4
 525 0054 1A68     		ldr	r2, [r3]
 526 0056 1C4B     		ldr	r3, .L23+8
 527 0058 B3F90230 		ldrsh	r3, [r3, #2]
 528 005c 1C46     		mov	r4, r3
 529 005e 1B4B     		ldr	r3, .L23+12
 530 0060 93F81031 		ldrb	r3, [r3, #272]	@ zero_extendqisi2
 531 0064 1846     		mov	r0, r3
 532 0066 1949     		ldr	r1, .L23+12
 533 0068 0346     		mov	r3, r0
 534 006a 5B00     		lsls	r3, r3, #1
 535 006c 0344     		add	r3, r3, r0
 536 006e 1B01     		lsls	r3, r3, #4
 537 0070 0B44     		add	r3, r3, r1
 538 0072 03F29513 		addw	r3, r3, #405
 539 0076 1B78     		ldrb	r3, [r3]	@ zero_extendqisi2
 540 0078 04FA03F3 		lsl	r3, r4, r3
 541 007c D31A     		subs	r3, r2, r3
 542 007e 114A     		ldr	r2, .L23+4
ARM GAS  C:\Users\Mattia\AppData\Local\Temp\ccsjO7ze.s 			page 13


 543 0080 1360     		str	r3, [r2]
 131:..\src/utils.c ****             direction = 0;
 544              		.loc 1 131 0
 545 0082 104B     		ldr	r3, .L23+4
 546 0084 1B68     		ldr	r3, [r3]
 547 0086 002B     		cmp	r3, #0
 548 0088 16DA     		bge	.L22
 132:..\src/utils.c ****             closure_counter++;
 549              		.loc 1 132 0
 550 008a 0D4B     		ldr	r3, .L23
 551 008c 0022     		movs	r2, #0
 552 008e 1A70     		strb	r2, [r3]
 133:..\src/utils.c **** //            count_one = 1;          // Enables back the cycles counter
 553              		.loc 1 133 0
 554 0090 0F4B     		ldr	r3, .L23+16
 555 0092 1B88     		ldrh	r3, [r3]
 556 0094 0133     		adds	r3, r3, #1
 557 0096 9AB2     		uxth	r2, r3
 558 0098 0D4B     		ldr	r3, .L23+16
 559 009a 1A80     		strh	r2, [r3]	@ movhi
 135:..\src/utils.c ****                 closure_counter = 0;
 560              		.loc 1 135 0
 561 009c 0C4B     		ldr	r3, .L23+16
 562 009e 1B88     		ldrh	r3, [r3]
 563 00a0 1A46     		mov	r2, r3
 564 00a2 094B     		ldr	r3, .L23+8
 565 00a4 B3F90430 		ldrsh	r3, [r3, #4]
 566 00a8 9A42     		cmp	r2, r3
 567 00aa 05D1     		bne	.L22
 136:..\src/utils.c ****                 calib.enabled = FALSE;
 568              		.loc 1 136 0
 569 00ac 084B     		ldr	r3, .L23+16
 570 00ae 0022     		movs	r2, #0
 571 00b0 1A80     		strh	r2, [r3]	@ movhi
 137:..\src/utils.c ****             }
 572              		.loc 1 137 0
 573 00b2 054B     		ldr	r3, .L23+8
 574 00b4 0022     		movs	r2, #0
 575 00b6 1A70     		strb	r2, [r3]
 576              	.L22:
 577              		.loc 1 141 0
 578 00b8 00BF     		nop
 579 00ba BD46     		mov	sp, r7
 580              		.cfi_def_cfa_register 13
 581              		@ sp needed
 582 00bc 90BC     		pop	{r4, r7}
 583              		.cfi_restore 7
 584              		.cfi_restore 4
 585              		.cfi_def_cfa_offset 0
 586 00be 7047     		bx	lr
 587              	.L24:
 588              		.align	2
 589              	.L23:
 590 00c0 10000000 		.word	direction.10196
 591 00c4 00000000 		.word	g_refNew
 592 00c8 00000000 		.word	calib
 593 00cc 00000000 		.word	g_mem
ARM GAS  C:\Users\Mattia\AppData\Local\Temp\ccsjO7ze.s 			page 14


 594 00d0 12000000 		.word	closure_counter.10197
 595              		.cfi_endproc
 596              	.LFE67:
 597              		.size	calibration, .-calibration
 598              		.section	.text.calc_turns_fcn_SH,"ax",%progbits
 599              		.align	2
 600              		.global	calc_turns_fcn_SH
 601              		.thumb
 602              		.thumb_func
 603              		.type	calc_turns_fcn_SH, %function
 604              	calc_turns_fcn_SH:
 605              	.LFB68:
 142:..\src/utils.c **** 
 143:..\src/utils.c **** 
 144:..\src/utils.c **** //==============================================================================
 145:..\src/utils.c **** //                                                      DOUBLE ENCODER CALC TURN
 146:..\src/utils.c **** //==============================================================================
 147:..\src/utils.c **** 
 148:..\src/utils.c **** // Use this matlab function to calculate I1 and I2
 149:..\src/utils.c **** //
 150:..\src/utils.c **** // function [inv_a, inv_b] = mod_mul_inv(a, b)
 151:..\src/utils.c **** //     a = int32(a);
 152:..\src/utils.c **** //     b = int32(b);
 153:..\src/utils.c **** //     if b == 0
 154:..\src/utils.c **** //         inv_a = 1;
 155:..\src/utils.c **** //         inv_b = 0;
 156:..\src/utils.c **** //         return
 157:..\src/utils.c **** //     else
 158:..\src/utils.c **** //         q = idivide(a,b,'floor');
 159:..\src/utils.c **** //         r = mod(a,b);
 160:..\src/utils.c **** //         [s, t] = mod_mul_inv(b, r);
 161:..\src/utils.c **** //     end
 162:..\src/utils.c **** //     inv_a = t;
 163:..\src/utils.c **** //     inv_b = s - q * t;
 164:..\src/utils.c **** // return
 165:..\src/utils.c **** 
 166:..\src/utils.c **** // Number of ticks per turn
 167:..\src/utils.c **** #define M 65536          ///< Number of encoder ticks per turn.
 168:..\src/utils.c **** 
 169:..\src/utils.c **** int calc_turns_fcn_SH(const int32 pos1, const int32 pos2, const int N1, const int N2, const int I1)
 606              		.loc 1 169 0
 607              		.cfi_startproc
 608              		@ args = 4, pretend = 0, frame = 24
 609              		@ frame_needed = 1, uses_anonymous_args = 0
 610 0000 80B5     		push	{r7, lr}
 611              		.cfi_def_cfa_offset 8
 612              		.cfi_offset 7, -8
 613              		.cfi_offset 14, -4
 614 0002 86B0     		sub	sp, sp, #24
 615              		.cfi_def_cfa_offset 32
 616 0004 00AF     		add	r7, sp, #0
 617              		.cfi_def_cfa_register 7
 618 0006 F860     		str	r0, [r7, #12]
 619 0008 B960     		str	r1, [r7, #8]
 620 000a 7A60     		str	r2, [r7, #4]
 621 000c 3B60     		str	r3, [r7]
 170:..\src/utils.c ****     
ARM GAS  C:\Users\Mattia\AppData\Local\Temp\ccsjO7ze.s 			page 15


 171:..\src/utils.c ****     int32 x;
 172:..\src/utils.c ****     int32 aux;
 173:..\src/utils.c ****     
 174:..\src/utils.c ****     switch (c_mem.dev.right_left){
 622              		.loc 1 174 0
 623 000e 2C4B     		ldr	r3, .L32
 624 0010 93F8A730 		ldrb	r3, [r3, #167]	@ zero_extendqisi2
 625 0014 002B     		cmp	r3, #0
 626 0016 02D0     		beq	.L27
 627 0018 012B     		cmp	r3, #1
 628 001a 2BD0     		beq	.L28
 629 001c 4AE0     		b	.L26
 630              	.L27:
 175:..\src/utils.c ****         case RIGHT_HAND:
 176:..\src/utils.c ****             x = (my_mod( - N2*(pos2) - N1*pos1, M*N2) + M/2) / M;
 631              		.loc 1 176 0
 632 001e 3B68     		ldr	r3, [r7]
 633 0020 5B42     		negs	r3, r3
 634 0022 BA68     		ldr	r2, [r7, #8]
 635 0024 02FB03F2 		mul	r2, r2, r3
 636 0028 7B68     		ldr	r3, [r7, #4]
 637 002a F968     		ldr	r1, [r7, #12]
 638 002c 01FB03F3 		mul	r3, r1, r3
 639 0030 D21A     		subs	r2, r2, r3
 640 0032 3B68     		ldr	r3, [r7]
 641 0034 1B04     		lsls	r3, r3, #16
 642 0036 1946     		mov	r1, r3
 643 0038 1046     		mov	r0, r2
 644 003a FFF7FEFF 		bl	my_mod
 645 003e 0346     		mov	r3, r0
 646 0040 03F50043 		add	r3, r3, #32768
 647 0044 1B0C     		lsrs	r3, r3, #16
 648 0046 3B61     		str	r3, [r7, #16]
 177:..\src/utils.c ****             
 178:..\src/utils.c ****             aux = my_mod(x*I1, N2);       // Module between x*I1 and N2.
 649              		.loc 1 178 0
 650 0048 3B69     		ldr	r3, [r7, #16]
 651 004a 3A6A     		ldr	r2, [r7, #32]
 652 004c 02FB03F3 		mul	r3, r2, r3
 653 0050 3968     		ldr	r1, [r7]
 654 0052 1846     		mov	r0, r3
 655 0054 FFF7FEFF 		bl	my_mod
 656 0058 0346     		mov	r3, r0
 657 005a 7B61     		str	r3, [r7, #20]
 179:..\src/utils.c ****             
 180:..\src/utils.c ****             // Wrap turns
 181:..\src/utils.c ****             aux -= N2;      //N2 (teeth of the second encoder wheel)
 658              		.loc 1 181 0
 659 005c 7A69     		ldr	r2, [r7, #20]
 660 005e 3B68     		ldr	r3, [r7]
 661 0060 D31A     		subs	r3, r2, r3
 662 0062 7B61     		str	r3, [r7, #20]
 182:..\src/utils.c ****             if (aux == -N2){
 663              		.loc 1 182 0
 664 0064 3B68     		ldr	r3, [r7]
 665 0066 5A42     		negs	r2, r3
 666 0068 7B69     		ldr	r3, [r7, #20]
ARM GAS  C:\Users\Mattia\AppData\Local\Temp\ccsjO7ze.s 			page 16


 667 006a 9A42     		cmp	r2, r3
 668 006c 21D1     		bne	.L31
 183:..\src/utils.c ****                 aux = 0;
 669              		.loc 1 183 0
 670 006e 0023     		movs	r3, #0
 671 0070 7B61     		str	r3, [r7, #20]
 184:..\src/utils.c ****             }
 185:..\src/utils.c ****             
 186:..\src/utils.c ****             break;
 672              		.loc 1 186 0
 673 0072 1EE0     		b	.L31
 674              	.L28:
 187:..\src/utils.c ****         case LEFT_HAND:
 188:..\src/utils.c ****             x = (my_mod( - N2*(-pos2) - N1*pos1, M*N2) + M/2) / M;
 675              		.loc 1 188 0
 676 0074 3B68     		ldr	r3, [r7]
 677 0076 BA68     		ldr	r2, [r7, #8]
 678 0078 02FB03F2 		mul	r2, r2, r3
 679 007c 7B68     		ldr	r3, [r7, #4]
 680 007e F968     		ldr	r1, [r7, #12]
 681 0080 01FB03F3 		mul	r3, r1, r3
 682 0084 D21A     		subs	r2, r2, r3
 683 0086 3B68     		ldr	r3, [r7]
 684 0088 1B04     		lsls	r3, r3, #16
 685 008a 1946     		mov	r1, r3
 686 008c 1046     		mov	r0, r2
 687 008e FFF7FEFF 		bl	my_mod
 688 0092 0346     		mov	r3, r0
 689 0094 03F50043 		add	r3, r3, #32768
 690 0098 1B0C     		lsrs	r3, r3, #16
 691 009a 3B61     		str	r3, [r7, #16]
 189:..\src/utils.c ****             
 190:..\src/utils.c ****             aux = my_mod(x*I1, N2);       // Module between x*I1 and N2.
 692              		.loc 1 190 0
 693 009c 3B69     		ldr	r3, [r7, #16]
 694 009e 3A6A     		ldr	r2, [r7, #32]
 695 00a0 02FB03F3 		mul	r3, r2, r3
 696 00a4 3968     		ldr	r1, [r7]
 697 00a6 1846     		mov	r0, r3
 698 00a8 FFF7FEFF 		bl	my_mod
 699 00ac 0346     		mov	r3, r0
 700 00ae 7B61     		str	r3, [r7, #20]
 191:..\src/utils.c ****             
 192:..\src/utils.c ****             break;
 701              		.loc 1 192 0
 702 00b0 00E0     		b	.L26
 703              	.L31:
 186:..\src/utils.c ****         case LEFT_HAND:
 704              		.loc 1 186 0
 705 00b2 00BF     		nop
 706              	.L26:
 193:..\src/utils.c ****     }
 194:..\src/utils.c ****   
 195:..\src/utils.c ****     // SoftHand Pro firmware turns computation does not have to take into account turns shift like 
 196:..\src/utils.c ****     return aux; 
 707              		.loc 1 196 0
 708 00b4 7B69     		ldr	r3, [r7, #20]
ARM GAS  C:\Users\Mattia\AppData\Local\Temp\ccsjO7ze.s 			page 17


 197:..\src/utils.c **** 
 198:..\src/utils.c **** }
 709              		.loc 1 198 0
 710 00b6 1846     		mov	r0, r3
 711 00b8 1837     		adds	r7, r7, #24
 712              		.cfi_def_cfa_offset 8
 713 00ba BD46     		mov	sp, r7
 714              		.cfi_def_cfa_register 13
 715              		@ sp needed
 716 00bc 80BD     		pop	{r7, pc}
 717              	.L33:
 718 00be 00BF     		.align	2
 719              	.L32:
 720 00c0 00000000 		.word	c_mem
 721              		.cfi_endproc
 722              	.LFE68:
 723              		.size	calc_turns_fcn_SH, .-calc_turns_fcn_SH
 724              		.section	.text.calc_turns_fcn,"ax",%progbits
 725              		.align	2
 726              		.global	calc_turns_fcn
 727              		.thumb
 728              		.thumb_func
 729              		.type	calc_turns_fcn, %function
 730              	calc_turns_fcn:
 731              	.LFB69:
 199:..\src/utils.c **** 
 200:..\src/utils.c **** int calc_turns_fcn(const int32 pos1, const int32 pos2, const int N1, const int N2, const int I1) { 
 732              		.loc 1 200 0
 733              		.cfi_startproc
 734              		@ args = 4, pretend = 0, frame = 24
 735              		@ frame_needed = 1, uses_anonymous_args = 0
 736 0000 80B5     		push	{r7, lr}
 737              		.cfi_def_cfa_offset 8
 738              		.cfi_offset 7, -8
 739              		.cfi_offset 14, -4
 740 0002 88B0     		sub	sp, sp, #32
 741              		.cfi_def_cfa_offset 40
 742 0004 02AF     		add	r7, sp, #8
 743              		.cfi_def_cfa 7, 32
 744 0006 F860     		str	r0, [r7, #12]
 745 0008 B960     		str	r1, [r7, #8]
 746 000a 7A60     		str	r2, [r7, #4]
 747 000c 3B60     		str	r3, [r7]
 201:..\src/utils.c **** 
 202:..\src/utils.c ****     if (c_mem.dev.dev_type == SOFTHAND_PRO) {
 748              		.loc 1 202 0
 749 000e 214B     		ldr	r3, .L37
 750 0010 93F8AC30 		ldrb	r3, [r3, #172]	@ zero_extendqisi2
 751 0014 002B     		cmp	r3, #0
 752 0016 09D1     		bne	.L35
 203:..\src/utils.c ****         return calc_turns_fcn_SH(pos1, pos2, N1, N2, I1);   
 753              		.loc 1 203 0
 754 0018 3B6A     		ldr	r3, [r7, #32]
 755 001a 0093     		str	r3, [sp]
 756 001c 3B68     		ldr	r3, [r7]
 757 001e 7A68     		ldr	r2, [r7, #4]
 758 0020 B968     		ldr	r1, [r7, #8]
ARM GAS  C:\Users\Mattia\AppData\Local\Temp\ccsjO7ze.s 			page 18


 759 0022 F868     		ldr	r0, [r7, #12]
 760 0024 FFF7FEFF 		bl	calc_turns_fcn_SH
 761 0028 0346     		mov	r3, r0
 762 002a 2FE0     		b	.L36
 763              	.L35:
 764              	.LBB2:
 204:..\src/utils.c ****     }
 205:..\src/utils.c ****     else {
 206:..\src/utils.c ****         // This is the same computation and formulas used in previous firmwares
 207:..\src/utils.c ****         int32 x = (my_mod( - N2*pos2 - N1*pos1, M*N2) + M/2) / M;
 765              		.loc 1 207 0
 766 002c 3B68     		ldr	r3, [r7]
 767 002e 5B42     		negs	r3, r3
 768 0030 BA68     		ldr	r2, [r7, #8]
 769 0032 02FB03F2 		mul	r2, r2, r3
 770 0036 7B68     		ldr	r3, [r7, #4]
 771 0038 F968     		ldr	r1, [r7, #12]
 772 003a 01FB03F3 		mul	r3, r1, r3
 773 003e D21A     		subs	r2, r2, r3
 774 0040 3B68     		ldr	r3, [r7]
 775 0042 1B04     		lsls	r3, r3, #16
 776 0044 1946     		mov	r1, r3
 777 0046 1046     		mov	r0, r2
 778 0048 FFF7FEFF 		bl	my_mod
 779 004c 0346     		mov	r3, r0
 780 004e 03F50043 		add	r3, r3, #32768
 781 0052 1B0C     		lsrs	r3, r3, #16
 782 0054 7B61     		str	r3, [r7, #20]
 208:..\src/utils.c **** 
 209:..\src/utils.c ****         int32 aux = my_mod(x*I1, N2);
 783              		.loc 1 209 0
 784 0056 7B69     		ldr	r3, [r7, #20]
 785 0058 3A6A     		ldr	r2, [r7, #32]
 786 005a 02FB03F3 		mul	r3, r2, r3
 787 005e 3968     		ldr	r1, [r7]
 788 0060 1846     		mov	r0, r3
 789 0062 FFF7FEFF 		bl	my_mod
 790 0066 0346     		mov	r3, r0
 791 0068 3B61     		str	r3, [r7, #16]
 210:..\src/utils.c **** 
 211:..\src/utils.c ****         return (my_mod(aux + N2/2, N2) - N2/2);
 792              		.loc 1 211 0
 793 006a 3B68     		ldr	r3, [r7]
 794 006c DA0F     		lsrs	r2, r3, #31
 795 006e 1344     		add	r3, r3, r2
 796 0070 5B10     		asrs	r3, r3, #1
 797 0072 1A46     		mov	r2, r3
 798 0074 3B69     		ldr	r3, [r7, #16]
 799 0076 1344     		add	r3, r3, r2
 800 0078 3968     		ldr	r1, [r7]
 801 007a 1846     		mov	r0, r3
 802 007c FFF7FEFF 		bl	my_mod
 803 0080 0146     		mov	r1, r0
 804 0082 3B68     		ldr	r3, [r7]
 805 0084 DA0F     		lsrs	r2, r3, #31
 806 0086 1344     		add	r3, r3, r2
 807 0088 5B10     		asrs	r3, r3, #1
ARM GAS  C:\Users\Mattia\AppData\Local\Temp\ccsjO7ze.s 			page 19


 808 008a CB1A     		subs	r3, r1, r3
 809              	.L36:
 810              	.LBE2:
 212:..\src/utils.c ****     }
 213:..\src/utils.c **** }
 811              		.loc 1 213 0
 812 008c 1846     		mov	r0, r3
 813 008e 1837     		adds	r7, r7, #24
 814              		.cfi_def_cfa_offset 8
 815 0090 BD46     		mov	sp, r7
 816              		.cfi_def_cfa_register 13
 817              		@ sp needed
 818 0092 80BD     		pop	{r7, pc}
 819              	.L38:
 820              		.align	2
 821              	.L37:
 822 0094 00000000 		.word	c_mem
 823              		.cfi_endproc
 824              	.LFE69:
 825              		.size	calc_turns_fcn, .-calc_turns_fcn
 826              		.section	.text.check_rest_position,"ax",%progbits
 827              		.align	2
 828              		.global	check_rest_position
 829              		.thumb
 830              		.thumb_func
 831              		.type	check_rest_position, %function
 832              	check_rest_position:
 833              	.LFB70:
 214:..\src/utils.c **** 
 215:..\src/utils.c **** //==============================================================================
 216:..\src/utils.c **** //                                                                 REST POSITION
 217:..\src/utils.c **** //==============================================================================
 218:..\src/utils.c **** void check_rest_position(void) {     // 100 Hz frequency.
 834              		.loc 1 218 0
 835              		.cfi_startproc
 836              		@ args = 0, pretend = 0, frame = 8
 837              		@ frame_needed = 1, uses_anonymous_args = 0
 838 0000 90B5     		push	{r4, r7, lr}
 839              		.cfi_def_cfa_offset 12
 840              		.cfi_offset 4, -12
 841              		.cfi_offset 7, -8
 842              		.cfi_offset 14, -4
 843 0002 83B0     		sub	sp, sp, #12
 844              		.cfi_def_cfa_offset 24
 845 0004 00AF     		add	r7, sp, #0
 846              		.cfi_def_cfa_register 7
 219:..\src/utils.c ****     
 220:..\src/utils.c ****     static uint32 count = 0;        // Range [0 - 2^31].
 221:..\src/utils.c ****     static uint8 flag_count = 1;
 222:..\src/utils.c ****     static uint8 first_time = 1;
 223:..\src/utils.c ****     static float m = 0;
 224:..\src/utils.c ****     static int32 abs_err_thr = 0;
 225:..\src/utils.c ****     static int32 delta_inc = 0;
 226:..\src/utils.c ****     int32 curr_pos = 0;
 847              		.loc 1 226 0
 848 0006 0023     		movs	r3, #0
 849 0008 7B60     		str	r3, [r7, #4]
ARM GAS  C:\Users\Mattia\AppData\Local\Temp\ccsjO7ze.s 			page 20


 227:..\src/utils.c ****     static int32 rest_error;
 228:..\src/utils.c ****     float rest_vel_ticks_ms = ((float)g_mem.SH.rest_vel)/1000.0;    //[ticks/s] -> [ticks/ms]
 850              		.loc 1 228 0
 851 000a A14B     		ldr	r3, .L54
 852 000c D3F8A832 		ldr	r3, [r3, #680]
 853 0010 1846     		mov	r0, r3
 854 0012 FFF7FEFF 		bl	__aeabi_i2f
 855 0016 0346     		mov	r3, r0
 856 0018 9E49     		ldr	r1, .L54+4
 857 001a 1846     		mov	r0, r3
 858 001c FFF7FEFF 		bl	__aeabi_fdiv
 859 0020 0346     		mov	r3, r0
 860 0022 3B60     		str	r3, [r7]	@ float
 229:..\src/utils.c ****     
 230:..\src/utils.c ****     if (first_time){
 861              		.loc 1 230 0
 862 0024 9C4B     		ldr	r3, .L54+8
 863 0026 1B78     		ldrb	r3, [r3]	@ zero_extendqisi2
 864 0028 002B     		cmp	r3, #0
 865 002a 05D0     		beq	.L40
 231:..\src/utils.c ****         count = 0;
 866              		.loc 1 231 0
 867 002c 9B4B     		ldr	r3, .L54+12
 868 002e 0022     		movs	r2, #0
 869 0030 1A60     		str	r2, [r3]
 232:..\src/utils.c ****         first_time = 0;
 870              		.loc 1 232 0
 871 0032 994B     		ldr	r3, .L54+8
 872 0034 0022     		movs	r2, #0
 873 0036 1A70     		strb	r2, [r3]
 874              	.L40:
 233:..\src/utils.c ****     }
 234:..\src/utils.c ****     
 235:..\src/utils.c ****     curr_pos = (int32)(g_meas[g_mem.motor[0].encoder_line].pos[0] >> g_mem.enc[g_mem.motor[0].encod
 875              		.loc 1 235 0
 876 0038 954B     		ldr	r3, .L54
 877 003a 93F81031 		ldrb	r3, [r3, #272]	@ zero_extendqisi2
 878 003e 1946     		mov	r1, r3
 879 0040 974A     		ldr	r2, .L54+16
 880 0042 3423     		movs	r3, #52
 881 0044 03FB01F3 		mul	r3, r3, r1
 882 0048 1344     		add	r3, r3, r2
 883 004a 1A68     		ldr	r2, [r3]
 884 004c 904B     		ldr	r3, .L54
 885 004e 93F81031 		ldrb	r3, [r3, #272]	@ zero_extendqisi2
 886 0052 1846     		mov	r0, r3
 887 0054 8E49     		ldr	r1, .L54
 888 0056 0346     		mov	r3, r0
 889 0058 5B00     		lsls	r3, r3, #1
 890 005a 0344     		add	r3, r3, r0
 891 005c 1B01     		lsls	r3, r3, #4
 892 005e 0B44     		add	r3, r3, r1
 893 0060 03F29513 		addw	r3, r3, #405
 894 0064 1B78     		ldrb	r3, [r3]	@ zero_extendqisi2
 895 0066 42FA03F3 		asr	r3, r2, r3
 896 006a 7B60     		str	r3, [r7, #4]
 236:..\src/utils.c ****     
ARM GAS  C:\Users\Mattia\AppData\Local\Temp\ccsjO7ze.s 			page 21


 237:..\src/utils.c ****     if ( ( ((c_mem.motor[0].input_mode == INPUT_MODE_EMG_PROPORTIONAL || c_mem.motor[0].input_mode 
 897              		.loc 1 237 0
 898 006c 8D4B     		ldr	r3, .L54+20
 899 006e 93F80E31 		ldrb	r3, [r3, #270]	@ zero_extendqisi2
 900 0072 022B     		cmp	r3, #2
 901 0074 13D0     		beq	.L41
 902              		.loc 1 237 0 is_stmt 0 discriminator 1
 903 0076 8B4B     		ldr	r3, .L54+20
 904 0078 93F80E31 		ldrb	r3, [r3, #270]	@ zero_extendqisi2
 905 007c 032B     		cmp	r3, #3
 906 007e 0ED0     		beq	.L41
 907              		.loc 1 237 0 discriminator 2
 908 0080 884B     		ldr	r3, .L54+20
 909 0082 93F80E31 		ldrb	r3, [r3, #270]	@ zero_extendqisi2
 910 0086 042B     		cmp	r3, #4
 911 0088 09D0     		beq	.L41
 238:..\src/utils.c ****              c_mem.motor[0].input_mode == INPUT_MODE_EMG_FCFS_ADV || c_mem.motor[0].input_mode == I
 912              		.loc 1 238 0 is_stmt 1 discriminator 3
 913 008a 864B     		ldr	r3, .L54+20
 914 008c 93F80E31 		ldrb	r3, [r3, #270]	@ zero_extendqisi2
 237:..\src/utils.c ****              c_mem.motor[0].input_mode == INPUT_MODE_EMG_FCFS_ADV || c_mem.motor[0].input_mode == I
 915              		.loc 1 237 0 discriminator 3
 916 0090 052B     		cmp	r3, #5
 917 0092 04D0     		beq	.L41
 918              		.loc 1 238 0
 919 0094 834B     		ldr	r3, .L54+20
 920 0096 93F80E31 		ldrb	r3, [r3, #270]	@ zero_extendqisi2
 921 009a 072B     		cmp	r3, #7
 922 009c 16D1     		bne	.L42
 923              	.L41:
 924              		.loc 1 238 0 is_stmt 0 discriminator 1
 925 009e 824B     		ldr	r3, .L54+24
 926 00a0 1B68     		ldr	r3, [r3]
 927 00a2 C72B     		cmp	r3, #199
 928 00a4 12DC     		bgt	.L42
 929              		.loc 1 238 0 discriminator 2
 930 00a6 804B     		ldr	r3, .L54+24
 931 00a8 5B68     		ldr	r3, [r3, #4]
 932 00aa C72B     		cmp	r3, #199
 933 00ac 0EDC     		bgt	.L42
 934              		.loc 1 238 0 discriminator 3
 935 00ae 7B68     		ldr	r3, [r7, #4]
 936 00b0 42F20F72 		movw	r2, #9999
 937 00b4 9342     		cmp	r3, r2
 938 00b6 09DC     		bgt	.L42
 239:..\src/utils.c ****         if (flag_count == 1){
 939              		.loc 1 239 0 is_stmt 1
 940 00b8 7C4B     		ldr	r3, .L54+28
 941 00ba 1B78     		ldrb	r3, [r3]	@ zero_extendqisi2
 942 00bc 012B     		cmp	r3, #1
 943 00be 0ED1     		bne	.L44
 240:..\src/utils.c ****             count = count + 1;
 944              		.loc 1 240 0
 945 00c0 764B     		ldr	r3, .L54+12
 946 00c2 1B68     		ldr	r3, [r3]
 947 00c4 0133     		adds	r3, r3, #1
 948 00c6 754A     		ldr	r2, .L54+12
ARM GAS  C:\Users\Mattia\AppData\Local\Temp\ccsjO7ze.s 			page 22


 949 00c8 1360     		str	r3, [r2]
 239:..\src/utils.c ****         if (flag_count == 1){
 950              		.loc 1 239 0
 951 00ca 08E0     		b	.L44
 952              	.L42:
 241:..\src/utils.c ****         }
 242:..\src/utils.c ****     }
 243:..\src/utils.c ****     else {
 244:..\src/utils.c ****         count = 0;
 953              		.loc 1 244 0
 954 00cc 734B     		ldr	r3, .L54+12
 955 00ce 0022     		movs	r2, #0
 956 00d0 1A60     		str	r2, [r3]
 245:..\src/utils.c ****         rest_enabled = 0;
 957              		.loc 1 245 0
 958 00d2 774B     		ldr	r3, .L54+32
 959 00d4 0022     		movs	r2, #0
 960 00d6 1A70     		strb	r2, [r3]
 246:..\src/utils.c ****         flag_count = 1;
 961              		.loc 1 246 0
 962 00d8 744B     		ldr	r3, .L54+28
 963 00da 0122     		movs	r2, #1
 964 00dc 1A70     		strb	r2, [r3]
 965              	.L44:
 247:..\src/utils.c ****     }
 248:..\src/utils.c ****   
 249:..\src/utils.c ****     /********** Velocity closure procedure *************
 250:..\src/utils.c ****     * m = error/time
 251:..\src/utils.c ****     * m = (g_mem.rest_pos - init_pos)/time
 252:..\src/utils.c ****     * time = g_mem.rest_pos/rest_vel_ticks_ms (rest_vel_ticks_ms is in [ticks/ms])
 253:..\src/utils.c ****     ***************************************************/
 254:..\src/utils.c **** 
 255:..\src/utils.c ****     if (count == (uint32)(g_mem.SH.rest_delay/CALIBRATION_DIV)){ 
 966              		.loc 1 255 0
 967 00de 6C4B     		ldr	r3, .L54
 968 00e0 D3F8A432 		ldr	r3, [r3, #676]
 969 00e4 734A     		ldr	r2, .L54+36
 970 00e6 82FB0312 		smull	r1, r2, r2, r3
 971 00ea 9210     		asrs	r2, r2, #2
 972 00ec DB17     		asrs	r3, r3, #31
 973 00ee D31A     		subs	r3, r2, r3
 974 00f0 1A46     		mov	r2, r3
 975 00f2 6A4B     		ldr	r3, .L54+12
 976 00f4 1B68     		ldr	r3, [r3]
 977 00f6 9A42     		cmp	r2, r3
 978 00f8 40F09480 		bne	.L45
 256:..\src/utils.c ****         // This routine is executed every 10 firmware cycles -> g_mem.rest_delay must be major than
 257:..\src/utils.c ****         rest_enabled = 1;
 979              		.loc 1 257 0
 980 00fc 6C4B     		ldr	r3, .L54+32
 981 00fe 0122     		movs	r2, #1
 982 0100 1A70     		strb	r2, [r3]
 258:..\src/utils.c ****         rest_pos_curr_ref = g_meas[g_mem.motor[0].encoder_line].pos[0];
 983              		.loc 1 258 0
 984 0102 634B     		ldr	r3, .L54
 985 0104 93F81031 		ldrb	r3, [r3, #272]	@ zero_extendqisi2
 986 0108 1946     		mov	r1, r3
ARM GAS  C:\Users\Mattia\AppData\Local\Temp\ccsjO7ze.s 			page 23


 987 010a 654A     		ldr	r2, .L54+16
 988 010c 3423     		movs	r3, #52
 989 010e 03FB01F3 		mul	r3, r3, r1
 990 0112 1344     		add	r3, r3, r2
 991 0114 1B68     		ldr	r3, [r3]
 992 0116 684A     		ldr	r2, .L54+40
 993 0118 1360     		str	r3, [r2]
 259:..\src/utils.c ****         
 260:..\src/utils.c ****         // Ramp angular coefficient
 261:..\src/utils.c ****         m = ((float)(g_mem.SH.rest_pos - g_meas[g_mem.motor[0].encoder_line].pos[0])/((float)g_mem.
 994              		.loc 1 261 0
 995 011a 5D4B     		ldr	r3, .L54
 996 011c D3F8A022 		ldr	r2, [r3, #672]
 997 0120 5B4B     		ldr	r3, .L54
 998 0122 93F81031 		ldrb	r3, [r3, #272]	@ zero_extendqisi2
 999 0126 1846     		mov	r0, r3
 1000 0128 5D49     		ldr	r1, .L54+16
 1001 012a 3423     		movs	r3, #52
 1002 012c 03FB00F3 		mul	r3, r3, r0
 1003 0130 0B44     		add	r3, r3, r1
 1004 0132 1B68     		ldr	r3, [r3]
 1005 0134 D31A     		subs	r3, r2, r3
 1006 0136 1846     		mov	r0, r3
 1007 0138 FFF7FEFF 		bl	__aeabi_i2f
 1008 013c 0446     		mov	r4, r0
 1009 013e 544B     		ldr	r3, .L54
 1010 0140 D3F8A032 		ldr	r3, [r3, #672]
 1011 0144 1846     		mov	r0, r3
 1012 0146 FFF7FEFF 		bl	__aeabi_i2f
 1013 014a 0346     		mov	r3, r0
 1014 014c 1946     		mov	r1, r3
 1015 014e 2046     		mov	r0, r4
 1016 0150 FFF7FEFF 		bl	__aeabi_fdiv
 1017 0154 0346     		mov	r3, r0
 1018 0156 3968     		ldr	r1, [r7]	@ float
 1019 0158 1846     		mov	r0, r3
 1020 015a FFF7FEFF 		bl	__aeabi_fmul
 1021 015e 0346     		mov	r3, r0
 1022 0160 1A46     		mov	r2, r3
 1023 0162 564B     		ldr	r3, .L54+44
 1024 0164 1A60     		str	r2, [r3]	@ float
 262:..\src/utils.c ****         
 263:..\src/utils.c ****         // Stop condition threshold is related to m coefficient by REST_RATIO value
 264:..\src/utils.c ****         abs_err_thr = (int32)( (int32)(((float)REST_POS_ERR_THR_GAIN)*m*((float)CALIBRATION_DIV)) <
 1025              		.loc 1 264 0
 1026 0166 554B     		ldr	r3, .L54+44
 1027 0168 1B68     		ldr	r3, [r3]	@ float
 1028 016a 5549     		ldr	r1, .L54+48
 1029 016c 1846     		mov	r0, r3
 1030 016e FFF7FEFF 		bl	__aeabi_fmul
 1031 0172 0346     		mov	r3, r0
 1032 0174 5249     		ldr	r1, .L54+48
 1033 0176 1846     		mov	r0, r3
 1034 0178 FFF7FEFF 		bl	__aeabi_fmul
 1035 017c 0346     		mov	r3, r0
 1036 017e 1846     		mov	r0, r3
 1037 0180 FFF7FEFF 		bl	__aeabi_f2iz
ARM GAS  C:\Users\Mattia\AppData\Local\Temp\ccsjO7ze.s 			page 24


 1038 0184 424B     		ldr	r3, .L54
 1039 0186 93F81031 		ldrb	r3, [r3, #272]	@ zero_extendqisi2
 1040 018a 1946     		mov	r1, r3
 1041 018c 404A     		ldr	r2, .L54
 1042 018e 0B46     		mov	r3, r1
 1043 0190 5B00     		lsls	r3, r3, #1
 1044 0192 0B44     		add	r3, r3, r1
 1045 0194 1B01     		lsls	r3, r3, #4
 1046 0196 1344     		add	r3, r3, r2
 1047 0198 03F29513 		addw	r3, r3, #405
 1048 019c 1B78     		ldrb	r3, [r3]	@ zero_extendqisi2
 1049 019e 00FA03F3 		lsl	r3, r0, r3
 1050 01a2 484A     		ldr	r2, .L54+52
 1051 01a4 1360     		str	r3, [r2]
 265:..\src/utils.c ****         abs_err_thr = (abs_err_thr>0)?abs_err_thr:(0-abs_err_thr);
 1052              		.loc 1 265 0
 1053 01a6 474B     		ldr	r3, .L54+52
 1054 01a8 1B68     		ldr	r3, [r3]
 1055 01aa 002B     		cmp	r3, #0
 1056 01ac B8BF     		it	lt
 1057 01ae 5B42     		rsblt	r3, r3, #0
 1058 01b0 444A     		ldr	r2, .L54+52
 1059 01b2 1360     		str	r3, [r2]
 266:..\src/utils.c ****         
 267:..\src/utils.c ****         rest_error = g_mem.SH.rest_pos - g_meas[g_mem.motor[0].encoder_line].pos[0];    
 1060              		.loc 1 267 0
 1061 01b4 364B     		ldr	r3, .L54
 1062 01b6 D3F8A022 		ldr	r2, [r3, #672]
 1063 01ba 354B     		ldr	r3, .L54
 1064 01bc 93F81031 		ldrb	r3, [r3, #272]	@ zero_extendqisi2
 1065 01c0 1846     		mov	r0, r3
 1066 01c2 3749     		ldr	r1, .L54+16
 1067 01c4 3423     		movs	r3, #52
 1068 01c6 03FB00F3 		mul	r3, r3, r0
 1069 01ca 0B44     		add	r3, r3, r1
 1070 01cc 1B68     		ldr	r3, [r3]
 1071 01ce D31A     		subs	r3, r2, r3
 1072 01d0 3D4A     		ldr	r2, .L54+56
 1073 01d2 1360     		str	r3, [r2]
 268:..\src/utils.c ****         
 269:..\src/utils.c ****         delta_inc = (int32)( ((int32)(m*(float)CALIBRATION_DIV)) << g_mem.enc[g_mem.motor[0].encode
 1074              		.loc 1 269 0
 1075 01d4 394B     		ldr	r3, .L54+44
 1076 01d6 1B68     		ldr	r3, [r3]	@ float
 1077 01d8 3949     		ldr	r1, .L54+48
 1078 01da 1846     		mov	r0, r3
 1079 01dc FFF7FEFF 		bl	__aeabi_fmul
 1080 01e0 0346     		mov	r3, r0
 1081 01e2 1846     		mov	r0, r3
 1082 01e4 FFF7FEFF 		bl	__aeabi_f2iz
 1083 01e8 294B     		ldr	r3, .L54
 1084 01ea 93F81031 		ldrb	r3, [r3, #272]	@ zero_extendqisi2
 1085 01ee 1946     		mov	r1, r3
 1086 01f0 274A     		ldr	r2, .L54
 1087 01f2 0B46     		mov	r3, r1
 1088 01f4 5B00     		lsls	r3, r3, #1
 1089 01f6 0B44     		add	r3, r3, r1
ARM GAS  C:\Users\Mattia\AppData\Local\Temp\ccsjO7ze.s 			page 25


 1090 01f8 1B01     		lsls	r3, r3, #4
 1091 01fa 1344     		add	r3, r3, r2
 1092 01fc 03F29513 		addw	r3, r3, #405
 1093 0200 1B78     		ldrb	r3, [r3]	@ zero_extendqisi2
 1094 0202 00FA03F3 		lsl	r3, r0, r3
 1095 0206 314A     		ldr	r2, .L54+60
 1096 0208 1360     		str	r3, [r2]
 270:..\src/utils.c ****         delta_inc = (delta_inc>0)?delta_inc:(0-delta_inc);
 1097              		.loc 1 270 0
 1098 020a 304B     		ldr	r3, .L54+60
 1099 020c 1B68     		ldr	r3, [r3]
 1100 020e 002B     		cmp	r3, #0
 1101 0210 B8BF     		it	lt
 1102 0212 5B42     		rsblt	r3, r3, #0
 1103 0214 2D4A     		ldr	r2, .L54+60
 1104 0216 1360     		str	r3, [r2]
 271:..\src/utils.c ****         
 272:..\src/utils.c ****         count = 0;
 1105              		.loc 1 272 0
 1106 0218 204B     		ldr	r3, .L54+12
 1107 021a 0022     		movs	r2, #0
 1108 021c 1A60     		str	r2, [r3]
 273:..\src/utils.c ****         flag_count = 0;
 1109              		.loc 1 273 0
 1110 021e 234B     		ldr	r3, .L54+28
 1111 0220 0022     		movs	r2, #0
 1112 0222 1A70     		strb	r2, [r3]
 1113              	.L45:
 274:..\src/utils.c ****     }
 275:..\src/utils.c ****     
 276:..\src/utils.c ****     if (rest_enabled){
 1114              		.loc 1 276 0
 1115 0224 224B     		ldr	r3, .L54+32
 1116 0226 1B78     		ldrb	r3, [r3]	@ zero_extendqisi2
 1117 0228 002B     		cmp	r3, #0
 1118 022a 79D0     		beq	.L46
 277:..\src/utils.c **** 
 278:..\src/utils.c ****         if (rest_error < abs_err_thr && rest_error > -abs_err_thr){
 1119              		.loc 1 278 0
 1120 022c 264B     		ldr	r3, .L54+56
 1121 022e 1A68     		ldr	r2, [r3]
 1122 0230 244B     		ldr	r3, .L54+52
 1123 0232 1B68     		ldr	r3, [r3]
 1124 0234 9A42     		cmp	r2, r3
 1125 0236 4DDA     		bge	.L47
 1126              		.loc 1 278 0 is_stmt 0 discriminator 1
 1127 0238 224B     		ldr	r3, .L54+52
 1128 023a 1B68     		ldr	r3, [r3]
 1129 023c 5A42     		negs	r2, r3
 1130 023e 224B     		ldr	r3, .L54+56
 1131 0240 1B68     		ldr	r3, [r3]
 1132 0242 9A42     		cmp	r2, r3
 1133 0244 46DA     		bge	.L47
 279:..\src/utils.c ****             // Stop condition
 280:..\src/utils.c ****             rest_pos_curr_ref = g_mem.SH.rest_pos;
 1134              		.loc 1 280 0 is_stmt 1
 1135 0246 124B     		ldr	r3, .L54
ARM GAS  C:\Users\Mattia\AppData\Local\Temp\ccsjO7ze.s 			page 26


 1136 0248 D3F8A032 		ldr	r3, [r3, #672]
 1137 024c 1A4A     		ldr	r2, .L54+40
 1138 024e 1360     		str	r3, [r2]
 281:..\src/utils.c ****             
 282:..\src/utils.c ****             if (c_mem.motor[0].input_mode == INPUT_MODE_EMG_PROPORTIONAL || c_mem.motor[0].input_mo
 1139              		.loc 1 282 0
 1140 0250 144B     		ldr	r3, .L54+20
 1141 0252 93F80E31 		ldrb	r3, [r3, #270]	@ zero_extendqisi2
 1142 0256 022B     		cmp	r3, #2
 1143 0258 13D0     		beq	.L48
 1144              		.loc 1 282 0 is_stmt 0 discriminator 1
 1145 025a 124B     		ldr	r3, .L54+20
 1146 025c 93F80E31 		ldrb	r3, [r3, #270]	@ zero_extendqisi2
 1147 0260 032B     		cmp	r3, #3
 1148 0262 0ED0     		beq	.L48
 1149              		.loc 1 282 0 discriminator 2
 1150 0264 0F4B     		ldr	r3, .L54+20
 1151 0266 93F80E31 		ldrb	r3, [r3, #270]	@ zero_extendqisi2
 1152 026a 042B     		cmp	r3, #4
 1153 026c 09D0     		beq	.L48
 283:..\src/utils.c ****                 c_mem.motor[0].input_mode == INPUT_MODE_EMG_FCFS_ADV || c_mem.motor[0].input_mode =
 1154              		.loc 1 283 0 is_stmt 1 discriminator 3
 1155 026e 0D4B     		ldr	r3, .L54+20
 1156 0270 93F80E31 		ldrb	r3, [r3, #270]	@ zero_extendqisi2
 282:..\src/utils.c ****                 c_mem.motor[0].input_mode == INPUT_MODE_EMG_FCFS_ADV || c_mem.motor[0].input_mode =
 1157              		.loc 1 282 0 discriminator 3
 1158 0274 052B     		cmp	r3, #5
 1159 0276 04D0     		beq	.L48
 1160              		.loc 1 283 0
 1161 0278 0A4B     		ldr	r3, .L54+20
 1162 027a 93F80E31 		ldrb	r3, [r3, #270]	@ zero_extendqisi2
 1163 027e 072B     		cmp	r3, #7
 1164 0280 02D1     		bne	.L49
 1165              	.L48:
 284:..\src/utils.c ****                 forced_open = 1; 
 1166              		.loc 1 284 0
 1167 0282 134B     		ldr	r3, .L54+64
 1168 0284 0122     		movs	r2, #1
 1169 0286 1A70     		strb	r2, [r3]
 1170              	.L49:
 285:..\src/utils.c ****             
 286:..\src/utils.c ****             count = 0;
 1171              		.loc 1 286 0
 1172 0288 044B     		ldr	r3, .L54+12
 1173 028a 0022     		movs	r2, #0
 1174 028c 1A60     		str	r2, [r3]
 1175 028e 47E0     		b	.L46
 1176              	.L55:
 1177              		.align	2
 1178              	.L54:
 1179 0290 00000000 		.word	g_mem
 1180 0294 00007A44 		.word	1148846080
 1181 0298 00000000 		.word	first_time.10224
 1182 029c 14000000 		.word	count.10222
 1183 02a0 00000000 		.word	g_meas
 1184 02a4 00000000 		.word	c_mem
 1185 02a8 00000000 		.word	g_adc_meas
ARM GAS  C:\Users\Mattia\AppData\Local\Temp\ccsjO7ze.s 			page 27


 1186 02ac 01000000 		.word	flag_count.10223
 1187 02b0 00000000 		.word	rest_enabled
 1188 02b4 67666666 		.word	1717986919
 1189 02b8 00000000 		.word	rest_pos_curr_ref
 1190 02bc 18000000 		.word	m.10225
 1191 02c0 00002041 		.word	1092616192
 1192 02c4 1C000000 		.word	abs_err_thr.10226
 1193 02c8 20000000 		.word	rest_error.10229
 1194 02cc 24000000 		.word	delta_inc.10227
 1195 02d0 00000000 		.word	forced_open
 1196              	.L47:
 287:..\src/utils.c ****         }
 288:..\src/utils.c ****         else {
 289:..\src/utils.c ****             rest_error = g_mem.SH.rest_pos - g_meas[g_mem.motor[0].encoder_line].pos[0];        
 1197              		.loc 1 289 0
 1198 02d4 234B     		ldr	r3, .L56
 1199 02d6 D3F8A022 		ldr	r2, [r3, #672]
 1200 02da 224B     		ldr	r3, .L56
 1201 02dc 93F81031 		ldrb	r3, [r3, #272]	@ zero_extendqisi2
 1202 02e0 1846     		mov	r0, r3
 1203 02e2 2149     		ldr	r1, .L56+4
 1204 02e4 3423     		movs	r3, #52
 1205 02e6 03FB00F3 		mul	r3, r3, r0
 1206 02ea 0B44     		add	r3, r3, r1
 1207 02ec 1B68     		ldr	r3, [r3]
 1208 02ee D31A     		subs	r3, r2, r3
 1209 02f0 1E4A     		ldr	r2, .L56+8
 1210 02f2 1360     		str	r3, [r2]
 290:..\src/utils.c **** 
 291:..\src/utils.c ****             if (rest_error > 0){
 1211              		.loc 1 291 0
 1212 02f4 1D4B     		ldr	r3, .L56+8
 1213 02f6 1B68     		ldr	r3, [r3]
 1214 02f8 002B     		cmp	r3, #0
 1215 02fa 06DD     		ble	.L50
 292:..\src/utils.c ****                 rest_pos_curr_ref = rest_pos_curr_ref + delta_inc;
 1216              		.loc 1 292 0
 1217 02fc 1C4B     		ldr	r3, .L56+12
 1218 02fe 1A68     		ldr	r2, [r3]
 1219 0300 1C4B     		ldr	r3, .L56+16
 1220 0302 1B68     		ldr	r3, [r3]
 1221 0304 1344     		add	r3, r3, r2
 1222 0306 1A4A     		ldr	r2, .L56+12
 1223 0308 1360     		str	r3, [r2]
 1224              	.L50:
 293:..\src/utils.c ****             }
 294:..\src/utils.c ****             if (rest_error < 0){
 1225              		.loc 1 294 0
 1226 030a 184B     		ldr	r3, .L56+8
 1227 030c 1B68     		ldr	r3, [r3]
 1228 030e 002B     		cmp	r3, #0
 1229 0310 06DA     		bge	.L46
 295:..\src/utils.c ****                 rest_pos_curr_ref = rest_pos_curr_ref - delta_inc;
 1230              		.loc 1 295 0
 1231 0312 174B     		ldr	r3, .L56+12
 1232 0314 1A68     		ldr	r2, [r3]
 1233 0316 174B     		ldr	r3, .L56+16
ARM GAS  C:\Users\Mattia\AppData\Local\Temp\ccsjO7ze.s 			page 28


 1234 0318 1B68     		ldr	r3, [r3]
 1235 031a D31A     		subs	r3, r2, r3
 1236 031c 144A     		ldr	r2, .L56+12
 1237 031e 1360     		str	r3, [r2]
 1238              	.L46:
 296:..\src/utils.c ****             }
 297:..\src/utils.c ****         } 
 298:..\src/utils.c ****     }
 299:..\src/utils.c ****     
 300:..\src/utils.c ****     // Position limit saturation
 301:..\src/utils.c ****     if (c_mem.motor[0].pos_lim_flag) {
 1239              		.loc 1 301 0
 1240 0320 154B     		ldr	r3, .L56+20
 1241 0322 93F8E330 		ldrb	r3, [r3, #227]	@ zero_extendqisi2
 1242 0326 002B     		cmp	r3, #0
 1243 0328 17D0     		beq	.L53
 302:..\src/utils.c ****         if (rest_pos_curr_ref < c_mem.motor[0].pos_lim_inf) 
 1244              		.loc 1 302 0
 1245 032a 134B     		ldr	r3, .L56+20
 1246 032c D3F8E420 		ldr	r2, [r3, #228]
 1247 0330 0F4B     		ldr	r3, .L56+12
 1248 0332 1B68     		ldr	r3, [r3]
 1249 0334 9A42     		cmp	r2, r3
 1250 0336 04DD     		ble	.L52
 303:..\src/utils.c ****             rest_pos_curr_ref = c_mem.motor[0].pos_lim_inf;
 1251              		.loc 1 303 0
 1252 0338 0F4B     		ldr	r3, .L56+20
 1253 033a D3F8E430 		ldr	r3, [r3, #228]
 1254 033e 0C4A     		ldr	r2, .L56+12
 1255 0340 1360     		str	r3, [r2]
 1256              	.L52:
 304:..\src/utils.c ****         if (rest_pos_curr_ref > c_mem.motor[0].pos_lim_sup) 
 1257              		.loc 1 304 0
 1258 0342 0D4B     		ldr	r3, .L56+20
 1259 0344 D3F8E820 		ldr	r2, [r3, #232]
 1260 0348 094B     		ldr	r3, .L56+12
 1261 034a 1B68     		ldr	r3, [r3]
 1262 034c 9A42     		cmp	r2, r3
 1263 034e 04DA     		bge	.L53
 305:..\src/utils.c ****             rest_pos_curr_ref = c_mem.motor[0].pos_lim_sup;
 1264              		.loc 1 305 0
 1265 0350 094B     		ldr	r3, .L56+20
 1266 0352 D3F8E830 		ldr	r3, [r3, #232]
 1267 0356 064A     		ldr	r2, .L56+12
 1268 0358 1360     		str	r3, [r2]
 1269              	.L53:
 306:..\src/utils.c ****     }
 307:..\src/utils.c **** 
 308:..\src/utils.c **** }
 1270              		.loc 1 308 0
 1271 035a 00BF     		nop
 1272 035c 0C37     		adds	r7, r7, #12
 1273              		.cfi_def_cfa_offset 12
 1274 035e BD46     		mov	sp, r7
 1275              		.cfi_def_cfa_register 13
 1276              		@ sp needed
 1277 0360 90BD     		pop	{r4, r7, pc}
ARM GAS  C:\Users\Mattia\AppData\Local\Temp\ccsjO7ze.s 			page 29


 1278              	.L57:
 1279 0362 00BF     		.align	2
 1280              	.L56:
 1281 0364 00000000 		.word	g_mem
 1282 0368 00000000 		.word	g_meas
 1283 036c 20000000 		.word	rest_error.10229
 1284 0370 00000000 		.word	rest_pos_curr_ref
 1285 0374 24000000 		.word	delta_inc.10227
 1286 0378 00000000 		.word	c_mem
 1287              		.cfi_endproc
 1288              	.LFE70:
 1289              		.size	check_rest_position, .-check_rest_position
 1290              		.section	.text.LED_control,"ax",%progbits
 1291              		.align	2
 1292              		.global	LED_control
 1293              		.thumb
 1294              		.thumb_func
 1295              		.type	LED_control, %function
 1296              	LED_control:
 1297              	.LFB71:
 309:..\src/utils.c **** 
 310:..\src/utils.c **** //==============================================================================
 311:..\src/utils.c **** //                                                                   LED CONTROL
 312:..\src/utils.c **** //==============================================================================
 313:..\src/utils.c **** 
 314:..\src/utils.c **** void LED_control(uint8 mode) {
 1298              		.loc 1 314 0
 1299              		.cfi_startproc
 1300              		@ args = 0, pretend = 0, frame = 8
 1301              		@ frame_needed = 1, uses_anonymous_args = 0
 1302 0000 80B5     		push	{r7, lr}
 1303              		.cfi_def_cfa_offset 8
 1304              		.cfi_offset 7, -8
 1305              		.cfi_offset 14, -4
 1306 0002 82B0     		sub	sp, sp, #8
 1307              		.cfi_def_cfa_offset 16
 1308 0004 00AF     		add	r7, sp, #0
 1309              		.cfi_def_cfa_register 7
 1310 0006 0346     		mov	r3, r0
 1311 0008 FB71     		strb	r3, [r7, #7]
 315:..\src/utils.c ****     
 316:..\src/utils.c ****     switch (mode) {
 1312              		.loc 1 316 0
 1313 000a FB79     		ldrb	r3, [r7, #7]	@ zero_extendqisi2
 1314 000c 052B     		cmp	r3, #5
 1315 000e 39D8     		bhi	.L68
 1316 0010 01A2     		adr	r2, .L61
 1317 0012 52F823F0 		ldr	pc, [r2, r3, lsl #2]
 1318 0016 00BF     		.p2align 2
 1319              	.L61:
 1320 0018 31000000 		.word	.L60+1
 1321 001c 3F000000 		.word	.L62+1
 1322 0020 4D000000 		.word	.L63+1
 1323 0024 5B000000 		.word	.L64+1
 1324 0028 69000000 		.word	.L65+1
 1325 002c 77000000 		.word	.L66+1
 1326              		.p2align 1
ARM GAS  C:\Users\Mattia\AppData\Local\Temp\ccsjO7ze.s 			page 30


 1327              	.L60:
 317:..\src/utils.c ****         
 318:..\src/utils.c ****         case 0:     //All LEDs off
 319:..\src/utils.c ****             LED_CTRL_Write(0);
 1328              		.loc 1 319 0
 1329 0030 0020     		movs	r0, #0
 1330 0032 FFF7FEFF 		bl	LED_CTRL_Write
 320:..\src/utils.c ****             BLINK_CTRL_EN_Write(0);
 1331              		.loc 1 320 0
 1332 0036 0020     		movs	r0, #0
 1333 0038 FFF7FEFF 		bl	BLINK_CTRL_EN_Write
 321:..\src/utils.c ****             break;
 1334              		.loc 1 321 0
 1335 003c 23E0     		b	.L67
 1336              	.L62:
 322:..\src/utils.c ****         case 1:     // Green fixed light
 323:..\src/utils.c ****             LED_CTRL_Write(2);
 1337              		.loc 1 323 0
 1338 003e 0220     		movs	r0, #2
 1339 0040 FFF7FEFF 		bl	LED_CTRL_Write
 324:..\src/utils.c ****             BLINK_CTRL_EN_Write(0);
 1340              		.loc 1 324 0
 1341 0044 0020     		movs	r0, #0
 1342 0046 FFF7FEFF 		bl	BLINK_CTRL_EN_Write
 325:..\src/utils.c ****             break;
 1343              		.loc 1 325 0
 1344 004a 1CE0     		b	.L67
 1345              	.L63:
 326:..\src/utils.c ****             
 327:..\src/utils.c ****         case 2:     // Yellow flashing light @ 0.5 Hz
 328:..\src/utils.c ****             LED_CTRL_Write(0);
 1346              		.loc 1 328 0
 1347 004c 0020     		movs	r0, #0
 1348 004e FFF7FEFF 		bl	LED_CTRL_Write
 329:..\src/utils.c ****             BLINK_CTRL_EN_Write(1);        
 1349              		.loc 1 329 0
 1350 0052 0120     		movs	r0, #1
 1351 0054 FFF7FEFF 		bl	BLINK_CTRL_EN_Write
 330:..\src/utils.c ****             break;
 1352              		.loc 1 330 0
 1353 0058 15E0     		b	.L67
 1354              	.L64:
 331:..\src/utils.c ****             
 332:..\src/utils.c ****         case 3:     // Red flashing light @ 2.5 Hz
 333:..\src/utils.c ****             LED_CTRL_Write(0);
 1355              		.loc 1 333 0
 1356 005a 0020     		movs	r0, #0
 1357 005c FFF7FEFF 		bl	LED_CTRL_Write
 334:..\src/utils.c ****             BLINK_CTRL_EN_Write(2);        
 1358              		.loc 1 334 0
 1359 0060 0220     		movs	r0, #2
 1360 0062 FFF7FEFF 		bl	BLINK_CTRL_EN_Write
 335:..\src/utils.c ****             break;
 1361              		.loc 1 335 0
 1362 0066 0EE0     		b	.L67
 1363              	.L65:
 336:..\src/utils.c ****             
ARM GAS  C:\Users\Mattia\AppData\Local\Temp\ccsjO7ze.s 			page 31


 337:..\src/utils.c ****         case 4:     // Yellow fixed light - maintenance
 338:..\src/utils.c ****             LED_CTRL_Write(3);
 1364              		.loc 1 338 0
 1365 0068 0320     		movs	r0, #3
 1366 006a FFF7FEFF 		bl	LED_CTRL_Write
 339:..\src/utils.c ****             BLINK_CTRL_EN_Write(0);        
 1367              		.loc 1 339 0
 1368 006e 0020     		movs	r0, #0
 1369 0070 FFF7FEFF 		bl	BLINK_CTRL_EN_Write
 340:..\src/utils.c ****             break;
 1370              		.loc 1 340 0
 1371 0074 07E0     		b	.L67
 1372              	.L66:
 341:..\src/utils.c ****         
 342:..\src/utils.c ****         case 5:     // Red fixed light - uUSB power
 343:..\src/utils.c ****             LED_CTRL_Write(1);
 1373              		.loc 1 343 0
 1374 0076 0120     		movs	r0, #1
 1375 0078 FFF7FEFF 		bl	LED_CTRL_Write
 344:..\src/utils.c ****             BLINK_CTRL_EN_Write(0);        
 1376              		.loc 1 344 0
 1377 007c 0020     		movs	r0, #0
 1378 007e FFF7FEFF 		bl	BLINK_CTRL_EN_Write
 345:..\src/utils.c ****             break; 
 1379              		.loc 1 345 0
 1380 0082 00E0     		b	.L67
 1381              	.L68:
 346:..\src/utils.c ****             
 347:..\src/utils.c ****         default:
 348:..\src/utils.c ****             break;
 1382              		.loc 1 348 0
 1383 0084 00BF     		nop
 1384              	.L67:
 349:..\src/utils.c ****     }   
 350:..\src/utils.c **** }
 1385              		.loc 1 350 0
 1386 0086 00BF     		nop
 1387 0088 0837     		adds	r7, r7, #8
 1388              		.cfi_def_cfa_offset 8
 1389 008a BD46     		mov	sp, r7
 1390              		.cfi_def_cfa_register 13
 1391              		@ sp needed
 1392 008c 80BD     		pop	{r7, pc}
 1393              		.cfi_endproc
 1394              	.LFE71:
 1395              		.size	LED_control, .-LED_control
 1396              		.global	__aeabi_i2d
 1397              		.global	__aeabi_dmul
 1398              		.global	__aeabi_dcmpgt
 1399 008e 00BF     		.section	.text.battery_management,"ax",%progbits
 1400              		.align	2
 1401              		.global	battery_management
 1402              		.thumb
 1403              		.thumb_func
 1404              		.type	battery_management, %function
 1405              	battery_management:
 1406              	.LFB72:
ARM GAS  C:\Users\Mattia\AppData\Local\Temp\ccsjO7ze.s 			page 32


 351:..\src/utils.c **** 
 352:..\src/utils.c **** 
 353:..\src/utils.c **** //==============================================================================
 354:..\src/utils.c **** //                                                            BATTERY MANAGEMENT
 355:..\src/utils.c **** //==============================================================================
 356:..\src/utils.c **** void battery_management() {
 1407              		.loc 1 356 0
 1408              		.cfi_startproc
 1409              		@ args = 0, pretend = 0, frame = 0
 1410              		@ frame_needed = 1, uses_anonymous_args = 0
 1411 0000 B0B5     		push	{r4, r5, r7, lr}
 1412              		.cfi_def_cfa_offset 16
 1413              		.cfi_offset 4, -16
 1414              		.cfi_offset 5, -12
 1415              		.cfi_offset 7, -8
 1416              		.cfi_offset 14, -4
 1417 0002 00AF     		add	r7, sp, #0
 1418              		.cfi_def_cfa_register 7
 357:..\src/utils.c ****     static uint32 v_count_lb = 0;
 358:..\src/utils.c ****     
 359:..\src/utils.c ****     // LED handling procedure
 360:..\src/utils.c ****     // The board LED blinks if attached battery is not fully charged
 361:..\src/utils.c **** 
 362:..\src/utils.c ****     if (battery_low_SoC) {
 1419              		.loc 1 362 0
 1420 0004 AC4B     		ldr	r3, .L97+16
 1421 0006 1B78     		ldrb	r3, [r3]	@ zero_extendqisi2
 1422 0008 002B     		cmp	r3, #0
 1423 000a 27D0     		beq	.L70
 363:..\src/utils.c ****         
 364:..\src/utils.c ****         //red light - blink @ 2.5 Hz
 365:..\src/utils.c ****         LED_control(3);
 1424              		.loc 1 365 0
 1425 000c 0320     		movs	r0, #3
 1426 000e FFF7FEFF 		bl	LED_control
 366:..\src/utils.c ****                 
 367:..\src/utils.c ****         rest_enabled = 0;
 1427              		.loc 1 367 0
 1428 0012 AA4B     		ldr	r3, .L97+20
 1429 0014 0022     		movs	r2, #0
 1430 0016 1A70     		strb	r2, [r3]
 368:..\src/utils.c ****         if (v_count_lb >= 11000){
 1431              		.loc 1 368 0
 1432 0018 A94B     		ldr	r3, .L97+24
 1433 001a 1B68     		ldr	r3, [r3]
 1434 001c 42F6F722 		movw	r2, #10999
 1435 0020 9342     		cmp	r3, r2
 1436 0022 15D9     		bls	.L71
 369:..\src/utils.c ****             // Disable motor because we are sure of not fully charged battery and terminal device h
 370:..\src/utils.c ****             g_refNew[0].onoff = 0x00;
 1437              		.loc 1 370 0
 1438 0024 A74B     		ldr	r3, .L97+28
 1439 0026 0022     		movs	r2, #0
 1440 0028 1A73     		strb	r2, [r3, #12]
 371:..\src/utils.c ****             enable_motor(0, g_refNew[0].onoff);
 1441              		.loc 1 371 0
 1442 002a A64B     		ldr	r3, .L97+28
ARM GAS  C:\Users\Mattia\AppData\Local\Temp\ccsjO7ze.s 			page 33


 1443 002c 1B7B     		ldrb	r3, [r3, #12]	@ zero_extendqisi2
 1444 002e 1946     		mov	r1, r3
 1445 0030 0020     		movs	r0, #0
 1446 0032 FFF7FEFF 		bl	enable_motor
 372:..\src/utils.c ****             g_refNew[1].onoff = 0x00;
 1447              		.loc 1 372 0
 1448 0036 A34B     		ldr	r3, .L97+28
 1449 0038 0022     		movs	r2, #0
 1450 003a 1A77     		strb	r2, [r3, #28]
 373:..\src/utils.c ****             enable_motor(1, g_refNew[1].onoff);     // Deactivate motor
 1451              		.loc 1 373 0
 1452 003c A14B     		ldr	r3, .L97+28
 1453 003e 1B7F     		ldrb	r3, [r3, #28]	@ zero_extendqisi2
 1454 0040 1946     		mov	r1, r3
 1455 0042 0120     		movs	r0, #1
 1456 0044 FFF7FEFF 		bl	enable_motor
 374:..\src/utils.c ****             v_count_lb = 0;
 1457              		.loc 1 374 0
 1458 0048 9D4B     		ldr	r3, .L97+24
 1459 004a 0022     		movs	r2, #0
 1460 004c 1A60     		str	r2, [r3]
 375:..\src/utils.c ****         }
 376:..\src/utils.c ****         else
 377:..\src/utils.c ****             v_count_lb = v_count_lb + 1;
 378:..\src/utils.c ****         
 379:..\src/utils.c ****     }
 380:..\src/utils.c ****     else {
 381:..\src/utils.c **** 
 382:..\src/utils.c ****         // The board LED is still or blinks depending on attached battery State of Charge
 383:..\src/utils.c ****         if (tension_valid == TRUE && (( c_mem.motor[0].input_mode == INPUT_MODE_EXTERNAL || c_mem.m
 384:..\src/utils.c ****             ( (c_mem.motor[0].input_mode == INPUT_MODE_EMG_PROPORTIONAL || c_mem.motor[0].input_mod
 385:..\src/utils.c ****                c_mem.motor[0].input_mode == INPUT_MODE_EMG_FCFS_ADV || c_mem.motor[0].input_mode ==
 386:..\src/utils.c ****                 emg_1_status == NORMAL && emg_2_status == NORMAL)) ){ 
 387:..\src/utils.c ****             dev_tension_f[0] = filter(dev_tension[0], &filt_v[0]);            
 388:..\src/utils.c ****             if (c_mem.dev.use_2nd_motor_flag == TRUE) {
 389:..\src/utils.c ****                 dev_tension_f[1] = filter(dev_tension[1], &filt_v[1]);
 390:..\src/utils.c ****             }
 391:..\src/utils.c ****             
 392:..\src/utils.c ****             // Note: Sometimes pow_tension is not well computed when using power supply
 393:..\src/utils.c ****             // Parrot/Renata: 0.9, 0.87
 394:..\src/utils.c ****             // ARTS: 0.87, 0.8
 395:..\src/utils.c ****             if (dev_tension_f[0] > 0.95 * pow_tension[0] && (c_mem.dev.use_2nd_motor_flag == FALSE 
 396:..\src/utils.c ****                 //fixed
 397:..\src/utils.c ****                 if (!maintenance_flag)
 398:..\src/utils.c ****                     LED_control(0);     // NO LIGHT - all leds off
 399:..\src/utils.c ****                 else
 400:..\src/utils.c ****                     LED_control(4);     // yellow light - fixed
 401:..\src/utils.c ****             }
 402:..\src/utils.c ****             
 403:..\src/utils.c ****             else {
 404:..\src/utils.c ****                 if (dev_tension_f[0] > 0.9 * pow_tension[0] && (c_mem.dev.use_2nd_motor_flag == FAL
 405:..\src/utils.c ****                     //yellow light - blink @ 0.5 Hz
 406:..\src/utils.c ****                     //LED_control(2);   
 407:..\src/utils.c ****                     
 408:..\src/utils.c ****                     if (!maintenance_flag)
 409:..\src/utils.c ****                         LED_control(0);     // NO LIGHT - all leds off
 410:..\src/utils.c ****                     else
ARM GAS  C:\Users\Mattia\AppData\Local\Temp\ccsjO7ze.s 			page 34


 411:..\src/utils.c ****                         LED_control(4);     // yellow light - fixed
 412:..\src/utils.c ****                     
 413:..\src/utils.c ****                     v_count_lb = 0;    // Reset counter whenever battery is not totally out of char
 414:..\src/utils.c ****                 }
 415:..\src/utils.c ****                 else {
 416:..\src/utils.c ****                     //red light - blink @ 2.5 Hz
 417:..\src/utils.c ****                     //LED_control(3);
 418:..\src/utils.c ****                 
 419:..\src/utils.c ****                     if (v_count_lb >= 10000){                    
 420:..\src/utils.c ****                         
 421:..\src/utils.c ****                         //battery_low_SoC = TRUE;
 422:..\src/utils.c ****                         
 423:..\src/utils.c ****                         //red light - blink @ 2.5 Hz
 424:..\src/utils.c ****                         LED_control(3);
 425:..\src/utils.c ****                         
 426:..\src/utils.c ****                         rest_enabled = 0;
 427:..\src/utils.c ****                     }
 428:..\src/utils.c ****                     else{
 429:..\src/utils.c ****                         v_count_lb = v_count_lb + 1;
 430:..\src/utils.c ****                     }                
 431:..\src/utils.c ****                 }
 432:..\src/utils.c ****             }
 433:..\src/utils.c ****             
 434:..\src/utils.c ****         }
 435:..\src/utils.c ****         else {
 436:..\src/utils.c ****             if ((c_mem.motor[0].input_mode == INPUT_MODE_EXTERNAL || c_mem.motor[0].input_mode == I
 437:..\src/utils.c ****                 ((c_mem.motor[0].input_mode == INPUT_MODE_EMG_PROPORTIONAL || c_mem.motor[0].input_
 438:..\src/utils.c ****                   c_mem.motor[0].input_mode == INPUT_MODE_EMG_FCFS_ADV || c_mem.motor[0].input_mode
 439:..\src/utils.c ****                 LED_control(5);     // Default - red light
 440:..\src/utils.c ****             }
 441:..\src/utils.c ****         }
 442:..\src/utils.c ****     }  
 443:..\src/utils.c **** }
 1461              		.loc 1 443 0
 1462 004e 29E1     		b	.L96
 1463              	.L71:
 377:..\src/utils.c ****         
 1464              		.loc 1 377 0
 1465 0050 9B4B     		ldr	r3, .L97+24
 1466 0052 1B68     		ldr	r3, [r3]
 1467 0054 0133     		adds	r3, r3, #1
 1468 0056 9A4A     		ldr	r2, .L97+24
 1469 0058 1360     		str	r3, [r2]
 1470              		.loc 1 443 0
 1471 005a 23E1     		b	.L96
 1472              	.L70:
 383:..\src/utils.c ****             ( (c_mem.motor[0].input_mode == INPUT_MODE_EMG_PROPORTIONAL || c_mem.motor[0].input_mod
 1473              		.loc 1 383 0
 1474 005c 9A4B     		ldr	r3, .L97+32
 1475 005e 1B78     		ldrb	r3, [r3]	@ zero_extendqisi2
 1476 0060 012B     		cmp	r3, #1
 1477 0062 40F0EB80 		bne	.L74
 383:..\src/utils.c ****             ( (c_mem.motor[0].input_mode == INPUT_MODE_EMG_PROPORTIONAL || c_mem.motor[0].input_mod
 1478              		.loc 1 383 0 is_stmt 0 discriminator 1
 1479 0066 994B     		ldr	r3, .L97+36
 1480 0068 93F80E31 		ldrb	r3, [r3, #270]	@ zero_extendqisi2
 1481 006c 002B     		cmp	r3, #0
ARM GAS  C:\Users\Mattia\AppData\Local\Temp\ccsjO7ze.s 			page 35


 1482 006e 2DD0     		beq	.L75
 383:..\src/utils.c ****             ( (c_mem.motor[0].input_mode == INPUT_MODE_EMG_PROPORTIONAL || c_mem.motor[0].input_mod
 1483              		.loc 1 383 0 discriminator 2
 1484 0070 964B     		ldr	r3, .L97+36
 1485 0072 93F80E31 		ldrb	r3, [r3, #270]	@ zero_extendqisi2
 1486 0076 012B     		cmp	r3, #1
 1487 0078 28D0     		beq	.L75
 383:..\src/utils.c ****             ( (c_mem.motor[0].input_mode == INPUT_MODE_EMG_PROPORTIONAL || c_mem.motor[0].input_mod
 1488              		.loc 1 383 0 discriminator 3
 1489 007a 944B     		ldr	r3, .L97+36
 1490 007c 93F80E31 		ldrb	r3, [r3, #270]	@ zero_extendqisi2
 1491 0080 062B     		cmp	r3, #6
 1492 0082 23D0     		beq	.L75
 384:..\src/utils.c ****                c_mem.motor[0].input_mode == INPUT_MODE_EMG_FCFS_ADV || c_mem.motor[0].input_mode ==
 1493              		.loc 1 384 0 is_stmt 1 discriminator 4
 1494 0084 914B     		ldr	r3, .L97+36
 1495 0086 93F80E31 		ldrb	r3, [r3, #270]	@ zero_extendqisi2
 383:..\src/utils.c ****             ( (c_mem.motor[0].input_mode == INPUT_MODE_EMG_PROPORTIONAL || c_mem.motor[0].input_mod
 1496              		.loc 1 383 0 discriminator 4
 1497 008a 022B     		cmp	r3, #2
 1498 008c 14D0     		beq	.L76
 384:..\src/utils.c ****                c_mem.motor[0].input_mode == INPUT_MODE_EMG_FCFS_ADV || c_mem.motor[0].input_mode ==
 1499              		.loc 1 384 0
 1500 008e 8F4B     		ldr	r3, .L97+36
 1501 0090 93F80E31 		ldrb	r3, [r3, #270]	@ zero_extendqisi2
 1502 0094 032B     		cmp	r3, #3
 1503 0096 0FD0     		beq	.L76
 384:..\src/utils.c ****                c_mem.motor[0].input_mode == INPUT_MODE_EMG_FCFS_ADV || c_mem.motor[0].input_mode ==
 1504              		.loc 1 384 0 is_stmt 0 discriminator 1
 1505 0098 8C4B     		ldr	r3, .L97+36
 1506 009a 93F80E31 		ldrb	r3, [r3, #270]	@ zero_extendqisi2
 1507 009e 042B     		cmp	r3, #4
 1508 00a0 0AD0     		beq	.L76
 385:..\src/utils.c ****                 emg_1_status == NORMAL && emg_2_status == NORMAL)) ){ 
 1509              		.loc 1 385 0 is_stmt 1 discriminator 2
 1510 00a2 8A4B     		ldr	r3, .L97+36
 1511 00a4 93F80E31 		ldrb	r3, [r3, #270]	@ zero_extendqisi2
 384:..\src/utils.c ****                c_mem.motor[0].input_mode == INPUT_MODE_EMG_FCFS_ADV || c_mem.motor[0].input_mode ==
 1512              		.loc 1 384 0 discriminator 2
 1513 00a8 052B     		cmp	r3, #5
 1514 00aa 05D0     		beq	.L76
 385:..\src/utils.c ****                 emg_1_status == NORMAL && emg_2_status == NORMAL)) ){ 
 1515              		.loc 1 385 0
 1516 00ac 874B     		ldr	r3, .L97+36
 1517 00ae 93F80E31 		ldrb	r3, [r3, #270]	@ zero_extendqisi2
 1518 00b2 072B     		cmp	r3, #7
 1519 00b4 40F0C280 		bne	.L74
 1520              	.L76:
 386:..\src/utils.c ****             dev_tension_f[0] = filter(dev_tension[0], &filt_v[0]);            
 1521              		.loc 1 386 0 discriminator 1
 1522 00b8 854B     		ldr	r3, .L97+40
 1523 00ba 1B78     		ldrb	r3, [r3]	@ zero_extendqisi2
 385:..\src/utils.c ****                 emg_1_status == NORMAL && emg_2_status == NORMAL)) ){ 
 1524              		.loc 1 385 0 discriminator 1
 1525 00bc 002B     		cmp	r3, #0
 1526 00be 40F0BD80 		bne	.L74
 386:..\src/utils.c ****             dev_tension_f[0] = filter(dev_tension[0], &filt_v[0]);            
ARM GAS  C:\Users\Mattia\AppData\Local\Temp\ccsjO7ze.s 			page 36


 1527              		.loc 1 386 0
 1528 00c2 844B     		ldr	r3, .L97+44
 1529 00c4 1B78     		ldrb	r3, [r3]	@ zero_extendqisi2
 1530 00c6 002B     		cmp	r3, #0
 1531 00c8 40F0B880 		bne	.L74
 1532              	.L75:
 387:..\src/utils.c ****             if (c_mem.dev.use_2nd_motor_flag == TRUE) {
 1533              		.loc 1 387 0
 1534 00cc 824B     		ldr	r3, .L97+48
 1535 00ce 1B68     		ldr	r3, [r3]
 1536 00d0 8249     		ldr	r1, .L97+52
 1537 00d2 1846     		mov	r0, r3
 1538 00d4 FFF7FEFF 		bl	filter
 1539 00d8 0246     		mov	r2, r0
 1540 00da 814B     		ldr	r3, .L97+56
 1541 00dc 1A60     		str	r2, [r3]
 388:..\src/utils.c ****                 dev_tension_f[1] = filter(dev_tension[1], &filt_v[1]);
 1542              		.loc 1 388 0
 1543 00de 7B4B     		ldr	r3, .L97+36
 1544 00e0 93F8A930 		ldrb	r3, [r3, #169]	@ zero_extendqisi2
 1545 00e4 012B     		cmp	r3, #1
 1546 00e6 08D1     		bne	.L77
 389:..\src/utils.c ****             }
 1547              		.loc 1 389 0
 1548 00e8 7B4B     		ldr	r3, .L97+48
 1549 00ea 5B68     		ldr	r3, [r3, #4]
 1550 00ec 7D49     		ldr	r1, .L97+60
 1551 00ee 1846     		mov	r0, r3
 1552 00f0 FFF7FEFF 		bl	filter
 1553 00f4 0246     		mov	r2, r0
 1554 00f6 7A4B     		ldr	r3, .L97+56
 1555 00f8 5A60     		str	r2, [r3, #4]
 1556              	.L77:
 395:..\src/utils.c ****                 //fixed
 1557              		.loc 1 395 0
 1558 00fa 794B     		ldr	r3, .L97+56
 1559 00fc 1B68     		ldr	r3, [r3]
 1560 00fe 1846     		mov	r0, r3
 1561 0100 FFF7FEFF 		bl	__aeabi_i2d
 1562 0104 0446     		mov	r4, r0
 1563 0106 0D46     		mov	r5, r1
 1564 0108 774B     		ldr	r3, .L97+64
 1565 010a 1B68     		ldr	r3, [r3]
 1566 010c 1846     		mov	r0, r3
 1567 010e FFF7FEFF 		bl	__aeabi_i2d
 1568 0112 65A3     		adr	r3, .L97
 1569 0114 D3E90023 		ldrd	r2, [r3]
 1570 0118 FFF7FEFF 		bl	__aeabi_dmul
 1571 011c 0246     		mov	r2, r0
 1572 011e 0B46     		mov	r3, r1
 1573 0120 2046     		mov	r0, r4
 1574 0122 2946     		mov	r1, r5
 1575 0124 FFF7FEFF 		bl	__aeabi_dcmpgt
 1576 0128 0346     		mov	r3, r0
 1577 012a 002B     		cmp	r3, #0
 1578 012c 2AD0     		beq	.L78
 395:..\src/utils.c ****                 //fixed
ARM GAS  C:\Users\Mattia\AppData\Local\Temp\ccsjO7ze.s 			page 37


 1579              		.loc 1 395 0 is_stmt 0 discriminator 1
 1580 012e 674B     		ldr	r3, .L97+36
 1581 0130 93F8A930 		ldrb	r3, [r3, #169]	@ zero_extendqisi2
 1582 0134 002B     		cmp	r3, #0
 1583 0136 19D0     		beq	.L80
 395:..\src/utils.c ****                 //fixed
 1584              		.loc 1 395 0 discriminator 2
 1585 0138 694B     		ldr	r3, .L97+56
 1586 013a 5B68     		ldr	r3, [r3, #4]
 1587 013c 1846     		mov	r0, r3
 1588 013e FFF7FEFF 		bl	__aeabi_i2d
 1589 0142 0446     		mov	r4, r0
 1590 0144 0D46     		mov	r5, r1
 1591 0146 684B     		ldr	r3, .L97+64
 1592 0148 5B68     		ldr	r3, [r3, #4]
 1593 014a 1846     		mov	r0, r3
 1594 014c FFF7FEFF 		bl	__aeabi_i2d
 1595 0150 55A3     		adr	r3, .L97
 1596 0152 D3E90023 		ldrd	r2, [r3]
 1597 0156 FFF7FEFF 		bl	__aeabi_dmul
 1598 015a 0246     		mov	r2, r0
 1599 015c 0B46     		mov	r3, r1
 1600 015e 2046     		mov	r0, r4
 1601 0160 2946     		mov	r1, r5
 1602 0162 FFF7FEFF 		bl	__aeabi_dcmpgt
 1603 0166 0346     		mov	r3, r0
 1604 0168 002B     		cmp	r3, #0
 1605 016a 0BD0     		beq	.L78
 1606              	.L80:
 397:..\src/utils.c ****                     LED_control(0);     // NO LIGHT - all leds off
 1607              		.loc 1 397 0 is_stmt 1
 1608 016c 5F4B     		ldr	r3, .L97+68
 1609 016e 1B78     		ldrb	r3, [r3]	@ zero_extendqisi2
 1610 0170 002B     		cmp	r3, #0
 1611 0172 03D1     		bne	.L82
 398:..\src/utils.c ****                 else
 1612              		.loc 1 398 0
 1613 0174 0020     		movs	r0, #0
 1614 0176 FFF7FEFF 		bl	LED_control
 397:..\src/utils.c ****                     LED_control(0);     // NO LIGHT - all leds off
 1615              		.loc 1 397 0
 1616 017a 5EE0     		b	.L84
 1617              	.L82:
 400:..\src/utils.c ****             }
 1618              		.loc 1 400 0
 1619 017c 0420     		movs	r0, #4
 1620 017e FFF7FEFF 		bl	LED_control
 397:..\src/utils.c ****                     LED_control(0);     // NO LIGHT - all leds off
 1621              		.loc 1 397 0
 1622 0182 5AE0     		b	.L84
 1623              	.L78:
 404:..\src/utils.c ****                     //yellow light - blink @ 0.5 Hz
 1624              		.loc 1 404 0
 1625 0184 564B     		ldr	r3, .L97+56
 1626 0186 1B68     		ldr	r3, [r3]
 1627 0188 1846     		mov	r0, r3
 1628 018a FFF7FEFF 		bl	__aeabi_i2d
ARM GAS  C:\Users\Mattia\AppData\Local\Temp\ccsjO7ze.s 			page 38


 1629 018e 0446     		mov	r4, r0
 1630 0190 0D46     		mov	r5, r1
 1631 0192 554B     		ldr	r3, .L97+64
 1632 0194 1B68     		ldr	r3, [r3]
 1633 0196 1846     		mov	r0, r3
 1634 0198 FFF7FEFF 		bl	__aeabi_i2d
 1635 019c 44A3     		adr	r3, .L97+8
 1636 019e D3E90023 		ldrd	r2, [r3]
 1637 01a2 FFF7FEFF 		bl	__aeabi_dmul
 1638 01a6 0246     		mov	r2, r0
 1639 01a8 0B46     		mov	r3, r1
 1640 01aa 2046     		mov	r0, r4
 1641 01ac 2946     		mov	r1, r5
 1642 01ae FFF7FEFF 		bl	__aeabi_dcmpgt
 1643 01b2 0346     		mov	r3, r0
 1644 01b4 002B     		cmp	r3, #0
 1645 01b6 2DD0     		beq	.L85
 404:..\src/utils.c ****                     //yellow light - blink @ 0.5 Hz
 1646              		.loc 1 404 0 is_stmt 0 discriminator 1
 1647 01b8 444B     		ldr	r3, .L97+36
 1648 01ba 93F8A930 		ldrb	r3, [r3, #169]	@ zero_extendqisi2
 1649 01be 002B     		cmp	r3, #0
 1650 01c0 19D0     		beq	.L87
 404:..\src/utils.c ****                     //yellow light - blink @ 0.5 Hz
 1651              		.loc 1 404 0 discriminator 2
 1652 01c2 474B     		ldr	r3, .L97+56
 1653 01c4 5B68     		ldr	r3, [r3, #4]
 1654 01c6 1846     		mov	r0, r3
 1655 01c8 FFF7FEFF 		bl	__aeabi_i2d
 1656 01cc 0446     		mov	r4, r0
 1657 01ce 0D46     		mov	r5, r1
 1658 01d0 454B     		ldr	r3, .L97+64
 1659 01d2 5B68     		ldr	r3, [r3, #4]
 1660 01d4 1846     		mov	r0, r3
 1661 01d6 FFF7FEFF 		bl	__aeabi_i2d
 1662 01da 35A3     		adr	r3, .L97+8
 1663 01dc D3E90023 		ldrd	r2, [r3]
 1664 01e0 FFF7FEFF 		bl	__aeabi_dmul
 1665 01e4 0246     		mov	r2, r0
 1666 01e6 0B46     		mov	r3, r1
 1667 01e8 2046     		mov	r0, r4
 1668 01ea 2946     		mov	r1, r5
 1669 01ec FFF7FEFF 		bl	__aeabi_dcmpgt
 1670 01f0 0346     		mov	r3, r0
 1671 01f2 002B     		cmp	r3, #0
 1672 01f4 0ED0     		beq	.L85
 1673              	.L87:
 408:..\src/utils.c ****                         LED_control(0);     // NO LIGHT - all leds off
 1674              		.loc 1 408 0 is_stmt 1
 1675 01f6 3D4B     		ldr	r3, .L97+68
 1676 01f8 1B78     		ldrb	r3, [r3]	@ zero_extendqisi2
 1677 01fa 002B     		cmp	r3, #0
 1678 01fc 03D1     		bne	.L89
 409:..\src/utils.c ****                     else
 1679              		.loc 1 409 0
 1680 01fe 0020     		movs	r0, #0
 1681 0200 FFF7FEFF 		bl	LED_control
ARM GAS  C:\Users\Mattia\AppData\Local\Temp\ccsjO7ze.s 			page 39


 1682 0204 02E0     		b	.L90
 1683              	.L89:
 411:..\src/utils.c ****                     
 1684              		.loc 1 411 0
 1685 0206 0420     		movs	r0, #4
 1686 0208 FFF7FEFF 		bl	LED_control
 1687              	.L90:
 413:..\src/utils.c ****                 }
 1688              		.loc 1 413 0
 1689 020c 2C4B     		ldr	r3, .L97+24
 1690 020e 0022     		movs	r2, #0
 1691 0210 1A60     		str	r2, [r3]
 1692 0212 12E0     		b	.L84
 1693              	.L85:
 419:..\src/utils.c ****                         
 1694              		.loc 1 419 0
 1695 0214 2A4B     		ldr	r3, .L97+24
 1696 0216 1B68     		ldr	r3, [r3]
 1697 0218 42F20F72 		movw	r2, #9999
 1698 021c 9342     		cmp	r3, r2
 1699 021e 06D9     		bls	.L91
 424:..\src/utils.c ****                         
 1700              		.loc 1 424 0
 1701 0220 0320     		movs	r0, #3
 1702 0222 FFF7FEFF 		bl	LED_control
 426:..\src/utils.c ****                     }
 1703              		.loc 1 426 0
 1704 0226 254B     		ldr	r3, .L97+20
 1705 0228 0022     		movs	r2, #0
 1706 022a 1A70     		strb	r2, [r3]
 395:..\src/utils.c ****                 //fixed
 1707              		.loc 1 395 0
 1708 022c 3AE0     		b	.L73
 1709              	.L91:
 429:..\src/utils.c ****                     }                
 1710              		.loc 1 429 0
 1711 022e 244B     		ldr	r3, .L97+24
 1712 0230 1B68     		ldr	r3, [r3]
 1713 0232 0133     		adds	r3, r3, #1
 1714 0234 224A     		ldr	r2, .L97+24
 1715 0236 1360     		str	r3, [r2]
 395:..\src/utils.c ****                 //fixed
 1716              		.loc 1 395 0
 1717 0238 34E0     		b	.L73
 1718              	.L84:
 395:..\src/utils.c ****                 //fixed
 1719              		.loc 1 395 0 is_stmt 0 discriminator 1
 1720 023a 33E0     		b	.L73
 1721              	.L74:
 436:..\src/utils.c ****                 ((c_mem.motor[0].input_mode == INPUT_MODE_EMG_PROPORTIONAL || c_mem.motor[0].input_
 1722              		.loc 1 436 0 is_stmt 1
 1723 023c 234B     		ldr	r3, .L97+36
 1724 023e 93F80E31 		ldrb	r3, [r3, #270]	@ zero_extendqisi2
 1725 0242 002B     		cmp	r3, #0
 1726 0244 2AD0     		beq	.L92
 436:..\src/utils.c ****                 ((c_mem.motor[0].input_mode == INPUT_MODE_EMG_PROPORTIONAL || c_mem.motor[0].input_
 1727              		.loc 1 436 0 is_stmt 0 discriminator 1
ARM GAS  C:\Users\Mattia\AppData\Local\Temp\ccsjO7ze.s 			page 40


 1728 0246 214B     		ldr	r3, .L97+36
 1729 0248 93F80E31 		ldrb	r3, [r3, #270]	@ zero_extendqisi2
 1730 024c 012B     		cmp	r3, #1
 1731 024e 25D0     		beq	.L92
 436:..\src/utils.c ****                 ((c_mem.motor[0].input_mode == INPUT_MODE_EMG_PROPORTIONAL || c_mem.motor[0].input_
 1732              		.loc 1 436 0 discriminator 2
 1733 0250 1E4B     		ldr	r3, .L97+36
 1734 0252 93F80E31 		ldrb	r3, [r3, #270]	@ zero_extendqisi2
 1735 0256 062B     		cmp	r3, #6
 1736 0258 20D0     		beq	.L92
 437:..\src/utils.c ****                   c_mem.motor[0].input_mode == INPUT_MODE_EMG_FCFS_ADV || c_mem.motor[0].input_mode
 1737              		.loc 1 437 0 is_stmt 1 discriminator 3
 1738 025a 1C4B     		ldr	r3, .L97+36
 1739 025c 93F80E31 		ldrb	r3, [r3, #270]	@ zero_extendqisi2
 436:..\src/utils.c ****                 ((c_mem.motor[0].input_mode == INPUT_MODE_EMG_PROPORTIONAL || c_mem.motor[0].input_
 1740              		.loc 1 436 0 discriminator 3
 1741 0260 022B     		cmp	r3, #2
 1742 0262 13D0     		beq	.L93
 437:..\src/utils.c ****                   c_mem.motor[0].input_mode == INPUT_MODE_EMG_FCFS_ADV || c_mem.motor[0].input_mode
 1743              		.loc 1 437 0
 1744 0264 194B     		ldr	r3, .L97+36
 1745 0266 93F80E31 		ldrb	r3, [r3, #270]	@ zero_extendqisi2
 1746 026a 032B     		cmp	r3, #3
 1747 026c 0ED0     		beq	.L93
 437:..\src/utils.c ****                   c_mem.motor[0].input_mode == INPUT_MODE_EMG_FCFS_ADV || c_mem.motor[0].input_mode
 1748              		.loc 1 437 0 is_stmt 0 discriminator 1
 1749 026e 174B     		ldr	r3, .L97+36
 1750 0270 93F80E31 		ldrb	r3, [r3, #270]	@ zero_extendqisi2
 1751 0274 042B     		cmp	r3, #4
 1752 0276 09D0     		beq	.L93
 438:..\src/utils.c ****                 LED_control(5);     // Default - red light
 1753              		.loc 1 438 0 is_stmt 1 discriminator 2
 1754 0278 144B     		ldr	r3, .L97+36
 1755 027a 93F80E31 		ldrb	r3, [r3, #270]	@ zero_extendqisi2
 437:..\src/utils.c ****                   c_mem.motor[0].input_mode == INPUT_MODE_EMG_FCFS_ADV || c_mem.motor[0].input_mode
 1756              		.loc 1 437 0 discriminator 2
 1757 027e 052B     		cmp	r3, #5
 1758 0280 04D0     		beq	.L93
 438:..\src/utils.c ****                 LED_control(5);     // Default - red light
 1759              		.loc 1 438 0
 1760 0282 124B     		ldr	r3, .L97+36
 1761 0284 93F80E31 		ldrb	r3, [r3, #270]	@ zero_extendqisi2
 1762 0288 072B     		cmp	r3, #7
 1763 028a 0BD1     		bne	.L96
 1764              	.L93:
 438:..\src/utils.c ****                 LED_control(5);     // Default - red light
 1765              		.loc 1 438 0 is_stmt 0 discriminator 1
 1766 028c 104B     		ldr	r3, .L97+40
 1767 028e 1B78     		ldrb	r3, [r3]	@ zero_extendqisi2
 1768 0290 002B     		cmp	r3, #0
 1769 0292 07D1     		bne	.L96
 438:..\src/utils.c ****                 LED_control(5);     // Default - red light
 1770              		.loc 1 438 0 discriminator 2
 1771 0294 0F4B     		ldr	r3, .L97+44
 1772 0296 1B78     		ldrb	r3, [r3]	@ zero_extendqisi2
 1773 0298 002B     		cmp	r3, #0
 1774 029a 03D1     		bne	.L96
ARM GAS  C:\Users\Mattia\AppData\Local\Temp\ccsjO7ze.s 			page 41


 1775              	.L92:
 439:..\src/utils.c ****             }
 1776              		.loc 1 439 0 is_stmt 1
 1777 029c 0520     		movs	r0, #5
 1778 029e FFF7FEFF 		bl	LED_control
 1779              		.loc 1 443 0
 1780 02a2 FFE7     		b	.L96
 1781              	.L73:
 1782              	.L96:
 1783 02a4 00BF     		nop
 1784 02a6 B0BD     		pop	{r4, r5, r7, pc}
 1785              	.L98:
 1786              		.align	3
 1787              	.L97:
 1788 02a8 66666666 		.word	1717986918
 1789 02ac 6666EE3F 		.word	1072588390
 1790 02b0 CDCCCCCC 		.word	-858993459
 1791 02b4 CCCCEC3F 		.word	1072483532
 1792 02b8 00000000 		.word	battery_low_SoC
 1793 02bc 00000000 		.word	rest_enabled
 1794 02c0 28000000 		.word	v_count_lb.10244
 1795 02c4 00000000 		.word	g_refNew
 1796 02c8 00000000 		.word	tension_valid
 1797 02cc 00000000 		.word	c_mem
 1798 02d0 00000000 		.word	emg_1_status
 1799 02d4 00000000 		.word	emg_2_status
 1800 02d8 00000000 		.word	dev_tension
 1801 02dc 00000000 		.word	filt_v
 1802 02e0 00000000 		.word	dev_tension_f
 1803 02e4 08000000 		.word	filt_v+8
 1804 02e8 00000000 		.word	pow_tension
 1805 02ec 00000000 		.word	maintenance_flag
 1806              		.cfi_endproc
 1807              	.LFE72:
 1808              		.size	battery_management, .-battery_management
 1809              		.section	.text.ADC_Set_N_Channels,"ax",%progbits
 1810              		.align	2
 1811              		.global	ADC_Set_N_Channels
 1812              		.thumb
 1813              		.thumb_func
 1814              		.type	ADC_Set_N_Channels, %function
 1815              	ADC_Set_N_Channels:
 1816              	.LFB73:
 444:..\src/utils.c **** 
 445:..\src/utils.c **** //==============================================================================
 446:..\src/utils.c **** //                                                         ADC SET CHANNELS USED
 447:..\src/utils.c **** //==============================================================================
 448:..\src/utils.c **** void ADC_Set_N_Channels() {
 1817              		.loc 1 448 0
 1818              		.cfi_startproc
 1819              		@ args = 0, pretend = 0, frame = 0
 1820              		@ frame_needed = 1, uses_anonymous_args = 0
 1821 0000 80B5     		push	{r7, lr}
 1822              		.cfi_def_cfa_offset 8
 1823              		.cfi_offset 7, -8
 1824              		.cfi_offset 14, -4
 1825 0002 00AF     		add	r7, sp, #0
ARM GAS  C:\Users\Mattia\AppData\Local\Temp\ccsjO7ze.s 			page 42


 1826              		.cfi_def_cfa_register 7
 449:..\src/utils.c ****     // Set right number of ADC channels to sample according to chosen flags
 450:..\src/utils.c ****     
 451:..\src/utils.c ****     NUM_OF_ANALOG_INPUTS = 4;       // Voltage_Sense_1
 1827              		.loc 1 451 0
 1828 0004 0D4B     		ldr	r3, .L102
 1829 0006 0422     		movs	r2, #4
 1830 0008 1A70     		strb	r2, [r3]
 452:..\src/utils.c ****                                     // Current_Sense_1
 453:..\src/utils.c ****                                     // EMG_A
 454:..\src/utils.c ****                                     // EMG_B
 455:..\src/utils.c **** 
 456:..\src/utils.c **** #ifdef GENERIC_FW    
 457:..\src/utils.c ****     if (c_mem.dev.use_2nd_motor_flag == TRUE){
 1831              		.loc 1 457 0
 1832 000a 0D4B     		ldr	r3, .L102+4
 1833 000c 93F8A930 		ldrb	r3, [r3, #169]	@ zero_extendqisi2
 1834 0010 012B     		cmp	r3, #1
 1835 0012 02D1     		bne	.L100
 458:..\src/utils.c ****         // add 2nd power
 459:..\src/utils.c ****         NUM_OF_ANALOG_INPUTS = 6;   // Voltage_Sense_2
 1836              		.loc 1 459 0
 1837 0014 094B     		ldr	r3, .L102
 1838 0016 0622     		movs	r2, #6
 1839 0018 1A70     		strb	r2, [r3]
 1840              	.L100:
 460:..\src/utils.c ****                                     // Current_Sense_2
 461:..\src/utils.c ****     }
 462:..\src/utils.c ****     
 463:..\src/utils.c ****     if (c_mem.exp.read_ADC_sensors_port_flag == TRUE){
 1841              		.loc 1 463 0
 1842 001a 094B     		ldr	r3, .L102+4
 1843 001c 93F82732 		ldrb	r3, [r3, #551]	@ zero_extendqisi2
 1844 0020 012B     		cmp	r3, #1
 1845 0022 02D1     		bne	.L101
 464:..\src/utils.c ****         // add all emg channels
 465:..\src/utils.c ****         NUM_OF_ANALOG_INPUTS = 12;  // EMG_1
 1846              		.loc 1 465 0
 1847 0024 054B     		ldr	r3, .L102
 1848 0026 0C22     		movs	r2, #12
 1849 0028 1A70     		strb	r2, [r3]
 1850              	.L101:
 466:..\src/utils.c ****                                     // EMG_2
 467:..\src/utils.c ****                                     // EMG_3
 468:..\src/utils.c ****                                     // EMG_4
 469:..\src/utils.c ****                                     // EMG_5
 470:..\src/utils.c ****                                     // EMG_6
 471:..\src/utils.c ****     }
 472:..\src/utils.c **** #endif
 473:..\src/utils.c **** 
 474:..\src/utils.c ****     ADC_N_CHANNELS_USED_Write(NUM_OF_ANALOG_INPUTS - 1);
 1851              		.loc 1 474 0
 1852 002a 044B     		ldr	r3, .L102
 1853 002c 1B78     		ldrb	r3, [r3]	@ zero_extendqisi2
 1854 002e 013B     		subs	r3, r3, #1
 1855 0030 DBB2     		uxtb	r3, r3
 1856 0032 1846     		mov	r0, r3
ARM GAS  C:\Users\Mattia\AppData\Local\Temp\ccsjO7ze.s 			page 43


 1857 0034 FFF7FEFF 		bl	ADC_N_CHANNELS_USED_Write
 475:..\src/utils.c ****     
 476:..\src/utils.c **** }
 1858              		.loc 1 476 0
 1859 0038 00BF     		nop
 1860 003a 80BD     		pop	{r7, pc}
 1861              	.L103:
 1862              		.align	2
 1863              	.L102:
 1864 003c 00000000 		.word	NUM_OF_ANALOG_INPUTS
 1865 0040 00000000 		.word	c_mem
 1866              		.cfi_endproc
 1867              	.LFE73:
 1868              		.size	ADC_Set_N_Channels, .-ADC_Set_N_Channels
 1869              		.section	.text.enable_motor,"ax",%progbits
 1870              		.align	2
 1871              		.global	enable_motor
 1872              		.thumb
 1873              		.thumb_func
 1874              		.type	enable_motor, %function
 1875              	enable_motor:
 1876              	.LFB74:
 477:..\src/utils.c **** 
 478:..\src/utils.c **** //==============================================================================
 479:..\src/utils.c **** //                                                                  ENABLE MOTOR
 480:..\src/utils.c **** //==============================================================================
 481:..\src/utils.c **** void enable_motor(uint8 idx, uint8 val){
 1877              		.loc 1 481 0
 1878              		.cfi_startproc
 1879              		@ args = 0, pretend = 0, frame = 8
 1880              		@ frame_needed = 1, uses_anonymous_args = 0
 1881 0000 80B5     		push	{r7, lr}
 1882              		.cfi_def_cfa_offset 8
 1883              		.cfi_offset 7, -8
 1884              		.cfi_offset 14, -4
 1885 0002 82B0     		sub	sp, sp, #8
 1886              		.cfi_def_cfa_offset 16
 1887 0004 00AF     		add	r7, sp, #0
 1888              		.cfi_def_cfa_register 7
 1889 0006 0346     		mov	r3, r0
 1890 0008 0A46     		mov	r2, r1
 1891 000a FB71     		strb	r3, [r7, #7]
 1892 000c 1346     		mov	r3, r2
 1893 000e BB71     		strb	r3, [r7, #6]
 482:..\src/utils.c ****     // Enables motor idx, according to val value
 483:..\src/utils.c ****     if (idx == 0) {
 1894              		.loc 1 483 0
 1895 0010 FB79     		ldrb	r3, [r7, #7]	@ zero_extendqisi2
 1896 0012 002B     		cmp	r3, #0
 1897 0014 03D1     		bne	.L105
 484:..\src/utils.c ****         MOTOR_ON_OFF_1_Write(val);
 1898              		.loc 1 484 0
 1899 0016 BB79     		ldrb	r3, [r7, #6]	@ zero_extendqisi2
 1900 0018 1846     		mov	r0, r3
 1901 001a FFF7FEFF 		bl	MOTOR_ON_OFF_1_Write
 1902              	.L105:
 485:..\src/utils.c ****     }   
ARM GAS  C:\Users\Mattia\AppData\Local\Temp\ccsjO7ze.s 			page 44


 486:..\src/utils.c ****     if (idx == 1) {
 1903              		.loc 1 486 0
 1904 001e FB79     		ldrb	r3, [r7, #7]	@ zero_extendqisi2
 1905 0020 012B     		cmp	r3, #1
 1906 0022 03D1     		bne	.L107
 487:..\src/utils.c ****         MOTOR_ON_OFF_2_Write(val);
 1907              		.loc 1 487 0
 1908 0024 BB79     		ldrb	r3, [r7, #6]	@ zero_extendqisi2
 1909 0026 1846     		mov	r0, r3
 1910 0028 FFF7FEFF 		bl	MOTOR_ON_OFF_2_Write
 1911              	.L107:
 488:..\src/utils.c ****     }
 489:..\src/utils.c **** }
 1912              		.loc 1 489 0
 1913 002c 00BF     		nop
 1914 002e 0837     		adds	r7, r7, #8
 1915              		.cfi_def_cfa_offset 8
 1916 0030 BD46     		mov	sp, r7
 1917              		.cfi_def_cfa_register 13
 1918              		@ sp needed
 1919 0032 80BD     		pop	{r7, pc}
 1920              		.cfi_endproc
 1921              	.LFE74:
 1922              		.size	enable_motor, .-enable_motor
 1923              		.section	.text.reset_counters,"ax",%progbits
 1924              		.align	2
 1925              		.global	reset_counters
 1926              		.thumb
 1927              		.thumb_func
 1928              		.type	reset_counters, %function
 1929              	reset_counters:
 1930              	.LFB75:
 490:..\src/utils.c **** 
 491:..\src/utils.c **** 
 492:..\src/utils.c **** 
 493:..\src/utils.c **** //==============================================================================
 494:..\src/utils.c **** //                                                              RESET COUNTERS
 495:..\src/utils.c **** //==============================================================================
 496:..\src/utils.c **** void reset_counters() {
 1931              		.loc 1 496 0
 1932              		.cfi_startproc
 1933              		@ args = 0, pretend = 0, frame = 8
 1934              		@ frame_needed = 1, uses_anonymous_args = 0
 1935              		@ link register save eliminated.
 1936 0000 80B4     		push	{r7}
 1937              		.cfi_def_cfa_offset 4
 1938              		.cfi_offset 7, -4
 1939 0002 83B0     		sub	sp, sp, #12
 1940              		.cfi_def_cfa_offset 16
 1941 0004 00AF     		add	r7, sp, #0
 1942              		.cfi_def_cfa_register 7
 497:..\src/utils.c ****     uint8 i;
 498:..\src/utils.c ****     
 499:..\src/utils.c ****     // Initialize counters        
 500:..\src/utils.c ****     g_mem.cnt.emg_counter[0] = g_mem.cnt.emg_counter[1] = 0;
 1943              		.loc 1 500 0
 1944 0006 1B4B     		ldr	r3, .L113
ARM GAS  C:\Users\Mattia\AppData\Local\Temp\ccsjO7ze.s 			page 45


 1945 0008 0022     		movs	r2, #0
 1946 000a 5A61     		str	r2, [r3, #20]
 1947 000c 194B     		ldr	r3, .L113
 1948 000e 5B69     		ldr	r3, [r3, #20]
 1949 0010 184A     		ldr	r2, .L113
 1950 0012 1361     		str	r3, [r2, #16]
 501:..\src/utils.c ****     for(i = 0; i< 10; i++){
 1951              		.loc 1 501 0
 1952 0014 0023     		movs	r3, #0
 1953 0016 FB71     		strb	r3, [r7, #7]
 1954 0018 08E0     		b	.L109
 1955              	.L110:
 502:..\src/utils.c ****         g_mem.cnt.position_hist[i] = 0;
 1956              		.loc 1 502 0 discriminator 3
 1957 001a FB79     		ldrb	r3, [r7, #7]	@ zero_extendqisi2
 1958 001c 154A     		ldr	r2, .L113
 1959 001e 0633     		adds	r3, r3, #6
 1960 0020 0021     		movs	r1, #0
 1961 0022 42F82310 		str	r1, [r2, r3, lsl #2]
 501:..\src/utils.c ****     for(i = 0; i< 10; i++){
 1962              		.loc 1 501 0 discriminator 3
 1963 0026 FB79     		ldrb	r3, [r7, #7]	@ zero_extendqisi2
 1964 0028 0133     		adds	r3, r3, #1
 1965 002a FB71     		strb	r3, [r7, #7]
 1966              	.L109:
 501:..\src/utils.c ****     for(i = 0; i< 10; i++){
 1967              		.loc 1 501 0 is_stmt 0 discriminator 1
 1968 002c FB79     		ldrb	r3, [r7, #7]	@ zero_extendqisi2
 1969 002e 092B     		cmp	r3, #9
 1970 0030 F3D9     		bls	.L110
 503:..\src/utils.c ****     }
 504:..\src/utils.c ****     for(i = 0; i< 4; i++){
 1971              		.loc 1 504 0 is_stmt 1
 1972 0032 0023     		movs	r3, #0
 1973 0034 FB71     		strb	r3, [r7, #7]
 1974 0036 08E0     		b	.L111
 1975              	.L112:
 505:..\src/utils.c ****         g_mem.cnt.current_hist[i] = 0;
 1976              		.loc 1 505 0 discriminator 3
 1977 0038 FB79     		ldrb	r3, [r7, #7]	@ zero_extendqisi2
 1978 003a 0E4A     		ldr	r2, .L113
 1979 003c 1033     		adds	r3, r3, #16
 1980 003e 0021     		movs	r1, #0
 1981 0040 42F82310 		str	r1, [r2, r3, lsl #2]
 504:..\src/utils.c ****         g_mem.cnt.current_hist[i] = 0;
 1982              		.loc 1 504 0 discriminator 3
 1983 0044 FB79     		ldrb	r3, [r7, #7]	@ zero_extendqisi2
 1984 0046 0133     		adds	r3, r3, #1
 1985 0048 FB71     		strb	r3, [r7, #7]
 1986              	.L111:
 504:..\src/utils.c ****         g_mem.cnt.current_hist[i] = 0;
 1987              		.loc 1 504 0 is_stmt 0 discriminator 1
 1988 004a FB79     		ldrb	r3, [r7, #7]	@ zero_extendqisi2
 1989 004c 032B     		cmp	r3, #3
 1990 004e F3D9     		bls	.L112
 506:..\src/utils.c ****     }
 507:..\src/utils.c ****     g_mem.cnt.rest_counter = 0;
ARM GAS  C:\Users\Mattia\AppData\Local\Temp\ccsjO7ze.s 			page 46


 1991              		.loc 1 507 0 is_stmt 1
 1992 0050 084B     		ldr	r3, .L113
 1993 0052 0022     		movs	r2, #0
 1994 0054 1A65     		str	r2, [r3, #80]
 508:..\src/utils.c ****     g_mem.cnt.wire_disp = 0;
 1995              		.loc 1 508 0
 1996 0056 074B     		ldr	r3, .L113
 1997 0058 0022     		movs	r2, #0
 1998 005a 5A65     		str	r2, [r3, #84]
 509:..\src/utils.c ****     g_mem.cnt.total_time_on = 0;
 1999              		.loc 1 509 0
 2000 005c 054B     		ldr	r3, .L113
 2001 005e 0022     		movs	r2, #0
 2002 0060 9A65     		str	r2, [r3, #88]
 510:..\src/utils.c ****     g_mem.cnt.total_time_rest = 0; 
 2003              		.loc 1 510 0
 2004 0062 044B     		ldr	r3, .L113
 2005 0064 0022     		movs	r2, #0
 2006 0066 DA65     		str	r2, [r3, #92]
 511:..\src/utils.c **** }
 2007              		.loc 1 511 0
 2008 0068 00BF     		nop
 2009 006a 0C37     		adds	r7, r7, #12
 2010              		.cfi_def_cfa_offset 4
 2011 006c BD46     		mov	sp, r7
 2012              		.cfi_def_cfa_register 13
 2013              		@ sp needed
 2014 006e 80BC     		pop	{r7}
 2015              		.cfi_restore 7
 2016              		.cfi_def_cfa_offset 0
 2017 0070 7047     		bx	lr
 2018              	.L114:
 2019 0072 00BF     		.align	2
 2020              	.L113:
 2021 0074 00000000 		.word	g_mem
 2022              		.cfi_endproc
 2023              	.LFE75:
 2024              		.size	reset_counters, .-reset_counters
 2025              		.global	__aeabi_fsub
 2026              		.section	.text.invSqrt,"ax",%progbits
 2027              		.align	2
 2028              		.global	invSqrt
 2029              		.thumb
 2030              		.thumb_func
 2031              		.type	invSqrt, %function
 2032              	invSqrt:
 2033              	.LFB76:
 512:..\src/utils.c **** 
 513:..\src/utils.c **** 
 514:..\src/utils.c **** //==============================================================================
 515:..\src/utils.c **** //                                                                       INVSQRT
 516:..\src/utils.c **** //==============================================================================
 517:..\src/utils.c **** float invSqrt(float x) {
 2034              		.loc 1 517 0
 2035              		.cfi_startproc
 2036              		@ args = 0, pretend = 0, frame = 24
 2037              		@ frame_needed = 1, uses_anonymous_args = 0
ARM GAS  C:\Users\Mattia\AppData\Local\Temp\ccsjO7ze.s 			page 47


 2038 0000 80B5     		push	{r7, lr}
 2039              		.cfi_def_cfa_offset 8
 2040              		.cfi_offset 7, -8
 2041              		.cfi_offset 14, -4
 2042 0002 86B0     		sub	sp, sp, #24
 2043              		.cfi_def_cfa_offset 32
 2044 0004 00AF     		add	r7, sp, #0
 2045              		.cfi_def_cfa_register 7
 2046 0006 7860     		str	r0, [r7, #4]	@ float
 518:..\src/utils.c **** 	float halfx = 0.5f * x;
 2047              		.loc 1 518 0
 2048 0008 4FF07C51 		mov	r1, #1056964608
 2049 000c 7868     		ldr	r0, [r7, #4]	@ float
 2050 000e FFF7FEFF 		bl	__aeabi_fmul
 2051 0012 0346     		mov	r3, r0
 2052 0014 7B61     		str	r3, [r7, #20]	@ float
 519:..\src/utils.c **** 	float y = x;
 2053              		.loc 1 519 0
 2054 0016 7B68     		ldr	r3, [r7, #4]	@ float
 2055 0018 3B61     		str	r3, [r7, #16]	@ float
 520:..\src/utils.c **** 	long i = *(long*)&y;
 2056              		.loc 1 520 0
 2057 001a 07F11003 		add	r3, r7, #16
 2058 001e 1B68     		ldr	r3, [r3]
 2059 0020 FB60     		str	r3, [r7, #12]
 521:..\src/utils.c **** 	i = 0x5f3759df - (i>>1);
 2060              		.loc 1 521 0
 2061 0022 FB68     		ldr	r3, [r7, #12]
 2062 0024 5A10     		asrs	r2, r3, #1
 2063 0026 134B     		ldr	r3, .L117
 2064 0028 9B1A     		subs	r3, r3, r2
 2065 002a FB60     		str	r3, [r7, #12]
 522:..\src/utils.c **** 	y = *(float*)&i;
 2066              		.loc 1 522 0
 2067 002c 07F10C03 		add	r3, r7, #12
 2068 0030 1B68     		ldr	r3, [r3]	@ float
 2069 0032 3B61     		str	r3, [r7, #16]	@ float
 523:..\src/utils.c **** 	y = y * (1.5f - (halfx * y * y));
 2070              		.loc 1 523 0
 2071 0034 3B69     		ldr	r3, [r7, #16]	@ float
 2072 0036 7969     		ldr	r1, [r7, #20]	@ float
 2073 0038 1846     		mov	r0, r3
 2074 003a FFF7FEFF 		bl	__aeabi_fmul
 2075 003e 0346     		mov	r3, r0
 2076 0040 1A46     		mov	r2, r3
 2077 0042 3B69     		ldr	r3, [r7, #16]	@ float
 2078 0044 1946     		mov	r1, r3
 2079 0046 1046     		mov	r0, r2
 2080 0048 FFF7FEFF 		bl	__aeabi_fmul
 2081 004c 0346     		mov	r3, r0
 2082 004e 1946     		mov	r1, r3
 2083 0050 4FF07F50 		mov	r0, #1069547520
 2084 0054 FFF7FEFF 		bl	__aeabi_fsub
 2085 0058 0346     		mov	r3, r0
 2086 005a 1A46     		mov	r2, r3
 2087 005c 3B69     		ldr	r3, [r7, #16]	@ float
 2088 005e 1946     		mov	r1, r3
ARM GAS  C:\Users\Mattia\AppData\Local\Temp\ccsjO7ze.s 			page 48


 2089 0060 1046     		mov	r0, r2
 2090 0062 FFF7FEFF 		bl	__aeabi_fmul
 2091 0066 0346     		mov	r3, r0
 2092 0068 3B61     		str	r3, [r7, #16]	@ float
 524:..\src/utils.c **** 	return y;
 2093              		.loc 1 524 0
 2094 006a 3B69     		ldr	r3, [r7, #16]	@ float
 525:..\src/utils.c **** }
 2095              		.loc 1 525 0
 2096 006c 1846     		mov	r0, r3
 2097 006e 1837     		adds	r7, r7, #24
 2098              		.cfi_def_cfa_offset 8
 2099 0070 BD46     		mov	sp, r7
 2100              		.cfi_def_cfa_register 13
 2101              		@ sp needed
 2102 0072 80BD     		pop	{r7, pc}
 2103              	.L118:
 2104              		.align	2
 2105              	.L117:
 2106 0074 DF59375F 		.word	1597463007
 2107              		.cfi_endproc
 2108              	.LFE76:
 2109              		.size	invSqrt, .-invSqrt
 2110              		.section	.text.v3_normalize,"ax",%progbits
 2111              		.align	2
 2112              		.global	v3_normalize
 2113              		.thumb
 2114              		.thumb_func
 2115              		.type	v3_normalize, %function
 2116              	v3_normalize:
 2117              	.LFB77:
 526:..\src/utils.c **** 
 527:..\src/utils.c **** //==============================================================================
 528:..\src/utils.c **** //                                                                  V3_NORMALIZE
 529:..\src/utils.c **** //==============================================================================
 530:..\src/utils.c **** void v3_normalize(float v3_in[3]){
 2118              		.loc 1 530 0
 2119              		.cfi_startproc
 2120              		@ args = 0, pretend = 0, frame = 16
 2121              		@ frame_needed = 1, uses_anonymous_args = 0
 2122 0000 90B5     		push	{r4, r7, lr}
 2123              		.cfi_def_cfa_offset 12
 2124              		.cfi_offset 4, -12
 2125              		.cfi_offset 7, -8
 2126              		.cfi_offset 14, -4
 2127 0002 85B0     		sub	sp, sp, #20
 2128              		.cfi_def_cfa_offset 32
 2129 0004 00AF     		add	r7, sp, #0
 2130              		.cfi_def_cfa_register 7
 2131 0006 7860     		str	r0, [r7, #4]
 531:..\src/utils.c ****     // Vector 3 normalization
 532:..\src/utils.c ****     float norm = invSqrt(v3_in[0] * v3_in[0] + v3_in[1] * v3_in[1] + v3_in[2] * v3_in[2]);
 2132              		.loc 1 532 0
 2133 0008 7B68     		ldr	r3, [r7, #4]
 2134 000a 1A68     		ldr	r2, [r3]	@ float
 2135 000c 7B68     		ldr	r3, [r7, #4]
 2136 000e 1B68     		ldr	r3, [r3]	@ float
ARM GAS  C:\Users\Mattia\AppData\Local\Temp\ccsjO7ze.s 			page 49


 2137 0010 1946     		mov	r1, r3
 2138 0012 1046     		mov	r0, r2
 2139 0014 FFF7FEFF 		bl	__aeabi_fmul
 2140 0018 0346     		mov	r3, r0
 2141 001a 1C46     		mov	r4, r3
 2142 001c 7B68     		ldr	r3, [r7, #4]
 2143 001e 0433     		adds	r3, r3, #4
 2144 0020 1A68     		ldr	r2, [r3]	@ float
 2145 0022 7B68     		ldr	r3, [r7, #4]
 2146 0024 0433     		adds	r3, r3, #4
 2147 0026 1B68     		ldr	r3, [r3]	@ float
 2148 0028 1946     		mov	r1, r3
 2149 002a 1046     		mov	r0, r2
 2150 002c FFF7FEFF 		bl	__aeabi_fmul
 2151 0030 0346     		mov	r3, r0
 2152 0032 1946     		mov	r1, r3
 2153 0034 2046     		mov	r0, r4
 2154 0036 FFF7FEFF 		bl	__aeabi_fadd
 2155 003a 0346     		mov	r3, r0
 2156 003c 1C46     		mov	r4, r3
 2157 003e 7B68     		ldr	r3, [r7, #4]
 2158 0040 0833     		adds	r3, r3, #8
 2159 0042 1A68     		ldr	r2, [r3]	@ float
 2160 0044 7B68     		ldr	r3, [r7, #4]
 2161 0046 0833     		adds	r3, r3, #8
 2162 0048 1B68     		ldr	r3, [r3]	@ float
 2163 004a 1946     		mov	r1, r3
 2164 004c 1046     		mov	r0, r2
 2165 004e FFF7FEFF 		bl	__aeabi_fmul
 2166 0052 0346     		mov	r3, r0
 2167 0054 1946     		mov	r1, r3
 2168 0056 2046     		mov	r0, r4
 2169 0058 FFF7FEFF 		bl	__aeabi_fadd
 2170 005c 0346     		mov	r3, r0
 2171 005e 1846     		mov	r0, r3
 2172 0060 FFF7FEFF 		bl	invSqrt
 2173 0064 F860     		str	r0, [r7, #12]	@ float
 533:..\src/utils.c ****     
 534:..\src/utils.c ****     v3_in[0] = v3_in[0]*norm;
 2174              		.loc 1 534 0
 2175 0066 7B68     		ldr	r3, [r7, #4]
 2176 0068 1B68     		ldr	r3, [r3]	@ float
 2177 006a F968     		ldr	r1, [r7, #12]	@ float
 2178 006c 1846     		mov	r0, r3
 2179 006e FFF7FEFF 		bl	__aeabi_fmul
 2180 0072 0346     		mov	r3, r0
 2181 0074 1A46     		mov	r2, r3
 2182 0076 7B68     		ldr	r3, [r7, #4]
 2183 0078 1A60     		str	r2, [r3]	@ float
 535:..\src/utils.c ****     v3_in[1] = v3_in[1]*norm;
 2184              		.loc 1 535 0
 2185 007a 7B68     		ldr	r3, [r7, #4]
 2186 007c 1C1D     		adds	r4, r3, #4
 2187 007e 7B68     		ldr	r3, [r7, #4]
 2188 0080 0433     		adds	r3, r3, #4
 2189 0082 1B68     		ldr	r3, [r3]	@ float
 2190 0084 F968     		ldr	r1, [r7, #12]	@ float
ARM GAS  C:\Users\Mattia\AppData\Local\Temp\ccsjO7ze.s 			page 50


 2191 0086 1846     		mov	r0, r3
 2192 0088 FFF7FEFF 		bl	__aeabi_fmul
 2193 008c 0346     		mov	r3, r0
 2194 008e 2360     		str	r3, [r4]	@ float
 536:..\src/utils.c ****     v3_in[2] = v3_in[2]*norm;
 2195              		.loc 1 536 0
 2196 0090 7B68     		ldr	r3, [r7, #4]
 2197 0092 03F10804 		add	r4, r3, #8
 2198 0096 7B68     		ldr	r3, [r7, #4]
 2199 0098 0833     		adds	r3, r3, #8
 2200 009a 1B68     		ldr	r3, [r3]	@ float
 2201 009c F968     		ldr	r1, [r7, #12]	@ float
 2202 009e 1846     		mov	r0, r3
 2203 00a0 FFF7FEFF 		bl	__aeabi_fmul
 2204 00a4 0346     		mov	r3, r0
 2205 00a6 2360     		str	r3, [r4]	@ float
 537:..\src/utils.c **** }
 2206              		.loc 1 537 0
 2207 00a8 00BF     		nop
 2208 00aa 1437     		adds	r7, r7, #20
 2209              		.cfi_def_cfa_offset 12
 2210 00ac BD46     		mov	sp, r7
 2211              		.cfi_def_cfa_register 13
 2212              		@ sp needed
 2213 00ae 90BD     		pop	{r4, r7, pc}
 2214              		.cfi_endproc
 2215              	.LFE77:
 2216              		.size	v3_normalize, .-v3_normalize
 2217              		.section	.text.v4_normalize,"ax",%progbits
 2218              		.align	2
 2219              		.global	v4_normalize
 2220              		.thumb
 2221              		.thumb_func
 2222              		.type	v4_normalize, %function
 2223              	v4_normalize:
 2224              	.LFB78:
 538:..\src/utils.c ****  
 539:..\src/utils.c **** //==============================================================================
 540:..\src/utils.c **** //                                                                  V4_NORMALIZE
 541:..\src/utils.c **** //==============================================================================
 542:..\src/utils.c **** void v4_normalize(float v4_in[4]){
 2225              		.loc 1 542 0
 2226              		.cfi_startproc
 2227              		@ args = 0, pretend = 0, frame = 16
 2228              		@ frame_needed = 1, uses_anonymous_args = 0
 2229 0000 90B5     		push	{r4, r7, lr}
 2230              		.cfi_def_cfa_offset 12
 2231              		.cfi_offset 4, -12
 2232              		.cfi_offset 7, -8
 2233              		.cfi_offset 14, -4
 2234 0002 85B0     		sub	sp, sp, #20
 2235              		.cfi_def_cfa_offset 32
 2236 0004 00AF     		add	r7, sp, #0
 2237              		.cfi_def_cfa_register 7
 2238 0006 7860     		str	r0, [r7, #4]
 543:..\src/utils.c ****     // Vector 4 normalization
 544:..\src/utils.c ****     float norm = invSqrt(v4_in[0] * v4_in[0] + v4_in[1] * v4_in[1] + v4_in[2] * v4_in[2] + v4_in[3]
ARM GAS  C:\Users\Mattia\AppData\Local\Temp\ccsjO7ze.s 			page 51


 2239              		.loc 1 544 0
 2240 0008 7B68     		ldr	r3, [r7, #4]
 2241 000a 1A68     		ldr	r2, [r3]	@ float
 2242 000c 7B68     		ldr	r3, [r7, #4]
 2243 000e 1B68     		ldr	r3, [r3]	@ float
 2244 0010 1946     		mov	r1, r3
 2245 0012 1046     		mov	r0, r2
 2246 0014 FFF7FEFF 		bl	__aeabi_fmul
 2247 0018 0346     		mov	r3, r0
 2248 001a 1C46     		mov	r4, r3
 2249 001c 7B68     		ldr	r3, [r7, #4]
 2250 001e 0433     		adds	r3, r3, #4
 2251 0020 1A68     		ldr	r2, [r3]	@ float
 2252 0022 7B68     		ldr	r3, [r7, #4]
 2253 0024 0433     		adds	r3, r3, #4
 2254 0026 1B68     		ldr	r3, [r3]	@ float
 2255 0028 1946     		mov	r1, r3
 2256 002a 1046     		mov	r0, r2
 2257 002c FFF7FEFF 		bl	__aeabi_fmul
 2258 0030 0346     		mov	r3, r0
 2259 0032 1946     		mov	r1, r3
 2260 0034 2046     		mov	r0, r4
 2261 0036 FFF7FEFF 		bl	__aeabi_fadd
 2262 003a 0346     		mov	r3, r0
 2263 003c 1C46     		mov	r4, r3
 2264 003e 7B68     		ldr	r3, [r7, #4]
 2265 0040 0833     		adds	r3, r3, #8
 2266 0042 1A68     		ldr	r2, [r3]	@ float
 2267 0044 7B68     		ldr	r3, [r7, #4]
 2268 0046 0833     		adds	r3, r3, #8
 2269 0048 1B68     		ldr	r3, [r3]	@ float
 2270 004a 1946     		mov	r1, r3
 2271 004c 1046     		mov	r0, r2
 2272 004e FFF7FEFF 		bl	__aeabi_fmul
 2273 0052 0346     		mov	r3, r0
 2274 0054 1946     		mov	r1, r3
 2275 0056 2046     		mov	r0, r4
 2276 0058 FFF7FEFF 		bl	__aeabi_fadd
 2277 005c 0346     		mov	r3, r0
 2278 005e 1C46     		mov	r4, r3
 2279 0060 7B68     		ldr	r3, [r7, #4]
 2280 0062 0C33     		adds	r3, r3, #12
 2281 0064 1A68     		ldr	r2, [r3]	@ float
 2282 0066 7B68     		ldr	r3, [r7, #4]
 2283 0068 0C33     		adds	r3, r3, #12
 2284 006a 1B68     		ldr	r3, [r3]	@ float
 2285 006c 1946     		mov	r1, r3
 2286 006e 1046     		mov	r0, r2
 2287 0070 FFF7FEFF 		bl	__aeabi_fmul
 2288 0074 0346     		mov	r3, r0
 2289 0076 1946     		mov	r1, r3
 2290 0078 2046     		mov	r0, r4
 2291 007a FFF7FEFF 		bl	__aeabi_fadd
 2292 007e 0346     		mov	r3, r0
 2293 0080 1846     		mov	r0, r3
 2294 0082 FFF7FEFF 		bl	invSqrt
 2295 0086 F860     		str	r0, [r7, #12]	@ float
ARM GAS  C:\Users\Mattia\AppData\Local\Temp\ccsjO7ze.s 			page 52


 545:..\src/utils.c ****     
 546:..\src/utils.c ****     v4_in[0] = v4_in[0]*norm;
 2296              		.loc 1 546 0
 2297 0088 7B68     		ldr	r3, [r7, #4]
 2298 008a 1B68     		ldr	r3, [r3]	@ float
 2299 008c F968     		ldr	r1, [r7, #12]	@ float
 2300 008e 1846     		mov	r0, r3
 2301 0090 FFF7FEFF 		bl	__aeabi_fmul
 2302 0094 0346     		mov	r3, r0
 2303 0096 1A46     		mov	r2, r3
 2304 0098 7B68     		ldr	r3, [r7, #4]
 2305 009a 1A60     		str	r2, [r3]	@ float
 547:..\src/utils.c ****     v4_in[1] = v4_in[1]*norm;
 2306              		.loc 1 547 0
 2307 009c 7B68     		ldr	r3, [r7, #4]
 2308 009e 1C1D     		adds	r4, r3, #4
 2309 00a0 7B68     		ldr	r3, [r7, #4]
 2310 00a2 0433     		adds	r3, r3, #4
 2311 00a4 1B68     		ldr	r3, [r3]	@ float
 2312 00a6 F968     		ldr	r1, [r7, #12]	@ float
 2313 00a8 1846     		mov	r0, r3
 2314 00aa FFF7FEFF 		bl	__aeabi_fmul
 2315 00ae 0346     		mov	r3, r0
 2316 00b0 2360     		str	r3, [r4]	@ float
 548:..\src/utils.c ****     v4_in[2] = v4_in[2]*norm;
 2317              		.loc 1 548 0
 2318 00b2 7B68     		ldr	r3, [r7, #4]
 2319 00b4 03F10804 		add	r4, r3, #8
 2320 00b8 7B68     		ldr	r3, [r7, #4]
 2321 00ba 0833     		adds	r3, r3, #8
 2322 00bc 1B68     		ldr	r3, [r3]	@ float
 2323 00be F968     		ldr	r1, [r7, #12]	@ float
 2324 00c0 1846     		mov	r0, r3
 2325 00c2 FFF7FEFF 		bl	__aeabi_fmul
 2326 00c6 0346     		mov	r3, r0
 2327 00c8 2360     		str	r3, [r4]	@ float
 549:..\src/utils.c ****     v4_in[3] = v4_in[3]*norm;
 2328              		.loc 1 549 0
 2329 00ca 7B68     		ldr	r3, [r7, #4]
 2330 00cc 03F10C04 		add	r4, r3, #12
 2331 00d0 7B68     		ldr	r3, [r7, #4]
 2332 00d2 0C33     		adds	r3, r3, #12
 2333 00d4 1B68     		ldr	r3, [r3]	@ float
 2334 00d6 F968     		ldr	r1, [r7, #12]	@ float
 2335 00d8 1846     		mov	r0, r3
 2336 00da FFF7FEFF 		bl	__aeabi_fmul
 2337 00de 0346     		mov	r3, r0
 2338 00e0 2360     		str	r3, [r4]	@ float
 550:..\src/utils.c **** }
 2339              		.loc 1 550 0
 2340 00e2 00BF     		nop
 2341 00e4 1437     		adds	r7, r7, #20
 2342              		.cfi_def_cfa_offset 12
 2343 00e6 BD46     		mov	sp, r7
 2344              		.cfi_def_cfa_register 13
 2345              		@ sp needed
 2346 00e8 90BD     		pop	{r4, r7, pc}
ARM GAS  C:\Users\Mattia\AppData\Local\Temp\ccsjO7ze.s 			page 53


 2347              		.cfi_endproc
 2348              	.LFE78:
 2349              		.size	v4_normalize, .-v4_normalize
 2350 00ea 00BF     		.bss
 2351              		.align	2
 2352              	virtual_pos_friction.10181:
 2353 0000 00000000 		.space	8
 2353      00000000 
 2354              		.align	2
 2355              	err_pos_dt.10182:
 2356 0008 00000000 		.space	8
 2356      00000000 
 2357              	direction.10196:
 2358 0010 00       		.space	1
 2359 0011 00       		.align	1
 2360              	closure_counter.10197:
 2361 0012 0000     		.space	2
 2362              		.data
 2363              		.type	first_time.10224, %object
 2364              		.size	first_time.10224, 1
 2365              	first_time.10224:
 2366 0000 01       		.byte	1
 2367              		.bss
 2368              		.align	2
 2369              	count.10222:
 2370 0014 00000000 		.space	4
 2371              		.data
 2372              		.type	flag_count.10223, %object
 2373              		.size	flag_count.10223, 1
 2374              	flag_count.10223:
 2375 0001 01       		.byte	1
 2376              		.bss
 2377              		.align	2
 2378              	m.10225:
 2379 0018 00000000 		.space	4
 2380              		.align	2
 2381              	abs_err_thr.10226:
 2382 001c 00000000 		.space	4
 2383              		.align	2
 2384              	rest_error.10229:
 2385 0020 00000000 		.space	4
 2386              		.align	2
 2387              	delta_inc.10227:
 2388 0024 00000000 		.space	4
 2389              		.align	2
 2390              	v_count_lb.10244:
 2391 0028 00000000 		.space	4
 2392              		.text
 2393              	.Letext0:
 2394              		.file 2 "c:\\program files (x86)\\cypress\\psoc creator\\4.2\\psoc creator\\import\\gnu\\arm\\5.4.
 2395              		.file 3 "c:\\program files (x86)\\cypress\\psoc creator\\4.2\\psoc creator\\import\\gnu\\arm\\5.4.
 2396              		.file 4 "Generated_Source\\PSoC5/cytypes.h"
 2397              		.file 5 "..\\src\\globals.h"
 2398              		.file 6 "Generated_Source\\PSoC5/core_cm3.h"
 2399              		.file 7 "..\\src\\commands.h"