ARM GAS  C:\Users\Mattia\AppData\Local\Temp\ccUc3JYZ.s 			page 1


   1              		.syntax unified
   2              		.cpu cortex-m3
   3              		.fpu softvfp
   4              		.eabi_attribute 20, 1
   5              		.eabi_attribute 21, 1
   6              		.eabi_attribute 23, 3
   7              		.eabi_attribute 24, 1
   8              		.eabi_attribute 25, 1
   9              		.eabi_attribute 26, 1
  10              		.eabi_attribute 30, 6
  11              		.eabi_attribute 34, 1
  12              		.eabi_attribute 18, 4
  13              		.thumb
  14              		.syntax unified
  15              		.file	"utils.c"
  16              		.text
  17              	.Ltext0:
  18              		.cfi_sections	.debug_frame
  19              		.global	__aeabi_i2f
  20              		.global	__aeabi_fmul
  21              		.global	__aeabi_fadd
  22              		.global	__aeabi_fdiv
  23              		.global	__aeabi_f2iz
  24              		.section	.text.curr_estim,"ax",%progbits
  25              		.align	2
  26              		.global	curr_estim
  27              		.thumb
  28              		.thumb_func
  29              		.type	curr_estim, %function
  30              	curr_estim:
  31              	.LFB64:
  32              		.file 1 "..\\src\\utils.c"
   1:..\src/utils.c **** // ----------------------------------------------------------------------------
   2:..\src/utils.c **** // BSD 3-Clause License
   3:..\src/utils.c **** 
   4:..\src/utils.c **** // Copyright (c) 2016, qbrobotics
   5:..\src/utils.c **** // Copyright (c) 2017-2020, Centro "E.Piaggio"
   6:..\src/utils.c **** // All rights reserved.
   7:..\src/utils.c **** 
   8:..\src/utils.c **** // Redistribution and use in source and binary forms, with or without
   9:..\src/utils.c **** // modification, are permitted provided that the following conditions are met:
  10:..\src/utils.c **** 
  11:..\src/utils.c **** // * Redistributions of source code must retain the above copyright notice, this
  12:..\src/utils.c **** //   list of conditions and the following disclaimer.
  13:..\src/utils.c **** 
  14:..\src/utils.c **** // * Redistributions in binary form must reproduce the above copyright notice,
  15:..\src/utils.c **** //   this list of conditions and the following disclaimer in the documentation
  16:..\src/utils.c **** //   and/or other materials provided with the distribution.
  17:..\src/utils.c **** 
  18:..\src/utils.c **** // * Neither the name of the copyright holder nor the names of its
  19:..\src/utils.c **** //   contributors may be used to endorse or promote products derived from
  20:..\src/utils.c **** //   this software without specific prior written permission.
  21:..\src/utils.c **** 
  22:..\src/utils.c **** // THIS SOFTWARE IS PROVIDED BY THE COPYRIGHT HOLDERS AND CONTRIBUTORS "AS IS"
  23:..\src/utils.c **** // AND ANY EXPRESS OR IMPLIED WARRANTIES, INCLUDING, BUT NOT LIMITED TO, THE
  24:..\src/utils.c **** // IMPLIED WARRANTIES OF MERCHANTABILITY AND FITNESS FOR A PARTICULAR PURPOSE ARE
  25:..\src/utils.c **** // DISCLAIMED. IN NO EVENT SHALL THE COPYRIGHT HOLDER OR CONTRIBUTORS BE LIABLE
ARM GAS  C:\Users\Mattia\AppData\Local\Temp\ccUc3JYZ.s 			page 2


  26:..\src/utils.c **** // FOR ANY DIRECT, INDIRECT, INCIDENTAL, SPECIAL, EXEMPLARY, OR CONSEQUENTIAL
  27:..\src/utils.c **** // DAMAGES (INCLUDING, BUT NOT LIMITED TO, PROCUREMENT OF SUBSTITUTE GOODS OR
  28:..\src/utils.c **** // SERVICES; LOSS OF USE, DATA, OR PROFITS; OR BUSINESS INTERRUPTION) HOWEVER
  29:..\src/utils.c **** // CAUSED AND ON ANY THEORY OF LIABILITY, WHETHER IN CONTRACT, STRICT LIABILITY,
  30:..\src/utils.c **** // OR TORT (INCLUDING NEGLIGENCE OR OTHERWISE) ARISING IN ANY WAY OUT OF THE USE
  31:..\src/utils.c **** // OF THIS SOFTWARE, EVEN IF ADVISED OF THE POSSIBILITY OF SUCH DAMAGE.
  32:..\src/utils.c **** // POSSIBILITY OF SUCH DAMAGE.
  33:..\src/utils.c **** // ----------------------------------------------------------------------------
  34:..\src/utils.c **** 
  35:..\src/utils.c **** /**
  36:..\src/utils.c **** * \file         utils.c
  37:..\src/utils.c **** *
  38:..\src/utils.c **** * \brief        Definition of utility functions.
  39:..\src/utils.c **** * \date         March 20th, 2020
  40:..\src/utils.c **** * \author       _Centro "E.Piaggio"_
  41:..\src/utils.c **** * \copyright    (C) 2012-2016 qbrobotics. All rights reserved.
  42:..\src/utils.c **** * \copyright    (C) 2017-2020 Centro "E.Piaggio". All rights reserved.
  43:..\src/utils.c **** */
  44:..\src/utils.c **** 
  45:..\src/utils.c **** #include "utils.h"
  46:..\src/utils.c **** 
  47:..\src/utils.c **** //==============================================================================
  48:..\src/utils.c **** //                                                            Current Estimation
  49:..\src/utils.c **** //==============================================================================
  50:..\src/utils.c **** 
  51:..\src/utils.c **** int32 curr_estim ( uint8 idx, int32 pos, int32 vel, int32 ref ) {
  33              		.loc 1 51 0
  34              		.cfi_startproc
  35              		@ args = 0, pretend = 0, frame = 24
  36              		@ frame_needed = 1, uses_anonymous_args = 0
  37 0000 B0B5     		push	{r4, r5, r7, lr}
  38              		.cfi_def_cfa_offset 16
  39              		.cfi_offset 4, -16
  40              		.cfi_offset 5, -12
  41              		.cfi_offset 7, -8
  42              		.cfi_offset 14, -4
  43 0002 86B0     		sub	sp, sp, #24
  44              		.cfi_def_cfa_offset 40
  45 0004 00AF     		add	r7, sp, #0
  46              		.cfi_def_cfa_register 7
  47 0006 B960     		str	r1, [r7, #8]
  48 0008 7A60     		str	r2, [r7, #4]
  49 000a 3B60     		str	r3, [r7]
  50 000c 0346     		mov	r3, r0
  51 000e FB73     		strb	r3, [r7, #15]
  52:..\src/utils.c **** 
  53:..\src/utils.c ****         static int32 virtual_pos_friction[NUM_OF_MOTORS]; 	// Virtual position used to estimate fri
  54:..\src/utils.c ****         static int32 err_pos_dt[NUM_OF_MOTORS];			    // Temporal evolution of error position.
  55:..\src/utils.c **** 											// Needed to model the current transients due to reference steps.
  56:..\src/utils.c ****         int32 curr_estimate;
  57:..\src/utils.c **** 
  58:..\src/utils.c ****         if (pos < ZERO_TOL) 
  52              		.loc 1 58 0
  53 0010 BB68     		ldr	r3, [r7, #8]
  54 0012 632B     		cmp	r3, #99
  55 0014 05DC     		bgt	.L2
  59:..\src/utils.c **** 			virtual_pos_friction[idx] = pos;
ARM GAS  C:\Users\Mattia\AppData\Local\Temp\ccUc3JYZ.s 			page 3


  56              		.loc 1 59 0
  57 0016 FB7B     		ldrb	r3, [r7, #15]	@ zero_extendqisi2
  58 0018 9049     		ldr	r1, .L9
  59 001a BA68     		ldr	r2, [r7, #8]
  60 001c 41F82320 		str	r2, [r1, r3, lsl #2]
  61 0020 1DE0     		b	.L3
  62              	.L2:
  60:..\src/utils.c ****         else {
  61:..\src/utils.c **** 			if ((pos - virtual_pos_friction[idx]) > ZMAX) 
  63              		.loc 1 61 0
  64 0022 FB7B     		ldrb	r3, [r7, #15]	@ zero_extendqisi2
  65 0024 8D4A     		ldr	r2, .L9
  66 0026 52F82330 		ldr	r3, [r2, r3, lsl #2]
  67 002a BA68     		ldr	r2, [r7, #8]
  68 002c D31A     		subs	r3, r2, r3
  69 002e 052B     		cmp	r3, #5
  70 0030 06DD     		ble	.L4
  62:..\src/utils.c **** 				virtual_pos_friction[idx] =  pos - ZMAX;
  71              		.loc 1 62 0
  72 0032 FB7B     		ldrb	r3, [r7, #15]	@ zero_extendqisi2
  73 0034 BA68     		ldr	r2, [r7, #8]
  74 0036 053A     		subs	r2, r2, #5
  75 0038 8849     		ldr	r1, .L9
  76 003a 41F82320 		str	r2, [r1, r3, lsl #2]
  77 003e 0EE0     		b	.L3
  78              	.L4:
  63:..\src/utils.c ****         	else { 
  64:..\src/utils.c **** 				if ((pos - virtual_pos_friction[idx]) < -ZMAX) 
  79              		.loc 1 64 0
  80 0040 FB7B     		ldrb	r3, [r7, #15]	@ zero_extendqisi2
  81 0042 864A     		ldr	r2, .L9
  82 0044 52F82330 		ldr	r3, [r2, r3, lsl #2]
  83 0048 BA68     		ldr	r2, [r7, #8]
  84 004a D31A     		subs	r3, r2, r3
  85 004c 13F1050F 		cmn	r3, #5
  86 0050 05DA     		bge	.L3
  65:..\src/utils.c **** 					virtual_pos_friction[idx] =  pos + ZMAX;
  87              		.loc 1 65 0
  88 0052 FB7B     		ldrb	r3, [r7, #15]	@ zero_extendqisi2
  89 0054 BA68     		ldr	r2, [r7, #8]
  90 0056 0532     		adds	r2, r2, #5
  91 0058 8049     		ldr	r1, .L9
  92 005a 41F82320 		str	r2, [r1, r3, lsl #2]
  93              	.L3:
  66:..\src/utils.c **** 			}
  67:..\src/utils.c **** 		}        
  68:..\src/utils.c ****        
  69:..\src/utils.c ****         curr_estimate = pos * g_mem.motor[idx].curr_lookup[0] * (1 + pos * g_mem.motor[idx].curr_lo
  94              		.loc 1 69 0
  95 005e B868     		ldr	r0, [r7, #8]
  96 0060 FFF7FEFF 		bl	__aeabi_i2f
  97 0064 FA7B     		ldrb	r2, [r7, #15]	@ zero_extendqisi2
  98 0066 7E49     		ldr	r1, .L9+4
  99 0068 1346     		mov	r3, r2
 100 006a DB00     		lsls	r3, r3, #3
 101 006c 9B1A     		subs	r3, r3, r2
 102 006e 1B01     		lsls	r3, r3, #4
ARM GAS  C:\Users\Mattia\AppData\Local\Temp\ccUc3JYZ.s 			page 4


 103 0070 0B44     		add	r3, r3, r1
 104 0072 F433     		adds	r3, r3, #244
 105 0074 1B68     		ldr	r3, [r3]	@ float
 106 0076 1946     		mov	r1, r3
 107 0078 FFF7FEFF 		bl	__aeabi_fmul
 108 007c 0346     		mov	r3, r0
 109 007e 1C46     		mov	r4, r3
 110 0080 B868     		ldr	r0, [r7, #8]
 111 0082 FFF7FEFF 		bl	__aeabi_i2f
 112 0086 FA7B     		ldrb	r2, [r7, #15]	@ zero_extendqisi2
 113 0088 7549     		ldr	r1, .L9+4
 114 008a 1346     		mov	r3, r2
 115 008c DB00     		lsls	r3, r3, #3
 116 008e 9B1A     		subs	r3, r3, r2
 117 0090 1B01     		lsls	r3, r3, #4
 118 0092 0B44     		add	r3, r3, r1
 119 0094 F833     		adds	r3, r3, #248
 120 0096 1B68     		ldr	r3, [r3]	@ float
 121 0098 1946     		mov	r1, r3
 122 009a FFF7FEFF 		bl	__aeabi_fmul
 123 009e 0346     		mov	r3, r0
 124 00a0 4FF07E51 		mov	r1, #1065353216
 125 00a4 1846     		mov	r0, r3
 126 00a6 FFF7FEFF 		bl	__aeabi_fadd
 127 00aa 0346     		mov	r3, r0
 128 00ac 1946     		mov	r1, r3
 129 00ae 2046     		mov	r0, r4
 130 00b0 FFF7FEFF 		bl	__aeabi_fmul
 131 00b4 0346     		mov	r3, r0
 132 00b6 1C46     		mov	r4, r3
 133 00b8 FB7B     		ldrb	r3, [r7, #15]	@ zero_extendqisi2
 134 00ba 684A     		ldr	r2, .L9
 135 00bc 52F82330 		ldr	r3, [r2, r3, lsl #2]
 136 00c0 BA68     		ldr	r2, [r7, #8]
 137 00c2 D31A     		subs	r3, r2, r3
 138 00c4 1846     		mov	r0, r3
 139 00c6 FFF7FEFF 		bl	__aeabi_i2f
 140 00ca 0546     		mov	r5, r0
 141 00cc FA7B     		ldrb	r2, [r7, #15]	@ zero_extendqisi2
 142 00ce 6449     		ldr	r1, .L9+4
 143 00d0 1346     		mov	r3, r2
 144 00d2 DB00     		lsls	r3, r3, #3
 145 00d4 9B1A     		subs	r3, r3, r2
 146 00d6 1B01     		lsls	r3, r3, #4
 147 00d8 0B44     		add	r3, r3, r1
 148 00da FC33     		adds	r3, r3, #252
 149 00dc 1B68     		ldr	r3, [r3]	@ float
 150 00de 6149     		ldr	r1, .L9+8
 151 00e0 1846     		mov	r0, r3
 152 00e2 FFF7FEFF 		bl	__aeabi_fdiv
 153 00e6 0346     		mov	r3, r0
 154 00e8 1946     		mov	r1, r3
 155 00ea 2846     		mov	r0, r5
 156 00ec FFF7FEFF 		bl	__aeabi_fmul
 157 00f0 0346     		mov	r3, r0
 158 00f2 1946     		mov	r1, r3
 159 00f4 2046     		mov	r0, r4
ARM GAS  C:\Users\Mattia\AppData\Local\Temp\ccUc3JYZ.s 			page 5


 160 00f6 FFF7FEFF 		bl	__aeabi_fadd
 161 00fa 0346     		mov	r3, r0
 162 00fc 1C46     		mov	r4, r3
 163 00fe 7868     		ldr	r0, [r7, #4]
 164 0100 FFF7FEFF 		bl	__aeabi_i2f
 165 0104 FA7B     		ldrb	r2, [r7, #15]	@ zero_extendqisi2
 166 0106 5649     		ldr	r1, .L9+4
 167 0108 1346     		mov	r3, r2
 168 010a DB00     		lsls	r3, r3, #3
 169 010c 9B1A     		subs	r3, r3, r2
 170 010e 1B01     		lsls	r3, r3, #4
 171 0110 0B44     		add	r3, r3, r1
 172 0112 03F58073 		add	r3, r3, #256
 173 0116 1B68     		ldr	r3, [r3]	@ float
 174 0118 1946     		mov	r1, r3
 175 011a FFF7FEFF 		bl	__aeabi_fmul
 176 011e 0346     		mov	r3, r0
 177 0120 1D46     		mov	r5, r3
 178 0122 7B68     		ldr	r3, [r7, #4]
 179 0124 002B     		cmp	r3, #0
 180 0126 B8BF     		it	lt
 181 0128 5B42     		rsblt	r3, r3, #0
 182 012a 1846     		mov	r0, r3
 183 012c FFF7FEFF 		bl	__aeabi_i2f
 184 0130 FA7B     		ldrb	r2, [r7, #15]	@ zero_extendqisi2
 185 0132 4B49     		ldr	r1, .L9+4
 186 0134 1346     		mov	r3, r2
 187 0136 DB00     		lsls	r3, r3, #3
 188 0138 9B1A     		subs	r3, r3, r2
 189 013a 1B01     		lsls	r3, r3, #4
 190 013c 0B44     		add	r3, r3, r1
 191 013e 03F58273 		add	r3, r3, #260
 192 0142 1B68     		ldr	r3, [r3]	@ float
 193 0144 1946     		mov	r1, r3
 194 0146 FFF7FEFF 		bl	__aeabi_fmul
 195 014a 0346     		mov	r3, r0
 196 014c 4FF07E51 		mov	r1, #1065353216
 197 0150 1846     		mov	r0, r3
 198 0152 FFF7FEFF 		bl	__aeabi_fadd
 199 0156 0346     		mov	r3, r0
 200 0158 1946     		mov	r1, r3
 201 015a 2846     		mov	r0, r5
 202 015c FFF7FEFF 		bl	__aeabi_fmul
 203 0160 0346     		mov	r3, r0
 204 0162 1946     		mov	r1, r3
 205 0164 2046     		mov	r0, r4
 206 0166 FFF7FEFF 		bl	__aeabi_fadd
 207 016a 0346     		mov	r3, r0
 208 016c 1C46     		mov	r4, r3
 209 016e FB7B     		ldrb	r3, [r7, #15]	@ zero_extendqisi2
 210 0170 3D4A     		ldr	r2, .L9+12
 211 0172 52F82330 		ldr	r3, [r2, r3, lsl #2]
 212 0176 3A68     		ldr	r2, [r7]
 213 0178 D31A     		subs	r3, r2, r3
 214 017a 1846     		mov	r0, r3
 215 017c FFF7FEFF 		bl	__aeabi_i2f
 216 0180 FA7B     		ldrb	r2, [r7, #15]	@ zero_extendqisi2
ARM GAS  C:\Users\Mattia\AppData\Local\Temp\ccUc3JYZ.s 			page 6


 217 0182 3749     		ldr	r1, .L9+4
 218 0184 1346     		mov	r3, r2
 219 0186 DB00     		lsls	r3, r3, #3
 220 0188 9B1A     		subs	r3, r3, r2
 221 018a 1B01     		lsls	r3, r3, #4
 222 018c 0B44     		add	r3, r3, r1
 223 018e 03F58473 		add	r3, r3, #264
 224 0192 1B68     		ldr	r3, [r3]	@ float
 225 0194 1946     		mov	r1, r3
 226 0196 FFF7FEFF 		bl	__aeabi_fmul
 227 019a 0346     		mov	r3, r0
 228 019c 1946     		mov	r1, r3
 229 019e 2046     		mov	r0, r4
 230 01a0 FFF7FEFF 		bl	__aeabi_fadd
 231 01a4 0346     		mov	r3, r0
 232 01a6 1846     		mov	r0, r3
 233 01a8 FFF7FEFF 		bl	__aeabi_f2iz
 234 01ac 0346     		mov	r3, r0
 235 01ae 7B61     		str	r3, [r7, #20]
  70:..\src/utils.c ****         
  71:..\src/utils.c ****         if (curr_estimate > c_mem.motor[idx].current_limit) 
 236              		.loc 1 71 0
 237 01b0 FA7B     		ldrb	r2, [r7, #15]	@ zero_extendqisi2
 238 01b2 2E49     		ldr	r1, .L9+16
 239 01b4 1346     		mov	r3, r2
 240 01b6 DB00     		lsls	r3, r3, #3
 241 01b8 9B1A     		subs	r3, r3, r2
 242 01ba 1B01     		lsls	r3, r3, #4
 243 01bc 0B44     		add	r3, r3, r1
 244 01be 03F58673 		add	r3, r3, #268
 245 01c2 B3F90030 		ldrsh	r3, [r3]
 246 01c6 1A46     		mov	r2, r3
 247 01c8 7B69     		ldr	r3, [r7, #20]
 248 01ca 9A42     		cmp	r2, r3
 249 01cc 0CDA     		bge	.L5
  72:..\src/utils.c ****             curr_estimate = c_mem.motor[idx].current_limit;
 250              		.loc 1 72 0
 251 01ce FA7B     		ldrb	r2, [r7, #15]	@ zero_extendqisi2
 252 01d0 2649     		ldr	r1, .L9+16
 253 01d2 1346     		mov	r3, r2
 254 01d4 DB00     		lsls	r3, r3, #3
 255 01d6 9B1A     		subs	r3, r3, r2
 256 01d8 1B01     		lsls	r3, r3, #4
 257 01da 0B44     		add	r3, r3, r1
 258 01dc 03F58673 		add	r3, r3, #268
 259 01e0 B3F90030 		ldrsh	r3, [r3]
 260 01e4 7B61     		str	r3, [r7, #20]
 261 01e6 1BE0     		b	.L6
 262              	.L5:
  73:..\src/utils.c ****         else {
  74:..\src/utils.c **** 			if (curr_estimate < -c_mem.motor[idx].current_limit)
 263              		.loc 1 74 0
 264 01e8 FA7B     		ldrb	r2, [r7, #15]	@ zero_extendqisi2
 265 01ea 2049     		ldr	r1, .L9+16
 266 01ec 1346     		mov	r3, r2
 267 01ee DB00     		lsls	r3, r3, #3
 268 01f0 9B1A     		subs	r3, r3, r2
ARM GAS  C:\Users\Mattia\AppData\Local\Temp\ccUc3JYZ.s 			page 7


 269 01f2 1B01     		lsls	r3, r3, #4
 270 01f4 0B44     		add	r3, r3, r1
 271 01f6 03F58673 		add	r3, r3, #268
 272 01fa B3F90030 		ldrsh	r3, [r3]
 273 01fe 5A42     		negs	r2, r3
 274 0200 7B69     		ldr	r3, [r7, #20]
 275 0202 9A42     		cmp	r2, r3
 276 0204 0CDD     		ble	.L6
  75:..\src/utils.c ****             	curr_estimate = -c_mem.motor[idx].current_limit;
 277              		.loc 1 75 0
 278 0206 FA7B     		ldrb	r2, [r7, #15]	@ zero_extendqisi2
 279 0208 1849     		ldr	r1, .L9+16
 280 020a 1346     		mov	r3, r2
 281 020c DB00     		lsls	r3, r3, #3
 282 020e 9B1A     		subs	r3, r3, r2
 283 0210 1B01     		lsls	r3, r3, #4
 284 0212 0B44     		add	r3, r3, r1
 285 0214 03F58673 		add	r3, r3, #268
 286 0218 B3F90030 		ldrsh	r3, [r3]
 287 021c 5B42     		negs	r3, r3
 288 021e 7B61     		str	r3, [r7, #20]
 289              	.L6:
  76:..\src/utils.c **** 		}
  77:..\src/utils.c **** 
  78:..\src/utils.c ****         err_pos_dt[idx] = (REFSPEED * ref + (1024 - REFSPEED) * err_pos_dt[idx]) / 1024;         
 290              		.loc 1 78 0
 291 0220 F97B     		ldrb	r1, [r7, #15]	@ zero_extendqisi2
 292 0222 3A68     		ldr	r2, [r7]
 293 0224 1346     		mov	r3, r2
 294 0226 9B00     		lsls	r3, r3, #2
 295 0228 1344     		add	r3, r3, r2
 296 022a 9B00     		lsls	r3, r3, #2
 297 022c 1846     		mov	r0, r3
 298 022e FB7B     		ldrb	r3, [r7, #15]	@ zero_extendqisi2
 299 0230 0D4A     		ldr	r2, .L9+12
 300 0232 52F82330 		ldr	r3, [r2, r3, lsl #2]
 301 0236 4FF47B72 		mov	r2, #1004
 302 023a 02FB03F3 		mul	r3, r2, r3
 303 023e 0344     		add	r3, r3, r0
 304 0240 002B     		cmp	r3, #0
 305 0242 01DA     		bge	.L7
 306 0244 03F2FF33 		addw	r3, r3, #1023
 307              	.L7:
 308 0248 9B12     		asrs	r3, r3, #10
 309 024a 1A46     		mov	r2, r3
 310 024c 064B     		ldr	r3, .L9+12
 311 024e 43F82120 		str	r2, [r3, r1, lsl #2]
  79:..\src/utils.c ****         
  80:..\src/utils.c ****         return curr_estimate; 
 312              		.loc 1 80 0
 313 0252 7B69     		ldr	r3, [r7, #20]
  81:..\src/utils.c ****     
  82:..\src/utils.c **** }
 314              		.loc 1 82 0
 315 0254 1846     		mov	r0, r3
 316 0256 1837     		adds	r7, r7, #24
 317              		.cfi_def_cfa_offset 16
ARM GAS  C:\Users\Mattia\AppData\Local\Temp\ccUc3JYZ.s 			page 8


 318 0258 BD46     		mov	sp, r7
 319              		.cfi_def_cfa_register 13
 320              		@ sp needed
 321 025a B0BD     		pop	{r4, r5, r7, pc}
 322              	.L10:
 323              		.align	2
 324              	.L9:
 325 025c 00000000 		.word	virtual_pos_friction.10187
 326 0260 00000000 		.word	g_mem
 327 0264 0000A040 		.word	1084227584
 328 0268 08000000 		.word	err_pos_dt.10188
 329 026c 00000000 		.word	c_mem
 330              		.cfi_endproc
 331              	.LFE64:
 332              		.size	curr_estim, .-curr_estim
 333              		.section	.text.filter,"ax",%progbits
 334              		.align	2
 335              		.global	filter
 336              		.thumb
 337              		.thumb_func
 338              		.type	filter, %function
 339              	filter:
 340              	.LFB65:
  83:..\src/utils.c **** 
  84:..\src/utils.c **** //==============================================================================
  85:..\src/utils.c **** //                                                                General filter
  86:..\src/utils.c **** //==============================================================================
  87:..\src/utils.c **** int32 filter(int32 new_value, struct st_filter *f) {
 341              		.loc 1 87 0
 342              		.cfi_startproc
 343              		@ args = 0, pretend = 0, frame = 16
 344              		@ frame_needed = 1, uses_anonymous_args = 0
 345              		@ link register save eliminated.
 346 0000 80B4     		push	{r7}
 347              		.cfi_def_cfa_offset 4
 348              		.cfi_offset 7, -4
 349 0002 85B0     		sub	sp, sp, #20
 350              		.cfi_def_cfa_offset 24
 351 0004 00AF     		add	r7, sp, #0
 352              		.cfi_def_cfa_register 7
 353 0006 7860     		str	r0, [r7, #4]
 354 0008 3960     		str	r1, [r7]
  88:..\src/utils.c **** 
  89:..\src/utils.c ****     int32 aux;
  90:..\src/utils.c **** 
  91:..\src/utils.c ****     aux = (f->old_value * (1024 - f->gain) + (new_value << 6) * (f->gain)) /1024;
 355              		.loc 1 91 0
 356 000a 3B68     		ldr	r3, [r7]
 357 000c 1B68     		ldr	r3, [r3]
 358 000e 3A68     		ldr	r2, [r7]
 359 0010 5268     		ldr	r2, [r2, #4]
 360 0012 C2F58062 		rsb	r2, r2, #1024
 361 0016 02FB03F2 		mul	r2, r2, r3
 362 001a 7B68     		ldr	r3, [r7, #4]
 363 001c 9B01     		lsls	r3, r3, #6
 364 001e 3968     		ldr	r1, [r7]
 365 0020 4968     		ldr	r1, [r1, #4]
ARM GAS  C:\Users\Mattia\AppData\Local\Temp\ccUc3JYZ.s 			page 9


 366 0022 01FB03F3 		mul	r3, r1, r3
 367 0026 1344     		add	r3, r3, r2
 368 0028 002B     		cmp	r3, #0
 369 002a 01DA     		bge	.L12
 370 002c 03F2FF33 		addw	r3, r3, #1023
 371              	.L12:
 372 0030 9B12     		asrs	r3, r3, #10
 373 0032 FB60     		str	r3, [r7, #12]
  92:..\src/utils.c **** 
  93:..\src/utils.c ****     f->old_value = aux;
 374              		.loc 1 93 0
 375 0034 3B68     		ldr	r3, [r7]
 376 0036 FA68     		ldr	r2, [r7, #12]
 377 0038 1A60     		str	r2, [r3]
  94:..\src/utils.c **** 
  95:..\src/utils.c ****     return (aux / 64);
 378              		.loc 1 95 0
 379 003a FB68     		ldr	r3, [r7, #12]
 380 003c 002B     		cmp	r3, #0
 381 003e 00DA     		bge	.L13
 382 0040 3F33     		adds	r3, r3, #63
 383              	.L13:
 384 0042 9B11     		asrs	r3, r3, #6
  96:..\src/utils.c **** }
 385              		.loc 1 96 0
 386 0044 1846     		mov	r0, r3
 387 0046 1437     		adds	r7, r7, #20
 388              		.cfi_def_cfa_offset 4
 389 0048 BD46     		mov	sp, r7
 390              		.cfi_def_cfa_register 13
 391              		@ sp needed
 392 004a 80BC     		pop	{r7}
 393              		.cfi_restore 7
 394              		.cfi_def_cfa_offset 0
 395 004c 7047     		bx	lr
 396              		.cfi_endproc
 397              	.LFE65:
 398              		.size	filter, .-filter
 399 004e 00BF     		.section	.text.my_mod,"ax",%progbits
 400              		.align	2
 401              		.global	my_mod
 402              		.thumb
 403              		.thumb_func
 404              		.type	my_mod, %function
 405              	my_mod:
 406              	.LFB66:
  97:..\src/utils.c **** 
  98:..\src/utils.c **** //==============================================================================
  99:..\src/utils.c **** //                                                                        MODULE
 100:..\src/utils.c **** //==============================================================================
 101:..\src/utils.c **** 
 102:..\src/utils.c **** uint32 my_mod(int32 val, int32 divisor) {
 407              		.loc 1 102 0
 408              		.cfi_startproc
 409              		@ args = 0, pretend = 0, frame = 8
 410              		@ frame_needed = 1, uses_anonymous_args = 0
 411              		@ link register save eliminated.
ARM GAS  C:\Users\Mattia\AppData\Local\Temp\ccUc3JYZ.s 			page 10


 412 0000 80B4     		push	{r7}
 413              		.cfi_def_cfa_offset 4
 414              		.cfi_offset 7, -4
 415 0002 83B0     		sub	sp, sp, #12
 416              		.cfi_def_cfa_offset 16
 417 0004 00AF     		add	r7, sp, #0
 418              		.cfi_def_cfa_register 7
 419 0006 7860     		str	r0, [r7, #4]
 420 0008 3960     		str	r1, [r7]
 103:..\src/utils.c **** 
 104:..\src/utils.c ****     if (val >= 0) {
 421              		.loc 1 104 0
 422 000a 7B68     		ldr	r3, [r7, #4]
 423 000c 002B     		cmp	r3, #0
 424 000e 08DB     		blt	.L16
 105:..\src/utils.c ****         return (int32)(val % divisor);
 425              		.loc 1 105 0
 426 0010 7B68     		ldr	r3, [r7, #4]
 427 0012 3A68     		ldr	r2, [r7]
 428 0014 93FBF2F2 		sdiv	r2, r3, r2
 429 0018 3968     		ldr	r1, [r7]
 430 001a 01FB02F2 		mul	r2, r1, r2
 431 001e 9B1A     		subs	r3, r3, r2
 432 0020 11E0     		b	.L17
 433              	.L16:
 106:..\src/utils.c ****     } else {
 107:..\src/utils.c ****         return (int32)((divisor - (-val % divisor)) % divisor);
 434              		.loc 1 107 0
 435 0022 7B68     		ldr	r3, [r7, #4]
 436 0024 5B42     		negs	r3, r3
 437 0026 3A68     		ldr	r2, [r7]
 438 0028 93FBF2F2 		sdiv	r2, r3, r2
 439 002c 3968     		ldr	r1, [r7]
 440 002e 01FB02F2 		mul	r2, r1, r2
 441 0032 9B1A     		subs	r3, r3, r2
 442 0034 3A68     		ldr	r2, [r7]
 443 0036 D31A     		subs	r3, r2, r3
 444 0038 3A68     		ldr	r2, [r7]
 445 003a 93FBF2F2 		sdiv	r2, r3, r2
 446 003e 3968     		ldr	r1, [r7]
 447 0040 01FB02F2 		mul	r2, r1, r2
 448 0044 9B1A     		subs	r3, r3, r2
 449              	.L17:
 108:..\src/utils.c ****     }
 109:..\src/utils.c **** }
 450              		.loc 1 109 0
 451 0046 1846     		mov	r0, r3
 452 0048 0C37     		adds	r7, r7, #12
 453              		.cfi_def_cfa_offset 4
 454 004a BD46     		mov	sp, r7
 455              		.cfi_def_cfa_register 13
 456              		@ sp needed
 457 004c 80BC     		pop	{r7}
 458              		.cfi_restore 7
 459              		.cfi_def_cfa_offset 0
 460 004e 7047     		bx	lr
 461              		.cfi_endproc
ARM GAS  C:\Users\Mattia\AppData\Local\Temp\ccUc3JYZ.s 			page 11


 462              	.LFE66:
 463              		.size	my_mod, .-my_mod
 464              		.section	.text.calibration,"ax",%progbits
 465              		.align	2
 466              		.global	calibration
 467              		.thumb
 468              		.thumb_func
 469              		.type	calibration, %function
 470              	calibration:
 471              	.LFB67:
 110:..\src/utils.c **** 
 111:..\src/utils.c **** 
 112:..\src/utils.c **** //==============================================================================
 113:..\src/utils.c **** //                                                                     CALIBRATE
 114:..\src/utils.c **** //==============================================================================
 115:..\src/utils.c **** 
 116:..\src/utils.c **** void calibration(void) {
 472              		.loc 1 116 0
 473              		.cfi_startproc
 474              		@ args = 0, pretend = 0, frame = 0
 475              		@ frame_needed = 1, uses_anonymous_args = 0
 476              		@ link register save eliminated.
 477 0000 90B4     		push	{r4, r7}
 478              		.cfi_def_cfa_offset 8
 479              		.cfi_offset 4, -8
 480              		.cfi_offset 7, -4
 481 0002 00AF     		add	r7, sp, #0
 482              		.cfi_def_cfa_register 7
 117:..\src/utils.c ****     static uint8 direction;                 //0 closing, 1 opening.
 118:..\src/utils.c ****     static uint16 closure_counter = 0;          //Range [0 - 2^16].
 119:..\src/utils.c ****     //static CYBIT count_one = 1;             //Used to count only one cycle, when inputs are gener
 120:..\src/utils.c ****                                             //and pass the threshold, having the condition verified
 121:..\src/utils.c **** 
 122:..\src/utils.c ****     // closing
 123:..\src/utils.c ****     if (direction == 0) {
 483              		.loc 1 123 0
 484 0004 2E4B     		ldr	r3, .L23
 485 0006 1B78     		ldrb	r3, [r3]	@ zero_extendqisi2
 486 0008 002B     		cmp	r3, #0
 487 000a 22D1     		bne	.L19
 124:..\src/utils.c ****         g_refNew[0].pos += (calib.speed << g_mem.enc[g_mem.motor[0].encoder_line].res[0]);
 488              		.loc 1 124 0
 489 000c 2D4B     		ldr	r3, .L23+4
 490 000e 1A68     		ldr	r2, [r3]
 491 0010 2D4B     		ldr	r3, .L23+8
 492 0012 B3F90230 		ldrsh	r3, [r3, #2]
 493 0016 1C46     		mov	r4, r3
 494 0018 2C4B     		ldr	r3, .L23+12
 495 001a 93F81031 		ldrb	r3, [r3, #272]	@ zero_extendqisi2
 496 001e 1846     		mov	r0, r3
 497 0020 2A49     		ldr	r1, .L23+12
 498 0022 0346     		mov	r3, r0
 499 0024 5B00     		lsls	r3, r3, #1
 500 0026 0344     		add	r3, r3, r0
 501 0028 1B01     		lsls	r3, r3, #4
 502 002a 0B44     		add	r3, r3, r1
 503 002c 03F29513 		addw	r3, r3, #405
ARM GAS  C:\Users\Mattia\AppData\Local\Temp\ccUc3JYZ.s 			page 12


 504 0030 1B78     		ldrb	r3, [r3]	@ zero_extendqisi2
 505 0032 04FA03F3 		lsl	r3, r4, r3
 506 0036 1344     		add	r3, r3, r2
 507 0038 224A     		ldr	r2, .L23+4
 508 003a 1360     		str	r3, [r2]
 125:..\src/utils.c ****         
 126:..\src/utils.c ****         if ((g_refNew[0].pos) > g_mem.motor[0].pos_lim_sup) {
 509              		.loc 1 126 0
 510 003c 214B     		ldr	r3, .L23+4
 511 003e 1A68     		ldr	r2, [r3]
 512 0040 224B     		ldr	r3, .L23+12
 513 0042 D3F8E830 		ldr	r3, [r3, #232]
 514 0046 9A42     		cmp	r2, r3
 515 0048 36DD     		ble	.L22
 127:..\src/utils.c ****             direction = 1;
 516              		.loc 1 127 0
 517 004a 1D4B     		ldr	r3, .L23
 518 004c 0122     		movs	r2, #1
 519 004e 1A70     		strb	r2, [r3]
 128:..\src/utils.c ****         }
 129:..\src/utils.c ****     } else { //opening
 130:..\src/utils.c ****         g_refNew[0].pos -= (calib.speed << g_mem.enc[g_mem.motor[0].encoder_line].res[0]);
 131:..\src/utils.c ****         if (SIGN(g_refNew[0].pos) != 1) {
 132:..\src/utils.c ****             direction = 0;
 133:..\src/utils.c ****             closure_counter++;
 134:..\src/utils.c **** //            count_one = 1;          // Enables back the cycles counter
 135:..\src/utils.c ****             if (closure_counter == calib.repetitions) {
 136:..\src/utils.c ****                 closure_counter = 0;
 137:..\src/utils.c ****                 calib.enabled = FALSE;
 138:..\src/utils.c ****             }
 139:..\src/utils.c ****         }
 140:..\src/utils.c ****     }
 141:..\src/utils.c **** }
 520              		.loc 1 141 0
 521 0050 32E0     		b	.L22
 522              	.L19:
 130:..\src/utils.c ****         if (SIGN(g_refNew[0].pos) != 1) {
 523              		.loc 1 130 0
 524 0052 1C4B     		ldr	r3, .L23+4
 525 0054 1A68     		ldr	r2, [r3]
 526 0056 1C4B     		ldr	r3, .L23+8
 527 0058 B3F90230 		ldrsh	r3, [r3, #2]
 528 005c 1C46     		mov	r4, r3
 529 005e 1B4B     		ldr	r3, .L23+12
 530 0060 93F81031 		ldrb	r3, [r3, #272]	@ zero_extendqisi2
 531 0064 1846     		mov	r0, r3
 532 0066 1949     		ldr	r1, .L23+12
 533 0068 0346     		mov	r3, r0
 534 006a 5B00     		lsls	r3, r3, #1
 535 006c 0344     		add	r3, r3, r0
 536 006e 1B01     		lsls	r3, r3, #4
 537 0070 0B44     		add	r3, r3, r1
 538 0072 03F29513 		addw	r3, r3, #405
 539 0076 1B78     		ldrb	r3, [r3]	@ zero_extendqisi2
 540 0078 04FA03F3 		lsl	r3, r4, r3
 541 007c D31A     		subs	r3, r2, r3
 542 007e 114A     		ldr	r2, .L23+4
ARM GAS  C:\Users\Mattia\AppData\Local\Temp\ccUc3JYZ.s 			page 13


 543 0080 1360     		str	r3, [r2]
 131:..\src/utils.c ****             direction = 0;
 544              		.loc 1 131 0
 545 0082 104B     		ldr	r3, .L23+4
 546 0084 1B68     		ldr	r3, [r3]
 547 0086 002B     		cmp	r3, #0
 548 0088 16DA     		bge	.L22
 132:..\src/utils.c ****             closure_counter++;
 549              		.loc 1 132 0
 550 008a 0D4B     		ldr	r3, .L23
 551 008c 0022     		movs	r2, #0
 552 008e 1A70     		strb	r2, [r3]
 133:..\src/utils.c **** //            count_one = 1;          // Enables back the cycles counter
 553              		.loc 1 133 0
 554 0090 0F4B     		ldr	r3, .L23+16
 555 0092 1B88     		ldrh	r3, [r3]
 556 0094 0133     		adds	r3, r3, #1
 557 0096 9AB2     		uxth	r2, r3
 558 0098 0D4B     		ldr	r3, .L23+16
 559 009a 1A80     		strh	r2, [r3]	@ movhi
 135:..\src/utils.c ****                 closure_counter = 0;
 560              		.loc 1 135 0
 561 009c 0C4B     		ldr	r3, .L23+16
 562 009e 1B88     		ldrh	r3, [r3]
 563 00a0 1A46     		mov	r2, r3
 564 00a2 094B     		ldr	r3, .L23+8
 565 00a4 B3F90430 		ldrsh	r3, [r3, #4]
 566 00a8 9A42     		cmp	r2, r3
 567 00aa 05D1     		bne	.L22
 136:..\src/utils.c ****                 calib.enabled = FALSE;
 568              		.loc 1 136 0
 569 00ac 084B     		ldr	r3, .L23+16
 570 00ae 0022     		movs	r2, #0
 571 00b0 1A80     		strh	r2, [r3]	@ movhi
 137:..\src/utils.c ****             }
 572              		.loc 1 137 0
 573 00b2 054B     		ldr	r3, .L23+8
 574 00b4 0022     		movs	r2, #0
 575 00b6 1A70     		strb	r2, [r3]
 576              	.L22:
 577              		.loc 1 141 0
 578 00b8 00BF     		nop
 579 00ba BD46     		mov	sp, r7
 580              		.cfi_def_cfa_register 13
 581              		@ sp needed
 582 00bc 90BC     		pop	{r4, r7}
 583              		.cfi_restore 7
 584              		.cfi_restore 4
 585              		.cfi_def_cfa_offset 0
 586 00be 7047     		bx	lr
 587              	.L24:
 588              		.align	2
 589              	.L23:
 590 00c0 10000000 		.word	direction.10202
 591 00c4 00000000 		.word	g_refNew
 592 00c8 00000000 		.word	calib
 593 00cc 00000000 		.word	g_mem
ARM GAS  C:\Users\Mattia\AppData\Local\Temp\ccUc3JYZ.s 			page 14


 594 00d0 12000000 		.word	closure_counter.10203
 595              		.cfi_endproc
 596              	.LFE67:
 597              		.size	calibration, .-calibration
 598              		.section	.text.calc_turns_fcn_SH,"ax",%progbits
 599              		.align	2
 600              		.global	calc_turns_fcn_SH
 601              		.thumb
 602              		.thumb_func
 603              		.type	calc_turns_fcn_SH, %function
 604              	calc_turns_fcn_SH:
 605              	.LFB68:
 142:..\src/utils.c **** 
 143:..\src/utils.c **** 
 144:..\src/utils.c **** //==============================================================================
 145:..\src/utils.c **** //                                                      DOUBLE ENCODER CALC TURN
 146:..\src/utils.c **** //==============================================================================
 147:..\src/utils.c **** 
 148:..\src/utils.c **** // Use this matlab function to calculate I1 and I2
 149:..\src/utils.c **** //
 150:..\src/utils.c **** // function [inv_a, inv_b] = mod_mul_inv(a, b)
 151:..\src/utils.c **** //     a = int32(a);
 152:..\src/utils.c **** //     b = int32(b);
 153:..\src/utils.c **** //     if b == 0
 154:..\src/utils.c **** //         inv_a = 1;
 155:..\src/utils.c **** //         inv_b = 0;
 156:..\src/utils.c **** //         return
 157:..\src/utils.c **** //     else
 158:..\src/utils.c **** //         q = idivide(a,b,'floor');
 159:..\src/utils.c **** //         r = mod(a,b);
 160:..\src/utils.c **** //         [s, t] = mod_mul_inv(b, r);
 161:..\src/utils.c **** //     end
 162:..\src/utils.c **** //     inv_a = t;
 163:..\src/utils.c **** //     inv_b = s - q * t;
 164:..\src/utils.c **** // return
 165:..\src/utils.c **** 
 166:..\src/utils.c **** // Number of ticks per turn
 167:..\src/utils.c **** #define M 65536          ///< Number of encoder ticks per turn.
 168:..\src/utils.c **** 
 169:..\src/utils.c **** int calc_turns_fcn_SH(const int32 pos1, const int32 pos2, const int N1, const int N2, const int I1)
 606              		.loc 1 169 0
 607              		.cfi_startproc
 608              		@ args = 4, pretend = 0, frame = 24
 609              		@ frame_needed = 1, uses_anonymous_args = 0
 610 0000 80B5     		push	{r7, lr}
 611              		.cfi_def_cfa_offset 8
 612              		.cfi_offset 7, -8
 613              		.cfi_offset 14, -4
 614 0002 86B0     		sub	sp, sp, #24
 615              		.cfi_def_cfa_offset 32
 616 0004 00AF     		add	r7, sp, #0
 617              		.cfi_def_cfa_register 7
 618 0006 F860     		str	r0, [r7, #12]
 619 0008 B960     		str	r1, [r7, #8]
 620 000a 7A60     		str	r2, [r7, #4]
 621 000c 3B60     		str	r3, [r7]
 170:..\src/utils.c ****     
ARM GAS  C:\Users\Mattia\AppData\Local\Temp\ccUc3JYZ.s 			page 15


 171:..\src/utils.c ****     int32 x;
 172:..\src/utils.c ****     int32 aux;
 173:..\src/utils.c ****     
 174:..\src/utils.c ****     switch (c_mem.dev.right_left){
 622              		.loc 1 174 0
 623 000e 2C4B     		ldr	r3, .L32
 624 0010 93F8A730 		ldrb	r3, [r3, #167]	@ zero_extendqisi2
 625 0014 002B     		cmp	r3, #0
 626 0016 02D0     		beq	.L27
 627 0018 012B     		cmp	r3, #1
 628 001a 2BD0     		beq	.L28
 629 001c 4AE0     		b	.L26
 630              	.L27:
 175:..\src/utils.c ****         case RIGHT_HAND:
 176:..\src/utils.c ****             x = (my_mod( - N2*(pos2) - N1*pos1, M*N2) + M/2) / M;
 631              		.loc 1 176 0
 632 001e 3B68     		ldr	r3, [r7]
 633 0020 5B42     		negs	r3, r3
 634 0022 BA68     		ldr	r2, [r7, #8]
 635 0024 02FB03F2 		mul	r2, r2, r3
 636 0028 7B68     		ldr	r3, [r7, #4]
 637 002a F968     		ldr	r1, [r7, #12]
 638 002c 01FB03F3 		mul	r3, r1, r3
 639 0030 D21A     		subs	r2, r2, r3
 640 0032 3B68     		ldr	r3, [r7]
 641 0034 1B04     		lsls	r3, r3, #16
 642 0036 1946     		mov	r1, r3
 643 0038 1046     		mov	r0, r2
 644 003a FFF7FEFF 		bl	my_mod
 645 003e 0346     		mov	r3, r0
 646 0040 03F50043 		add	r3, r3, #32768
 647 0044 1B0C     		lsrs	r3, r3, #16
 648 0046 3B61     		str	r3, [r7, #16]
 177:..\src/utils.c ****             
 178:..\src/utils.c ****             aux = my_mod(x*I1, N2);       // Module between x*I1 and N2.
 649              		.loc 1 178 0
 650 0048 3B69     		ldr	r3, [r7, #16]
 651 004a 3A6A     		ldr	r2, [r7, #32]
 652 004c 02FB03F3 		mul	r3, r2, r3
 653 0050 3968     		ldr	r1, [r7]
 654 0052 1846     		mov	r0, r3
 655 0054 FFF7FEFF 		bl	my_mod
 656 0058 0346     		mov	r3, r0
 657 005a 7B61     		str	r3, [r7, #20]
 179:..\src/utils.c ****             
 180:..\src/utils.c ****             // Wrap turns
 181:..\src/utils.c ****             aux -= N2;      //N2 (teeth of the second encoder wheel)
 658              		.loc 1 181 0
 659 005c 7A69     		ldr	r2, [r7, #20]
 660 005e 3B68     		ldr	r3, [r7]
 661 0060 D31A     		subs	r3, r2, r3
 662 0062 7B61     		str	r3, [r7, #20]
 182:..\src/utils.c ****             if (aux == -N2){
 663              		.loc 1 182 0
 664 0064 3B68     		ldr	r3, [r7]
 665 0066 5A42     		negs	r2, r3
 666 0068 7B69     		ldr	r3, [r7, #20]
ARM GAS  C:\Users\Mattia\AppData\Local\Temp\ccUc3JYZ.s 			page 16


 667 006a 9A42     		cmp	r2, r3
 668 006c 21D1     		bne	.L31
 183:..\src/utils.c ****                 aux = 0;
 669              		.loc 1 183 0
 670 006e 0023     		movs	r3, #0
 671 0070 7B61     		str	r3, [r7, #20]
 184:..\src/utils.c ****             }
 185:..\src/utils.c ****             
 186:..\src/utils.c ****             break;
 672              		.loc 1 186 0
 673 0072 1EE0     		b	.L31
 674              	.L28:
 187:..\src/utils.c ****         case LEFT_HAND:
 188:..\src/utils.c ****             x = (my_mod( - N2*(-pos2) - N1*pos1, M*N2) + M/2) / M;
 675              		.loc 1 188 0
 676 0074 3B68     		ldr	r3, [r7]
 677 0076 BA68     		ldr	r2, [r7, #8]
 678 0078 02FB03F2 		mul	r2, r2, r3
 679 007c 7B68     		ldr	r3, [r7, #4]
 680 007e F968     		ldr	r1, [r7, #12]
 681 0080 01FB03F3 		mul	r3, r1, r3
 682 0084 D21A     		subs	r2, r2, r3
 683 0086 3B68     		ldr	r3, [r7]
 684 0088 1B04     		lsls	r3, r3, #16
 685 008a 1946     		mov	r1, r3
 686 008c 1046     		mov	r0, r2
 687 008e FFF7FEFF 		bl	my_mod
 688 0092 0346     		mov	r3, r0
 689 0094 03F50043 		add	r3, r3, #32768
 690 0098 1B0C     		lsrs	r3, r3, #16
 691 009a 3B61     		str	r3, [r7, #16]
 189:..\src/utils.c ****             
 190:..\src/utils.c ****             aux = my_mod(x*I1, N2);       // Module between x*I1 and N2.
 692              		.loc 1 190 0
 693 009c 3B69     		ldr	r3, [r7, #16]
 694 009e 3A6A     		ldr	r2, [r7, #32]
 695 00a0 02FB03F3 		mul	r3, r2, r3
 696 00a4 3968     		ldr	r1, [r7]
 697 00a6 1846     		mov	r0, r3
 698 00a8 FFF7FEFF 		bl	my_mod
 699 00ac 0346     		mov	r3, r0
 700 00ae 7B61     		str	r3, [r7, #20]
 191:..\src/utils.c ****             
 192:..\src/utils.c ****             break;
 701              		.loc 1 192 0
 702 00b0 00E0     		b	.L26
 703              	.L31:
 186:..\src/utils.c ****         case LEFT_HAND:
 704              		.loc 1 186 0
 705 00b2 00BF     		nop
 706              	.L26:
 193:..\src/utils.c ****     }
 194:..\src/utils.c ****   
 195:..\src/utils.c ****     // SoftHand Pro firmware turns computation does not have to take into account turns shift like 
 196:..\src/utils.c ****     return aux; 
 707              		.loc 1 196 0
 708 00b4 7B69     		ldr	r3, [r7, #20]
ARM GAS  C:\Users\Mattia\AppData\Local\Temp\ccUc3JYZ.s 			page 17


 197:..\src/utils.c **** 
 198:..\src/utils.c **** }
 709              		.loc 1 198 0
 710 00b6 1846     		mov	r0, r3
 711 00b8 1837     		adds	r7, r7, #24
 712              		.cfi_def_cfa_offset 8
 713 00ba BD46     		mov	sp, r7
 714              		.cfi_def_cfa_register 13
 715              		@ sp needed
 716 00bc 80BD     		pop	{r7, pc}
 717              	.L33:
 718 00be 00BF     		.align	2
 719              	.L32:
 720 00c0 00000000 		.word	c_mem
 721              		.cfi_endproc
 722              	.LFE68:
 723              		.size	calc_turns_fcn_SH, .-calc_turns_fcn_SH
 724              		.section	.text.calc_turns_fcn,"ax",%progbits
 725              		.align	2
 726              		.global	calc_turns_fcn
 727              		.thumb
 728              		.thumb_func
 729              		.type	calc_turns_fcn, %function
 730              	calc_turns_fcn:
 731              	.LFB69:
 199:..\src/utils.c **** 
 200:..\src/utils.c **** int calc_turns_fcn(const int32 pos1, const int32 pos2, const int N1, const int N2, const int I1) { 
 732              		.loc 1 200 0
 733              		.cfi_startproc
 734              		@ args = 4, pretend = 0, frame = 24
 735              		@ frame_needed = 1, uses_anonymous_args = 0
 736 0000 80B5     		push	{r7, lr}
 737              		.cfi_def_cfa_offset 8
 738              		.cfi_offset 7, -8
 739              		.cfi_offset 14, -4
 740 0002 88B0     		sub	sp, sp, #32
 741              		.cfi_def_cfa_offset 40
 742 0004 02AF     		add	r7, sp, #8
 743              		.cfi_def_cfa 7, 32
 744 0006 F860     		str	r0, [r7, #12]
 745 0008 B960     		str	r1, [r7, #8]
 746 000a 7A60     		str	r2, [r7, #4]
 747 000c 3B60     		str	r3, [r7]
 201:..\src/utils.c **** 
 202:..\src/utils.c ****     if (c_mem.dev.dev_type == SOFTHAND_PRO) {
 748              		.loc 1 202 0
 749 000e 214B     		ldr	r3, .L37
 750 0010 93F8AC30 		ldrb	r3, [r3, #172]	@ zero_extendqisi2
 751 0014 002B     		cmp	r3, #0
 752 0016 09D1     		bne	.L35
 203:..\src/utils.c ****         return calc_turns_fcn_SH(pos1, pos2, N1, N2, I1);   
 753              		.loc 1 203 0
 754 0018 3B6A     		ldr	r3, [r7, #32]
 755 001a 0093     		str	r3, [sp]
 756 001c 3B68     		ldr	r3, [r7]
 757 001e 7A68     		ldr	r2, [r7, #4]
 758 0020 B968     		ldr	r1, [r7, #8]
ARM GAS  C:\Users\Mattia\AppData\Local\Temp\ccUc3JYZ.s 			page 18


 759 0022 F868     		ldr	r0, [r7, #12]
 760 0024 FFF7FEFF 		bl	calc_turns_fcn_SH
 761 0028 0346     		mov	r3, r0
 762 002a 2FE0     		b	.L36
 763              	.L35:
 764              	.LBB2:
 204:..\src/utils.c ****     }
 205:..\src/utils.c ****     else {
 206:..\src/utils.c ****         // This is the same computation and formulas used in previous firmwares
 207:..\src/utils.c ****         int32 x = (my_mod( - N2*pos2 - N1*pos1, M*N2) + M/2) / M;
 765              		.loc 1 207 0
 766 002c 3B68     		ldr	r3, [r7]
 767 002e 5B42     		negs	r3, r3
 768 0030 BA68     		ldr	r2, [r7, #8]
 769 0032 02FB03F2 		mul	r2, r2, r3
 770 0036 7B68     		ldr	r3, [r7, #4]
 771 0038 F968     		ldr	r1, [r7, #12]
 772 003a 01FB03F3 		mul	r3, r1, r3
 773 003e D21A     		subs	r2, r2, r3
 774 0040 3B68     		ldr	r3, [r7]
 775 0042 1B04     		lsls	r3, r3, #16
 776 0044 1946     		mov	r1, r3
 777 0046 1046     		mov	r0, r2
 778 0048 FFF7FEFF 		bl	my_mod
 779 004c 0346     		mov	r3, r0
 780 004e 03F50043 		add	r3, r3, #32768
 781 0052 1B0C     		lsrs	r3, r3, #16
 782 0054 7B61     		str	r3, [r7, #20]
 208:..\src/utils.c **** 
 209:..\src/utils.c ****         int32 aux = my_mod(x*I1, N2);
 783              		.loc 1 209 0
 784 0056 7B69     		ldr	r3, [r7, #20]
 785 0058 3A6A     		ldr	r2, [r7, #32]
 786 005a 02FB03F3 		mul	r3, r2, r3
 787 005e 3968     		ldr	r1, [r7]
 788 0060 1846     		mov	r0, r3
 789 0062 FFF7FEFF 		bl	my_mod
 790 0066 0346     		mov	r3, r0
 791 0068 3B61     		str	r3, [r7, #16]
 210:..\src/utils.c **** 
 211:..\src/utils.c ****         return (my_mod(aux + N2/2, N2) - N2/2);
 792              		.loc 1 211 0
 793 006a 3B68     		ldr	r3, [r7]
 794 006c DA0F     		lsrs	r2, r3, #31
 795 006e 1344     		add	r3, r3, r2
 796 0070 5B10     		asrs	r3, r3, #1
 797 0072 1A46     		mov	r2, r3
 798 0074 3B69     		ldr	r3, [r7, #16]
 799 0076 1344     		add	r3, r3, r2
 800 0078 3968     		ldr	r1, [r7]
 801 007a 1846     		mov	r0, r3
 802 007c FFF7FEFF 		bl	my_mod
 803 0080 0146     		mov	r1, r0
 804 0082 3B68     		ldr	r3, [r7]
 805 0084 DA0F     		lsrs	r2, r3, #31
 806 0086 1344     		add	r3, r3, r2
 807 0088 5B10     		asrs	r3, r3, #1
ARM GAS  C:\Users\Mattia\AppData\Local\Temp\ccUc3JYZ.s 			page 19


 808 008a CB1A     		subs	r3, r1, r3
 809              	.L36:
 810              	.LBE2:
 212:..\src/utils.c ****     }
 213:..\src/utils.c **** }
 811              		.loc 1 213 0
 812 008c 1846     		mov	r0, r3
 813 008e 1837     		adds	r7, r7, #24
 814              		.cfi_def_cfa_offset 8
 815 0090 BD46     		mov	sp, r7
 816              		.cfi_def_cfa_register 13
 817              		@ sp needed
 818 0092 80BD     		pop	{r7, pc}
 819              	.L38:
 820              		.align	2
 821              	.L37:
 822 0094 00000000 		.word	c_mem
 823              		.cfi_endproc
 824              	.LFE69:
 825              		.size	calc_turns_fcn, .-calc_turns_fcn
 826              		.section	.text.check_rest_position,"ax",%progbits
 827              		.align	2
 828              		.global	check_rest_position
 829              		.thumb
 830              		.thumb_func
 831              		.type	check_rest_position, %function
 832              	check_rest_position:
 833              	.LFB70:
 214:..\src/utils.c **** 
 215:..\src/utils.c **** //==============================================================================
 216:..\src/utils.c **** //                                                                 REST POSITION
 217:..\src/utils.c **** //==============================================================================
 218:..\src/utils.c **** void check_rest_position(void) {     // 100 Hz frequency.
 834              		.loc 1 218 0
 835              		.cfi_startproc
 836              		@ args = 0, pretend = 0, frame = 8
 837              		@ frame_needed = 1, uses_anonymous_args = 0
 838 0000 90B5     		push	{r4, r7, lr}
 839              		.cfi_def_cfa_offset 12
 840              		.cfi_offset 4, -12
 841              		.cfi_offset 7, -8
 842              		.cfi_offset 14, -4
 843 0002 83B0     		sub	sp, sp, #12
 844              		.cfi_def_cfa_offset 24
 845 0004 00AF     		add	r7, sp, #0
 846              		.cfi_def_cfa_register 7
 219:..\src/utils.c ****     
 220:..\src/utils.c ****     static uint32 count = 0;        // Range [0 - 2^31].
 221:..\src/utils.c ****     static uint8 flag_count = 1;
 222:..\src/utils.c ****     static uint8 first_time = 1;
 223:..\src/utils.c ****     static float m = 0;
 224:..\src/utils.c ****     static int32 abs_err_thr = 0;
 225:..\src/utils.c ****     static int32 delta_inc = 0;
 226:..\src/utils.c ****     int32 curr_pos = 0;
 847              		.loc 1 226 0
 848 0006 0023     		movs	r3, #0
 849 0008 7B60     		str	r3, [r7, #4]
ARM GAS  C:\Users\Mattia\AppData\Local\Temp\ccUc3JYZ.s 			page 20


 227:..\src/utils.c ****     static int32 rest_error;
 228:..\src/utils.c ****     float rest_vel_ticks_ms = ((float)g_mem.SH.rest_vel)/1000.0;    //[ticks/s] -> [ticks/ms]
 850              		.loc 1 228 0
 851 000a A14B     		ldr	r3, .L54
 852 000c D3F8A832 		ldr	r3, [r3, #680]
 853 0010 1846     		mov	r0, r3
 854 0012 FFF7FEFF 		bl	__aeabi_i2f
 855 0016 0346     		mov	r3, r0
 856 0018 9E49     		ldr	r1, .L54+4
 857 001a 1846     		mov	r0, r3
 858 001c FFF7FEFF 		bl	__aeabi_fdiv
 859 0020 0346     		mov	r3, r0
 860 0022 3B60     		str	r3, [r7]	@ float
 229:..\src/utils.c ****     
 230:..\src/utils.c ****     if (first_time){
 861              		.loc 1 230 0
 862 0024 9C4B     		ldr	r3, .L54+8
 863 0026 1B78     		ldrb	r3, [r3]	@ zero_extendqisi2
 864 0028 002B     		cmp	r3, #0
 865 002a 05D0     		beq	.L40
 231:..\src/utils.c ****         count = 0;
 866              		.loc 1 231 0
 867 002c 9B4B     		ldr	r3, .L54+12
 868 002e 0022     		movs	r2, #0
 869 0030 1A60     		str	r2, [r3]
 232:..\src/utils.c ****         first_time = 0;
 870              		.loc 1 232 0
 871 0032 994B     		ldr	r3, .L54+8
 872 0034 0022     		movs	r2, #0
 873 0036 1A70     		strb	r2, [r3]
 874              	.L40:
 233:..\src/utils.c ****     }
 234:..\src/utils.c ****     
 235:..\src/utils.c ****     curr_pos = (int32)(g_meas[g_mem.motor[0].encoder_line].pos[0] >> g_mem.enc[g_mem.motor[0].encod
 875              		.loc 1 235 0
 876 0038 954B     		ldr	r3, .L54
 877 003a 93F81031 		ldrb	r3, [r3, #272]	@ zero_extendqisi2
 878 003e 1946     		mov	r1, r3
 879 0040 974A     		ldr	r2, .L54+16
 880 0042 3423     		movs	r3, #52
 881 0044 03FB01F3 		mul	r3, r3, r1
 882 0048 1344     		add	r3, r3, r2
 883 004a 1A68     		ldr	r2, [r3]
 884 004c 904B     		ldr	r3, .L54
 885 004e 93F81031 		ldrb	r3, [r3, #272]	@ zero_extendqisi2
 886 0052 1846     		mov	r0, r3
 887 0054 8E49     		ldr	r1, .L54
 888 0056 0346     		mov	r3, r0
 889 0058 5B00     		lsls	r3, r3, #1
 890 005a 0344     		add	r3, r3, r0
 891 005c 1B01     		lsls	r3, r3, #4
 892 005e 0B44     		add	r3, r3, r1
 893 0060 03F29513 		addw	r3, r3, #405
 894 0064 1B78     		ldrb	r3, [r3]	@ zero_extendqisi2
 895 0066 42FA03F3 		asr	r3, r2, r3
 896 006a 7B60     		str	r3, [r7, #4]
 236:..\src/utils.c ****     
ARM GAS  C:\Users\Mattia\AppData\Local\Temp\ccUc3JYZ.s 			page 21


 237:..\src/utils.c ****     if ( ( ((c_mem.motor[0].input_mode == INPUT_MODE_EMG_PROPORTIONAL || c_mem.motor[0].input_mode 
 897              		.loc 1 237 0
 898 006c 8D4B     		ldr	r3, .L54+20
 899 006e 93F80E31 		ldrb	r3, [r3, #270]	@ zero_extendqisi2
 900 0072 022B     		cmp	r3, #2
 901 0074 13D0     		beq	.L41
 902              		.loc 1 237 0 is_stmt 0 discriminator 1
 903 0076 8B4B     		ldr	r3, .L54+20
 904 0078 93F80E31 		ldrb	r3, [r3, #270]	@ zero_extendqisi2
 905 007c 032B     		cmp	r3, #3
 906 007e 0ED0     		beq	.L41
 907              		.loc 1 237 0 discriminator 2
 908 0080 884B     		ldr	r3, .L54+20
 909 0082 93F80E31 		ldrb	r3, [r3, #270]	@ zero_extendqisi2
 910 0086 042B     		cmp	r3, #4
 911 0088 09D0     		beq	.L41
 238:..\src/utils.c ****              c_mem.motor[0].input_mode == INPUT_MODE_EMG_FCFS_ADV || c_mem.motor[0].input_mode == I
 912              		.loc 1 238 0 is_stmt 1 discriminator 3
 913 008a 864B     		ldr	r3, .L54+20
 914 008c 93F80E31 		ldrb	r3, [r3, #270]	@ zero_extendqisi2
 237:..\src/utils.c ****              c_mem.motor[0].input_mode == INPUT_MODE_EMG_FCFS_ADV || c_mem.motor[0].input_mode == I
 915              		.loc 1 237 0 discriminator 3
 916 0090 052B     		cmp	r3, #5
 917 0092 04D0     		beq	.L41
 918              		.loc 1 238 0
 919 0094 834B     		ldr	r3, .L54+20
 920 0096 93F80E31 		ldrb	r3, [r3, #270]	@ zero_extendqisi2
 921 009a 072B     		cmp	r3, #7
 922 009c 16D1     		bne	.L42
 923              	.L41:
 924              		.loc 1 238 0 is_stmt 0 discriminator 1
 925 009e 824B     		ldr	r3, .L54+24
 926 00a0 1B68     		ldr	r3, [r3]
 927 00a2 C72B     		cmp	r3, #199
 928 00a4 12DC     		bgt	.L42
 929              		.loc 1 238 0 discriminator 2
 930 00a6 804B     		ldr	r3, .L54+24
 931 00a8 5B68     		ldr	r3, [r3, #4]
 932 00aa C72B     		cmp	r3, #199
 933 00ac 0EDC     		bgt	.L42
 934              		.loc 1 238 0 discriminator 3
 935 00ae 7B68     		ldr	r3, [r7, #4]
 936 00b0 42F20F72 		movw	r2, #9999
 937 00b4 9342     		cmp	r3, r2
 938 00b6 09DC     		bgt	.L42
 239:..\src/utils.c ****         if (flag_count == 1){
 939              		.loc 1 239 0 is_stmt 1
 940 00b8 7C4B     		ldr	r3, .L54+28
 941 00ba 1B78     		ldrb	r3, [r3]	@ zero_extendqisi2
 942 00bc 012B     		cmp	r3, #1
 943 00be 0ED1     		bne	.L44
 240:..\src/utils.c ****             count = count + 1;
 944              		.loc 1 240 0
 945 00c0 764B     		ldr	r3, .L54+12
 946 00c2 1B68     		ldr	r3, [r3]
 947 00c4 0133     		adds	r3, r3, #1
 948 00c6 754A     		ldr	r2, .L54+12
ARM GAS  C:\Users\Mattia\AppData\Local\Temp\ccUc3JYZ.s 			page 22


 949 00c8 1360     		str	r3, [r2]
 239:..\src/utils.c ****         if (flag_count == 1){
 950              		.loc 1 239 0
 951 00ca 08E0     		b	.L44
 952              	.L42:
 241:..\src/utils.c ****         }
 242:..\src/utils.c ****     }
 243:..\src/utils.c ****     else {
 244:..\src/utils.c ****         count = 0;
 953              		.loc 1 244 0
 954 00cc 734B     		ldr	r3, .L54+12
 955 00ce 0022     		movs	r2, #0
 956 00d0 1A60     		str	r2, [r3]
 245:..\src/utils.c ****         rest_enabled = 0;
 957              		.loc 1 245 0
 958 00d2 774B     		ldr	r3, .L54+32
 959 00d4 0022     		movs	r2, #0
 960 00d6 1A70     		strb	r2, [r3]
 246:..\src/utils.c ****         flag_count = 1;
 961              		.loc 1 246 0
 962 00d8 744B     		ldr	r3, .L54+28
 963 00da 0122     		movs	r2, #1
 964 00dc 1A70     		strb	r2, [r3]
 965              	.L44:
 247:..\src/utils.c ****     }
 248:..\src/utils.c ****   
 249:..\src/utils.c ****     /********** Velocity closure procedure *************
 250:..\src/utils.c ****     * m = error/time
 251:..\src/utils.c ****     * m = (g_mem.rest_pos - init_pos)/time
 252:..\src/utils.c ****     * time = g_mem.rest_pos/rest_vel_ticks_ms (rest_vel_ticks_ms is in [ticks/ms])
 253:..\src/utils.c ****     ***************************************************/
 254:..\src/utils.c **** 
 255:..\src/utils.c ****     if (count == (uint32)(g_mem.SH.rest_delay/CALIBRATION_DIV)){ 
 966              		.loc 1 255 0
 967 00de 6C4B     		ldr	r3, .L54
 968 00e0 D3F8A432 		ldr	r3, [r3, #676]
 969 00e4 734A     		ldr	r2, .L54+36
 970 00e6 82FB0312 		smull	r1, r2, r2, r3
 971 00ea 9210     		asrs	r2, r2, #2
 972 00ec DB17     		asrs	r3, r3, #31
 973 00ee D31A     		subs	r3, r2, r3
 974 00f0 1A46     		mov	r2, r3
 975 00f2 6A4B     		ldr	r3, .L54+12
 976 00f4 1B68     		ldr	r3, [r3]
 977 00f6 9A42     		cmp	r2, r3
 978 00f8 40F09480 		bne	.L45
 256:..\src/utils.c ****         // This routine is executed every 10 firmware cycles -> g_mem.rest_delay must be major than
 257:..\src/utils.c ****         rest_enabled = 1;
 979              		.loc 1 257 0
 980 00fc 6C4B     		ldr	r3, .L54+32
 981 00fe 0122     		movs	r2, #1
 982 0100 1A70     		strb	r2, [r3]
 258:..\src/utils.c ****         rest_pos_curr_ref = g_meas[g_mem.motor[0].encoder_line].pos[0];
 983              		.loc 1 258 0
 984 0102 634B     		ldr	r3, .L54
 985 0104 93F81031 		ldrb	r3, [r3, #272]	@ zero_extendqisi2
 986 0108 1946     		mov	r1, r3
ARM GAS  C:\Users\Mattia\AppData\Local\Temp\ccUc3JYZ.s 			page 23


 987 010a 654A     		ldr	r2, .L54+16
 988 010c 3423     		movs	r3, #52
 989 010e 03FB01F3 		mul	r3, r3, r1
 990 0112 1344     		add	r3, r3, r2
 991 0114 1B68     		ldr	r3, [r3]
 992 0116 684A     		ldr	r2, .L54+40
 993 0118 1360     		str	r3, [r2]
 259:..\src/utils.c ****         
 260:..\src/utils.c ****         // Ramp angular coefficient
 261:..\src/utils.c ****         m = ((float)(g_mem.SH.rest_pos - g_meas[g_mem.motor[0].encoder_line].pos[0])/((float)g_mem.
 994              		.loc 1 261 0
 995 011a 5D4B     		ldr	r3, .L54
 996 011c D3F8A022 		ldr	r2, [r3, #672]
 997 0120 5B4B     		ldr	r3, .L54
 998 0122 93F81031 		ldrb	r3, [r3, #272]	@ zero_extendqisi2
 999 0126 1846     		mov	r0, r3
 1000 0128 5D49     		ldr	r1, .L54+16
 1001 012a 3423     		movs	r3, #52
 1002 012c 03FB00F3 		mul	r3, r3, r0
 1003 0130 0B44     		add	r3, r3, r1
 1004 0132 1B68     		ldr	r3, [r3]
 1005 0134 D31A     		subs	r3, r2, r3
 1006 0136 1846     		mov	r0, r3
 1007 0138 FFF7FEFF 		bl	__aeabi_i2f
 1008 013c 0446     		mov	r4, r0
 1009 013e 544B     		ldr	r3, .L54
 1010 0140 D3F8A032 		ldr	r3, [r3, #672]
 1011 0144 1846     		mov	r0, r3
 1012 0146 FFF7FEFF 		bl	__aeabi_i2f
 1013 014a 0346     		mov	r3, r0
 1014 014c 1946     		mov	r1, r3
 1015 014e 2046     		mov	r0, r4
 1016 0150 FFF7FEFF 		bl	__aeabi_fdiv
 1017 0154 0346     		mov	r3, r0
 1018 0156 3968     		ldr	r1, [r7]	@ float
 1019 0158 1846     		mov	r0, r3
 1020 015a FFF7FEFF 		bl	__aeabi_fmul
 1021 015e 0346     		mov	r3, r0
 1022 0160 1A46     		mov	r2, r3
 1023 0162 564B     		ldr	r3, .L54+44
 1024 0164 1A60     		str	r2, [r3]	@ float
 262:..\src/utils.c ****         
 263:..\src/utils.c ****         // Stop condition threshold is related to m coefficient by REST_RATIO value
 264:..\src/utils.c ****         abs_err_thr = (int32)( (int32)(((float)REST_POS_ERR_THR_GAIN)*m*((float)CALIBRATION_DIV)) <
 1025              		.loc 1 264 0
 1026 0166 554B     		ldr	r3, .L54+44
 1027 0168 1B68     		ldr	r3, [r3]	@ float
 1028 016a 5549     		ldr	r1, .L54+48
 1029 016c 1846     		mov	r0, r3
 1030 016e FFF7FEFF 		bl	__aeabi_fmul
 1031 0172 0346     		mov	r3, r0
 1032 0174 5249     		ldr	r1, .L54+48
 1033 0176 1846     		mov	r0, r3
 1034 0178 FFF7FEFF 		bl	__aeabi_fmul
 1035 017c 0346     		mov	r3, r0
 1036 017e 1846     		mov	r0, r3
 1037 0180 FFF7FEFF 		bl	__aeabi_f2iz
ARM GAS  C:\Users\Mattia\AppData\Local\Temp\ccUc3JYZ.s 			page 24


 1038 0184 424B     		ldr	r3, .L54
 1039 0186 93F81031 		ldrb	r3, [r3, #272]	@ zero_extendqisi2
 1040 018a 1946     		mov	r1, r3
 1041 018c 404A     		ldr	r2, .L54
 1042 018e 0B46     		mov	r3, r1
 1043 0190 5B00     		lsls	r3, r3, #1
 1044 0192 0B44     		add	r3, r3, r1
 1045 0194 1B01     		lsls	r3, r3, #4
 1046 0196 1344     		add	r3, r3, r2
 1047 0198 03F29513 		addw	r3, r3, #405
 1048 019c 1B78     		ldrb	r3, [r3]	@ zero_extendqisi2
 1049 019e 00FA03F3 		lsl	r3, r0, r3
 1050 01a2 484A     		ldr	r2, .L54+52
 1051 01a4 1360     		str	r3, [r2]
 265:..\src/utils.c ****         abs_err_thr = (abs_err_thr>0)?abs_err_thr:(0-abs_err_thr);
 1052              		.loc 1 265 0
 1053 01a6 474B     		ldr	r3, .L54+52
 1054 01a8 1B68     		ldr	r3, [r3]
 1055 01aa 002B     		cmp	r3, #0
 1056 01ac B8BF     		it	lt
 1057 01ae 5B42     		rsblt	r3, r3, #0
 1058 01b0 444A     		ldr	r2, .L54+52
 1059 01b2 1360     		str	r3, [r2]
 266:..\src/utils.c ****         
 267:..\src/utils.c ****         rest_error = g_mem.SH.rest_pos - g_meas[g_mem.motor[0].encoder_line].pos[0];    
 1060              		.loc 1 267 0
 1061 01b4 364B     		ldr	r3, .L54
 1062 01b6 D3F8A022 		ldr	r2, [r3, #672]
 1063 01ba 354B     		ldr	r3, .L54
 1064 01bc 93F81031 		ldrb	r3, [r3, #272]	@ zero_extendqisi2
 1065 01c0 1846     		mov	r0, r3
 1066 01c2 3749     		ldr	r1, .L54+16
 1067 01c4 3423     		movs	r3, #52
 1068 01c6 03FB00F3 		mul	r3, r3, r0
 1069 01ca 0B44     		add	r3, r3, r1
 1070 01cc 1B68     		ldr	r3, [r3]
 1071 01ce D31A     		subs	r3, r2, r3
 1072 01d0 3D4A     		ldr	r2, .L54+56
 1073 01d2 1360     		str	r3, [r2]
 268:..\src/utils.c ****         
 269:..\src/utils.c ****         delta_inc = (int32)( ((int32)(m*(float)CALIBRATION_DIV)) << g_mem.enc[g_mem.motor[0].encode
 1074              		.loc 1 269 0
 1075 01d4 394B     		ldr	r3, .L54+44
 1076 01d6 1B68     		ldr	r3, [r3]	@ float
 1077 01d8 3949     		ldr	r1, .L54+48
 1078 01da 1846     		mov	r0, r3
 1079 01dc FFF7FEFF 		bl	__aeabi_fmul
 1080 01e0 0346     		mov	r3, r0
 1081 01e2 1846     		mov	r0, r3
 1082 01e4 FFF7FEFF 		bl	__aeabi_f2iz
 1083 01e8 294B     		ldr	r3, .L54
 1084 01ea 93F81031 		ldrb	r3, [r3, #272]	@ zero_extendqisi2
 1085 01ee 1946     		mov	r1, r3
 1086 01f0 274A     		ldr	r2, .L54
 1087 01f2 0B46     		mov	r3, r1
 1088 01f4 5B00     		lsls	r3, r3, #1
 1089 01f6 0B44     		add	r3, r3, r1
ARM GAS  C:\Users\Mattia\AppData\Local\Temp\ccUc3JYZ.s 			page 25


 1090 01f8 1B01     		lsls	r3, r3, #4
 1091 01fa 1344     		add	r3, r3, r2
 1092 01fc 03F29513 		addw	r3, r3, #405
 1093 0200 1B78     		ldrb	r3, [r3]	@ zero_extendqisi2
 1094 0202 00FA03F3 		lsl	r3, r0, r3
 1095 0206 314A     		ldr	r2, .L54+60
 1096 0208 1360     		str	r3, [r2]
 270:..\src/utils.c ****         delta_inc = (delta_inc>0)?delta_inc:(0-delta_inc);
 1097              		.loc 1 270 0
 1098 020a 304B     		ldr	r3, .L54+60
 1099 020c 1B68     		ldr	r3, [r3]
 1100 020e 002B     		cmp	r3, #0
 1101 0210 B8BF     		it	lt
 1102 0212 5B42     		rsblt	r3, r3, #0
 1103 0214 2D4A     		ldr	r2, .L54+60
 1104 0216 1360     		str	r3, [r2]
 271:..\src/utils.c ****         
 272:..\src/utils.c ****         count = 0;
 1105              		.loc 1 272 0
 1106 0218 204B     		ldr	r3, .L54+12
 1107 021a 0022     		movs	r2, #0
 1108 021c 1A60     		str	r2, [r3]
 273:..\src/utils.c ****         flag_count = 0;
 1109              		.loc 1 273 0
 1110 021e 234B     		ldr	r3, .L54+28
 1111 0220 0022     		movs	r2, #0
 1112 0222 1A70     		strb	r2, [r3]
 1113              	.L45:
 274:..\src/utils.c ****     }
 275:..\src/utils.c ****     
 276:..\src/utils.c ****     if (rest_enabled){
 1114              		.loc 1 276 0
 1115 0224 224B     		ldr	r3, .L54+32
 1116 0226 1B78     		ldrb	r3, [r3]	@ zero_extendqisi2
 1117 0228 002B     		cmp	r3, #0
 1118 022a 79D0     		beq	.L46
 277:..\src/utils.c **** 
 278:..\src/utils.c ****         if (rest_error < abs_err_thr && rest_error > -abs_err_thr){
 1119              		.loc 1 278 0
 1120 022c 264B     		ldr	r3, .L54+56
 1121 022e 1A68     		ldr	r2, [r3]
 1122 0230 244B     		ldr	r3, .L54+52
 1123 0232 1B68     		ldr	r3, [r3]
 1124 0234 9A42     		cmp	r2, r3
 1125 0236 4DDA     		bge	.L47
 1126              		.loc 1 278 0 is_stmt 0 discriminator 1
 1127 0238 224B     		ldr	r3, .L54+52
 1128 023a 1B68     		ldr	r3, [r3]
 1129 023c 5A42     		negs	r2, r3
 1130 023e 224B     		ldr	r3, .L54+56
 1131 0240 1B68     		ldr	r3, [r3]
 1132 0242 9A42     		cmp	r2, r3
 1133 0244 46DA     		bge	.L47
 279:..\src/utils.c ****             // Stop condition
 280:..\src/utils.c ****             rest_pos_curr_ref = g_mem.SH.rest_pos;
 1134              		.loc 1 280 0 is_stmt 1
 1135 0246 124B     		ldr	r3, .L54
ARM GAS  C:\Users\Mattia\AppData\Local\Temp\ccUc3JYZ.s 			page 26


 1136 0248 D3F8A032 		ldr	r3, [r3, #672]
 1137 024c 1A4A     		ldr	r2, .L54+40
 1138 024e 1360     		str	r3, [r2]
 281:..\src/utils.c ****             
 282:..\src/utils.c ****             if (c_mem.motor[0].input_mode == INPUT_MODE_EMG_PROPORTIONAL || c_mem.motor[0].input_mo
 1139              		.loc 1 282 0
 1140 0250 144B     		ldr	r3, .L54+20
 1141 0252 93F80E31 		ldrb	r3, [r3, #270]	@ zero_extendqisi2
 1142 0256 022B     		cmp	r3, #2
 1143 0258 13D0     		beq	.L48
 1144              		.loc 1 282 0 is_stmt 0 discriminator 1
 1145 025a 124B     		ldr	r3, .L54+20
 1146 025c 93F80E31 		ldrb	r3, [r3, #270]	@ zero_extendqisi2
 1147 0260 032B     		cmp	r3, #3
 1148 0262 0ED0     		beq	.L48
 1149              		.loc 1 282 0 discriminator 2
 1150 0264 0F4B     		ldr	r3, .L54+20
 1151 0266 93F80E31 		ldrb	r3, [r3, #270]	@ zero_extendqisi2
 1152 026a 042B     		cmp	r3, #4
 1153 026c 09D0     		beq	.L48
 283:..\src/utils.c ****                 c_mem.motor[0].input_mode == INPUT_MODE_EMG_FCFS_ADV || c_mem.motor[0].input_mode =
 1154              		.loc 1 283 0 is_stmt 1 discriminator 3
 1155 026e 0D4B     		ldr	r3, .L54+20
 1156 0270 93F80E31 		ldrb	r3, [r3, #270]	@ zero_extendqisi2
 282:..\src/utils.c ****                 c_mem.motor[0].input_mode == INPUT_MODE_EMG_FCFS_ADV || c_mem.motor[0].input_mode =
 1157              		.loc 1 282 0 discriminator 3
 1158 0274 052B     		cmp	r3, #5
 1159 0276 04D0     		beq	.L48
 1160              		.loc 1 283 0
 1161 0278 0A4B     		ldr	r3, .L54+20
 1162 027a 93F80E31 		ldrb	r3, [r3, #270]	@ zero_extendqisi2
 1163 027e 072B     		cmp	r3, #7
 1164 0280 02D1     		bne	.L49
 1165              	.L48:
 284:..\src/utils.c ****                 forced_open = 1; 
 1166              		.loc 1 284 0
 1167 0282 134B     		ldr	r3, .L54+64
 1168 0284 0122     		movs	r2, #1
 1169 0286 1A70     		strb	r2, [r3]
 1170              	.L49:
 285:..\src/utils.c ****             
 286:..\src/utils.c ****             count = 0;
 1171              		.loc 1 286 0
 1172 0288 044B     		ldr	r3, .L54+12
 1173 028a 0022     		movs	r2, #0
 1174 028c 1A60     		str	r2, [r3]
 1175 028e 47E0     		b	.L46
 1176              	.L55:
 1177              		.align	2
 1178              	.L54:
 1179 0290 00000000 		.word	g_mem
 1180 0294 00007A44 		.word	1148846080
 1181 0298 00000000 		.word	first_time.10230
 1182 029c 14000000 		.word	count.10228
 1183 02a0 00000000 		.word	g_meas
 1184 02a4 00000000 		.word	c_mem
 1185 02a8 00000000 		.word	g_adc_meas
ARM GAS  C:\Users\Mattia\AppData\Local\Temp\ccUc3JYZ.s 			page 27


 1186 02ac 01000000 		.word	flag_count.10229
 1187 02b0 00000000 		.word	rest_enabled
 1188 02b4 67666666 		.word	1717986919
 1189 02b8 00000000 		.word	rest_pos_curr_ref
 1190 02bc 18000000 		.word	m.10231
 1191 02c0 00002041 		.word	1092616192
 1192 02c4 1C000000 		.word	abs_err_thr.10232
 1193 02c8 20000000 		.word	rest_error.10235
 1194 02cc 24000000 		.word	delta_inc.10233
 1195 02d0 00000000 		.word	forced_open
 1196              	.L47:
 287:..\src/utils.c ****         }
 288:..\src/utils.c ****         else {
 289:..\src/utils.c ****             rest_error = g_mem.SH.rest_pos - g_meas[g_mem.motor[0].encoder_line].pos[0];        
 1197              		.loc 1 289 0
 1198 02d4 234B     		ldr	r3, .L56
 1199 02d6 D3F8A022 		ldr	r2, [r3, #672]
 1200 02da 224B     		ldr	r3, .L56
 1201 02dc 93F81031 		ldrb	r3, [r3, #272]	@ zero_extendqisi2
 1202 02e0 1846     		mov	r0, r3
 1203 02e2 2149     		ldr	r1, .L56+4
 1204 02e4 3423     		movs	r3, #52
 1205 02e6 03FB00F3 		mul	r3, r3, r0
 1206 02ea 0B44     		add	r3, r3, r1
 1207 02ec 1B68     		ldr	r3, [r3]
 1208 02ee D31A     		subs	r3, r2, r3
 1209 02f0 1E4A     		ldr	r2, .L56+8
 1210 02f2 1360     		str	r3, [r2]
 290:..\src/utils.c **** 
 291:..\src/utils.c ****             if (rest_error > 0){
 1211              		.loc 1 291 0
 1212 02f4 1D4B     		ldr	r3, .L56+8
 1213 02f6 1B68     		ldr	r3, [r3]
 1214 02f8 002B     		cmp	r3, #0
 1215 02fa 06DD     		ble	.L50
 292:..\src/utils.c ****                 rest_pos_curr_ref = rest_pos_curr_ref + delta_inc;
 1216              		.loc 1 292 0
 1217 02fc 1C4B     		ldr	r3, .L56+12
 1218 02fe 1A68     		ldr	r2, [r3]
 1219 0300 1C4B     		ldr	r3, .L56+16
 1220 0302 1B68     		ldr	r3, [r3]
 1221 0304 1344     		add	r3, r3, r2
 1222 0306 1A4A     		ldr	r2, .L56+12
 1223 0308 1360     		str	r3, [r2]
 1224              	.L50:
 293:..\src/utils.c ****             }
 294:..\src/utils.c ****             if (rest_error < 0){
 1225              		.loc 1 294 0
 1226 030a 184B     		ldr	r3, .L56+8
 1227 030c 1B68     		ldr	r3, [r3]
 1228 030e 002B     		cmp	r3, #0
 1229 0310 06DA     		bge	.L46
 295:..\src/utils.c ****                 rest_pos_curr_ref = rest_pos_curr_ref - delta_inc;
 1230              		.loc 1 295 0
 1231 0312 174B     		ldr	r3, .L56+12
 1232 0314 1A68     		ldr	r2, [r3]
 1233 0316 174B     		ldr	r3, .L56+16
ARM GAS  C:\Users\Mattia\AppData\Local\Temp\ccUc3JYZ.s 			page 28


 1234 0318 1B68     		ldr	r3, [r3]
 1235 031a D31A     		subs	r3, r2, r3
 1236 031c 144A     		ldr	r2, .L56+12
 1237 031e 1360     		str	r3, [r2]
 1238              	.L46:
 296:..\src/utils.c ****             }
 297:..\src/utils.c ****         } 
 298:..\src/utils.c ****     }
 299:..\src/utils.c ****     
 300:..\src/utils.c ****     // Position limit saturation
 301:..\src/utils.c ****     if (c_mem.motor[0].pos_lim_flag) {
 1239              		.loc 1 301 0
 1240 0320 154B     		ldr	r3, .L56+20
 1241 0322 93F8E330 		ldrb	r3, [r3, #227]	@ zero_extendqisi2
 1242 0326 002B     		cmp	r3, #0
 1243 0328 17D0     		beq	.L53
 302:..\src/utils.c ****         if (rest_pos_curr_ref < c_mem.motor[0].pos_lim_inf) 
 1244              		.loc 1 302 0
 1245 032a 134B     		ldr	r3, .L56+20
 1246 032c D3F8E420 		ldr	r2, [r3, #228]
 1247 0330 0F4B     		ldr	r3, .L56+12
 1248 0332 1B68     		ldr	r3, [r3]
 1249 0334 9A42     		cmp	r2, r3
 1250 0336 04DD     		ble	.L52
 303:..\src/utils.c ****             rest_pos_curr_ref = c_mem.motor[0].pos_lim_inf;
 1251              		.loc 1 303 0
 1252 0338 0F4B     		ldr	r3, .L56+20
 1253 033a D3F8E430 		ldr	r3, [r3, #228]
 1254 033e 0C4A     		ldr	r2, .L56+12
 1255 0340 1360     		str	r3, [r2]
 1256              	.L52:
 304:..\src/utils.c ****         if (rest_pos_curr_ref > c_mem.motor[0].pos_lim_sup) 
 1257              		.loc 1 304 0
 1258 0342 0D4B     		ldr	r3, .L56+20
 1259 0344 D3F8E820 		ldr	r2, [r3, #232]
 1260 0348 094B     		ldr	r3, .L56+12
 1261 034a 1B68     		ldr	r3, [r3]
 1262 034c 9A42     		cmp	r2, r3
 1263 034e 04DA     		bge	.L53
 305:..\src/utils.c ****             rest_pos_curr_ref = c_mem.motor[0].pos_lim_sup;
 1264              		.loc 1 305 0
 1265 0350 094B     		ldr	r3, .L56+20
 1266 0352 D3F8E830 		ldr	r3, [r3, #232]
 1267 0356 064A     		ldr	r2, .L56+12
 1268 0358 1360     		str	r3, [r2]
 1269              	.L53:
 306:..\src/utils.c ****     }
 307:..\src/utils.c **** 
 308:..\src/utils.c **** }
 1270              		.loc 1 308 0
 1271 035a 00BF     		nop
 1272 035c 0C37     		adds	r7, r7, #12
 1273              		.cfi_def_cfa_offset 12
 1274 035e BD46     		mov	sp, r7
 1275              		.cfi_def_cfa_register 13
 1276              		@ sp needed
 1277 0360 90BD     		pop	{r4, r7, pc}
ARM GAS  C:\Users\Mattia\AppData\Local\Temp\ccUc3JYZ.s 			page 29


 1278              	.L57:
 1279 0362 00BF     		.align	2
 1280              	.L56:
 1281 0364 00000000 		.word	g_mem
 1282 0368 00000000 		.word	g_meas
 1283 036c 20000000 		.word	rest_error.10235
 1284 0370 00000000 		.word	rest_pos_curr_ref
 1285 0374 24000000 		.word	delta_inc.10233
 1286 0378 00000000 		.word	c_mem
 1287              		.cfi_endproc
 1288              	.LFE70:
 1289              		.size	check_rest_position, .-check_rest_position
 1290              		.section	.text.LED_control,"ax",%progbits
 1291              		.align	2
 1292              		.global	LED_control
 1293              		.thumb
 1294              		.thumb_func
 1295              		.type	LED_control, %function
 1296              	LED_control:
 1297              	.LFB71:
 309:..\src/utils.c **** 
 310:..\src/utils.c **** //==============================================================================
 311:..\src/utils.c **** //                                                                   LED CONTROL
 312:..\src/utils.c **** //==============================================================================
 313:..\src/utils.c **** 
 314:..\src/utils.c **** void LED_control(uint8 mode) {
 1298              		.loc 1 314 0
 1299              		.cfi_startproc
 1300              		@ args = 0, pretend = 0, frame = 8
 1301              		@ frame_needed = 1, uses_anonymous_args = 0
 1302 0000 80B5     		push	{r7, lr}
 1303              		.cfi_def_cfa_offset 8
 1304              		.cfi_offset 7, -8
 1305              		.cfi_offset 14, -4
 1306 0002 82B0     		sub	sp, sp, #8
 1307              		.cfi_def_cfa_offset 16
 1308 0004 00AF     		add	r7, sp, #0
 1309              		.cfi_def_cfa_register 7
 1310 0006 0346     		mov	r3, r0
 1311 0008 FB71     		strb	r3, [r7, #7]
 315:..\src/utils.c ****     
 316:..\src/utils.c ****     switch (mode) {
 1312              		.loc 1 316 0
 1313 000a FB79     		ldrb	r3, [r7, #7]	@ zero_extendqisi2
 1314 000c 052B     		cmp	r3, #5
 1315 000e 39D8     		bhi	.L68
 1316 0010 01A2     		adr	r2, .L61
 1317 0012 52F823F0 		ldr	pc, [r2, r3, lsl #2]
 1318 0016 00BF     		.p2align 2
 1319              	.L61:
 1320 0018 31000000 		.word	.L60+1
 1321 001c 3F000000 		.word	.L62+1
 1322 0020 4D000000 		.word	.L63+1
 1323 0024 5B000000 		.word	.L64+1
 1324 0028 69000000 		.word	.L65+1
 1325 002c 77000000 		.word	.L66+1
 1326              		.p2align 1
ARM GAS  C:\Users\Mattia\AppData\Local\Temp\ccUc3JYZ.s 			page 30


 1327              	.L60:
 317:..\src/utils.c ****         
 318:..\src/utils.c ****         case 0:     //All LEDs off
 319:..\src/utils.c ****             LED_CTRL_Write(0);
 1328              		.loc 1 319 0
 1329 0030 0020     		movs	r0, #0
 1330 0032 FFF7FEFF 		bl	LED_CTRL_Write
 320:..\src/utils.c ****             BLINK_CTRL_EN_Write(0);
 1331              		.loc 1 320 0
 1332 0036 0020     		movs	r0, #0
 1333 0038 FFF7FEFF 		bl	BLINK_CTRL_EN_Write
 321:..\src/utils.c ****             break;
 1334              		.loc 1 321 0
 1335 003c 23E0     		b	.L67
 1336              	.L62:
 322:..\src/utils.c ****         case 1:     // Green fixed light
 323:..\src/utils.c ****             LED_CTRL_Write(2);
 1337              		.loc 1 323 0
 1338 003e 0220     		movs	r0, #2
 1339 0040 FFF7FEFF 		bl	LED_CTRL_Write
 324:..\src/utils.c ****             BLINK_CTRL_EN_Write(0);
 1340              		.loc 1 324 0
 1341 0044 0020     		movs	r0, #0
 1342 0046 FFF7FEFF 		bl	BLINK_CTRL_EN_Write
 325:..\src/utils.c ****             break;
 1343              		.loc 1 325 0
 1344 004a 1CE0     		b	.L67
 1345              	.L63:
 326:..\src/utils.c ****             
 327:..\src/utils.c ****         case 2:     // Yellow flashing light @ 0.5 Hz
 328:..\src/utils.c ****             LED_CTRL_Write(0);
 1346              		.loc 1 328 0
 1347 004c 0020     		movs	r0, #0
 1348 004e FFF7FEFF 		bl	LED_CTRL_Write
 329:..\src/utils.c ****             BLINK_CTRL_EN_Write(1);        
 1349              		.loc 1 329 0
 1350 0052 0120     		movs	r0, #1
 1351 0054 FFF7FEFF 		bl	BLINK_CTRL_EN_Write
 330:..\src/utils.c ****             break;
 1352              		.loc 1 330 0
 1353 0058 15E0     		b	.L67
 1354              	.L64:
 331:..\src/utils.c ****             
 332:..\src/utils.c ****         case 3:     // Red flashing light @ 2.5 Hz
 333:..\src/utils.c ****             LED_CTRL_Write(0);
 1355              		.loc 1 333 0
 1356 005a 0020     		movs	r0, #0
 1357 005c FFF7FEFF 		bl	LED_CTRL_Write
 334:..\src/utils.c ****             BLINK_CTRL_EN_Write(2);        
 1358              		.loc 1 334 0
 1359 0060 0220     		movs	r0, #2
 1360 0062 FFF7FEFF 		bl	BLINK_CTRL_EN_Write
 335:..\src/utils.c ****             break;
 1361              		.loc 1 335 0
 1362 0066 0EE0     		b	.L67
 1363              	.L65:
 336:..\src/utils.c ****             
ARM GAS  C:\Users\Mattia\AppData\Local\Temp\ccUc3JYZ.s 			page 31


 337:..\src/utils.c ****         case 4:     // Yellow fixed light - maintenance
 338:..\src/utils.c ****             LED_CTRL_Write(3);
 1364              		.loc 1 338 0
 1365 0068 0320     		movs	r0, #3
 1366 006a FFF7FEFF 		bl	LED_CTRL_Write
 339:..\src/utils.c ****             BLINK_CTRL_EN_Write(0);        
 1367              		.loc 1 339 0
 1368 006e 0020     		movs	r0, #0
 1369 0070 FFF7FEFF 		bl	BLINK_CTRL_EN_Write
 340:..\src/utils.c ****             break;
 1370              		.loc 1 340 0
 1371 0074 07E0     		b	.L67
 1372              	.L66:
 341:..\src/utils.c ****         
 342:..\src/utils.c ****         case 5:     // Red fixed light - uUSB power
 343:..\src/utils.c ****             LED_CTRL_Write(1);
 1373              		.loc 1 343 0
 1374 0076 0120     		movs	r0, #1
 1375 0078 FFF7FEFF 		bl	LED_CTRL_Write
 344:..\src/utils.c ****             BLINK_CTRL_EN_Write(0);        
 1376              		.loc 1 344 0
 1377 007c 0020     		movs	r0, #0
 1378 007e FFF7FEFF 		bl	BLINK_CTRL_EN_Write
 345:..\src/utils.c ****             break; 
 1379              		.loc 1 345 0
 1380 0082 00E0     		b	.L67
 1381              	.L68:
 346:..\src/utils.c ****             
 347:..\src/utils.c ****         default:
 348:..\src/utils.c ****             break;
 1382              		.loc 1 348 0
 1383 0084 00BF     		nop
 1384              	.L67:
 349:..\src/utils.c ****     }   
 350:..\src/utils.c **** }
 1385              		.loc 1 350 0
 1386 0086 00BF     		nop
 1387 0088 0837     		adds	r7, r7, #8
 1388              		.cfi_def_cfa_offset 8
 1389 008a BD46     		mov	sp, r7
 1390              		.cfi_def_cfa_register 13
 1391              		@ sp needed
 1392 008c 80BD     		pop	{r7, pc}
 1393              		.cfi_endproc
 1394              	.LFE71:
 1395              		.size	LED_control, .-LED_control
 1396              		.global	__aeabi_i2d
 1397              		.global	__aeabi_dmul
 1398              		.global	__aeabi_dcmpgt
 1399 008e 00BF     		.section	.text.battery_management,"ax",%progbits
 1400              		.align	2
 1401              		.global	battery_management
 1402              		.thumb
 1403              		.thumb_func
 1404              		.type	battery_management, %function
 1405              	battery_management:
 1406              	.LFB72:
ARM GAS  C:\Users\Mattia\AppData\Local\Temp\ccUc3JYZ.s 			page 32


 351:..\src/utils.c **** 
 352:..\src/utils.c **** 
 353:..\src/utils.c **** //==============================================================================
 354:..\src/utils.c **** //                                                            BATTERY MANAGEMENT
 355:..\src/utils.c **** //==============================================================================
 356:..\src/utils.c **** void battery_management() {
 1407              		.loc 1 356 0
 1408              		.cfi_startproc
 1409              		@ args = 0, pretend = 0, frame = 0
 1410              		@ frame_needed = 1, uses_anonymous_args = 0
 1411 0000 B0B5     		push	{r4, r5, r7, lr}
 1412              		.cfi_def_cfa_offset 16
 1413              		.cfi_offset 4, -16
 1414              		.cfi_offset 5, -12
 1415              		.cfi_offset 7, -8
 1416              		.cfi_offset 14, -4
 1417 0002 00AF     		add	r7, sp, #0
 1418              		.cfi_def_cfa_register 7
 357:..\src/utils.c ****     static uint32 v_count_lb = 0;
 358:..\src/utils.c ****     
 359:..\src/utils.c ****     // LED handling procedure
 360:..\src/utils.c ****     // The board LED blinks if attached battery is not fully charged
 361:..\src/utils.c **** 
 362:..\src/utils.c ****     if (battery_low_SoC) {
 1419              		.loc 1 362 0
 1420 0004 AC4B     		ldr	r3, .L97+16
 1421 0006 1B78     		ldrb	r3, [r3]	@ zero_extendqisi2
 1422 0008 002B     		cmp	r3, #0
 1423 000a 27D0     		beq	.L70
 363:..\src/utils.c ****         
 364:..\src/utils.c ****         //red light - blink @ 2.5 Hz
 365:..\src/utils.c ****         LED_control(3);
 1424              		.loc 1 365 0
 1425 000c 0320     		movs	r0, #3
 1426 000e FFF7FEFF 		bl	LED_control
 366:..\src/utils.c ****                 
 367:..\src/utils.c ****         rest_enabled = 0;
 1427              		.loc 1 367 0
 1428 0012 AA4B     		ldr	r3, .L97+20
 1429 0014 0022     		movs	r2, #0
 1430 0016 1A70     		strb	r2, [r3]
 368:..\src/utils.c ****         if (v_count_lb >= 11000){
 1431              		.loc 1 368 0
 1432 0018 A94B     		ldr	r3, .L97+24
 1433 001a 1B68     		ldr	r3, [r3]
 1434 001c 42F6F722 		movw	r2, #10999
 1435 0020 9342     		cmp	r3, r2
 1436 0022 15D9     		bls	.L71
 369:..\src/utils.c ****             // Disable motor because we are sure of not fully charged battery and terminal device h
 370:..\src/utils.c ****             g_refNew[0].onoff = 0x00;
 1437              		.loc 1 370 0
 1438 0024 A74B     		ldr	r3, .L97+28
 1439 0026 0022     		movs	r2, #0
 1440 0028 1A73     		strb	r2, [r3, #12]
 371:..\src/utils.c ****             enable_motor(0, g_refNew[0].onoff);
 1441              		.loc 1 371 0
 1442 002a A64B     		ldr	r3, .L97+28
ARM GAS  C:\Users\Mattia\AppData\Local\Temp\ccUc3JYZ.s 			page 33


 1443 002c 1B7B     		ldrb	r3, [r3, #12]	@ zero_extendqisi2
 1444 002e 1946     		mov	r1, r3
 1445 0030 0020     		movs	r0, #0
 1446 0032 FFF7FEFF 		bl	enable_motor
 372:..\src/utils.c ****             g_refNew[1].onoff = 0x00;
 1447              		.loc 1 372 0
 1448 0036 A34B     		ldr	r3, .L97+28
 1449 0038 0022     		movs	r2, #0
 1450 003a 1A77     		strb	r2, [r3, #28]
 373:..\src/utils.c ****             enable_motor(1, g_refNew[1].onoff);     // Deactivate motor
 1451              		.loc 1 373 0
 1452 003c A14B     		ldr	r3, .L97+28
 1453 003e 1B7F     		ldrb	r3, [r3, #28]	@ zero_extendqisi2
 1454 0040 1946     		mov	r1, r3
 1455 0042 0120     		movs	r0, #1
 1456 0044 FFF7FEFF 		bl	enable_motor
 374:..\src/utils.c ****             v_count_lb = 0;
 1457              		.loc 1 374 0
 1458 0048 9D4B     		ldr	r3, .L97+24
 1459 004a 0022     		movs	r2, #0
 1460 004c 1A60     		str	r2, [r3]
 375:..\src/utils.c ****         }
 376:..\src/utils.c ****         else
 377:..\src/utils.c ****             v_count_lb = v_count_lb + 1;
 378:..\src/utils.c ****         
 379:..\src/utils.c ****     }
 380:..\src/utils.c ****     else {
 381:..\src/utils.c **** 
 382:..\src/utils.c ****         // The board LED is still or blinks depending on attached battery State of Charge
 383:..\src/utils.c ****         if (tension_valid == TRUE && (( c_mem.motor[0].input_mode == INPUT_MODE_EXTERNAL || c_mem.m
 384:..\src/utils.c ****             ( (c_mem.motor[0].input_mode == INPUT_MODE_EMG_PROPORTIONAL || c_mem.motor[0].input_mod
 385:..\src/utils.c ****                c_mem.motor[0].input_mode == INPUT_MODE_EMG_FCFS_ADV || c_mem.motor[0].input_mode ==
 386:..\src/utils.c ****                 emg_1_status == NORMAL && emg_2_status == NORMAL)) ){ 
 387:..\src/utils.c ****             dev_tension_f[0] = filter(dev_tension[0], &filt_v[0]);            
 388:..\src/utils.c ****             if (c_mem.dev.use_2nd_motor_flag == TRUE) {
 389:..\src/utils.c ****                 dev_tension_f[1] = filter(dev_tension[1], &filt_v[1]);
 390:..\src/utils.c ****             }
 391:..\src/utils.c ****             
 392:..\src/utils.c ****             // Note: Sometimes pow_tension is not well computed when using power supply
 393:..\src/utils.c ****             // Parrot/Renata: 0.9, 0.87
 394:..\src/utils.c ****             // ARTS: 0.87, 0.8
 395:..\src/utils.c ****             if (dev_tension_f[0] > 0.95 * pow_tension[0] && (c_mem.dev.use_2nd_motor_flag == FALSE 
 396:..\src/utils.c ****                 //fixed
 397:..\src/utils.c ****                 if (!maintenance_flag)
 398:..\src/utils.c ****                     LED_control(0);     // NO LIGHT - all leds off
 399:..\src/utils.c ****                 else
 400:..\src/utils.c ****                     LED_control(4);     // yellow light - fixed
 401:..\src/utils.c ****             }
 402:..\src/utils.c ****             
 403:..\src/utils.c ****             else {
 404:..\src/utils.c ****                 if (dev_tension_f[0] > 0.9 * pow_tension[0] && (c_mem.dev.use_2nd_motor_flag == FAL
 405:..\src/utils.c ****                     //yellow light - blink @ 0.5 Hz
 406:..\src/utils.c ****                     //LED_control(2);   
 407:..\src/utils.c ****                     
 408:..\src/utils.c ****                     if (!maintenance_flag)
 409:..\src/utils.c ****                         LED_control(0);     // NO LIGHT - all leds off
 410:..\src/utils.c ****                     else
ARM GAS  C:\Users\Mattia\AppData\Local\Temp\ccUc3JYZ.s 			page 34


 411:..\src/utils.c ****                         LED_control(4);     // yellow light - fixed
 412:..\src/utils.c ****                     
 413:..\src/utils.c ****                     v_count_lb = 0;    // Reset counter whenever battery is not totally out of char
 414:..\src/utils.c ****                 }
 415:..\src/utils.c ****                 else {
 416:..\src/utils.c ****                     //red light - blink @ 2.5 Hz
 417:..\src/utils.c ****                     //LED_control(3);
 418:..\src/utils.c ****                 
 419:..\src/utils.c ****                     if (v_count_lb >= 10000){                    
 420:..\src/utils.c ****                         
 421:..\src/utils.c ****                         //battery_low_SoC = TRUE;     //[MP] Uncomment for softhand 2 motors
 422:..\src/utils.c ****                         
 423:..\src/utils.c ****                         //red light - blink @ 2.5 Hz
 424:..\src/utils.c ****                         LED_control(3);
 425:..\src/utils.c ****                         
 426:..\src/utils.c ****                         rest_enabled = 0;
 427:..\src/utils.c ****                     }
 428:..\src/utils.c ****                     else{
 429:..\src/utils.c ****                         v_count_lb = v_count_lb + 1;
 430:..\src/utils.c ****                     }                
 431:..\src/utils.c ****                 }
 432:..\src/utils.c ****             }
 433:..\src/utils.c ****             
 434:..\src/utils.c ****         }
 435:..\src/utils.c ****         else {
 436:..\src/utils.c ****             if ((c_mem.motor[0].input_mode == INPUT_MODE_EXTERNAL || c_mem.motor[0].input_mode == I
 437:..\src/utils.c ****                 ((c_mem.motor[0].input_mode == INPUT_MODE_EMG_PROPORTIONAL || c_mem.motor[0].input_
 438:..\src/utils.c ****                   c_mem.motor[0].input_mode == INPUT_MODE_EMG_FCFS_ADV || c_mem.motor[0].input_mode
 439:..\src/utils.c ****                 LED_control(5);     // Default - red light
 440:..\src/utils.c ****             }
 441:..\src/utils.c ****         }
 442:..\src/utils.c ****     }  
 443:..\src/utils.c **** }
 1461              		.loc 1 443 0
 1462 004e 29E1     		b	.L96
 1463              	.L71:
 377:..\src/utils.c ****         
 1464              		.loc 1 377 0
 1465 0050 9B4B     		ldr	r3, .L97+24
 1466 0052 1B68     		ldr	r3, [r3]
 1467 0054 0133     		adds	r3, r3, #1
 1468 0056 9A4A     		ldr	r2, .L97+24
 1469 0058 1360     		str	r3, [r2]
 1470              		.loc 1 443 0
 1471 005a 23E1     		b	.L96
 1472              	.L70:
 383:..\src/utils.c ****             ( (c_mem.motor[0].input_mode == INPUT_MODE_EMG_PROPORTIONAL || c_mem.motor[0].input_mod
 1473              		.loc 1 383 0
 1474 005c 9A4B     		ldr	r3, .L97+32
 1475 005e 1B78     		ldrb	r3, [r3]	@ zero_extendqisi2
 1476 0060 012B     		cmp	r3, #1
 1477 0062 40F0EB80 		bne	.L74
 383:..\src/utils.c ****             ( (c_mem.motor[0].input_mode == INPUT_MODE_EMG_PROPORTIONAL || c_mem.motor[0].input_mod
 1478              		.loc 1 383 0 is_stmt 0 discriminator 1
 1479 0066 994B     		ldr	r3, .L97+36
 1480 0068 93F80E31 		ldrb	r3, [r3, #270]	@ zero_extendqisi2
 1481 006c 002B     		cmp	r3, #0
ARM GAS  C:\Users\Mattia\AppData\Local\Temp\ccUc3JYZ.s 			page 35


 1482 006e 2DD0     		beq	.L75
 383:..\src/utils.c ****             ( (c_mem.motor[0].input_mode == INPUT_MODE_EMG_PROPORTIONAL || c_mem.motor[0].input_mod
 1483              		.loc 1 383 0 discriminator 2
 1484 0070 964B     		ldr	r3, .L97+36
 1485 0072 93F80E31 		ldrb	r3, [r3, #270]	@ zero_extendqisi2
 1486 0076 012B     		cmp	r3, #1
 1487 0078 28D0     		beq	.L75
 383:..\src/utils.c ****             ( (c_mem.motor[0].input_mode == INPUT_MODE_EMG_PROPORTIONAL || c_mem.motor[0].input_mod
 1488              		.loc 1 383 0 discriminator 3
 1489 007a 944B     		ldr	r3, .L97+36
 1490 007c 93F80E31 		ldrb	r3, [r3, #270]	@ zero_extendqisi2
 1491 0080 062B     		cmp	r3, #6
 1492 0082 23D0     		beq	.L75
 384:..\src/utils.c ****                c_mem.motor[0].input_mode == INPUT_MODE_EMG_FCFS_ADV || c_mem.motor[0].input_mode ==
 1493              		.loc 1 384 0 is_stmt 1 discriminator 4
 1494 0084 914B     		ldr	r3, .L97+36
 1495 0086 93F80E31 		ldrb	r3, [r3, #270]	@ zero_extendqisi2
 383:..\src/utils.c ****             ( (c_mem.motor[0].input_mode == INPUT_MODE_EMG_PROPORTIONAL || c_mem.motor[0].input_mod
 1496              		.loc 1 383 0 discriminator 4
 1497 008a 022B     		cmp	r3, #2
 1498 008c 14D0     		beq	.L76
 384:..\src/utils.c ****                c_mem.motor[0].input_mode == INPUT_MODE_EMG_FCFS_ADV || c_mem.motor[0].input_mode ==
 1499              		.loc 1 384 0
 1500 008e 8F4B     		ldr	r3, .L97+36
 1501 0090 93F80E31 		ldrb	r3, [r3, #270]	@ zero_extendqisi2
 1502 0094 032B     		cmp	r3, #3
 1503 0096 0FD0     		beq	.L76
 384:..\src/utils.c ****                c_mem.motor[0].input_mode == INPUT_MODE_EMG_FCFS_ADV || c_mem.motor[0].input_mode ==
 1504              		.loc 1 384 0 is_stmt 0 discriminator 1
 1505 0098 8C4B     		ldr	r3, .L97+36
 1506 009a 93F80E31 		ldrb	r3, [r3, #270]	@ zero_extendqisi2
 1507 009e 042B     		cmp	r3, #4
 1508 00a0 0AD0     		beq	.L76
 385:..\src/utils.c ****                 emg_1_status == NORMAL && emg_2_status == NORMAL)) ){ 
 1509              		.loc 1 385 0 is_stmt 1 discriminator 2
 1510 00a2 8A4B     		ldr	r3, .L97+36
 1511 00a4 93F80E31 		ldrb	r3, [r3, #270]	@ zero_extendqisi2
 384:..\src/utils.c ****                c_mem.motor[0].input_mode == INPUT_MODE_EMG_FCFS_ADV || c_mem.motor[0].input_mode ==
 1512              		.loc 1 384 0 discriminator 2
 1513 00a8 052B     		cmp	r3, #5
 1514 00aa 05D0     		beq	.L76
 385:..\src/utils.c ****                 emg_1_status == NORMAL && emg_2_status == NORMAL)) ){ 
 1515              		.loc 1 385 0
 1516 00ac 874B     		ldr	r3, .L97+36
 1517 00ae 93F80E31 		ldrb	r3, [r3, #270]	@ zero_extendqisi2
 1518 00b2 072B     		cmp	r3, #7
 1519 00b4 40F0C280 		bne	.L74
 1520              	.L76:
 386:..\src/utils.c ****             dev_tension_f[0] = filter(dev_tension[0], &filt_v[0]);            
 1521              		.loc 1 386 0 discriminator 1
 1522 00b8 854B     		ldr	r3, .L97+40
 1523 00ba 1B78     		ldrb	r3, [r3]	@ zero_extendqisi2
 385:..\src/utils.c ****                 emg_1_status == NORMAL && emg_2_status == NORMAL)) ){ 
 1524              		.loc 1 385 0 discriminator 1
 1525 00bc 002B     		cmp	r3, #0
 1526 00be 40F0BD80 		bne	.L74
 386:..\src/utils.c ****             dev_tension_f[0] = filter(dev_tension[0], &filt_v[0]);            
ARM GAS  C:\Users\Mattia\AppData\Local\Temp\ccUc3JYZ.s 			page 36


 1527              		.loc 1 386 0
 1528 00c2 844B     		ldr	r3, .L97+44
 1529 00c4 1B78     		ldrb	r3, [r3]	@ zero_extendqisi2
 1530 00c6 002B     		cmp	r3, #0
 1531 00c8 40F0B880 		bne	.L74
 1532              	.L75:
 387:..\src/utils.c ****             if (c_mem.dev.use_2nd_motor_flag == TRUE) {
 1533              		.loc 1 387 0
 1534 00cc 824B     		ldr	r3, .L97+48
 1535 00ce 1B68     		ldr	r3, [r3]
 1536 00d0 8249     		ldr	r1, .L97+52
 1537 00d2 1846     		mov	r0, r3
 1538 00d4 FFF7FEFF 		bl	filter
 1539 00d8 0246     		mov	r2, r0
 1540 00da 814B     		ldr	r3, .L97+56
 1541 00dc 1A60     		str	r2, [r3]
 388:..\src/utils.c ****                 dev_tension_f[1] = filter(dev_tension[1], &filt_v[1]);
 1542              		.loc 1 388 0
 1543 00de 7B4B     		ldr	r3, .L97+36
 1544 00e0 93F8A930 		ldrb	r3, [r3, #169]	@ zero_extendqisi2
 1545 00e4 012B     		cmp	r3, #1
 1546 00e6 08D1     		bne	.L77
 389:..\src/utils.c ****             }
 1547              		.loc 1 389 0
 1548 00e8 7B4B     		ldr	r3, .L97+48
 1549 00ea 5B68     		ldr	r3, [r3, #4]
 1550 00ec 7D49     		ldr	r1, .L97+60
 1551 00ee 1846     		mov	r0, r3
 1552 00f0 FFF7FEFF 		bl	filter
 1553 00f4 0246     		mov	r2, r0
 1554 00f6 7A4B     		ldr	r3, .L97+56
 1555 00f8 5A60     		str	r2, [r3, #4]
 1556              	.L77:
 395:..\src/utils.c ****                 //fixed
 1557              		.loc 1 395 0
 1558 00fa 794B     		ldr	r3, .L97+56
 1559 00fc 1B68     		ldr	r3, [r3]
 1560 00fe 1846     		mov	r0, r3
 1561 0100 FFF7FEFF 		bl	__aeabi_i2d
 1562 0104 0446     		mov	r4, r0
 1563 0106 0D46     		mov	r5, r1
 1564 0108 774B     		ldr	r3, .L97+64
 1565 010a 1B68     		ldr	r3, [r3]
 1566 010c 1846     		mov	r0, r3
 1567 010e FFF7FEFF 		bl	__aeabi_i2d
 1568 0112 65A3     		adr	r3, .L97
 1569 0114 D3E90023 		ldrd	r2, [r3]
 1570 0118 FFF7FEFF 		bl	__aeabi_dmul
 1571 011c 0246     		mov	r2, r0
 1572 011e 0B46     		mov	r3, r1
 1573 0120 2046     		mov	r0, r4
 1574 0122 2946     		mov	r1, r5
 1575 0124 FFF7FEFF 		bl	__aeabi_dcmpgt
 1576 0128 0346     		mov	r3, r0
 1577 012a 002B     		cmp	r3, #0
 1578 012c 2AD0     		beq	.L78
 395:..\src/utils.c ****                 //fixed
ARM GAS  C:\Users\Mattia\AppData\Local\Temp\ccUc3JYZ.s 			page 37


 1579              		.loc 1 395 0 is_stmt 0 discriminator 1
 1580 012e 674B     		ldr	r3, .L97+36
 1581 0130 93F8A930 		ldrb	r3, [r3, #169]	@ zero_extendqisi2
 1582 0134 002B     		cmp	r3, #0
 1583 0136 19D0     		beq	.L80
 395:..\src/utils.c ****                 //fixed
 1584              		.loc 1 395 0 discriminator 2
 1585 0138 694B     		ldr	r3, .L97+56
 1586 013a 5B68     		ldr	r3, [r3, #4]
 1587 013c 1846     		mov	r0, r3
 1588 013e FFF7FEFF 		bl	__aeabi_i2d
 1589 0142 0446     		mov	r4, r0
 1590 0144 0D46     		mov	r5, r1
 1591 0146 684B     		ldr	r3, .L97+64
 1592 0148 5B68     		ldr	r3, [r3, #4]
 1593 014a 1846     		mov	r0, r3
 1594 014c FFF7FEFF 		bl	__aeabi_i2d
 1595 0150 55A3     		adr	r3, .L97
 1596 0152 D3E90023 		ldrd	r2, [r3]
 1597 0156 FFF7FEFF 		bl	__aeabi_dmul
 1598 015a 0246     		mov	r2, r0
 1599 015c 0B46     		mov	r3, r1
 1600 015e 2046     		mov	r0, r4
 1601 0160 2946     		mov	r1, r5
 1602 0162 FFF7FEFF 		bl	__aeabi_dcmpgt
 1603 0166 0346     		mov	r3, r0
 1604 0168 002B     		cmp	r3, #0
 1605 016a 0BD0     		beq	.L78
 1606              	.L80:
 397:..\src/utils.c ****                     LED_control(0);     // NO LIGHT - all leds off
 1607              		.loc 1 397 0 is_stmt 1
 1608 016c 5F4B     		ldr	r3, .L97+68
 1609 016e 1B78     		ldrb	r3, [r3]	@ zero_extendqisi2
 1610 0170 002B     		cmp	r3, #0
 1611 0172 03D1     		bne	.L82
 398:..\src/utils.c ****                 else
 1612              		.loc 1 398 0
 1613 0174 0020     		movs	r0, #0
 1614 0176 FFF7FEFF 		bl	LED_control
 397:..\src/utils.c ****                     LED_control(0);     // NO LIGHT - all leds off
 1615              		.loc 1 397 0
 1616 017a 5EE0     		b	.L84
 1617              	.L82:
 400:..\src/utils.c ****             }
 1618              		.loc 1 400 0
 1619 017c 0420     		movs	r0, #4
 1620 017e FFF7FEFF 		bl	LED_control
 397:..\src/utils.c ****                     LED_control(0);     // NO LIGHT - all leds off
 1621              		.loc 1 397 0
 1622 0182 5AE0     		b	.L84
 1623              	.L78:
 404:..\src/utils.c ****                     //yellow light - blink @ 0.5 Hz
 1624              		.loc 1 404 0
 1625 0184 564B     		ldr	r3, .L97+56
 1626 0186 1B68     		ldr	r3, [r3]
 1627 0188 1846     		mov	r0, r3
 1628 018a FFF7FEFF 		bl	__aeabi_i2d
ARM GAS  C:\Users\Mattia\AppData\Local\Temp\ccUc3JYZ.s 			page 38


 1629 018e 0446     		mov	r4, r0
 1630 0190 0D46     		mov	r5, r1
 1631 0192 554B     		ldr	r3, .L97+64
 1632 0194 1B68     		ldr	r3, [r3]
 1633 0196 1846     		mov	r0, r3
 1634 0198 FFF7FEFF 		bl	__aeabi_i2d
 1635 019c 44A3     		adr	r3, .L97+8
 1636 019e D3E90023 		ldrd	r2, [r3]
 1637 01a2 FFF7FEFF 		bl	__aeabi_dmul
 1638 01a6 0246     		mov	r2, r0
 1639 01a8 0B46     		mov	r3, r1
 1640 01aa 2046     		mov	r0, r4
 1641 01ac 2946     		mov	r1, r5
 1642 01ae FFF7FEFF 		bl	__aeabi_dcmpgt
 1643 01b2 0346     		mov	r3, r0
 1644 01b4 002B     		cmp	r3, #0
 1645 01b6 2DD0     		beq	.L85
 404:..\src/utils.c ****                     //yellow light - blink @ 0.5 Hz
 1646              		.loc 1 404 0 is_stmt 0 discriminator 1
 1647 01b8 444B     		ldr	r3, .L97+36
 1648 01ba 93F8A930 		ldrb	r3, [r3, #169]	@ zero_extendqisi2
 1649 01be 002B     		cmp	r3, #0
 1650 01c0 19D0     		beq	.L87
 404:..\src/utils.c ****                     //yellow light - blink @ 0.5 Hz
 1651              		.loc 1 404 0 discriminator 2
 1652 01c2 474B     		ldr	r3, .L97+56
 1653 01c4 5B68     		ldr	r3, [r3, #4]
 1654 01c6 1846     		mov	r0, r3
 1655 01c8 FFF7FEFF 		bl	__aeabi_i2d
 1656 01cc 0446     		mov	r4, r0
 1657 01ce 0D46     		mov	r5, r1
 1658 01d0 454B     		ldr	r3, .L97+64
 1659 01d2 5B68     		ldr	r3, [r3, #4]
 1660 01d4 1846     		mov	r0, r3
 1661 01d6 FFF7FEFF 		bl	__aeabi_i2d
 1662 01da 35A3     		adr	r3, .L97+8
 1663 01dc D3E90023 		ldrd	r2, [r3]
 1664 01e0 FFF7FEFF 		bl	__aeabi_dmul
 1665 01e4 0246     		mov	r2, r0
 1666 01e6 0B46     		mov	r3, r1
 1667 01e8 2046     		mov	r0, r4
 1668 01ea 2946     		mov	r1, r5
 1669 01ec FFF7FEFF 		bl	__aeabi_dcmpgt
 1670 01f0 0346     		mov	r3, r0
 1671 01f2 002B     		cmp	r3, #0
 1672 01f4 0ED0     		beq	.L85
 1673              	.L87:
 408:..\src/utils.c ****                         LED_control(0);     // NO LIGHT - all leds off
 1674              		.loc 1 408 0 is_stmt 1
 1675 01f6 3D4B     		ldr	r3, .L97+68
 1676 01f8 1B78     		ldrb	r3, [r3]	@ zero_extendqisi2
 1677 01fa 002B     		cmp	r3, #0
 1678 01fc 03D1     		bne	.L89
 409:..\src/utils.c ****                     else
 1679              		.loc 1 409 0
 1680 01fe 0020     		movs	r0, #0
 1681 0200 FFF7FEFF 		bl	LED_control
ARM GAS  C:\Users\Mattia\AppData\Local\Temp\ccUc3JYZ.s 			page 39


 1682 0204 02E0     		b	.L90
 1683              	.L89:
 411:..\src/utils.c ****                     
 1684              		.loc 1 411 0
 1685 0206 0420     		movs	r0, #4
 1686 0208 FFF7FEFF 		bl	LED_control
 1687              	.L90:
 413:..\src/utils.c ****                 }
 1688              		.loc 1 413 0
 1689 020c 2C4B     		ldr	r3, .L97+24
 1690 020e 0022     		movs	r2, #0
 1691 0210 1A60     		str	r2, [r3]
 1692 0212 12E0     		b	.L84
 1693              	.L85:
 419:..\src/utils.c ****                         
 1694              		.loc 1 419 0
 1695 0214 2A4B     		ldr	r3, .L97+24
 1696 0216 1B68     		ldr	r3, [r3]
 1697 0218 42F20F72 		movw	r2, #9999
 1698 021c 9342     		cmp	r3, r2
 1699 021e 06D9     		bls	.L91
 424:..\src/utils.c ****                         
 1700              		.loc 1 424 0
 1701 0220 0320     		movs	r0, #3
 1702 0222 FFF7FEFF 		bl	LED_control
 426:..\src/utils.c ****                     }
 1703              		.loc 1 426 0
 1704 0226 254B     		ldr	r3, .L97+20
 1705 0228 0022     		movs	r2, #0
 1706 022a 1A70     		strb	r2, [r3]
 395:..\src/utils.c ****                 //fixed
 1707              		.loc 1 395 0
 1708 022c 3AE0     		b	.L73
 1709              	.L91:
 429:..\src/utils.c ****                     }                
 1710              		.loc 1 429 0
 1711 022e 244B     		ldr	r3, .L97+24
 1712 0230 1B68     		ldr	r3, [r3]
 1713 0232 0133     		adds	r3, r3, #1
 1714 0234 224A     		ldr	r2, .L97+24
 1715 0236 1360     		str	r3, [r2]
 395:..\src/utils.c ****                 //fixed
 1716              		.loc 1 395 0
 1717 0238 34E0     		b	.L73
 1718              	.L84:
 395:..\src/utils.c ****                 //fixed
 1719              		.loc 1 395 0 is_stmt 0 discriminator 1
 1720 023a 33E0     		b	.L73
 1721              	.L74:
 436:..\src/utils.c ****                 ((c_mem.motor[0].input_mode == INPUT_MODE_EMG_PROPORTIONAL || c_mem.motor[0].input_
 1722              		.loc 1 436 0 is_stmt 1
 1723 023c 234B     		ldr	r3, .L97+36
 1724 023e 93F80E31 		ldrb	r3, [r3, #270]	@ zero_extendqisi2
 1725 0242 002B     		cmp	r3, #0
 1726 0244 2AD0     		beq	.L92
 436:..\src/utils.c ****                 ((c_mem.motor[0].input_mode == INPUT_MODE_EMG_PROPORTIONAL || c_mem.motor[0].input_
 1727              		.loc 1 436 0 is_stmt 0 discriminator 1
ARM GAS  C:\Users\Mattia\AppData\Local\Temp\ccUc3JYZ.s 			page 40


 1728 0246 214B     		ldr	r3, .L97+36
 1729 0248 93F80E31 		ldrb	r3, [r3, #270]	@ zero_extendqisi2
 1730 024c 012B     		cmp	r3, #1
 1731 024e 25D0     		beq	.L92
 436:..\src/utils.c ****                 ((c_mem.motor[0].input_mode == INPUT_MODE_EMG_PROPORTIONAL || c_mem.motor[0].input_
 1732              		.loc 1 436 0 discriminator 2
 1733 0250 1E4B     		ldr	r3, .L97+36
 1734 0252 93F80E31 		ldrb	r3, [r3, #270]	@ zero_extendqisi2
 1735 0256 062B     		cmp	r3, #6
 1736 0258 20D0     		beq	.L92
 437:..\src/utils.c ****                   c_mem.motor[0].input_mode == INPUT_MODE_EMG_FCFS_ADV || c_mem.motor[0].input_mode
 1737              		.loc 1 437 0 is_stmt 1 discriminator 3
 1738 025a 1C4B     		ldr	r3, .L97+36
 1739 025c 93F80E31 		ldrb	r3, [r3, #270]	@ zero_extendqisi2
 436:..\src/utils.c ****                 ((c_mem.motor[0].input_mode == INPUT_MODE_EMG_PROPORTIONAL || c_mem.motor[0].input_
 1740              		.loc 1 436 0 discriminator 3
 1741 0260 022B     		cmp	r3, #2
 1742 0262 13D0     		beq	.L93
 437:..\src/utils.c ****                   c_mem.motor[0].input_mode == INPUT_MODE_EMG_FCFS_ADV || c_mem.motor[0].input_mode
 1743              		.loc 1 437 0
 1744 0264 194B     		ldr	r3, .L97+36
 1745 0266 93F80E31 		ldrb	r3, [r3, #270]	@ zero_extendqisi2
 1746 026a 032B     		cmp	r3, #3
 1747 026c 0ED0     		beq	.L93
 437:..\src/utils.c ****                   c_mem.motor[0].input_mode == INPUT_MODE_EMG_FCFS_ADV || c_mem.motor[0].input_mode
 1748              		.loc 1 437 0 is_stmt 0 discriminator 1
 1749 026e 174B     		ldr	r3, .L97+36
 1750 0270 93F80E31 		ldrb	r3, [r3, #270]	@ zero_extendqisi2
 1751 0274 042B     		cmp	r3, #4
 1752 0276 09D0     		beq	.L93
 438:..\src/utils.c ****                 LED_control(5);     // Default - red light
 1753              		.loc 1 438 0 is_stmt 1 discriminator 2
 1754 0278 144B     		ldr	r3, .L97+36
 1755 027a 93F80E31 		ldrb	r3, [r3, #270]	@ zero_extendqisi2
 437:..\src/utils.c ****                   c_mem.motor[0].input_mode == INPUT_MODE_EMG_FCFS_ADV || c_mem.motor[0].input_mode
 1756              		.loc 1 437 0 discriminator 2
 1757 027e 052B     		cmp	r3, #5
 1758 0280 04D0     		beq	.L93
 438:..\src/utils.c ****                 LED_control(5);     // Default - red light
 1759              		.loc 1 438 0
 1760 0282 124B     		ldr	r3, .L97+36
 1761 0284 93F80E31 		ldrb	r3, [r3, #270]	@ zero_extendqisi2
 1762 0288 072B     		cmp	r3, #7
 1763 028a 0BD1     		bne	.L96
 1764              	.L93:
 438:..\src/utils.c ****                 LED_control(5);     // Default - red light
 1765              		.loc 1 438 0 is_stmt 0 discriminator 1
 1766 028c 104B     		ldr	r3, .L97+40
 1767 028e 1B78     		ldrb	r3, [r3]	@ zero_extendqisi2
 1768 0290 002B     		cmp	r3, #0
 1769 0292 07D1     		bne	.L96
 438:..\src/utils.c ****                 LED_control(5);     // Default - red light
 1770              		.loc 1 438 0 discriminator 2
 1771 0294 0F4B     		ldr	r3, .L97+44
 1772 0296 1B78     		ldrb	r3, [r3]	@ zero_extendqisi2
 1773 0298 002B     		cmp	r3, #0
 1774 029a 03D1     		bne	.L96
ARM GAS  C:\Users\Mattia\AppData\Local\Temp\ccUc3JYZ.s 			page 41


 1775              	.L92:
 439:..\src/utils.c ****             }
 1776              		.loc 1 439 0 is_stmt 1
 1777 029c 0520     		movs	r0, #5
 1778 029e FFF7FEFF 		bl	LED_control
 1779              		.loc 1 443 0
 1780 02a2 FFE7     		b	.L96
 1781              	.L73:
 1782              	.L96:
 1783 02a4 00BF     		nop
 1784 02a6 B0BD     		pop	{r4, r5, r7, pc}
 1785              	.L98:
 1786              		.align	3
 1787              	.L97:
 1788 02a8 66666666 		.word	1717986918
 1789 02ac 6666EE3F 		.word	1072588390
 1790 02b0 CDCCCCCC 		.word	-858993459
 1791 02b4 CCCCEC3F 		.word	1072483532
 1792 02b8 00000000 		.word	battery_low_SoC
 1793 02bc 00000000 		.word	rest_enabled
 1794 02c0 28000000 		.word	v_count_lb.10250
 1795 02c4 00000000 		.word	g_refNew
 1796 02c8 00000000 		.word	tension_valid
 1797 02cc 00000000 		.word	c_mem
 1798 02d0 00000000 		.word	emg_1_status
 1799 02d4 00000000 		.word	emg_2_status
 1800 02d8 00000000 		.word	dev_tension
 1801 02dc 00000000 		.word	filt_v
 1802 02e0 00000000 		.word	dev_tension_f
 1803 02e4 08000000 		.word	filt_v+8
 1804 02e8 00000000 		.word	pow_tension
 1805 02ec 00000000 		.word	maintenance_flag
 1806              		.cfi_endproc
 1807              	.LFE72:
 1808              		.size	battery_management, .-battery_management
 1809              		.section	.text.ADC_Set_N_Channels,"ax",%progbits
 1810              		.align	2
 1811              		.global	ADC_Set_N_Channels
 1812              		.thumb
 1813              		.thumb_func
 1814              		.type	ADC_Set_N_Channels, %function
 1815              	ADC_Set_N_Channels:
 1816              	.LFB73:
 444:..\src/utils.c **** 
 445:..\src/utils.c **** //==============================================================================
 446:..\src/utils.c **** //                                                         ADC SET CHANNELS USED
 447:..\src/utils.c **** //==============================================================================
 448:..\src/utils.c **** void ADC_Set_N_Channels() {
 1817              		.loc 1 448 0
 1818              		.cfi_startproc
 1819              		@ args = 0, pretend = 0, frame = 0
 1820              		@ frame_needed = 1, uses_anonymous_args = 0
 1821 0000 80B5     		push	{r7, lr}
 1822              		.cfi_def_cfa_offset 8
 1823              		.cfi_offset 7, -8
 1824              		.cfi_offset 14, -4
 1825 0002 00AF     		add	r7, sp, #0
ARM GAS  C:\Users\Mattia\AppData\Local\Temp\ccUc3JYZ.s 			page 42


 1826              		.cfi_def_cfa_register 7
 449:..\src/utils.c ****     // Set right number of ADC channels to sample according to chosen flags
 450:..\src/utils.c ****     
 451:..\src/utils.c ****     NUM_OF_ANALOG_INPUTS = 4;       // Voltage_Sense_1
 1827              		.loc 1 451 0
 1828 0004 0D4B     		ldr	r3, .L102
 1829 0006 0422     		movs	r2, #4
 1830 0008 1A70     		strb	r2, [r3]
 452:..\src/utils.c ****                                     // Current_Sense_1
 453:..\src/utils.c ****                                     // EMG_A
 454:..\src/utils.c ****                                     // EMG_B
 455:..\src/utils.c **** 
 456:..\src/utils.c **** #ifdef GENERIC_FW    
 457:..\src/utils.c ****     if (c_mem.dev.use_2nd_motor_flag == TRUE){
 1831              		.loc 1 457 0
 1832 000a 0D4B     		ldr	r3, .L102+4
 1833 000c 93F8A930 		ldrb	r3, [r3, #169]	@ zero_extendqisi2
 1834 0010 012B     		cmp	r3, #1
 1835 0012 02D1     		bne	.L100
 458:..\src/utils.c ****         // add 2nd power
 459:..\src/utils.c ****         NUM_OF_ANALOG_INPUTS = 6;   // Voltage_Sense_2
 1836              		.loc 1 459 0
 1837 0014 094B     		ldr	r3, .L102
 1838 0016 0622     		movs	r2, #6
 1839 0018 1A70     		strb	r2, [r3]
 1840              	.L100:
 460:..\src/utils.c ****                                     // Current_Sense_2
 461:..\src/utils.c ****     }
 462:..\src/utils.c ****     
 463:..\src/utils.c ****     if (c_mem.exp.read_ADC_sensors_port_flag == TRUE){
 1841              		.loc 1 463 0
 1842 001a 094B     		ldr	r3, .L102+4
 1843 001c 93F82732 		ldrb	r3, [r3, #551]	@ zero_extendqisi2
 1844 0020 012B     		cmp	r3, #1
 1845 0022 02D1     		bne	.L101
 464:..\src/utils.c ****         // add all emg channels
 465:..\src/utils.c ****         NUM_OF_ANALOG_INPUTS = 12;  // EMG_1
 1846              		.loc 1 465 0
 1847 0024 054B     		ldr	r3, .L102
 1848 0026 0C22     		movs	r2, #12
 1849 0028 1A70     		strb	r2, [r3]
 1850              	.L101:
 466:..\src/utils.c ****                                     // EMG_2
 467:..\src/utils.c ****                                     // EMG_3
 468:..\src/utils.c ****                                     // EMG_4
 469:..\src/utils.c ****                                     // EMG_5
 470:..\src/utils.c ****                                     // EMG_6
 471:..\src/utils.c ****     }
 472:..\src/utils.c **** #endif
 473:..\src/utils.c **** 
 474:..\src/utils.c ****     ADC_N_CHANNELS_USED_Write(NUM_OF_ANALOG_INPUTS - 1);
 1851              		.loc 1 474 0
 1852 002a 044B     		ldr	r3, .L102
 1853 002c 1B78     		ldrb	r3, [r3]	@ zero_extendqisi2
 1854 002e 013B     		subs	r3, r3, #1
 1855 0030 DBB2     		uxtb	r3, r3
 1856 0032 1846     		mov	r0, r3
ARM GAS  C:\Users\Mattia\AppData\Local\Temp\ccUc3JYZ.s 			page 43


 1857 0034 FFF7FEFF 		bl	ADC_N_CHANNELS_USED_Write
 475:..\src/utils.c ****     
 476:..\src/utils.c **** }
 1858              		.loc 1 476 0
 1859 0038 00BF     		nop
 1860 003a 80BD     		pop	{r7, pc}
 1861              	.L103:
 1862              		.align	2
 1863              	.L102:
 1864 003c 00000000 		.word	NUM_OF_ANALOG_INPUTS
 1865 0040 00000000 		.word	c_mem
 1866              		.cfi_endproc
 1867              	.LFE73:
 1868              		.size	ADC_Set_N_Channels, .-ADC_Set_N_Channels
 1869              		.section	.text.enable_motor,"ax",%progbits
 1870              		.align	2
 1871              		.global	enable_motor
 1872              		.thumb
 1873              		.thumb_func
 1874              		.type	enable_motor, %function
 1875              	enable_motor:
 1876              	.LFB74:
 477:..\src/utils.c **** 
 478:..\src/utils.c **** //==============================================================================
 479:..\src/utils.c **** //                                                                  ENABLE MOTOR
 480:..\src/utils.c **** //==============================================================================
 481:..\src/utils.c **** void enable_motor(uint8 idx, uint8 val){
 1877              		.loc 1 481 0
 1878              		.cfi_startproc
 1879              		@ args = 0, pretend = 0, frame = 8
 1880              		@ frame_needed = 1, uses_anonymous_args = 0
 1881 0000 80B5     		push	{r7, lr}
 1882              		.cfi_def_cfa_offset 8
 1883              		.cfi_offset 7, -8
 1884              		.cfi_offset 14, -4
 1885 0002 82B0     		sub	sp, sp, #8
 1886              		.cfi_def_cfa_offset 16
 1887 0004 00AF     		add	r7, sp, #0
 1888              		.cfi_def_cfa_register 7
 1889 0006 0346     		mov	r3, r0
 1890 0008 0A46     		mov	r2, r1
 1891 000a FB71     		strb	r3, [r7, #7]
 1892 000c 1346     		mov	r3, r2
 1893 000e BB71     		strb	r3, [r7, #6]
 482:..\src/utils.c ****     // Enables motor idx, according to val value
 483:..\src/utils.c ****     if (idx == 0) {
 1894              		.loc 1 483 0
 1895 0010 FB79     		ldrb	r3, [r7, #7]	@ zero_extendqisi2
 1896 0012 002B     		cmp	r3, #0
 1897 0014 03D1     		bne	.L105
 484:..\src/utils.c ****         MOTOR_ON_OFF_1_Write(val);
 1898              		.loc 1 484 0
 1899 0016 BB79     		ldrb	r3, [r7, #6]	@ zero_extendqisi2
 1900 0018 1846     		mov	r0, r3
 1901 001a FFF7FEFF 		bl	MOTOR_ON_OFF_1_Write
 1902              	.L105:
 485:..\src/utils.c ****     }   
ARM GAS  C:\Users\Mattia\AppData\Local\Temp\ccUc3JYZ.s 			page 44


 486:..\src/utils.c ****     if (idx == 1) {
 1903              		.loc 1 486 0
 1904 001e FB79     		ldrb	r3, [r7, #7]	@ zero_extendqisi2
 1905 0020 012B     		cmp	r3, #1
 1906 0022 03D1     		bne	.L107
 487:..\src/utils.c ****         MOTOR_ON_OFF_2_Write(val);
 1907              		.loc 1 487 0
 1908 0024 BB79     		ldrb	r3, [r7, #6]	@ zero_extendqisi2
 1909 0026 1846     		mov	r0, r3
 1910 0028 FFF7FEFF 		bl	MOTOR_ON_OFF_2_Write
 1911              	.L107:
 488:..\src/utils.c ****     }
 489:..\src/utils.c **** }
 1912              		.loc 1 489 0
 1913 002c 00BF     		nop
 1914 002e 0837     		adds	r7, r7, #8
 1915              		.cfi_def_cfa_offset 8
 1916 0030 BD46     		mov	sp, r7
 1917              		.cfi_def_cfa_register 13
 1918              		@ sp needed
 1919 0032 80BD     		pop	{r7, pc}
 1920              		.cfi_endproc
 1921              	.LFE74:
 1922              		.size	enable_motor, .-enable_motor
 1923              		.section	.text.reset_counters,"ax",%progbits
 1924              		.align	2
 1925              		.global	reset_counters
 1926              		.thumb
 1927              		.thumb_func
 1928              		.type	reset_counters, %function
 1929              	reset_counters:
 1930              	.LFB75:
 490:..\src/utils.c **** 
 491:..\src/utils.c **** 
 492:..\src/utils.c **** 
 493:..\src/utils.c **** //==============================================================================
 494:..\src/utils.c **** //                                                              RESET COUNTERS
 495:..\src/utils.c **** //==============================================================================
 496:..\src/utils.c **** void reset_counters() {
 1931              		.loc 1 496 0
 1932              		.cfi_startproc
 1933              		@ args = 0, pretend = 0, frame = 8
 1934              		@ frame_needed = 1, uses_anonymous_args = 0
 1935              		@ link register save eliminated.
 1936 0000 80B4     		push	{r7}
 1937              		.cfi_def_cfa_offset 4
 1938              		.cfi_offset 7, -4
 1939 0002 83B0     		sub	sp, sp, #12
 1940              		.cfi_def_cfa_offset 16
 1941 0004 00AF     		add	r7, sp, #0
 1942              		.cfi_def_cfa_register 7
 497:..\src/utils.c ****     uint8 i;
 498:..\src/utils.c ****     
 499:..\src/utils.c ****     // Initialize counters        
 500:..\src/utils.c ****     g_mem.cnt.emg_counter[0] = g_mem.cnt.emg_counter[1] = 0;
 1943              		.loc 1 500 0
 1944 0006 1B4B     		ldr	r3, .L113
ARM GAS  C:\Users\Mattia\AppData\Local\Temp\ccUc3JYZ.s 			page 45


 1945 0008 0022     		movs	r2, #0
 1946 000a 5A61     		str	r2, [r3, #20]
 1947 000c 194B     		ldr	r3, .L113
 1948 000e 5B69     		ldr	r3, [r3, #20]
 1949 0010 184A     		ldr	r2, .L113
 1950 0012 1361     		str	r3, [r2, #16]
 501:..\src/utils.c ****     for(i = 0; i< 10; i++){
 1951              		.loc 1 501 0
 1952 0014 0023     		movs	r3, #0
 1953 0016 FB71     		strb	r3, [r7, #7]
 1954 0018 08E0     		b	.L109
 1955              	.L110:
 502:..\src/utils.c ****         g_mem.cnt.position_hist[i] = 0;
 1956              		.loc 1 502 0 discriminator 3
 1957 001a FB79     		ldrb	r3, [r7, #7]	@ zero_extendqisi2
 1958 001c 154A     		ldr	r2, .L113
 1959 001e 0633     		adds	r3, r3, #6
 1960 0020 0021     		movs	r1, #0
 1961 0022 42F82310 		str	r1, [r2, r3, lsl #2]
 501:..\src/utils.c ****     for(i = 0; i< 10; i++){
 1962              		.loc 1 501 0 discriminator 3
 1963 0026 FB79     		ldrb	r3, [r7, #7]	@ zero_extendqisi2
 1964 0028 0133     		adds	r3, r3, #1
 1965 002a FB71     		strb	r3, [r7, #7]
 1966              	.L109:
 501:..\src/utils.c ****     for(i = 0; i< 10; i++){
 1967              		.loc 1 501 0 is_stmt 0 discriminator 1
 1968 002c FB79     		ldrb	r3, [r7, #7]	@ zero_extendqisi2
 1969 002e 092B     		cmp	r3, #9
 1970 0030 F3D9     		bls	.L110
 503:..\src/utils.c ****     }
 504:..\src/utils.c ****     for(i = 0; i< 4; i++){
 1971              		.loc 1 504 0 is_stmt 1
 1972 0032 0023     		movs	r3, #0
 1973 0034 FB71     		strb	r3, [r7, #7]
 1974 0036 08E0     		b	.L111
 1975              	.L112:
 505:..\src/utils.c ****         g_mem.cnt.current_hist[i] = 0;
 1976              		.loc 1 505 0 discriminator 3
 1977 0038 FB79     		ldrb	r3, [r7, #7]	@ zero_extendqisi2
 1978 003a 0E4A     		ldr	r2, .L113
 1979 003c 1033     		adds	r3, r3, #16
 1980 003e 0021     		movs	r1, #0
 1981 0040 42F82310 		str	r1, [r2, r3, lsl #2]
 504:..\src/utils.c ****         g_mem.cnt.current_hist[i] = 0;
 1982              		.loc 1 504 0 discriminator 3
 1983 0044 FB79     		ldrb	r3, [r7, #7]	@ zero_extendqisi2
 1984 0046 0133     		adds	r3, r3, #1
 1985 0048 FB71     		strb	r3, [r7, #7]
 1986              	.L111:
 504:..\src/utils.c ****         g_mem.cnt.current_hist[i] = 0;
 1987              		.loc 1 504 0 is_stmt 0 discriminator 1
 1988 004a FB79     		ldrb	r3, [r7, #7]	@ zero_extendqisi2
 1989 004c 032B     		cmp	r3, #3
 1990 004e F3D9     		bls	.L112
 506:..\src/utils.c ****     }
 507:..\src/utils.c ****     g_mem.cnt.rest_counter = 0;
ARM GAS  C:\Users\Mattia\AppData\Local\Temp\ccUc3JYZ.s 			page 46


 1991              		.loc 1 507 0 is_stmt 1
 1992 0050 084B     		ldr	r3, .L113
 1993 0052 0022     		movs	r2, #0
 1994 0054 1A65     		str	r2, [r3, #80]
 508:..\src/utils.c ****     g_mem.cnt.wire_disp = 0;
 1995              		.loc 1 508 0
 1996 0056 074B     		ldr	r3, .L113
 1997 0058 0022     		movs	r2, #0
 1998 005a 5A65     		str	r2, [r3, #84]
 509:..\src/utils.c ****     g_mem.cnt.total_time_on = 0;
 1999              		.loc 1 509 0
 2000 005c 054B     		ldr	r3, .L113
 2001 005e 0022     		movs	r2, #0
 2002 0060 9A65     		str	r2, [r3, #88]
 510:..\src/utils.c ****     g_mem.cnt.total_time_rest = 0; 
 2003              		.loc 1 510 0
 2004 0062 044B     		ldr	r3, .L113
 2005 0064 0022     		movs	r2, #0
 2006 0066 DA65     		str	r2, [r3, #92]
 511:..\src/utils.c **** }
 2007              		.loc 1 511 0
 2008 0068 00BF     		nop
 2009 006a 0C37     		adds	r7, r7, #12
 2010              		.cfi_def_cfa_offset 4
 2011 006c BD46     		mov	sp, r7
 2012              		.cfi_def_cfa_register 13
 2013              		@ sp needed
 2014 006e 80BC     		pop	{r7}
 2015              		.cfi_restore 7
 2016              		.cfi_def_cfa_offset 0
 2017 0070 7047     		bx	lr
 2018              	.L114:
 2019 0072 00BF     		.align	2
 2020              	.L113:
 2021 0074 00000000 		.word	g_mem
 2022              		.cfi_endproc
 2023              	.LFE75:
 2024              		.size	reset_counters, .-reset_counters
 2025              		.global	__aeabi_fsub
 2026              		.section	.text.invSqrt,"ax",%progbits
 2027              		.align	2
 2028              		.global	invSqrt
 2029              		.thumb
 2030              		.thumb_func
 2031              		.type	invSqrt, %function
 2032              	invSqrt:
 2033              	.LFB76:
 512:..\src/utils.c **** 
 513:..\src/utils.c **** 
 514:..\src/utils.c **** //==============================================================================
 515:..\src/utils.c **** //                                                                       INVSQRT
 516:..\src/utils.c **** //==============================================================================
 517:..\src/utils.c **** float invSqrt(float x) {
 2034              		.loc 1 517 0
 2035              		.cfi_startproc
 2036              		@ args = 0, pretend = 0, frame = 24
 2037              		@ frame_needed = 1, uses_anonymous_args = 0
ARM GAS  C:\Users\Mattia\AppData\Local\Temp\ccUc3JYZ.s 			page 47


 2038 0000 80B5     		push	{r7, lr}
 2039              		.cfi_def_cfa_offset 8
 2040              		.cfi_offset 7, -8
 2041              		.cfi_offset 14, -4
 2042 0002 86B0     		sub	sp, sp, #24
 2043              		.cfi_def_cfa_offset 32
 2044 0004 00AF     		add	r7, sp, #0
 2045              		.cfi_def_cfa_register 7
 2046 0006 7860     		str	r0, [r7, #4]	@ float
 518:..\src/utils.c **** 	float halfx = 0.5f * x;
 2047              		.loc 1 518 0
 2048 0008 4FF07C51 		mov	r1, #1056964608
 2049 000c 7868     		ldr	r0, [r7, #4]	@ float
 2050 000e FFF7FEFF 		bl	__aeabi_fmul
 2051 0012 0346     		mov	r3, r0
 2052 0014 7B61     		str	r3, [r7, #20]	@ float
 519:..\src/utils.c **** 	float y = x;
 2053              		.loc 1 519 0
 2054 0016 7B68     		ldr	r3, [r7, #4]	@ float
 2055 0018 3B61     		str	r3, [r7, #16]	@ float
 520:..\src/utils.c **** 	long i = *(long*)&y;
 2056              		.loc 1 520 0
 2057 001a 07F11003 		add	r3, r7, #16
 2058 001e 1B68     		ldr	r3, [r3]
 2059 0020 FB60     		str	r3, [r7, #12]
 521:..\src/utils.c **** 	i = 0x5f3759df - (i>>1);
 2060              		.loc 1 521 0
 2061 0022 FB68     		ldr	r3, [r7, #12]
 2062 0024 5A10     		asrs	r2, r3, #1
 2063 0026 134B     		ldr	r3, .L117
 2064 0028 9B1A     		subs	r3, r3, r2
 2065 002a FB60     		str	r3, [r7, #12]
 522:..\src/utils.c **** 	y = *(float*)&i;
 2066              		.loc 1 522 0
 2067 002c 07F10C03 		add	r3, r7, #12
 2068 0030 1B68     		ldr	r3, [r3]	@ float
 2069 0032 3B61     		str	r3, [r7, #16]	@ float
 523:..\src/utils.c **** 	y = y * (1.5f - (halfx * y * y));
 2070              		.loc 1 523 0
 2071 0034 3B69     		ldr	r3, [r7, #16]	@ float
 2072 0036 7969     		ldr	r1, [r7, #20]	@ float
 2073 0038 1846     		mov	r0, r3
 2074 003a FFF7FEFF 		bl	__aeabi_fmul
 2075 003e 0346     		mov	r3, r0
 2076 0040 1A46     		mov	r2, r3
 2077 0042 3B69     		ldr	r3, [r7, #16]	@ float
 2078 0044 1946     		mov	r1, r3
 2079 0046 1046     		mov	r0, r2
 2080 0048 FFF7FEFF 		bl	__aeabi_fmul
 2081 004c 0346     		mov	r3, r0
 2082 004e 1946     		mov	r1, r3
 2083 0050 4FF07F50 		mov	r0, #1069547520
 2084 0054 FFF7FEFF 		bl	__aeabi_fsub
 2085 0058 0346     		mov	r3, r0
 2086 005a 1A46     		mov	r2, r3
 2087 005c 3B69     		ldr	r3, [r7, #16]	@ float
 2088 005e 1946     		mov	r1, r3
ARM GAS  C:\Users\Mattia\AppData\Local\Temp\ccUc3JYZ.s 			page 48


 2089 0060 1046     		mov	r0, r2
 2090 0062 FFF7FEFF 		bl	__aeabi_fmul
 2091 0066 0346     		mov	r3, r0
 2092 0068 3B61     		str	r3, [r7, #16]	@ float
 524:..\src/utils.c **** 	return y;
 2093              		.loc 1 524 0
 2094 006a 3B69     		ldr	r3, [r7, #16]	@ float
 525:..\src/utils.c **** }
 2095              		.loc 1 525 0
 2096 006c 1846     		mov	r0, r3
 2097 006e 1837     		adds	r7, r7, #24
 2098              		.cfi_def_cfa_offset 8
 2099 0070 BD46     		mov	sp, r7
 2100              		.cfi_def_cfa_register 13
 2101              		@ sp needed
 2102 0072 80BD     		pop	{r7, pc}
 2103              	.L118:
 2104              		.align	2
 2105              	.L117:
 2106 0074 DF59375F 		.word	1597463007
 2107              		.cfi_endproc
 2108              	.LFE76:
 2109              		.size	invSqrt, .-invSqrt
 2110              		.section	.text.v3_normalize,"ax",%progbits
 2111              		.align	2
 2112              		.global	v3_normalize
 2113              		.thumb
 2114              		.thumb_func
 2115              		.type	v3_normalize, %function
 2116              	v3_normalize:
 2117              	.LFB77:
 526:..\src/utils.c **** 
 527:..\src/utils.c **** //==============================================================================
 528:..\src/utils.c **** //                                                                  V3_NORMALIZE
 529:..\src/utils.c **** //==============================================================================
 530:..\src/utils.c **** void v3_normalize(float v3_in[3]){
 2118              		.loc 1 530 0
 2119              		.cfi_startproc
 2120              		@ args = 0, pretend = 0, frame = 16
 2121              		@ frame_needed = 1, uses_anonymous_args = 0
 2122 0000 90B5     		push	{r4, r7, lr}
 2123              		.cfi_def_cfa_offset 12
 2124              		.cfi_offset 4, -12
 2125              		.cfi_offset 7, -8
 2126              		.cfi_offset 14, -4
 2127 0002 85B0     		sub	sp, sp, #20
 2128              		.cfi_def_cfa_offset 32
 2129 0004 00AF     		add	r7, sp, #0
 2130              		.cfi_def_cfa_register 7
 2131 0006 7860     		str	r0, [r7, #4]
 531:..\src/utils.c ****     // Vector 3 normalization
 532:..\src/utils.c ****     float norm = invSqrt(v3_in[0] * v3_in[0] + v3_in[1] * v3_in[1] + v3_in[2] * v3_in[2]);
 2132              		.loc 1 532 0
 2133 0008 7B68     		ldr	r3, [r7, #4]
 2134 000a 1A68     		ldr	r2, [r3]	@ float
 2135 000c 7B68     		ldr	r3, [r7, #4]
 2136 000e 1B68     		ldr	r3, [r3]	@ float
ARM GAS  C:\Users\Mattia\AppData\Local\Temp\ccUc3JYZ.s 			page 49


 2137 0010 1946     		mov	r1, r3
 2138 0012 1046     		mov	r0, r2
 2139 0014 FFF7FEFF 		bl	__aeabi_fmul
 2140 0018 0346     		mov	r3, r0
 2141 001a 1C46     		mov	r4, r3
 2142 001c 7B68     		ldr	r3, [r7, #4]
 2143 001e 0433     		adds	r3, r3, #4
 2144 0020 1A68     		ldr	r2, [r3]	@ float
 2145 0022 7B68     		ldr	r3, [r7, #4]
 2146 0024 0433     		adds	r3, r3, #4
 2147 0026 1B68     		ldr	r3, [r3]	@ float
 2148 0028 1946     		mov	r1, r3
 2149 002a 1046     		mov	r0, r2
 2150 002c FFF7FEFF 		bl	__aeabi_fmul
 2151 0030 0346     		mov	r3, r0
 2152 0032 1946     		mov	r1, r3
 2153 0034 2046     		mov	r0, r4
 2154 0036 FFF7FEFF 		bl	__aeabi_fadd
 2155 003a 0346     		mov	r3, r0
 2156 003c 1C46     		mov	r4, r3
 2157 003e 7B68     		ldr	r3, [r7, #4]
 2158 0040 0833     		adds	r3, r3, #8
 2159 0042 1A68     		ldr	r2, [r3]	@ float
 2160 0044 7B68     		ldr	r3, [r7, #4]
 2161 0046 0833     		adds	r3, r3, #8
 2162 0048 1B68     		ldr	r3, [r3]	@ float
 2163 004a 1946     		mov	r1, r3
 2164 004c 1046     		mov	r0, r2
 2165 004e FFF7FEFF 		bl	__aeabi_fmul
 2166 0052 0346     		mov	r3, r0
 2167 0054 1946     		mov	r1, r3
 2168 0056 2046     		mov	r0, r4
 2169 0058 FFF7FEFF 		bl	__aeabi_fadd
 2170 005c 0346     		mov	r3, r0
 2171 005e 1846     		mov	r0, r3
 2172 0060 FFF7FEFF 		bl	invSqrt
 2173 0064 F860     		str	r0, [r7, #12]	@ float
 533:..\src/utils.c ****     
 534:..\src/utils.c ****     v3_in[0] = v3_in[0]*norm;
 2174              		.loc 1 534 0
 2175 0066 7B68     		ldr	r3, [r7, #4]
 2176 0068 1B68     		ldr	r3, [r3]	@ float
 2177 006a F968     		ldr	r1, [r7, #12]	@ float
 2178 006c 1846     		mov	r0, r3
 2179 006e FFF7FEFF 		bl	__aeabi_fmul
 2180 0072 0346     		mov	r3, r0
 2181 0074 1A46     		mov	r2, r3
 2182 0076 7B68     		ldr	r3, [r7, #4]
 2183 0078 1A60     		str	r2, [r3]	@ float
 535:..\src/utils.c ****     v3_in[1] = v3_in[1]*norm;
 2184              		.loc 1 535 0
 2185 007a 7B68     		ldr	r3, [r7, #4]
 2186 007c 1C1D     		adds	r4, r3, #4
 2187 007e 7B68     		ldr	r3, [r7, #4]
 2188 0080 0433     		adds	r3, r3, #4
 2189 0082 1B68     		ldr	r3, [r3]	@ float
 2190 0084 F968     		ldr	r1, [r7, #12]	@ float
ARM GAS  C:\Users\Mattia\AppData\Local\Temp\ccUc3JYZ.s 			page 50


 2191 0086 1846     		mov	r0, r3
 2192 0088 FFF7FEFF 		bl	__aeabi_fmul
 2193 008c 0346     		mov	r3, r0
 2194 008e 2360     		str	r3, [r4]	@ float
 536:..\src/utils.c ****     v3_in[2] = v3_in[2]*norm;
 2195              		.loc 1 536 0
 2196 0090 7B68     		ldr	r3, [r7, #4]
 2197 0092 03F10804 		add	r4, r3, #8
 2198 0096 7B68     		ldr	r3, [r7, #4]
 2199 0098 0833     		adds	r3, r3, #8
 2200 009a 1B68     		ldr	r3, [r3]	@ float
 2201 009c F968     		ldr	r1, [r7, #12]	@ float
 2202 009e 1846     		mov	r0, r3
 2203 00a0 FFF7FEFF 		bl	__aeabi_fmul
 2204 00a4 0346     		mov	r3, r0
 2205 00a6 2360     		str	r3, [r4]	@ float
 537:..\src/utils.c **** }
 2206              		.loc 1 537 0
 2207 00a8 00BF     		nop
 2208 00aa 1437     		adds	r7, r7, #20
 2209              		.cfi_def_cfa_offset 12
 2210 00ac BD46     		mov	sp, r7
 2211              		.cfi_def_cfa_register 13
 2212              		@ sp needed
 2213 00ae 90BD     		pop	{r4, r7, pc}
 2214              		.cfi_endproc
 2215              	.LFE77:
 2216              		.size	v3_normalize, .-v3_normalize
 2217              		.section	.text.v4_normalize,"ax",%progbits
 2218              		.align	2
 2219              		.global	v4_normalize
 2220              		.thumb
 2221              		.thumb_func
 2222              		.type	v4_normalize, %function
 2223              	v4_normalize:
 2224              	.LFB78:
 538:..\src/utils.c ****  
 539:..\src/utils.c **** //==============================================================================
 540:..\src/utils.c **** //                                                                  V4_NORMALIZE
 541:..\src/utils.c **** //==============================================================================
 542:..\src/utils.c **** void v4_normalize(float v4_in[4]){
 2225              		.loc 1 542 0
 2226              		.cfi_startproc
 2227              		@ args = 0, pretend = 0, frame = 16
 2228              		@ frame_needed = 1, uses_anonymous_args = 0
 2229 0000 90B5     		push	{r4, r7, lr}
 2230              		.cfi_def_cfa_offset 12
 2231              		.cfi_offset 4, -12
 2232              		.cfi_offset 7, -8
 2233              		.cfi_offset 14, -4
 2234 0002 85B0     		sub	sp, sp, #20
 2235              		.cfi_def_cfa_offset 32
 2236 0004 00AF     		add	r7, sp, #0
 2237              		.cfi_def_cfa_register 7
 2238 0006 7860     		str	r0, [r7, #4]
 543:..\src/utils.c ****     // Vector 4 normalization
 544:..\src/utils.c ****     float norm = invSqrt(v4_in[0] * v4_in[0] + v4_in[1] * v4_in[1] + v4_in[2] * v4_in[2] + v4_in[3]
ARM GAS  C:\Users\Mattia\AppData\Local\Temp\ccUc3JYZ.s 			page 51


 2239              		.loc 1 544 0
 2240 0008 7B68     		ldr	r3, [r7, #4]
 2241 000a 1A68     		ldr	r2, [r3]	@ float
 2242 000c 7B68     		ldr	r3, [r7, #4]
 2243 000e 1B68     		ldr	r3, [r3]	@ float
 2244 0010 1946     		mov	r1, r3
 2245 0012 1046     		mov	r0, r2
 2246 0014 FFF7FEFF 		bl	__aeabi_fmul
 2247 0018 0346     		mov	r3, r0
 2248 001a 1C46     		mov	r4, r3
 2249 001c 7B68     		ldr	r3, [r7, #4]
 2250 001e 0433     		adds	r3, r3, #4
 2251 0020 1A68     		ldr	r2, [r3]	@ float
 2252 0022 7B68     		ldr	r3, [r7, #4]
 2253 0024 0433     		adds	r3, r3, #4
 2254 0026 1B68     		ldr	r3, [r3]	@ float
 2255 0028 1946     		mov	r1, r3
 2256 002a 1046     		mov	r0, r2
 2257 002c FFF7FEFF 		bl	__aeabi_fmul
 2258 0030 0346     		mov	r3, r0
 2259 0032 1946     		mov	r1, r3
 2260 0034 2046     		mov	r0, r4
 2261 0036 FFF7FEFF 		bl	__aeabi_fadd
 2262 003a 0346     		mov	r3, r0
 2263 003c 1C46     		mov	r4, r3
 2264 003e 7B68     		ldr	r3, [r7, #4]
 2265 0040 0833     		adds	r3, r3, #8
 2266 0042 1A68     		ldr	r2, [r3]	@ float
 2267 0044 7B68     		ldr	r3, [r7, #4]
 2268 0046 0833     		adds	r3, r3, #8
 2269 0048 1B68     		ldr	r3, [r3]	@ float
 2270 004a 1946     		mov	r1, r3
 2271 004c 1046     		mov	r0, r2
 2272 004e FFF7FEFF 		bl	__aeabi_fmul
 2273 0052 0346     		mov	r3, r0
 2274 0054 1946     		mov	r1, r3
 2275 0056 2046     		mov	r0, r4
 2276 0058 FFF7FEFF 		bl	__aeabi_fadd
 2277 005c 0346     		mov	r3, r0
 2278 005e 1C46     		mov	r4, r3
 2279 0060 7B68     		ldr	r3, [r7, #4]
 2280 0062 0C33     		adds	r3, r3, #12
 2281 0064 1A68     		ldr	r2, [r3]	@ float
 2282 0066 7B68     		ldr	r3, [r7, #4]
 2283 0068 0C33     		adds	r3, r3, #12
 2284 006a 1B68     		ldr	r3, [r3]	@ float
 2285 006c 1946     		mov	r1, r3
 2286 006e 1046     		mov	r0, r2
 2287 0070 FFF7FEFF 		bl	__aeabi_fmul
 2288 0074 0346     		mov	r3, r0
 2289 0076 1946     		mov	r1, r3
 2290 0078 2046     		mov	r0, r4
 2291 007a FFF7FEFF 		bl	__aeabi_fadd
 2292 007e 0346     		mov	r3, r0
 2293 0080 1846     		mov	r0, r3
 2294 0082 FFF7FEFF 		bl	invSqrt
 2295 0086 F860     		str	r0, [r7, #12]	@ float
ARM GAS  C:\Users\Mattia\AppData\Local\Temp\ccUc3JYZ.s 			page 52


 545:..\src/utils.c ****     
 546:..\src/utils.c ****     v4_in[0] = v4_in[0]*norm;
 2296              		.loc 1 546 0
 2297 0088 7B68     		ldr	r3, [r7, #4]
 2298 008a 1B68     		ldr	r3, [r3]	@ float
 2299 008c F968     		ldr	r1, [r7, #12]	@ float
 2300 008e 1846     		mov	r0, r3
 2301 0090 FFF7FEFF 		bl	__aeabi_fmul
 2302 0094 0346     		mov	r3, r0
 2303 0096 1A46     		mov	r2, r3
 2304 0098 7B68     		ldr	r3, [r7, #4]
 2305 009a 1A60     		str	r2, [r3]	@ float
 547:..\src/utils.c ****     v4_in[1] = v4_in[1]*norm;
 2306              		.loc 1 547 0
 2307 009c 7B68     		ldr	r3, [r7, #4]
 2308 009e 1C1D     		adds	r4, r3, #4
 2309 00a0 7B68     		ldr	r3, [r7, #4]
 2310 00a2 0433     		adds	r3, r3, #4
 2311 00a4 1B68     		ldr	r3, [r3]	@ float
 2312 00a6 F968     		ldr	r1, [r7, #12]	@ float
 2313 00a8 1846     		mov	r0, r3
 2314 00aa FFF7FEFF 		bl	__aeabi_fmul
 2315 00ae 0346     		mov	r3, r0
 2316 00b0 2360     		str	r3, [r4]	@ float
 548:..\src/utils.c ****     v4_in[2] = v4_in[2]*norm;
 2317              		.loc 1 548 0
 2318 00b2 7B68     		ldr	r3, [r7, #4]
 2319 00b4 03F10804 		add	r4, r3, #8
 2320 00b8 7B68     		ldr	r3, [r7, #4]
 2321 00ba 0833     		adds	r3, r3, #8
 2322 00bc 1B68     		ldr	r3, [r3]	@ float
 2323 00be F968     		ldr	r1, [r7, #12]	@ float
 2324 00c0 1846     		mov	r0, r3
 2325 00c2 FFF7FEFF 		bl	__aeabi_fmul
 2326 00c6 0346     		mov	r3, r0
 2327 00c8 2360     		str	r3, [r4]	@ float
 549:..\src/utils.c ****     v4_in[3] = v4_in[3]*norm;
 2328              		.loc 1 549 0
 2329 00ca 7B68     		ldr	r3, [r7, #4]
 2330 00cc 03F10C04 		add	r4, r3, #12
 2331 00d0 7B68     		ldr	r3, [r7, #4]
 2332 00d2 0C33     		adds	r3, r3, #12
 2333 00d4 1B68     		ldr	r3, [r3]	@ float
 2334 00d6 F968     		ldr	r1, [r7, #12]	@ float
 2335 00d8 1846     		mov	r0, r3
 2336 00da FFF7FEFF 		bl	__aeabi_fmul
 2337 00de 0346     		mov	r3, r0
 2338 00e0 2360     		str	r3, [r4]	@ float
 550:..\src/utils.c **** }
 2339              		.loc 1 550 0
 2340 00e2 00BF     		nop
 2341 00e4 1437     		adds	r7, r7, #20
 2342              		.cfi_def_cfa_offset 12
 2343 00e6 BD46     		mov	sp, r7
 2344              		.cfi_def_cfa_register 13
 2345              		@ sp needed
 2346 00e8 90BD     		pop	{r4, r7, pc}
ARM GAS  C:\Users\Mattia\AppData\Local\Temp\ccUc3JYZ.s 			page 53


 2347              		.cfi_endproc
 2348              	.LFE78:
 2349              		.size	v4_normalize, .-v4_normalize
 2350 00ea 00BF     		.section	.text.update_EMG_history,"ax",%progbits
 2351              		.align	2
 2352              		.global	update_EMG_history
 2353              		.thumb
 2354              		.thumb_func
 2355              		.type	update_EMG_history, %function
 2356              	update_EMG_history:
 2357              	.LFB79:
 551:..\src/utils.c **** 
 552:..\src/utils.c **** //==============================================================================
 553:..\src/utils.c **** //                                                            UPDATE_EMG_HISTORY
 554:..\src/utils.c **** //==============================================================================
 555:..\src/utils.c **** void update_EMG_history(){
 2358              		.loc 1 555 0
 2359              		.cfi_startproc
 2360              		@ args = 0, pretend = 0, frame = 16
 2361              		@ frame_needed = 1, uses_anonymous_args = 0
 2362 0000 80B5     		push	{r7, lr}
 2363              		.cfi_def_cfa_offset 8
 2364              		.cfi_offset 7, -8
 2365              		.cfi_offset 14, -4
 2366 0002 84B0     		sub	sp, sp, #16
 2367              		.cfi_def_cfa_offset 24
 2368 0004 00AF     		add	r7, sp, #0
 2369              		.cfi_def_cfa_register 7
 556:..\src/utils.c ****     
 557:..\src/utils.c ****     static int32 last_counter_value = 6000;
 558:..\src/utils.c ****     
 559:..\src/utils.c ****     uint32 current_counter_value = (uint32)CYCLES_TIMER_ReadCounter();
 2370              		.loc 1 559 0
 2371 0006 FFF7FEFF 		bl	CYCLES_TIMER_ReadCounter
 2372 000a 0346     		mov	r3, r0
 2373 000c BB60     		str	r3, [r7, #8]
 560:..\src/utils.c ****     int32 counter_diff = last_counter_value - current_counter_value;
 2374              		.loc 1 560 0
 2375 000e 1C4B     		ldr	r3, .L127
 2376 0010 1B68     		ldr	r3, [r3]
 2377 0012 1A46     		mov	r2, r3
 2378 0014 BB68     		ldr	r3, [r7, #8]
 2379 0016 D31A     		subs	r3, r2, r3
 2380 0018 7B60     		str	r3, [r7, #4]
 561:..\src/utils.c ****     
 562:..\src/utils.c ****     if ( counter_diff >= 10 || counter_diff <= -10 ){
 2381              		.loc 1 562 0
 2382 001a 7B68     		ldr	r3, [r7, #4]
 2383 001c 092B     		cmp	r3, #9
 2384 001e 03DC     		bgt	.L122
 2385              		.loc 1 562 0 is_stmt 0 discriminator 1
 2386 0020 7B68     		ldr	r3, [r7, #4]
 2387 0022 13F1090F 		cmn	r3, #9
 2388 0026 26DA     		bge	.L126
 2389              	.L122:
 2390              	.LBB3:
 563:..\src/utils.c ****         // Run this part only after 10 CYCLES_TIMER timer steps (50Hz timer -> 5 Hz)
ARM GAS  C:\Users\Mattia\AppData\Local\Temp\ccUc3JYZ.s 			page 54


 564:..\src/utils.c ****         
 565:..\src/utils.c ****         
 566:..\src/utils.c ****         for (int i = 0; i < NUM_OF_INPUT_EMGS; i++){
 2391              		.loc 1 566 0 is_stmt 1
 2392 0028 0023     		movs	r3, #0
 2393 002a FB60     		str	r3, [r7, #12]
 2394 002c 10E0     		b	.L124
 2395              	.L125:
 567:..\src/utils.c ****             emg_history[emg_history_next_idx][i] = g_adc_meas.emg[i];
 2396              		.loc 1 567 0 discriminator 3
 2397 002e 154B     		ldr	r3, .L127+4
 2398 0030 1B68     		ldr	r3, [r3]
 2399 0032 1549     		ldr	r1, .L127+8
 2400 0034 FA68     		ldr	r2, [r7, #12]
 2401 0036 51F82220 		ldr	r2, [r1, r2, lsl #2]
 2402 003a 90B2     		uxth	r0, r2
 2403 003c 1349     		ldr	r1, .L127+12
 2404 003e 5A00     		lsls	r2, r3, #1
 2405 0040 FB68     		ldr	r3, [r7, #12]
 2406 0042 1344     		add	r3, r3, r2
 2407 0044 0246     		mov	r2, r0	@ movhi
 2408 0046 21F81320 		strh	r2, [r1, r3, lsl #1]	@ movhi
 566:..\src/utils.c ****             emg_history[emg_history_next_idx][i] = g_adc_meas.emg[i];
 2409              		.loc 1 566 0 discriminator 3
 2410 004a FB68     		ldr	r3, [r7, #12]
 2411 004c 0133     		adds	r3, r3, #1
 2412 004e FB60     		str	r3, [r7, #12]
 2413              	.L124:
 566:..\src/utils.c ****             emg_history[emg_history_next_idx][i] = g_adc_meas.emg[i];
 2414              		.loc 1 566 0 is_stmt 0 discriminator 1
 2415 0050 FB68     		ldr	r3, [r7, #12]
 2416 0052 012B     		cmp	r3, #1
 2417 0054 EBDD     		ble	.L125
 2418              	.LBE3:
 568:..\src/utils.c ****         }        
 569:..\src/utils.c ****         
 570:..\src/utils.c ****         last_counter_value = current_counter_value;
 2419              		.loc 1 570 0 is_stmt 1
 2420 0056 BB68     		ldr	r3, [r7, #8]
 2421 0058 094A     		ldr	r2, .L127
 2422 005a 1360     		str	r3, [r2]
 571:..\src/utils.c ****         
 572:..\src/utils.c ****         emg_history_next_idx++;
 2423              		.loc 1 572 0
 2424 005c 094B     		ldr	r3, .L127+4
 2425 005e 1B68     		ldr	r3, [r3]
 2426 0060 0133     		adds	r3, r3, #1
 2427 0062 084A     		ldr	r2, .L127+4
 2428 0064 1360     		str	r3, [r2]
 573:..\src/utils.c ****         if (emg_history_next_idx >= SAMPLES_FOR_EMG_HISTORY){
 2429              		.loc 1 573 0
 2430 0066 074B     		ldr	r3, .L127+4
 2431 0068 1B68     		ldr	r3, [r3]
 2432 006a B3F5167F 		cmp	r3, #600
 2433 006e 02D3     		bcc	.L126
 574:..\src/utils.c ****             emg_history_next_idx = 0;
 2434              		.loc 1 574 0
ARM GAS  C:\Users\Mattia\AppData\Local\Temp\ccUc3JYZ.s 			page 55


 2435 0070 044B     		ldr	r3, .L127+4
 2436 0072 0022     		movs	r2, #0
 2437 0074 1A60     		str	r2, [r3]
 2438              	.L126:
 575:..\src/utils.c ****         }
 576:..\src/utils.c ****     }
 577:..\src/utils.c **** }
 2439              		.loc 1 577 0
 2440 0076 00BF     		nop
 2441 0078 1037     		adds	r7, r7, #16
 2442              		.cfi_def_cfa_offset 8
 2443 007a BD46     		mov	sp, r7
 2444              		.cfi_def_cfa_register 13
 2445              		@ sp needed
 2446 007c 80BD     		pop	{r7, pc}
 2447              	.L128:
 2448 007e 00BF     		.align	2
 2449              	.L127:
 2450 0080 04000000 		.word	last_counter_value.10282
 2451 0084 00000000 		.word	emg_history_next_idx
 2452 0088 00000000 		.word	g_adc_meas
 2453 008c 00000000 		.word	emg_history
 2454              		.cfi_endproc
 2455              	.LFE79:
 2456              		.size	update_EMG_history, .-update_EMG_history
 2457              		.bss
 2458              		.align	2
 2459              	virtual_pos_friction.10187:
 2460 0000 00000000 		.space	8
 2460      00000000 
 2461              		.align	2
 2462              	err_pos_dt.10188:
 2463 0008 00000000 		.space	8
 2463      00000000 
 2464              	direction.10202:
 2465 0010 00       		.space	1
 2466 0011 00       		.align	1
 2467              	closure_counter.10203:
 2468 0012 0000     		.space	2
 2469              		.data
 2470              		.type	first_time.10230, %object
 2471              		.size	first_time.10230, 1
 2472              	first_time.10230:
 2473 0000 01       		.byte	1
 2474              		.bss
 2475              		.align	2
 2476              	count.10228:
 2477 0014 00000000 		.space	4
 2478              		.data
 2479              		.type	flag_count.10229, %object
 2480              		.size	flag_count.10229, 1
 2481              	flag_count.10229:
 2482 0001 01       		.byte	1
 2483              		.bss
 2484              		.align	2
 2485              	m.10231:
 2486 0018 00000000 		.space	4
ARM GAS  C:\Users\Mattia\AppData\Local\Temp\ccUc3JYZ.s 			page 56


 2487              		.align	2
 2488              	abs_err_thr.10232:
 2489 001c 00000000 		.space	4
 2490              		.align	2
 2491              	rest_error.10235:
 2492 0020 00000000 		.space	4
 2493              		.align	2
 2494              	delta_inc.10233:
 2495 0024 00000000 		.space	4
 2496              		.align	2
 2497              	v_count_lb.10250:
 2498 0028 00000000 		.space	4
 2499              		.data
 2500 0002 0000     		.align	2
 2501              		.type	last_counter_value.10282, %object
 2502              		.size	last_counter_value.10282, 4
 2503              	last_counter_value.10282:
 2504 0004 70170000 		.word	6000
 2505              		.text
 2506              	.Letext0:
 2507              		.file 2 "c:\\program files (x86)\\cypress\\psoc creator\\4.2\\psoc creator\\import\\gnu\\arm\\5.4.
 2508              		.file 3 "c:\\program files (x86)\\cypress\\psoc creator\\4.2\\psoc creator\\import\\gnu\\arm\\5.4.
 2509              		.file 4 "Generated_Source\\PSoC5/cytypes.h"
 2510              		.file 5 "..\\src\\globals.h"
 2511              		.file 6 "Generated_Source\\PSoC5/core_cm3.h"
 2512              		.file 7 "..\\src\\commands.h"
 2513              		.section	.debug_info,"",%progbits
 2514              	.Ldebug_info0:
 2515 0000 C7100000 		.4byte	0x10c7
 2516 0004 0400     		.2byte	0x4
 2517 0006 00000000 		.4byte	.Ldebug_abbrev0
 2518 000a 04       		.byte	0x4
 2519 000b 01       		.uleb128 0x1
 2520 000c B8000000 		.4byte	.LASF212
 2521 0010 0C       		.byte	0xc
 2522 0011 C9080000 		.4byte	.LASF213
 2523 0015 29020000 		.4byte	.LASF214
 2524 0019 00000000 		.4byte	.Ldebug_ranges0+0
 2525 001d 00000000 		.4byte	0
 2526 0021 00000000 		.4byte	.Ldebug_line0
 2527 0025 02       		.uleb128 0x2
 2528 0026 01       		.byte	0x1
 2529 0027 06       		.byte	0x6
 2530 0028 EA010000 		.4byte	.LASF0
 2531 002c 02       		.uleb128 0x2
 2532 002d 01       		.byte	0x1
 2533 002e 08       		.byte	0x8
 2534 002f 4A090000 		.4byte	.LASF1
 2535 0033 02       		.uleb128 0x2
 2536 0034 02       		.byte	0x2
 2537 0035 05       		.byte	0x5
 2538 0036 06000000 		.4byte	.LASF2
 2539 003a 02       		.uleb128 0x2
 2540 003b 02       		.byte	0x2
 2541 003c 07       		.byte	0x7
 2542 003d E6040000 		.4byte	.LASF3
 2543 0041 03       		.uleb128 0x3
ARM GAS  C:\Users\Mattia\AppData\Local\Temp\ccUc3JYZ.s 			page 57


 2544 0042 CE050000 		.4byte	.LASF9
 2545 0046 02       		.byte	0x2
 2546 0047 3F       		.byte	0x3f
 2547 0048 4C000000 		.4byte	0x4c
 2548 004c 02       		.uleb128 0x2
 2549 004d 04       		.byte	0x4
 2550 004e 05       		.byte	0x5
 2551 004f 80020000 		.4byte	.LASF4
 2552 0053 02       		.uleb128 0x2
 2553 0054 04       		.byte	0x4
 2554 0055 07       		.byte	0x7
 2555 0056 7B080000 		.4byte	.LASF5
 2556 005a 02       		.uleb128 0x2
 2557 005b 08       		.byte	0x8
 2558 005c 05       		.byte	0x5
 2559 005d DC010000 		.4byte	.LASF6
 2560 0061 02       		.uleb128 0x2
 2561 0062 08       		.byte	0x8
 2562 0063 07       		.byte	0x7
 2563 0064 61010000 		.4byte	.LASF7
 2564 0068 04       		.uleb128 0x4
 2565 0069 04       		.byte	0x4
 2566 006a 05       		.byte	0x5
 2567 006b 696E7400 		.ascii	"int\000"
 2568 006f 02       		.uleb128 0x2
 2569 0070 04       		.byte	0x4
 2570 0071 07       		.byte	0x7
 2571 0072 2D040000 		.4byte	.LASF8
 2572 0076 03       		.uleb128 0x3
 2573 0077 76070000 		.4byte	.LASF10
 2574 007b 03       		.byte	0x3
 2575 007c 2C       		.byte	0x2c
 2576 007d 41000000 		.4byte	0x41
 2577 0081 05       		.uleb128 0x5
 2578 0082 AB060000 		.4byte	.LASF11
 2579 0086 04       		.byte	0x4
 2580 0087 E401     		.2byte	0x1e4
 2581 0089 2C000000 		.4byte	0x2c
 2582 008d 05       		.uleb128 0x5
 2583 008e 93020000 		.4byte	.LASF12
 2584 0092 04       		.byte	0x4
 2585 0093 E501     		.2byte	0x1e5
 2586 0095 3A000000 		.4byte	0x3a
 2587 0099 05       		.uleb128 0x5
 2588 009a 74030000 		.4byte	.LASF13
 2589 009e 04       		.byte	0x4
 2590 009f E601     		.2byte	0x1e6
 2591 00a1 53000000 		.4byte	0x53
 2592 00a5 05       		.uleb128 0x5
 2593 00a6 0E050000 		.4byte	.LASF14
 2594 00aa 04       		.byte	0x4
 2595 00ab E701     		.2byte	0x1e7
 2596 00ad 25000000 		.4byte	0x25
 2597 00b1 05       		.uleb128 0x5
 2598 00b2 27080000 		.4byte	.LASF15
 2599 00b6 04       		.byte	0x4
 2600 00b7 E801     		.2byte	0x1e8
ARM GAS  C:\Users\Mattia\AppData\Local\Temp\ccUc3JYZ.s 			page 58


 2601 00b9 33000000 		.4byte	0x33
 2602 00bd 05       		.uleb128 0x5
 2603 00be 23020000 		.4byte	.LASF16
 2604 00c2 04       		.byte	0x4
 2605 00c3 E901     		.2byte	0x1e9
 2606 00c5 4C000000 		.4byte	0x4c
 2607 00c9 05       		.uleb128 0x5
 2608 00ca 18060000 		.4byte	.LASF17
 2609 00ce 04       		.byte	0x4
 2610 00cf EA01     		.2byte	0x1ea
 2611 00d1 D5000000 		.4byte	0xd5
 2612 00d5 02       		.uleb128 0x2
 2613 00d6 04       		.byte	0x4
 2614 00d7 04       		.byte	0x4
 2615 00d8 600A0000 		.4byte	.LASF18
 2616 00dc 02       		.uleb128 0x2
 2617 00dd 08       		.byte	0x8
 2618 00de 04       		.byte	0x4
 2619 00df 210B0000 		.4byte	.LASF19
 2620 00e3 02       		.uleb128 0x2
 2621 00e4 01       		.byte	0x1
 2622 00e5 08       		.byte	0x8
 2623 00e6 A4080000 		.4byte	.LASF20
 2624 00ea 02       		.uleb128 0x2
 2625 00eb 08       		.byte	0x8
 2626 00ec 04       		.byte	0x4
 2627 00ed 4B060000 		.4byte	.LASF21
 2628 00f1 02       		.uleb128 0x2
 2629 00f2 04       		.byte	0x4
 2630 00f3 07       		.byte	0x7
 2631 00f4 2D060000 		.4byte	.LASF22
 2632 00f8 06       		.uleb128 0x6
 2633 00f9 E3000000 		.4byte	0xe3
 2634 00fd 08010000 		.4byte	0x108
 2635 0101 07       		.uleb128 0x7
 2636 0102 F1000000 		.4byte	0xf1
 2637 0106 07       		.byte	0x7
 2638 0107 00       		.byte	0
 2639 0108 08       		.uleb128 0x8
 2640 0109 29050000 		.4byte	.LASF215
 2641 010d 01       		.byte	0x1
 2642 010e 2C000000 		.4byte	0x2c
 2643 0112 07       		.byte	0x7
 2644 0113 8E       		.byte	0x8e
 2645 0114 49010000 		.4byte	0x149
 2646 0118 09       		.uleb128 0x9
 2647 0119 B5080000 		.4byte	.LASF23
 2648 011d 00       		.byte	0
 2649 011e 09       		.uleb128 0x9
 2650 011f AC050000 		.4byte	.LASF24
 2651 0123 01       		.byte	0x1
 2652 0124 09       		.uleb128 0x9
 2653 0125 95030000 		.4byte	.LASF25
 2654 0129 02       		.byte	0x2
 2655 012a 09       		.uleb128 0x9
 2656 012b 0F0A0000 		.4byte	.LASF26
 2657 012f 03       		.byte	0x3
ARM GAS  C:\Users\Mattia\AppData\Local\Temp\ccUc3JYZ.s 			page 59


 2658 0130 09       		.uleb128 0x9
 2659 0131 78040000 		.4byte	.LASF27
 2660 0135 04       		.byte	0x4
 2661 0136 09       		.uleb128 0x9
 2662 0137 F5060000 		.4byte	.LASF28
 2663 013b 05       		.byte	0x5
 2664 013c 09       		.uleb128 0x9
 2665 013d DC030000 		.4byte	.LASF29
 2666 0141 06       		.byte	0x6
 2667 0142 09       		.uleb128 0x9
 2668 0143 DE090000 		.4byte	.LASF30
 2669 0147 07       		.byte	0x7
 2670 0148 00       		.byte	0
 2671 0149 0A       		.uleb128 0xa
 2672 014a 3A040000 		.4byte	.LASF33
 2673 014e 10       		.byte	0x10
 2674 014f 05       		.byte	0x5
 2675 0150 E2       		.byte	0xe2
 2676 0151 86010000 		.4byte	0x186
 2677 0155 0B       		.uleb128 0xb
 2678 0156 706F7300 		.ascii	"pos\000"
 2679 015a 05       		.byte	0x5
 2680 015b E3       		.byte	0xe3
 2681 015c BD000000 		.4byte	0xbd
 2682 0160 00       		.byte	0
 2683 0161 0C       		.uleb128 0xc
 2684 0162 8C070000 		.4byte	.LASF31
 2685 0166 05       		.byte	0x5
 2686 0167 E4       		.byte	0xe4
 2687 0168 BD000000 		.4byte	0xbd
 2688 016c 04       		.byte	0x4
 2689 016d 0B       		.uleb128 0xb
 2690 016e 70776D00 		.ascii	"pwm\000"
 2691 0172 05       		.byte	0x5
 2692 0173 E5       		.byte	0xe5
 2693 0174 BD000000 		.4byte	0xbd
 2694 0178 08       		.byte	0x8
 2695 0179 0C       		.uleb128 0xc
 2696 017a C7060000 		.4byte	.LASF32
 2697 017e 05       		.byte	0x5
 2698 017f E6       		.byte	0xe6
 2699 0180 81000000 		.4byte	0x81
 2700 0184 0C       		.byte	0xc
 2701 0185 00       		.byte	0
 2702 0186 0A       		.uleb128 0xa
 2703 0187 23000000 		.4byte	.LASF34
 2704 018b 34       		.byte	0x34
 2705 018c 05       		.byte	0x5
 2706 018d ED       		.byte	0xed
 2707 018e E7010000 		.4byte	0x1e7
 2708 0192 0B       		.uleb128 0xb
 2709 0193 706F7300 		.ascii	"pos\000"
 2710 0197 05       		.byte	0x5
 2711 0198 EE       		.byte	0xee
 2712 0199 E7010000 		.4byte	0x1e7
 2713 019d 00       		.byte	0
 2714 019e 0C       		.uleb128 0xc
ARM GAS  C:\Users\Mattia\AppData\Local\Temp\ccUc3JYZ.s 			page 60


 2715 019f 8C070000 		.4byte	.LASF31
 2716 01a3 05       		.byte	0x5
 2717 01a4 EF       		.byte	0xef
 2718 01a5 BD000000 		.4byte	0xbd
 2719 01a9 0C       		.byte	0xc
 2720 01aa 0C       		.uleb128 0xc
 2721 01ab 06020000 		.4byte	.LASF35
 2722 01af 05       		.byte	0x5
 2723 01b0 F0       		.byte	0xf0
 2724 01b1 BD000000 		.4byte	0xbd
 2725 01b5 10       		.byte	0x10
 2726 01b6 0C       		.uleb128 0xc
 2727 01b7 89020000 		.4byte	.LASF36
 2728 01bb 05       		.byte	0x5
 2729 01bc F1       		.byte	0xf1
 2730 01bd BD000000 		.4byte	0xbd
 2731 01c1 14       		.byte	0x14
 2732 01c2 0B       		.uleb128 0xb
 2733 01c3 726F7400 		.ascii	"rot\000"
 2734 01c7 05       		.byte	0x5
 2735 01c8 F2       		.byte	0xf2
 2736 01c9 F7010000 		.4byte	0x1f7
 2737 01cd 18       		.byte	0x18
 2738 01ce 0B       		.uleb128 0xb
 2739 01cf 76656C00 		.ascii	"vel\000"
 2740 01d3 05       		.byte	0x5
 2741 01d4 F3       		.byte	0xf3
 2742 01d5 E7010000 		.4byte	0x1e7
 2743 01d9 1C       		.byte	0x1c
 2744 01da 0B       		.uleb128 0xb
 2745 01db 61636300 		.ascii	"acc\000"
 2746 01df 05       		.byte	0x5
 2747 01e0 F4       		.byte	0xf4
 2748 01e1 E7010000 		.4byte	0x1e7
 2749 01e5 28       		.byte	0x28
 2750 01e6 00       		.byte	0
 2751 01e7 06       		.uleb128 0x6
 2752 01e8 BD000000 		.4byte	0xbd
 2753 01ec F7010000 		.4byte	0x1f7
 2754 01f0 07       		.uleb128 0x7
 2755 01f1 F1000000 		.4byte	0xf1
 2756 01f5 02       		.byte	0x2
 2757 01f6 00       		.byte	0
 2758 01f7 06       		.uleb128 0x6
 2759 01f8 A5000000 		.4byte	0xa5
 2760 01fc 07020000 		.4byte	0x207
 2761 0200 07       		.uleb128 0x7
 2762 0201 F1000000 		.4byte	0xf1
 2763 0205 02       		.byte	0x2
 2764 0206 00       		.byte	0
 2765 0207 0A       		.uleb128 0xa
 2766 0208 41080000 		.4byte	.LASF37
 2767 020c 28       		.byte	0x28
 2768 020d 05       		.byte	0x5
 2769 020e F7       		.byte	0xf7
 2770 020f 38020000 		.4byte	0x238
 2771 0213 0B       		.uleb128 0xb
ARM GAS  C:\Users\Mattia\AppData\Local\Temp\ccUc3JYZ.s 			page 61


 2772 0214 656D6700 		.ascii	"emg\000"
 2773 0218 05       		.byte	0x5
 2774 0219 F8       		.byte	0xf8
 2775 021a 38020000 		.4byte	0x238
 2776 021e 00       		.byte	0
 2777 021f 0C       		.uleb128 0xc
 2778 0220 F2080000 		.4byte	.LASF38
 2779 0224 05       		.byte	0x5
 2780 0225 F9       		.byte	0xf9
 2781 0226 48020000 		.4byte	0x248
 2782 022a 08       		.byte	0x8
 2783 022b 0C       		.uleb128 0xc
 2784 022c FD090000 		.4byte	.LASF39
 2785 0230 05       		.byte	0x5
 2786 0231 FA       		.byte	0xfa
 2787 0232 38020000 		.4byte	0x238
 2788 0236 20       		.byte	0x20
 2789 0237 00       		.byte	0
 2790 0238 06       		.uleb128 0x6
 2791 0239 BD000000 		.4byte	0xbd
 2792 023d 48020000 		.4byte	0x248
 2793 0241 07       		.uleb128 0x7
 2794 0242 F1000000 		.4byte	0xf1
 2795 0246 01       		.byte	0x1
 2796 0247 00       		.byte	0
 2797 0248 06       		.uleb128 0x6
 2798 0249 BD000000 		.4byte	0xbd
 2799 024d 58020000 		.4byte	0x258
 2800 0251 07       		.uleb128 0x7
 2801 0252 F1000000 		.4byte	0xf1
 2802 0256 05       		.byte	0x5
 2803 0257 00       		.byte	0
 2804 0258 0D       		.uleb128 0xd
 2805 0259 EC070000 		.4byte	.LASF40
 2806 025d 50       		.byte	0x50
 2807 025e 05       		.byte	0x5
 2808 025f 1201     		.2byte	0x112
 2809 0261 C1020000 		.4byte	0x2c1
 2810 0265 0E       		.uleb128 0xe
 2811 0266 1B080000 		.4byte	.LASF41
 2812 026a 05       		.byte	0x5
 2813 026b 1301     		.2byte	0x113
 2814 026d C1020000 		.4byte	0x2c1
 2815 0271 00       		.byte	0
 2816 0272 0E       		.uleb128 0xe
 2817 0273 C0050000 		.4byte	.LASF42
 2818 0277 05       		.byte	0x5
 2819 0278 1401     		.2byte	0x114
 2820 027a D1020000 		.4byte	0x2d1
 2821 027e 08       		.byte	0x8
 2822 027f 0E       		.uleb128 0xe
 2823 0280 0D070000 		.4byte	.LASF43
 2824 0284 05       		.byte	0x5
 2825 0285 1501     		.2byte	0x115
 2826 0287 E1020000 		.4byte	0x2e1
 2827 028b 30       		.byte	0x30
 2828 028c 0E       		.uleb128 0xe
ARM GAS  C:\Users\Mattia\AppData\Local\Temp\ccUc3JYZ.s 			page 62


 2829 028d 62080000 		.4byte	.LASF44
 2830 0291 05       		.byte	0x5
 2831 0292 1601     		.2byte	0x116
 2832 0294 99000000 		.4byte	0x99
 2833 0298 40       		.byte	0x40
 2834 0299 0E       		.uleb128 0xe
 2835 029a DF020000 		.4byte	.LASF45
 2836 029e 05       		.byte	0x5
 2837 029f 1701     		.2byte	0x117
 2838 02a1 99000000 		.4byte	0x99
 2839 02a5 44       		.byte	0x44
 2840 02a6 0E       		.uleb128 0xe
 2841 02a7 71000000 		.4byte	.LASF46
 2842 02ab 05       		.byte	0x5
 2843 02ac 1801     		.2byte	0x118
 2844 02ae 99000000 		.4byte	0x99
 2845 02b2 48       		.byte	0x48
 2846 02b3 0E       		.uleb128 0xe
 2847 02b4 AD0A0000 		.4byte	.LASF47
 2848 02b8 05       		.byte	0x5
 2849 02b9 1901     		.2byte	0x119
 2850 02bb 99000000 		.4byte	0x99
 2851 02bf 4C       		.byte	0x4c
 2852 02c0 00       		.byte	0
 2853 02c1 06       		.uleb128 0x6
 2854 02c2 99000000 		.4byte	0x99
 2855 02c6 D1020000 		.4byte	0x2d1
 2856 02ca 07       		.uleb128 0x7
 2857 02cb F1000000 		.4byte	0xf1
 2858 02cf 01       		.byte	0x1
 2859 02d0 00       		.byte	0
 2860 02d1 06       		.uleb128 0x6
 2861 02d2 99000000 		.4byte	0x99
 2862 02d6 E1020000 		.4byte	0x2e1
 2863 02da 07       		.uleb128 0x7
 2864 02db F1000000 		.4byte	0xf1
 2865 02df 09       		.byte	0x9
 2866 02e0 00       		.byte	0
 2867 02e1 06       		.uleb128 0x6
 2868 02e2 99000000 		.4byte	0x99
 2869 02e6 F1020000 		.4byte	0x2f1
 2870 02ea 07       		.uleb128 0x7
 2871 02eb F1000000 		.4byte	0xf1
 2872 02ef 03       		.byte	0x3
 2873 02f0 00       		.byte	0
 2874 02f1 0D       		.uleb128 0xd
 2875 02f2 57060000 		.4byte	.LASF48
 2876 02f6 10       		.byte	0x10
 2877 02f7 05       		.byte	0x5
 2878 02f8 2001     		.2byte	0x120
 2879 02fa 80030000 		.4byte	0x380
 2880 02fe 0F       		.uleb128 0xf
 2881 02ff 696400   		.ascii	"id\000"
 2882 0302 05       		.byte	0x5
 2883 0303 2101     		.2byte	0x121
 2884 0305 81000000 		.4byte	0x81
 2885 0309 00       		.byte	0
ARM GAS  C:\Users\Mattia\AppData\Local\Temp\ccUc3JYZ.s 			page 63


 2886 030a 0E       		.uleb128 0xe
 2887 030b EA050000 		.4byte	.LASF49
 2888 030f 05       		.byte	0x5
 2889 0310 2201     		.2byte	0x122
 2890 0312 80030000 		.4byte	0x380
 2891 0316 01       		.byte	0x1
 2892 0317 0E       		.uleb128 0xe
 2893 0318 090B0000 		.4byte	.LASF50
 2894 031c 05       		.byte	0x5
 2895 031d 2301     		.2byte	0x123
 2896 031f 80030000 		.4byte	0x380
 2897 0323 04       		.byte	0x4
 2898 0324 0E       		.uleb128 0xe
 2899 0325 D4020000 		.4byte	.LASF51
 2900 0329 05       		.byte	0x5
 2901 032a 2401     		.2byte	0x124
 2902 032c 81000000 		.4byte	0x81
 2903 0330 07       		.byte	0x7
 2904 0331 0E       		.uleb128 0xe
 2905 0332 07040000 		.4byte	.LASF52
 2906 0336 05       		.byte	0x5
 2907 0337 2501     		.2byte	0x125
 2908 0339 81000000 		.4byte	0x81
 2909 033d 08       		.byte	0x8
 2910 033e 0E       		.uleb128 0xe
 2911 033f 10000000 		.4byte	.LASF53
 2912 0343 05       		.byte	0x5
 2913 0344 2601     		.2byte	0x126
 2914 0346 81000000 		.4byte	0x81
 2915 034a 09       		.byte	0x9
 2916 034b 0E       		.uleb128 0xe
 2917 034c 78010000 		.4byte	.LASF54
 2918 0350 05       		.byte	0x5
 2919 0351 2701     		.2byte	0x127
 2920 0353 81000000 		.4byte	0x81
 2921 0357 0A       		.byte	0xa
 2922 0358 0E       		.uleb128 0xe
 2923 0359 7C060000 		.4byte	.LASF55
 2924 035d 05       		.byte	0x5
 2925 035e 2801     		.2byte	0x128
 2926 0360 81000000 		.4byte	0x81
 2927 0364 0B       		.byte	0xb
 2928 0365 0E       		.uleb128 0xe
 2929 0366 1F090000 		.4byte	.LASF56
 2930 036a 05       		.byte	0x5
 2931 036b 2901     		.2byte	0x129
 2932 036d 81000000 		.4byte	0x81
 2933 0371 0C       		.byte	0xc
 2934 0372 0E       		.uleb128 0xe
 2935 0373 7B050000 		.4byte	.LASF57
 2936 0377 05       		.byte	0x5
 2937 0378 2A01     		.2byte	0x12a
 2938 037a 80030000 		.4byte	0x380
 2939 037e 0D       		.byte	0xd
 2940 037f 00       		.byte	0
 2941 0380 06       		.uleb128 0x6
 2942 0381 81000000 		.4byte	0x81
ARM GAS  C:\Users\Mattia\AppData\Local\Temp\ccUc3JYZ.s 			page 64


 2943 0385 90030000 		.4byte	0x390
 2944 0389 07       		.uleb128 0x7
 2945 038a F1000000 		.4byte	0xf1
 2946 038e 02       		.byte	0x2
 2947 038f 00       		.byte	0
 2948 0390 0D       		.uleb128 0xd
 2949 0391 72090000 		.4byte	.LASF58
 2950 0395 70       		.byte	0x70
 2951 0396 05       		.byte	0x5
 2952 0397 3101     		.2byte	0x131
 2953 0399 0A050000 		.4byte	0x50a
 2954 039d 0F       		.uleb128 0xf
 2955 039e 6B5F7000 		.ascii	"k_p\000"
 2956 03a2 05       		.byte	0x5
 2957 03a3 3201     		.2byte	0x132
 2958 03a5 BD000000 		.4byte	0xbd
 2959 03a9 00       		.byte	0
 2960 03aa 0F       		.uleb128 0xf
 2961 03ab 6B5F6900 		.ascii	"k_i\000"
 2962 03af 05       		.byte	0x5
 2963 03b0 3301     		.2byte	0x133
 2964 03b2 BD000000 		.4byte	0xbd
 2965 03b6 04       		.byte	0x4
 2966 03b7 0F       		.uleb128 0xf
 2967 03b8 6B5F6400 		.ascii	"k_d\000"
 2968 03bc 05       		.byte	0x5
 2969 03bd 3401     		.2byte	0x134
 2970 03bf BD000000 		.4byte	0xbd
 2971 03c3 08       		.byte	0x8
 2972 03c4 0E       		.uleb128 0xe
 2973 03c5 A5060000 		.4byte	.LASF59
 2974 03c9 05       		.byte	0x5
 2975 03ca 3501     		.2byte	0x135
 2976 03cc BD000000 		.4byte	0xbd
 2977 03d0 0C       		.byte	0xc
 2978 03d1 0E       		.uleb128 0xe
 2979 03d2 44090000 		.4byte	.LASF60
 2980 03d6 05       		.byte	0x5
 2981 03d7 3601     		.2byte	0x136
 2982 03d9 BD000000 		.4byte	0xbd
 2983 03dd 10       		.byte	0x10
 2984 03de 0E       		.uleb128 0xe
 2985 03df 8D090000 		.4byte	.LASF61
 2986 03e3 05       		.byte	0x5
 2987 03e4 3701     		.2byte	0x137
 2988 03e6 BD000000 		.4byte	0xbd
 2989 03ea 14       		.byte	0x14
 2990 03eb 0E       		.uleb128 0xe
 2991 03ec 350B0000 		.4byte	.LASF62
 2992 03f0 05       		.byte	0x5
 2993 03f1 3801     		.2byte	0x138
 2994 03f3 BD000000 		.4byte	0xbd
 2995 03f7 18       		.byte	0x18
 2996 03f8 0E       		.uleb128 0xe
 2997 03f9 5C040000 		.4byte	.LASF63
 2998 03fd 05       		.byte	0x5
 2999 03fe 3901     		.2byte	0x139
ARM GAS  C:\Users\Mattia\AppData\Local\Temp\ccUc3JYZ.s 			page 65


 3000 0400 BD000000 		.4byte	0xbd
 3001 0404 1C       		.byte	0x1c
 3002 0405 0E       		.uleb128 0xe
 3003 0406 00040000 		.4byte	.LASF64
 3004 040a 05       		.byte	0x5
 3005 040b 3A01     		.2byte	0x13a
 3006 040d BD000000 		.4byte	0xbd
 3007 0411 20       		.byte	0x20
 3008 0412 0E       		.uleb128 0xe
 3009 0413 B1030000 		.4byte	.LASF65
 3010 0417 05       		.byte	0x5
 3011 0418 3B01     		.2byte	0x13b
 3012 041a BD000000 		.4byte	0xbd
 3013 041e 24       		.byte	0x24
 3014 041f 0E       		.uleb128 0xe
 3015 0420 28090000 		.4byte	.LASF66
 3016 0424 05       		.byte	0x5
 3017 0425 3C01     		.2byte	0x13c
 3018 0427 BD000000 		.4byte	0xbd
 3019 042b 28       		.byte	0x28
 3020 042c 0E       		.uleb128 0xe
 3021 042d 450A0000 		.4byte	.LASF67
 3022 0431 05       		.byte	0x5
 3023 0432 3D01     		.2byte	0x13d
 3024 0434 BD000000 		.4byte	0xbd
 3025 0438 2C       		.byte	0x2c
 3026 0439 0E       		.uleb128 0xe
 3027 043a 24070000 		.4byte	.LASF68
 3028 043e 05       		.byte	0x5
 3029 043f 3E01     		.2byte	0x13e
 3030 0441 81000000 		.4byte	0x81
 3031 0445 30       		.byte	0x30
 3032 0446 0E       		.uleb128 0xe
 3033 0447 8D080000 		.4byte	.LASF69
 3034 044b 05       		.byte	0x5
 3035 044c 3F01     		.2byte	0x13f
 3036 044e 81000000 		.4byte	0x81
 3037 0452 31       		.byte	0x31
 3038 0453 0E       		.uleb128 0xe
 3039 0454 5D050000 		.4byte	.LASF70
 3040 0458 05       		.byte	0x5
 3041 0459 4001     		.2byte	0x140
 3042 045b 81000000 		.4byte	0x81
 3043 045f 32       		.byte	0x32
 3044 0460 0E       		.uleb128 0xe
 3045 0461 2D080000 		.4byte	.LASF71
 3046 0465 05       		.byte	0x5
 3047 0466 4101     		.2byte	0x141
 3048 0468 81000000 		.4byte	0x81
 3049 046c 33       		.byte	0x33
 3050 046d 0E       		.uleb128 0xe
 3051 046e 6F050000 		.4byte	.LASF72
 3052 0472 05       		.byte	0x5
 3053 0473 4201     		.2byte	0x142
 3054 0475 BD000000 		.4byte	0xbd
 3055 0479 34       		.byte	0x34
 3056 047a 0E       		.uleb128 0xe
ARM GAS  C:\Users\Mattia\AppData\Local\Temp\ccUc3JYZ.s 			page 66


 3057 047b D6060000 		.4byte	.LASF73
 3058 047f 05       		.byte	0x5
 3059 0480 4301     		.2byte	0x143
 3060 0482 BD000000 		.4byte	0xbd
 3061 0486 38       		.byte	0x38
 3062 0487 0E       		.uleb128 0xe
 3063 0488 9F040000 		.4byte	.LASF74
 3064 048c 05       		.byte	0x5
 3065 048d 4401     		.2byte	0x144
 3066 048f BD000000 		.4byte	0xbd
 3067 0493 3C       		.byte	0x3c
 3068 0494 0E       		.uleb128 0xe
 3069 0495 4D080000 		.4byte	.LASF75
 3070 0499 05       		.byte	0x5
 3071 049a 4501     		.2byte	0x145
 3072 049c BD000000 		.4byte	0xbd
 3073 04a0 40       		.byte	0x40
 3074 04a1 0E       		.uleb128 0xe
 3075 04a2 BB090000 		.4byte	.LASF76
 3076 04a6 05       		.byte	0x5
 3077 04a7 4601     		.2byte	0x146
 3078 04a9 0A050000 		.4byte	0x50a
 3079 04ad 44       		.byte	0x44
 3080 04ae 0E       		.uleb128 0xe
 3081 04af DE070000 		.4byte	.LASF77
 3082 04b3 05       		.byte	0x5
 3083 04b4 4701     		.2byte	0x147
 3084 04b6 B1000000 		.4byte	0xb1
 3085 04ba 5C       		.byte	0x5c
 3086 04bb 0E       		.uleb128 0xe
 3087 04bc F0030000 		.4byte	.LASF78
 3088 04c0 05       		.byte	0x5
 3089 04c1 4801     		.2byte	0x148
 3090 04c3 81000000 		.4byte	0x81
 3091 04c7 5E       		.byte	0x5e
 3092 04c8 0E       		.uleb128 0xe
 3093 04c9 F5020000 		.4byte	.LASF79
 3094 04cd 05       		.byte	0x5
 3095 04ce 4901     		.2byte	0x149
 3096 04d0 81000000 		.4byte	0x81
 3097 04d4 5F       		.byte	0x5f
 3098 04d5 0E       		.uleb128 0xe
 3099 04d6 85000000 		.4byte	.LASF80
 3100 04da 05       		.byte	0x5
 3101 04db 4A01     		.2byte	0x14a
 3102 04dd 81000000 		.4byte	0x81
 3103 04e1 60       		.byte	0x60
 3104 04e2 0E       		.uleb128 0xe
 3105 04e3 3C0B0000 		.4byte	.LASF81
 3106 04e7 05       		.byte	0x5
 3107 04e8 4B01     		.2byte	0x14b
 3108 04ea 81000000 		.4byte	0x81
 3109 04ee 61       		.byte	0x61
 3110 04ef 0E       		.uleb128 0xe
 3111 04f0 B2020000 		.4byte	.LASF82
 3112 04f4 05       		.byte	0x5
 3113 04f5 4C01     		.2byte	0x14c
ARM GAS  C:\Users\Mattia\AppData\Local\Temp\ccUc3JYZ.s 			page 67


 3114 04f7 81000000 		.4byte	0x81
 3115 04fb 62       		.byte	0x62
 3116 04fc 0E       		.uleb128 0xe
 3117 04fd 7B050000 		.4byte	.LASF57
 3118 0501 05       		.byte	0x5
 3119 0502 4D01     		.2byte	0x14d
 3120 0504 1A050000 		.4byte	0x51a
 3121 0508 63       		.byte	0x63
 3122 0509 00       		.byte	0
 3123 050a 06       		.uleb128 0x6
 3124 050b D5000000 		.4byte	0xd5
 3125 050f 1A050000 		.4byte	0x51a
 3126 0513 07       		.uleb128 0x7
 3127 0514 F1000000 		.4byte	0xf1
 3128 0518 05       		.byte	0x5
 3129 0519 00       		.byte	0
 3130 051a 06       		.uleb128 0x6
 3131 051b 81000000 		.4byte	0x81
 3132 051f 2A050000 		.4byte	0x52a
 3133 0523 07       		.uleb128 0x7
 3134 0524 F1000000 		.4byte	0xf1
 3135 0528 0C       		.byte	0xc
 3136 0529 00       		.byte	0
 3137 052a 0D       		.uleb128 0xd
 3138 052b C5070000 		.4byte	.LASF83
 3139 052f 30       		.byte	0x30
 3140 0530 05       		.byte	0x5
 3141 0531 5401     		.2byte	0x154
 3142 0533 AD050000 		.4byte	0x5ad
 3143 0537 0E       		.uleb128 0xe
 3144 0538 58090000 		.4byte	.LASF84
 3145 053c 05       		.byte	0x5
 3146 053d 5501     		.2byte	0x155
 3147 053f AD050000 		.4byte	0x5ad
 3148 0543 00       		.byte	0
 3149 0544 0F       		.uleb128 0xf
 3150 0545 72657300 		.ascii	"res\000"
 3151 0549 05       		.byte	0x5
 3152 054a 5601     		.2byte	0x156
 3153 054c 80030000 		.4byte	0x380
 3154 0550 05       		.byte	0x5
 3155 0551 0E       		.uleb128 0xe
 3156 0552 7F000000 		.4byte	.LASF85
 3157 0556 05       		.byte	0x5
 3158 0557 5701     		.2byte	0x157
 3159 0559 E7010000 		.4byte	0x1e7
 3160 055d 08       		.byte	0x8
 3161 055e 0E       		.uleb128 0xe
 3162 055f 91070000 		.4byte	.LASF86
 3163 0563 05       		.byte	0x5
 3164 0564 5801     		.2byte	0x158
 3165 0566 BD050000 		.4byte	0x5bd
 3166 056a 14       		.byte	0x14
 3167 056b 0E       		.uleb128 0xe
 3168 056c C80A0000 		.4byte	.LASF87
 3169 0570 05       		.byte	0x5
 3170 0571 5901     		.2byte	0x159
ARM GAS  C:\Users\Mattia\AppData\Local\Temp\ccUc3JYZ.s 			page 68


 3171 0573 81000000 		.4byte	0x81
 3172 0577 20       		.byte	0x20
 3173 0578 0E       		.uleb128 0xe
 3174 0579 4E070000 		.4byte	.LASF88
 3175 057d 05       		.byte	0x5
 3176 057e 5A01     		.2byte	0x15a
 3177 0580 80030000 		.4byte	0x380
 3178 0584 21       		.byte	0x21
 3179 0585 0E       		.uleb128 0xe
 3180 0586 41040000 		.4byte	.LASF89
 3181 058a 05       		.byte	0x5
 3182 058b 5B01     		.2byte	0x15b
 3183 058d A5000000 		.4byte	0xa5
 3184 0591 24       		.byte	0x24
 3185 0592 0E       		.uleb128 0xe
 3186 0593 AE070000 		.4byte	.LASF90
 3187 0597 05       		.byte	0x5
 3188 0598 5C01     		.2byte	0x15c
 3189 059a F7010000 		.4byte	0x1f7
 3190 059e 25       		.byte	0x25
 3191 059f 0E       		.uleb128 0xe
 3192 05a0 7B050000 		.4byte	.LASF57
 3193 05a4 05       		.byte	0x5
 3194 05a5 5D01     		.2byte	0x15d
 3195 05a7 CD050000 		.4byte	0x5cd
 3196 05ab 28       		.byte	0x28
 3197 05ac 00       		.byte	0
 3198 05ad 06       		.uleb128 0x6
 3199 05ae 81000000 		.4byte	0x81
 3200 05b2 BD050000 		.4byte	0x5bd
 3201 05b6 07       		.uleb128 0x7
 3202 05b7 F1000000 		.4byte	0xf1
 3203 05bb 04       		.byte	0x4
 3204 05bc 00       		.byte	0
 3205 05bd 06       		.uleb128 0x6
 3206 05be C9000000 		.4byte	0xc9
 3207 05c2 CD050000 		.4byte	0x5cd
 3208 05c6 07       		.uleb128 0x7
 3209 05c7 F1000000 		.4byte	0xf1
 3210 05cb 02       		.byte	0x2
 3211 05cc 00       		.byte	0
 3212 05cd 06       		.uleb128 0x6
 3213 05ce 81000000 		.4byte	0x81
 3214 05d2 DD050000 		.4byte	0x5dd
 3215 05d6 07       		.uleb128 0x7
 3216 05d7 F1000000 		.4byte	0xf1
 3217 05db 07       		.byte	0x7
 3218 05dc 00       		.byte	0
 3219 05dd 0D       		.uleb128 0xd
 3220 05de 3A080000 		.4byte	.LASF91
 3221 05e2 10       		.byte	0x10
 3222 05e3 05       		.byte	0x5
 3223 05e4 6401     		.2byte	0x164
 3224 05e6 2C060000 		.4byte	0x62c
 3225 05ea 0E       		.uleb128 0xe
 3226 05eb CE010000 		.4byte	.LASF92
 3227 05ef 05       		.byte	0x5
ARM GAS  C:\Users\Mattia\AppData\Local\Temp\ccUc3JYZ.s 			page 69


 3228 05f0 6501     		.2byte	0x165
 3229 05f2 2C060000 		.4byte	0x62c
 3230 05f6 00       		.byte	0
 3231 05f7 0E       		.uleb128 0xe
 3232 05f8 2A070000 		.4byte	.LASF93
 3233 05fc 05       		.byte	0x5
 3234 05fd 6601     		.2byte	0x166
 3235 05ff C1020000 		.4byte	0x2c1
 3236 0603 04       		.byte	0x4
 3237 0604 0E       		.uleb128 0xe
 3238 0605 270A0000 		.4byte	.LASF94
 3239 0609 05       		.byte	0x5
 3240 060a 6701     		.2byte	0x167
 3241 060c 3C060000 		.4byte	0x63c
 3242 0610 0C       		.byte	0xc
 3243 0611 0E       		.uleb128 0xe
 3244 0612 29030000 		.4byte	.LASF95
 3245 0616 05       		.byte	0x5
 3246 0617 6801     		.2byte	0x168
 3247 0619 81000000 		.4byte	0x81
 3248 061d 0E       		.byte	0xe
 3249 061e 0E       		.uleb128 0xe
 3250 061f D1030000 		.4byte	.LASF96
 3251 0623 05       		.byte	0x5
 3252 0624 6901     		.2byte	0x169
 3253 0626 81000000 		.4byte	0x81
 3254 062a 0F       		.byte	0xf
 3255 062b 00       		.byte	0
 3256 062c 06       		.uleb128 0x6
 3257 062d 8D000000 		.4byte	0x8d
 3258 0631 3C060000 		.4byte	0x63c
 3259 0635 07       		.uleb128 0x7
 3260 0636 F1000000 		.4byte	0xf1
 3261 063a 01       		.byte	0x1
 3262 063b 00       		.byte	0
 3263 063c 06       		.uleb128 0x6
 3264 063d 81000000 		.4byte	0x81
 3265 0641 4C060000 		.4byte	0x64c
 3266 0645 07       		.uleb128 0x7
 3267 0646 F1000000 		.4byte	0xf1
 3268 064a 01       		.byte	0x1
 3269 064b 00       		.byte	0
 3270 064c 0D       		.uleb128 0xd
 3271 064d 4F000000 		.4byte	.LASF97
 3272 0651 20       		.byte	0x20
 3273 0652 05       		.byte	0x5
 3274 0653 7001     		.2byte	0x170
 3275 0655 8E060000 		.4byte	0x68e
 3276 0659 0E       		.uleb128 0xe
 3277 065a C7090000 		.4byte	.LASF98
 3278 065e 05       		.byte	0x5
 3279 065f 7101     		.2byte	0x171
 3280 0661 81000000 		.4byte	0x81
 3281 0665 00       		.byte	0
 3282 0666 0E       		.uleb128 0xe
 3283 0667 4B030000 		.4byte	.LASF99
 3284 066b 05       		.byte	0x5
ARM GAS  C:\Users\Mattia\AppData\Local\Temp\ccUc3JYZ.s 			page 70


 3285 066c 7201     		.2byte	0x172
 3286 066e 81000000 		.4byte	0x81
 3287 0672 01       		.byte	0x1
 3288 0673 0E       		.uleb128 0xe
 3289 0674 FE050000 		.4byte	.LASF100
 3290 0678 05       		.byte	0x5
 3291 0679 7301     		.2byte	0x173
 3292 067b 8E060000 		.4byte	0x68e
 3293 067f 02       		.byte	0x2
 3294 0680 0E       		.uleb128 0xe
 3295 0681 7B050000 		.4byte	.LASF57
 3296 0685 05       		.byte	0x5
 3297 0686 7401     		.2byte	0x174
 3298 0688 AD050000 		.4byte	0x5ad
 3299 068c 1B       		.byte	0x1b
 3300 068d 00       		.byte	0
 3301 068e 06       		.uleb128 0x6
 3302 068f 81000000 		.4byte	0x81
 3303 0693 A4060000 		.4byte	0x6a4
 3304 0697 07       		.uleb128 0x7
 3305 0698 F1000000 		.4byte	0xf1
 3306 069c 04       		.byte	0x4
 3307 069d 07       		.uleb128 0x7
 3308 069e F1000000 		.4byte	0xf1
 3309 06a2 04       		.byte	0x4
 3310 06a3 00       		.byte	0
 3311 06a4 0D       		.uleb128 0xd
 3312 06a5 E5080000 		.4byte	.LASF101
 3313 06a9 20       		.byte	0x20
 3314 06aa 05       		.byte	0x5
 3315 06ab 7B01     		.2byte	0x17b
 3316 06ad 00070000 		.4byte	0x700
 3317 06b1 0E       		.uleb128 0xe
 3318 06b2 1A070000 		.4byte	.LASF102
 3319 06b6 05       		.byte	0x5
 3320 06b7 7C01     		.2byte	0x17c
 3321 06b9 00070000 		.4byte	0x700
 3322 06bd 00       		.byte	0
 3323 06be 0E       		.uleb128 0xe
 3324 06bf 660A0000 		.4byte	.LASF103
 3325 06c3 05       		.byte	0x5
 3326 06c4 7D01     		.2byte	0x17d
 3327 06c6 81000000 		.4byte	0x81
 3328 06ca 06       		.byte	0x6
 3329 06cb 0E       		.uleb128 0xe
 3330 06cc AC040000 		.4byte	.LASF104
 3331 06d0 05       		.byte	0x5
 3332 06d1 7E01     		.2byte	0x17e
 3333 06d3 81000000 		.4byte	0x81
 3334 06d7 07       		.byte	0x7
 3335 06d8 0E       		.uleb128 0xe
 3336 06d9 A5070000 		.4byte	.LASF105
 3337 06dd 05       		.byte	0x5
 3338 06de 7F01     		.2byte	0x17f
 3339 06e0 10070000 		.4byte	0x710
 3340 06e4 08       		.byte	0x8
 3341 06e5 0E       		.uleb128 0xe
ARM GAS  C:\Users\Mattia\AppData\Local\Temp\ccUc3JYZ.s 			page 71


 3342 06e6 FA080000 		.4byte	.LASF106
 3343 06ea 05       		.byte	0x5
 3344 06eb 8001     		.2byte	0x180
 3345 06ed 81000000 		.4byte	0x81
 3346 06f1 14       		.byte	0x14
 3347 06f2 0E       		.uleb128 0xe
 3348 06f3 7B050000 		.4byte	.LASF57
 3349 06f7 05       		.byte	0x5
 3350 06f8 8101     		.2byte	0x181
 3351 06fa 20070000 		.4byte	0x720
 3352 06fe 15       		.byte	0x15
 3353 06ff 00       		.byte	0
 3354 0700 06       		.uleb128 0x6
 3355 0701 81000000 		.4byte	0x81
 3356 0705 10070000 		.4byte	0x710
 3357 0709 07       		.uleb128 0x7
 3358 070a F1000000 		.4byte	0xf1
 3359 070e 05       		.byte	0x5
 3360 070f 00       		.byte	0
 3361 0710 06       		.uleb128 0x6
 3362 0711 81000000 		.4byte	0x81
 3363 0715 20070000 		.4byte	0x720
 3364 0719 07       		.uleb128 0x7
 3365 071a F1000000 		.4byte	0xf1
 3366 071e 0B       		.byte	0xb
 3367 071f 00       		.byte	0
 3368 0720 06       		.uleb128 0x6
 3369 0721 81000000 		.4byte	0x81
 3370 0725 30070000 		.4byte	0x730
 3371 0729 07       		.uleb128 0x7
 3372 072a F1000000 		.4byte	0xf1
 3373 072e 0A       		.byte	0xa
 3374 072f 00       		.byte	0
 3375 0730 0D       		.uleb128 0xd
 3376 0731 C7040000 		.4byte	.LASF107
 3377 0735 20       		.byte	0x20
 3378 0736 05       		.byte	0x5
 3379 0737 8801     		.2byte	0x188
 3380 0739 65070000 		.4byte	0x765
 3381 073d 0E       		.uleb128 0xe
 3382 073e 07060000 		.4byte	.LASF108
 3383 0742 05       		.byte	0x5
 3384 0743 8901     		.2byte	0x189
 3385 0745 F8000000 		.4byte	0xf8
 3386 0749 00       		.byte	0
 3387 074a 0E       		.uleb128 0xe
 3388 074b CF040000 		.4byte	.LASF109
 3389 074f 05       		.byte	0x5
 3390 0750 8A01     		.2byte	0x18a
 3391 0752 DD050000 		.4byte	0x5dd
 3392 0756 08       		.byte	0x8
 3393 0757 0E       		.uleb128 0xe
 3394 0758 7B050000 		.4byte	.LASF57
 3395 075c 05       		.byte	0x5
 3396 075d 8B01     		.2byte	0x18b
 3397 075f CD050000 		.4byte	0x5cd
 3398 0763 18       		.byte	0x18
ARM GAS  C:\Users\Mattia\AppData\Local\Temp\ccUc3JYZ.s 			page 72


 3399 0764 00       		.byte	0
 3400 0765 0D       		.uleb128 0xd
 3401 0766 790A0000 		.4byte	.LASF110
 3402 076a 10       		.byte	0x10
 3403 076b 05       		.byte	0x5
 3404 076c 9201     		.2byte	0x192
 3405 076e B4070000 		.4byte	0x7b4
 3406 0772 0E       		.uleb128 0xe
 3407 0773 CD060000 		.4byte	.LASF111
 3408 0777 05       		.byte	0x5
 3409 0778 9301     		.2byte	0x193
 3410 077a BD000000 		.4byte	0xbd
 3411 077e 00       		.byte	0
 3412 077f 0E       		.uleb128 0xe
 3413 0780 7B090000 		.4byte	.LASF112
 3414 0784 05       		.byte	0x5
 3415 0785 9401     		.2byte	0x194
 3416 0787 BD000000 		.4byte	0xbd
 3417 078b 04       		.byte	0x4
 3418 078c 0E       		.uleb128 0xe
 3419 078d C5010000 		.4byte	.LASF113
 3420 0791 05       		.byte	0x5
 3421 0792 9501     		.2byte	0x195
 3422 0794 BD000000 		.4byte	0xbd
 3423 0798 08       		.byte	0x8
 3424 0799 0E       		.uleb128 0xe
 3425 079a 31090000 		.4byte	.LASF114
 3426 079e 05       		.byte	0x5
 3427 079f 9601     		.2byte	0x196
 3428 07a1 81000000 		.4byte	0x81
 3429 07a5 0C       		.byte	0xc
 3430 07a6 0E       		.uleb128 0xe
 3431 07a7 7B050000 		.4byte	.LASF57
 3432 07ab 05       		.byte	0x5
 3433 07ac 9701     		.2byte	0x197
 3434 07ae 80030000 		.4byte	0x380
 3435 07b2 0D       		.byte	0xd
 3436 07b3 00       		.byte	0
 3437 07b4 0D       		.uleb128 0xd
 3438 07b5 F9040000 		.4byte	.LASF115
 3439 07b9 10       		.byte	0x10
 3440 07ba 05       		.byte	0x5
 3441 07bb 9E01     		.2byte	0x19e
 3442 07bd F6070000 		.4byte	0x7f6
 3443 07c1 0E       		.uleb128 0xe
 3444 07c2 16040000 		.4byte	.LASF116
 3445 07c6 05       		.byte	0x5
 3446 07c7 9F01     		.2byte	0x19f
 3447 07c9 8D000000 		.4byte	0x8d
 3448 07cd 00       		.byte	0
 3449 07ce 0E       		.uleb128 0xe
 3450 07cf 3C000000 		.4byte	.LASF117
 3451 07d3 05       		.byte	0x5
 3452 07d4 A001     		.2byte	0x1a0
 3453 07d6 B1000000 		.4byte	0xb1
 3454 07da 02       		.byte	0x2
 3455 07db 0E       		.uleb128 0xe
ARM GAS  C:\Users\Mattia\AppData\Local\Temp\ccUc3JYZ.s 			page 73


 3456 07dc FA0A0000 		.4byte	.LASF118
 3457 07e0 05       		.byte	0x5
 3458 07e1 A101     		.2byte	0x1a1
 3459 07e3 2C060000 		.4byte	0x62c
 3460 07e7 04       		.byte	0x4
 3461 07e8 0E       		.uleb128 0xe
 3462 07e9 7B050000 		.4byte	.LASF57
 3463 07ed 05       		.byte	0x5
 3464 07ee A201     		.2byte	0x1a2
 3465 07f0 CD050000 		.4byte	0x5cd
 3466 07f4 08       		.byte	0x8
 3467 07f5 00       		.byte	0
 3468 07f6 0D       		.uleb128 0xd
 3469 07f7 F8070000 		.4byte	.LASF119
 3470 07fb 10       		.byte	0x10
 3471 07fc 05       		.byte	0x5
 3472 07fd A901     		.2byte	0x1a9
 3473 07ff 2B080000 		.4byte	0x82b
 3474 0803 0E       		.uleb128 0xe
 3475 0804 88050000 		.4byte	.LASF120
 3476 0808 05       		.byte	0x5
 3477 0809 AA01     		.2byte	0x1aa
 3478 080b 81000000 		.4byte	0x81
 3479 080f 00       		.byte	0
 3480 0810 0E       		.uleb128 0xe
 3481 0811 D5070000 		.4byte	.LASF121
 3482 0815 05       		.byte	0x5
 3483 0816 AB01     		.2byte	0x1ab
 3484 0818 81000000 		.4byte	0x81
 3485 081c 01       		.byte	0x1
 3486 081d 0E       		.uleb128 0xe
 3487 081e 7B050000 		.4byte	.LASF57
 3488 0822 05       		.byte	0x5
 3489 0823 AC01     		.2byte	0x1ac
 3490 0825 2B080000 		.4byte	0x82b
 3491 0829 02       		.byte	0x2
 3492 082a 00       		.byte	0
 3493 082b 06       		.uleb128 0x6
 3494 082c 81000000 		.4byte	0x81
 3495 0830 3B080000 		.4byte	0x83b
 3496 0834 07       		.uleb128 0x7
 3497 0835 F1000000 		.4byte	0xf1
 3498 0839 0D       		.byte	0xd
 3499 083a 00       		.byte	0
 3500 083b 0D       		.uleb128 0xd
 3501 083c 31000000 		.4byte	.LASF122
 3502 0840 10       		.byte	0x10
 3503 0841 05       		.byte	0x5
 3504 0842 B301     		.2byte	0x1b3
 3505 0844 7D080000 		.4byte	0x87d
 3506 0848 0E       		.uleb128 0xe
 3507 0849 A9010000 		.4byte	.LASF123
 3508 084d 05       		.byte	0x5
 3509 084e B401     		.2byte	0x1b4
 3510 0850 BD000000 		.4byte	0xbd
 3511 0854 00       		.byte	0
 3512 0855 0E       		.uleb128 0xe
ARM GAS  C:\Users\Mattia\AppData\Local\Temp\ccUc3JYZ.s 			page 74


 3513 0856 36060000 		.4byte	.LASF124
 3514 085a 05       		.byte	0x5
 3515 085b B501     		.2byte	0x1b5
 3516 085d D5000000 		.4byte	0xd5
 3517 0861 04       		.byte	0x4
 3518 0862 0E       		.uleb128 0xe
 3519 0863 9C0A0000 		.4byte	.LASF125
 3520 0867 05       		.byte	0x5
 3521 0868 B601     		.2byte	0x1b6
 3522 086a D5000000 		.4byte	0xd5
 3523 086e 08       		.byte	0x8
 3524 086f 0E       		.uleb128 0xe
 3525 0870 7B050000 		.4byte	.LASF57
 3526 0874 05       		.byte	0x5
 3527 0875 B701     		.2byte	0x1b7
 3528 0877 7D080000 		.4byte	0x87d
 3529 087b 0C       		.byte	0xc
 3530 087c 00       		.byte	0
 3531 087d 06       		.uleb128 0x6
 3532 087e 81000000 		.4byte	0x81
 3533 0882 8D080000 		.4byte	0x88d
 3534 0886 07       		.uleb128 0x7
 3535 0887 F1000000 		.4byte	0xf1
 3536 088b 03       		.byte	0x3
 3537 088c 00       		.byte	0
 3538 088d 0D       		.uleb128 0xd
 3539 088e BC060000 		.4byte	.LASF126
 3540 0892 12       		.byte	0x12
 3541 0893 05       		.byte	0x5
 3542 0894 BE01     		.2byte	0x1be
 3543 0896 CF080000 		.4byte	0x8cf
 3544 089a 0E       		.uleb128 0xe
 3545 089b 82010000 		.4byte	.LASF127
 3546 089f 05       		.byte	0x5
 3547 08a0 BF01     		.2byte	0x1bf
 3548 08a2 81000000 		.4byte	0x81
 3549 08a6 00       		.byte	0
 3550 08a7 0E       		.uleb128 0xe
 3551 08a8 61030000 		.4byte	.LASF128
 3552 08ac 05       		.byte	0x5
 3553 08ad C001     		.2byte	0x1c0
 3554 08af 2C060000 		.4byte	0x62c
 3555 08b3 02       		.byte	0x2
 3556 08b4 0E       		.uleb128 0xe
 3557 08b5 9C000000 		.4byte	.LASF129
 3558 08b9 05       		.byte	0x5
 3559 08ba C101     		.2byte	0x1c1
 3560 08bc 81000000 		.4byte	0x81
 3561 08c0 06       		.byte	0x6
 3562 08c1 0E       		.uleb128 0xe
 3563 08c2 7B050000 		.4byte	.LASF57
 3564 08c6 05       		.byte	0x5
 3565 08c7 C201     		.2byte	0x1c2
 3566 08c9 CF080000 		.4byte	0x8cf
 3567 08cd 07       		.byte	0x7
 3568 08ce 00       		.byte	0
 3569 08cf 06       		.uleb128 0x6
ARM GAS  C:\Users\Mattia\AppData\Local\Temp\ccUc3JYZ.s 			page 75


 3570 08d0 81000000 		.4byte	0x81
 3571 08d4 DF080000 		.4byte	0x8df
 3572 08d8 07       		.uleb128 0x7
 3573 08d9 F1000000 		.4byte	0xf1
 3574 08dd 09       		.byte	0x9
 3575 08de 00       		.byte	0
 3576 08df 10       		.uleb128 0x10
 3577 08e0 7B030000 		.4byte	.LASF130
 3578 08e4 F402     		.2byte	0x2f4
 3579 08e6 05       		.byte	0x5
 3580 08e7 CB01     		.2byte	0x1cb
 3581 08e9 C4090000 		.4byte	0x9c4
 3582 08ed 0E       		.uleb128 0xe
 3583 08ee D0070000 		.4byte	.LASF131
 3584 08f2 05       		.byte	0x5
 3585 08f3 CD01     		.2byte	0x1cd
 3586 08f5 81000000 		.4byte	0x81
 3587 08f9 00       		.byte	0
 3588 08fa 0E       		.uleb128 0xe
 3589 08fb 7B050000 		.4byte	.LASF57
 3590 08ff 05       		.byte	0x5
 3591 0900 CE01     		.2byte	0x1ce
 3592 0902 C4090000 		.4byte	0x9c4
 3593 0906 01       		.byte	0x1
 3594 0907 0F       		.uleb128 0xf
 3595 0908 636E7400 		.ascii	"cnt\000"
 3596 090c 05       		.byte	0x5
 3597 090d CF01     		.2byte	0x1cf
 3598 090f 58020000 		.4byte	0x258
 3599 0913 10       		.byte	0x10
 3600 0914 0E       		.uleb128 0xe
 3601 0915 02030000 		.4byte	.LASF132
 3602 0919 05       		.byte	0x5
 3603 091a D001     		.2byte	0x1d0
 3604 091c D4090000 		.4byte	0x9d4
 3605 0920 60       		.byte	0x60
 3606 0921 0F       		.uleb128 0xf
 3607 0922 64657600 		.ascii	"dev\000"
 3608 0926 05       		.byte	0x5
 3609 0927 D101     		.2byte	0x1d1
 3610 0929 F1020000 		.4byte	0x2f1
 3611 092d A0       		.byte	0xa0
 3612 092e 0E       		.uleb128 0xe
 3613 092f 43070000 		.4byte	.LASF133
 3614 0933 05       		.byte	0x5
 3615 0934 D201     		.2byte	0x1d2
 3616 0936 E4090000 		.4byte	0x9e4
 3617 093a B0       		.byte	0xb0
 3618 093b 11       		.uleb128 0x11
 3619 093c 656E6300 		.ascii	"enc\000"
 3620 0940 05       		.byte	0x5
 3621 0941 D301     		.2byte	0x1d3
 3622 0943 F4090000 		.4byte	0x9f4
 3623 0947 9001     		.2byte	0x190
 3624 0949 11       		.uleb128 0x11
 3625 094a 656D6700 		.ascii	"emg\000"
 3626 094e 05       		.byte	0x5
ARM GAS  C:\Users\Mattia\AppData\Local\Temp\ccUc3JYZ.s 			page 76


 3627 094f D401     		.2byte	0x1d4
 3628 0951 DD050000 		.4byte	0x5dd
 3629 0955 F001     		.2byte	0x1f0
 3630 0957 11       		.uleb128 0x11
 3631 0958 696D7500 		.ascii	"imu\000"
 3632 095c 05       		.byte	0x5
 3633 095d D501     		.2byte	0x1d5
 3634 095f 4C060000 		.4byte	0x64c
 3635 0963 0002     		.2byte	0x200
 3636 0965 11       		.uleb128 0x11
 3637 0966 65787000 		.ascii	"exp\000"
 3638 096a 05       		.byte	0x5
 3639 096b D601     		.2byte	0x1d6
 3640 096d A4060000 		.4byte	0x6a4
 3641 0971 2002     		.2byte	0x220
 3642 0973 12       		.uleb128 0x12
 3643 0974 66070000 		.4byte	.LASF134
 3644 0978 05       		.byte	0x5
 3645 0979 D701     		.2byte	0x1d7
 3646 097b 040A0000 		.4byte	0xa04
 3647 097f 4002     		.2byte	0x240
 3648 0981 11       		.uleb128 0x11
 3649 0982 534800   		.ascii	"SH\000"
 3650 0985 05       		.byte	0x5
 3651 0986 D901     		.2byte	0x1d9
 3652 0988 65070000 		.4byte	0x765
 3653 098c A002     		.2byte	0x2a0
 3654 098e 12       		.uleb128 0x12
 3655 098f D5090000 		.4byte	.LASF135
 3656 0993 05       		.byte	0x5
 3657 0994 DA01     		.2byte	0x1da
 3658 0996 B4070000 		.4byte	0x7b4
 3659 099a B002     		.2byte	0x2b0
 3660 099c 11       		.uleb128 0x11
 3661 099d 4D5300   		.ascii	"MS\000"
 3662 09a0 05       		.byte	0x5
 3663 09a1 DB01     		.2byte	0x1db
 3664 09a3 F6070000 		.4byte	0x7f6
 3665 09a7 C002     		.2byte	0x2c0
 3666 09a9 11       		.uleb128 0x11
 3667 09aa 464200   		.ascii	"FB\000"
 3668 09ad 05       		.byte	0x5
 3669 09ae DC01     		.2byte	0x1dc
 3670 09b0 3B080000 		.4byte	0x83b
 3671 09b4 D002     		.2byte	0x2d0
 3672 09b6 11       		.uleb128 0x11
 3673 09b7 575200   		.ascii	"WR\000"
 3674 09ba 05       		.byte	0x5
 3675 09bb DD01     		.2byte	0x1dd
 3676 09bd 8D080000 		.4byte	0x88d
 3677 09c1 E002     		.2byte	0x2e0
 3678 09c3 00       		.byte	0
 3679 09c4 06       		.uleb128 0x6
 3680 09c5 81000000 		.4byte	0x81
 3681 09c9 D4090000 		.4byte	0x9d4
 3682 09cd 07       		.uleb128 0x7
 3683 09ce F1000000 		.4byte	0xf1
ARM GAS  C:\Users\Mattia\AppData\Local\Temp\ccUc3JYZ.s 			page 77


 3684 09d2 0E       		.byte	0xe
 3685 09d3 00       		.byte	0
 3686 09d4 06       		.uleb128 0x6
 3687 09d5 81000000 		.4byte	0x81
 3688 09d9 E4090000 		.4byte	0x9e4
 3689 09dd 07       		.uleb128 0x7
 3690 09de F1000000 		.4byte	0xf1
 3691 09e2 3F       		.byte	0x3f
 3692 09e3 00       		.byte	0
 3693 09e4 06       		.uleb128 0x6
 3694 09e5 90030000 		.4byte	0x390
 3695 09e9 F4090000 		.4byte	0x9f4
 3696 09ed 07       		.uleb128 0x7
 3697 09ee F1000000 		.4byte	0xf1
 3698 09f2 01       		.byte	0x1
 3699 09f3 00       		.byte	0
 3700 09f4 06       		.uleb128 0x6
 3701 09f5 2A050000 		.4byte	0x52a
 3702 09f9 040A0000 		.4byte	0xa04
 3703 09fd 07       		.uleb128 0x7
 3704 09fe F1000000 		.4byte	0xf1
 3705 0a02 01       		.byte	0x1
 3706 0a03 00       		.byte	0
 3707 0a04 06       		.uleb128 0x6
 3708 0a05 30070000 		.4byte	0x730
 3709 0a09 140A0000 		.4byte	0xa14
 3710 0a0d 07       		.uleb128 0x7
 3711 0a0e F1000000 		.4byte	0xf1
 3712 0a12 02       		.byte	0x2
 3713 0a13 00       		.byte	0
 3714 0a14 0D       		.uleb128 0xd
 3715 0a15 BB070000 		.4byte	.LASF136
 3716 0a19 08       		.byte	0x8
 3717 0a1a 05       		.byte	0x5
 3718 0a1b F501     		.2byte	0x1f5
 3719 0a1d 3C0A0000 		.4byte	0xa3c
 3720 0a21 0E       		.uleb128 0xe
 3721 0a22 A8020000 		.4byte	.LASF137
 3722 0a26 05       		.byte	0x5
 3723 0a27 F601     		.2byte	0x1f6
 3724 0a29 BD000000 		.4byte	0xbd
 3725 0a2d 00       		.byte	0
 3726 0a2e 0E       		.uleb128 0xe
 3727 0a2f 71070000 		.4byte	.LASF138
 3728 0a33 05       		.byte	0x5
 3729 0a34 F701     		.2byte	0x1f7
 3730 0a36 BD000000 		.4byte	0xbd
 3731 0a3a 04       		.byte	0x4
 3732 0a3b 00       		.byte	0
 3733 0a3c 0D       		.uleb128 0xd
 3734 0a3d 12080000 		.4byte	.LASF139
 3735 0a41 06       		.byte	0x6
 3736 0a42 05       		.byte	0x5
 3737 0a43 FE01     		.2byte	0x1fe
 3738 0a45 7E0A0000 		.4byte	0xa7e
 3739 0a49 0E       		.uleb128 0xe
 3740 0a4a 5A080000 		.4byte	.LASF140
ARM GAS  C:\Users\Mattia\AppData\Local\Temp\ccUc3JYZ.s 			page 78


 3741 0a4e 05       		.byte	0x5
 3742 0a4f FF01     		.2byte	0x1ff
 3743 0a51 81000000 		.4byte	0x81
 3744 0a55 00       		.byte	0
 3745 0a56 0E       		.uleb128 0xe
 3746 0a57 92000000 		.4byte	.LASF141
 3747 0a5b 05       		.byte	0x5
 3748 0a5c 0002     		.2byte	0x200
 3749 0a5e 81000000 		.4byte	0x81
 3750 0a62 01       		.byte	0x1
 3751 0a63 0E       		.uleb128 0xe
 3752 0a64 840A0000 		.4byte	.LASF142
 3753 0a68 05       		.byte	0x5
 3754 0a69 0102     		.2byte	0x201
 3755 0a6b B1000000 		.4byte	0xb1
 3756 0a6f 02       		.byte	0x2
 3757 0a70 0E       		.uleb128 0xe
 3758 0a71 BA030000 		.4byte	.LASF143
 3759 0a75 05       		.byte	0x5
 3760 0a76 0202     		.2byte	0x202
 3761 0a78 B1000000 		.4byte	0xb1
 3762 0a7c 04       		.byte	0x4
 3763 0a7d 00       		.byte	0
 3764 0a7e 13       		.uleb128 0x13
 3765 0a7f 01       		.byte	0x1
 3766 0a80 2C000000 		.4byte	0x2c
 3767 0a84 05       		.byte	0x5
 3768 0a85 0602     		.2byte	0x206
 3769 0a87 B00A0000 		.4byte	0xab0
 3770 0a8b 09       		.uleb128 0x9
 3771 0a8c 5A030000 		.4byte	.LASF144
 3772 0a90 00       		.byte	0
 3773 0a91 09       		.uleb128 0x9
 3774 0a92 6B070000 		.4byte	.LASF145
 3775 0a96 01       		.byte	0x1
 3776 0a97 09       		.uleb128 0x9
 3777 0a98 6A090000 		.4byte	.LASF146
 3778 0a9c 02       		.byte	0x2
 3779 0a9d 09       		.uleb128 0x9
 3780 0a9e 3E030000 		.4byte	.LASF147
 3781 0aa2 03       		.byte	0x3
 3782 0aa3 09       		.uleb128 0x9
 3783 0aa4 4E0A0000 		.4byte	.LASF148
 3784 0aa8 04       		.byte	0x4
 3785 0aa9 09       		.uleb128 0x9
 3786 0aaa 060A0000 		.4byte	.LASF149
 3787 0aae 05       		.byte	0x5
 3788 0aaf 00       		.byte	0
 3789 0ab0 05       		.uleb128 0x5
 3790 0ab1 B1060000 		.4byte	.LASF150
 3791 0ab5 05       		.byte	0x5
 3792 0ab6 0E02     		.2byte	0x20e
 3793 0ab8 7E0A0000 		.4byte	0xa7e
 3794 0abc 14       		.uleb128 0x14
 3795 0abd F6010000 		.4byte	.LASF154
 3796 0ac1 01       		.byte	0x1
 3797 0ac2 33       		.byte	0x33
ARM GAS  C:\Users\Mattia\AppData\Local\Temp\ccUc3JYZ.s 			page 79


 3798 0ac3 BD000000 		.4byte	0xbd
 3799 0ac7 00000000 		.4byte	.LFB64
 3800 0acb 70020000 		.4byte	.LFE64-.LFB64
 3801 0acf 01       		.uleb128 0x1
 3802 0ad0 9C       		.byte	0x9c
 3803 0ad1 3E0B0000 		.4byte	0xb3e
 3804 0ad5 15       		.uleb128 0x15
 3805 0ad6 69647800 		.ascii	"idx\000"
 3806 0ada 01       		.byte	0x1
 3807 0adb 33       		.byte	0x33
 3808 0adc 81000000 		.4byte	0x81
 3809 0ae0 02       		.uleb128 0x2
 3810 0ae1 91       		.byte	0x91
 3811 0ae2 67       		.sleb128 -25
 3812 0ae3 15       		.uleb128 0x15
 3813 0ae4 706F7300 		.ascii	"pos\000"
 3814 0ae8 01       		.byte	0x1
 3815 0ae9 33       		.byte	0x33
 3816 0aea BD000000 		.4byte	0xbd
 3817 0aee 02       		.uleb128 0x2
 3818 0aef 91       		.byte	0x91
 3819 0af0 60       		.sleb128 -32
 3820 0af1 15       		.uleb128 0x15
 3821 0af2 76656C00 		.ascii	"vel\000"
 3822 0af6 01       		.byte	0x1
 3823 0af7 33       		.byte	0x33
 3824 0af8 BD000000 		.4byte	0xbd
 3825 0afc 02       		.uleb128 0x2
 3826 0afd 91       		.byte	0x91
 3827 0afe 5C       		.sleb128 -36
 3828 0aff 15       		.uleb128 0x15
 3829 0b00 72656600 		.ascii	"ref\000"
 3830 0b04 01       		.byte	0x1
 3831 0b05 33       		.byte	0x33
 3832 0b06 BD000000 		.4byte	0xbd
 3833 0b0a 02       		.uleb128 0x2
 3834 0b0b 91       		.byte	0x91
 3835 0b0c 58       		.sleb128 -40
 3836 0b0d 16       		.uleb128 0x16
 3837 0b0e 48050000 		.4byte	.LASF151
 3838 0b12 01       		.byte	0x1
 3839 0b13 35       		.byte	0x35
 3840 0b14 38020000 		.4byte	0x238
 3841 0b18 05       		.uleb128 0x5
 3842 0b19 03       		.byte	0x3
 3843 0b1a 00000000 		.4byte	virtual_pos_friction.10187
 3844 0b1e 16       		.uleb128 0x16
 3845 0b1f C6030000 		.4byte	.LASF152
 3846 0b23 01       		.byte	0x1
 3847 0b24 36       		.byte	0x36
 3848 0b25 38020000 		.4byte	0x238
 3849 0b29 05       		.uleb128 0x5
 3850 0b2a 03       		.byte	0x3
 3851 0b2b 08000000 		.4byte	err_pos_dt.10188
 3852 0b2f 16       		.uleb128 0x16
 3853 0b30 7E070000 		.4byte	.LASF153
 3854 0b34 01       		.byte	0x1
ARM GAS  C:\Users\Mattia\AppData\Local\Temp\ccUc3JYZ.s 			page 80


 3855 0b35 38       		.byte	0x38
 3856 0b36 BD000000 		.4byte	0xbd
 3857 0b3a 02       		.uleb128 0x2
 3858 0b3b 91       		.byte	0x91
 3859 0b3c 6C       		.sleb128 -20
 3860 0b3d 00       		.byte	0
 3861 0b3e 17       		.uleb128 0x17
 3862 0b3f 86090000 		.4byte	.LASF155
 3863 0b43 01       		.byte	0x1
 3864 0b44 57       		.byte	0x57
 3865 0b45 BD000000 		.4byte	0xbd
 3866 0b49 00000000 		.4byte	.LFB65
 3867 0b4d 4E000000 		.4byte	.LFE65-.LFB65
 3868 0b51 01       		.uleb128 0x1
 3869 0b52 9C       		.byte	0x9c
 3870 0b53 800B0000 		.4byte	0xb80
 3871 0b57 18       		.uleb128 0x18
 3872 0b58 8B030000 		.4byte	.LASF156
 3873 0b5c 01       		.byte	0x1
 3874 0b5d 57       		.byte	0x57
 3875 0b5e BD000000 		.4byte	0xbd
 3876 0b62 02       		.uleb128 0x2
 3877 0b63 91       		.byte	0x91
 3878 0b64 6C       		.sleb128 -20
 3879 0b65 15       		.uleb128 0x15
 3880 0b66 6600     		.ascii	"f\000"
 3881 0b68 01       		.byte	0x1
 3882 0b69 57       		.byte	0x57
 3883 0b6a 800B0000 		.4byte	0xb80
 3884 0b6e 02       		.uleb128 0x2
 3885 0b6f 91       		.byte	0x91
 3886 0b70 68       		.sleb128 -24
 3887 0b71 19       		.uleb128 0x19
 3888 0b72 61757800 		.ascii	"aux\000"
 3889 0b76 01       		.byte	0x1
 3890 0b77 59       		.byte	0x59
 3891 0b78 BD000000 		.4byte	0xbd
 3892 0b7c 02       		.uleb128 0x2
 3893 0b7d 91       		.byte	0x91
 3894 0b7e 74       		.sleb128 -12
 3895 0b7f 00       		.byte	0
 3896 0b80 1A       		.uleb128 0x1a
 3897 0b81 04       		.byte	0x4
 3898 0b82 140A0000 		.4byte	0xa14
 3899 0b86 17       		.uleb128 0x17
 3900 0b87 BE010000 		.4byte	.LASF157
 3901 0b8b 01       		.byte	0x1
 3902 0b8c 66       		.byte	0x66
 3903 0b8d 99000000 		.4byte	0x99
 3904 0b91 00000000 		.4byte	.LFB66
 3905 0b95 50000000 		.4byte	.LFE66-.LFB66
 3906 0b99 01       		.uleb128 0x1
 3907 0b9a 9C       		.byte	0x9c
 3908 0b9b BC0B0000 		.4byte	0xbbc
 3909 0b9f 15       		.uleb128 0x15
 3910 0ba0 76616C00 		.ascii	"val\000"
 3911 0ba4 01       		.byte	0x1
ARM GAS  C:\Users\Mattia\AppData\Local\Temp\ccUc3JYZ.s 			page 81


 3912 0ba5 66       		.byte	0x66
 3913 0ba6 BD000000 		.4byte	0xbd
 3914 0baa 02       		.uleb128 0x2
 3915 0bab 91       		.byte	0x91
 3916 0bac 74       		.sleb128 -12
 3917 0bad 18       		.uleb128 0x18
 3918 0bae 6E060000 		.4byte	.LASF158
 3919 0bb2 01       		.byte	0x1
 3920 0bb3 66       		.byte	0x66
 3921 0bb4 BD000000 		.4byte	0xbd
 3922 0bb8 02       		.uleb128 0x2
 3923 0bb9 91       		.byte	0x91
 3924 0bba 70       		.sleb128 -16
 3925 0bbb 00       		.byte	0
 3926 0bbc 1B       		.uleb128 0x1b
 3927 0bbd 99060000 		.4byte	.LASF164
 3928 0bc1 01       		.byte	0x1
 3929 0bc2 74       		.byte	0x74
 3930 0bc3 00000000 		.4byte	.LFB67
 3931 0bc7 D4000000 		.4byte	.LFE67-.LFB67
 3932 0bcb 01       		.uleb128 0x1
 3933 0bcc 9C       		.byte	0x9c
 3934 0bcd F40B0000 		.4byte	0xbf4
 3935 0bd1 16       		.uleb128 0x16
 3936 0bd2 92000000 		.4byte	.LASF141
 3937 0bd6 01       		.byte	0x1
 3938 0bd7 75       		.byte	0x75
 3939 0bd8 81000000 		.4byte	0x81
 3940 0bdc 05       		.uleb128 0x5
 3941 0bdd 03       		.byte	0x3
 3942 0bde 10000000 		.4byte	direction.10202
 3943 0be2 16       		.uleb128 0x16
 3944 0be3 56000000 		.4byte	.LASF159
 3945 0be7 01       		.byte	0x1
 3946 0be8 76       		.byte	0x76
 3947 0be9 8D000000 		.4byte	0x8d
 3948 0bed 05       		.uleb128 0x5
 3949 0bee 03       		.byte	0x3
 3950 0bef 12000000 		.4byte	closure_counter.10203
 3951 0bf3 00       		.byte	0
 3952 0bf4 14       		.uleb128 0x14
 3953 0bf5 9A050000 		.4byte	.LASF160
 3954 0bf9 01       		.byte	0x1
 3955 0bfa A9       		.byte	0xa9
 3956 0bfb 68000000 		.4byte	0x68
 3957 0bff 00000000 		.4byte	.LFB68
 3958 0c03 C4000000 		.4byte	.LFE68-.LFB68
 3959 0c07 01       		.uleb128 0x1
 3960 0c08 9C       		.byte	0x9c
 3961 0c09 6B0C0000 		.4byte	0xc6b
 3962 0c0d 18       		.uleb128 0x18
 3963 0c0e 49070000 		.4byte	.LASF161
 3964 0c12 01       		.byte	0x1
 3965 0c13 A9       		.byte	0xa9
 3966 0c14 6B0C0000 		.4byte	0xc6b
 3967 0c18 02       		.uleb128 0x2
 3968 0c19 91       		.byte	0x91
ARM GAS  C:\Users\Mattia\AppData\Local\Temp\ccUc3JYZ.s 			page 82


 3969 0c1a 6C       		.sleb128 -20
 3970 0c1b 18       		.uleb128 0x18
 3971 0c1c FB030000 		.4byte	.LASF162
 3972 0c20 01       		.byte	0x1
 3973 0c21 A9       		.byte	0xa9
 3974 0c22 6B0C0000 		.4byte	0xc6b
 3975 0c26 02       		.uleb128 0x2
 3976 0c27 91       		.byte	0x91
 3977 0c28 68       		.sleb128 -24
 3978 0c29 15       		.uleb128 0x15
 3979 0c2a 4E3100   		.ascii	"N1\000"
 3980 0c2d 01       		.byte	0x1
 3981 0c2e A9       		.byte	0xa9
 3982 0c2f 700C0000 		.4byte	0xc70
 3983 0c33 02       		.uleb128 0x2
 3984 0c34 91       		.byte	0x91
 3985 0c35 64       		.sleb128 -28
 3986 0c36 15       		.uleb128 0x15
 3987 0c37 4E3200   		.ascii	"N2\000"
 3988 0c3a 01       		.byte	0x1
 3989 0c3b A9       		.byte	0xa9
 3990 0c3c 700C0000 		.4byte	0xc70
 3991 0c40 02       		.uleb128 0x2
 3992 0c41 91       		.byte	0x91
 3993 0c42 60       		.sleb128 -32
 3994 0c43 15       		.uleb128 0x15
 3995 0c44 493100   		.ascii	"I1\000"
 3996 0c47 01       		.byte	0x1
 3997 0c48 A9       		.byte	0xa9
 3998 0c49 700C0000 		.4byte	0xc70
 3999 0c4d 02       		.uleb128 0x2
 4000 0c4e 91       		.byte	0x91
 4001 0c4f 00       		.sleb128 0
 4002 0c50 19       		.uleb128 0x19
 4003 0c51 7800     		.ascii	"x\000"
 4004 0c53 01       		.byte	0x1
 4005 0c54 AB       		.byte	0xab
 4006 0c55 BD000000 		.4byte	0xbd
 4007 0c59 02       		.uleb128 0x2
 4008 0c5a 91       		.byte	0x91
 4009 0c5b 70       		.sleb128 -16
 4010 0c5c 19       		.uleb128 0x19
 4011 0c5d 61757800 		.ascii	"aux\000"
 4012 0c61 01       		.byte	0x1
 4013 0c62 AC       		.byte	0xac
 4014 0c63 BD000000 		.4byte	0xbd
 4015 0c67 02       		.uleb128 0x2
 4016 0c68 91       		.byte	0x91
 4017 0c69 74       		.sleb128 -12
 4018 0c6a 00       		.byte	0
 4019 0c6b 1C       		.uleb128 0x1c
 4020 0c6c BD000000 		.4byte	0xbd
 4021 0c70 1C       		.uleb128 0x1c
 4022 0c71 68000000 		.4byte	0x68
 4023 0c75 14       		.uleb128 0x14
 4024 0c76 EB0A0000 		.4byte	.LASF163
 4025 0c7a 01       		.byte	0x1
ARM GAS  C:\Users\Mattia\AppData\Local\Temp\ccUc3JYZ.s 			page 83


 4026 0c7b C8       		.byte	0xc8
 4027 0c7c 68000000 		.4byte	0x68
 4028 0c80 00000000 		.4byte	.LFB69
 4029 0c84 98000000 		.4byte	.LFE69-.LFB69
 4030 0c88 01       		.uleb128 0x1
 4031 0c89 9C       		.byte	0x9c
 4032 0c8a F60C0000 		.4byte	0xcf6
 4033 0c8e 18       		.uleb128 0x18
 4034 0c8f 49070000 		.4byte	.LASF161
 4035 0c93 01       		.byte	0x1
 4036 0c94 C8       		.byte	0xc8
 4037 0c95 6B0C0000 		.4byte	0xc6b
 4038 0c99 02       		.uleb128 0x2
 4039 0c9a 91       		.byte	0x91
 4040 0c9b 6C       		.sleb128 -20
 4041 0c9c 18       		.uleb128 0x18
 4042 0c9d FB030000 		.4byte	.LASF162
 4043 0ca1 01       		.byte	0x1
 4044 0ca2 C8       		.byte	0xc8
 4045 0ca3 6B0C0000 		.4byte	0xc6b
 4046 0ca7 02       		.uleb128 0x2
 4047 0ca8 91       		.byte	0x91
 4048 0ca9 68       		.sleb128 -24
 4049 0caa 15       		.uleb128 0x15
 4050 0cab 4E3100   		.ascii	"N1\000"
 4051 0cae 01       		.byte	0x1
 4052 0caf C8       		.byte	0xc8
 4053 0cb0 700C0000 		.4byte	0xc70
 4054 0cb4 02       		.uleb128 0x2
 4055 0cb5 91       		.byte	0x91
 4056 0cb6 64       		.sleb128 -28
 4057 0cb7 15       		.uleb128 0x15
 4058 0cb8 4E3200   		.ascii	"N2\000"
 4059 0cbb 01       		.byte	0x1
 4060 0cbc C8       		.byte	0xc8
 4061 0cbd 700C0000 		.4byte	0xc70
 4062 0cc1 02       		.uleb128 0x2
 4063 0cc2 91       		.byte	0x91
 4064 0cc3 60       		.sleb128 -32
 4065 0cc4 15       		.uleb128 0x15
 4066 0cc5 493100   		.ascii	"I1\000"
 4067 0cc8 01       		.byte	0x1
 4068 0cc9 C8       		.byte	0xc8
 4069 0cca 700C0000 		.4byte	0xc70
 4070 0cce 02       		.uleb128 0x2
 4071 0ccf 91       		.byte	0x91
 4072 0cd0 00       		.sleb128 0
 4073 0cd1 1D       		.uleb128 0x1d
 4074 0cd2 2C000000 		.4byte	.LBB2
 4075 0cd6 60000000 		.4byte	.LBE2-.LBB2
 4076 0cda 19       		.uleb128 0x19
 4077 0cdb 7800     		.ascii	"x\000"
 4078 0cdd 01       		.byte	0x1
 4079 0cde CF       		.byte	0xcf
 4080 0cdf BD000000 		.4byte	0xbd
 4081 0ce3 02       		.uleb128 0x2
 4082 0ce4 91       		.byte	0x91
ARM GAS  C:\Users\Mattia\AppData\Local\Temp\ccUc3JYZ.s 			page 84


 4083 0ce5 74       		.sleb128 -12
 4084 0ce6 19       		.uleb128 0x19
 4085 0ce7 61757800 		.ascii	"aux\000"
 4086 0ceb 01       		.byte	0x1
 4087 0cec D1       		.byte	0xd1
 4088 0ced BD000000 		.4byte	0xbd
 4089 0cf1 02       		.uleb128 0x2
 4090 0cf2 91       		.byte	0x91
 4091 0cf3 70       		.sleb128 -16
 4092 0cf4 00       		.byte	0
 4093 0cf5 00       		.byte	0
 4094 0cf6 1E       		.uleb128 0x1e
 4095 0cf7 310A0000 		.4byte	.LASF165
 4096 0cfb 01       		.byte	0x1
 4097 0cfc DA       		.byte	0xda
 4098 0cfd 00000000 		.4byte	.LFB70
 4099 0d01 7C030000 		.4byte	.LFE70-.LFB70
 4100 0d05 01       		.uleb128 0x1
 4101 0d06 9C       		.byte	0x9c
 4102 0d07 9D0D0000 		.4byte	0xd9d
 4103 0d0b 16       		.uleb128 0x16
 4104 0d0c 00000000 		.4byte	.LASF166
 4105 0d10 01       		.byte	0x1
 4106 0d11 DC       		.byte	0xdc
 4107 0d12 99000000 		.4byte	0x99
 4108 0d16 05       		.uleb128 0x5
 4109 0d17 03       		.byte	0x3
 4110 0d18 14000000 		.4byte	count.10228
 4111 0d1c 16       		.uleb128 0x16
 4112 0d1d 38070000 		.4byte	.LASF167
 4113 0d21 01       		.byte	0x1
 4114 0d22 DD       		.byte	0xdd
 4115 0d23 81000000 		.4byte	0x81
 4116 0d27 05       		.uleb128 0x5
 4117 0d28 03       		.byte	0x3
 4118 0d29 01000000 		.4byte	flag_count.10229
 4119 0d2d 16       		.uleb128 0x16
 4120 0d2e 07080000 		.4byte	.LASF168
 4121 0d32 01       		.byte	0x1
 4122 0d33 DE       		.byte	0xde
 4123 0d34 81000000 		.4byte	0x81
 4124 0d38 05       		.uleb128 0x5
 4125 0d39 03       		.byte	0x3
 4126 0d3a 00000000 		.4byte	first_time.10230
 4127 0d3e 19       		.uleb128 0x19
 4128 0d3f 6D00     		.ascii	"m\000"
 4129 0d41 01       		.byte	0x1
 4130 0d42 DF       		.byte	0xdf
 4131 0d43 D5000000 		.4byte	0xd5
 4132 0d47 05       		.uleb128 0x5
 4133 0d48 03       		.byte	0x3
 4134 0d49 18000000 		.4byte	m.10231
 4135 0d4d 16       		.uleb128 0x16
 4136 0d4e 6C040000 		.4byte	.LASF169
 4137 0d52 01       		.byte	0x1
 4138 0d53 E0       		.byte	0xe0
 4139 0d54 BD000000 		.4byte	0xbd
ARM GAS  C:\Users\Mattia\AppData\Local\Temp\ccUc3JYZ.s 			page 85


 4140 0d58 05       		.uleb128 0x5
 4141 0d59 03       		.byte	0x3
 4142 0d5a 1C000000 		.4byte	abs_err_thr.10232
 4143 0d5e 16       		.uleb128 0x16
 4144 0d5f 9F010000 		.4byte	.LASF170
 4145 0d63 01       		.byte	0x1
 4146 0d64 E1       		.byte	0xe1
 4147 0d65 BD000000 		.4byte	0xbd
 4148 0d69 05       		.uleb128 0x5
 4149 0d6a 03       		.byte	0x3
 4150 0d6b 24000000 		.4byte	delta_inc.10233
 4151 0d6f 16       		.uleb128 0x16
 4152 0d70 63040000 		.4byte	.LASF171
 4153 0d74 01       		.byte	0x1
 4154 0d75 E2       		.byte	0xe2
 4155 0d76 BD000000 		.4byte	0xbd
 4156 0d7a 02       		.uleb128 0x2
 4157 0d7b 91       		.byte	0x91
 4158 0d7c 6C       		.sleb128 -20
 4159 0d7d 16       		.uleb128 0x16
 4160 0d7e 66000000 		.4byte	.LASF172
 4161 0d82 01       		.byte	0x1
 4162 0d83 E3       		.byte	0xe3
 4163 0d84 BD000000 		.4byte	0xbd
 4164 0d88 05       		.uleb128 0x5
 4165 0d89 03       		.byte	0x3
 4166 0d8a 20000000 		.4byte	rest_error.10235
 4167 0d8e 16       		.uleb128 0x16
 4168 0d8f 8A0A0000 		.4byte	.LASF173
 4169 0d93 01       		.byte	0x1
 4170 0d94 E4       		.byte	0xe4
 4171 0d95 D5000000 		.4byte	0xd5
 4172 0d99 02       		.uleb128 0x2
 4173 0d9a 91       		.byte	0x91
 4174 0d9b 68       		.sleb128 -24
 4175 0d9c 00       		.byte	0
 4176 0d9d 1F       		.uleb128 0x1f
 4177 0d9e E9020000 		.4byte	.LASF174
 4178 0da2 01       		.byte	0x1
 4179 0da3 3A01     		.2byte	0x13a
 4180 0da5 00000000 		.4byte	.LFB71
 4181 0da9 8E000000 		.4byte	.LFE71-.LFB71
 4182 0dad 01       		.uleb128 0x1
 4183 0dae 9C       		.byte	0x9c
 4184 0daf C30D0000 		.4byte	0xdc3
 4185 0db3 20       		.uleb128 0x20
 4186 0db4 B0080000 		.4byte	.LASF175
 4187 0db8 01       		.byte	0x1
 4188 0db9 3A01     		.2byte	0x13a
 4189 0dbb 81000000 		.4byte	0x81
 4190 0dbf 02       		.uleb128 0x2
 4191 0dc0 91       		.byte	0x91
 4192 0dc1 77       		.sleb128 -9
 4193 0dc2 00       		.byte	0
 4194 0dc3 21       		.uleb128 0x21
 4195 0dc4 16030000 		.4byte	.LASF178
 4196 0dc8 01       		.byte	0x1
ARM GAS  C:\Users\Mattia\AppData\Local\Temp\ccUc3JYZ.s 			page 86


 4197 0dc9 6401     		.2byte	0x164
 4198 0dcb 00000000 		.4byte	.LFB72
 4199 0dcf F0020000 		.4byte	.LFE72-.LFB72
 4200 0dd3 01       		.uleb128 0x1
 4201 0dd4 9C       		.byte	0x9c
 4202 0dd5 EC0D0000 		.4byte	0xdec
 4203 0dd9 22       		.uleb128 0x22
 4204 0dda 46010000 		.4byte	.LASF176
 4205 0dde 01       		.byte	0x1
 4206 0ddf 6501     		.2byte	0x165
 4207 0de1 99000000 		.4byte	0x99
 4208 0de5 05       		.uleb128 0x5
 4209 0de6 03       		.byte	0x3
 4210 0de7 28000000 		.4byte	v_count_lb.10250
 4211 0deb 00       		.byte	0
 4212 0dec 23       		.uleb128 0x23
 4213 0ded 8C040000 		.4byte	.LASF216
 4214 0df1 01       		.byte	0x1
 4215 0df2 C001     		.2byte	0x1c0
 4216 0df4 00000000 		.4byte	.LFB73
 4217 0df8 44000000 		.4byte	.LFE73-.LFB73
 4218 0dfc 01       		.uleb128 0x1
 4219 0dfd 9C       		.byte	0x9c
 4220 0dfe 1F       		.uleb128 0x1f
 4221 0dff 20060000 		.4byte	.LASF177
 4222 0e03 01       		.byte	0x1
 4223 0e04 E101     		.2byte	0x1e1
 4224 0e06 00000000 		.4byte	.LFB74
 4225 0e0a 34000000 		.4byte	.LFE74-.LFB74
 4226 0e0e 01       		.uleb128 0x1
 4227 0e0f 9C       		.byte	0x9c
 4228 0e10 330E0000 		.4byte	0xe33
 4229 0e14 24       		.uleb128 0x24
 4230 0e15 69647800 		.ascii	"idx\000"
 4231 0e19 01       		.byte	0x1
 4232 0e1a E101     		.2byte	0x1e1
 4233 0e1c 81000000 		.4byte	0x81
 4234 0e20 02       		.uleb128 0x2
 4235 0e21 91       		.byte	0x91
 4236 0e22 77       		.sleb128 -9
 4237 0e23 24       		.uleb128 0x24
 4238 0e24 76616C00 		.ascii	"val\000"
 4239 0e28 01       		.byte	0x1
 4240 0e29 E101     		.2byte	0x1e1
 4241 0e2b 81000000 		.4byte	0x81
 4242 0e2f 02       		.uleb128 0x2
 4243 0e30 91       		.byte	0x91
 4244 0e31 76       		.sleb128 -10
 4245 0e32 00       		.byte	0
 4246 0e33 25       		.uleb128 0x25
 4247 0e34 07040000 		.4byte	.LASF52
 4248 0e38 01       		.byte	0x1
 4249 0e39 F001     		.2byte	0x1f0
 4250 0e3b 00000000 		.4byte	.LFB75
 4251 0e3f 78000000 		.4byte	.LFE75-.LFB75
 4252 0e43 01       		.uleb128 0x1
 4253 0e44 9C       		.byte	0x9c
ARM GAS  C:\Users\Mattia\AppData\Local\Temp\ccUc3JYZ.s 			page 87


 4254 0e45 570E0000 		.4byte	0xe57
 4255 0e49 26       		.uleb128 0x26
 4256 0e4a 6900     		.ascii	"i\000"
 4257 0e4c 01       		.byte	0x1
 4258 0e4d F101     		.2byte	0x1f1
 4259 0e4f 81000000 		.4byte	0x81
 4260 0e53 02       		.uleb128 0x2
 4261 0e54 91       		.byte	0x91
 4262 0e55 77       		.sleb128 -9
 4263 0e56 00       		.byte	0
 4264 0e57 27       		.uleb128 0x27
 4265 0e58 54040000 		.4byte	.LASF179
 4266 0e5c 01       		.byte	0x1
 4267 0e5d 0502     		.2byte	0x205
 4268 0e5f D5000000 		.4byte	0xd5
 4269 0e63 00000000 		.4byte	.LFB76
 4270 0e67 78000000 		.4byte	.LFE76-.LFB76
 4271 0e6b 01       		.uleb128 0x1
 4272 0e6c 9C       		.byte	0x9c
 4273 0e6d A80E0000 		.4byte	0xea8
 4274 0e71 24       		.uleb128 0x24
 4275 0e72 7800     		.ascii	"x\000"
 4276 0e74 01       		.byte	0x1
 4277 0e75 0502     		.2byte	0x205
 4278 0e77 D5000000 		.4byte	0xd5
 4279 0e7b 02       		.uleb128 0x2
 4280 0e7c 91       		.byte	0x91
 4281 0e7d 64       		.sleb128 -28
 4282 0e7e 22       		.uleb128 0x22
 4283 0e7f 85030000 		.4byte	.LASF180
 4284 0e83 01       		.byte	0x1
 4285 0e84 0602     		.2byte	0x206
 4286 0e86 D5000000 		.4byte	0xd5
 4287 0e8a 02       		.uleb128 0x2
 4288 0e8b 91       		.byte	0x91
 4289 0e8c 74       		.sleb128 -12
 4290 0e8d 26       		.uleb128 0x26
 4291 0e8e 7900     		.ascii	"y\000"
 4292 0e90 01       		.byte	0x1
 4293 0e91 0702     		.2byte	0x207
 4294 0e93 D5000000 		.4byte	0xd5
 4295 0e97 02       		.uleb128 0x2
 4296 0e98 91       		.byte	0x91
 4297 0e99 70       		.sleb128 -16
 4298 0e9a 26       		.uleb128 0x26
 4299 0e9b 6900     		.ascii	"i\000"
 4300 0e9d 01       		.byte	0x1
 4301 0e9e 0802     		.2byte	0x208
 4302 0ea0 4C000000 		.4byte	0x4c
 4303 0ea4 02       		.uleb128 0x2
 4304 0ea5 91       		.byte	0x91
 4305 0ea6 6C       		.sleb128 -20
 4306 0ea7 00       		.byte	0
 4307 0ea8 1F       		.uleb128 0x1f
 4308 0ea9 530A0000 		.4byte	.LASF181
 4309 0ead 01       		.byte	0x1
 4310 0eae 1202     		.2byte	0x212
ARM GAS  C:\Users\Mattia\AppData\Local\Temp\ccUc3JYZ.s 			page 88


 4311 0eb0 00000000 		.4byte	.LFB77
 4312 0eb4 B0000000 		.4byte	.LFE77-.LFB77
 4313 0eb8 01       		.uleb128 0x1
 4314 0eb9 9C       		.byte	0x9c
 4315 0eba DD0E0000 		.4byte	0xedd
 4316 0ebe 20       		.uleb128 0x20
 4317 0ebf 11020000 		.4byte	.LASF182
 4318 0ec3 01       		.byte	0x1
 4319 0ec4 1202     		.2byte	0x212
 4320 0ec6 DD0E0000 		.4byte	0xedd
 4321 0eca 02       		.uleb128 0x2
 4322 0ecb 91       		.byte	0x91
 4323 0ecc 64       		.sleb128 -28
 4324 0ecd 22       		.uleb128 0x22
 4325 0ece 01020000 		.4byte	.LASF183
 4326 0ed2 01       		.byte	0x1
 4327 0ed3 1402     		.2byte	0x214
 4328 0ed5 D5000000 		.4byte	0xd5
 4329 0ed9 02       		.uleb128 0x2
 4330 0eda 91       		.byte	0x91
 4331 0edb 6C       		.sleb128 -20
 4332 0edc 00       		.byte	0
 4333 0edd 1A       		.uleb128 0x1a
 4334 0ede 04       		.byte	0x4
 4335 0edf D5000000 		.4byte	0xd5
 4336 0ee3 1F       		.uleb128 0x1f
 4337 0ee4 D8080000 		.4byte	.LASF184
 4338 0ee8 01       		.byte	0x1
 4339 0ee9 1E02     		.2byte	0x21e
 4340 0eeb 00000000 		.4byte	.LFB78
 4341 0eef EA000000 		.4byte	.LFE78-.LFB78
 4342 0ef3 01       		.uleb128 0x1
 4343 0ef4 9C       		.byte	0x9c
 4344 0ef5 180F0000 		.4byte	0xf18
 4345 0ef9 20       		.uleb128 0x20
 4346 0efa 10030000 		.4byte	.LASF185
 4347 0efe 01       		.byte	0x1
 4348 0eff 1E02     		.2byte	0x21e
 4349 0f01 DD0E0000 		.4byte	0xedd
 4350 0f05 02       		.uleb128 0x2
 4351 0f06 91       		.byte	0x91
 4352 0f07 64       		.sleb128 -28
 4353 0f08 22       		.uleb128 0x22
 4354 0f09 01020000 		.4byte	.LASF183
 4355 0f0d 01       		.byte	0x1
 4356 0f0e 2002     		.2byte	0x220
 4357 0f10 D5000000 		.4byte	0xd5
 4358 0f14 02       		.uleb128 0x2
 4359 0f15 91       		.byte	0x91
 4360 0f16 6C       		.sleb128 -20
 4361 0f17 00       		.byte	0
 4362 0f18 21       		.uleb128 0x21
 4363 0f19 E2060000 		.4byte	.LASF186
 4364 0f1d 01       		.byte	0x1
 4365 0f1e 2B02     		.2byte	0x22b
 4366 0f20 00000000 		.4byte	.LFB79
 4367 0f24 90000000 		.4byte	.LFE79-.LFB79
ARM GAS  C:\Users\Mattia\AppData\Local\Temp\ccUc3JYZ.s 			page 89


 4368 0f28 01       		.uleb128 0x1
 4369 0f29 9C       		.byte	0x9c
 4370 0f2a 760F0000 		.4byte	0xf76
 4371 0f2e 22       		.uleb128 0x22
 4372 0f2f 93090000 		.4byte	.LASF187
 4373 0f33 01       		.byte	0x1
 4374 0f34 2D02     		.2byte	0x22d
 4375 0f36 BD000000 		.4byte	0xbd
 4376 0f3a 05       		.uleb128 0x5
 4377 0f3b 03       		.byte	0x3
 4378 0f3c 04000000 		.4byte	last_counter_value.10282
 4379 0f40 22       		.uleb128 0x22
 4380 0f41 13050000 		.4byte	.LASF188
 4381 0f45 01       		.byte	0x1
 4382 0f46 2F02     		.2byte	0x22f
 4383 0f48 99000000 		.4byte	0x99
 4384 0f4c 02       		.uleb128 0x2
 4385 0f4d 91       		.byte	0x91
 4386 0f4e 70       		.sleb128 -16
 4387 0f4f 22       		.uleb128 0x22
 4388 0f50 280B0000 		.4byte	.LASF189
 4389 0f54 01       		.byte	0x1
 4390 0f55 3002     		.2byte	0x230
 4391 0f57 BD000000 		.4byte	0xbd
 4392 0f5b 02       		.uleb128 0x2
 4393 0f5c 91       		.byte	0x91
 4394 0f5d 6C       		.sleb128 -20
 4395 0f5e 1D       		.uleb128 0x1d
 4396 0f5f 28000000 		.4byte	.LBB3
 4397 0f63 2E000000 		.4byte	.LBE3-.LBB3
 4398 0f67 26       		.uleb128 0x26
 4399 0f68 6900     		.ascii	"i\000"
 4400 0f6a 01       		.byte	0x1
 4401 0f6b 3602     		.2byte	0x236
 4402 0f6d 68000000 		.4byte	0x68
 4403 0f71 02       		.uleb128 0x2
 4404 0f72 91       		.byte	0x91
 4405 0f73 74       		.sleb128 -12
 4406 0f74 00       		.byte	0
 4407 0f75 00       		.byte	0
 4408 0f76 28       		.uleb128 0x28
 4409 0f77 92010000 		.4byte	.LASF190
 4410 0f7b 06       		.byte	0x6
 4411 0f7c 1207     		.2byte	0x712
 4412 0f7e 820F0000 		.4byte	0xf82
 4413 0f82 29       		.uleb128 0x29
 4414 0f83 76000000 		.4byte	0x76
 4415 0f87 06       		.uleb128 0x6
 4416 0f88 49010000 		.4byte	0x149
 4417 0f8c 970F0000 		.4byte	0xf97
 4418 0f90 07       		.uleb128 0x7
 4419 0f91 F1000000 		.4byte	0xf1
 4420 0f95 01       		.byte	0x1
 4421 0f96 00       		.byte	0
 4422 0f97 28       		.uleb128 0x28
 4423 0f98 05050000 		.4byte	.LASF191
 4424 0f9c 05       		.byte	0x5
ARM GAS  C:\Users\Mattia\AppData\Local\Temp\ccUc3JYZ.s 			page 90


 4425 0f9d 1B02     		.2byte	0x21b
 4426 0f9f 870F0000 		.4byte	0xf87
 4427 0fa3 06       		.uleb128 0x6
 4428 0fa4 86010000 		.4byte	0x186
 4429 0fa8 B30F0000 		.4byte	0xfb3
 4430 0fac 07       		.uleb128 0x7
 4431 0fad F1000000 		.4byte	0xf1
 4432 0fb1 01       		.byte	0x1
 4433 0fb2 00       		.byte	0
 4434 0fb3 28       		.uleb128 0x28
 4435 0fb4 A9080000 		.4byte	.LASF192
 4436 0fb8 05       		.byte	0x5
 4437 0fb9 1C02     		.2byte	0x21c
 4438 0fbb A30F0000 		.4byte	0xfa3
 4439 0fbf 28       		.uleb128 0x28
 4440 0fc0 BD0A0000 		.4byte	.LASF193
 4441 0fc4 05       		.byte	0x5
 4442 0fc5 1D02     		.2byte	0x21d
 4443 0fc7 07020000 		.4byte	0x207
 4444 0fcb 28       		.uleb128 0x28
 4445 0fcc 76060000 		.4byte	.LASF194
 4446 0fd0 05       		.byte	0x5
 4447 0fd1 2002     		.2byte	0x220
 4448 0fd3 DF080000 		.4byte	0x8df
 4449 0fd7 28       		.uleb128 0x28
 4450 0fd8 2B000000 		.4byte	.LASF195
 4451 0fdc 05       		.byte	0x5
 4452 0fdd 2002     		.2byte	0x220
 4453 0fdf DF080000 		.4byte	0x8df
 4454 0fe3 28       		.uleb128 0x28
 4455 0fe4 F8050000 		.4byte	.LASF196
 4456 0fe8 05       		.byte	0x5
 4457 0fe9 2102     		.2byte	0x221
 4458 0feb 3C0A0000 		.4byte	0xa3c
 4459 0fef 06       		.uleb128 0x6
 4460 0ff0 140A0000 		.4byte	0xa14
 4461 0ff4 FF0F0000 		.4byte	0xfff
 4462 0ff8 07       		.uleb128 0x7
 4463 0ff9 F1000000 		.4byte	0xf1
 4464 0ffd 01       		.byte	0x1
 4465 0ffe 00       		.byte	0
 4466 0fff 28       		.uleb128 0x28
 4467 1000 79020000 		.4byte	.LASF197
 4468 1004 05       		.byte	0x5
 4469 1005 2202     		.2byte	0x222
 4470 1007 EF0F0000 		.4byte	0xfef
 4471 100b 28       		.uleb128 0x28
 4472 100c 6F080000 		.4byte	.LASF198
 4473 1010 05       		.byte	0x5
 4474 1011 2A02     		.2byte	0x22a
 4475 1013 38020000 		.4byte	0x238
 4476 1017 28       		.uleb128 0x28
 4477 1018 D8040000 		.4byte	.LASF199
 4478 101c 05       		.byte	0x5
 4479 101d 2D02     		.2byte	0x22d
 4480 101f 38020000 		.4byte	0x238
 4481 1023 28       		.uleb128 0x28
ARM GAS  C:\Users\Mattia\AppData\Local\Temp\ccUc3JYZ.s 			page 91


 4482 1024 C8020000 		.4byte	.LASF200
 4483 1028 05       		.byte	0x5
 4484 1029 2E02     		.2byte	0x22e
 4485 102b 38020000 		.4byte	0x238
 4486 102f 28       		.uleb128 0x28
 4487 1030 DE0A0000 		.4byte	.LASF201
 4488 1034 05       		.byte	0x5
 4489 1035 3102     		.2byte	0x231
 4490 1037 B00A0000 		.4byte	0xab0
 4491 103b 28       		.uleb128 0x28
 4492 103c 98070000 		.4byte	.LASF202
 4493 1040 05       		.byte	0x5
 4494 1041 3202     		.2byte	0x232
 4495 1043 B00A0000 		.4byte	0xab0
 4496 1047 28       		.uleb128 0x28
 4497 1048 9A020000 		.4byte	.LASF203
 4498 104c 05       		.byte	0x5
 4499 104d 3802     		.2byte	0x238
 4500 104f 81000000 		.4byte	0x81
 4501 1053 28       		.uleb128 0x28
 4502 1054 37050000 		.4byte	.LASF204
 4503 1058 05       		.byte	0x5
 4504 1059 3B02     		.2byte	0x23b
 4505 105b 81000000 		.4byte	0x81
 4506 105f 28       		.uleb128 0x28
 4507 1060 61060000 		.4byte	.LASF205
 4508 1064 05       		.byte	0x5
 4509 1065 3D02     		.2byte	0x23d
 4510 1067 81000000 		.4byte	0x81
 4511 106b 28       		.uleb128 0x28
 4512 106c 17020000 		.4byte	.LASF206
 4513 1070 05       		.byte	0x5
 4514 1071 3E02     		.2byte	0x23e
 4515 1073 81000000 		.4byte	0x81
 4516 1077 28       		.uleb128 0x28
 4517 1078 51010000 		.4byte	.LASF207
 4518 107c 05       		.byte	0x5
 4519 107d 3F02     		.2byte	0x23f
 4520 107f 81000000 		.4byte	0x81
 4521 1083 28       		.uleb128 0x28
 4522 1084 84060000 		.4byte	.LASF208
 4523 1088 05       		.byte	0x5
 4524 1089 4502     		.2byte	0x245
 4525 108b 81000000 		.4byte	0x81
 4526 108f 28       		.uleb128 0x28
 4527 1090 D8050000 		.4byte	.LASF209
 4528 1094 05       		.byte	0x5
 4529 1095 5102     		.2byte	0x251
 4530 1097 BD000000 		.4byte	0xbd
 4531 109b 06       		.uleb128 0x6
 4532 109c 8D000000 		.4byte	0x8d
 4533 10a0 B2100000 		.4byte	0x10b2
 4534 10a4 2A       		.uleb128 0x2a
 4535 10a5 F1000000 		.4byte	0xf1
 4536 10a9 5702     		.2byte	0x257
 4537 10ab 07       		.uleb128 0x7
 4538 10ac F1000000 		.4byte	0xf1
ARM GAS  C:\Users\Mattia\AppData\Local\Temp\ccUc3JYZ.s 			page 92


 4539 10b0 01       		.byte	0x1
 4540 10b1 00       		.byte	0
 4541 10b2 28       		.uleb128 0x28
 4542 10b3 13090000 		.4byte	.LASF210
 4543 10b7 05       		.byte	0x5
 4544 10b8 6B02     		.2byte	0x26b
 4545 10ba 9B100000 		.4byte	0x109b
 4546 10be 28       		.uleb128 0x28
 4547 10bf A6090000 		.4byte	.LASF211
 4548 10c3 05       		.byte	0x5
 4549 10c4 6C02     		.2byte	0x26c
 4550 10c6 99000000 		.4byte	0x99
 4551 10ca 00       		.byte	0
 4552              		.section	.debug_abbrev,"",%progbits
 4553              	.Ldebug_abbrev0:
 4554 0000 01       		.uleb128 0x1
 4555 0001 11       		.uleb128 0x11
 4556 0002 01       		.byte	0x1
 4557 0003 25       		.uleb128 0x25
 4558 0004 0E       		.uleb128 0xe
 4559 0005 13       		.uleb128 0x13
 4560 0006 0B       		.uleb128 0xb
 4561 0007 03       		.uleb128 0x3
 4562 0008 0E       		.uleb128 0xe
 4563 0009 1B       		.uleb128 0x1b
 4564 000a 0E       		.uleb128 0xe
 4565 000b 55       		.uleb128 0x55
 4566 000c 17       		.uleb128 0x17
 4567 000d 11       		.uleb128 0x11
 4568 000e 01       		.uleb128 0x1
 4569 000f 10       		.uleb128 0x10
 4570 0010 17       		.uleb128 0x17
 4571 0011 00       		.byte	0
 4572 0012 00       		.byte	0
 4573 0013 02       		.uleb128 0x2
 4574 0014 24       		.uleb128 0x24
 4575 0015 00       		.byte	0
 4576 0016 0B       		.uleb128 0xb
 4577 0017 0B       		.uleb128 0xb
 4578 0018 3E       		.uleb128 0x3e
 4579 0019 0B       		.uleb128 0xb
 4580 001a 03       		.uleb128 0x3
 4581 001b 0E       		.uleb128 0xe
 4582 001c 00       		.byte	0
 4583 001d 00       		.byte	0
 4584 001e 03       		.uleb128 0x3
 4585 001f 16       		.uleb128 0x16
 4586 0020 00       		.byte	0
 4587 0021 03       		.uleb128 0x3
 4588 0022 0E       		.uleb128 0xe
 4589 0023 3A       		.uleb128 0x3a
 4590 0024 0B       		.uleb128 0xb
 4591 0025 3B       		.uleb128 0x3b
 4592 0026 0B       		.uleb128 0xb
 4593 0027 49       		.uleb128 0x49
 4594 0028 13       		.uleb128 0x13
 4595 0029 00       		.byte	0
ARM GAS  C:\Users\Mattia\AppData\Local\Temp\ccUc3JYZ.s 			page 93


 4596 002a 00       		.byte	0
 4597 002b 04       		.uleb128 0x4
 4598 002c 24       		.uleb128 0x24
 4599 002d 00       		.byte	0
 4600 002e 0B       		.uleb128 0xb
 4601 002f 0B       		.uleb128 0xb
 4602 0030 3E       		.uleb128 0x3e
 4603 0031 0B       		.uleb128 0xb
 4604 0032 03       		.uleb128 0x3
 4605 0033 08       		.uleb128 0x8
 4606 0034 00       		.byte	0
 4607 0035 00       		.byte	0
 4608 0036 05       		.uleb128 0x5
 4609 0037 16       		.uleb128 0x16
 4610 0038 00       		.byte	0
 4611 0039 03       		.uleb128 0x3
 4612 003a 0E       		.uleb128 0xe
 4613 003b 3A       		.uleb128 0x3a
 4614 003c 0B       		.uleb128 0xb
 4615 003d 3B       		.uleb128 0x3b
 4616 003e 05       		.uleb128 0x5
 4617 003f 49       		.uleb128 0x49
 4618 0040 13       		.uleb128 0x13
 4619 0041 00       		.byte	0
 4620 0042 00       		.byte	0
 4621 0043 06       		.uleb128 0x6
 4622 0044 01       		.uleb128 0x1
 4623 0045 01       		.byte	0x1
 4624 0046 49       		.uleb128 0x49
 4625 0047 13       		.uleb128 0x13
 4626 0048 01       		.uleb128 0x1
 4627 0049 13       		.uleb128 0x13
 4628 004a 00       		.byte	0
 4629 004b 00       		.byte	0
 4630 004c 07       		.uleb128 0x7
 4631 004d 21       		.uleb128 0x21
 4632 004e 00       		.byte	0
 4633 004f 49       		.uleb128 0x49
 4634 0050 13       		.uleb128 0x13
 4635 0051 2F       		.uleb128 0x2f
 4636 0052 0B       		.uleb128 0xb
 4637 0053 00       		.byte	0
 4638 0054 00       		.byte	0
 4639 0055 08       		.uleb128 0x8
 4640 0056 04       		.uleb128 0x4
 4641 0057 01       		.byte	0x1
 4642 0058 03       		.uleb128 0x3
 4643 0059 0E       		.uleb128 0xe
 4644 005a 0B       		.uleb128 0xb
 4645 005b 0B       		.uleb128 0xb
 4646 005c 49       		.uleb128 0x49
 4647 005d 13       		.uleb128 0x13
 4648 005e 3A       		.uleb128 0x3a
 4649 005f 0B       		.uleb128 0xb
 4650 0060 3B       		.uleb128 0x3b
 4651 0061 0B       		.uleb128 0xb
 4652 0062 01       		.uleb128 0x1
ARM GAS  C:\Users\Mattia\AppData\Local\Temp\ccUc3JYZ.s 			page 94


 4653 0063 13       		.uleb128 0x13
 4654 0064 00       		.byte	0
 4655 0065 00       		.byte	0
 4656 0066 09       		.uleb128 0x9
 4657 0067 28       		.uleb128 0x28
 4658 0068 00       		.byte	0
 4659 0069 03       		.uleb128 0x3
 4660 006a 0E       		.uleb128 0xe
 4661 006b 1C       		.uleb128 0x1c
 4662 006c 0B       		.uleb128 0xb
 4663 006d 00       		.byte	0
 4664 006e 00       		.byte	0
 4665 006f 0A       		.uleb128 0xa
 4666 0070 13       		.uleb128 0x13
 4667 0071 01       		.byte	0x1
 4668 0072 03       		.uleb128 0x3
 4669 0073 0E       		.uleb128 0xe
 4670 0074 0B       		.uleb128 0xb
 4671 0075 0B       		.uleb128 0xb
 4672 0076 3A       		.uleb128 0x3a
 4673 0077 0B       		.uleb128 0xb
 4674 0078 3B       		.uleb128 0x3b
 4675 0079 0B       		.uleb128 0xb
 4676 007a 01       		.uleb128 0x1
 4677 007b 13       		.uleb128 0x13
 4678 007c 00       		.byte	0
 4679 007d 00       		.byte	0
 4680 007e 0B       		.uleb128 0xb
 4681 007f 0D       		.uleb128 0xd
 4682 0080 00       		.byte	0
 4683 0081 03       		.uleb128 0x3
 4684 0082 08       		.uleb128 0x8
 4685 0083 3A       		.uleb128 0x3a
 4686 0084 0B       		.uleb128 0xb
 4687 0085 3B       		.uleb128 0x3b
 4688 0086 0B       		.uleb128 0xb
 4689 0087 49       		.uleb128 0x49
 4690 0088 13       		.uleb128 0x13
 4691 0089 38       		.uleb128 0x38
 4692 008a 0B       		.uleb128 0xb
 4693 008b 00       		.byte	0
 4694 008c 00       		.byte	0
 4695 008d 0C       		.uleb128 0xc
 4696 008e 0D       		.uleb128 0xd
 4697 008f 00       		.byte	0
 4698 0090 03       		.uleb128 0x3
 4699 0091 0E       		.uleb128 0xe
 4700 0092 3A       		.uleb128 0x3a
 4701 0093 0B       		.uleb128 0xb
 4702 0094 3B       		.uleb128 0x3b
 4703 0095 0B       		.uleb128 0xb
 4704 0096 49       		.uleb128 0x49
 4705 0097 13       		.uleb128 0x13
 4706 0098 38       		.uleb128 0x38
 4707 0099 0B       		.uleb128 0xb
 4708 009a 00       		.byte	0
 4709 009b 00       		.byte	0
ARM GAS  C:\Users\Mattia\AppData\Local\Temp\ccUc3JYZ.s 			page 95


 4710 009c 0D       		.uleb128 0xd
 4711 009d 13       		.uleb128 0x13
 4712 009e 01       		.byte	0x1
 4713 009f 03       		.uleb128 0x3
 4714 00a0 0E       		.uleb128 0xe
 4715 00a1 0B       		.uleb128 0xb
 4716 00a2 0B       		.uleb128 0xb
 4717 00a3 3A       		.uleb128 0x3a
 4718 00a4 0B       		.uleb128 0xb
 4719 00a5 3B       		.uleb128 0x3b
 4720 00a6 05       		.uleb128 0x5
 4721 00a7 01       		.uleb128 0x1
 4722 00a8 13       		.uleb128 0x13
 4723 00a9 00       		.byte	0
 4724 00aa 00       		.byte	0
 4725 00ab 0E       		.uleb128 0xe
 4726 00ac 0D       		.uleb128 0xd
 4727 00ad 00       		.byte	0
 4728 00ae 03       		.uleb128 0x3
 4729 00af 0E       		.uleb128 0xe
 4730 00b0 3A       		.uleb128 0x3a
 4731 00b1 0B       		.uleb128 0xb
 4732 00b2 3B       		.uleb128 0x3b
 4733 00b3 05       		.uleb128 0x5
 4734 00b4 49       		.uleb128 0x49
 4735 00b5 13       		.uleb128 0x13
 4736 00b6 38       		.uleb128 0x38
 4737 00b7 0B       		.uleb128 0xb
 4738 00b8 00       		.byte	0
 4739 00b9 00       		.byte	0
 4740 00ba 0F       		.uleb128 0xf
 4741 00bb 0D       		.uleb128 0xd
 4742 00bc 00       		.byte	0
 4743 00bd 03       		.uleb128 0x3
 4744 00be 08       		.uleb128 0x8
 4745 00bf 3A       		.uleb128 0x3a
 4746 00c0 0B       		.uleb128 0xb
 4747 00c1 3B       		.uleb128 0x3b
 4748 00c2 05       		.uleb128 0x5
 4749 00c3 49       		.uleb128 0x49
 4750 00c4 13       		.uleb128 0x13
 4751 00c5 38       		.uleb128 0x38
 4752 00c6 0B       		.uleb128 0xb
 4753 00c7 00       		.byte	0
 4754 00c8 00       		.byte	0
 4755 00c9 10       		.uleb128 0x10
 4756 00ca 13       		.uleb128 0x13
 4757 00cb 01       		.byte	0x1
 4758 00cc 03       		.uleb128 0x3
 4759 00cd 0E       		.uleb128 0xe
 4760 00ce 0B       		.uleb128 0xb
 4761 00cf 05       		.uleb128 0x5
 4762 00d0 3A       		.uleb128 0x3a
 4763 00d1 0B       		.uleb128 0xb
 4764 00d2 3B       		.uleb128 0x3b
 4765 00d3 05       		.uleb128 0x5
 4766 00d4 01       		.uleb128 0x1
ARM GAS  C:\Users\Mattia\AppData\Local\Temp\ccUc3JYZ.s 			page 96


 4767 00d5 13       		.uleb128 0x13
 4768 00d6 00       		.byte	0
 4769 00d7 00       		.byte	0
 4770 00d8 11       		.uleb128 0x11
 4771 00d9 0D       		.uleb128 0xd
 4772 00da 00       		.byte	0
 4773 00db 03       		.uleb128 0x3
 4774 00dc 08       		.uleb128 0x8
 4775 00dd 3A       		.uleb128 0x3a
 4776 00de 0B       		.uleb128 0xb
 4777 00df 3B       		.uleb128 0x3b
 4778 00e0 05       		.uleb128 0x5
 4779 00e1 49       		.uleb128 0x49
 4780 00e2 13       		.uleb128 0x13
 4781 00e3 38       		.uleb128 0x38
 4782 00e4 05       		.uleb128 0x5
 4783 00e5 00       		.byte	0
 4784 00e6 00       		.byte	0
 4785 00e7 12       		.uleb128 0x12
 4786 00e8 0D       		.uleb128 0xd
 4787 00e9 00       		.byte	0
 4788 00ea 03       		.uleb128 0x3
 4789 00eb 0E       		.uleb128 0xe
 4790 00ec 3A       		.uleb128 0x3a
 4791 00ed 0B       		.uleb128 0xb
 4792 00ee 3B       		.uleb128 0x3b
 4793 00ef 05       		.uleb128 0x5
 4794 00f0 49       		.uleb128 0x49
 4795 00f1 13       		.uleb128 0x13
 4796 00f2 38       		.uleb128 0x38
 4797 00f3 05       		.uleb128 0x5
 4798 00f4 00       		.byte	0
 4799 00f5 00       		.byte	0
 4800 00f6 13       		.uleb128 0x13
 4801 00f7 04       		.uleb128 0x4
 4802 00f8 01       		.byte	0x1
 4803 00f9 0B       		.uleb128 0xb
 4804 00fa 0B       		.uleb128 0xb
 4805 00fb 49       		.uleb128 0x49
 4806 00fc 13       		.uleb128 0x13
 4807 00fd 3A       		.uleb128 0x3a
 4808 00fe 0B       		.uleb128 0xb
 4809 00ff 3B       		.uleb128 0x3b
 4810 0100 05       		.uleb128 0x5
 4811 0101 01       		.uleb128 0x1
 4812 0102 13       		.uleb128 0x13
 4813 0103 00       		.byte	0
 4814 0104 00       		.byte	0
 4815 0105 14       		.uleb128 0x14
 4816 0106 2E       		.uleb128 0x2e
 4817 0107 01       		.byte	0x1
 4818 0108 3F       		.uleb128 0x3f
 4819 0109 19       		.uleb128 0x19
 4820 010a 03       		.uleb128 0x3
 4821 010b 0E       		.uleb128 0xe
 4822 010c 3A       		.uleb128 0x3a
 4823 010d 0B       		.uleb128 0xb
ARM GAS  C:\Users\Mattia\AppData\Local\Temp\ccUc3JYZ.s 			page 97


 4824 010e 3B       		.uleb128 0x3b
 4825 010f 0B       		.uleb128 0xb
 4826 0110 27       		.uleb128 0x27
 4827 0111 19       		.uleb128 0x19
 4828 0112 49       		.uleb128 0x49
 4829 0113 13       		.uleb128 0x13
 4830 0114 11       		.uleb128 0x11
 4831 0115 01       		.uleb128 0x1
 4832 0116 12       		.uleb128 0x12
 4833 0117 06       		.uleb128 0x6
 4834 0118 40       		.uleb128 0x40
 4835 0119 18       		.uleb128 0x18
 4836 011a 9642     		.uleb128 0x2116
 4837 011c 19       		.uleb128 0x19
 4838 011d 01       		.uleb128 0x1
 4839 011e 13       		.uleb128 0x13
 4840 011f 00       		.byte	0
 4841 0120 00       		.byte	0
 4842 0121 15       		.uleb128 0x15
 4843 0122 05       		.uleb128 0x5
 4844 0123 00       		.byte	0
 4845 0124 03       		.uleb128 0x3
 4846 0125 08       		.uleb128 0x8
 4847 0126 3A       		.uleb128 0x3a
 4848 0127 0B       		.uleb128 0xb
 4849 0128 3B       		.uleb128 0x3b
 4850 0129 0B       		.uleb128 0xb
 4851 012a 49       		.uleb128 0x49
 4852 012b 13       		.uleb128 0x13
 4853 012c 02       		.uleb128 0x2
 4854 012d 18       		.uleb128 0x18
 4855 012e 00       		.byte	0
 4856 012f 00       		.byte	0
 4857 0130 16       		.uleb128 0x16
 4858 0131 34       		.uleb128 0x34
 4859 0132 00       		.byte	0
 4860 0133 03       		.uleb128 0x3
 4861 0134 0E       		.uleb128 0xe
 4862 0135 3A       		.uleb128 0x3a
 4863 0136 0B       		.uleb128 0xb
 4864 0137 3B       		.uleb128 0x3b
 4865 0138 0B       		.uleb128 0xb
 4866 0139 49       		.uleb128 0x49
 4867 013a 13       		.uleb128 0x13
 4868 013b 02       		.uleb128 0x2
 4869 013c 18       		.uleb128 0x18
 4870 013d 00       		.byte	0
 4871 013e 00       		.byte	0
 4872 013f 17       		.uleb128 0x17
 4873 0140 2E       		.uleb128 0x2e
 4874 0141 01       		.byte	0x1
 4875 0142 3F       		.uleb128 0x3f
 4876 0143 19       		.uleb128 0x19
 4877 0144 03       		.uleb128 0x3
 4878 0145 0E       		.uleb128 0xe
 4879 0146 3A       		.uleb128 0x3a
 4880 0147 0B       		.uleb128 0xb
ARM GAS  C:\Users\Mattia\AppData\Local\Temp\ccUc3JYZ.s 			page 98


 4881 0148 3B       		.uleb128 0x3b
 4882 0149 0B       		.uleb128 0xb
 4883 014a 27       		.uleb128 0x27
 4884 014b 19       		.uleb128 0x19
 4885 014c 49       		.uleb128 0x49
 4886 014d 13       		.uleb128 0x13
 4887 014e 11       		.uleb128 0x11
 4888 014f 01       		.uleb128 0x1
 4889 0150 12       		.uleb128 0x12
 4890 0151 06       		.uleb128 0x6
 4891 0152 40       		.uleb128 0x40
 4892 0153 18       		.uleb128 0x18
 4893 0154 9742     		.uleb128 0x2117
 4894 0156 19       		.uleb128 0x19
 4895 0157 01       		.uleb128 0x1
 4896 0158 13       		.uleb128 0x13
 4897 0159 00       		.byte	0
 4898 015a 00       		.byte	0
 4899 015b 18       		.uleb128 0x18
 4900 015c 05       		.uleb128 0x5
 4901 015d 00       		.byte	0
 4902 015e 03       		.uleb128 0x3
 4903 015f 0E       		.uleb128 0xe
 4904 0160 3A       		.uleb128 0x3a
 4905 0161 0B       		.uleb128 0xb
 4906 0162 3B       		.uleb128 0x3b
 4907 0163 0B       		.uleb128 0xb
 4908 0164 49       		.uleb128 0x49
 4909 0165 13       		.uleb128 0x13
 4910 0166 02       		.uleb128 0x2
 4911 0167 18       		.uleb128 0x18
 4912 0168 00       		.byte	0
 4913 0169 00       		.byte	0
 4914 016a 19       		.uleb128 0x19
 4915 016b 34       		.uleb128 0x34
 4916 016c 00       		.byte	0
 4917 016d 03       		.uleb128 0x3
 4918 016e 08       		.uleb128 0x8
 4919 016f 3A       		.uleb128 0x3a
 4920 0170 0B       		.uleb128 0xb
 4921 0171 3B       		.uleb128 0x3b
 4922 0172 0B       		.uleb128 0xb
 4923 0173 49       		.uleb128 0x49
 4924 0174 13       		.uleb128 0x13
 4925 0175 02       		.uleb128 0x2
 4926 0176 18       		.uleb128 0x18
 4927 0177 00       		.byte	0
 4928 0178 00       		.byte	0
 4929 0179 1A       		.uleb128 0x1a
 4930 017a 0F       		.uleb128 0xf
 4931 017b 00       		.byte	0
 4932 017c 0B       		.uleb128 0xb
 4933 017d 0B       		.uleb128 0xb
 4934 017e 49       		.uleb128 0x49
 4935 017f 13       		.uleb128 0x13
 4936 0180 00       		.byte	0
 4937 0181 00       		.byte	0
ARM GAS  C:\Users\Mattia\AppData\Local\Temp\ccUc3JYZ.s 			page 99


 4938 0182 1B       		.uleb128 0x1b
 4939 0183 2E       		.uleb128 0x2e
 4940 0184 01       		.byte	0x1
 4941 0185 3F       		.uleb128 0x3f
 4942 0186 19       		.uleb128 0x19
 4943 0187 03       		.uleb128 0x3
 4944 0188 0E       		.uleb128 0xe
 4945 0189 3A       		.uleb128 0x3a
 4946 018a 0B       		.uleb128 0xb
 4947 018b 3B       		.uleb128 0x3b
 4948 018c 0B       		.uleb128 0xb
 4949 018d 27       		.uleb128 0x27
 4950 018e 19       		.uleb128 0x19
 4951 018f 11       		.uleb128 0x11
 4952 0190 01       		.uleb128 0x1
 4953 0191 12       		.uleb128 0x12
 4954 0192 06       		.uleb128 0x6
 4955 0193 40       		.uleb128 0x40
 4956 0194 18       		.uleb128 0x18
 4957 0195 9742     		.uleb128 0x2117
 4958 0197 19       		.uleb128 0x19
 4959 0198 01       		.uleb128 0x1
 4960 0199 13       		.uleb128 0x13
 4961 019a 00       		.byte	0
 4962 019b 00       		.byte	0
 4963 019c 1C       		.uleb128 0x1c
 4964 019d 26       		.uleb128 0x26
 4965 019e 00       		.byte	0
 4966 019f 49       		.uleb128 0x49
 4967 01a0 13       		.uleb128 0x13
 4968 01a1 00       		.byte	0
 4969 01a2 00       		.byte	0
 4970 01a3 1D       		.uleb128 0x1d
 4971 01a4 0B       		.uleb128 0xb
 4972 01a5 01       		.byte	0x1
 4973 01a6 11       		.uleb128 0x11
 4974 01a7 01       		.uleb128 0x1
 4975 01a8 12       		.uleb128 0x12
 4976 01a9 06       		.uleb128 0x6
 4977 01aa 00       		.byte	0
 4978 01ab 00       		.byte	0
 4979 01ac 1E       		.uleb128 0x1e
 4980 01ad 2E       		.uleb128 0x2e
 4981 01ae 01       		.byte	0x1
 4982 01af 3F       		.uleb128 0x3f
 4983 01b0 19       		.uleb128 0x19
 4984 01b1 03       		.uleb128 0x3
 4985 01b2 0E       		.uleb128 0xe
 4986 01b3 3A       		.uleb128 0x3a
 4987 01b4 0B       		.uleb128 0xb
 4988 01b5 3B       		.uleb128 0x3b
 4989 01b6 0B       		.uleb128 0xb
 4990 01b7 27       		.uleb128 0x27
 4991 01b8 19       		.uleb128 0x19
 4992 01b9 11       		.uleb128 0x11
 4993 01ba 01       		.uleb128 0x1
 4994 01bb 12       		.uleb128 0x12
ARM GAS  C:\Users\Mattia\AppData\Local\Temp\ccUc3JYZ.s 			page 100


 4995 01bc 06       		.uleb128 0x6
 4996 01bd 40       		.uleb128 0x40
 4997 01be 18       		.uleb128 0x18
 4998 01bf 9642     		.uleb128 0x2116
 4999 01c1 19       		.uleb128 0x19
 5000 01c2 01       		.uleb128 0x1
 5001 01c3 13       		.uleb128 0x13
 5002 01c4 00       		.byte	0
 5003 01c5 00       		.byte	0
 5004 01c6 1F       		.uleb128 0x1f
 5005 01c7 2E       		.uleb128 0x2e
 5006 01c8 01       		.byte	0x1
 5007 01c9 3F       		.uleb128 0x3f
 5008 01ca 19       		.uleb128 0x19
 5009 01cb 03       		.uleb128 0x3
 5010 01cc 0E       		.uleb128 0xe
 5011 01cd 3A       		.uleb128 0x3a
 5012 01ce 0B       		.uleb128 0xb
 5013 01cf 3B       		.uleb128 0x3b
 5014 01d0 05       		.uleb128 0x5
 5015 01d1 27       		.uleb128 0x27
 5016 01d2 19       		.uleb128 0x19
 5017 01d3 11       		.uleb128 0x11
 5018 01d4 01       		.uleb128 0x1
 5019 01d5 12       		.uleb128 0x12
 5020 01d6 06       		.uleb128 0x6
 5021 01d7 40       		.uleb128 0x40
 5022 01d8 18       		.uleb128 0x18
 5023 01d9 9642     		.uleb128 0x2116
 5024 01db 19       		.uleb128 0x19
 5025 01dc 01       		.uleb128 0x1
 5026 01dd 13       		.uleb128 0x13
 5027 01de 00       		.byte	0
 5028 01df 00       		.byte	0
 5029 01e0 20       		.uleb128 0x20
 5030 01e1 05       		.uleb128 0x5
 5031 01e2 00       		.byte	0
 5032 01e3 03       		.uleb128 0x3
 5033 01e4 0E       		.uleb128 0xe
 5034 01e5 3A       		.uleb128 0x3a
 5035 01e6 0B       		.uleb128 0xb
 5036 01e7 3B       		.uleb128 0x3b
 5037 01e8 05       		.uleb128 0x5
 5038 01e9 49       		.uleb128 0x49
 5039 01ea 13       		.uleb128 0x13
 5040 01eb 02       		.uleb128 0x2
 5041 01ec 18       		.uleb128 0x18
 5042 01ed 00       		.byte	0
 5043 01ee 00       		.byte	0
 5044 01ef 21       		.uleb128 0x21
 5045 01f0 2E       		.uleb128 0x2e
 5046 01f1 01       		.byte	0x1
 5047 01f2 3F       		.uleb128 0x3f
 5048 01f3 19       		.uleb128 0x19
 5049 01f4 03       		.uleb128 0x3
 5050 01f5 0E       		.uleb128 0xe
 5051 01f6 3A       		.uleb128 0x3a
ARM GAS  C:\Users\Mattia\AppData\Local\Temp\ccUc3JYZ.s 			page 101


 5052 01f7 0B       		.uleb128 0xb
 5053 01f8 3B       		.uleb128 0x3b
 5054 01f9 05       		.uleb128 0x5
 5055 01fa 11       		.uleb128 0x11
 5056 01fb 01       		.uleb128 0x1
 5057 01fc 12       		.uleb128 0x12
 5058 01fd 06       		.uleb128 0x6
 5059 01fe 40       		.uleb128 0x40
 5060 01ff 18       		.uleb128 0x18
 5061 0200 9642     		.uleb128 0x2116
 5062 0202 19       		.uleb128 0x19
 5063 0203 01       		.uleb128 0x1
 5064 0204 13       		.uleb128 0x13
 5065 0205 00       		.byte	0
 5066 0206 00       		.byte	0
 5067 0207 22       		.uleb128 0x22
 5068 0208 34       		.uleb128 0x34
 5069 0209 00       		.byte	0
 5070 020a 03       		.uleb128 0x3
 5071 020b 0E       		.uleb128 0xe
 5072 020c 3A       		.uleb128 0x3a
 5073 020d 0B       		.uleb128 0xb
 5074 020e 3B       		.uleb128 0x3b
 5075 020f 05       		.uleb128 0x5
 5076 0210 49       		.uleb128 0x49
 5077 0211 13       		.uleb128 0x13
 5078 0212 02       		.uleb128 0x2
 5079 0213 18       		.uleb128 0x18
 5080 0214 00       		.byte	0
 5081 0215 00       		.byte	0
 5082 0216 23       		.uleb128 0x23
 5083 0217 2E       		.uleb128 0x2e
 5084 0218 00       		.byte	0
 5085 0219 3F       		.uleb128 0x3f
 5086 021a 19       		.uleb128 0x19
 5087 021b 03       		.uleb128 0x3
 5088 021c 0E       		.uleb128 0xe
 5089 021d 3A       		.uleb128 0x3a
 5090 021e 0B       		.uleb128 0xb
 5091 021f 3B       		.uleb128 0x3b
 5092 0220 05       		.uleb128 0x5
 5093 0221 11       		.uleb128 0x11
 5094 0222 01       		.uleb128 0x1
 5095 0223 12       		.uleb128 0x12
 5096 0224 06       		.uleb128 0x6
 5097 0225 40       		.uleb128 0x40
 5098 0226 18       		.uleb128 0x18
 5099 0227 9642     		.uleb128 0x2116
 5100 0229 19       		.uleb128 0x19
 5101 022a 00       		.byte	0
 5102 022b 00       		.byte	0
 5103 022c 24       		.uleb128 0x24
 5104 022d 05       		.uleb128 0x5
 5105 022e 00       		.byte	0
 5106 022f 03       		.uleb128 0x3
 5107 0230 08       		.uleb128 0x8
 5108 0231 3A       		.uleb128 0x3a
ARM GAS  C:\Users\Mattia\AppData\Local\Temp\ccUc3JYZ.s 			page 102


 5109 0232 0B       		.uleb128 0xb
 5110 0233 3B       		.uleb128 0x3b
 5111 0234 05       		.uleb128 0x5
 5112 0235 49       		.uleb128 0x49
 5113 0236 13       		.uleb128 0x13
 5114 0237 02       		.uleb128 0x2
 5115 0238 18       		.uleb128 0x18
 5116 0239 00       		.byte	0
 5117 023a 00       		.byte	0
 5118 023b 25       		.uleb128 0x25
 5119 023c 2E       		.uleb128 0x2e
 5120 023d 01       		.byte	0x1
 5121 023e 3F       		.uleb128 0x3f
 5122 023f 19       		.uleb128 0x19
 5123 0240 03       		.uleb128 0x3
 5124 0241 0E       		.uleb128 0xe
 5125 0242 3A       		.uleb128 0x3a
 5126 0243 0B       		.uleb128 0xb
 5127 0244 3B       		.uleb128 0x3b
 5128 0245 05       		.uleb128 0x5
 5129 0246 11       		.uleb128 0x11
 5130 0247 01       		.uleb128 0x1
 5131 0248 12       		.uleb128 0x12
 5132 0249 06       		.uleb128 0x6
 5133 024a 40       		.uleb128 0x40
 5134 024b 18       		.uleb128 0x18
 5135 024c 9742     		.uleb128 0x2117
 5136 024e 19       		.uleb128 0x19
 5137 024f 01       		.uleb128 0x1
 5138 0250 13       		.uleb128 0x13
 5139 0251 00       		.byte	0
 5140 0252 00       		.byte	0
 5141 0253 26       		.uleb128 0x26
 5142 0254 34       		.uleb128 0x34
 5143 0255 00       		.byte	0
 5144 0256 03       		.uleb128 0x3
 5145 0257 08       		.uleb128 0x8
 5146 0258 3A       		.uleb128 0x3a
 5147 0259 0B       		.uleb128 0xb
 5148 025a 3B       		.uleb128 0x3b
 5149 025b 05       		.uleb128 0x5
 5150 025c 49       		.uleb128 0x49
 5151 025d 13       		.uleb128 0x13
 5152 025e 02       		.uleb128 0x2
 5153 025f 18       		.uleb128 0x18
 5154 0260 00       		.byte	0
 5155 0261 00       		.byte	0
 5156 0262 27       		.uleb128 0x27
 5157 0263 2E       		.uleb128 0x2e
 5158 0264 01       		.byte	0x1
 5159 0265 3F       		.uleb128 0x3f
 5160 0266 19       		.uleb128 0x19
 5161 0267 03       		.uleb128 0x3
 5162 0268 0E       		.uleb128 0xe
 5163 0269 3A       		.uleb128 0x3a
 5164 026a 0B       		.uleb128 0xb
 5165 026b 3B       		.uleb128 0x3b
ARM GAS  C:\Users\Mattia\AppData\Local\Temp\ccUc3JYZ.s 			page 103


 5166 026c 05       		.uleb128 0x5
 5167 026d 27       		.uleb128 0x27
 5168 026e 19       		.uleb128 0x19
 5169 026f 49       		.uleb128 0x49
 5170 0270 13       		.uleb128 0x13
 5171 0271 11       		.uleb128 0x11
 5172 0272 01       		.uleb128 0x1
 5173 0273 12       		.uleb128 0x12
 5174 0274 06       		.uleb128 0x6
 5175 0275 40       		.uleb128 0x40
 5176 0276 18       		.uleb128 0x18
 5177 0277 9642     		.uleb128 0x2116
 5178 0279 19       		.uleb128 0x19
 5179 027a 01       		.uleb128 0x1
 5180 027b 13       		.uleb128 0x13
 5181 027c 00       		.byte	0
 5182 027d 00       		.byte	0
 5183 027e 28       		.uleb128 0x28
 5184 027f 34       		.uleb128 0x34
 5185 0280 00       		.byte	0
 5186 0281 03       		.uleb128 0x3
 5187 0282 0E       		.uleb128 0xe
 5188 0283 3A       		.uleb128 0x3a
 5189 0284 0B       		.uleb128 0xb
 5190 0285 3B       		.uleb128 0x3b
 5191 0286 05       		.uleb128 0x5
 5192 0287 49       		.uleb128 0x49
 5193 0288 13       		.uleb128 0x13
 5194 0289 3F       		.uleb128 0x3f
 5195 028a 19       		.uleb128 0x19
 5196 028b 3C       		.uleb128 0x3c
 5197 028c 19       		.uleb128 0x19
 5198 028d 00       		.byte	0
 5199 028e 00       		.byte	0
 5200 028f 29       		.uleb128 0x29
 5201 0290 35       		.uleb128 0x35
 5202 0291 00       		.byte	0
 5203 0292 49       		.uleb128 0x49
 5204 0293 13       		.uleb128 0x13
 5205 0294 00       		.byte	0
 5206 0295 00       		.byte	0
 5207 0296 2A       		.uleb128 0x2a
 5208 0297 21       		.uleb128 0x21
 5209 0298 00       		.byte	0
 5210 0299 49       		.uleb128 0x49
 5211 029a 13       		.uleb128 0x13
 5212 029b 2F       		.uleb128 0x2f
 5213 029c 05       		.uleb128 0x5
 5214 029d 00       		.byte	0
 5215 029e 00       		.byte	0
 5216 029f 00       		.byte	0
 5217              		.section	.debug_aranges,"",%progbits
 5218 0000 94000000 		.4byte	0x94
 5219 0004 0200     		.2byte	0x2
 5220 0006 00000000 		.4byte	.Ldebug_info0
 5221 000a 04       		.byte	0x4
 5222 000b 00       		.byte	0
ARM GAS  C:\Users\Mattia\AppData\Local\Temp\ccUc3JYZ.s 			page 104


 5223 000c 0000     		.2byte	0
 5224 000e 0000     		.2byte	0
 5225 0010 00000000 		.4byte	.LFB64
 5226 0014 70020000 		.4byte	.LFE64-.LFB64
 5227 0018 00000000 		.4byte	.LFB65
 5228 001c 4E000000 		.4byte	.LFE65-.LFB65
 5229 0020 00000000 		.4byte	.LFB66
 5230 0024 50000000 		.4byte	.LFE66-.LFB66
 5231 0028 00000000 		.4byte	.LFB67
 5232 002c D4000000 		.4byte	.LFE67-.LFB67
 5233 0030 00000000 		.4byte	.LFB68
 5234 0034 C4000000 		.4byte	.LFE68-.LFB68
 5235 0038 00000000 		.4byte	.LFB69
 5236 003c 98000000 		.4byte	.LFE69-.LFB69
 5237 0040 00000000 		.4byte	.LFB70
 5238 0044 7C030000 		.4byte	.LFE70-.LFB70
 5239 0048 00000000 		.4byte	.LFB71
 5240 004c 8E000000 		.4byte	.LFE71-.LFB71
 5241 0050 00000000 		.4byte	.LFB72
 5242 0054 F0020000 		.4byte	.LFE72-.LFB72
 5243 0058 00000000 		.4byte	.LFB73
 5244 005c 44000000 		.4byte	.LFE73-.LFB73
 5245 0060 00000000 		.4byte	.LFB74
 5246 0064 34000000 		.4byte	.LFE74-.LFB74
 5247 0068 00000000 		.4byte	.LFB75
 5248 006c 78000000 		.4byte	.LFE75-.LFB75
 5249 0070 00000000 		.4byte	.LFB76
 5250 0074 78000000 		.4byte	.LFE76-.LFB76
 5251 0078 00000000 		.4byte	.LFB77
 5252 007c B0000000 		.4byte	.LFE77-.LFB77
 5253 0080 00000000 		.4byte	.LFB78
 5254 0084 EA000000 		.4byte	.LFE78-.LFB78
 5255 0088 00000000 		.4byte	.LFB79
 5256 008c 90000000 		.4byte	.LFE79-.LFB79
 5257 0090 00000000 		.4byte	0
 5258 0094 00000000 		.4byte	0
 5259              		.section	.debug_ranges,"",%progbits
 5260              	.Ldebug_ranges0:
 5261 0000 00000000 		.4byte	.LFB64
 5262 0004 70020000 		.4byte	.LFE64
 5263 0008 00000000 		.4byte	.LFB65
 5264 000c 4E000000 		.4byte	.LFE65
 5265 0010 00000000 		.4byte	.LFB66
 5266 0014 50000000 		.4byte	.LFE66
 5267 0018 00000000 		.4byte	.LFB67
 5268 001c D4000000 		.4byte	.LFE67
 5269 0020 00000000 		.4byte	.LFB68
 5270 0024 C4000000 		.4byte	.LFE68
 5271 0028 00000000 		.4byte	.LFB69
 5272 002c 98000000 		.4byte	.LFE69
 5273 0030 00000000 		.4byte	.LFB70
 5274 0034 7C030000 		.4byte	.LFE70
 5275 0038 00000000 		.4byte	.LFB71
 5276 003c 8E000000 		.4byte	.LFE71
 5277 0040 00000000 		.4byte	.LFB72
 5278 0044 F0020000 		.4byte	.LFE72
 5279 0048 00000000 		.4byte	.LFB73
ARM GAS  C:\Users\Mattia\AppData\Local\Temp\ccUc3JYZ.s 			page 105


 5280 004c 44000000 		.4byte	.LFE73
 5281 0050 00000000 		.4byte	.LFB74
 5282 0054 34000000 		.4byte	.LFE74
 5283 0058 00000000 		.4byte	.LFB75
 5284 005c 78000000 		.4byte	.LFE75
 5285 0060 00000000 		.4byte	.LFB76
 5286 0064 78000000 		.4byte	.LFE76
 5287 0068 00000000 		.4byte	.LFB77
 5288 006c B0000000 		.4byte	.LFE77
 5289 0070 00000000 		.4byte	.LFB78
 5290 0074 EA000000 		.4byte	.LFE78
 5291 0078 00000000 		.4byte	.LFB79
 5292 007c 90000000 		.4byte	.LFE79
 5293 0080 00000000 		.4byte	0
 5294 0084 00000000 		.4byte	0
 5295              		.section	.debug_line,"",%progbits
 5296              	.Ldebug_line0:
 5297 0000 84040000 		.section	.debug_str,"MS",%progbits,1
 5297      02006F01 
 5297      00000201 
 5297      FB0E0D00 
 5297      01010101 
 5298              	.LASF166:
 5299 0000 636F756E 		.ascii	"count\000"
 5299      7400
 5300              	.LASF2:
 5301 0006 73686F72 		.ascii	"short int\000"
 5301      7420696E 
 5301      7400
 5302              	.LASF53:
 5303 0010 7573655F 		.ascii	"use_2nd_motor_flag\000"
 5303      326E645F 
 5303      6D6F746F 
 5303      725F666C 
 5303      616700
 5304              	.LASF34:
 5305 0023 73745F6D 		.ascii	"st_meas\000"
 5305      65617300 
 5306              	.LASF195:
 5307 002b 635F6D65 		.ascii	"c_mem\000"
 5307      6D00
 5308              	.LASF122:
 5309 0031 73745F46 		.ascii	"st_FB_spec\000"
 5309      425F7370 
 5309      656300
 5310              	.LASF117:
 5311 003c 6A6F7973 		.ascii	"joystick_threshold\000"
 5311      7469636B 
 5311      5F746872 
 5311      6573686F 
 5311      6C6400
 5312              	.LASF97:
 5313 004f 73745F69 		.ascii	"st_imu\000"
 5313      6D7500
 5314              	.LASF159:
 5315 0056 636C6F73 		.ascii	"closure_counter\000"
 5315      7572655F 
ARM GAS  C:\Users\Mattia\AppData\Local\Temp\ccUc3JYZ.s 			page 106


 5315      636F756E 
 5315      74657200 
 5316              	.LASF172:
 5317 0066 72657374 		.ascii	"rest_error\000"
 5317      5F657272 
 5317      6F7200
 5318              	.LASF46:
 5319 0071 746F7461 		.ascii	"total_time_on\000"
 5319      6C5F7469 
 5319      6D655F6F 
 5319      6E00
 5320              	.LASF85:
 5321 007f 6D5F6F66 		.ascii	"m_off\000"
 5321      6600
 5322              	.LASF80:
 5323 0085 656E636F 		.ascii	"encoder_line\000"
 5323      6465725F 
 5323      6C696E65 
 5323      00
 5324              	.LASF141:
 5325 0092 64697265 		.ascii	"direction\000"
 5325      6374696F 
 5325      6E00
 5326              	.LASF129:
 5327 009c 77726973 		.ascii	"wrist_direction_association\000"
 5327      745F6469 
 5327      72656374 
 5327      696F6E5F 
 5327      6173736F 
 5328              	.LASF212:
 5329 00b8 474E5520 		.ascii	"GNU C11 5.4.1 20160609 (release) [ARM/embedded-5-br"
 5329      43313120 
 5329      352E342E 
 5329      31203230 
 5329      31363036 
 5330 00eb 616E6368 		.ascii	"anch revision 237715] -mcpu=cortex-m3 -mthumb -g -O"
 5330      20726576 
 5330      6973696F 
 5330      6E203233 
 5330      37373135 
 5331 011e 30202D66 		.ascii	"0 -ffunction-sections -ffat-lto-objects\000"
 5331      66756E63 
 5331      74696F6E 
 5331      2D736563 
 5331      74696F6E 
 5332              	.LASF176:
 5333 0146 765F636F 		.ascii	"v_count_lb\000"
 5333      756E745F 
 5333      6C6200
 5334              	.LASF207:
 5335 0151 62617474 		.ascii	"battery_low_SoC\000"
 5335      6572795F 
 5335      6C6F775F 
 5335      536F4300 
 5336              	.LASF7:
 5337 0161 6C6F6E67 		.ascii	"long long unsigned int\000"
 5337      206C6F6E 
ARM GAS  C:\Users\Mattia\AppData\Local\Temp\ccUc3JYZ.s 			page 107


 5337      6720756E 
 5337      7369676E 
 5337      65642069 
 5338              	.LASF54:
 5339 0178 62617564 		.ascii	"baud_rate\000"
 5339      5F726174 
 5339      6500
 5340              	.LASF127:
 5341 0182 61637469 		.ascii	"activation_mode\000"
 5341      76617469 
 5341      6F6E5F6D 
 5341      6F646500 
 5342              	.LASF190:
 5343 0192 49544D5F 		.ascii	"ITM_RxBuffer\000"
 5343      52784275 
 5343      66666572 
 5343      00
 5344              	.LASF170:
 5345 019f 64656C74 		.ascii	"delta_inc\000"
 5345      615F696E 
 5345      6300
 5346              	.LASF123:
 5347 01a9 6D61785F 		.ascii	"max_residual_current\000"
 5347      72657369 
 5347      6475616C 
 5347      5F637572 
 5347      72656E74 
 5348              	.LASF157:
 5349 01be 6D795F6D 		.ascii	"my_mod\000"
 5349      6F6400
 5350              	.LASF113:
 5351 01c5 72657374 		.ascii	"rest_vel\000"
 5351      5F76656C 
 5351      00
 5352              	.LASF92:
 5353 01ce 656D675F 		.ascii	"emg_threshold\000"
 5353      74687265 
 5353      73686F6C 
 5353      6400
 5354              	.LASF6:
 5355 01dc 6C6F6E67 		.ascii	"long long int\000"
 5355      206C6F6E 
 5355      6720696E 
 5355      7400
 5356              	.LASF0:
 5357 01ea 7369676E 		.ascii	"signed char\000"
 5357      65642063 
 5357      68617200 
 5358              	.LASF154:
 5359 01f6 63757272 		.ascii	"curr_estim\000"
 5359      5F657374 
 5359      696D00
 5360              	.LASF183:
 5361 0201 6E6F726D 		.ascii	"norm\000"
 5361      00
 5362              	.LASF35:
 5363 0206 65737469 		.ascii	"estim_curr\000"
ARM GAS  C:\Users\Mattia\AppData\Local\Temp\ccUc3JYZ.s 			page 108


 5363      6D5F6375 
 5363      727200
 5364              	.LASF182:
 5365 0211 76335F69 		.ascii	"v3_in\000"
 5365      6E00
 5366              	.LASF206:
 5367 0217 666F7263 		.ascii	"forced_open\000"
 5367      65645F6F 
 5367      70656E00 
 5368              	.LASF16:
 5369 0223 696E7433 		.ascii	"int32\000"
 5369      3200
 5370              	.LASF214:
 5371 0229 433A5C55 		.ascii	"C:\\Users\\Mattia\\Documents\\GITHUB\\SoftHandPRO-a"
 5371      73657273 
 5371      5C4D6174 
 5371      7469615C 
 5371      446F6375 
 5372 0257 6E642D47 		.ascii	"nd-Generic-FW-PSoC5\\Generic.cydsn\000"
 5372      656E6572 
 5372      69632D46 
 5372      572D5053 
 5372      6F43355C 
 5373              	.LASF197:
 5374 0279 66696C74 		.ascii	"filt_v\000"
 5374      5F7600
 5375              	.LASF4:
 5376 0280 6C6F6E67 		.ascii	"long int\000"
 5376      20696E74 
 5376      00
 5377              	.LASF36:
 5378 0289 686F6C64 		.ascii	"hold_curr\000"
 5378      5F637572 
 5378      7200
 5379              	.LASF12:
 5380 0293 75696E74 		.ascii	"uint16\000"
 5380      313600
 5381              	.LASF203:
 5382 029a 74656E73 		.ascii	"tension_valid\000"
 5382      696F6E5F 
 5382      76616C69 
 5382      6400
 5383              	.LASF137:
 5384 02a8 6F6C645F 		.ascii	"old_value\000"
 5384      76616C75 
 5384      6500
 5385              	.LASF82:
 5386 02b2 6E6F745F 		.ascii	"not_revers_motor_flag\000"
 5386      72657665 
 5386      72735F6D 
 5386      6F746F72 
 5386      5F666C61 
 5387              	.LASF200:
 5388 02c8 706F775F 		.ascii	"pow_tension\000"
 5388      74656E73 
 5388      696F6E00 
 5389              	.LASF51:
ARM GAS  C:\Users\Mattia\AppData\Local\Temp\ccUc3JYZ.s 			page 109


 5390 02d4 72696768 		.ascii	"right_left\000"
 5390      745F6C65 
 5390      667400
 5391              	.LASF45:
 5392 02df 77697265 		.ascii	"wire_disp\000"
 5392      5F646973 
 5392      7000
 5393              	.LASF174:
 5394 02e9 4C45445F 		.ascii	"LED_control\000"
 5394      636F6E74 
 5394      726F6C00 
 5395              	.LASF79:
 5396 02f5 636F6E74 		.ascii	"control_mode\000"
 5396      726F6C5F 
 5396      6D6F6465 
 5396      00
 5397              	.LASF132:
 5398 0302 756E7573 		.ascii	"unused_bytes1\000"
 5398      65645F62 
 5398      79746573 
 5398      3100
 5399              	.LASF185:
 5400 0310 76345F69 		.ascii	"v4_in\000"
 5400      6E00
 5401              	.LASF178:
 5402 0316 62617474 		.ascii	"battery_management\000"
 5402      6572795F 
 5402      6D616E61 
 5402      67656D65 
 5402      6E7400
 5403              	.LASF95:
 5404 0329 656D675F 		.ascii	"emg_calibration_flag\000"
 5404      63616C69 
 5404      62726174 
 5404      696F6E5F 
 5404      666C6167 
 5405              	.LASF147:
 5406 033e 53554D5F 		.ascii	"SUM_AND_MEAN\000"
 5406      414E445F 
 5406      4D45414E 
 5406      00
 5407              	.LASF99:
 5408 034b 5350495F 		.ascii	"SPI_read_delay\000"
 5408      72656164 
 5408      5F64656C 
 5408      617900
 5409              	.LASF144:
 5410 035a 4E4F524D 		.ascii	"NORMAL\000"
 5410      414C00
 5411              	.LASF128:
 5412 0361 66617374 		.ascii	"fast_act_threshold\000"
 5412      5F616374 
 5412      5F746872 
 5412      6573686F 
 5412      6C6400
 5413              	.LASF13:
 5414 0374 75696E74 		.ascii	"uint32\000"
ARM GAS  C:\Users\Mattia\AppData\Local\Temp\ccUc3JYZ.s 			page 110


 5414      333200
 5415              	.LASF130:
 5416 037b 73745F65 		.ascii	"st_eeprom\000"
 5416      6570726F 
 5416      6D00
 5417              	.LASF180:
 5418 0385 68616C66 		.ascii	"halfx\000"
 5418      7800
 5419              	.LASF156:
 5420 038b 6E65775F 		.ascii	"new_value\000"
 5420      76616C75 
 5420      6500
 5421              	.LASF25:
 5422 0395 494E5055 		.ascii	"INPUT_MODE_EMG_PROPORTIONAL\000"
 5422      545F4D4F 
 5422      44455F45 
 5422      4D475F50 
 5422      524F504F 
 5423              	.LASF65:
 5424 03b1 6B5F705F 		.ascii	"k_p_c_dl\000"
 5424      635F646C 
 5424      00
 5425              	.LASF143:
 5426 03ba 72657065 		.ascii	"repetitions\000"
 5426      74697469 
 5426      6F6E7300 
 5427              	.LASF152:
 5428 03c6 6572725F 		.ascii	"err_pos_dt\000"
 5428      706F735F 
 5428      647400
 5429              	.LASF96:
 5430 03d1 73776974 		.ascii	"switch_emg\000"
 5430      63685F65 
 5430      6D6700
 5431              	.LASF29:
 5432 03dc 494E5055 		.ascii	"INPUT_MODE_JOYSTICK\000"
 5432      545F4D4F 
 5432      44455F4A 
 5432      4F595354 
 5432      49434B00 
 5433              	.LASF78:
 5434 03f0 696E7075 		.ascii	"input_mode\000"
 5434      745F6D6F 
 5434      646500
 5435              	.LASF162:
 5436 03fb 706F7332 		.ascii	"pos2\000"
 5436      00
 5437              	.LASF64:
 5438 0400 6B5F645F 		.ascii	"k_d_dl\000"
 5438      646C00
 5439              	.LASF52:
 5440 0407 72657365 		.ascii	"reset_counters\000"
 5440      745F636F 
 5440      756E7465 
 5440      727300
 5441              	.LASF116:
 5442 0416 6A6F7973 		.ascii	"joystick_closure_speed\000"
ARM GAS  C:\Users\Mattia\AppData\Local\Temp\ccUc3JYZ.s 			page 111


 5442      7469636B 
 5442      5F636C6F 
 5442      73757265 
 5442      5F737065 
 5443              	.LASF8:
 5444 042d 756E7369 		.ascii	"unsigned int\000"
 5444      676E6564 
 5444      20696E74 
 5444      00
 5445              	.LASF33:
 5446 043a 73745F72 		.ascii	"st_ref\000"
 5446      656600
 5447              	.LASF89:
 5448 0441 6D6F746F 		.ascii	"motor_handle_ratio\000"
 5448      725F6861 
 5448      6E646C65 
 5448      5F726174 
 5448      696F00
 5449              	.LASF179:
 5450 0454 696E7653 		.ascii	"invSqrt\000"
 5450      71727400 
 5451              	.LASF63:
 5452 045c 6B5F695F 		.ascii	"k_i_dl\000"
 5452      646C00
 5453              	.LASF171:
 5454 0463 63757272 		.ascii	"curr_pos\000"
 5454      5F706F73 
 5454      00
 5455              	.LASF169:
 5456 046c 6162735F 		.ascii	"abs_err_thr\000"
 5456      6572725F 
 5456      74687200 
 5457              	.LASF27:
 5458 0478 494E5055 		.ascii	"INPUT_MODE_EMG_FCFS\000"
 5458      545F4D4F 
 5458      44455F45 
 5458      4D475F46 
 5458      43465300 
 5459              	.LASF216:
 5460 048c 4144435F 		.ascii	"ADC_Set_N_Channels\000"
 5460      5365745F 
 5460      4E5F4368 
 5460      616E6E65 
 5460      6C7300
 5461              	.LASF74:
 5462 049f 6D61785F 		.ascii	"max_step_neg\000"
 5462      73746570 
 5462      5F6E6567 
 5462      00
 5463              	.LASF104:
 5464 04ac 72656164 		.ascii	"read_ADC_sensors_port_flag\000"
 5464      5F414443 
 5464      5F73656E 
 5464      736F7273 
 5464      5F706F72 
 5465              	.LASF107:
 5466 04c7 73745F75 		.ascii	"st_user\000"
ARM GAS  C:\Users\Mattia\AppData\Local\Temp\ccUc3JYZ.s 			page 112


 5466      73657200 
 5467              	.LASF109:
 5468 04cf 75736572 		.ascii	"user_emg\000"
 5468      5F656D67 
 5468      00
 5469              	.LASF199:
 5470 04d8 6465765F 		.ascii	"dev_tension_f\000"
 5470      74656E73 
 5470      696F6E5F 
 5470      6600
 5471              	.LASF3:
 5472 04e6 73686F72 		.ascii	"short unsigned int\000"
 5472      7420756E 
 5472      7369676E 
 5472      65642069 
 5472      6E7400
 5473              	.LASF115:
 5474 04f9 73745F4A 		.ascii	"st_JOY_spec\000"
 5474      4F595F73 
 5474      70656300 
 5475              	.LASF191:
 5476 0505 675F7265 		.ascii	"g_refNew\000"
 5476      664E6577 
 5476      00
 5477              	.LASF14:
 5478 050e 696E7438 		.ascii	"int8\000"
 5478      00
 5479              	.LASF188:
 5480 0513 63757272 		.ascii	"current_counter_value\000"
 5480      656E745F 
 5480      636F756E 
 5480      7465725F 
 5480      76616C75 
 5481              	.LASF215:
 5482 0529 53485F69 		.ascii	"SH_input_mode\000"
 5482      6E707574 
 5482      5F6D6F64 
 5482      6500
 5483              	.LASF204:
 5484 0537 6D61696E 		.ascii	"maintenance_flag\000"
 5484      74656E61 
 5484      6E63655F 
 5484      666C6167 
 5484      00
 5485              	.LASF151:
 5486 0548 76697274 		.ascii	"virtual_pos_friction\000"
 5486      75616C5F 
 5486      706F735F 
 5486      66726963 
 5486      74696F6E 
 5487              	.LASF70:
 5488 055d 6D6F746F 		.ascii	"motor_driver_type\000"
 5488      725F6472 
 5488      69766572 
 5488      5F747970 
 5488      6500
 5489              	.LASF72:
ARM GAS  C:\Users\Mattia\AppData\Local\Temp\ccUc3JYZ.s 			page 113


 5490 056f 706F735F 		.ascii	"pos_lim_inf\000"
 5490      6C696D5F 
 5490      696E6600 
 5491              	.LASF57:
 5492 057b 756E7573 		.ascii	"unused_bytes\000"
 5492      65645F62 
 5492      79746573 
 5492      00
 5493              	.LASF120:
 5494 0588 736C6176 		.ascii	"slave_comm_active\000"
 5494      655F636F 
 5494      6D6D5F61 
 5494      63746976 
 5494      6500
 5495              	.LASF160:
 5496 059a 63616C63 		.ascii	"calc_turns_fcn_SH\000"
 5496      5F747572 
 5496      6E735F66 
 5496      636E5F53 
 5496      4800
 5497              	.LASF24:
 5498 05ac 494E5055 		.ascii	"INPUT_MODE_ENCODER3\000"
 5498      545F4D4F 
 5498      44455F45 
 5498      4E434F44 
 5498      45523300 
 5499              	.LASF42:
 5500 05c0 706F7369 		.ascii	"position_hist\000"
 5500      74696F6E 
 5500      5F686973 
 5500      7400
 5501              	.LASF9:
 5502 05ce 5F5F696E 		.ascii	"__int32_t\000"
 5502      7433325F 
 5502      7400
 5503              	.LASF209:
 5504 05d8 72657374 		.ascii	"rest_pos_curr_ref\000"
 5504      5F706F73 
 5504      5F637572 
 5504      725F7265 
 5504      6600
 5505              	.LASF49:
 5506 05ea 68775F6D 		.ascii	"hw_maint_date\000"
 5506      61696E74 
 5506      5F646174 
 5506      6500
 5507              	.LASF196:
 5508 05f8 63616C69 		.ascii	"calib\000"
 5508      6200
 5509              	.LASF100:
 5510 05fe 494D555F 		.ascii	"IMU_conf\000"
 5510      636F6E66 
 5510      00
 5511              	.LASF108:
 5512 0607 75736572 		.ascii	"user_code_string\000"
 5512      5F636F64 
 5512      655F7374 
ARM GAS  C:\Users\Mattia\AppData\Local\Temp\ccUc3JYZ.s 			page 114


 5512      72696E67 
 5512      00
 5513              	.LASF17:
 5514 0618 666C6F61 		.ascii	"float32\000"
 5514      74333200 
 5515              	.LASF177:
 5516 0620 656E6162 		.ascii	"enable_motor\000"
 5516      6C655F6D 
 5516      6F746F72 
 5516      00
 5517              	.LASF22:
 5518 062d 73697A65 		.ascii	"sizetype\000"
 5518      74797065 
 5518      00
 5519              	.LASF124:
 5520 0636 6D617869 		.ascii	"maximum_pressure_kPa\000"
 5520      6D756D5F 
 5520      70726573 
 5520      73757265 
 5520      5F6B5061 
 5521              	.LASF21:
 5522 064b 6C6F6E67 		.ascii	"long double\000"
 5522      20646F75 
 5522      626C6500 
 5523              	.LASF48:
 5524 0657 73745F64 		.ascii	"st_device\000"
 5524      65766963 
 5524      6500
 5525              	.LASF205:
 5526 0661 72657374 		.ascii	"rest_enabled\000"
 5526      5F656E61 
 5526      626C6564 
 5526      00
 5527              	.LASF158:
 5528 066e 64697669 		.ascii	"divisor\000"
 5528      736F7200 
 5529              	.LASF194:
 5530 0676 675F6D65 		.ascii	"g_mem\000"
 5530      6D00
 5531              	.LASF55:
 5532 067c 75736572 		.ascii	"user_id\000"
 5532      5F696400 
 5533              	.LASF208:
 5534 0684 4E554D5F 		.ascii	"NUM_OF_ANALOG_INPUTS\000"
 5534      4F465F41 
 5534      4E414C4F 
 5534      475F494E 
 5534      50555453 
 5535              	.LASF164:
 5536 0699 63616C69 		.ascii	"calibration\000"
 5536      62726174 
 5536      696F6E00 
 5537              	.LASF59:
 5538 06a5 6B5F705F 		.ascii	"k_p_c\000"
 5538      6300
 5539              	.LASF11:
 5540 06ab 75696E74 		.ascii	"uint8\000"
ARM GAS  C:\Users\Mattia\AppData\Local\Temp\ccUc3JYZ.s 			page 115


 5540      3800
 5541              	.LASF150:
 5542 06b1 6164635F 		.ascii	"adc_status\000"
 5542      73746174 
 5542      757300
 5543              	.LASF126:
 5544 06bc 73745F57 		.ascii	"st_WR_spec\000"
 5544      525F7370 
 5544      656300
 5545              	.LASF32:
 5546 06c7 6F6E6F66 		.ascii	"onoff\000"
 5546      6600
 5547              	.LASF111:
 5548 06cd 72657374 		.ascii	"rest_pos\000"
 5548      5F706F73 
 5548      00
 5549              	.LASF73:
 5550 06d6 706F735F 		.ascii	"pos_lim_sup\000"
 5550      6C696D5F 
 5550      73757000 
 5551              	.LASF186:
 5552 06e2 75706461 		.ascii	"update_EMG_history\000"
 5552      74655F45 
 5552      4D475F68 
 5552      6973746F 
 5552      727900
 5553              	.LASF28:
 5554 06f5 494E5055 		.ascii	"INPUT_MODE_EMG_FCFS_ADV\000"
 5554      545F4D4F 
 5554      44455F45 
 5554      4D475F46 
 5554      4346535F 
 5555              	.LASF43:
 5556 070d 63757272 		.ascii	"current_hist\000"
 5556      656E745F 
 5556      68697374 
 5556      00
 5557              	.LASF102:
 5558 071a 63757272 		.ascii	"curr_time\000"
 5558      5F74696D 
 5558      6500
 5559              	.LASF68:
 5560 0724 61637469 		.ascii	"activ\000"
 5560      7600
 5561              	.LASF93:
 5562 072a 656D675F 		.ascii	"emg_max_value\000"
 5562      6D61785F 
 5562      76616C75 
 5562      6500
 5563              	.LASF167:
 5564 0738 666C6167 		.ascii	"flag_count\000"
 5564      5F636F75 
 5564      6E7400
 5565              	.LASF133:
 5566 0743 6D6F746F 		.ascii	"motor\000"
 5566      7200
 5567              	.LASF161:
ARM GAS  C:\Users\Mattia\AppData\Local\Temp\ccUc3JYZ.s 			page 116


 5568 0749 706F7331 		.ascii	"pos1\000"
 5568      00
 5569              	.LASF88:
 5570 074e 456E635F 		.ascii	"Enc_idx_use_for_control\000"
 5570      6964785F 
 5570      7573655F 
 5570      666F725F 
 5570      636F6E74 
 5571              	.LASF134:
 5572 0766 75736572 		.ascii	"user\000"
 5572      00
 5573              	.LASF145:
 5574 076b 52455345 		.ascii	"RESET\000"
 5574      5400
 5575              	.LASF138:
 5576 0771 6761696E 		.ascii	"gain\000"
 5576      00
 5577              	.LASF10:
 5578 0776 696E7433 		.ascii	"int32_t\000"
 5578      325F7400 
 5579              	.LASF153:
 5580 077e 63757272 		.ascii	"curr_estimate\000"
 5580      5F657374 
 5580      696D6174 
 5580      6500
 5581              	.LASF31:
 5582 078c 63757272 		.ascii	"curr\000"
 5582      00
 5583              	.LASF86:
 5584 0791 6D5F6D75 		.ascii	"m_mult\000"
 5584      6C7400
 5585              	.LASF202:
 5586 0798 656D675F 		.ascii	"emg_2_status\000"
 5586      325F7374 
 5586      61747573 
 5586      00
 5587              	.LASF105:
 5588 07a5 4144435F 		.ascii	"ADC_conf\000"
 5588      636F6E66 
 5588      00
 5589              	.LASF90:
 5590 07ae 67656172 		.ascii	"gears_params\000"
 5590      735F7061 
 5590      72616D73 
 5590      00
 5591              	.LASF136:
 5592 07bb 73745F66 		.ascii	"st_filter\000"
 5592      696C7465 
 5592      7200
 5593              	.LASF83:
 5594 07c5 73745F65 		.ascii	"st_encoder\000"
 5594      6E636F64 
 5594      657200
 5595              	.LASF131:
 5596 07d0 666C6167 		.ascii	"flag\000"
 5596      00
 5597              	.LASF121:
ARM GAS  C:\Users\Mattia\AppData\Local\Temp\ccUc3JYZ.s 			page 117


 5598 07d5 736C6176 		.ascii	"slave_ID\000"
 5598      655F4944 
 5598      00
 5599              	.LASF77:
 5600 07de 63757272 		.ascii	"current_limit\000"
 5600      656E745F 
 5600      6C696D69 
 5600      7400
 5601              	.LASF40:
 5602 07ec 73745F63 		.ascii	"st_counters\000"
 5602      6F756E74 
 5602      65727300 
 5603              	.LASF119:
 5604 07f8 73745F4D 		.ascii	"st_MASTER_spec\000"
 5604      41535445 
 5604      525F7370 
 5604      656300
 5605              	.LASF168:
 5606 0807 66697273 		.ascii	"first_time\000"
 5606      745F7469 
 5606      6D6500
 5607              	.LASF139:
 5608 0812 73745F63 		.ascii	"st_calib\000"
 5608      616C6962 
 5608      00
 5609              	.LASF41:
 5610 081b 656D675F 		.ascii	"emg_counter\000"
 5610      636F756E 
 5610      74657200 
 5611              	.LASF15:
 5612 0827 696E7431 		.ascii	"int16\000"
 5612      3600
 5613              	.LASF71:
 5614 082d 706F735F 		.ascii	"pos_lim_flag\000"
 5614      6C696D5F 
 5614      666C6167 
 5614      00
 5615              	.LASF91:
 5616 083a 73745F65 		.ascii	"st_emg\000"
 5616      6D6700
 5617              	.LASF37:
 5618 0841 73745F61 		.ascii	"st_adc_meas\000"
 5618      64635F6D 
 5618      65617300 
 5619              	.LASF75:
 5620 084d 6D61785F 		.ascii	"max_step_pos\000"
 5620      73746570 
 5620      5F706F73 
 5620      00
 5621              	.LASF140:
 5622 085a 656E6162 		.ascii	"enabled\000"
 5622      6C656400 
 5623              	.LASF44:
 5624 0862 72657374 		.ascii	"rest_counter\000"
 5624      5F636F75 
 5624      6E746572 
 5624      00
ARM GAS  C:\Users\Mattia\AppData\Local\Temp\ccUc3JYZ.s 			page 118


 5625              	.LASF198:
 5626 086f 6465765F 		.ascii	"dev_tension\000"
 5626      74656E73 
 5626      696F6E00 
 5627              	.LASF5:
 5628 087b 6C6F6E67 		.ascii	"long unsigned int\000"
 5628      20756E73 
 5628      69676E65 
 5628      6420696E 
 5628      7400
 5629              	.LASF69:
 5630 088d 61637469 		.ascii	"activate_pwm_rescaling\000"
 5630      76617465 
 5630      5F70776D 
 5630      5F726573 
 5630      63616C69 
 5631              	.LASF20:
 5632 08a4 63686172 		.ascii	"char\000"
 5632      00
 5633              	.LASF192:
 5634 08a9 675F6D65 		.ascii	"g_meas\000"
 5634      617300
 5635              	.LASF175:
 5636 08b0 6D6F6465 		.ascii	"mode\000"
 5636      00
 5637              	.LASF23:
 5638 08b5 494E5055 		.ascii	"INPUT_MODE_EXTERNAL\000"
 5638      545F4D4F 
 5638      44455F45 
 5638      58544552 
 5638      4E414C00 
 5639              	.LASF213:
 5640 08c9 2E2E5C73 		.ascii	"..\\src\\utils.c\000"
 5640      72635C75 
 5640      74696C73 
 5640      2E6300
 5641              	.LASF184:
 5642 08d8 76345F6E 		.ascii	"v4_normalize\000"
 5642      6F726D61 
 5642      6C697A65 
 5642      00
 5643              	.LASF101:
 5644 08e5 73745F65 		.ascii	"st_expansion\000"
 5644      7870616E 
 5644      73696F6E 
 5644      00
 5645              	.LASF38:
 5646 08f2 6164645F 		.ascii	"add_emg\000"
 5646      656D6700 
 5647              	.LASF106:
 5648 08fa 7265636F 		.ascii	"record_EMG_history_on_SD\000"
 5648      72645F45 
 5648      4D475F68 
 5648      6973746F 
 5648      72795F6F 
 5649              	.LASF210:
 5650 0913 656D675F 		.ascii	"emg_history\000"
ARM GAS  C:\Users\Mattia\AppData\Local\Temp\ccUc3JYZ.s 			page 119


 5650      68697374 
 5650      6F727900 
 5651              	.LASF56:
 5652 091f 6465765F 		.ascii	"dev_type\000"
 5652      74797065 
 5652      00
 5653              	.LASF66:
 5654 0928 6B5F695F 		.ascii	"k_i_c_dl\000"
 5654      635F646C 
 5654      00
 5655              	.LASF114:
 5656 0931 72657374 		.ascii	"rest_position_flag\000"
 5656      5F706F73 
 5656      6974696F 
 5656      6E5F666C 
 5656      616700
 5657              	.LASF60:
 5658 0944 6B5F695F 		.ascii	"k_i_c\000"
 5658      6300
 5659              	.LASF1:
 5660 094a 756E7369 		.ascii	"unsigned char\000"
 5660      676E6564 
 5660      20636861 
 5660      7200
 5661              	.LASF84:
 5662 0958 456E635F 		.ascii	"Enc_raw_read_conf\000"
 5662      7261775F 
 5662      72656164 
 5662      5F636F6E 
 5662      6600
 5663              	.LASF146:
 5664 096a 44495343 		.ascii	"DISCARD\000"
 5664      41524400 
 5665              	.LASF58:
 5666 0972 73745F6D 		.ascii	"st_motor\000"
 5666      6F746F72 
 5666      00
 5667              	.LASF112:
 5668 097b 72657374 		.ascii	"rest_delay\000"
 5668      5F64656C 
 5668      617900
 5669              	.LASF155:
 5670 0986 66696C74 		.ascii	"filter\000"
 5670      657200
 5671              	.LASF61:
 5672 098d 6B5F645F 		.ascii	"k_d_c\000"
 5672      6300
 5673              	.LASF187:
 5674 0993 6C617374 		.ascii	"last_counter_value\000"
 5674      5F636F75 
 5674      6E746572 
 5674      5F76616C 
 5674      756500
 5675              	.LASF211:
 5676 09a6 656D675F 		.ascii	"emg_history_next_idx\000"
 5676      68697374 
 5676      6F72795F 
ARM GAS  C:\Users\Mattia\AppData\Local\Temp\ccUc3JYZ.s 			page 120


 5676      6E657874 
 5676      5F696478 
 5677              	.LASF76:
 5678 09bb 63757272 		.ascii	"curr_lookup\000"
 5678      5F6C6F6F 
 5678      6B757000 
 5679              	.LASF98:
 5680 09c7 72656164 		.ascii	"read_imu_flag\000"
 5680      5F696D75 
 5680      5F666C61 
 5680      6700
 5681              	.LASF135:
 5682 09d5 4A4F595F 		.ascii	"JOY_spec\000"
 5682      73706563 
 5682      00
 5683              	.LASF30:
 5684 09de 494E5055 		.ascii	"INPUT_MODE_EMG_PROPORTIONAL_NC\000"
 5684      545F4D4F 
 5684      44455F45 
 5684      4D475F50 
 5684      524F504F 
 5685              	.LASF39:
 5686 09fd 6A6F7973 		.ascii	"joystick\000"
 5686      7469636B 
 5686      00
 5687              	.LASF149:
 5688 0a06 57414954 		.ascii	"WAIT_EoC\000"
 5688      5F456F43 
 5688      00
 5689              	.LASF26:
 5690 0a0f 494E5055 		.ascii	"INPUT_MODE_EMG_INTEGRAL\000"
 5690      545F4D4F 
 5690      44455F45 
 5690      4D475F49 
 5690      4E544547 
 5691              	.LASF94:
 5692 0a27 656D675F 		.ascii	"emg_speed\000"
 5692      73706565 
 5692      6400
 5693              	.LASF165:
 5694 0a31 63686563 		.ascii	"check_rest_position\000"
 5694      6B5F7265 
 5694      73745F70 
 5694      6F736974 
 5694      696F6E00 
 5695              	.LASF67:
 5696 0a45 6B5F645F 		.ascii	"k_d_c_dl\000"
 5696      635F646C 
 5696      00
 5697              	.LASF148:
 5698 0a4e 57414954 		.ascii	"WAIT\000"
 5698      00
 5699              	.LASF181:
 5700 0a53 76335F6E 		.ascii	"v3_normalize\000"
 5700      6F726D61 
 5700      6C697A65 
 5700      00
ARM GAS  C:\Users\Mattia\AppData\Local\Temp\ccUc3JYZ.s 			page 121


 5701              	.LASF18:
 5702 0a60 666C6F61 		.ascii	"float\000"
 5702      7400
 5703              	.LASF103:
 5704 0a66 72656164 		.ascii	"read_exp_port_flag\000"
 5704      5F657870 
 5704      5F706F72 
 5704      745F666C 
 5704      616700
 5705              	.LASF110:
 5706 0a79 73745F53 		.ascii	"st_SH_spec\000"
 5706      485F7370 
 5706      656300
 5707              	.LASF142:
 5708 0a84 73706565 		.ascii	"speed\000"
 5708      6400
 5709              	.LASF173:
 5710 0a8a 72657374 		.ascii	"rest_vel_ticks_ms\000"
 5710      5F76656C 
 5710      5F746963 
 5710      6B735F6D 
 5710      7300
 5711              	.LASF125:
 5712 0a9c 70726F70 		.ascii	"prop_err_fb_gain\000"
 5712      5F657272 
 5712      5F66625F 
 5712      6761696E 
 5712      00
 5713              	.LASF47:
 5714 0aad 746F7461 		.ascii	"total_time_rest\000"
 5714      6C5F7469 
 5714      6D655F72 
 5714      65737400 
 5715              	.LASF193:
 5716 0abd 675F6164 		.ascii	"g_adc_meas\000"
 5716      635F6D65 
 5716      617300
 5717              	.LASF87:
 5718 0ac8 646F7562 		.ascii	"double_encoder_on_off\000"
 5718      6C655F65 
 5718      6E636F64 
 5718      65725F6F 
 5718      6E5F6F66 
 5719              	.LASF201:
 5720 0ade 656D675F 		.ascii	"emg_1_status\000"
 5720      315F7374 
 5720      61747573 
 5720      00
 5721              	.LASF163:
 5722 0aeb 63616C63 		.ascii	"calc_turns_fcn\000"
 5722      5F747572 
 5722      6E735F66 
 5722      636E00
 5723              	.LASF118:
 5724 0afa 6A6F7973 		.ascii	"joystick_gains\000"
 5724      7469636B 
 5724      5F676169 
ARM GAS  C:\Users\Mattia\AppData\Local\Temp\ccUc3JYZ.s 			page 122


 5724      6E7300
 5725              	.LASF50:
 5726 0b09 73746174 		.ascii	"stats_period_begin_date\000"
 5726      735F7065 
 5726      72696F64 
 5726      5F626567 
 5726      696E5F64 
 5727              	.LASF19:
 5728 0b21 646F7562 		.ascii	"double\000"
 5728      6C6500
 5729              	.LASF189:
 5730 0b28 636F756E 		.ascii	"counter_diff\000"
 5730      7465725F 
 5730      64696666 
 5730      00
 5731              	.LASF62:
 5732 0b35 6B5F705F 		.ascii	"k_p_dl\000"
 5732      646C00
 5733              	.LASF81:
 5734 0b3c 70776D5F 		.ascii	"pwm_rate_limiter\000"
 5734      72617465 
 5734      5F6C696D 
 5734      69746572 
 5734      00
 5735              		.ident	"GCC: (GNU Tools for ARM Embedded Processors) 5.4.1 20160609 (release) [ARM/embedded-5-bran
