ARM GAS  C:\Users\Mattia\AppData\Local\Temp\ccFR5PWW.s 			page 1


   1              		.syntax unified
   2              		.cpu cortex-m3
   3              		.fpu softvfp
   4              		.eabi_attribute 20, 1
   5              		.eabi_attribute 21, 1
   6              		.eabi_attribute 23, 3
   7              		.eabi_attribute 24, 1
   8              		.eabi_attribute 25, 1
   9              		.eabi_attribute 26, 1
  10              		.eabi_attribute 30, 2
  11              		.eabi_attribute 34, 1
  12              		.eabi_attribute 18, 4
  13              		.thumb
  14              		.syntax unified
  15              		.file	"cyfitter_cfg.c"
  16              		.text
  17              	.Ltext0:
  18              		.cfi_sections	.debug_frame
  19              		.section	.text.SetAnalogRoutingPumps,"ax",%progbits
  20              		.align	2
  21              		.global	SetAnalogRoutingPumps
  22              		.thumb
  23              		.thumb_func
  24              		.type	SetAnalogRoutingPumps, %function
  25              	SetAnalogRoutingPumps:
  26              	.LFB7:
  27              		.file 1 "Generated_Source\\PSoC5\\cyfitter_cfg.c"
   1:Generated_Source\PSoC5/cyfitter_cfg.c **** 
   2:Generated_Source\PSoC5/cyfitter_cfg.c **** /*******************************************************************************
   3:Generated_Source\PSoC5/cyfitter_cfg.c **** * File Name: cyfitter_cfg.c
   4:Generated_Source\PSoC5/cyfitter_cfg.c **** * 
   5:Generated_Source\PSoC5/cyfitter_cfg.c **** * PSoC Creator  4.4
   6:Generated_Source\PSoC5/cyfitter_cfg.c **** *
   7:Generated_Source\PSoC5/cyfitter_cfg.c **** * Description:
   8:Generated_Source\PSoC5/cyfitter_cfg.c **** * This file contains device initialization code.
   9:Generated_Source\PSoC5/cyfitter_cfg.c **** * Except for the user defined sections in CyClockStartupError(), this file should not be modified.
  10:Generated_Source\PSoC5/cyfitter_cfg.c **** * This file is automatically generated by PSoC Creator.
  11:Generated_Source\PSoC5/cyfitter_cfg.c **** *
  12:Generated_Source\PSoC5/cyfitter_cfg.c **** ********************************************************************************
  13:Generated_Source\PSoC5/cyfitter_cfg.c **** * Copyright (c) 2007-2020 Cypress Semiconductor.  All rights reserved.
  14:Generated_Source\PSoC5/cyfitter_cfg.c **** * You may use this file only in accordance with the license, terms, conditions, 
  15:Generated_Source\PSoC5/cyfitter_cfg.c **** * disclaimers, and limitations in the end user license agreement accompanying 
  16:Generated_Source\PSoC5/cyfitter_cfg.c **** * the software package with which this file was provided.
  17:Generated_Source\PSoC5/cyfitter_cfg.c **** ********************************************************************************/
  18:Generated_Source\PSoC5/cyfitter_cfg.c **** 
  19:Generated_Source\PSoC5/cyfitter_cfg.c **** #include <string.h>
  20:Generated_Source\PSoC5/cyfitter_cfg.c **** #include "cytypes.h"
  21:Generated_Source\PSoC5/cyfitter_cfg.c **** #include "cydevice_trm.h"
  22:Generated_Source\PSoC5/cyfitter_cfg.c **** #include "cyfitter.h"
  23:Generated_Source\PSoC5/cyfitter_cfg.c **** #include "CyLib.h"
  24:Generated_Source\PSoC5/cyfitter_cfg.c **** #include "cyfitter_cfg.h"
  25:Generated_Source\PSoC5/cyfitter_cfg.c **** #include "cyapicallbacks.h"
  26:Generated_Source\PSoC5/cyfitter_cfg.c **** 
  27:Generated_Source\PSoC5/cyfitter_cfg.c **** #define CY_NEED_CYCLOCKSTARTUPERROR 1
  28:Generated_Source\PSoC5/cyfitter_cfg.c **** 
  29:Generated_Source\PSoC5/cyfitter_cfg.c **** 
  30:Generated_Source\PSoC5/cyfitter_cfg.c **** #if defined(__GNUC__) || defined(__ARMCC_VERSION)
ARM GAS  C:\Users\Mattia\AppData\Local\Temp\ccFR5PWW.s 			page 2


  31:Generated_Source\PSoC5/cyfitter_cfg.c ****     #define CYPACKED 
  32:Generated_Source\PSoC5/cyfitter_cfg.c ****     #define CYPACKED_ATTR __attribute__ ((packed))
  33:Generated_Source\PSoC5/cyfitter_cfg.c ****     #define CYALIGNED __attribute__ ((aligned))
  34:Generated_Source\PSoC5/cyfitter_cfg.c ****     #define CY_CFG_UNUSED __attribute__ ((unused))
  35:Generated_Source\PSoC5/cyfitter_cfg.c ****     #ifndef CY_CFG_SECTION
  36:Generated_Source\PSoC5/cyfitter_cfg.c ****         #define CY_CFG_SECTION __attribute__ ((section(".psocinit")))
  37:Generated_Source\PSoC5/cyfitter_cfg.c ****     #endif
  38:Generated_Source\PSoC5/cyfitter_cfg.c ****     
  39:Generated_Source\PSoC5/cyfitter_cfg.c ****     #if defined(__ARMCC_VERSION)
  40:Generated_Source\PSoC5/cyfitter_cfg.c ****         #define CY_CFG_MEMORY_BARRIER() __memory_changed()
  41:Generated_Source\PSoC5/cyfitter_cfg.c ****     #else
  42:Generated_Source\PSoC5/cyfitter_cfg.c ****         #define CY_CFG_MEMORY_BARRIER() __sync_synchronize()
  43:Generated_Source\PSoC5/cyfitter_cfg.c ****     #endif
  44:Generated_Source\PSoC5/cyfitter_cfg.c ****     
  45:Generated_Source\PSoC5/cyfitter_cfg.c **** #elif defined(__ICCARM__)
  46:Generated_Source\PSoC5/cyfitter_cfg.c ****     #include <intrinsics.h>
  47:Generated_Source\PSoC5/cyfitter_cfg.c **** 
  48:Generated_Source\PSoC5/cyfitter_cfg.c ****     #define CYPACKED __packed
  49:Generated_Source\PSoC5/cyfitter_cfg.c ****     #define CYPACKED_ATTR 
  50:Generated_Source\PSoC5/cyfitter_cfg.c ****     #define CYALIGNED _Pragma("data_alignment=4")
  51:Generated_Source\PSoC5/cyfitter_cfg.c ****     #define CY_CFG_UNUSED _Pragma("diag_suppress=Pe177")
  52:Generated_Source\PSoC5/cyfitter_cfg.c ****     #define CY_CFG_SECTION _Pragma("location=\".psocinit\"")
  53:Generated_Source\PSoC5/cyfitter_cfg.c ****     
  54:Generated_Source\PSoC5/cyfitter_cfg.c ****     #define CY_CFG_MEMORY_BARRIER() __DMB()
  55:Generated_Source\PSoC5/cyfitter_cfg.c ****     
  56:Generated_Source\PSoC5/cyfitter_cfg.c **** #else
  57:Generated_Source\PSoC5/cyfitter_cfg.c ****     #error Unsupported toolchain
  58:Generated_Source\PSoC5/cyfitter_cfg.c **** #endif
  59:Generated_Source\PSoC5/cyfitter_cfg.c **** 
  60:Generated_Source\PSoC5/cyfitter_cfg.c **** #ifndef CYCODE
  61:Generated_Source\PSoC5/cyfitter_cfg.c ****     #define CYCODE
  62:Generated_Source\PSoC5/cyfitter_cfg.c **** #endif
  63:Generated_Source\PSoC5/cyfitter_cfg.c **** #ifndef CYDATA
  64:Generated_Source\PSoC5/cyfitter_cfg.c ****     #define CYDATA
  65:Generated_Source\PSoC5/cyfitter_cfg.c **** #endif
  66:Generated_Source\PSoC5/cyfitter_cfg.c **** #ifndef CYFAR
  67:Generated_Source\PSoC5/cyfitter_cfg.c ****     #define CYFAR
  68:Generated_Source\PSoC5/cyfitter_cfg.c **** #endif
  69:Generated_Source\PSoC5/cyfitter_cfg.c **** #ifndef CYXDATA
  70:Generated_Source\PSoC5/cyfitter_cfg.c ****     #define CYXDATA
  71:Generated_Source\PSoC5/cyfitter_cfg.c **** #endif
  72:Generated_Source\PSoC5/cyfitter_cfg.c **** 
  73:Generated_Source\PSoC5/cyfitter_cfg.c **** 
  74:Generated_Source\PSoC5/cyfitter_cfg.c **** CY_CFG_UNUSED
  75:Generated_Source\PSoC5/cyfitter_cfg.c **** static void CYMEMZERO(void *s, size_t n);
  76:Generated_Source\PSoC5/cyfitter_cfg.c **** CY_CFG_UNUSED
  77:Generated_Source\PSoC5/cyfitter_cfg.c **** static void CYMEMZERO(void *s, size_t n)
  78:Generated_Source\PSoC5/cyfitter_cfg.c **** {
  79:Generated_Source\PSoC5/cyfitter_cfg.c **** 	(void)memset(s, 0, n);
  80:Generated_Source\PSoC5/cyfitter_cfg.c **** }
  81:Generated_Source\PSoC5/cyfitter_cfg.c **** CY_CFG_UNUSED
  82:Generated_Source\PSoC5/cyfitter_cfg.c **** static void CYCONFIGCPY(void *dest, const void *src, size_t n);
  83:Generated_Source\PSoC5/cyfitter_cfg.c **** CY_CFG_UNUSED
  84:Generated_Source\PSoC5/cyfitter_cfg.c **** static void CYCONFIGCPY(void *dest, const void *src, size_t n)
  85:Generated_Source\PSoC5/cyfitter_cfg.c **** {
  86:Generated_Source\PSoC5/cyfitter_cfg.c **** 	(void)memcpy(dest, src, n);
  87:Generated_Source\PSoC5/cyfitter_cfg.c **** }
ARM GAS  C:\Users\Mattia\AppData\Local\Temp\ccFR5PWW.s 			page 3


  88:Generated_Source\PSoC5/cyfitter_cfg.c **** CY_CFG_UNUSED
  89:Generated_Source\PSoC5/cyfitter_cfg.c **** static void CYCONFIGCPYCODE(void *dest, const void *src, size_t n);
  90:Generated_Source\PSoC5/cyfitter_cfg.c **** CY_CFG_UNUSED
  91:Generated_Source\PSoC5/cyfitter_cfg.c **** static void CYCONFIGCPYCODE(void *dest, const void *src, size_t n)
  92:Generated_Source\PSoC5/cyfitter_cfg.c **** {
  93:Generated_Source\PSoC5/cyfitter_cfg.c **** 	(void)memcpy(dest, src, n);
  94:Generated_Source\PSoC5/cyfitter_cfg.c **** }
  95:Generated_Source\PSoC5/cyfitter_cfg.c **** 
  96:Generated_Source\PSoC5/cyfitter_cfg.c **** 
  97:Generated_Source\PSoC5/cyfitter_cfg.c **** 
  98:Generated_Source\PSoC5/cyfitter_cfg.c **** 
  99:Generated_Source\PSoC5/cyfitter_cfg.c **** /* Clock startup error codes                                                   */
 100:Generated_Source\PSoC5/cyfitter_cfg.c **** #define CYCLOCKSTART_NO_ERROR    0u
 101:Generated_Source\PSoC5/cyfitter_cfg.c **** #define CYCLOCKSTART_XTAL_ERROR  1u
 102:Generated_Source\PSoC5/cyfitter_cfg.c **** #define CYCLOCKSTART_32KHZ_ERROR 2u
 103:Generated_Source\PSoC5/cyfitter_cfg.c **** #define CYCLOCKSTART_PLL_ERROR   3u
 104:Generated_Source\PSoC5/cyfitter_cfg.c **** #define CYCLOCKSTART_FLL_ERROR   4u
 105:Generated_Source\PSoC5/cyfitter_cfg.c **** #define CYCLOCKSTART_WCO_ERROR   5u
 106:Generated_Source\PSoC5/cyfitter_cfg.c **** 
 107:Generated_Source\PSoC5/cyfitter_cfg.c **** 
 108:Generated_Source\PSoC5/cyfitter_cfg.c **** #ifdef CY_NEED_CYCLOCKSTARTUPERROR
 109:Generated_Source\PSoC5/cyfitter_cfg.c **** /*******************************************************************************
 110:Generated_Source\PSoC5/cyfitter_cfg.c **** * Function Name: CyClockStartupError
 111:Generated_Source\PSoC5/cyfitter_cfg.c **** ********************************************************************************
 112:Generated_Source\PSoC5/cyfitter_cfg.c **** * Summary:
 113:Generated_Source\PSoC5/cyfitter_cfg.c **** *  If an error is encountered during clock configuration (crystal startup error,
 114:Generated_Source\PSoC5/cyfitter_cfg.c **** *  PLL lock error, etc.), the system will end up here.  Unless reimplemented by
 115:Generated_Source\PSoC5/cyfitter_cfg.c **** *  the customer, this function will stop in an infinite loop.
 116:Generated_Source\PSoC5/cyfitter_cfg.c **** *
 117:Generated_Source\PSoC5/cyfitter_cfg.c **** * Parameters:
 118:Generated_Source\PSoC5/cyfitter_cfg.c **** *   void
 119:Generated_Source\PSoC5/cyfitter_cfg.c **** *
 120:Generated_Source\PSoC5/cyfitter_cfg.c **** * Return:
 121:Generated_Source\PSoC5/cyfitter_cfg.c **** *   void
 122:Generated_Source\PSoC5/cyfitter_cfg.c **** *
 123:Generated_Source\PSoC5/cyfitter_cfg.c **** *******************************************************************************/
 124:Generated_Source\PSoC5/cyfitter_cfg.c **** CY_CFG_UNUSED
 125:Generated_Source\PSoC5/cyfitter_cfg.c **** static void CyClockStartupError(uint8 errorCode);
 126:Generated_Source\PSoC5/cyfitter_cfg.c **** CY_CFG_UNUSED
 127:Generated_Source\PSoC5/cyfitter_cfg.c **** static void CyClockStartupError(uint8 errorCode)
 128:Generated_Source\PSoC5/cyfitter_cfg.c **** {
 129:Generated_Source\PSoC5/cyfitter_cfg.c ****     /* To remove the compiler warning if errorCode not used.                */
 130:Generated_Source\PSoC5/cyfitter_cfg.c ****     errorCode = errorCode;
 131:Generated_Source\PSoC5/cyfitter_cfg.c **** 
 132:Generated_Source\PSoC5/cyfitter_cfg.c ****     /* If we have a clock startup error (bad MHz crystal, PLL lock, etc.),  */
 133:Generated_Source\PSoC5/cyfitter_cfg.c ****     /* we will end up here to allow the customer to implement something to  */
 134:Generated_Source\PSoC5/cyfitter_cfg.c ****     /* deal with the clock condition.                                       */
 135:Generated_Source\PSoC5/cyfitter_cfg.c **** 
 136:Generated_Source\PSoC5/cyfitter_cfg.c **** #ifdef CY_CFG_CLOCK_STARTUP_ERROR_CALLBACK
 137:Generated_Source\PSoC5/cyfitter_cfg.c ****     CY_CFG_Clock_Startup_ErrorCallback();
 138:Generated_Source\PSoC5/cyfitter_cfg.c **** #else
 139:Generated_Source\PSoC5/cyfitter_cfg.c ****     /*  If not using CY_CFG_CLOCK_STARTUP_ERROR_CALLBACK, place your clock startup code here. */
 140:Generated_Source\PSoC5/cyfitter_cfg.c ****     /* `#START CyClockStartupError` */
 141:Generated_Source\PSoC5/cyfitter_cfg.c **** 
 142:Generated_Source\PSoC5/cyfitter_cfg.c **** 
 143:Generated_Source\PSoC5/cyfitter_cfg.c **** 
 144:Generated_Source\PSoC5/cyfitter_cfg.c ****     /* `#END` */
ARM GAS  C:\Users\Mattia\AppData\Local\Temp\ccFR5PWW.s 			page 4


 145:Generated_Source\PSoC5/cyfitter_cfg.c **** 
 146:Generated_Source\PSoC5/cyfitter_cfg.c ****     while(1) {}
 147:Generated_Source\PSoC5/cyfitter_cfg.c **** #endif /* CY_CFG_CLOCK_STARTUP_ERROR_CALLBACK */
 148:Generated_Source\PSoC5/cyfitter_cfg.c **** }
 149:Generated_Source\PSoC5/cyfitter_cfg.c **** #endif
 150:Generated_Source\PSoC5/cyfitter_cfg.c **** 
 151:Generated_Source\PSoC5/cyfitter_cfg.c **** #define CY_CFG_BASE_ADDR_COUNT 24u
 152:Generated_Source\PSoC5/cyfitter_cfg.c **** CYPACKED typedef struct
 153:Generated_Source\PSoC5/cyfitter_cfg.c **** {
 154:Generated_Source\PSoC5/cyfitter_cfg.c **** 	uint8 offset;
 155:Generated_Source\PSoC5/cyfitter_cfg.c **** 	uint8 value;
 156:Generated_Source\PSoC5/cyfitter_cfg.c **** } CYPACKED_ATTR cy_cfg_addrvalue_t;
 157:Generated_Source\PSoC5/cyfitter_cfg.c **** 
 158:Generated_Source\PSoC5/cyfitter_cfg.c **** 
 159:Generated_Source\PSoC5/cyfitter_cfg.c **** 
 160:Generated_Source\PSoC5/cyfitter_cfg.c **** /*******************************************************************************
 161:Generated_Source\PSoC5/cyfitter_cfg.c **** * Function Name: cfg_write_bytes32
 162:Generated_Source\PSoC5/cyfitter_cfg.c **** ********************************************************************************
 163:Generated_Source\PSoC5/cyfitter_cfg.c **** * Summary:
 164:Generated_Source\PSoC5/cyfitter_cfg.c **** *  This function is used for setting up the chip configuration areas that
 165:Generated_Source\PSoC5/cyfitter_cfg.c **** *  contain relatively sparse data.
 166:Generated_Source\PSoC5/cyfitter_cfg.c **** *
 167:Generated_Source\PSoC5/cyfitter_cfg.c **** * Parameters:
 168:Generated_Source\PSoC5/cyfitter_cfg.c **** *   void
 169:Generated_Source\PSoC5/cyfitter_cfg.c **** *
 170:Generated_Source\PSoC5/cyfitter_cfg.c **** * Return:
 171:Generated_Source\PSoC5/cyfitter_cfg.c **** *   void
 172:Generated_Source\PSoC5/cyfitter_cfg.c **** *
 173:Generated_Source\PSoC5/cyfitter_cfg.c **** *******************************************************************************/
 174:Generated_Source\PSoC5/cyfitter_cfg.c **** static void cfg_write_bytes32(const uint32 addr_table[], const cy_cfg_addrvalue_t data_table[]);
 175:Generated_Source\PSoC5/cyfitter_cfg.c **** static void cfg_write_bytes32(const uint32 addr_table[], const cy_cfg_addrvalue_t data_table[])
 176:Generated_Source\PSoC5/cyfitter_cfg.c **** {
 177:Generated_Source\PSoC5/cyfitter_cfg.c **** 	/* For 32-bit little-endian architectures */
 178:Generated_Source\PSoC5/cyfitter_cfg.c **** 	uint32 i, j = 0u;
 179:Generated_Source\PSoC5/cyfitter_cfg.c **** 	for (i = 0u; i < CY_CFG_BASE_ADDR_COUNT; i++)
 180:Generated_Source\PSoC5/cyfitter_cfg.c **** 	{
 181:Generated_Source\PSoC5/cyfitter_cfg.c **** 		uint32 baseAddr = addr_table[i];
 182:Generated_Source\PSoC5/cyfitter_cfg.c **** 		uint8 count = (uint8)baseAddr;
 183:Generated_Source\PSoC5/cyfitter_cfg.c **** 		baseAddr &= 0xFFFFFF00u;
 184:Generated_Source\PSoC5/cyfitter_cfg.c **** 		while (count != 0u)
 185:Generated_Source\PSoC5/cyfitter_cfg.c **** 		{
 186:Generated_Source\PSoC5/cyfitter_cfg.c **** 			CY_SET_REG8((void *)(baseAddr + data_table[j].offset), data_table[j].value);
 187:Generated_Source\PSoC5/cyfitter_cfg.c **** 			j++;
 188:Generated_Source\PSoC5/cyfitter_cfg.c **** 			count--;
 189:Generated_Source\PSoC5/cyfitter_cfg.c **** 		}
 190:Generated_Source\PSoC5/cyfitter_cfg.c **** 	}
 191:Generated_Source\PSoC5/cyfitter_cfg.c **** }
 192:Generated_Source\PSoC5/cyfitter_cfg.c **** 
 193:Generated_Source\PSoC5/cyfitter_cfg.c **** /*******************************************************************************
 194:Generated_Source\PSoC5/cyfitter_cfg.c **** * Function Name: ClockSetup
 195:Generated_Source\PSoC5/cyfitter_cfg.c **** ********************************************************************************
 196:Generated_Source\PSoC5/cyfitter_cfg.c **** *
 197:Generated_Source\PSoC5/cyfitter_cfg.c **** * Summary:
 198:Generated_Source\PSoC5/cyfitter_cfg.c **** *  Performs the initialization of all of the clocks in the device based on the
 199:Generated_Source\PSoC5/cyfitter_cfg.c **** *  settings in the Clock tab of the DWR.  This includes enabling the requested
 200:Generated_Source\PSoC5/cyfitter_cfg.c **** *  clocks and setting the necessary dividers to produce the desired frequency. 
 201:Generated_Source\PSoC5/cyfitter_cfg.c **** *
ARM GAS  C:\Users\Mattia\AppData\Local\Temp\ccFR5PWW.s 			page 5


 202:Generated_Source\PSoC5/cyfitter_cfg.c **** * Parameters:
 203:Generated_Source\PSoC5/cyfitter_cfg.c **** *  void
 204:Generated_Source\PSoC5/cyfitter_cfg.c **** *
 205:Generated_Source\PSoC5/cyfitter_cfg.c **** * Return:
 206:Generated_Source\PSoC5/cyfitter_cfg.c **** *  void
 207:Generated_Source\PSoC5/cyfitter_cfg.c **** *
 208:Generated_Source\PSoC5/cyfitter_cfg.c **** *******************************************************************************/
 209:Generated_Source\PSoC5/cyfitter_cfg.c **** static void ClockSetup(void);
 210:Generated_Source\PSoC5/cyfitter_cfg.c **** static void ClockSetup(void)
 211:Generated_Source\PSoC5/cyfitter_cfg.c **** {
 212:Generated_Source\PSoC5/cyfitter_cfg.c **** 	uint32 timeout;
 213:Generated_Source\PSoC5/cyfitter_cfg.c **** 	uint8 pllLock;
 214:Generated_Source\PSoC5/cyfitter_cfg.c **** 
 215:Generated_Source\PSoC5/cyfitter_cfg.c **** 
 216:Generated_Source\PSoC5/cyfitter_cfg.c **** 	/* Configure Digital Clocks based on settings from Clock DWR */
 217:Generated_Source\PSoC5/cyfitter_cfg.c **** 	CY_SET_XTND_REG16((void CYFAR *)(CYREG_CLKDIST_DCFG0_CFG0), 0x0033u);
 218:Generated_Source\PSoC5/cyfitter_cfg.c **** 	CY_SET_XTND_REG8((void CYFAR *)(CYREG_CLKDIST_DCFG0_CFG0 + 0x2u), 0x18u);
 219:Generated_Source\PSoC5/cyfitter_cfg.c **** 
 220:Generated_Source\PSoC5/cyfitter_cfg.c **** 	/* Configure ILO based on settings from Clock DWR */
 221:Generated_Source\PSoC5/cyfitter_cfg.c **** 	CY_SET_XTND_REG8((void CYFAR *)(CYREG_SLOWCLK_ILO_CR0), 0x02u);
 222:Generated_Source\PSoC5/cyfitter_cfg.c **** 	CY_SET_XTND_REG8((void CYFAR *)(CYREG_CLKDIST_CR), 0x08u);
 223:Generated_Source\PSoC5/cyfitter_cfg.c **** 
 224:Generated_Source\PSoC5/cyfitter_cfg.c **** 	/* Configure IMO based on settings from Clock DWR */
 225:Generated_Source\PSoC5/cyfitter_cfg.c **** 	CY_SET_XTND_REG8((void CYFAR *)(CYREG_FASTCLK_IMO_CR), 0x03u);
 226:Generated_Source\PSoC5/cyfitter_cfg.c **** 	CY_SET_XTND_REG8((void CYFAR *)(CYREG_IMO_TR1), (CY_GET_XTND_REG8((void CYFAR *)CYREG_FLSHID_CUST_
 227:Generated_Source\PSoC5/cyfitter_cfg.c **** 
 228:Generated_Source\PSoC5/cyfitter_cfg.c **** 	/* Configure PLL based on settings from Clock DWR */
 229:Generated_Source\PSoC5/cyfitter_cfg.c **** 	CY_SET_XTND_REG16((void CYFAR *)(CYREG_FASTCLK_PLL_P), 0x0008u);
 230:Generated_Source\PSoC5/cyfitter_cfg.c **** 	CY_SET_XTND_REG16((void CYFAR *)(CYREG_FASTCLK_PLL_CFG0), 0x1251u);
 231:Generated_Source\PSoC5/cyfitter_cfg.c **** 	/* Wait up to 250us for the PLL to lock */
 232:Generated_Source\PSoC5/cyfitter_cfg.c **** 	pllLock = 0u;
 233:Generated_Source\PSoC5/cyfitter_cfg.c **** 	for (timeout = 250u / 10u; (timeout > 0u) && (pllLock != 0x03u); timeout--)
 234:Generated_Source\PSoC5/cyfitter_cfg.c **** 	{ 
 235:Generated_Source\PSoC5/cyfitter_cfg.c **** 		pllLock = 0x03u & ((uint8)((uint8)pllLock << 1) | ((CY_GET_XTND_REG8((void CYFAR *)CYREG_FASTCLK_
 236:Generated_Source\PSoC5/cyfitter_cfg.c **** 		CyDelayCycles(10u * 48u); /* Delay 10us based on 48MHz clock */
 237:Generated_Source\PSoC5/cyfitter_cfg.c **** 	}
 238:Generated_Source\PSoC5/cyfitter_cfg.c **** 	/* If we ran out of time the PLL didn't lock so go to the error function */
 239:Generated_Source\PSoC5/cyfitter_cfg.c **** 	if (timeout == 0u)
 240:Generated_Source\PSoC5/cyfitter_cfg.c **** 	{
 241:Generated_Source\PSoC5/cyfitter_cfg.c **** 		CyClockStartupError(CYCLOCKSTART_PLL_ERROR);
 242:Generated_Source\PSoC5/cyfitter_cfg.c **** 	}
 243:Generated_Source\PSoC5/cyfitter_cfg.c **** 
 244:Generated_Source\PSoC5/cyfitter_cfg.c **** 	/* Configure Bus/Master Clock based on settings from Clock DWR */
 245:Generated_Source\PSoC5/cyfitter_cfg.c **** 	CY_SET_XTND_REG16((void CYFAR *)(CYREG_CLKDIST_MSTR0), 0x0100u);
 246:Generated_Source\PSoC5/cyfitter_cfg.c **** 	CY_SET_XTND_REG8((void CYFAR *)(CYREG_CLKDIST_MSTR0), 0x07u);
 247:Generated_Source\PSoC5/cyfitter_cfg.c **** 	CY_SET_XTND_REG8((void CYFAR *)(CYREG_CLKDIST_BCFG0), 0x00u);
 248:Generated_Source\PSoC5/cyfitter_cfg.c **** 	CY_SET_XTND_REG8((void CYFAR *)(CYREG_CLKDIST_BCFG2), 0x48u);
 249:Generated_Source\PSoC5/cyfitter_cfg.c **** 	CY_SET_XTND_REG8((void CYFAR *)(CYREG_CLKDIST_MSTR0), 0x00u);
 250:Generated_Source\PSoC5/cyfitter_cfg.c **** 	CY_SET_XTND_REG8((void CYFAR *)(CYREG_CLKDIST_LD), 0x02u);
 251:Generated_Source\PSoC5/cyfitter_cfg.c **** 
 252:Generated_Source\PSoC5/cyfitter_cfg.c **** 	CY_SET_XTND_REG8((void CYFAR *)(CYREG_PM_ACT_CFG2), ((CY_GET_XTND_REG8((void CYFAR *)CYREG_PM_ACT_
 253:Generated_Source\PSoC5/cyfitter_cfg.c **** }
 254:Generated_Source\PSoC5/cyfitter_cfg.c **** 
 255:Generated_Source\PSoC5/cyfitter_cfg.c **** 
 256:Generated_Source\PSoC5/cyfitter_cfg.c **** /* Analog API Functions */
 257:Generated_Source\PSoC5/cyfitter_cfg.c **** 
 258:Generated_Source\PSoC5/cyfitter_cfg.c **** 
ARM GAS  C:\Users\Mattia\AppData\Local\Temp\ccFR5PWW.s 			page 6


 259:Generated_Source\PSoC5/cyfitter_cfg.c **** /*******************************************************************************
 260:Generated_Source\PSoC5/cyfitter_cfg.c **** * Function Name: AnalogSetDefault
 261:Generated_Source\PSoC5/cyfitter_cfg.c **** ********************************************************************************
 262:Generated_Source\PSoC5/cyfitter_cfg.c **** *
 263:Generated_Source\PSoC5/cyfitter_cfg.c **** * Summary:
 264:Generated_Source\PSoC5/cyfitter_cfg.c **** *  Sets up the analog portions of the chip to default values based on chip
 265:Generated_Source\PSoC5/cyfitter_cfg.c **** *  configuration options from the project.
 266:Generated_Source\PSoC5/cyfitter_cfg.c **** *
 267:Generated_Source\PSoC5/cyfitter_cfg.c **** * Parameters:
 268:Generated_Source\PSoC5/cyfitter_cfg.c **** *  void
 269:Generated_Source\PSoC5/cyfitter_cfg.c **** *
 270:Generated_Source\PSoC5/cyfitter_cfg.c **** * Return:
 271:Generated_Source\PSoC5/cyfitter_cfg.c **** *  void
 272:Generated_Source\PSoC5/cyfitter_cfg.c **** *
 273:Generated_Source\PSoC5/cyfitter_cfg.c **** *******************************************************************************/
 274:Generated_Source\PSoC5/cyfitter_cfg.c **** static void AnalogSetDefault(void);
 275:Generated_Source\PSoC5/cyfitter_cfg.c **** static void AnalogSetDefault(void)
 276:Generated_Source\PSoC5/cyfitter_cfg.c **** {
 277:Generated_Source\PSoC5/cyfitter_cfg.c **** 	uint8 bg_xover_inl_trim = CY_GET_XTND_REG8((void CYFAR *)(CYREG_FLSHID_MFG_CFG_BG_XOVER_INL_TRIM +
 278:Generated_Source\PSoC5/cyfitter_cfg.c **** 	CY_SET_XTND_REG8((void CYFAR *)(CYREG_BG_DFT0), (bg_xover_inl_trim & 0x07u));
 279:Generated_Source\PSoC5/cyfitter_cfg.c **** 	CY_SET_XTND_REG8((void CYFAR *)(CYREG_BG_DFT1), ((bg_xover_inl_trim >> 4) & 0x0Fu));
 280:Generated_Source\PSoC5/cyfitter_cfg.c **** 	CY_SET_XTND_REG8((void CYFAR *)CYREG_PUMP_CR0, 0x44u);
 281:Generated_Source\PSoC5/cyfitter_cfg.c **** }
 282:Generated_Source\PSoC5/cyfitter_cfg.c **** 
 283:Generated_Source\PSoC5/cyfitter_cfg.c **** 
 284:Generated_Source\PSoC5/cyfitter_cfg.c **** /*******************************************************************************
 285:Generated_Source\PSoC5/cyfitter_cfg.c **** * Function Name: SetAnalogRoutingPumps
 286:Generated_Source\PSoC5/cyfitter_cfg.c **** ********************************************************************************
 287:Generated_Source\PSoC5/cyfitter_cfg.c **** *
 288:Generated_Source\PSoC5/cyfitter_cfg.c **** * Summary:
 289:Generated_Source\PSoC5/cyfitter_cfg.c **** * Enables or disables the analog pumps feeding analog routing switches.
 290:Generated_Source\PSoC5/cyfitter_cfg.c **** * Intended to be called at startup, based on the Vdda system configuration;
 291:Generated_Source\PSoC5/cyfitter_cfg.c **** * may be called during operation when the user informs us that the Vdda voltage
 292:Generated_Source\PSoC5/cyfitter_cfg.c **** * crossed the pump threshold.
 293:Generated_Source\PSoC5/cyfitter_cfg.c **** *
 294:Generated_Source\PSoC5/cyfitter_cfg.c **** * Parameters:
 295:Generated_Source\PSoC5/cyfitter_cfg.c **** *  enabled - 1 to enable the pumps, 0 to disable the pumps
 296:Generated_Source\PSoC5/cyfitter_cfg.c **** *
 297:Generated_Source\PSoC5/cyfitter_cfg.c **** * Return:
 298:Generated_Source\PSoC5/cyfitter_cfg.c **** *  void
 299:Generated_Source\PSoC5/cyfitter_cfg.c **** *
 300:Generated_Source\PSoC5/cyfitter_cfg.c **** *******************************************************************************/
 301:Generated_Source\PSoC5/cyfitter_cfg.c **** void SetAnalogRoutingPumps(uint8 enabled)
 302:Generated_Source\PSoC5/cyfitter_cfg.c **** {
  28              		.loc 1 302 0
  29              		.cfi_startproc
  30              		@ args = 0, pretend = 0, frame = 0
  31              		@ frame_needed = 0, uses_anonymous_args = 0
  32              		@ link register save eliminated.
  33              	.LVL0:
 303:Generated_Source\PSoC5/cyfitter_cfg.c **** 	uint8 regValue = CY_GET_XTND_REG8((void CYFAR *)CYREG_PUMP_CR0);
  34              		.loc 1 303 0
  35 0000 024A     		ldr	r2, .L2
  36 0002 1378     		ldrb	r3, [r2]	@ zero_extendqisi2
  37 0004 DBB2     		uxtb	r3, r3
  38              	.LVL1:
 304:Generated_Source\PSoC5/cyfitter_cfg.c **** 	if (enabled != 0u)
ARM GAS  C:\Users\Mattia\AppData\Local\Temp\ccFR5PWW.s 			page 7


 305:Generated_Source\PSoC5/cyfitter_cfg.c **** 	{
 306:Generated_Source\PSoC5/cyfitter_cfg.c **** 		regValue |= 0x00u;
 307:Generated_Source\PSoC5/cyfitter_cfg.c **** 	}
 308:Generated_Source\PSoC5/cyfitter_cfg.c **** 	else
 309:Generated_Source\PSoC5/cyfitter_cfg.c **** 	{
 310:Generated_Source\PSoC5/cyfitter_cfg.c **** 		regValue &= (uint8)~0x00u;
 311:Generated_Source\PSoC5/cyfitter_cfg.c **** 	}
 312:Generated_Source\PSoC5/cyfitter_cfg.c **** 	CY_SET_XTND_REG8((void CYFAR *)CYREG_PUMP_CR0, regValue);
  39              		.loc 1 312 0
  40 0006 1370     		strb	r3, [r2]
  41 0008 7047     		bx	lr
  42              	.L3:
  43 000a 00BF     		.align	2
  44              	.L2:
  45 000c 76580040 		.word	1073764470
  46              		.cfi_endproc
  47              	.LFE7:
  48              		.size	SetAnalogRoutingPumps, .-SetAnalogRoutingPumps
  49              		.section	.text.cyfitter_cfg,"ax",%progbits
  50              		.align	2
  51              		.global	cyfitter_cfg
  52              		.thumb
  53              		.thumb_func
  54              		.type	cyfitter_cfg, %function
  55              	cyfitter_cfg:
  56              	.LFB8:
 313:Generated_Source\PSoC5/cyfitter_cfg.c **** }
 314:Generated_Source\PSoC5/cyfitter_cfg.c **** 
 315:Generated_Source\PSoC5/cyfitter_cfg.c **** 
 316:Generated_Source\PSoC5/cyfitter_cfg.c **** 
 317:Generated_Source\PSoC5/cyfitter_cfg.c **** 
 318:Generated_Source\PSoC5/cyfitter_cfg.c **** /*******************************************************************************
 319:Generated_Source\PSoC5/cyfitter_cfg.c **** * Function Name: cyfitter_cfg
 320:Generated_Source\PSoC5/cyfitter_cfg.c **** ********************************************************************************
 321:Generated_Source\PSoC5/cyfitter_cfg.c **** * Summary:
 322:Generated_Source\PSoC5/cyfitter_cfg.c **** *  This function is called by the start-up code for the selected device. It
 323:Generated_Source\PSoC5/cyfitter_cfg.c **** *  performs all of the necessary device configuration based on the design
 324:Generated_Source\PSoC5/cyfitter_cfg.c **** *  settings.  This includes settings from the Design Wide Resources (DWR) such
 325:Generated_Source\PSoC5/cyfitter_cfg.c **** *  as Clocks and Pins as well as any component configuration that is necessary.
 326:Generated_Source\PSoC5/cyfitter_cfg.c **** *
 327:Generated_Source\PSoC5/cyfitter_cfg.c **** * Parameters:
 328:Generated_Source\PSoC5/cyfitter_cfg.c **** *   void
 329:Generated_Source\PSoC5/cyfitter_cfg.c **** *
 330:Generated_Source\PSoC5/cyfitter_cfg.c **** * Return:
 331:Generated_Source\PSoC5/cyfitter_cfg.c **** *   void
 332:Generated_Source\PSoC5/cyfitter_cfg.c **** *
 333:Generated_Source\PSoC5/cyfitter_cfg.c **** *******************************************************************************/
 334:Generated_Source\PSoC5/cyfitter_cfg.c **** 
 335:Generated_Source\PSoC5/cyfitter_cfg.c **** void cyfitter_cfg(void)
 336:Generated_Source\PSoC5/cyfitter_cfg.c **** {
  57              		.loc 1 336 0
  58              		.cfi_startproc
  59              		@ args = 0, pretend = 0, frame = 0
  60              		@ frame_needed = 0, uses_anonymous_args = 0
  61 0000 F8B5     		push	{r3, r4, r5, r6, r7, lr}
  62              		.cfi_def_cfa_offset 24
  63              		.cfi_offset 3, -24
ARM GAS  C:\Users\Mattia\AppData\Local\Temp\ccFR5PWW.s 			page 8


  64              		.cfi_offset 4, -20
  65              		.cfi_offset 5, -16
  66              		.cfi_offset 6, -12
  67              		.cfi_offset 7, -8
  68              		.cfi_offset 14, -4
 337:Generated_Source\PSoC5/cyfitter_cfg.c **** 	/* IOPINS0_7 Address: CYREG_PRT12_DM0 Size (bytes): 8 */
 338:Generated_Source\PSoC5/cyfitter_cfg.c **** 	static const uint8 CYCODE BS_IOPINS0_7_VAL[] = {
 339:Generated_Source\PSoC5/cyfitter_cfg.c **** 		0x40u, 0x90u, 0x90u, 0x00u, 0x90u, 0x00u, 0x00u, 0x00u};
 340:Generated_Source\PSoC5/cyfitter_cfg.c **** 
 341:Generated_Source\PSoC5/cyfitter_cfg.c **** 	/* IOPINS0_1 Address: CYREG_PRT1_DM0 Size (bytes): 8 */
 342:Generated_Source\PSoC5/cyfitter_cfg.c **** 	static const uint8 CYCODE BS_IOPINS0_1_VAL[] = {
 343:Generated_Source\PSoC5/cyfitter_cfg.c **** 		0x10u, 0x14u, 0x04u, 0x00u, 0x14u, 0x00u, 0x00u, 0x00u};
 344:Generated_Source\PSoC5/cyfitter_cfg.c **** 
 345:Generated_Source\PSoC5/cyfitter_cfg.c **** 	/* IOPINS0_3 Address: CYREG_PRT3_DR Size (bytes): 10 */
 346:Generated_Source\PSoC5/cyfitter_cfg.c **** 	static const uint8 CYCODE BS_IOPINS0_3_VAL[] = {
 347:Generated_Source\PSoC5/cyfitter_cfg.c **** 		0x00u, 0x00u, 0x00u, 0x01u, 0x01u, 0x00u, 0x00u, 0x00u, 0x00u, 0x00u};
 348:Generated_Source\PSoC5/cyfitter_cfg.c **** 
 349:Generated_Source\PSoC5/cyfitter_cfg.c **** #ifdef CYGlobalIntDisable
 350:Generated_Source\PSoC5/cyfitter_cfg.c **** 	/* Disable interrupts by default. Let user enable if/when they want. */
 351:Generated_Source\PSoC5/cyfitter_cfg.c **** 	CYGlobalIntDisable
  69              		.loc 1 351 0
  70              		.syntax unified
  71              	@ 351 "Generated_Source\PSoC5\cyfitter_cfg.c" 1
  72 0002 72B6     		CPSID   i
  73              	@ 0 "" 2
  74              	.LVL2:
  75              		.thumb
  76              		.syntax unified
  77 0004 6D4E     		ldr	r6, .L27
  78 0006 0024     		movs	r4, #0
  79 0008 3546     		mov	r5, r6
  80              	.LVL3:
  81              	.L5:
  82              	.LBB46:
  83              	.LBB47:
 352:Generated_Source\PSoC5/cyfitter_cfg.c **** #endif
 353:Generated_Source\PSoC5/cyfitter_cfg.c **** 
 354:Generated_Source\PSoC5/cyfitter_cfg.c **** 	{
 355:Generated_Source\PSoC5/cyfitter_cfg.c **** 		static const uint32 CYCODE cy_cfg_addr_table[] = {
 356:Generated_Source\PSoC5/cyfitter_cfg.c **** 			0x40005202u, /* Base address: 0x40005200 Count: 2 */
 357:Generated_Source\PSoC5/cyfitter_cfg.c **** 			0x40006401u, /* Base address: 0x40006400 Count: 1 */
 358:Generated_Source\PSoC5/cyfitter_cfg.c **** 			0x40006502u, /* Base address: 0x40006500 Count: 2 */
 359:Generated_Source\PSoC5/cyfitter_cfg.c **** 			0x40010701u, /* Base address: 0x40010700 Count: 1 */
 360:Generated_Source\PSoC5/cyfitter_cfg.c **** 			0x40010854u, /* Base address: 0x40010800 Count: 84 */
 361:Generated_Source\PSoC5/cyfitter_cfg.c **** 			0x40010936u, /* Base address: 0x40010900 Count: 54 */
 362:Generated_Source\PSoC5/cyfitter_cfg.c **** 			0x40011404u, /* Base address: 0x40011400 Count: 4 */
 363:Generated_Source\PSoC5/cyfitter_cfg.c **** 			0x40011503u, /* Base address: 0x40011500 Count: 3 */
 364:Generated_Source\PSoC5/cyfitter_cfg.c **** 			0x40011702u, /* Base address: 0x40011700 Count: 2 */
 365:Generated_Source\PSoC5/cyfitter_cfg.c **** 			0x4001184Du, /* Base address: 0x40011800 Count: 77 */
 366:Generated_Source\PSoC5/cyfitter_cfg.c **** 			0x4001193Fu, /* Base address: 0x40011900 Count: 63 */
 367:Generated_Source\PSoC5/cyfitter_cfg.c **** 			0x40011A0Du, /* Base address: 0x40011A00 Count: 13 */
 368:Generated_Source\PSoC5/cyfitter_cfg.c **** 			0x40011B42u, /* Base address: 0x40011B00 Count: 66 */
 369:Generated_Source\PSoC5/cyfitter_cfg.c **** 			0x40014003u, /* Base address: 0x40014000 Count: 3 */
 370:Generated_Source\PSoC5/cyfitter_cfg.c **** 			0x40014102u, /* Base address: 0x40014100 Count: 2 */
 371:Generated_Source\PSoC5/cyfitter_cfg.c **** 			0x40014202u, /* Base address: 0x40014200 Count: 2 */
 372:Generated_Source\PSoC5/cyfitter_cfg.c **** 			0x40014304u, /* Base address: 0x40014300 Count: 4 */
 373:Generated_Source\PSoC5/cyfitter_cfg.c **** 			0x40014701u, /* Base address: 0x40014700 Count: 1 */
ARM GAS  C:\Users\Mattia\AppData\Local\Temp\ccFR5PWW.s 			page 9


 374:Generated_Source\PSoC5/cyfitter_cfg.c **** 			0x40014801u, /* Base address: 0x40014800 Count: 1 */
 375:Generated_Source\PSoC5/cyfitter_cfg.c **** 			0x40014902u, /* Base address: 0x40014900 Count: 2 */
 376:Generated_Source\PSoC5/cyfitter_cfg.c **** 			0x40014C09u, /* Base address: 0x40014C00 Count: 9 */
 377:Generated_Source\PSoC5/cyfitter_cfg.c **** 			0x40014D0Du, /* Base address: 0x40014D00 Count: 13 */
 378:Generated_Source\PSoC5/cyfitter_cfg.c **** 			0x40015004u, /* Base address: 0x40015000 Count: 4 */
 379:Generated_Source\PSoC5/cyfitter_cfg.c **** 			0x40015101u, /* Base address: 0x40015100 Count: 1 */
 380:Generated_Source\PSoC5/cyfitter_cfg.c **** 		};
 381:Generated_Source\PSoC5/cyfitter_cfg.c **** 
 382:Generated_Source\PSoC5/cyfitter_cfg.c **** 		static const cy_cfg_addrvalue_t CYCODE cy_cfg_data_table[] = {
 383:Generated_Source\PSoC5/cyfitter_cfg.c **** 			{0x08u, 0x04u},
 384:Generated_Source\PSoC5/cyfitter_cfg.c **** 			{0x09u, 0x10u},
 385:Generated_Source\PSoC5/cyfitter_cfg.c **** 			{0x89u, 0x3Au},
 386:Generated_Source\PSoC5/cyfitter_cfg.c **** 			{0x89u, 0x69u},
 387:Generated_Source\PSoC5/cyfitter_cfg.c **** 			{0x8Bu, 0x0Fu},
 388:Generated_Source\PSoC5/cyfitter_cfg.c **** 			{0xE6u, 0x02u},
 389:Generated_Source\PSoC5/cyfitter_cfg.c **** 			{0x03u, 0x01u},
 390:Generated_Source\PSoC5/cyfitter_cfg.c **** 			{0x04u, 0x61u},
 391:Generated_Source\PSoC5/cyfitter_cfg.c **** 			{0x06u, 0x0Eu},
 392:Generated_Source\PSoC5/cyfitter_cfg.c **** 			{0x07u, 0x18u},
 393:Generated_Source\PSoC5/cyfitter_cfg.c **** 			{0x09u, 0x48u},
 394:Generated_Source\PSoC5/cyfitter_cfg.c **** 			{0x0Au, 0x40u},
 395:Generated_Source\PSoC5/cyfitter_cfg.c **** 			{0x0Bu, 0x86u},
 396:Generated_Source\PSoC5/cyfitter_cfg.c **** 			{0x0Eu, 0x08u},
 397:Generated_Source\PSoC5/cyfitter_cfg.c **** 			{0x11u, 0x80u},
 398:Generated_Source\PSoC5/cyfitter_cfg.c **** 			{0x13u, 0x65u},
 399:Generated_Source\PSoC5/cyfitter_cfg.c **** 			{0x14u, 0x2Cu},
 400:Generated_Source\PSoC5/cyfitter_cfg.c **** 			{0x15u, 0xE6u},
 401:Generated_Source\PSoC5/cyfitter_cfg.c **** 			{0x16u, 0x43u},
 402:Generated_Source\PSoC5/cyfitter_cfg.c **** 			{0x17u, 0x11u},
 403:Generated_Source\PSoC5/cyfitter_cfg.c **** 			{0x19u, 0x60u},
 404:Generated_Source\PSoC5/cyfitter_cfg.c **** 			{0x1Bu, 0x8Bu},
 405:Generated_Source\PSoC5/cyfitter_cfg.c **** 			{0x1Eu, 0x43u},
 406:Generated_Source\PSoC5/cyfitter_cfg.c **** 			{0x20u, 0x61u},
 407:Generated_Source\PSoC5/cyfitter_cfg.c **** 			{0x21u, 0xA0u},
 408:Generated_Source\PSoC5/cyfitter_cfg.c **** 			{0x22u, 0x06u},
 409:Generated_Source\PSoC5/cyfitter_cfg.c **** 			{0x26u, 0x0Cu},
 410:Generated_Source\PSoC5/cyfitter_cfg.c **** 			{0x28u, 0x10u},
 411:Generated_Source\PSoC5/cyfitter_cfg.c **** 			{0x2Du, 0x80u},
 412:Generated_Source\PSoC5/cyfitter_cfg.c **** 			{0x2Fu, 0x02u},
 413:Generated_Source\PSoC5/cyfitter_cfg.c **** 			{0x30u, 0x20u},
 414:Generated_Source\PSoC5/cyfitter_cfg.c **** 			{0x32u, 0x0Fu},
 415:Generated_Source\PSoC5/cyfitter_cfg.c **** 			{0x33u, 0x07u},
 416:Generated_Source\PSoC5/cyfitter_cfg.c **** 			{0x34u, 0x10u},
 417:Generated_Source\PSoC5/cyfitter_cfg.c **** 			{0x35u, 0xF8u},
 418:Generated_Source\PSoC5/cyfitter_cfg.c **** 			{0x36u, 0x40u},
 419:Generated_Source\PSoC5/cyfitter_cfg.c **** 			{0x38u, 0x02u},
 420:Generated_Source\PSoC5/cyfitter_cfg.c **** 			{0x3Au, 0x08u},
 421:Generated_Source\PSoC5/cyfitter_cfg.c **** 			{0x3Bu, 0x08u},
 422:Generated_Source\PSoC5/cyfitter_cfg.c **** 			{0x3Eu, 0x50u},
 423:Generated_Source\PSoC5/cyfitter_cfg.c **** 			{0x40u, 0x03u},
 424:Generated_Source\PSoC5/cyfitter_cfg.c **** 			{0x47u, 0x40u},
 425:Generated_Source\PSoC5/cyfitter_cfg.c **** 			{0x49u, 0xFFu},
 426:Generated_Source\PSoC5/cyfitter_cfg.c **** 			{0x4Au, 0x07u},
 427:Generated_Source\PSoC5/cyfitter_cfg.c **** 			{0x4Bu, 0xFFu},
 428:Generated_Source\PSoC5/cyfitter_cfg.c **** 			{0x4Cu, 0x40u},
 429:Generated_Source\PSoC5/cyfitter_cfg.c **** 			{0x4Du, 0x20u},
 430:Generated_Source\PSoC5/cyfitter_cfg.c **** 			{0x4Eu, 0xF0u},
ARM GAS  C:\Users\Mattia\AppData\Local\Temp\ccFR5PWW.s 			page 10


 431:Generated_Source\PSoC5/cyfitter_cfg.c **** 			{0x4Fu, 0x05u},
 432:Generated_Source\PSoC5/cyfitter_cfg.c **** 			{0x50u, 0x08u},
 433:Generated_Source\PSoC5/cyfitter_cfg.c **** 			{0x58u, 0x04u},
 434:Generated_Source\PSoC5/cyfitter_cfg.c **** 			{0x59u, 0x04u},
 435:Generated_Source\PSoC5/cyfitter_cfg.c **** 			{0x5Au, 0x04u},
 436:Generated_Source\PSoC5/cyfitter_cfg.c **** 			{0x5Fu, 0x01u},
 437:Generated_Source\PSoC5/cyfitter_cfg.c **** 			{0x60u, 0x40u},
 438:Generated_Source\PSoC5/cyfitter_cfg.c **** 			{0x61u, 0xA8u},
 439:Generated_Source\PSoC5/cyfitter_cfg.c **** 			{0x62u, 0x40u},
 440:Generated_Source\PSoC5/cyfitter_cfg.c **** 			{0x63u, 0x20u},
 441:Generated_Source\PSoC5/cyfitter_cfg.c **** 			{0x83u, 0x20u},
 442:Generated_Source\PSoC5/cyfitter_cfg.c **** 			{0x85u, 0x03u},
 443:Generated_Source\PSoC5/cyfitter_cfg.c **** 			{0x87u, 0x04u},
 444:Generated_Source\PSoC5/cyfitter_cfg.c **** 			{0x8Au, 0x02u},
 445:Generated_Source\PSoC5/cyfitter_cfg.c **** 			{0x8Bu, 0x08u},
 446:Generated_Source\PSoC5/cyfitter_cfg.c **** 			{0x8Du, 0x03u},
 447:Generated_Source\PSoC5/cyfitter_cfg.c **** 			{0x8Eu, 0x02u},
 448:Generated_Source\PSoC5/cyfitter_cfg.c **** 			{0x8Fu, 0x0Cu},
 449:Generated_Source\PSoC5/cyfitter_cfg.c **** 			{0x90u, 0x01u},
 450:Generated_Source\PSoC5/cyfitter_cfg.c **** 			{0x93u, 0x10u},
 451:Generated_Source\PSoC5/cyfitter_cfg.c **** 			{0x95u, 0x0Au},
 452:Generated_Source\PSoC5/cyfitter_cfg.c **** 			{0x97u, 0x04u},
 453:Generated_Source\PSoC5/cyfitter_cfg.c **** 			{0x98u, 0x01u},
 454:Generated_Source\PSoC5/cyfitter_cfg.c **** 			{0x99u, 0x03u},
 455:Generated_Source\PSoC5/cyfitter_cfg.c **** 			{0x9Bu, 0x04u},
 456:Generated_Source\PSoC5/cyfitter_cfg.c **** 			{0xA7u, 0x10u},
 457:Generated_Source\PSoC5/cyfitter_cfg.c **** 			{0xA8u, 0x01u},
 458:Generated_Source\PSoC5/cyfitter_cfg.c **** 			{0xAFu, 0x05u},
 459:Generated_Source\PSoC5/cyfitter_cfg.c **** 			{0xB0u, 0x01u},
 460:Generated_Source\PSoC5/cyfitter_cfg.c **** 			{0xB1u, 0x0Fu},
 461:Generated_Source\PSoC5/cyfitter_cfg.c **** 			{0xB3u, 0x20u},
 462:Generated_Source\PSoC5/cyfitter_cfg.c **** 			{0xB5u, 0x10u},
 463:Generated_Source\PSoC5/cyfitter_cfg.c **** 			{0xB6u, 0x02u},
 464:Generated_Source\PSoC5/cyfitter_cfg.c **** 			{0xBBu, 0x02u},
 465:Generated_Source\PSoC5/cyfitter_cfg.c **** 			{0xBEu, 0x40u},
 466:Generated_Source\PSoC5/cyfitter_cfg.c **** 			{0xBFu, 0x10u},
 467:Generated_Source\PSoC5/cyfitter_cfg.c **** 			{0xD4u, 0x1Au},
 468:Generated_Source\PSoC5/cyfitter_cfg.c **** 			{0xD6u, 0x04u},
 469:Generated_Source\PSoC5/cyfitter_cfg.c **** 			{0xD8u, 0x04u},
 470:Generated_Source\PSoC5/cyfitter_cfg.c **** 			{0xD9u, 0x04u},
 471:Generated_Source\PSoC5/cyfitter_cfg.c **** 			{0xDBu, 0x04u},
 472:Generated_Source\PSoC5/cyfitter_cfg.c **** 			{0xDFu, 0x01u},
 473:Generated_Source\PSoC5/cyfitter_cfg.c **** 			{0x00u, 0xA0u},
 474:Generated_Source\PSoC5/cyfitter_cfg.c **** 			{0x05u, 0x80u},
 475:Generated_Source\PSoC5/cyfitter_cfg.c **** 			{0x06u, 0x05u},
 476:Generated_Source\PSoC5/cyfitter_cfg.c **** 			{0x07u, 0x10u},
 477:Generated_Source\PSoC5/cyfitter_cfg.c **** 			{0x08u, 0x80u},
 478:Generated_Source\PSoC5/cyfitter_cfg.c **** 			{0x0Au, 0x45u},
 479:Generated_Source\PSoC5/cyfitter_cfg.c **** 			{0x0Eu, 0x20u},
 480:Generated_Source\PSoC5/cyfitter_cfg.c **** 			{0x0Fu, 0x02u},
 481:Generated_Source\PSoC5/cyfitter_cfg.c **** 			{0x11u, 0x10u},
 482:Generated_Source\PSoC5/cyfitter_cfg.c **** 			{0x15u, 0x02u},
 483:Generated_Source\PSoC5/cyfitter_cfg.c **** 			{0x16u, 0x18u},
 484:Generated_Source\PSoC5/cyfitter_cfg.c **** 			{0x19u, 0x40u},
 485:Generated_Source\PSoC5/cyfitter_cfg.c **** 			{0x1Bu, 0x02u},
 486:Generated_Source\PSoC5/cyfitter_cfg.c **** 			{0x1Du, 0x24u},
 487:Generated_Source\PSoC5/cyfitter_cfg.c **** 			{0x1Eu, 0x21u},
ARM GAS  C:\Users\Mattia\AppData\Local\Temp\ccFR5PWW.s 			page 11


 488:Generated_Source\PSoC5/cyfitter_cfg.c **** 			{0x1Fu, 0x01u},
 489:Generated_Source\PSoC5/cyfitter_cfg.c **** 			{0x20u, 0x40u},
 490:Generated_Source\PSoC5/cyfitter_cfg.c **** 			{0x21u, 0x05u},
 491:Generated_Source\PSoC5/cyfitter_cfg.c **** 			{0x22u, 0x02u},
 492:Generated_Source\PSoC5/cyfitter_cfg.c **** 			{0x23u, 0x04u},
 493:Generated_Source\PSoC5/cyfitter_cfg.c **** 			{0x24u, 0x04u},
 494:Generated_Source\PSoC5/cyfitter_cfg.c **** 			{0x27u, 0x10u},
 495:Generated_Source\PSoC5/cyfitter_cfg.c **** 			{0x2Bu, 0x21u},
 496:Generated_Source\PSoC5/cyfitter_cfg.c **** 			{0x2Du, 0x80u},
 497:Generated_Source\PSoC5/cyfitter_cfg.c **** 			{0x2Eu, 0x02u},
 498:Generated_Source\PSoC5/cyfitter_cfg.c **** 			{0x31u, 0x06u},
 499:Generated_Source\PSoC5/cyfitter_cfg.c **** 			{0x33u, 0x10u},
 500:Generated_Source\PSoC5/cyfitter_cfg.c **** 			{0x35u, 0x04u},
 501:Generated_Source\PSoC5/cyfitter_cfg.c **** 			{0x36u, 0x02u},
 502:Generated_Source\PSoC5/cyfitter_cfg.c **** 			{0x37u, 0x10u},
 503:Generated_Source\PSoC5/cyfitter_cfg.c **** 			{0x38u, 0x52u},
 504:Generated_Source\PSoC5/cyfitter_cfg.c **** 			{0x3Au, 0x14u},
 505:Generated_Source\PSoC5/cyfitter_cfg.c **** 			{0x3Cu, 0x14u},
 506:Generated_Source\PSoC5/cyfitter_cfg.c **** 			{0x3Eu, 0x08u},
 507:Generated_Source\PSoC5/cyfitter_cfg.c **** 			{0x3Fu, 0x02u},
 508:Generated_Source\PSoC5/cyfitter_cfg.c **** 			{0x45u, 0x08u},
 509:Generated_Source\PSoC5/cyfitter_cfg.c **** 			{0x4Fu, 0x02u},
 510:Generated_Source\PSoC5/cyfitter_cfg.c **** 			{0x56u, 0x01u},
 511:Generated_Source\PSoC5/cyfitter_cfg.c **** 			{0x59u, 0x02u},
 512:Generated_Source\PSoC5/cyfitter_cfg.c **** 			{0x5Au, 0x20u},
 513:Generated_Source\PSoC5/cyfitter_cfg.c **** 			{0x61u, 0x40u},
 514:Generated_Source\PSoC5/cyfitter_cfg.c **** 			{0x63u, 0x44u},
 515:Generated_Source\PSoC5/cyfitter_cfg.c **** 			{0x85u, 0x20u},
 516:Generated_Source\PSoC5/cyfitter_cfg.c **** 			{0x87u, 0x40u},
 517:Generated_Source\PSoC5/cyfitter_cfg.c **** 			{0xC0u, 0xE3u},
 518:Generated_Source\PSoC5/cyfitter_cfg.c **** 			{0xC2u, 0xAAu},
 519:Generated_Source\PSoC5/cyfitter_cfg.c **** 			{0xC4u, 0x72u},
 520:Generated_Source\PSoC5/cyfitter_cfg.c **** 			{0xCAu, 0x9Au},
 521:Generated_Source\PSoC5/cyfitter_cfg.c **** 			{0xCCu, 0xE7u},
 522:Generated_Source\PSoC5/cyfitter_cfg.c **** 			{0xCEu, 0xEFu},
 523:Generated_Source\PSoC5/cyfitter_cfg.c **** 			{0xD0u, 0x40u},
 524:Generated_Source\PSoC5/cyfitter_cfg.c **** 			{0xD6u, 0x05u},
 525:Generated_Source\PSoC5/cyfitter_cfg.c **** 			{0xD8u, 0x0Du},
 526:Generated_Source\PSoC5/cyfitter_cfg.c **** 			{0xE0u, 0x08u},
 527:Generated_Source\PSoC5/cyfitter_cfg.c **** 			{0xB9u, 0x02u},
 528:Generated_Source\PSoC5/cyfitter_cfg.c **** 			{0xBFu, 0x01u},
 529:Generated_Source\PSoC5/cyfitter_cfg.c **** 			{0xD9u, 0x04u},
 530:Generated_Source\PSoC5/cyfitter_cfg.c **** 			{0xDFu, 0x01u},
 531:Generated_Source\PSoC5/cyfitter_cfg.c **** 			{0x27u, 0x80u},
 532:Generated_Source\PSoC5/cyfitter_cfg.c **** 			{0x9Fu, 0x80u},
 533:Generated_Source\PSoC5/cyfitter_cfg.c **** 			{0xE6u, 0x40u},
 534:Generated_Source\PSoC5/cyfitter_cfg.c **** 			{0x87u, 0x80u},
 535:Generated_Source\PSoC5/cyfitter_cfg.c **** 			{0xE0u, 0x02u},
 536:Generated_Source\PSoC5/cyfitter_cfg.c **** 			{0x01u, 0x02u},
 537:Generated_Source\PSoC5/cyfitter_cfg.c **** 			{0x0Bu, 0x01u},
 538:Generated_Source\PSoC5/cyfitter_cfg.c **** 			{0x10u, 0x01u},
 539:Generated_Source\PSoC5/cyfitter_cfg.c **** 			{0x14u, 0x04u},
 540:Generated_Source\PSoC5/cyfitter_cfg.c **** 			{0x19u, 0x01u},
 541:Generated_Source\PSoC5/cyfitter_cfg.c **** 			{0x1Eu, 0x02u},
 542:Generated_Source\PSoC5/cyfitter_cfg.c **** 			{0x20u, 0x06u},
 543:Generated_Source\PSoC5/cyfitter_cfg.c **** 			{0x28u, 0x06u},
 544:Generated_Source\PSoC5/cyfitter_cfg.c **** 			{0x2Du, 0x01u},
ARM GAS  C:\Users\Mattia\AppData\Local\Temp\ccFR5PWW.s 			page 12


 545:Generated_Source\PSoC5/cyfitter_cfg.c **** 			{0x32u, 0x06u},
 546:Generated_Source\PSoC5/cyfitter_cfg.c **** 			{0x33u, 0x03u},
 547:Generated_Source\PSoC5/cyfitter_cfg.c **** 			{0x34u, 0x01u},
 548:Generated_Source\PSoC5/cyfitter_cfg.c **** 			{0x38u, 0x08u},
 549:Generated_Source\PSoC5/cyfitter_cfg.c **** 			{0x39u, 0x08u},
 550:Generated_Source\PSoC5/cyfitter_cfg.c **** 			{0x3Eu, 0x14u},
 551:Generated_Source\PSoC5/cyfitter_cfg.c **** 			{0x40u, 0x45u},
 552:Generated_Source\PSoC5/cyfitter_cfg.c **** 			{0x41u, 0x02u},
 553:Generated_Source\PSoC5/cyfitter_cfg.c **** 			{0x46u, 0x0Eu},
 554:Generated_Source\PSoC5/cyfitter_cfg.c **** 			{0x47u, 0xBCu},
 555:Generated_Source\PSoC5/cyfitter_cfg.c **** 			{0x48u, 0x34u},
 556:Generated_Source\PSoC5/cyfitter_cfg.c **** 			{0x49u, 0xFFu},
 557:Generated_Source\PSoC5/cyfitter_cfg.c **** 			{0x4Au, 0xFFu},
 558:Generated_Source\PSoC5/cyfitter_cfg.c **** 			{0x4Bu, 0xFFu},
 559:Generated_Source\PSoC5/cyfitter_cfg.c **** 			{0x4Eu, 0xF0u},
 560:Generated_Source\PSoC5/cyfitter_cfg.c **** 			{0x4Fu, 0x44u},
 561:Generated_Source\PSoC5/cyfitter_cfg.c **** 			{0x50u, 0x0Cu},
 562:Generated_Source\PSoC5/cyfitter_cfg.c **** 			{0x58u, 0x04u},
 563:Generated_Source\PSoC5/cyfitter_cfg.c **** 			{0x59u, 0x04u},
 564:Generated_Source\PSoC5/cyfitter_cfg.c **** 			{0x5Au, 0x04u},
 565:Generated_Source\PSoC5/cyfitter_cfg.c **** 			{0x5Fu, 0x01u},
 566:Generated_Source\PSoC5/cyfitter_cfg.c **** 			{0x66u, 0xC0u},
 567:Generated_Source\PSoC5/cyfitter_cfg.c **** 			{0x6Au, 0x40u},
 568:Generated_Source\PSoC5/cyfitter_cfg.c **** 			{0x6Bu, 0x02u},
 569:Generated_Source\PSoC5/cyfitter_cfg.c **** 			{0x84u, 0x03u},
 570:Generated_Source\PSoC5/cyfitter_cfg.c **** 			{0x85u, 0x08u},
 571:Generated_Source\PSoC5/cyfitter_cfg.c **** 			{0x86u, 0x0Cu},
 572:Generated_Source\PSoC5/cyfitter_cfg.c **** 			{0x89u, 0x08u},
 573:Generated_Source\PSoC5/cyfitter_cfg.c **** 			{0x8Du, 0x08u},
 574:Generated_Source\PSoC5/cyfitter_cfg.c **** 			{0x8Eu, 0x0Eu},
 575:Generated_Source\PSoC5/cyfitter_cfg.c **** 			{0x91u, 0x08u},
 576:Generated_Source\PSoC5/cyfitter_cfg.c **** 			{0x95u, 0x3Du},
 577:Generated_Source\PSoC5/cyfitter_cfg.c **** 			{0x96u, 0x0Fu},
 578:Generated_Source\PSoC5/cyfitter_cfg.c **** 			{0x97u, 0x02u},
 579:Generated_Source\PSoC5/cyfitter_cfg.c **** 			{0x98u, 0x02u},
 580:Generated_Source\PSoC5/cyfitter_cfg.c **** 			{0x99u, 0x23u},
 581:Generated_Source\PSoC5/cyfitter_cfg.c **** 			{0x9Au, 0x04u},
 582:Generated_Source\PSoC5/cyfitter_cfg.c **** 			{0x9Bu, 0x1Cu},
 583:Generated_Source\PSoC5/cyfitter_cfg.c **** 			{0x9Du, 0x1Eu},
 584:Generated_Source\PSoC5/cyfitter_cfg.c **** 			{0x9Fu, 0x01u},
 585:Generated_Source\PSoC5/cyfitter_cfg.c **** 			{0xA0u, 0x02u},
 586:Generated_Source\PSoC5/cyfitter_cfg.c **** 			{0xA1u, 0x27u},
 587:Generated_Source\PSoC5/cyfitter_cfg.c **** 			{0xA2u, 0x08u},
 588:Generated_Source\PSoC5/cyfitter_cfg.c **** 			{0xA3u, 0x18u},
 589:Generated_Source\PSoC5/cyfitter_cfg.c **** 			{0xA5u, 0x01u},
 590:Generated_Source\PSoC5/cyfitter_cfg.c **** 			{0xA7u, 0x16u},
 591:Generated_Source\PSoC5/cyfitter_cfg.c **** 			{0xA8u, 0x0Cu},
 592:Generated_Source\PSoC5/cyfitter_cfg.c **** 			{0xA9u, 0x26u},
 593:Generated_Source\PSoC5/cyfitter_cfg.c **** 			{0xAAu, 0x03u},
 594:Generated_Source\PSoC5/cyfitter_cfg.c **** 			{0xABu, 0x19u},
 595:Generated_Source\PSoC5/cyfitter_cfg.c **** 			{0xACu, 0x03u},
 596:Generated_Source\PSoC5/cyfitter_cfg.c **** 			{0xAEu, 0x0Cu},
 597:Generated_Source\PSoC5/cyfitter_cfg.c **** 			{0xAFu, 0x1Fu},
 598:Generated_Source\PSoC5/cyfitter_cfg.c **** 			{0xB3u, 0x20u},
 599:Generated_Source\PSoC5/cyfitter_cfg.c **** 			{0xB4u, 0x01u},
 600:Generated_Source\PSoC5/cyfitter_cfg.c **** 			{0xB5u, 0x08u},
 601:Generated_Source\PSoC5/cyfitter_cfg.c **** 			{0xB6u, 0x0Eu},
ARM GAS  C:\Users\Mattia\AppData\Local\Temp\ccFR5PWW.s 			page 13


 602:Generated_Source\PSoC5/cyfitter_cfg.c **** 			{0xB7u, 0x1Fu},
 603:Generated_Source\PSoC5/cyfitter_cfg.c **** 			{0xB8u, 0x20u},
 604:Generated_Source\PSoC5/cyfitter_cfg.c **** 			{0xBAu, 0x80u},
 605:Generated_Source\PSoC5/cyfitter_cfg.c **** 			{0xBBu, 0x80u},
 606:Generated_Source\PSoC5/cyfitter_cfg.c **** 			{0xBFu, 0x04u},
 607:Generated_Source\PSoC5/cyfitter_cfg.c **** 			{0xD6u, 0x02u},
 608:Generated_Source\PSoC5/cyfitter_cfg.c **** 			{0xD7u, 0x12u},
 609:Generated_Source\PSoC5/cyfitter_cfg.c **** 			{0xD8u, 0x04u},
 610:Generated_Source\PSoC5/cyfitter_cfg.c **** 			{0xD9u, 0x04u},
 611:Generated_Source\PSoC5/cyfitter_cfg.c **** 			{0xDBu, 0x04u},
 612:Generated_Source\PSoC5/cyfitter_cfg.c **** 			{0xDFu, 0x01u},
 613:Generated_Source\PSoC5/cyfitter_cfg.c **** 			{0x00u, 0x04u},
 614:Generated_Source\PSoC5/cyfitter_cfg.c **** 			{0x03u, 0x02u},
 615:Generated_Source\PSoC5/cyfitter_cfg.c **** 			{0x05u, 0x20u},
 616:Generated_Source\PSoC5/cyfitter_cfg.c **** 			{0x06u, 0x04u},
 617:Generated_Source\PSoC5/cyfitter_cfg.c **** 			{0x08u, 0x28u},
 618:Generated_Source\PSoC5/cyfitter_cfg.c **** 			{0x0Eu, 0x30u},
 619:Generated_Source\PSoC5/cyfitter_cfg.c **** 			{0x0Fu, 0x82u},
 620:Generated_Source\PSoC5/cyfitter_cfg.c **** 			{0x12u, 0x89u},
 621:Generated_Source\PSoC5/cyfitter_cfg.c **** 			{0x15u, 0x02u},
 622:Generated_Source\PSoC5/cyfitter_cfg.c **** 			{0x16u, 0xC0u},
 623:Generated_Source\PSoC5/cyfitter_cfg.c **** 			{0x17u, 0x10u},
 624:Generated_Source\PSoC5/cyfitter_cfg.c **** 			{0x19u, 0x80u},
 625:Generated_Source\PSoC5/cyfitter_cfg.c **** 			{0x1Bu, 0xA0u},
 626:Generated_Source\PSoC5/cyfitter_cfg.c **** 			{0x1Du, 0x08u},
 627:Generated_Source\PSoC5/cyfitter_cfg.c **** 			{0x1Eu, 0x08u},
 628:Generated_Source\PSoC5/cyfitter_cfg.c **** 			{0x22u, 0x94u},
 629:Generated_Source\PSoC5/cyfitter_cfg.c **** 			{0x24u, 0x10u},
 630:Generated_Source\PSoC5/cyfitter_cfg.c **** 			{0x28u, 0x28u},
 631:Generated_Source\PSoC5/cyfitter_cfg.c **** 			{0x2Au, 0x01u},
 632:Generated_Source\PSoC5/cyfitter_cfg.c **** 			{0x2Bu, 0x8Au},
 633:Generated_Source\PSoC5/cyfitter_cfg.c **** 			{0x2Eu, 0x80u},
 634:Generated_Source\PSoC5/cyfitter_cfg.c **** 			{0x31u, 0x14u},
 635:Generated_Source\PSoC5/cyfitter_cfg.c **** 			{0x32u, 0x89u},
 636:Generated_Source\PSoC5/cyfitter_cfg.c **** 			{0x37u, 0x10u},
 637:Generated_Source\PSoC5/cyfitter_cfg.c **** 			{0x38u, 0xA8u},
 638:Generated_Source\PSoC5/cyfitter_cfg.c **** 			{0x3Eu, 0x10u},
 639:Generated_Source\PSoC5/cyfitter_cfg.c **** 			{0x3Fu, 0x02u},
 640:Generated_Source\PSoC5/cyfitter_cfg.c **** 			{0x46u, 0x40u},
 641:Generated_Source\PSoC5/cyfitter_cfg.c **** 			{0x47u, 0x10u},
 642:Generated_Source\PSoC5/cyfitter_cfg.c **** 			{0x4Eu, 0x02u},
 643:Generated_Source\PSoC5/cyfitter_cfg.c **** 			{0x56u, 0x06u},
 644:Generated_Source\PSoC5/cyfitter_cfg.c **** 			{0x57u, 0x40u},
 645:Generated_Source\PSoC5/cyfitter_cfg.c **** 			{0x5Au, 0x08u},
 646:Generated_Source\PSoC5/cyfitter_cfg.c **** 			{0x69u, 0x10u},
 647:Generated_Source\PSoC5/cyfitter_cfg.c **** 			{0x6Au, 0x46u},
 648:Generated_Source\PSoC5/cyfitter_cfg.c **** 			{0x70u, 0x5Cu},
 649:Generated_Source\PSoC5/cyfitter_cfg.c **** 			{0x79u, 0x01u},
 650:Generated_Source\PSoC5/cyfitter_cfg.c **** 			{0x7Au, 0x02u},
 651:Generated_Source\PSoC5/cyfitter_cfg.c **** 			{0x7Bu, 0x41u},
 652:Generated_Source\PSoC5/cyfitter_cfg.c **** 			{0x91u, 0x0Au},
 653:Generated_Source\PSoC5/cyfitter_cfg.c **** 			{0x94u, 0x12u},
 654:Generated_Source\PSoC5/cyfitter_cfg.c **** 			{0x95u, 0x10u},
 655:Generated_Source\PSoC5/cyfitter_cfg.c **** 			{0x96u, 0x64u},
 656:Generated_Source\PSoC5/cyfitter_cfg.c **** 			{0x98u, 0x80u},
 657:Generated_Source\PSoC5/cyfitter_cfg.c **** 			{0x9Bu, 0x10u},
 658:Generated_Source\PSoC5/cyfitter_cfg.c **** 			{0x9Du, 0x02u},
ARM GAS  C:\Users\Mattia\AppData\Local\Temp\ccFR5PWW.s 			page 14


 659:Generated_Source\PSoC5/cyfitter_cfg.c **** 			{0x9Eu, 0x06u},
 660:Generated_Source\PSoC5/cyfitter_cfg.c **** 			{0xA2u, 0x10u},
 661:Generated_Source\PSoC5/cyfitter_cfg.c **** 			{0xA3u, 0x03u},
 662:Generated_Source\PSoC5/cyfitter_cfg.c **** 			{0xA4u, 0x50u},
 663:Generated_Source\PSoC5/cyfitter_cfg.c **** 			{0xA5u, 0x0Au},
 664:Generated_Source\PSoC5/cyfitter_cfg.c **** 			{0xA7u, 0x20u},
 665:Generated_Source\PSoC5/cyfitter_cfg.c **** 			{0xB7u, 0x01u},
 666:Generated_Source\PSoC5/cyfitter_cfg.c **** 			{0xC0u, 0x05u},
 667:Generated_Source\PSoC5/cyfitter_cfg.c **** 			{0xC2u, 0xB6u},
 668:Generated_Source\PSoC5/cyfitter_cfg.c **** 			{0xC4u, 0x5Bu},
 669:Generated_Source\PSoC5/cyfitter_cfg.c **** 			{0xCAu, 0x1Fu},
 670:Generated_Source\PSoC5/cyfitter_cfg.c **** 			{0xCCu, 0x2Fu},
 671:Generated_Source\PSoC5/cyfitter_cfg.c **** 			{0xCEu, 0xAEu},
 672:Generated_Source\PSoC5/cyfitter_cfg.c **** 			{0xD0u, 0xA0u},
 673:Generated_Source\PSoC5/cyfitter_cfg.c **** 			{0xD2u, 0x10u},
 674:Generated_Source\PSoC5/cyfitter_cfg.c **** 			{0xD6u, 0x02u},
 675:Generated_Source\PSoC5/cyfitter_cfg.c **** 			{0xE0u, 0x02u},
 676:Generated_Source\PSoC5/cyfitter_cfg.c **** 			{0x84u, 0x01u},
 677:Generated_Source\PSoC5/cyfitter_cfg.c **** 			{0x88u, 0x01u},
 678:Generated_Source\PSoC5/cyfitter_cfg.c **** 			{0x8Cu, 0x01u},
 679:Generated_Source\PSoC5/cyfitter_cfg.c **** 			{0x96u, 0x01u},
 680:Generated_Source\PSoC5/cyfitter_cfg.c **** 			{0xA2u, 0x01u},
 681:Generated_Source\PSoC5/cyfitter_cfg.c **** 			{0xAEu, 0x02u},
 682:Generated_Source\PSoC5/cyfitter_cfg.c **** 			{0xB2u, 0x03u},
 683:Generated_Source\PSoC5/cyfitter_cfg.c **** 			{0xBAu, 0x08u},
 684:Generated_Source\PSoC5/cyfitter_cfg.c **** 			{0xD4u, 0x01u},
 685:Generated_Source\PSoC5/cyfitter_cfg.c **** 			{0xD6u, 0x04u},
 686:Generated_Source\PSoC5/cyfitter_cfg.c **** 			{0xD8u, 0x04u},
 687:Generated_Source\PSoC5/cyfitter_cfg.c **** 			{0xDBu, 0x04u},
 688:Generated_Source\PSoC5/cyfitter_cfg.c **** 			{0xDFu, 0x01u},
 689:Generated_Source\PSoC5/cyfitter_cfg.c **** 			{0x00u, 0x44u},
 690:Generated_Source\PSoC5/cyfitter_cfg.c **** 			{0x03u, 0x80u},
 691:Generated_Source\PSoC5/cyfitter_cfg.c **** 			{0x05u, 0x94u},
 692:Generated_Source\PSoC5/cyfitter_cfg.c **** 			{0x08u, 0x12u},
 693:Generated_Source\PSoC5/cyfitter_cfg.c **** 			{0x0Au, 0x12u},
 694:Generated_Source\PSoC5/cyfitter_cfg.c **** 			{0x0Eu, 0x10u},
 695:Generated_Source\PSoC5/cyfitter_cfg.c **** 			{0x10u, 0x08u},
 696:Generated_Source\PSoC5/cyfitter_cfg.c **** 			{0x11u, 0x40u},
 697:Generated_Source\PSoC5/cyfitter_cfg.c **** 			{0x12u, 0x90u},
 698:Generated_Source\PSoC5/cyfitter_cfg.c **** 			{0x15u, 0x80u},
 699:Generated_Source\PSoC5/cyfitter_cfg.c **** 			{0x16u, 0x80u},
 700:Generated_Source\PSoC5/cyfitter_cfg.c **** 			{0x18u, 0x04u},
 701:Generated_Source\PSoC5/cyfitter_cfg.c **** 			{0x19u, 0x16u},
 702:Generated_Source\PSoC5/cyfitter_cfg.c **** 			{0x1Eu, 0x10u},
 703:Generated_Source\PSoC5/cyfitter_cfg.c **** 			{0x1Fu, 0x08u},
 704:Generated_Source\PSoC5/cyfitter_cfg.c **** 			{0x20u, 0x80u},
 705:Generated_Source\PSoC5/cyfitter_cfg.c **** 			{0x21u, 0x41u},
 706:Generated_Source\PSoC5/cyfitter_cfg.c **** 			{0x28u, 0x12u},
 707:Generated_Source\PSoC5/cyfitter_cfg.c **** 			{0x29u, 0x04u},
 708:Generated_Source\PSoC5/cyfitter_cfg.c **** 			{0x2Au, 0x80u},
 709:Generated_Source\PSoC5/cyfitter_cfg.c **** 			{0x2Bu, 0x8Au},
 710:Generated_Source\PSoC5/cyfitter_cfg.c **** 			{0x30u, 0x08u},
 711:Generated_Source\PSoC5/cyfitter_cfg.c **** 			{0x31u, 0x10u},
 712:Generated_Source\PSoC5/cyfitter_cfg.c **** 			{0x32u, 0x81u},
 713:Generated_Source\PSoC5/cyfitter_cfg.c **** 			{0x38u, 0xE2u},
 714:Generated_Source\PSoC5/cyfitter_cfg.c **** 			{0x39u, 0x08u},
 715:Generated_Source\PSoC5/cyfitter_cfg.c **** 			{0x3Au, 0x10u},
ARM GAS  C:\Users\Mattia\AppData\Local\Temp\ccFR5PWW.s 			page 15


 716:Generated_Source\PSoC5/cyfitter_cfg.c **** 			{0x40u, 0x26u},
 717:Generated_Source\PSoC5/cyfitter_cfg.c **** 			{0x41u, 0x01u},
 718:Generated_Source\PSoC5/cyfitter_cfg.c **** 			{0x48u, 0x10u},
 719:Generated_Source\PSoC5/cyfitter_cfg.c **** 			{0x49u, 0x80u},
 720:Generated_Source\PSoC5/cyfitter_cfg.c **** 			{0x51u, 0x02u},
 721:Generated_Source\PSoC5/cyfitter_cfg.c **** 			{0x5Cu, 0x80u},
 722:Generated_Source\PSoC5/cyfitter_cfg.c **** 			{0x5Du, 0x21u},
 723:Generated_Source\PSoC5/cyfitter_cfg.c **** 			{0x5Eu, 0x08u},
 724:Generated_Source\PSoC5/cyfitter_cfg.c **** 			{0x66u, 0x01u},
 725:Generated_Source\PSoC5/cyfitter_cfg.c **** 			{0x6Bu, 0x01u},
 726:Generated_Source\PSoC5/cyfitter_cfg.c **** 			{0x8Bu, 0x01u},
 727:Generated_Source\PSoC5/cyfitter_cfg.c **** 			{0x8Cu, 0x21u},
 728:Generated_Source\PSoC5/cyfitter_cfg.c **** 			{0x8Du, 0x40u},
 729:Generated_Source\PSoC5/cyfitter_cfg.c **** 			{0x8Eu, 0x01u},
 730:Generated_Source\PSoC5/cyfitter_cfg.c **** 			{0x90u, 0xA0u},
 731:Generated_Source\PSoC5/cyfitter_cfg.c **** 			{0x91u, 0x09u},
 732:Generated_Source\PSoC5/cyfitter_cfg.c **** 			{0x92u, 0x02u},
 733:Generated_Source\PSoC5/cyfitter_cfg.c **** 			{0x94u, 0x06u},
 734:Generated_Source\PSoC5/cyfitter_cfg.c **** 			{0x98u, 0x80u},
 735:Generated_Source\PSoC5/cyfitter_cfg.c **** 			{0x99u, 0xA0u},
 736:Generated_Source\PSoC5/cyfitter_cfg.c **** 			{0x9Cu, 0x20u},
 737:Generated_Source\PSoC5/cyfitter_cfg.c **** 			{0x9Du, 0x16u},
 738:Generated_Source\PSoC5/cyfitter_cfg.c **** 			{0xA0u, 0x08u},
 739:Generated_Source\PSoC5/cyfitter_cfg.c **** 			{0xA2u, 0x84u},
 740:Generated_Source\PSoC5/cyfitter_cfg.c **** 			{0xA3u, 0x82u},
 741:Generated_Source\PSoC5/cyfitter_cfg.c **** 			{0xA4u, 0x50u},
 742:Generated_Source\PSoC5/cyfitter_cfg.c **** 			{0xA5u, 0x02u},
 743:Generated_Source\PSoC5/cyfitter_cfg.c **** 			{0xA7u, 0x08u},
 744:Generated_Source\PSoC5/cyfitter_cfg.c **** 			{0xC0u, 0xEDu},
 745:Generated_Source\PSoC5/cyfitter_cfg.c **** 			{0xC2u, 0x2Fu},
 746:Generated_Source\PSoC5/cyfitter_cfg.c **** 			{0xC4u, 0x9Fu},
 747:Generated_Source\PSoC5/cyfitter_cfg.c **** 			{0xCAu, 0x0Fu},
 748:Generated_Source\PSoC5/cyfitter_cfg.c **** 			{0xCCu, 0x0Fu},
 749:Generated_Source\PSoC5/cyfitter_cfg.c **** 			{0xCEu, 0x0Fu},
 750:Generated_Source\PSoC5/cyfitter_cfg.c **** 			{0xD0u, 0x0Fu},
 751:Generated_Source\PSoC5/cyfitter_cfg.c **** 			{0xD2u, 0x08u},
 752:Generated_Source\PSoC5/cyfitter_cfg.c **** 			{0xD6u, 0xF0u},
 753:Generated_Source\PSoC5/cyfitter_cfg.c **** 			{0xD8u, 0x80u},
 754:Generated_Source\PSoC5/cyfitter_cfg.c **** 			{0xE6u, 0x40u},
 755:Generated_Source\PSoC5/cyfitter_cfg.c **** 			{0x30u, 0x10u},
 756:Generated_Source\PSoC5/cyfitter_cfg.c **** 			{0x35u, 0x80u},
 757:Generated_Source\PSoC5/cyfitter_cfg.c **** 			{0xCCu, 0x30u},
 758:Generated_Source\PSoC5/cyfitter_cfg.c **** 			{0x9Cu, 0x10u},
 759:Generated_Source\PSoC5/cyfitter_cfg.c **** 			{0x9Du, 0x80u},
 760:Generated_Source\PSoC5/cyfitter_cfg.c **** 			{0x9Cu, 0x10u},
 761:Generated_Source\PSoC5/cyfitter_cfg.c **** 			{0x9Du, 0x80u},
 762:Generated_Source\PSoC5/cyfitter_cfg.c **** 			{0x84u, 0x10u},
 763:Generated_Source\PSoC5/cyfitter_cfg.c **** 			{0x9Cu, 0x10u},
 764:Generated_Source\PSoC5/cyfitter_cfg.c **** 			{0x9Du, 0x80u},
 765:Generated_Source\PSoC5/cyfitter_cfg.c **** 			{0xE6u, 0x40u},
 766:Generated_Source\PSoC5/cyfitter_cfg.c **** 			{0x86u, 0x20u},
 767:Generated_Source\PSoC5/cyfitter_cfg.c **** 			{0x9Du, 0x80u},
 768:Generated_Source\PSoC5/cyfitter_cfg.c **** 			{0x8Du, 0x80u},
 769:Generated_Source\PSoC5/cyfitter_cfg.c **** 			{0x9Du, 0x80u},
 770:Generated_Source\PSoC5/cyfitter_cfg.c **** 			{0x56u, 0x10u},
 771:Generated_Source\PSoC5/cyfitter_cfg.c **** 			{0x62u, 0x02u},
 772:Generated_Source\PSoC5/cyfitter_cfg.c **** 			{0x86u, 0x10u},
ARM GAS  C:\Users\Mattia\AppData\Local\Temp\ccFR5PWW.s 			page 16


 773:Generated_Source\PSoC5/cyfitter_cfg.c **** 			{0x99u, 0x08u},
 774:Generated_Source\PSoC5/cyfitter_cfg.c **** 			{0x9Au, 0x20u},
 775:Generated_Source\PSoC5/cyfitter_cfg.c **** 			{0xB5u, 0x08u},
 776:Generated_Source\PSoC5/cyfitter_cfg.c **** 			{0xD4u, 0x02u},
 777:Generated_Source\PSoC5/cyfitter_cfg.c **** 			{0xD8u, 0x02u},
 778:Generated_Source\PSoC5/cyfitter_cfg.c **** 			{0xE8u, 0x02u},
 779:Generated_Source\PSoC5/cyfitter_cfg.c **** 			{0x12u, 0x80u},
 780:Generated_Source\PSoC5/cyfitter_cfg.c **** 			{0x72u, 0x20u},
 781:Generated_Source\PSoC5/cyfitter_cfg.c **** 			{0x75u, 0x08u},
 782:Generated_Source\PSoC5/cyfitter_cfg.c **** 			{0x8Au, 0x02u},
 783:Generated_Source\PSoC5/cyfitter_cfg.c **** 			{0x8Eu, 0x80u},
 784:Generated_Source\PSoC5/cyfitter_cfg.c **** 			{0x99u, 0x08u},
 785:Generated_Source\PSoC5/cyfitter_cfg.c **** 			{0x9Au, 0x20u},
 786:Generated_Source\PSoC5/cyfitter_cfg.c **** 			{0xA6u, 0x02u},
 787:Generated_Source\PSoC5/cyfitter_cfg.c **** 			{0xC4u, 0x08u},
 788:Generated_Source\PSoC5/cyfitter_cfg.c **** 			{0xDCu, 0x01u},
 789:Generated_Source\PSoC5/cyfitter_cfg.c **** 			{0xDEu, 0x04u},
 790:Generated_Source\PSoC5/cyfitter_cfg.c **** 			{0xE2u, 0x02u},
 791:Generated_Source\PSoC5/cyfitter_cfg.c **** 			{0xE4u, 0x04u},
 792:Generated_Source\PSoC5/cyfitter_cfg.c **** 			{0x00u, 0x01u},
 793:Generated_Source\PSoC5/cyfitter_cfg.c **** 			{0x0Cu, 0x01u},
 794:Generated_Source\PSoC5/cyfitter_cfg.c **** 			{0x10u, 0x01u},
 795:Generated_Source\PSoC5/cyfitter_cfg.c **** 			{0x1Cu, 0x01u},
 796:Generated_Source\PSoC5/cyfitter_cfg.c **** 			{0x00u, 0x0Fu},
 797:Generated_Source\PSoC5/cyfitter_cfg.c **** 		};
 798:Generated_Source\PSoC5/cyfitter_cfg.c **** 
 799:Generated_Source\PSoC5/cyfitter_cfg.c **** 
 800:Generated_Source\PSoC5/cyfitter_cfg.c **** 
 801:Generated_Source\PSoC5/cyfitter_cfg.c **** 		CYPACKED typedef struct {
 802:Generated_Source\PSoC5/cyfitter_cfg.c **** 			void CYFAR *address;
 803:Generated_Source\PSoC5/cyfitter_cfg.c **** 			uint16 size;
 804:Generated_Source\PSoC5/cyfitter_cfg.c **** 		} CYPACKED_ATTR cfg_memset_t;
 805:Generated_Source\PSoC5/cyfitter_cfg.c **** 
 806:Generated_Source\PSoC5/cyfitter_cfg.c **** 
 807:Generated_Source\PSoC5/cyfitter_cfg.c **** 		CYPACKED typedef struct {
 808:Generated_Source\PSoC5/cyfitter_cfg.c **** 			void CYFAR *dest;
 809:Generated_Source\PSoC5/cyfitter_cfg.c **** 			const void CYCODE *src;
 810:Generated_Source\PSoC5/cyfitter_cfg.c **** 			uint16 size;
 811:Generated_Source\PSoC5/cyfitter_cfg.c **** 		} CYPACKED_ATTR cfg_memcpy_t;
 812:Generated_Source\PSoC5/cyfitter_cfg.c **** 
 813:Generated_Source\PSoC5/cyfitter_cfg.c **** 		static const cfg_memset_t CYCODE cfg_memset_list[] = {
 814:Generated_Source\PSoC5/cyfitter_cfg.c **** 			/* address, size */
 815:Generated_Source\PSoC5/cyfitter_cfg.c **** 			{(void CYFAR *)(CYREG_PRT0_DR), 16u},
 816:Generated_Source\PSoC5/cyfitter_cfg.c **** 			{(void CYFAR *)(CYREG_PRT2_DR), 16u},
 817:Generated_Source\PSoC5/cyfitter_cfg.c **** 			{(void CYFAR *)(CYREG_PRT4_DR), 48u},
 818:Generated_Source\PSoC5/cyfitter_cfg.c **** 			{(void CYFAR *)(CYREG_PRT15_DR), 16u},
 819:Generated_Source\PSoC5/cyfitter_cfg.c **** 			{(void CYFAR *)(CYDEV_UCFG_B0_P0_U0_BASE), 4096u},
 820:Generated_Source\PSoC5/cyfitter_cfg.c **** 			{(void CYFAR *)(CYDEV_UCFG_B1_P2_U0_BASE), 1536u},
 821:Generated_Source\PSoC5/cyfitter_cfg.c **** 			{(void CYFAR *)(CYDEV_UCFG_B1_P5_U1_BASE), 384u},
 822:Generated_Source\PSoC5/cyfitter_cfg.c **** 			{(void CYFAR *)(CYDEV_UCFG_DSI0_BASE), 2560u},
 823:Generated_Source\PSoC5/cyfitter_cfg.c **** 			{(void CYFAR *)(CYDEV_UCFG_DSI12_BASE), 512u},
 824:Generated_Source\PSoC5/cyfitter_cfg.c **** 			{(void CYFAR *)(CYREG_BCTL0_MDCLK_EN), 32u},
 825:Generated_Source\PSoC5/cyfitter_cfg.c **** 		};
 826:Generated_Source\PSoC5/cyfitter_cfg.c **** 
 827:Generated_Source\PSoC5/cyfitter_cfg.c **** 		/* IOPORT_7 Address: CYDEV_PRTDSI_PRT12_BASE Size (bytes): 6 */
 828:Generated_Source\PSoC5/cyfitter_cfg.c **** 		static const uint8 CYCODE BS_IOPORT_7_VAL[] = {
 829:Generated_Source\PSoC5/cyfitter_cfg.c **** 			0x10u, 0x90u, 0x00u, 0x00u, 0x40u, 0x00u};
ARM GAS  C:\Users\Mattia\AppData\Local\Temp\ccFR5PWW.s 			page 17


 830:Generated_Source\PSoC5/cyfitter_cfg.c **** 
 831:Generated_Source\PSoC5/cyfitter_cfg.c **** 		/* UDB_0_0_0_CONFIG Address: CYDEV_UCFG_B1_P5_U0_BASE Size (bytes): 128 */
 832:Generated_Source\PSoC5/cyfitter_cfg.c **** 		static const uint8 CYCODE BS_UDB_0_0_0_CONFIG_VAL[] = {
 833:Generated_Source\PSoC5/cyfitter_cfg.c **** 			0xCFu, 0x08u, 0x30u, 0x42u, 0xC3u, 0x00u, 0x3Cu, 0x08u, 0x00u, 0x10u, 0x00u, 0x00u, 0x08u, 0x20u
 834:Generated_Source\PSoC5/cyfitter_cfg.c **** 			0x00u, 0x20u, 0xF3u, 0x00u, 0x0Cu, 0x30u, 0xF3u, 0x00u, 0x3Du, 0x0Fu, 0xC0u, 0xF0u, 0x08u, 0x00u
 835:Generated_Source\PSoC5/cyfitter_cfg.c **** 			0x02u, 0x3Fu, 0x20u, 0xC0u, 0x04u, 0xF8u, 0x00u, 0x01u, 0x0Cu, 0x39u, 0x00u, 0xC6u, 0x43u, 0x00u
 836:Generated_Source\PSoC5/cyfitter_cfg.c **** 			0x40u, 0x31u, 0x8Cu, 0x00u, 0x3Fu, 0x00u, 0x00u, 0xFFu, 0x00u, 0x00u, 0x28u, 0x00u, 0x00u, 0x00u
 837:Generated_Source\PSoC5/cyfitter_cfg.c **** 			0x21u, 0x05u, 0x04u, 0x00u, 0x03u, 0x0Cu, 0x00u, 0xE0u, 0x21u, 0xFFu, 0xFFu, 0xFFu, 0x62u, 0xA0u
 838:Generated_Source\PSoC5/cyfitter_cfg.c **** 			0x0Cu, 0x00u, 0x00u, 0x00u, 0x00u, 0x00u, 0x00u, 0x00u, 0x04u, 0x04u, 0x04u, 0x04u, 0x00u, 0x00u
 839:Generated_Source\PSoC5/cyfitter_cfg.c **** 			0x00u, 0x00u, 0x00u, 0x00u, 0x00u, 0x00u, 0x40u, 0x02u, 0x00u, 0x10u, 0x30u, 0x10u, 0x00u, 0x10u
 840:Generated_Source\PSoC5/cyfitter_cfg.c **** 			0x00u, 0x00u, 0x00u, 0x00u, 0x00u, 0x00u, 0x00u, 0x00u, 0x00u, 0x00u, 0x00u, 0x00u, 0x00u, 0x00u
 841:Generated_Source\PSoC5/cyfitter_cfg.c **** 
 842:Generated_Source\PSoC5/cyfitter_cfg.c **** 		static const cfg_memcpy_t CYCODE cfg_memcpy_list [] = {
 843:Generated_Source\PSoC5/cyfitter_cfg.c **** 			/* dest, src, size */
 844:Generated_Source\PSoC5/cyfitter_cfg.c **** 			{(void CYFAR *)(CYDEV_PRTDSI_PRT12_BASE), BS_IOPORT_7_VAL, 6u},
 845:Generated_Source\PSoC5/cyfitter_cfg.c **** 			{(void CYFAR *)(CYDEV_UCFG_B1_P5_U0_BASE), BS_UDB_0_0_0_CONFIG_VAL, 128u},
 846:Generated_Source\PSoC5/cyfitter_cfg.c **** 		};
 847:Generated_Source\PSoC5/cyfitter_cfg.c **** 
 848:Generated_Source\PSoC5/cyfitter_cfg.c **** 		uint8 CYDATA i;
 849:Generated_Source\PSoC5/cyfitter_cfg.c **** 
 850:Generated_Source\PSoC5/cyfitter_cfg.c **** 		/* Zero out critical memory blocks before beginning configuration */
 851:Generated_Source\PSoC5/cyfitter_cfg.c **** 		for (i = 0u; i < (sizeof(cfg_memset_list)/sizeof(cfg_memset_list[0])); i++)
 852:Generated_Source\PSoC5/cyfitter_cfg.c **** 		{
 853:Generated_Source\PSoC5/cyfitter_cfg.c **** 			const cfg_memset_t CYCODE * CYDATA ms = &cfg_memset_list[i];
 854:Generated_Source\PSoC5/cyfitter_cfg.c **** 			CYMEMZERO(ms->address, (size_t)(uint32)(ms->size));
  84              		.loc 1 854 0 discriminator 3
  85 000a 04EB4403 		add	r3, r4, r4, lsl #1
  86              	.LBB48:
  87              	.LBB49:
  79:Generated_Source\PSoC5/cyfitter_cfg.c **** }
  88              		.loc 1 79 0 discriminator 3
  89 000e AA88     		ldrh	r2, [r5, #4]
  90              	.LVL4:
  91 0010 56F81300 		ldr	r0, [r6, r3, lsl #1]	@ unaligned
  92 0014 0134     		adds	r4, r4, #1
  93              	.LVL5:
  94 0016 0021     		movs	r1, #0
  95 0018 FFF7FEFF 		bl	memset
  96              	.LVL6:
  97              	.LBE49:
  98              	.LBE48:
  99              	.LBE47:
 851:Generated_Source\PSoC5/cyfitter_cfg.c **** 		{
 100              		.loc 1 851 0 discriminator 3
 101 001c 0A2C     		cmp	r4, #10
 102 001e 05F10605 		add	r5, r5, #6
 103 0022 F2D1     		bne	.L5
 104              	.LVL7:
 105              	.LBB50:
 106              	.LBB51:
 107              	.LBB52:
  93:Generated_Source\PSoC5/cyfitter_cfg.c **** }
 108              		.loc 1 93 0 discriminator 1
 109 0024 664E     		ldr	r6, .L27+4
 110 0026 674B     		ldr	r3, .L27+8
 111 0028 96E80300 		ldmia	r6, {r0, r1}
 112 002c 8022     		movs	r2, #128
ARM GAS  C:\Users\Mattia\AppData\Local\Temp\ccFR5PWW.s 			page 18


 113 002e 1860     		str	r0, [r3]
 114 0030 9980     		strh	r1, [r3, #4]	@ movhi
 115              	.LVL8:
 116 0032 6548     		ldr	r0, .L27+12
 117 0034 06F10801 		add	r1, r6, #8
 118 0038 FFF7FEFF 		bl	memcpy
 119              	.LVL9:
 120 003c 06F18407 		add	r7, r6, #132
 121 0040 06F1E40E 		add	lr, r6, #228
 122 0044 0025     		movs	r5, #0
 123 0046 E836     		adds	r6, r6, #232
 124              	.LVL10:
 125              	.L8:
 126              	.LBE52:
 127              	.LBE51:
 128              	.LBE50:
 129              	.LBB53:
 130              	.LBB54:
 131              	.LBB55:
 181:Generated_Source\PSoC5/cyfitter_cfg.c **** 		uint8 count = (uint8)baseAddr;
 132              		.loc 1 181 0
 133 0048 57F8043F 		ldr	r3, [r7, #4]!
 134              	.LVL11:
 184:Generated_Source\PSoC5/cyfitter_cfg.c **** 		{
 135              		.loc 1 184 0
 136 004c 13F0FF0C 		ands	ip, r3, #255
 183:Generated_Source\PSoC5/cyfitter_cfg.c **** 		while (count != 0u)
 137              		.loc 1 183 0
 138 0050 23F0FF04 		bic	r4, r3, #255
 139              	.LVL12:
 184:Generated_Source\PSoC5/cyfitter_cfg.c **** 		{
 140              		.loc 1 184 0
 141 0054 14D0     		beq	.L6
 142 0056 0CF1FF3C 		add	ip, ip, #-1
 143 005a 5FFA8CFC 		uxtb	ip, ip
 144 005e 05EB0C00 		add	r0, r5, ip
 145 0062 06EB4000 		add	r0, r6, r0, lsl #1
 146 0066 06EB4503 		add	r3, r6, r5, lsl #1
 147              	.LVL13:
 148 006a 0330     		adds	r0, r0, #3
 149 006c 0133     		adds	r3, r3, #1
 150              	.LVL14:
 151              	.L7:
 186:Generated_Source\PSoC5/cyfitter_cfg.c **** 			j++;
 152              		.loc 1 186 0
 153 006e 13F8012C 		ldrb	r2, [r3, #-1]	@ zero_extendqisi2
 154 0072 13F8021B 		ldrb	r1, [r3], #2	@ zero_extendqisi2
 184:Generated_Source\PSoC5/cyfitter_cfg.c **** 		{
 155              		.loc 1 184 0
 156 0076 9842     		cmp	r0, r3
 186:Generated_Source\PSoC5/cyfitter_cfg.c **** 			j++;
 157              		.loc 1 186 0
 158 0078 1155     		strb	r1, [r2, r4]
 184:Generated_Source\PSoC5/cyfitter_cfg.c **** 		{
 159              		.loc 1 184 0
 160 007a F8D1     		bne	.L7
 161 007c 0135     		adds	r5, r5, #1
ARM GAS  C:\Users\Mattia\AppData\Local\Temp\ccFR5PWW.s 			page 19


 162 007e 6544     		add	r5, r5, ip
 163              	.L6:
 164              	.LVL15:
 165              	.LBE55:
 179:Generated_Source\PSoC5/cyfitter_cfg.c **** 	{
 166              		.loc 1 179 0
 167 0080 7745     		cmp	r7, lr
 168 0082 E1D1     		bne	.L8
 169              	.LVL16:
 170              	.LBE54:
 171              	.LBE53:
 855:Generated_Source\PSoC5/cyfitter_cfg.c **** 		}
 856:Generated_Source\PSoC5/cyfitter_cfg.c **** 
 857:Generated_Source\PSoC5/cyfitter_cfg.c **** 		/* Copy device configuration data into registers */
 858:Generated_Source\PSoC5/cyfitter_cfg.c **** 		for (i = 0u; i < (sizeof(cfg_memcpy_list)/sizeof(cfg_memcpy_list[0])); i++)
 859:Generated_Source\PSoC5/cyfitter_cfg.c **** 		{
 860:Generated_Source\PSoC5/cyfitter_cfg.c **** 			const cfg_memcpy_t CYCODE * CYDATA mc = &cfg_memcpy_list[i];
 861:Generated_Source\PSoC5/cyfitter_cfg.c **** 			void * CYDATA destPtr = mc->dest;
 862:Generated_Source\PSoC5/cyfitter_cfg.c **** 			const void CYCODE * CYDATA srcPtr = mc->src;
 863:Generated_Source\PSoC5/cyfitter_cfg.c **** 			uint16 CYDATA numBytes = mc->size;
 864:Generated_Source\PSoC5/cyfitter_cfg.c **** 			CYCONFIGCPYCODE(destPtr, srcPtr, numBytes);
 865:Generated_Source\PSoC5/cyfitter_cfg.c **** 		}
 866:Generated_Source\PSoC5/cyfitter_cfg.c **** 
 867:Generated_Source\PSoC5/cyfitter_cfg.c **** 		cfg_write_bytes32(cy_cfg_addr_table, cy_cfg_data_table);
 868:Generated_Source\PSoC5/cyfitter_cfg.c **** 
 869:Generated_Source\PSoC5/cyfitter_cfg.c **** 		/* Enable digital routing */
 870:Generated_Source\PSoC5/cyfitter_cfg.c **** 		CY_SET_XTND_REG8((void CYFAR *)CYREG_BCTL0_BANK_CTL, CY_GET_XTND_REG8((void CYFAR *)CYREG_BCTL0_B
 172              		.loc 1 870 0
 173 0084 514C     		ldr	r4, .L27+16
 174              	.LBE46:
 175              	.LBB56:
 176              	.LBB57:
 230:Generated_Source\PSoC5/cyfitter_cfg.c **** 	/* Wait up to 250us for the PLL to lock */
 177              		.loc 1 230 0
 178 0086 41F25126 		movw	r6, #4689
 179              	.LBE57:
 180              	.LBE56:
 181              	.LBB62:
 182              		.loc 1 870 0
 183 008a 2278     		ldrb	r2, [r4]	@ zero_extendqisi2
 871:Generated_Source\PSoC5/cyfitter_cfg.c **** 		CY_SET_XTND_REG8((void CYFAR *)CYREG_BCTL1_BANK_CTL, CY_GET_XTND_REG8((void CYFAR *)CYREG_BCTL1_B
 184              		.loc 1 871 0
 185 008c 504F     		ldr	r7, .L27+20
 870:Generated_Source\PSoC5/cyfitter_cfg.c **** 		CY_SET_XTND_REG8((void CYFAR *)CYREG_BCTL1_BANK_CTL, CY_GET_XTND_REG8((void CYFAR *)CYREG_BCTL1_B
 186              		.loc 1 870 0
 187 008e 42F00202 		orr	r2, r2, #2
 188 0092 2270     		strb	r2, [r4]
 189              		.loc 1 871 0
 190 0094 3A78     		ldrb	r2, [r7]	@ zero_extendqisi2
 872:Generated_Source\PSoC5/cyfitter_cfg.c **** 
 873:Generated_Source\PSoC5/cyfitter_cfg.c **** 		/* Enable UDB array */
 874:Generated_Source\PSoC5/cyfitter_cfg.c **** 		CY_SET_XTND_REG8((void CYFAR *)CYREG_PM_ACT_CFG0, CY_GET_XTND_REG8((void CYFAR *)CYREG_PM_ACT_CFG
 191              		.loc 1 874 0
 192 0096 4F4D     		ldr	r5, .L27+24
 871:Generated_Source\PSoC5/cyfitter_cfg.c **** 
 193              		.loc 1 871 0
 194 0098 42F00202 		orr	r2, r2, #2
ARM GAS  C:\Users\Mattia\AppData\Local\Temp\ccFR5PWW.s 			page 20


 195 009c 3A70     		strb	r2, [r7]
 196              		.loc 1 874 0
 197 009e 2A78     		ldrb	r2, [r5]	@ zero_extendqisi2
 875:Generated_Source\PSoC5/cyfitter_cfg.c **** 		CY_SET_XTND_REG8((void CYFAR *)CYREG_PM_AVAIL_CR2, CY_GET_XTND_REG8((void CYFAR *)CYREG_PM_AVAIL_
 198              		.loc 1 875 0
 199 00a0 A4F58634 		sub	r4, r4, #68608
 874:Generated_Source\PSoC5/cyfitter_cfg.c **** 		CY_SET_XTND_REG8((void CYFAR *)CYREG_PM_AVAIL_CR2, CY_GET_XTND_REG8((void CYFAR *)CYREG_PM_AVAIL_
 200              		.loc 1 874 0
 201 00a4 42F04002 		orr	r2, r2, #64
 202 00a8 2A70     		strb	r2, [r5]
 203              		.loc 1 875 0
 204 00aa 413C     		subs	r4, r4, #65
 205 00ac 2278     		ldrb	r2, [r4]	@ zero_extendqisi2
 206              	.LBE62:
 207              	.LBB63:
 208              	.LBB64:
  93:Generated_Source\PSoC5/cyfitter_cfg.c **** }
 209              		.loc 1 93 0
 210 00ae A7F57E47 		sub	r7, r7, #65024
 211              	.LBE64:
 212              	.LBE63:
 213              	.LBB68:
 214              		.loc 1 875 0
 215 00b2 42F01002 		orr	r2, r2, #16
 216              	.LBE68:
 217              	.LBB69:
 218              	.LBB65:
  93:Generated_Source\PSoC5/cyfitter_cfg.c **** }
 219              		.loc 1 93 0
 220 00b6 484B     		ldr	r3, .L27+28
 221              	.LBE65:
 222              	.LBE69:
 223              	.LBB70:
 224              		.loc 1 875 0
 225 00b8 2270     		strb	r2, [r4]
 226              	.LVL17:
 227              	.LBE70:
 228              	.LBB71:
 229              	.LBB66:
  93:Generated_Source\PSoC5/cyfitter_cfg.c **** }
 230              		.loc 1 93 0
 231 00ba 513F     		subs	r7, r7, #81
 232              	.LBE66:
 233              	.LBE71:
 234              	.LBB72:
 235              	.LBB73:
 236 00bc 04F66E54 		addw	r4, r4, #3438
 237              	.LBE73:
 238              	.LBE72:
 239              	.LBB76:
 240              	.LBB67:
 241 00c0 03CB     		ldmia	r3!, {r0, r1}
 242 00c2 3860     		str	r0, [r7]	@ unaligned
 243 00c4 7960     		str	r1, [r7, #4]	@ unaligned
 244              	.LVL18:
 245              	.LBE67:
 246              	.LBE76:
ARM GAS  C:\Users\Mattia\AppData\Local\Temp\ccFR5PWW.s 			page 21


 247              	.LBB77:
 248              	.LBB78:
 249 00c6 03CB     		ldmia	r3!, {r0, r1}
 250 00c8 C5F8720D 		str	r0, [r5, #3442]	@ unaligned
 251 00cc C5F8761D 		str	r1, [r5, #3446]	@ unaligned
 252              	.LVL19:
 253              	.LBE78:
 254              	.LBE77:
 255              	.LBB79:
 256              	.LBB74:
 257 00d0 93E80700 		ldmia	r3, {r0, r1, r2}
 258 00d4 03C4     		stmia	r4!, {r0, r1}
 259              	.LBE74:
 260              	.LBE79:
 876:Generated_Source\PSoC5/cyfitter_cfg.c **** 	}
 877:Generated_Source\PSoC5/cyfitter_cfg.c **** 
 878:Generated_Source\PSoC5/cyfitter_cfg.c **** 
 879:Generated_Source\PSoC5/cyfitter_cfg.c **** 	/* Perform second pass device configuration. These items must be configured in specific order afte
 880:Generated_Source\PSoC5/cyfitter_cfg.c **** 	CYCONFIGCPYCODE((void CYFAR *)(CYREG_PRT12_DM0), (const void CYCODE *)(BS_IOPINS0_7_VAL), 8u);
 881:Generated_Source\PSoC5/cyfitter_cfg.c **** 	CYCONFIGCPYCODE((void CYFAR *)(CYREG_PRT1_DM0), (const void CYCODE *)(BS_IOPINS0_1_VAL), 8u);
 882:Generated_Source\PSoC5/cyfitter_cfg.c **** 	CYCONFIGCPYCODE((void CYFAR *)(CYREG_PRT3_DR), (const void CYCODE *)(BS_IOPINS0_3_VAL), 10u);
 883:Generated_Source\PSoC5/cyfitter_cfg.c **** 	/* Switch Boost to the precision bandgap reference from its internal reference */
 884:Generated_Source\PSoC5/cyfitter_cfg.c **** 	CY_SET_REG8((void CYXDATA *)CYREG_BOOST_CR2, (CY_GET_REG8((void CYXDATA *)CYREG_BOOST_CR2) | 0x08u
 261              		.loc 1 884 0
 262 00d6 4149     		ldr	r1, .L27+32
 263              	.LBB80:
 264              	.LBB75:
  93:Generated_Source\PSoC5/cyfitter_cfg.c **** }
 265              		.loc 1 93 0
 266 00d8 2280     		strh	r2, [r4]	@ movhi
 267              	.LVL20:
 268              	.LBE75:
 269              	.LBE80:
 270              		.loc 1 884 0
 271 00da 0B78     		ldrb	r3, [r1]	@ zero_extendqisi2
 885:Generated_Source\PSoC5/cyfitter_cfg.c **** 
 886:Generated_Source\PSoC5/cyfitter_cfg.c **** 	/* Set Flash Cycles based on max possible frequency in case a glitch occurs during ClockSetup(). *
 887:Generated_Source\PSoC5/cyfitter_cfg.c **** 	CY_SET_XTND_REG8((void CYFAR *)(CYREG_CACHE_CC_CTL), (((CYDEV_INSTRUCT_CACHE_ENABLED) != 0) ? 0x61
 272              		.loc 1 887 0
 273 00dc 05F58C65 		add	r5, r5, #1120
 884:Generated_Source\PSoC5/cyfitter_cfg.c **** 
 274              		.loc 1 884 0
 275 00e0 43F00803 		orr	r3, r3, #8
 276 00e4 0B70     		strb	r3, [r1]
 277              	.LBB81:
 278              	.LBB58:
 217:Generated_Source\PSoC5/cyfitter_cfg.c **** 	CY_SET_XTND_REG8((void CYFAR *)(CYREG_CLKDIST_DCFG0_CFG0 + 0x2u), 0x18u);
 279              		.loc 1 217 0
 280 00e6 3E4C     		ldr	r4, .L27+36
 218:Generated_Source\PSoC5/cyfitter_cfg.c **** 
 281              		.loc 1 218 0
 282 00e8 3E48     		ldr	r0, .L27+40
 283              	.LBE58:
 284              	.LBE81:
 285              		.loc 1 887 0
 286 00ea 6123     		movs	r3, #97
 287 00ec 2B70     		strb	r3, [r5]
ARM GAS  C:\Users\Mattia\AppData\Local\Temp\ccFR5PWW.s 			page 22


 288              	.LBB82:
 289              	.LBB59:
 221:Generated_Source\PSoC5/cyfitter_cfg.c **** 	CY_SET_XTND_REG8((void CYFAR *)(CYREG_CLKDIST_CR), 0x08u);
 290              		.loc 1 221 0
 291 00ee A7F6C267 		subw	r7, r7, #3778
 225:Generated_Source\PSoC5/cyfitter_cfg.c **** 	CY_SET_XTND_REG8((void CYFAR *)(CYREG_IMO_TR1), (CY_GET_XTND_REG8((void CYFAR *)CYREG_FLSHID_CUST_
 292              		.loc 1 225 0
 293 00f2 3D4A     		ldr	r2, .L27+44
 217:Generated_Source\PSoC5/cyfitter_cfg.c **** 	CY_SET_XTND_REG8((void CYFAR *)(CYREG_CLKDIST_DCFG0_CFG0 + 0x2u), 0x18u);
 294              		.loc 1 217 0
 295 00f4 3321     		movs	r1, #51
 218:Generated_Source\PSoC5/cyfitter_cfg.c **** 
 296              		.loc 1 218 0
 297 00f6 1825     		movs	r5, #24
 221:Generated_Source\PSoC5/cyfitter_cfg.c **** 	CY_SET_XTND_REG8((void CYFAR *)(CYREG_CLKDIST_CR), 0x08u);
 298              		.loc 1 221 0
 299 00f8 0223     		movs	r3, #2
 217:Generated_Source\PSoC5/cyfitter_cfg.c **** 	CY_SET_XTND_REG8((void CYFAR *)(CYREG_CLKDIST_DCFG0_CFG0 + 0x2u), 0x18u);
 300              		.loc 1 217 0
 301 00fa 2180     		strh	r1, [r4]	@ movhi
 218:Generated_Source\PSoC5/cyfitter_cfg.c **** 
 302              		.loc 1 218 0
 303 00fc 0570     		strb	r5, [r0]
 222:Generated_Source\PSoC5/cyfitter_cfg.c **** 
 304              		.loc 1 222 0
 305 00fe 4FF04024 		mov	r4, #1073758208
 221:Generated_Source\PSoC5/cyfitter_cfg.c **** 	CY_SET_XTND_REG8((void CYFAR *)(CYREG_CLKDIST_CR), 0x08u);
 306              		.loc 1 221 0
 307 0102 3B70     		strb	r3, [r7]
 222:Generated_Source\PSoC5/cyfitter_cfg.c **** 
 308              		.loc 1 222 0
 309 0104 0821     		movs	r1, #8
 225:Generated_Source\PSoC5/cyfitter_cfg.c **** 	CY_SET_XTND_REG8((void CYFAR *)(CYREG_IMO_TR1), (CY_GET_XTND_REG8((void CYFAR *)CYREG_FLSHID_CUST_
 310              		.loc 1 225 0
 311 0106 0320     		movs	r0, #3
 226:Generated_Source\PSoC5/cyfitter_cfg.c **** 
 312              		.loc 1 226 0
 313 0108 384B     		ldr	r3, .L27+48
 222:Generated_Source\PSoC5/cyfitter_cfg.c **** 
 314              		.loc 1 222 0
 315 010a 2170     		strb	r1, [r4]
 225:Generated_Source\PSoC5/cyfitter_cfg.c **** 	CY_SET_XTND_REG8((void CYFAR *)(CYREG_IMO_TR1), (CY_GET_XTND_REG8((void CYFAR *)CYREG_FLSHID_CUST_
 316              		.loc 1 225 0
 317 010c 1070     		strb	r0, [r2]
 226:Generated_Source\PSoC5/cyfitter_cfg.c **** 
 318              		.loc 1 226 0
 319 010e 1A78     		ldrb	r2, [r3]	@ zero_extendqisi2
 230:Generated_Source\PSoC5/cyfitter_cfg.c **** 	/* Wait up to 250us for the PLL to lock */
 320              		.loc 1 230 0
 321 0110 3748     		ldr	r0, .L27+52
 235:Generated_Source\PSoC5/cyfitter_cfg.c **** 		CyDelayCycles(10u * 48u); /* Delay 10us based on 48MHz clock */
 322              		.loc 1 235 0
 323 0112 384B     		ldr	r3, .L27+56
 226:Generated_Source\PSoC5/cyfitter_cfg.c **** 
 324              		.loc 1 226 0
 325 0114 D2B2     		uxtb	r2, r2
 326 0116 87F8A123 		strb	r2, [r7, #929]
ARM GAS  C:\Users\Mattia\AppData\Local\Temp\ccFR5PWW.s 			page 23


 229:Generated_Source\PSoC5/cyfitter_cfg.c **** 	CY_SET_XTND_REG16((void CYFAR *)(CYREG_FASTCLK_PLL_CFG0), 0x1251u);
 327              		.loc 1 229 0
 328 011a A4F82212 		strh	r1, [r4, #546]	@ movhi
 230:Generated_Source\PSoC5/cyfitter_cfg.c **** 	/* Wait up to 250us for the PLL to lock */
 329              		.loc 1 230 0
 330 011e 0680     		strh	r6, [r0]	@ movhi
 331              	.LVL21:
 235:Generated_Source\PSoC5/cyfitter_cfg.c **** 		CyDelayCycles(10u * 48u); /* Delay 10us based on 48MHz clock */
 332              		.loc 1 235 0
 333 0120 1C78     		ldrb	r4, [r3]	@ zero_extendqisi2
 236:Generated_Source\PSoC5/cyfitter_cfg.c **** 	}
 334              		.loc 1 236 0
 335 0122 4FF4F070 		mov	r0, #480
 235:Generated_Source\PSoC5/cyfitter_cfg.c **** 		CyDelayCycles(10u * 48u); /* Delay 10us based on 48MHz clock */
 336              		.loc 1 235 0
 337 0126 04F00104 		and	r4, r4, #1
 338              	.LVL22:
 339 012a 1E46     		mov	r6, r3
 236:Generated_Source\PSoC5/cyfitter_cfg.c **** 	}
 340              		.loc 1 236 0
 341 012c FFF7FEFF 		bl	CyDelayCycles
 342              	.LVL23:
 343 0130 01E0     		b	.L10
 344              	.L26:
 233:Generated_Source\PSoC5/cyfitter_cfg.c **** 	{ 
 345              		.loc 1 233 0
 346 0132 032C     		cmp	r4, #3
 347 0134 0DD0     		beq	.L25
 348              	.L10:
 235:Generated_Source\PSoC5/cyfitter_cfg.c **** 		CyDelayCycles(10u * 48u); /* Delay 10us based on 48MHz clock */
 349              		.loc 1 235 0
 350 0136 3378     		ldrb	r3, [r6]	@ zero_extendqisi2
 236:Generated_Source\PSoC5/cyfitter_cfg.c **** 	}
 351              		.loc 1 236 0
 352 0138 4FF4F070 		mov	r0, #480
 235:Generated_Source\PSoC5/cyfitter_cfg.c **** 		CyDelayCycles(10u * 48u); /* Delay 10us based on 48MHz clock */
 353              		.loc 1 235 0
 354 013c 03F00103 		and	r3, r3, #1
 355 0140 43EA4404 		orr	r4, r3, r4, lsl #1
 356              	.LVL24:
 236:Generated_Source\PSoC5/cyfitter_cfg.c **** 	}
 357              		.loc 1 236 0
 358 0144 FFF7FEFF 		bl	CyDelayCycles
 359              	.LVL25:
 233:Generated_Source\PSoC5/cyfitter_cfg.c **** 	{ 
 360              		.loc 1 233 0
 361 0148 013D     		subs	r5, r5, #1
 235:Generated_Source\PSoC5/cyfitter_cfg.c **** 		CyDelayCycles(10u * 48u); /* Delay 10us based on 48MHz clock */
 362              		.loc 1 235 0
 363 014a 04F00304 		and	r4, r4, #3
 364              	.LVL26:
 233:Generated_Source\PSoC5/cyfitter_cfg.c **** 	{ 
 365              		.loc 1 233 0
 366 014e F0D1     		bne	.L26
 367              	.L9:
 368 0150 FEE7     		b	.L9
 369              	.L25:
ARM GAS  C:\Users\Mattia\AppData\Local\Temp\ccFR5PWW.s 			page 24


 245:Generated_Source\PSoC5/cyfitter_cfg.c **** 	CY_SET_XTND_REG8((void CYFAR *)(CYREG_CLKDIST_MSTR0), 0x07u);
 370              		.loc 1 245 0
 371 0152 294B     		ldr	r3, .L27+60
 248:Generated_Source\PSoC5/cyfitter_cfg.c **** 	CY_SET_XTND_REG8((void CYFAR *)(CYREG_CLKDIST_MSTR0), 0x00u);
 372              		.loc 1 248 0
 373 0154 294D     		ldr	r5, .L27+64
 247:Generated_Source\PSoC5/cyfitter_cfg.c **** 	CY_SET_XTND_REG8((void CYFAR *)(CYREG_CLKDIST_BCFG2), 0x48u);
 374              		.loc 1 247 0
 375 0156 2A4F     		ldr	r7, .L27+68
 250:Generated_Source\PSoC5/cyfitter_cfg.c **** 
 376              		.loc 1 250 0
 377 0158 2A48     		ldr	r0, .L27+72
 245:Generated_Source\PSoC5/cyfitter_cfg.c **** 	CY_SET_XTND_REG8((void CYFAR *)(CYREG_CLKDIST_MSTR0), 0x07u);
 378              		.loc 1 245 0
 379 015a 4FF48074 		mov	r4, #256
 380              	.LVL27:
 246:Generated_Source\PSoC5/cyfitter_cfg.c **** 	CY_SET_XTND_REG8((void CYFAR *)(CYREG_CLKDIST_BCFG0), 0x00u);
 381              		.loc 1 246 0
 382 015e 0722     		movs	r2, #7
 245:Generated_Source\PSoC5/cyfitter_cfg.c **** 	CY_SET_XTND_REG8((void CYFAR *)(CYREG_CLKDIST_MSTR0), 0x07u);
 383              		.loc 1 245 0
 384 0160 1C80     		strh	r4, [r3]	@ movhi
 247:Generated_Source\PSoC5/cyfitter_cfg.c **** 	CY_SET_XTND_REG8((void CYFAR *)(CYREG_CLKDIST_BCFG2), 0x48u);
 385              		.loc 1 247 0
 386 0162 0021     		movs	r1, #0
 246:Generated_Source\PSoC5/cyfitter_cfg.c **** 	CY_SET_XTND_REG8((void CYFAR *)(CYREG_CLKDIST_BCFG0), 0x00u);
 387              		.loc 1 246 0
 388 0164 1A70     		strb	r2, [r3]
 248:Generated_Source\PSoC5/cyfitter_cfg.c **** 	CY_SET_XTND_REG8((void CYFAR *)(CYREG_CLKDIST_MSTR0), 0x00u);
 389              		.loc 1 248 0
 390 0166 4826     		movs	r6, #72
 252:Generated_Source\PSoC5/cyfitter_cfg.c **** }
 391              		.loc 1 252 0
 392 0168 274A     		ldr	r2, .L27+76
 250:Generated_Source\PSoC5/cyfitter_cfg.c **** 
 393              		.loc 1 250 0
 394 016a 0224     		movs	r4, #2
 247:Generated_Source\PSoC5/cyfitter_cfg.c **** 	CY_SET_XTND_REG8((void CYFAR *)(CYREG_CLKDIST_BCFG2), 0x48u);
 395              		.loc 1 247 0
 396 016c 3970     		strb	r1, [r7]
 248:Generated_Source\PSoC5/cyfitter_cfg.c **** 	CY_SET_XTND_REG8((void CYFAR *)(CYREG_CLKDIST_MSTR0), 0x00u);
 397              		.loc 1 248 0
 398 016e 2E70     		strb	r6, [r5]
 249:Generated_Source\PSoC5/cyfitter_cfg.c **** 	CY_SET_XTND_REG8((void CYFAR *)(CYREG_CLKDIST_LD), 0x02u);
 399              		.loc 1 249 0
 400 0170 1970     		strb	r1, [r3]
 250:Generated_Source\PSoC5/cyfitter_cfg.c **** 
 401              		.loc 1 250 0
 402 0172 0470     		strb	r4, [r0]
 252:Generated_Source\PSoC5/cyfitter_cfg.c **** }
 403              		.loc 1 252 0
 404 0174 1378     		ldrb	r3, [r2]	@ zero_extendqisi2
 405              	.LBE59:
 406              	.LBE82:
 888:Generated_Source\PSoC5/cyfitter_cfg.c **** 	/* Setup clocks based on selections from Clock DWR */
 889:Generated_Source\PSoC5/cyfitter_cfg.c **** 	ClockSetup();
 890:Generated_Source\PSoC5/cyfitter_cfg.c **** 	/* Set Flash Cycles based on newly configured 24.00MHz Bus Clock. */
ARM GAS  C:\Users\Mattia\AppData\Local\Temp\ccFR5PWW.s 			page 25


 891:Generated_Source\PSoC5/cyfitter_cfg.c **** 	CY_SET_XTND_REG8((void CYFAR *)(CYREG_CACHE_CC_CTL), (((CYDEV_INSTRUCT_CACHE_ENABLED) != 0) ? 0x81
 892:Generated_Source\PSoC5/cyfitter_cfg.c **** 	CY_SET_XTND_REG8((void CYFAR *)(CYREG_PANTHER_WAITPIPE), 0x01u);
 407              		.loc 1 892 0
 408 0176 00F5F820 		add	r0, r0, #507904
 409 017a 0330     		adds	r0, r0, #3
 410              	.LBB83:
 411              	.LBB60:
 252:Generated_Source\PSoC5/cyfitter_cfg.c **** }
 412              		.loc 1 252 0
 413 017c 43F00103 		orr	r3, r3, #1
 414              	.LBE60:
 415              	.LBE83:
 891:Generated_Source\PSoC5/cyfitter_cfg.c **** 	CY_SET_XTND_REG8((void CYFAR *)(CYREG_PANTHER_WAITPIPE), 0x01u);
 416              		.loc 1 891 0
 417 0180 8126     		movs	r6, #129
 418              		.loc 1 892 0
 419 0182 0124     		movs	r4, #1
 420              	.LBB84:
 421              	.LBB85:
 277:Generated_Source\PSoC5/cyfitter_cfg.c **** 	CY_SET_XTND_REG8((void CYFAR *)(CYREG_BG_DFT0), (bg_xover_inl_trim & 0x07u));
 422              		.loc 1 277 0
 423 0184 2149     		ldr	r1, .L27+80
 424              	.LBE85:
 425              	.LBE84:
 426              	.LBB90:
 427              	.LBB61:
 252:Generated_Source\PSoC5/cyfitter_cfg.c **** }
 428              		.loc 1 252 0
 429 0186 1370     		strb	r3, [r2]
 430              	.LBE61:
 431              	.LBE90:
 891:Generated_Source\PSoC5/cyfitter_cfg.c **** 	CY_SET_XTND_REG8((void CYFAR *)(CYREG_PANTHER_WAITPIPE), 0x01u);
 432              		.loc 1 891 0
 433 0188 85F8F867 		strb	r6, [r5, #2040]
 434              		.loc 1 892 0
 435 018c 0470     		strb	r4, [r0]
 436              	.LBB91:
 437              	.LBB86:
 277:Generated_Source\PSoC5/cyfitter_cfg.c **** 	CY_SET_XTND_REG8((void CYFAR *)(CYREG_BG_DFT0), (bg_xover_inl_trim & 0x07u));
 438              		.loc 1 277 0
 439 018e 0B78     		ldrb	r3, [r1]	@ zero_extendqisi2
 278:Generated_Source\PSoC5/cyfitter_cfg.c **** 	CY_SET_XTND_REG8((void CYFAR *)(CYREG_BG_DFT1), ((bg_xover_inl_trim >> 4) & 0x0Fu));
 440              		.loc 1 278 0
 441 0190 A0F5F420 		sub	r0, r0, #499712
 277:Generated_Source\PSoC5/cyfitter_cfg.c **** 	CY_SET_XTND_REG8((void CYFAR *)(CYREG_BG_DFT0), (bg_xover_inl_trim & 0x07u));
 442              		.loc 1 277 0
 443 0194 DBB2     		uxtb	r3, r3
 444              	.LVL28:
 279:Generated_Source\PSoC5/cyfitter_cfg.c **** 	CY_SET_XTND_REG8((void CYFAR *)CYREG_PUMP_CR0, 0x44u);
 445              		.loc 1 279 0
 446 0196 1E49     		ldr	r1, .L27+84
 278:Generated_Source\PSoC5/cyfitter_cfg.c **** 	CY_SET_XTND_REG8((void CYFAR *)(CYREG_BG_DFT1), ((bg_xover_inl_trim >> 4) & 0x0Fu));
 447              		.loc 1 278 0
 448 0198 A0F29670 		subw	r0, r0, #1942
 280:Generated_Source\PSoC5/cyfitter_cfg.c **** }
 449              		.loc 1 280 0
 450 019c 05F5C355 		add	r5, r5, #6240
ARM GAS  C:\Users\Mattia\AppData\Local\Temp\ccFR5PWW.s 			page 26


 278:Generated_Source\PSoC5/cyfitter_cfg.c **** 	CY_SET_XTND_REG8((void CYFAR *)(CYREG_BG_DFT1), ((bg_xover_inl_trim >> 4) & 0x0Fu));
 451              		.loc 1 278 0
 452 01a0 03F00707 		and	r7, r3, #7
 453              	.LBE86:
 454              	.LBE91:
 455              	.LBB92:
 456              	.LBB93:
  86:Generated_Source\PSoC5/cyfitter_cfg.c **** }
 457              		.loc 1 86 0
 458 01a4 1B4C     		ldr	r4, .L27+88
 459              	.LBE93:
 460              	.LBE92:
 461              	.LBB97:
 462              	.LBB87:
 279:Generated_Source\PSoC5/cyfitter_cfg.c **** 	CY_SET_XTND_REG8((void CYFAR *)CYREG_PUMP_CR0, 0x44u);
 463              		.loc 1 279 0
 464 01a6 1B09     		lsrs	r3, r3, #4
 465              	.LVL29:
 278:Generated_Source\PSoC5/cyfitter_cfg.c **** 	CY_SET_XTND_REG8((void CYFAR *)(CYREG_BG_DFT1), ((bg_xover_inl_trim >> 4) & 0x0Fu));
 466              		.loc 1 278 0
 467 01a8 0770     		strb	r7, [r0]
 468              	.LBE87:
 469              	.LBE97:
 470              	.LBB98:
 471              	.LBB94:
  86:Generated_Source\PSoC5/cyfitter_cfg.c **** }
 472              		.loc 1 86 0
 473 01aa 023A     		subs	r2, r2, #2
 474              	.LBE94:
 475              	.LBE98:
 476              	.LBB99:
 477              	.LBB88:
 279:Generated_Source\PSoC5/cyfitter_cfg.c **** 	CY_SET_XTND_REG8((void CYFAR *)CYREG_PUMP_CR0, 0x44u);
 478              		.loc 1 279 0
 479 01ac 0B70     		strb	r3, [r1]
 280:Generated_Source\PSoC5/cyfitter_cfg.c **** }
 480              		.loc 1 280 0
 481 01ae 0E35     		adds	r5, r5, #14
 482 01b0 4426     		movs	r6, #68
 483              	.LBE88:
 484              	.LBE99:
 485              	.LBB100:
 486              	.LBB95:
  86:Generated_Source\PSoC5/cyfitter_cfg.c **** }
 487              		.loc 1 86 0
 488 01b2 0FCA     		ldmia	r2, {r0, r1, r2, r3}
 489              	.LBE95:
 490              	.LBE100:
 491              	.LBB101:
 492              	.LBB89:
 280:Generated_Source\PSoC5/cyfitter_cfg.c **** }
 493              		.loc 1 280 0
 494 01b4 2E70     		strb	r6, [r5]
 495              	.LVL30:
 496              	.LBE89:
 497              	.LBE101:
 498              	.LBB102:
ARM GAS  C:\Users\Mattia\AppData\Local\Temp\ccFR5PWW.s 			page 27


 499              	.LBB96:
  86:Generated_Source\PSoC5/cyfitter_cfg.c **** }
 500              		.loc 1 86 0
 501 01b6 07C4     		stmia	r4!, {r0, r1, r2}
 502 01b8 2380     		strh	r3, [r4]	@ movhi
 503              	.LVL31:
 504 01ba F8BD     		pop	{r3, r4, r5, r6, r7, pc}
 505              	.L28:
 506              		.align	2
 507              	.L27:
 508 01bc 00000000 		.word	.LANCHOR0
 509 01c0 3C000000 		.word	.LANCHOR0+60
 510 01c4 60520040 		.word	1073762912
 511 01c8 001A0140 		.word	1073814016
 512 01cc 03500140 		.word	1073827843
 513 01d0 13500140 		.word	1073827859
 514 01d4 A0430040 		.word	1073759136
 515 01d8 60040000 		.word	.LANCHOR0+1120
 516 01dc 22430040 		.word	1073759010
 517 01e0 80400040 		.word	1073758336
 518 01e4 82400040 		.word	1073758338
 519 01e8 00420040 		.word	1073758720
 520 01ec 08010049 		.word	1224737032
 521 01f0 20420040 		.word	1073758752
 522 01f4 25420040 		.word	1073758757
 523 01f8 04400040 		.word	1073758212
 524 01fc 08400040 		.word	1073758216
 525 0200 06400040 		.word	1073758214
 526 0204 01400040 		.word	1073758209
 527 0208 A2430040 		.word	1073759138
 528 020c CF010049 		.word	1224737231
 529 0210 6F580040 		.word	1073764463
 530 0214 B0430040 		.word	1073759152
 531              	.LBE96:
 532              	.LBE102:
 533              		.cfi_endproc
 534              	.LFE8:
 535              		.size	cyfitter_cfg, .-cyfitter_cfg
 536              		.section	.rodata
 537              		.align	2
 538              		.set	.LANCHOR0,. + 0
 539              		.type	cfg_memset_list.5023, %object
 540              		.size	cfg_memset_list.5023, 60
 541              	cfg_memset_list.5023:
 542 0000 00510040 		.word	1073762560
 543 0004 1000     		.short	16
 544 0006 20510040 		.4byte	1073762592
 545 000a 1000     		.short	16
 546 000c 40510040 		.word	1073762624
 547 0010 3000     		.short	48
 548 0012 F0510040 		.4byte	1073762800
 549 0016 1000     		.short	16
 550 0018 00000140 		.word	1073807360
 551 001c 0010     		.short	4096
 552 001e 00140140 		.4byte	1073812480
 553 0022 0006     		.short	1536
 554 0024 801A0140 		.word	1073814144
ARM GAS  C:\Users\Mattia\AppData\Local\Temp\ccFR5PWW.s 			page 28


 555 0028 8001     		.short	384
 556 002a 00400140 		.4byte	1073823744
 557 002e 000A     		.short	2560
 558 0030 004C0140 		.word	1073826816
 559 0034 0002     		.short	512
 560 0036 00500140 		.4byte	1073827840
 561 003a 2000     		.short	32
 562              		.type	BS_IOPORT_7_VAL.5024, %object
 563              		.size	BS_IOPORT_7_VAL.5024, 6
 564              	BS_IOPORT_7_VAL.5024:
 565 003c 10       		.byte	16
 566 003d 90       		.byte	-112
 567 003e 00       		.byte	0
 568 003f 00       		.byte	0
 569 0040 40       		.byte	64
 570 0041 00       		.byte	0
 571 0042 0000     		.space	2
 572              		.type	BS_UDB_0_0_0_CONFIG_VAL.5025, %object
 573              		.size	BS_UDB_0_0_0_CONFIG_VAL.5025, 128
 574              	BS_UDB_0_0_0_CONFIG_VAL.5025:
 575 0044 CF       		.byte	-49
 576 0045 08       		.byte	8
 577 0046 30       		.byte	48
 578 0047 42       		.byte	66
 579 0048 C3       		.byte	-61
 580 0049 00       		.byte	0
 581 004a 3C       		.byte	60
 582 004b 08       		.byte	8
 583 004c 00       		.byte	0
 584 004d 10       		.byte	16
 585 004e 00       		.byte	0
 586 004f 00       		.byte	0
 587 0050 08       		.byte	8
 588 0051 20       		.byte	32
 589 0052 00       		.byte	0
 590 0053 00       		.byte	0
 591 0054 00       		.byte	0
 592 0055 20       		.byte	32
 593 0056 F3       		.byte	-13
 594 0057 00       		.byte	0
 595 0058 0C       		.byte	12
 596 0059 30       		.byte	48
 597 005a F3       		.byte	-13
 598 005b 00       		.byte	0
 599 005c 3D       		.byte	61
 600 005d 0F       		.byte	15
 601 005e C0       		.byte	-64
 602 005f F0       		.byte	-16
 603 0060 08       		.byte	8
 604 0061 00       		.byte	0
 605 0062 00       		.byte	0
 606 0063 84       		.byte	-124
 607 0064 02       		.byte	2
 608 0065 3F       		.byte	63
 609 0066 20       		.byte	32
 610 0067 C0       		.byte	-64
 611 0068 04       		.byte	4
ARM GAS  C:\Users\Mattia\AppData\Local\Temp\ccFR5PWW.s 			page 29


 612 0069 F8       		.byte	-8
 613 006a 00       		.byte	0
 614 006b 01       		.byte	1
 615 006c 0C       		.byte	12
 616 006d 39       		.byte	57
 617 006e 00       		.byte	0
 618 006f C6       		.byte	-58
 619 0070 43       		.byte	67
 620 0071 00       		.byte	0
 621 0072 10       		.byte	16
 622 0073 C7       		.byte	-57
 623 0074 40       		.byte	64
 624 0075 31       		.byte	49
 625 0076 8C       		.byte	-116
 626 0077 00       		.byte	0
 627 0078 3F       		.byte	63
 628 0079 00       		.byte	0
 629 007a 00       		.byte	0
 630 007b FF       		.byte	-1
 631 007c 00       		.byte	0
 632 007d 00       		.byte	0
 633 007e 28       		.byte	40
 634 007f 00       		.byte	0
 635 0080 00       		.byte	0
 636 0081 00       		.byte	0
 637 0082 00       		.byte	0
 638 0083 40       		.byte	64
 639 0084 21       		.byte	33
 640 0085 05       		.byte	5
 641 0086 04       		.byte	4
 642 0087 00       		.byte	0
 643 0088 03       		.byte	3
 644 0089 0C       		.byte	12
 645 008a 00       		.byte	0
 646 008b E0       		.byte	-32
 647 008c 21       		.byte	33
 648 008d FF       		.byte	-1
 649 008e FF       		.byte	-1
 650 008f FF       		.byte	-1
 651 0090 62       		.byte	98
 652 0091 A0       		.byte	-96
 653 0092 F0       		.byte	-16
 654 0093 41       		.byte	65
 655 0094 0C       		.byte	12
 656 0095 00       		.byte	0
 657 0096 00       		.byte	0
 658 0097 00       		.byte	0
 659 0098 00       		.byte	0
 660 0099 00       		.byte	0
 661 009a 00       		.byte	0
 662 009b 00       		.byte	0
 663 009c 04       		.byte	4
 664 009d 04       		.byte	4
 665 009e 04       		.byte	4
 666 009f 04       		.byte	4
 667 00a0 00       		.byte	0
 668 00a1 00       		.byte	0
ARM GAS  C:\Users\Mattia\AppData\Local\Temp\ccFR5PWW.s 			page 30


 669 00a2 00       		.byte	0
 670 00a3 01       		.byte	1
 671 00a4 00       		.byte	0
 672 00a5 00       		.byte	0
 673 00a6 00       		.byte	0
 674 00a7 00       		.byte	0
 675 00a8 00       		.byte	0
 676 00a9 00       		.byte	0
 677 00aa 40       		.byte	64
 678 00ab 02       		.byte	2
 679 00ac 00       		.byte	0
 680 00ad 10       		.byte	16
 681 00ae 30       		.byte	48
 682 00af 10       		.byte	16
 683 00b0 00       		.byte	0
 684 00b1 10       		.byte	16
 685 00b2 10       		.byte	16
 686 00b3 12       		.byte	18
 687 00b4 00       		.byte	0
 688 00b5 00       		.byte	0
 689 00b6 00       		.byte	0
 690 00b7 00       		.byte	0
 691 00b8 00       		.byte	0
 692 00b9 00       		.byte	0
 693 00ba 00       		.byte	0
 694 00bb 00       		.byte	0
 695 00bc 00       		.byte	0
 696 00bd 00       		.byte	0
 697 00be 00       		.byte	0
 698 00bf 00       		.byte	0
 699 00c0 00       		.byte	0
 700 00c1 00       		.byte	0
 701 00c2 00       		.byte	0
 702 00c3 00       		.byte	0
 703              		.type	cy_cfg_addr_table.5012, %object
 704              		.size	cy_cfg_addr_table.5012, 96
 705              	cy_cfg_addr_table.5012:
 706 00c4 02520040 		.word	1073762818
 707 00c8 01640040 		.word	1073767425
 708 00cc 02650040 		.word	1073767682
 709 00d0 01070140 		.word	1073809153
 710 00d4 54080140 		.word	1073809492
 711 00d8 36090140 		.word	1073809718
 712 00dc 04140140 		.word	1073812484
 713 00e0 03150140 		.word	1073812739
 714 00e4 02170140 		.word	1073813250
 715 00e8 4D180140 		.word	1073813581
 716 00ec 3F190140 		.word	1073813823
 717 00f0 0D1A0140 		.word	1073814029
 718 00f4 421B0140 		.word	1073814338
 719 00f8 03400140 		.word	1073823747
 720 00fc 02410140 		.word	1073824002
 721 0100 02420140 		.word	1073824258
 722 0104 04430140 		.word	1073824516
 723 0108 01470140 		.word	1073825537
 724 010c 01480140 		.word	1073825793
 725 0110 02490140 		.word	1073826050
ARM GAS  C:\Users\Mattia\AppData\Local\Temp\ccFR5PWW.s 			page 31


 726 0114 094C0140 		.word	1073826825
 727 0118 0D4D0140 		.word	1073827085
 728 011c 04500140 		.word	1073827844
 729 0120 01510140 		.word	1073828097
 730              		.type	cy_cfg_data_table.5013, %object
 731              		.size	cy_cfg_data_table.5013, 828
 732              	cy_cfg_data_table.5013:
 733 0124 08       		.byte	8
 734 0125 04       		.byte	4
 735 0126 09       		.byte	9
 736 0127 10       		.byte	16
 737 0128 89       		.byte	-119
 738 0129 3A       		.byte	58
 739 012a 89       		.byte	-119
 740 012b 69       		.byte	105
 741 012c 8B       		.byte	-117
 742 012d 0F       		.byte	15
 743 012e E6       		.byte	-26
 744 012f 02       		.byte	2
 745 0130 03       		.byte	3
 746 0131 01       		.byte	1
 747 0132 04       		.byte	4
 748 0133 61       		.byte	97
 749 0134 06       		.byte	6
 750 0135 0E       		.byte	14
 751 0136 07       		.byte	7
 752 0137 18       		.byte	24
 753 0138 09       		.byte	9
 754 0139 48       		.byte	72
 755 013a 0A       		.byte	10
 756 013b 40       		.byte	64
 757 013c 0B       		.byte	11
 758 013d 86       		.byte	-122
 759 013e 0E       		.byte	14
 760 013f 08       		.byte	8
 761 0140 11       		.byte	17
 762 0141 80       		.byte	-128
 763 0142 13       		.byte	19
 764 0143 65       		.byte	101
 765 0144 14       		.byte	20
 766 0145 2C       		.byte	44
 767 0146 15       		.byte	21
 768 0147 E6       		.byte	-26
 769 0148 16       		.byte	22
 770 0149 43       		.byte	67
 771 014a 17       		.byte	23
 772 014b 11       		.byte	17
 773 014c 19       		.byte	25
 774 014d 60       		.byte	96
 775 014e 1B       		.byte	27
 776 014f 8B       		.byte	-117
 777 0150 1E       		.byte	30
 778 0151 43       		.byte	67
 779 0152 20       		.byte	32
 780 0153 61       		.byte	97
 781 0154 21       		.byte	33
 782 0155 A0       		.byte	-96
ARM GAS  C:\Users\Mattia\AppData\Local\Temp\ccFR5PWW.s 			page 32


 783 0156 22       		.byte	34
 784 0157 06       		.byte	6
 785 0158 26       		.byte	38
 786 0159 0C       		.byte	12
 787 015a 28       		.byte	40
 788 015b 10       		.byte	16
 789 015c 2D       		.byte	45
 790 015d 80       		.byte	-128
 791 015e 2F       		.byte	47
 792 015f 02       		.byte	2
 793 0160 30       		.byte	48
 794 0161 20       		.byte	32
 795 0162 32       		.byte	50
 796 0163 0F       		.byte	15
 797 0164 33       		.byte	51
 798 0165 07       		.byte	7
 799 0166 34       		.byte	52
 800 0167 10       		.byte	16
 801 0168 35       		.byte	53
 802 0169 F8       		.byte	-8
 803 016a 36       		.byte	54
 804 016b 40       		.byte	64
 805 016c 38       		.byte	56
 806 016d 02       		.byte	2
 807 016e 3A       		.byte	58
 808 016f 08       		.byte	8
 809 0170 3B       		.byte	59
 810 0171 08       		.byte	8
 811 0172 3E       		.byte	62
 812 0173 50       		.byte	80
 813 0174 40       		.byte	64
 814 0175 03       		.byte	3
 815 0176 47       		.byte	71
 816 0177 40       		.byte	64
 817 0178 49       		.byte	73
 818 0179 FF       		.byte	-1
 819 017a 4A       		.byte	74
 820 017b 07       		.byte	7
 821 017c 4B       		.byte	75
 822 017d FF       		.byte	-1
 823 017e 4C       		.byte	76
 824 017f 40       		.byte	64
 825 0180 4D       		.byte	77
 826 0181 20       		.byte	32
 827 0182 4E       		.byte	78
 828 0183 F0       		.byte	-16
 829 0184 4F       		.byte	79
 830 0185 05       		.byte	5
 831 0186 50       		.byte	80
 832 0187 08       		.byte	8
 833 0188 58       		.byte	88
 834 0189 04       		.byte	4
 835 018a 59       		.byte	89
 836 018b 04       		.byte	4
 837 018c 5A       		.byte	90
 838 018d 04       		.byte	4
 839 018e 5F       		.byte	95
ARM GAS  C:\Users\Mattia\AppData\Local\Temp\ccFR5PWW.s 			page 33


 840 018f 01       		.byte	1
 841 0190 60       		.byte	96
 842 0191 40       		.byte	64
 843 0192 61       		.byte	97
 844 0193 A8       		.byte	-88
 845 0194 62       		.byte	98
 846 0195 40       		.byte	64
 847 0196 63       		.byte	99
 848 0197 20       		.byte	32
 849 0198 83       		.byte	-125
 850 0199 20       		.byte	32
 851 019a 85       		.byte	-123
 852 019b 03       		.byte	3
 853 019c 87       		.byte	-121
 854 019d 04       		.byte	4
 855 019e 8A       		.byte	-118
 856 019f 02       		.byte	2
 857 01a0 8B       		.byte	-117
 858 01a1 08       		.byte	8
 859 01a2 8D       		.byte	-115
 860 01a3 03       		.byte	3
 861 01a4 8E       		.byte	-114
 862 01a5 02       		.byte	2
 863 01a6 8F       		.byte	-113
 864 01a7 0C       		.byte	12
 865 01a8 90       		.byte	-112
 866 01a9 01       		.byte	1
 867 01aa 93       		.byte	-109
 868 01ab 10       		.byte	16
 869 01ac 95       		.byte	-107
 870 01ad 0A       		.byte	10
 871 01ae 97       		.byte	-105
 872 01af 04       		.byte	4
 873 01b0 98       		.byte	-104
 874 01b1 01       		.byte	1
 875 01b2 99       		.byte	-103
 876 01b3 03       		.byte	3
 877 01b4 9B       		.byte	-101
 878 01b5 04       		.byte	4
 879 01b6 A7       		.byte	-89
 880 01b7 10       		.byte	16
 881 01b8 A8       		.byte	-88
 882 01b9 01       		.byte	1
 883 01ba AF       		.byte	-81
 884 01bb 05       		.byte	5
 885 01bc B0       		.byte	-80
 886 01bd 01       		.byte	1
 887 01be B1       		.byte	-79
 888 01bf 0F       		.byte	15
 889 01c0 B3       		.byte	-77
 890 01c1 20       		.byte	32
 891 01c2 B5       		.byte	-75
 892 01c3 10       		.byte	16
 893 01c4 B6       		.byte	-74
 894 01c5 02       		.byte	2
 895 01c6 BB       		.byte	-69
 896 01c7 02       		.byte	2
ARM GAS  C:\Users\Mattia\AppData\Local\Temp\ccFR5PWW.s 			page 34


 897 01c8 BE       		.byte	-66
 898 01c9 40       		.byte	64
 899 01ca BF       		.byte	-65
 900 01cb 10       		.byte	16
 901 01cc D4       		.byte	-44
 902 01cd 1A       		.byte	26
 903 01ce D6       		.byte	-42
 904 01cf 04       		.byte	4
 905 01d0 D8       		.byte	-40
 906 01d1 04       		.byte	4
 907 01d2 D9       		.byte	-39
 908 01d3 04       		.byte	4
 909 01d4 DB       		.byte	-37
 910 01d5 04       		.byte	4
 911 01d6 DF       		.byte	-33
 912 01d7 01       		.byte	1
 913 01d8 00       		.byte	0
 914 01d9 A0       		.byte	-96
 915 01da 05       		.byte	5
 916 01db 80       		.byte	-128
 917 01dc 06       		.byte	6
 918 01dd 05       		.byte	5
 919 01de 07       		.byte	7
 920 01df 10       		.byte	16
 921 01e0 08       		.byte	8
 922 01e1 80       		.byte	-128
 923 01e2 0A       		.byte	10
 924 01e3 45       		.byte	69
 925 01e4 0E       		.byte	14
 926 01e5 20       		.byte	32
 927 01e6 0F       		.byte	15
 928 01e7 02       		.byte	2
 929 01e8 11       		.byte	17
 930 01e9 10       		.byte	16
 931 01ea 15       		.byte	21
 932 01eb 02       		.byte	2
 933 01ec 16       		.byte	22
 934 01ed 18       		.byte	24
 935 01ee 19       		.byte	25
 936 01ef 40       		.byte	64
 937 01f0 1B       		.byte	27
 938 01f1 02       		.byte	2
 939 01f2 1D       		.byte	29
 940 01f3 24       		.byte	36
 941 01f4 1E       		.byte	30
 942 01f5 21       		.byte	33
 943 01f6 1F       		.byte	31
 944 01f7 01       		.byte	1
 945 01f8 20       		.byte	32
 946 01f9 40       		.byte	64
 947 01fa 21       		.byte	33
 948 01fb 05       		.byte	5
 949 01fc 22       		.byte	34
 950 01fd 02       		.byte	2
 951 01fe 23       		.byte	35
 952 01ff 04       		.byte	4
 953 0200 24       		.byte	36
ARM GAS  C:\Users\Mattia\AppData\Local\Temp\ccFR5PWW.s 			page 35


 954 0201 04       		.byte	4
 955 0202 27       		.byte	39
 956 0203 10       		.byte	16
 957 0204 2B       		.byte	43
 958 0205 21       		.byte	33
 959 0206 2D       		.byte	45
 960 0207 80       		.byte	-128
 961 0208 2E       		.byte	46
 962 0209 02       		.byte	2
 963 020a 31       		.byte	49
 964 020b 06       		.byte	6
 965 020c 33       		.byte	51
 966 020d 10       		.byte	16
 967 020e 35       		.byte	53
 968 020f 04       		.byte	4
 969 0210 36       		.byte	54
 970 0211 02       		.byte	2
 971 0212 37       		.byte	55
 972 0213 10       		.byte	16
 973 0214 38       		.byte	56
 974 0215 52       		.byte	82
 975 0216 3A       		.byte	58
 976 0217 14       		.byte	20
 977 0218 3C       		.byte	60
 978 0219 14       		.byte	20
 979 021a 3E       		.byte	62
 980 021b 08       		.byte	8
 981 021c 3F       		.byte	63
 982 021d 02       		.byte	2
 983 021e 45       		.byte	69
 984 021f 08       		.byte	8
 985 0220 4F       		.byte	79
 986 0221 02       		.byte	2
 987 0222 56       		.byte	86
 988 0223 01       		.byte	1
 989 0224 59       		.byte	89
 990 0225 02       		.byte	2
 991 0226 5A       		.byte	90
 992 0227 20       		.byte	32
 993 0228 61       		.byte	97
 994 0229 40       		.byte	64
 995 022a 63       		.byte	99
 996 022b 44       		.byte	68
 997 022c 85       		.byte	-123
 998 022d 20       		.byte	32
 999 022e 87       		.byte	-121
 1000 022f 40       		.byte	64
 1001 0230 C0       		.byte	-64
 1002 0231 E3       		.byte	-29
 1003 0232 C2       		.byte	-62
 1004 0233 AA       		.byte	-86
 1005 0234 C4       		.byte	-60
 1006 0235 72       		.byte	114
 1007 0236 CA       		.byte	-54
 1008 0237 9A       		.byte	-102
 1009 0238 CC       		.byte	-52
 1010 0239 E7       		.byte	-25
ARM GAS  C:\Users\Mattia\AppData\Local\Temp\ccFR5PWW.s 			page 36


 1011 023a CE       		.byte	-50
 1012 023b EF       		.byte	-17
 1013 023c D0       		.byte	-48
 1014 023d 40       		.byte	64
 1015 023e D6       		.byte	-42
 1016 023f 05       		.byte	5
 1017 0240 D8       		.byte	-40
 1018 0241 0D       		.byte	13
 1019 0242 E0       		.byte	-32
 1020 0243 08       		.byte	8
 1021 0244 B9       		.byte	-71
 1022 0245 02       		.byte	2
 1023 0246 BF       		.byte	-65
 1024 0247 01       		.byte	1
 1025 0248 D9       		.byte	-39
 1026 0249 04       		.byte	4
 1027 024a DF       		.byte	-33
 1028 024b 01       		.byte	1
 1029 024c 27       		.byte	39
 1030 024d 80       		.byte	-128
 1031 024e 9F       		.byte	-97
 1032 024f 80       		.byte	-128
 1033 0250 E6       		.byte	-26
 1034 0251 40       		.byte	64
 1035 0252 87       		.byte	-121
 1036 0253 80       		.byte	-128
 1037 0254 E0       		.byte	-32
 1038 0255 02       		.byte	2
 1039 0256 01       		.byte	1
 1040 0257 02       		.byte	2
 1041 0258 0B       		.byte	11
 1042 0259 01       		.byte	1
 1043 025a 10       		.byte	16
 1044 025b 01       		.byte	1
 1045 025c 14       		.byte	20
 1046 025d 04       		.byte	4
 1047 025e 19       		.byte	25
 1048 025f 01       		.byte	1
 1049 0260 1E       		.byte	30
 1050 0261 02       		.byte	2
 1051 0262 20       		.byte	32
 1052 0263 06       		.byte	6
 1053 0264 28       		.byte	40
 1054 0265 06       		.byte	6
 1055 0266 2D       		.byte	45
 1056 0267 01       		.byte	1
 1057 0268 32       		.byte	50
 1058 0269 06       		.byte	6
 1059 026a 33       		.byte	51
 1060 026b 03       		.byte	3
 1061 026c 34       		.byte	52
 1062 026d 01       		.byte	1
 1063 026e 38       		.byte	56
 1064 026f 08       		.byte	8
 1065 0270 39       		.byte	57
 1066 0271 08       		.byte	8
 1067 0272 3E       		.byte	62
ARM GAS  C:\Users\Mattia\AppData\Local\Temp\ccFR5PWW.s 			page 37


 1068 0273 14       		.byte	20
 1069 0274 40       		.byte	64
 1070 0275 45       		.byte	69
 1071 0276 41       		.byte	65
 1072 0277 02       		.byte	2
 1073 0278 46       		.byte	70
 1074 0279 0E       		.byte	14
 1075 027a 47       		.byte	71
 1076 027b BC       		.byte	-68
 1077 027c 48       		.byte	72
 1078 027d 34       		.byte	52
 1079 027e 49       		.byte	73
 1080 027f FF       		.byte	-1
 1081 0280 4A       		.byte	74
 1082 0281 FF       		.byte	-1
 1083 0282 4B       		.byte	75
 1084 0283 FF       		.byte	-1
 1085 0284 4E       		.byte	78
 1086 0285 F0       		.byte	-16
 1087 0286 4F       		.byte	79
 1088 0287 44       		.byte	68
 1089 0288 50       		.byte	80
 1090 0289 0C       		.byte	12
 1091 028a 58       		.byte	88
 1092 028b 04       		.byte	4
 1093 028c 59       		.byte	89
 1094 028d 04       		.byte	4
 1095 028e 5A       		.byte	90
 1096 028f 04       		.byte	4
 1097 0290 5F       		.byte	95
 1098 0291 01       		.byte	1
 1099 0292 66       		.byte	102
 1100 0293 C0       		.byte	-64
 1101 0294 6A       		.byte	106
 1102 0295 40       		.byte	64
 1103 0296 6B       		.byte	107
 1104 0297 02       		.byte	2
 1105 0298 84       		.byte	-124
 1106 0299 03       		.byte	3
 1107 029a 85       		.byte	-123
 1108 029b 08       		.byte	8
 1109 029c 86       		.byte	-122
 1110 029d 0C       		.byte	12
 1111 029e 89       		.byte	-119
 1112 029f 08       		.byte	8
 1113 02a0 8D       		.byte	-115
 1114 02a1 08       		.byte	8
 1115 02a2 8E       		.byte	-114
 1116 02a3 0E       		.byte	14
 1117 02a4 91       		.byte	-111
 1118 02a5 08       		.byte	8
 1119 02a6 95       		.byte	-107
 1120 02a7 3D       		.byte	61
 1121 02a8 96       		.byte	-106
 1122 02a9 0F       		.byte	15
 1123 02aa 97       		.byte	-105
 1124 02ab 02       		.byte	2
ARM GAS  C:\Users\Mattia\AppData\Local\Temp\ccFR5PWW.s 			page 38


 1125 02ac 98       		.byte	-104
 1126 02ad 02       		.byte	2
 1127 02ae 99       		.byte	-103
 1128 02af 23       		.byte	35
 1129 02b0 9A       		.byte	-102
 1130 02b1 04       		.byte	4
 1131 02b2 9B       		.byte	-101
 1132 02b3 1C       		.byte	28
 1133 02b4 9D       		.byte	-99
 1134 02b5 1E       		.byte	30
 1135 02b6 9F       		.byte	-97
 1136 02b7 01       		.byte	1
 1137 02b8 A0       		.byte	-96
 1138 02b9 02       		.byte	2
 1139 02ba A1       		.byte	-95
 1140 02bb 27       		.byte	39
 1141 02bc A2       		.byte	-94
 1142 02bd 08       		.byte	8
 1143 02be A3       		.byte	-93
 1144 02bf 18       		.byte	24
 1145 02c0 A5       		.byte	-91
 1146 02c1 01       		.byte	1
 1147 02c2 A7       		.byte	-89
 1148 02c3 16       		.byte	22
 1149 02c4 A8       		.byte	-88
 1150 02c5 0C       		.byte	12
 1151 02c6 A9       		.byte	-87
 1152 02c7 26       		.byte	38
 1153 02c8 AA       		.byte	-86
 1154 02c9 03       		.byte	3
 1155 02ca AB       		.byte	-85
 1156 02cb 19       		.byte	25
 1157 02cc AC       		.byte	-84
 1158 02cd 03       		.byte	3
 1159 02ce AE       		.byte	-82
 1160 02cf 0C       		.byte	12
 1161 02d0 AF       		.byte	-81
 1162 02d1 1F       		.byte	31
 1163 02d2 B3       		.byte	-77
 1164 02d3 20       		.byte	32
 1165 02d4 B4       		.byte	-76
 1166 02d5 01       		.byte	1
 1167 02d6 B5       		.byte	-75
 1168 02d7 08       		.byte	8
 1169 02d8 B6       		.byte	-74
 1170 02d9 0E       		.byte	14
 1171 02da B7       		.byte	-73
 1172 02db 1F       		.byte	31
 1173 02dc B8       		.byte	-72
 1174 02dd 20       		.byte	32
 1175 02de BA       		.byte	-70
 1176 02df 80       		.byte	-128
 1177 02e0 BB       		.byte	-69
 1178 02e1 80       		.byte	-128
 1179 02e2 BF       		.byte	-65
 1180 02e3 04       		.byte	4
 1181 02e4 D6       		.byte	-42
ARM GAS  C:\Users\Mattia\AppData\Local\Temp\ccFR5PWW.s 			page 39


 1182 02e5 02       		.byte	2
 1183 02e6 D7       		.byte	-41
 1184 02e7 12       		.byte	18
 1185 02e8 D8       		.byte	-40
 1186 02e9 04       		.byte	4
 1187 02ea D9       		.byte	-39
 1188 02eb 04       		.byte	4
 1189 02ec DB       		.byte	-37
 1190 02ed 04       		.byte	4
 1191 02ee DF       		.byte	-33
 1192 02ef 01       		.byte	1
 1193 02f0 00       		.byte	0
 1194 02f1 04       		.byte	4
 1195 02f2 03       		.byte	3
 1196 02f3 02       		.byte	2
 1197 02f4 05       		.byte	5
 1198 02f5 20       		.byte	32
 1199 02f6 06       		.byte	6
 1200 02f7 04       		.byte	4
 1201 02f8 08       		.byte	8
 1202 02f9 28       		.byte	40
 1203 02fa 0E       		.byte	14
 1204 02fb 30       		.byte	48
 1205 02fc 0F       		.byte	15
 1206 02fd 82       		.byte	-126
 1207 02fe 12       		.byte	18
 1208 02ff 89       		.byte	-119
 1209 0300 15       		.byte	21
 1210 0301 02       		.byte	2
 1211 0302 16       		.byte	22
 1212 0303 C0       		.byte	-64
 1213 0304 17       		.byte	23
 1214 0305 10       		.byte	16
 1215 0306 19       		.byte	25
 1216 0307 80       		.byte	-128
 1217 0308 1B       		.byte	27
 1218 0309 A0       		.byte	-96
 1219 030a 1D       		.byte	29
 1220 030b 08       		.byte	8
 1221 030c 1E       		.byte	30
 1222 030d 08       		.byte	8
 1223 030e 22       		.byte	34
 1224 030f 94       		.byte	-108
 1225 0310 24       		.byte	36
 1226 0311 10       		.byte	16
 1227 0312 28       		.byte	40
 1228 0313 28       		.byte	40
 1229 0314 2A       		.byte	42
 1230 0315 01       		.byte	1
 1231 0316 2B       		.byte	43
 1232 0317 8A       		.byte	-118
 1233 0318 2E       		.byte	46
 1234 0319 80       		.byte	-128
 1235 031a 31       		.byte	49
 1236 031b 14       		.byte	20
 1237 031c 32       		.byte	50
 1238 031d 89       		.byte	-119
ARM GAS  C:\Users\Mattia\AppData\Local\Temp\ccFR5PWW.s 			page 40


 1239 031e 37       		.byte	55
 1240 031f 10       		.byte	16
 1241 0320 38       		.byte	56
 1242 0321 A8       		.byte	-88
 1243 0322 3E       		.byte	62
 1244 0323 10       		.byte	16
 1245 0324 3F       		.byte	63
 1246 0325 02       		.byte	2
 1247 0326 46       		.byte	70
 1248 0327 40       		.byte	64
 1249 0328 47       		.byte	71
 1250 0329 10       		.byte	16
 1251 032a 4E       		.byte	78
 1252 032b 02       		.byte	2
 1253 032c 56       		.byte	86
 1254 032d 06       		.byte	6
 1255 032e 57       		.byte	87
 1256 032f 40       		.byte	64
 1257 0330 5A       		.byte	90
 1258 0331 08       		.byte	8
 1259 0332 69       		.byte	105
 1260 0333 10       		.byte	16
 1261 0334 6A       		.byte	106
 1262 0335 46       		.byte	70
 1263 0336 70       		.byte	112
 1264 0337 5C       		.byte	92
 1265 0338 79       		.byte	121
 1266 0339 01       		.byte	1
 1267 033a 7A       		.byte	122
 1268 033b 02       		.byte	2
 1269 033c 7B       		.byte	123
 1270 033d 41       		.byte	65
 1271 033e 91       		.byte	-111
 1272 033f 0A       		.byte	10
 1273 0340 94       		.byte	-108
 1274 0341 12       		.byte	18
 1275 0342 95       		.byte	-107
 1276 0343 10       		.byte	16
 1277 0344 96       		.byte	-106
 1278 0345 64       		.byte	100
 1279 0346 98       		.byte	-104
 1280 0347 80       		.byte	-128
 1281 0348 9B       		.byte	-101
 1282 0349 10       		.byte	16
 1283 034a 9D       		.byte	-99
 1284 034b 02       		.byte	2
 1285 034c 9E       		.byte	-98
 1286 034d 06       		.byte	6
 1287 034e A2       		.byte	-94
 1288 034f 10       		.byte	16
 1289 0350 A3       		.byte	-93
 1290 0351 03       		.byte	3
 1291 0352 A4       		.byte	-92
 1292 0353 50       		.byte	80
 1293 0354 A5       		.byte	-91
 1294 0355 0A       		.byte	10
 1295 0356 A7       		.byte	-89
ARM GAS  C:\Users\Mattia\AppData\Local\Temp\ccFR5PWW.s 			page 41


 1296 0357 20       		.byte	32
 1297 0358 B7       		.byte	-73
 1298 0359 01       		.byte	1
 1299 035a C0       		.byte	-64
 1300 035b 05       		.byte	5
 1301 035c C2       		.byte	-62
 1302 035d B6       		.byte	-74
 1303 035e C4       		.byte	-60
 1304 035f 5B       		.byte	91
 1305 0360 CA       		.byte	-54
 1306 0361 1F       		.byte	31
 1307 0362 CC       		.byte	-52
 1308 0363 2F       		.byte	47
 1309 0364 CE       		.byte	-50
 1310 0365 AE       		.byte	-82
 1311 0366 D0       		.byte	-48
 1312 0367 A0       		.byte	-96
 1313 0368 D2       		.byte	-46
 1314 0369 10       		.byte	16
 1315 036a D6       		.byte	-42
 1316 036b 02       		.byte	2
 1317 036c E0       		.byte	-32
 1318 036d 02       		.byte	2
 1319 036e 84       		.byte	-124
 1320 036f 01       		.byte	1
 1321 0370 88       		.byte	-120
 1322 0371 01       		.byte	1
 1323 0372 8C       		.byte	-116
 1324 0373 01       		.byte	1
 1325 0374 96       		.byte	-106
 1326 0375 01       		.byte	1
 1327 0376 A2       		.byte	-94
 1328 0377 01       		.byte	1
 1329 0378 AE       		.byte	-82
 1330 0379 02       		.byte	2
 1331 037a B2       		.byte	-78
 1332 037b 03       		.byte	3
 1333 037c BA       		.byte	-70
 1334 037d 08       		.byte	8
 1335 037e D4       		.byte	-44
 1336 037f 01       		.byte	1
 1337 0380 D6       		.byte	-42
 1338 0381 04       		.byte	4
 1339 0382 D8       		.byte	-40
 1340 0383 04       		.byte	4
 1341 0384 DB       		.byte	-37
 1342 0385 04       		.byte	4
 1343 0386 DF       		.byte	-33
 1344 0387 01       		.byte	1
 1345 0388 00       		.byte	0
 1346 0389 44       		.byte	68
 1347 038a 03       		.byte	3
 1348 038b 80       		.byte	-128
 1349 038c 05       		.byte	5
 1350 038d 94       		.byte	-108
 1351 038e 08       		.byte	8
 1352 038f 12       		.byte	18
ARM GAS  C:\Users\Mattia\AppData\Local\Temp\ccFR5PWW.s 			page 42


 1353 0390 0A       		.byte	10
 1354 0391 12       		.byte	18
 1355 0392 0E       		.byte	14
 1356 0393 10       		.byte	16
 1357 0394 10       		.byte	16
 1358 0395 08       		.byte	8
 1359 0396 11       		.byte	17
 1360 0397 40       		.byte	64
 1361 0398 12       		.byte	18
 1362 0399 90       		.byte	-112
 1363 039a 15       		.byte	21
 1364 039b 80       		.byte	-128
 1365 039c 16       		.byte	22
 1366 039d 80       		.byte	-128
 1367 039e 18       		.byte	24
 1368 039f 04       		.byte	4
 1369 03a0 19       		.byte	25
 1370 03a1 16       		.byte	22
 1371 03a2 1E       		.byte	30
 1372 03a3 10       		.byte	16
 1373 03a4 1F       		.byte	31
 1374 03a5 08       		.byte	8
 1375 03a6 20       		.byte	32
 1376 03a7 80       		.byte	-128
 1377 03a8 21       		.byte	33
 1378 03a9 41       		.byte	65
 1379 03aa 28       		.byte	40
 1380 03ab 12       		.byte	18
 1381 03ac 29       		.byte	41
 1382 03ad 04       		.byte	4
 1383 03ae 2A       		.byte	42
 1384 03af 80       		.byte	-128
 1385 03b0 2B       		.byte	43
 1386 03b1 8A       		.byte	-118
 1387 03b2 30       		.byte	48
 1388 03b3 08       		.byte	8
 1389 03b4 31       		.byte	49
 1390 03b5 10       		.byte	16
 1391 03b6 32       		.byte	50
 1392 03b7 81       		.byte	-127
 1393 03b8 38       		.byte	56
 1394 03b9 E2       		.byte	-30
 1395 03ba 39       		.byte	57
 1396 03bb 08       		.byte	8
 1397 03bc 3A       		.byte	58
 1398 03bd 10       		.byte	16
 1399 03be 40       		.byte	64
 1400 03bf 26       		.byte	38
 1401 03c0 41       		.byte	65
 1402 03c1 01       		.byte	1
 1403 03c2 48       		.byte	72
 1404 03c3 10       		.byte	16
 1405 03c4 49       		.byte	73
 1406 03c5 80       		.byte	-128
 1407 03c6 51       		.byte	81
 1408 03c7 02       		.byte	2
 1409 03c8 5C       		.byte	92
ARM GAS  C:\Users\Mattia\AppData\Local\Temp\ccFR5PWW.s 			page 43


 1410 03c9 80       		.byte	-128
 1411 03ca 5D       		.byte	93
 1412 03cb 21       		.byte	33
 1413 03cc 5E       		.byte	94
 1414 03cd 08       		.byte	8
 1415 03ce 66       		.byte	102
 1416 03cf 01       		.byte	1
 1417 03d0 6B       		.byte	107
 1418 03d1 01       		.byte	1
 1419 03d2 8B       		.byte	-117
 1420 03d3 01       		.byte	1
 1421 03d4 8C       		.byte	-116
 1422 03d5 21       		.byte	33
 1423 03d6 8D       		.byte	-115
 1424 03d7 40       		.byte	64
 1425 03d8 8E       		.byte	-114
 1426 03d9 01       		.byte	1
 1427 03da 90       		.byte	-112
 1428 03db A0       		.byte	-96
 1429 03dc 91       		.byte	-111
 1430 03dd 09       		.byte	9
 1431 03de 92       		.byte	-110
 1432 03df 02       		.byte	2
 1433 03e0 94       		.byte	-108
 1434 03e1 06       		.byte	6
 1435 03e2 98       		.byte	-104
 1436 03e3 80       		.byte	-128
 1437 03e4 99       		.byte	-103
 1438 03e5 A0       		.byte	-96
 1439 03e6 9C       		.byte	-100
 1440 03e7 20       		.byte	32
 1441 03e8 9D       		.byte	-99
 1442 03e9 16       		.byte	22
 1443 03ea A0       		.byte	-96
 1444 03eb 08       		.byte	8
 1445 03ec A2       		.byte	-94
 1446 03ed 84       		.byte	-124
 1447 03ee A3       		.byte	-93
 1448 03ef 82       		.byte	-126
 1449 03f0 A4       		.byte	-92
 1450 03f1 50       		.byte	80
 1451 03f2 A5       		.byte	-91
 1452 03f3 02       		.byte	2
 1453 03f4 A7       		.byte	-89
 1454 03f5 08       		.byte	8
 1455 03f6 C0       		.byte	-64
 1456 03f7 ED       		.byte	-19
 1457 03f8 C2       		.byte	-62
 1458 03f9 2F       		.byte	47
 1459 03fa C4       		.byte	-60
 1460 03fb 9F       		.byte	-97
 1461 03fc CA       		.byte	-54
 1462 03fd 0F       		.byte	15
 1463 03fe CC       		.byte	-52
 1464 03ff 0F       		.byte	15
 1465 0400 CE       		.byte	-50
 1466 0401 0F       		.byte	15
ARM GAS  C:\Users\Mattia\AppData\Local\Temp\ccFR5PWW.s 			page 44


 1467 0402 D0       		.byte	-48
 1468 0403 0F       		.byte	15
 1469 0404 D2       		.byte	-46
 1470 0405 08       		.byte	8
 1471 0406 D6       		.byte	-42
 1472 0407 F0       		.byte	-16
 1473 0408 D8       		.byte	-40
 1474 0409 80       		.byte	-128
 1475 040a E6       		.byte	-26
 1476 040b 40       		.byte	64
 1477 040c 30       		.byte	48
 1478 040d 10       		.byte	16
 1479 040e 35       		.byte	53
 1480 040f 80       		.byte	-128
 1481 0410 CC       		.byte	-52
 1482 0411 30       		.byte	48
 1483 0412 9C       		.byte	-100
 1484 0413 10       		.byte	16
 1485 0414 9D       		.byte	-99
 1486 0415 80       		.byte	-128
 1487 0416 9C       		.byte	-100
 1488 0417 10       		.byte	16
 1489 0418 9D       		.byte	-99
 1490 0419 80       		.byte	-128
 1491 041a 84       		.byte	-124
 1492 041b 10       		.byte	16
 1493 041c 9C       		.byte	-100
 1494 041d 10       		.byte	16
 1495 041e 9D       		.byte	-99
 1496 041f 80       		.byte	-128
 1497 0420 E6       		.byte	-26
 1498 0421 40       		.byte	64
 1499 0422 86       		.byte	-122
 1500 0423 20       		.byte	32
 1501 0424 9D       		.byte	-99
 1502 0425 80       		.byte	-128
 1503 0426 8D       		.byte	-115
 1504 0427 80       		.byte	-128
 1505 0428 9D       		.byte	-99
 1506 0429 80       		.byte	-128
 1507 042a 56       		.byte	86
 1508 042b 10       		.byte	16
 1509 042c 62       		.byte	98
 1510 042d 02       		.byte	2
 1511 042e 86       		.byte	-122
 1512 042f 10       		.byte	16
 1513 0430 99       		.byte	-103
 1514 0431 08       		.byte	8
 1515 0432 9A       		.byte	-102
 1516 0433 20       		.byte	32
 1517 0434 B5       		.byte	-75
 1518 0435 08       		.byte	8
 1519 0436 D4       		.byte	-44
 1520 0437 02       		.byte	2
 1521 0438 D8       		.byte	-40
 1522 0439 02       		.byte	2
 1523 043a E8       		.byte	-24
ARM GAS  C:\Users\Mattia\AppData\Local\Temp\ccFR5PWW.s 			page 45


 1524 043b 02       		.byte	2
 1525 043c 12       		.byte	18
 1526 043d 80       		.byte	-128
 1527 043e 72       		.byte	114
 1528 043f 20       		.byte	32
 1529 0440 75       		.byte	117
 1530 0441 08       		.byte	8
 1531 0442 8A       		.byte	-118
 1532 0443 02       		.byte	2
 1533 0444 8E       		.byte	-114
 1534 0445 80       		.byte	-128
 1535 0446 99       		.byte	-103
 1536 0447 08       		.byte	8
 1537 0448 9A       		.byte	-102
 1538 0449 20       		.byte	32
 1539 044a A6       		.byte	-90
 1540 044b 02       		.byte	2
 1541 044c C4       		.byte	-60
 1542 044d 08       		.byte	8
 1543 044e DC       		.byte	-36
 1544 044f 01       		.byte	1
 1545 0450 DE       		.byte	-34
 1546 0451 04       		.byte	4
 1547 0452 E2       		.byte	-30
 1548 0453 02       		.byte	2
 1549 0454 E4       		.byte	-28
 1550 0455 04       		.byte	4
 1551 0456 00       		.byte	0
 1552 0457 01       		.byte	1
 1553 0458 0C       		.byte	12
 1554 0459 01       		.byte	1
 1555 045a 10       		.byte	16
 1556 045b 01       		.byte	1
 1557 045c 1C       		.byte	28
 1558 045d 01       		.byte	1
 1559 045e 00       		.byte	0
 1560 045f 0F       		.byte	15
 1561              		.type	BS_IOPINS0_7_VAL.5009, %object
 1562              		.size	BS_IOPINS0_7_VAL.5009, 8
 1563              	BS_IOPINS0_7_VAL.5009:
 1564 0460 40       		.byte	64
 1565 0461 90       		.byte	-112
 1566 0462 90       		.byte	-112
 1567 0463 00       		.byte	0
 1568 0464 90       		.byte	-112
 1569 0465 00       		.byte	0
 1570 0466 00       		.byte	0
 1571 0467 00       		.byte	0
 1572              		.type	BS_IOPINS0_1_VAL.5010, %object
 1573              		.size	BS_IOPINS0_1_VAL.5010, 8
 1574              	BS_IOPINS0_1_VAL.5010:
 1575 0468 10       		.byte	16
 1576 0469 14       		.byte	20
 1577 046a 04       		.byte	4
 1578 046b 00       		.byte	0
 1579 046c 14       		.byte	20
 1580 046d 00       		.byte	0
ARM GAS  C:\Users\Mattia\AppData\Local\Temp\ccFR5PWW.s 			page 46


 1581 046e 00       		.byte	0
 1582 046f 00       		.byte	0
 1583              		.type	BS_IOPINS0_3_VAL.5011, %object
 1584              		.size	BS_IOPINS0_3_VAL.5011, 10
 1585              	BS_IOPINS0_3_VAL.5011:
 1586 0470 00       		.byte	0
 1587 0471 00       		.byte	0
 1588 0472 00       		.byte	0
 1589 0473 01       		.byte	1
 1590 0474 01       		.byte	1
 1591 0475 00       		.byte	0
 1592 0476 00       		.byte	0
 1593 0477 00       		.byte	0
 1594 0478 00       		.byte	0
 1595 0479 00       		.byte	0
 1596              		.text
 1597              	.Letext0:
 1598              		.file 2 "c:\\program files (x86)\\cypress\\psoc creator\\4.4\\psoc creator\\import\\gnu\\arm\\5.4.
 1599              		.file 3 "Generated_Source\\PSoC5\\cytypes.h"
 1600              		.file 4 "Generated_Source\\PSoC5\\CyLib.h"