ARM GAS  C:\Users\MattiaCP\AppData\Local\Temp\cc9exna0.s 			page 1


   1              		.syntax unified
   2              		.cpu cortex-m3
   3              		.fpu softvfp
   4              		.eabi_attribute 20, 1
   5              		.eabi_attribute 21, 1
   6              		.eabi_attribute 23, 3
   7              		.eabi_attribute 24, 1
   8              		.eabi_attribute 25, 1
   9              		.eabi_attribute 26, 1
  10              		.eabi_attribute 30, 2
  11              		.eabi_attribute 34, 1
  12              		.eabi_attribute 18, 4
  13              		.thumb
  14              		.syntax unified
  15              		.file	"CyFlash.c"
  16              		.text
  17              	.Ltext0:
  18              		.cfi_sections	.debug_frame
  19              		.section	.text.CyFlash_Start,"ax",%progbits
  20              		.align	2
  21              		.global	CyFlash_Start
  22              		.thumb
  23              		.thumb_func
  24              		.type	CyFlash_Start, %function
  25              	CyFlash_Start:
  26              	.LFB0:
  27              		.file 1 "Generated_Source\\PSoC5\\CyFlash.c"
   1:Generated_Source\PSoC5/CyFlash.c **** /***************************************************************************//**
   2:Generated_Source\PSoC5/CyFlash.c **** * \file CyFlash.c
   3:Generated_Source\PSoC5/CyFlash.c **** * \version 5.70
   4:Generated_Source\PSoC5/CyFlash.c **** *
   5:Generated_Source\PSoC5/CyFlash.c **** * \brief Provides an API for the FLASH/EEPROM.
   6:Generated_Source\PSoC5/CyFlash.c **** *
   7:Generated_Source\PSoC5/CyFlash.c **** * \note This code is endian agnostic.
   8:Generated_Source\PSoC5/CyFlash.c **** *
   9:Generated_Source\PSoC5/CyFlash.c **** * \note Documentation of the API's in this file is located in the System
  10:Generated_Source\PSoC5/CyFlash.c **** * Reference Guide provided with PSoC Creator.
  11:Generated_Source\PSoC5/CyFlash.c **** *
  12:Generated_Source\PSoC5/CyFlash.c **** ********************************************************************************
  13:Generated_Source\PSoC5/CyFlash.c **** * \copyright
  14:Generated_Source\PSoC5/CyFlash.c **** * Copyright 2008-2018, Cypress Semiconductor Corporation. All rights reserved.
  15:Generated_Source\PSoC5/CyFlash.c **** * You may use this file only in accordance with the license, terms, conditions,
  16:Generated_Source\PSoC5/CyFlash.c **** * disclaimers, and limitations in the end user license agreement accompanying
  17:Generated_Source\PSoC5/CyFlash.c **** * the software package with which this file was provided.
  18:Generated_Source\PSoC5/CyFlash.c **** *******************************************************************************/
  19:Generated_Source\PSoC5/CyFlash.c **** 
  20:Generated_Source\PSoC5/CyFlash.c **** #include "CyFlash.h"
  21:Generated_Source\PSoC5/CyFlash.c **** 
  22:Generated_Source\PSoC5/CyFlash.c **** /*  The number of EEPROM arrays */
  23:Generated_Source\PSoC5/CyFlash.c **** #define CY_FLASH_EEPROM_NUMBER_ARRAYS                 (1u)
  24:Generated_Source\PSoC5/CyFlash.c **** 
  25:Generated_Source\PSoC5/CyFlash.c **** 
  26:Generated_Source\PSoC5/CyFlash.c **** /*******************************************************************************
  27:Generated_Source\PSoC5/CyFlash.c **** * Holds the die temperature, updated by CySetTemp(). Used for flash writing.
  28:Generated_Source\PSoC5/CyFlash.c **** * The first byte is the sign of the temperature (0 = negative, 1 = positive).
  29:Generated_Source\PSoC5/CyFlash.c **** * The second byte is the magnitude.
  30:Generated_Source\PSoC5/CyFlash.c **** *******************************************************************************/
ARM GAS  C:\Users\MattiaCP\AppData\Local\Temp\cc9exna0.s 			page 2


  31:Generated_Source\PSoC5/CyFlash.c **** uint8 dieTemperature[CY_FLASH_DIE_TEMP_DATA_SIZE];
  32:Generated_Source\PSoC5/CyFlash.c **** 
  33:Generated_Source\PSoC5/CyFlash.c **** #if(CYDEV_ECC_ENABLE == 0)
  34:Generated_Source\PSoC5/CyFlash.c ****     static uint8 * rowBuffer = 0;
  35:Generated_Source\PSoC5/CyFlash.c **** #endif  /* (CYDEV_ECC_ENABLE == 0) */
  36:Generated_Source\PSoC5/CyFlash.c **** 
  37:Generated_Source\PSoC5/CyFlash.c **** 
  38:Generated_Source\PSoC5/CyFlash.c **** static cystatus CySetTempInt(void);
  39:Generated_Source\PSoC5/CyFlash.c **** 
  40:Generated_Source\PSoC5/CyFlash.c **** 
  41:Generated_Source\PSoC5/CyFlash.c **** /*******************************************************************************
  42:Generated_Source\PSoC5/CyFlash.c **** * Function Name: CyFlash_Start
  43:Generated_Source\PSoC5/CyFlash.c **** ****************************************************************************//**
  44:Generated_Source\PSoC5/CyFlash.c **** *
  45:Generated_Source\PSoC5/CyFlash.c **** *  Enable the Flash.
  46:Generated_Source\PSoC5/CyFlash.c **** *
  47:Generated_Source\PSoC5/CyFlash.c **** *******************************************************************************/
  48:Generated_Source\PSoC5/CyFlash.c **** void CyFlash_Start(void) 
  49:Generated_Source\PSoC5/CyFlash.c **** {
  28              		.loc 1 49 0
  29              		.cfi_startproc
  30              		@ args = 0, pretend = 0, frame = 0
  31              		@ frame_needed = 0, uses_anonymous_args = 0
  32 0000 38B5     		push	{r3, r4, r5, lr}
  33              		.cfi_def_cfa_offset 16
  34              		.cfi_offset 3, -16
  35              		.cfi_offset 4, -12
  36              		.cfi_offset 5, -8
  37              		.cfi_offset 14, -4
  50:Generated_Source\PSoC5/CyFlash.c ****     uint8 interruptState;
  51:Generated_Source\PSoC5/CyFlash.c **** 
  52:Generated_Source\PSoC5/CyFlash.c ****     interruptState = CyEnterCriticalSection();
  38              		.loc 1 52 0
  39 0002 FFF7FEFF 		bl	CyEnterCriticalSection
  40              	.LVL0:
  53:Generated_Source\PSoC5/CyFlash.c **** 
  54:Generated_Source\PSoC5/CyFlash.c **** 
  55:Generated_Source\PSoC5/CyFlash.c ****     /***************************************************************************
  56:Generated_Source\PSoC5/CyFlash.c ****     * Enable SPC clock. This also internally enables the 36MHz IMO, since this
  57:Generated_Source\PSoC5/CyFlash.c ****     * is required for the SPC to function.
  58:Generated_Source\PSoC5/CyFlash.c ****     ***************************************************************************/
  59:Generated_Source\PSoC5/CyFlash.c ****     CY_FLASH_PM_ACT_CFG0_REG    |= CY_FLASH_PM_ACT_CFG0_EN_CLK_SPC;
  41              		.loc 1 59 0
  42 0006 0F4A     		ldr	r2, .L7
  60:Generated_Source\PSoC5/CyFlash.c ****     CY_FLASH_PM_ALTACT_CFG0_REG |= CY_FLASH_PM_ALTACT_CFG0_EN_CLK_SPC;
  43              		.loc 1 60 0
  44 0008 0F49     		ldr	r1, .L7+4
  59:Generated_Source\PSoC5/CyFlash.c ****     CY_FLASH_PM_ALTACT_CFG0_REG |= CY_FLASH_PM_ALTACT_CFG0_EN_CLK_SPC;
  45              		.loc 1 59 0
  46 000a 1378     		ldrb	r3, [r2]	@ zero_extendqisi2
  61:Generated_Source\PSoC5/CyFlash.c **** 
  62:Generated_Source\PSoC5/CyFlash.c **** 
  63:Generated_Source\PSoC5/CyFlash.c ****     /***************************************************************************
  64:Generated_Source\PSoC5/CyFlash.c ****     * The wake count defines the number of Bus Clock cycles it takes for the
  65:Generated_Source\PSoC5/CyFlash.c ****     * flash or eeprom to wake up from a low power mode independent of the chip
  66:Generated_Source\PSoC5/CyFlash.c ****     * power mode. Wake up time for these blocks is 5 us.
  67:Generated_Source\PSoC5/CyFlash.c ****     * The granularity of this register is 2 Bus Clock cycles, so a value of 0x1E
ARM GAS  C:\Users\MattiaCP\AppData\Local\Temp\cc9exna0.s 			page 3


  68:Generated_Source\PSoC5/CyFlash.c ****     * (30d) defines the wake up time as 60 cycles of the Bus Clock.
  69:Generated_Source\PSoC5/CyFlash.c ****     * This register needs to be written with a value dependent on the Bus Clock
  70:Generated_Source\PSoC5/CyFlash.c ****     * frequency so that the duration of the cycles is equal to or greater than
  71:Generated_Source\PSoC5/CyFlash.c ****     * the 5 us delay required.
  72:Generated_Source\PSoC5/CyFlash.c ****     ***************************************************************************/
  73:Generated_Source\PSoC5/CyFlash.c ****     CY_FLASH_SPC_FM_EE_WAKE_CNT_REG = CY_FLASH_SPC_FM_EE_WAKE_CNT_80MHZ;
  47              		.loc 1 73 0
  48 000c 0F4C     		ldr	r4, .L7+8
  59:Generated_Source\PSoC5/CyFlash.c ****     CY_FLASH_PM_ALTACT_CFG0_REG |= CY_FLASH_PM_ALTACT_CFG0_EN_CLK_SPC;
  49              		.loc 1 59 0
  50 000e 43F00803 		orr	r3, r3, #8
  51 0012 1370     		strb	r3, [r2]
  60:Generated_Source\PSoC5/CyFlash.c **** 
  52              		.loc 1 60 0
  53 0014 0B78     		ldrb	r3, [r1]	@ zero_extendqisi2
  54              		.loc 1 73 0
  55 0016 C825     		movs	r5, #200
  60:Generated_Source\PSoC5/CyFlash.c **** 
  56              		.loc 1 60 0
  57 0018 43F00803 		orr	r3, r3, #8
  58 001c 0B70     		strb	r3, [r1]
  59              		.loc 1 73 0
  60 001e 2570     		strb	r5, [r4]
  74:Generated_Source\PSoC5/CyFlash.c **** 
  75:Generated_Source\PSoC5/CyFlash.c **** 
  76:Generated_Source\PSoC5/CyFlash.c ****     /***************************************************************************
  77:Generated_Source\PSoC5/CyFlash.c ****     * Enable flash. Active flash macros consume current, but re-enabling a
  78:Generated_Source\PSoC5/CyFlash.c ****     * disabled flash macro takes 5us. If the CPU attempts to fetch out of the
  79:Generated_Source\PSoC5/CyFlash.c ****     * macro during that time, it will be stalled. This bit allows the flash to
  80:Generated_Source\PSoC5/CyFlash.c ****     * be enabled even if the CPU is disabled, which allows a quicker return to
  81:Generated_Source\PSoC5/CyFlash.c ****     * code execution.
  82:Generated_Source\PSoC5/CyFlash.c ****     ***************************************************************************/
  83:Generated_Source\PSoC5/CyFlash.c ****     CY_FLASH_PM_ACT_CFG12_REG    |= CY_FLASH_PM_ACT_CFG12_EN_FM;
  61              		.loc 1 83 0
  62 0020 137B     		ldrb	r3, [r2, #12]	@ zero_extendqisi2
  63 0022 43F00F03 		orr	r3, r3, #15
  64 0026 1373     		strb	r3, [r2, #12]
  84:Generated_Source\PSoC5/CyFlash.c ****     CY_FLASH_PM_ALTACT_CFG12_REG |= CY_FLASH_PM_ALTACT_CFG12_EN_FM;
  65              		.loc 1 84 0
  66 0028 0B7B     		ldrb	r3, [r1, #12]	@ zero_extendqisi2
  85:Generated_Source\PSoC5/CyFlash.c **** 
  86:Generated_Source\PSoC5/CyFlash.c ****     while(0u == (CY_FLASH_SPC_FM_EE_CR_REG & CY_FLASH_EE_EE_AWAKE))
  67              		.loc 1 86 0
  68 002a 02F55872 		add	r2, r2, #864
  84:Generated_Source\PSoC5/CyFlash.c ****     CY_FLASH_PM_ALTACT_CFG12_REG |= CY_FLASH_PM_ALTACT_CFG12_EN_FM;
  69              		.loc 1 84 0
  70 002e 43F00F03 		orr	r3, r3, #15
  71 0032 0B73     		strb	r3, [r1, #12]
  72              	.L2:
  73              		.loc 1 86 0 discriminator 1
  74 0034 1378     		ldrb	r3, [r2]	@ zero_extendqisi2
  75 0036 9B06     		lsls	r3, r3, #26
  76 0038 FCD5     		bpl	.L2
  87:Generated_Source\PSoC5/CyFlash.c ****     {
  88:Generated_Source\PSoC5/CyFlash.c ****         /* Non-zero status denotes that the EEPROM/Flash is awake & powered. */
  89:Generated_Source\PSoC5/CyFlash.c ****     }
  90:Generated_Source\PSoC5/CyFlash.c **** 
ARM GAS  C:\Users\MattiaCP\AppData\Local\Temp\cc9exna0.s 			page 4


  91:Generated_Source\PSoC5/CyFlash.c ****     CyExitCriticalSection(interruptState);
  92:Generated_Source\PSoC5/CyFlash.c **** }
  77              		.loc 1 92 0
  78 003a BDE83840 		pop	{r3, r4, r5, lr}
  79              		.cfi_restore 14
  80              		.cfi_restore 5
  81              		.cfi_restore 4
  82              		.cfi_restore 3
  83              		.cfi_def_cfa_offset 0
  91:Generated_Source\PSoC5/CyFlash.c **** }
  84              		.loc 1 91 0
  85 003e FFF7FEBF 		b	CyExitCriticalSection
  86              	.LVL1:
  87              	.L8:
  88 0042 00BF     		.align	2
  89              	.L7:
  90 0044 A0430040 		.word	1073759136
  91 0048 B0430040 		.word	1073759152
  92 004c 01470040 		.word	1073760001
  93              		.cfi_endproc
  94              	.LFE0:
  95              		.size	CyFlash_Start, .-CyFlash_Start
  96              		.section	.text.CyFlash_Stop,"ax",%progbits
  97              		.align	2
  98              		.global	CyFlash_Stop
  99              		.thumb
 100              		.thumb_func
 101              		.type	CyFlash_Stop, %function
 102              	CyFlash_Stop:
 103              	.LFB1:
  93:Generated_Source\PSoC5/CyFlash.c **** 
  94:Generated_Source\PSoC5/CyFlash.c **** 
  95:Generated_Source\PSoC5/CyFlash.c **** /*******************************************************************************
  96:Generated_Source\PSoC5/CyFlash.c **** * Function Name: CyFlash_Stop
  97:Generated_Source\PSoC5/CyFlash.c **** ****************************************************************************//**
  98:Generated_Source\PSoC5/CyFlash.c **** *
  99:Generated_Source\PSoC5/CyFlash.c **** *  Disable the Flash.
 100:Generated_Source\PSoC5/CyFlash.c **** *
 101:Generated_Source\PSoC5/CyFlash.c **** * \sideeffect
 102:Generated_Source\PSoC5/CyFlash.c **** *  This setting is ignored as long as the CPU is currently running.  This will
 103:Generated_Source\PSoC5/CyFlash.c **** *  only take effect when the CPU is later disabled.
 104:Generated_Source\PSoC5/CyFlash.c **** *
 105:Generated_Source\PSoC5/CyFlash.c **** *******************************************************************************/
 106:Generated_Source\PSoC5/CyFlash.c **** void CyFlash_Stop(void) 
 107:Generated_Source\PSoC5/CyFlash.c **** {
 104              		.loc 1 107 0
 105              		.cfi_startproc
 106              		@ args = 0, pretend = 0, frame = 0
 107              		@ frame_needed = 0, uses_anonymous_args = 0
 108 0000 08B5     		push	{r3, lr}
 109              		.cfi_def_cfa_offset 8
 110              		.cfi_offset 3, -8
 111              		.cfi_offset 14, -4
 108:Generated_Source\PSoC5/CyFlash.c ****     uint8 interruptState;
 109:Generated_Source\PSoC5/CyFlash.c **** 
 110:Generated_Source\PSoC5/CyFlash.c ****     interruptState = CyEnterCriticalSection();
 112              		.loc 1 110 0
ARM GAS  C:\Users\MattiaCP\AppData\Local\Temp\cc9exna0.s 			page 5


 113 0002 FFF7FEFF 		bl	CyEnterCriticalSection
 114              	.LVL2:
 111:Generated_Source\PSoC5/CyFlash.c **** 
 112:Generated_Source\PSoC5/CyFlash.c ****     CY_FLASH_PM_ACT_CFG12_REG    &= ((uint8)(~CY_FLASH_PM_ACT_CFG12_EN_FM));
 115              		.loc 1 112 0
 116 0006 0749     		ldr	r1, .L11
 113:Generated_Source\PSoC5/CyFlash.c ****     CY_FLASH_PM_ALTACT_CFG12_REG &= ((uint8)(~CY_FLASH_PM_ALTACT_CFG12_EN_FM));
 117              		.loc 1 113 0
 118 0008 074A     		ldr	r2, .L11+4
 112:Generated_Source\PSoC5/CyFlash.c ****     CY_FLASH_PM_ALTACT_CFG12_REG &= ((uint8)(~CY_FLASH_PM_ALTACT_CFG12_EN_FM));
 119              		.loc 1 112 0
 120 000a 0B78     		ldrb	r3, [r1]	@ zero_extendqisi2
 121 000c 03F0F003 		and	r3, r3, #240
 122 0010 0B70     		strb	r3, [r1]
 123              		.loc 1 113 0
 124 0012 1378     		ldrb	r3, [r2]	@ zero_extendqisi2
 125 0014 03F0F003 		and	r3, r3, #240
 126 0018 1370     		strb	r3, [r2]
 114:Generated_Source\PSoC5/CyFlash.c **** 
 115:Generated_Source\PSoC5/CyFlash.c ****     CyExitCriticalSection(interruptState);
 116:Generated_Source\PSoC5/CyFlash.c **** }
 127              		.loc 1 116 0
 128 001a BDE80840 		pop	{r3, lr}
 129              		.cfi_restore 14
 130              		.cfi_restore 3
 131              		.cfi_def_cfa_offset 0
 115:Generated_Source\PSoC5/CyFlash.c **** }
 132              		.loc 1 115 0
 133 001e FFF7FEBF 		b	CyExitCriticalSection
 134              	.LVL3:
 135              	.L12:
 136 0022 00BF     		.align	2
 137              	.L11:
 138 0024 AC430040 		.word	1073759148
 139 0028 BC430040 		.word	1073759164
 140              		.cfi_endproc
 141              	.LFE1:
 142              		.size	CyFlash_Stop, .-CyFlash_Stop
 143              		.section	.text.CyFlash_EraseRow,"ax",%progbits
 144              		.align	2
 145              		.global	CyFlash_EraseRow
 146              		.thumb
 147              		.thumb_func
 148              		.type	CyFlash_EraseRow, %function
 149              	CyFlash_EraseRow:
 150              	.LFB2:
 117:Generated_Source\PSoC5/CyFlash.c **** 
 118:Generated_Source\PSoC5/CyFlash.c **** 
 119:Generated_Source\PSoC5/CyFlash.c **** /*******************************************************************************
 120:Generated_Source\PSoC5/CyFlash.c **** * Function Name: CyFlash_EraseRow
 121:Generated_Source\PSoC5/CyFlash.c **** ****************************************************************************//**
 122:Generated_Source\PSoC5/CyFlash.c **** *
 123:Generated_Source\PSoC5/CyFlash.c **** *  Erases a single row of flash. Reports success or reason for failure. 
 124:Generated_Source\PSoC5/CyFlash.c **** *  The API does not return until the erase operation is complete.
 125:Generated_Source\PSoC5/CyFlash.c **** *
 126:Generated_Source\PSoC5/CyFlash.c **** *  \param arrayID:    ID of the array to erase.
 127:Generated_Source\PSoC5/CyFlash.c **** *   The arrays in the part are sequential starting at the first ID for the
ARM GAS  C:\Users\MattiaCP\AppData\Local\Temp\cc9exna0.s 			page 6


 128:Generated_Source\PSoC5/CyFlash.c **** *   Flash memory type. 
 129:Generated_Source\PSoC5/CyFlash.c **** *  \param rowAddress: Row address within the specified arrayId.
 130:Generated_Source\PSoC5/CyFlash.c **** *
 131:Generated_Source\PSoC5/CyFlash.c **** *  \return
 132:Generated_Source\PSoC5/CyFlash.c **** *  status:
 133:Generated_Source\PSoC5/CyFlash.c **** *   CYRET_SUCCESS if successful.
 134:Generated_Source\PSoC5/CyFlash.c **** *   CYRET_LOCKED if the SPC is already in use.
 135:Generated_Source\PSoC5/CyFlash.c **** *   CYRET_CANCELED if command not accepted
 136:Generated_Source\PSoC5/CyFlash.c **** *   CYRET_UNKNOWN if there was an SPC error.
 137:Generated_Source\PSoC5/CyFlash.c **** *   CYRET_BAD_PARAM if one or more invalid parameters
 138:Generated_Source\PSoC5/CyFlash.c **** *
 139:Generated_Source\PSoC5/CyFlash.c **** *******************************************************************************/
 140:Generated_Source\PSoC5/CyFlash.c **** cystatus CyFlash_EraseRow(uint8 arrayId, uint16 rowAddress)
 141:Generated_Source\PSoC5/CyFlash.c **** {
 151              		.loc 1 141 0
 152              		.cfi_startproc
 153              		@ args = 0, pretend = 0, frame = 8
 154              		@ frame_needed = 0, uses_anonymous_args = 0
 155              	.LVL4:
 142:Generated_Source\PSoC5/CyFlash.c ****     cystatus status = CYRET_SUCCESS;
 143:Generated_Source\PSoC5/CyFlash.c **** 
 144:Generated_Source\PSoC5/CyFlash.c ****     if (arrayId > CY_SPC_LAST_FLASH_ARRAYID)
 156              		.loc 1 144 0
 157 0000 3F28     		cmp	r0, #63
 158 0002 02D8     		bhi	.L20
 145:Generated_Source\PSoC5/CyFlash.c ****     {
 146:Generated_Source\PSoC5/CyFlash.c ****         status = CYRET_BAD_PARAM;
 147:Generated_Source\PSoC5/CyFlash.c ****     }
 148:Generated_Source\PSoC5/CyFlash.c ****     else if(rowAddress > (CY_FLASH_NUMBER_ROWS/CY_FLASH_NUMBER_ARRAYS))
 159              		.loc 1 148 0
 160 0004 B1F5807F 		cmp	r1, #256
 161 0008 01D9     		bls	.L28
 162              	.L20:
 146:Generated_Source\PSoC5/CyFlash.c ****     }
 163              		.loc 1 146 0
 164 000a 0120     		movs	r0, #1
 165              	.LVL5:
 166 000c 7047     		bx	lr
 167              	.LVL6:
 168              	.L28:
 141:Generated_Source\PSoC5/CyFlash.c ****     cystatus status = CYRET_SUCCESS;
 169              		.loc 1 141 0
 170 000e 30B5     		push	{r4, r5, lr}
 171              		.cfi_def_cfa_offset 12
 172              		.cfi_offset 4, -12
 173              		.cfi_offset 5, -8
 174              		.cfi_offset 14, -4
 175 0010 83B0     		sub	sp, sp, #12
 176              		.cfi_def_cfa_offset 24
 177 0012 0D46     		mov	r5, r1
 178 0014 0446     		mov	r4, r0
 149:Generated_Source\PSoC5/CyFlash.c ****     {
 150:Generated_Source\PSoC5/CyFlash.c ****         status = CYRET_BAD_PARAM;
 151:Generated_Source\PSoC5/CyFlash.c ****     }        
 152:Generated_Source\PSoC5/CyFlash.c ****     else
 153:Generated_Source\PSoC5/CyFlash.c ****     {
 154:Generated_Source\PSoC5/CyFlash.c ****         if(CySpcLock() == CYRET_SUCCESS)
ARM GAS  C:\Users\MattiaCP\AppData\Local\Temp\cc9exna0.s 			page 7


 179              		.loc 1 154 0
 180 0016 FFF7FEFF 		bl	CySpcLock
 181              	.LVL7:
 182 001a 10B1     		cbz	r0, .L29
 155:Generated_Source\PSoC5/CyFlash.c ****         {
 156:Generated_Source\PSoC5/CyFlash.c ****             /* Erase flash row */
 157:Generated_Source\PSoC5/CyFlash.c ****             status = CySpcEraseRow(arrayId, rowAddress, dieTemperature[0u], dieTemperature[1u]);
 158:Generated_Source\PSoC5/CyFlash.c ****             
 159:Generated_Source\PSoC5/CyFlash.c ****             if(CYRET_STARTED == status)
 160:Generated_Source\PSoC5/CyFlash.c ****             {
 161:Generated_Source\PSoC5/CyFlash.c ****                 while(CY_SPC_BUSY)
 162:Generated_Source\PSoC5/CyFlash.c ****                 {
 163:Generated_Source\PSoC5/CyFlash.c ****                     /* Wait for SPC to finish and get SPC status */
 164:Generated_Source\PSoC5/CyFlash.c ****                     CyDelayUs(1u);
 165:Generated_Source\PSoC5/CyFlash.c ****                 }
 166:Generated_Source\PSoC5/CyFlash.c ****                 
 167:Generated_Source\PSoC5/CyFlash.c ****                 /* Hide SPC status */
 168:Generated_Source\PSoC5/CyFlash.c ****                 if(CY_SPC_STATUS_SUCCESS == CY_SPC_READ_STATUS)
 169:Generated_Source\PSoC5/CyFlash.c ****                 {
 170:Generated_Source\PSoC5/CyFlash.c ****                     status = CYRET_SUCCESS;
 171:Generated_Source\PSoC5/CyFlash.c ****                 }
 172:Generated_Source\PSoC5/CyFlash.c ****                 else
 173:Generated_Source\PSoC5/CyFlash.c ****                 {
 174:Generated_Source\PSoC5/CyFlash.c ****                     status = CYRET_UNKNOWN;
 175:Generated_Source\PSoC5/CyFlash.c ****                 }
 176:Generated_Source\PSoC5/CyFlash.c ****             }
 177:Generated_Source\PSoC5/CyFlash.c **** 	        else
 178:Generated_Source\PSoC5/CyFlash.c ****             {
 179:Generated_Source\PSoC5/CyFlash.c ****                 status = CYRET_CANCELED;
 180:Generated_Source\PSoC5/CyFlash.c ****             }
 181:Generated_Source\PSoC5/CyFlash.c ****             CySpcUnlock();
 182:Generated_Source\PSoC5/CyFlash.c ****         }
 183:Generated_Source\PSoC5/CyFlash.c ****         else 
 184:Generated_Source\PSoC5/CyFlash.c ****         {
 185:Generated_Source\PSoC5/CyFlash.c ****             status = CYRET_LOCKED;
 183              		.loc 1 185 0
 184 001c 0420     		movs	r0, #4
 185              	.LVL8:
 186              	.L14:
 186:Generated_Source\PSoC5/CyFlash.c ****         }
 187:Generated_Source\PSoC5/CyFlash.c ****     }
 188:Generated_Source\PSoC5/CyFlash.c ****     
 189:Generated_Source\PSoC5/CyFlash.c ****     return(status);
 190:Generated_Source\PSoC5/CyFlash.c **** }
 187              		.loc 1 190 0
 188 001e 03B0     		add	sp, sp, #12
 189              		.cfi_remember_state
 190              		.cfi_def_cfa_offset 12
 191              		@ sp needed
 192 0020 30BD     		pop	{r4, r5, pc}
 193              	.LVL9:
 194              	.L29:
 195              		.cfi_restore_state
 157:Generated_Source\PSoC5/CyFlash.c ****             
 196              		.loc 1 157 0
 197 0022 134A     		ldr	r2, .L31
 198 0024 2946     		mov	r1, r5
ARM GAS  C:\Users\MattiaCP\AppData\Local\Temp\cc9exna0.s 			page 8


 199 0026 5378     		ldrb	r3, [r2, #1]	@ zero_extendqisi2
 200 0028 2046     		mov	r0, r4
 201 002a 1278     		ldrb	r2, [r2]	@ zero_extendqisi2
 202 002c FFF7FEFF 		bl	CySpcEraseRow
 203              	.LVL10:
 159:Generated_Source\PSoC5/CyFlash.c ****             {
 204              		.loc 1 159 0
 205 0030 0728     		cmp	r0, #7
 206 0032 05D0     		beq	.L30
 179:Generated_Source\PSoC5/CyFlash.c ****             }
 207              		.loc 1 179 0
 208 0034 0920     		movs	r0, #9
 209              	.LVL11:
 210              	.L15:
 211 0036 0190     		str	r0, [sp, #4]
 212              	.LVL12:
 181:Generated_Source\PSoC5/CyFlash.c ****         }
 213              		.loc 1 181 0
 214 0038 FFF7FEFF 		bl	CySpcUnlock
 215              	.LVL13:
 216 003c 0198     		ldr	r0, [sp, #4]
 217 003e EEE7     		b	.L14
 218              	.LVL14:
 219              	.L30:
 161:Generated_Source\PSoC5/CyFlash.c ****                 {
 220              		.loc 1 161 0
 221 0040 0C4C     		ldr	r4, .L31+4
 222 0042 2378     		ldrb	r3, [r4]	@ zero_extendqisi2
 223 0044 9907     		lsls	r1, r3, #30
 224 0046 05D4     		bmi	.L18
 225              	.LVL15:
 226              	.L16:
 164:Generated_Source\PSoC5/CyFlash.c ****                 }
 227              		.loc 1 164 0
 228 0048 0120     		movs	r0, #1
 229 004a FFF7FEFF 		bl	CyDelayUs
 230              	.LVL16:
 161:Generated_Source\PSoC5/CyFlash.c ****                 {
 231              		.loc 1 161 0
 232 004e 2378     		ldrb	r3, [r4]	@ zero_extendqisi2
 233 0050 9B07     		lsls	r3, r3, #30
 234 0052 F9D5     		bpl	.L16
 235              	.L18:
 168:Generated_Source\PSoC5/CyFlash.c ****                 {
 236              		.loc 1 168 0
 237 0054 074B     		ldr	r3, .L31+4
 238 0056 1A78     		ldrb	r2, [r3]	@ zero_extendqisi2
 239 0058 9207     		lsls	r2, r2, #30
 240 005a 02D4     		bmi	.L17
 174:Generated_Source\PSoC5/CyFlash.c ****                 }
 241              		.loc 1 174 0
 242 005c 4FF0FF30 		mov	r0, #-1
 243 0060 E9E7     		b	.L15
 244              	.L17:
 168:Generated_Source\PSoC5/CyFlash.c ****                 {
 245              		.loc 1 168 0 discriminator 1
 246 0062 1B78     		ldrb	r3, [r3]	@ zero_extendqisi2
ARM GAS  C:\Users\MattiaCP\AppData\Local\Temp\cc9exna0.s 			page 9


 247 0064 9B08     		lsrs	r3, r3, #2
 248 0066 14BF     		ite	ne
 249 0068 4FF0FF30 		movne	r0, #-1
 250 006c 0020     		moveq	r0, #0
 251 006e E2E7     		b	.L15
 252              	.L32:
 253              		.align	2
 254              	.L31:
 255 0070 00000000 		.word	dieTemperature
 256 0074 22470040 		.word	1073760034
 257              		.cfi_endproc
 258              	.LFE2:
 259              		.size	CyFlash_EraseRow, .-CyFlash_EraseRow
 260              		.section	.text.CyFlashGetSpcAlgorithm,"ax",%progbits
 261              		.align	2
 262              		.global	CyFlashGetSpcAlgorithm
 263              		.thumb
 264              		.thumb_func
 265              		.type	CyFlashGetSpcAlgorithm, %function
 266              	CyFlashGetSpcAlgorithm:
 267              	.LFB4:
 191:Generated_Source\PSoC5/CyFlash.c **** 
 192:Generated_Source\PSoC5/CyFlash.c **** 
 193:Generated_Source\PSoC5/CyFlash.c **** /*******************************************************************************
 194:Generated_Source\PSoC5/CyFlash.c **** * Function Name: CySetTempInt
 195:Generated_Source\PSoC5/CyFlash.c **** ****************************************************************************//**
 196:Generated_Source\PSoC5/CyFlash.c **** *
 197:Generated_Source\PSoC5/CyFlash.c **** *  Sends a command to the SPC to read the die temperature. Sets a global value
 198:Generated_Source\PSoC5/CyFlash.c **** *  used by the Write function. This function must be called once before
 199:Generated_Source\PSoC5/CyFlash.c **** *  executing a series of Flash writing functions.
 200:Generated_Source\PSoC5/CyFlash.c **** *
 201:Generated_Source\PSoC5/CyFlash.c **** * \return
 202:Generated_Source\PSoC5/CyFlash.c **** *  status:
 203:Generated_Source\PSoC5/CyFlash.c **** *   CYRET_SUCCESS - if successful
 204:Generated_Source\PSoC5/CyFlash.c **** *   CYRET_LOCKED  - if Flash writing already in use
 205:Generated_Source\PSoC5/CyFlash.c **** *   CYRET_UNKNOWN - if there was an SPC error
 206:Generated_Source\PSoC5/CyFlash.c **** *
 207:Generated_Source\PSoC5/CyFlash.c **** *******************************************************************************/
 208:Generated_Source\PSoC5/CyFlash.c **** static cystatus CySetTempInt(void) 
 209:Generated_Source\PSoC5/CyFlash.c **** {
 210:Generated_Source\PSoC5/CyFlash.c ****     cystatus status;
 211:Generated_Source\PSoC5/CyFlash.c **** 
 212:Generated_Source\PSoC5/CyFlash.c ****     /* Make sure SPC is powered */
 213:Generated_Source\PSoC5/CyFlash.c ****     CySpcStart();
 214:Generated_Source\PSoC5/CyFlash.c **** 
 215:Generated_Source\PSoC5/CyFlash.c ****     /* Plan for failure. */
 216:Generated_Source\PSoC5/CyFlash.c ****     status = CYRET_UNKNOWN;
 217:Generated_Source\PSoC5/CyFlash.c **** 
 218:Generated_Source\PSoC5/CyFlash.c ****     if(CySpcLock() == CYRET_SUCCESS)
 219:Generated_Source\PSoC5/CyFlash.c ****     {
 220:Generated_Source\PSoC5/CyFlash.c ****         /* Write the command. */
 221:Generated_Source\PSoC5/CyFlash.c ****         if(CYRET_STARTED == CySpcGetTemp(CY_TEMP_NUMBER_OF_SAMPLES))
 222:Generated_Source\PSoC5/CyFlash.c ****         {
 223:Generated_Source\PSoC5/CyFlash.c ****             do
 224:Generated_Source\PSoC5/CyFlash.c ****             {
 225:Generated_Source\PSoC5/CyFlash.c ****                 if(CySpcReadData(dieTemperature, CY_FLASH_DIE_TEMP_DATA_SIZE) == CY_FLASH_DIE_TEMP_
 226:Generated_Source\PSoC5/CyFlash.c ****                 {
ARM GAS  C:\Users\MattiaCP\AppData\Local\Temp\cc9exna0.s 			page 10


 227:Generated_Source\PSoC5/CyFlash.c ****                     status = CYRET_SUCCESS;
 228:Generated_Source\PSoC5/CyFlash.c **** 
 229:Generated_Source\PSoC5/CyFlash.c ****                     while(CY_SPC_BUSY)
 230:Generated_Source\PSoC5/CyFlash.c ****                     {
 231:Generated_Source\PSoC5/CyFlash.c ****                         /* Spin until idle. */
 232:Generated_Source\PSoC5/CyFlash.c ****                         CyDelayUs(1u);
 233:Generated_Source\PSoC5/CyFlash.c ****                     }
 234:Generated_Source\PSoC5/CyFlash.c ****                     break;
 235:Generated_Source\PSoC5/CyFlash.c ****                 }
 236:Generated_Source\PSoC5/CyFlash.c **** 
 237:Generated_Source\PSoC5/CyFlash.c ****             } while(CY_SPC_BUSY);
 238:Generated_Source\PSoC5/CyFlash.c ****         }
 239:Generated_Source\PSoC5/CyFlash.c **** 
 240:Generated_Source\PSoC5/CyFlash.c ****         CySpcUnlock();
 241:Generated_Source\PSoC5/CyFlash.c ****     }
 242:Generated_Source\PSoC5/CyFlash.c ****     else
 243:Generated_Source\PSoC5/CyFlash.c ****     {
 244:Generated_Source\PSoC5/CyFlash.c ****         status = CYRET_LOCKED;
 245:Generated_Source\PSoC5/CyFlash.c ****     }
 246:Generated_Source\PSoC5/CyFlash.c **** 
 247:Generated_Source\PSoC5/CyFlash.c ****     return (status);
 248:Generated_Source\PSoC5/CyFlash.c **** }
 249:Generated_Source\PSoC5/CyFlash.c **** 
 250:Generated_Source\PSoC5/CyFlash.c **** 
 251:Generated_Source\PSoC5/CyFlash.c **** /*******************************************************************************
 252:Generated_Source\PSoC5/CyFlash.c **** * Function Name: CyFlashGetSpcAlgorithm
 253:Generated_Source\PSoC5/CyFlash.c **** ****************************************************************************//**
 254:Generated_Source\PSoC5/CyFlash.c **** *
 255:Generated_Source\PSoC5/CyFlash.c **** *  Sends a command to the SPC to download code into RAM.
 256:Generated_Source\PSoC5/CyFlash.c **** *
 257:Generated_Source\PSoC5/CyFlash.c **** * \return
 258:Generated_Source\PSoC5/CyFlash.c **** *  status:
 259:Generated_Source\PSoC5/CyFlash.c **** *   CYRET_SUCCESS - if successful
 260:Generated_Source\PSoC5/CyFlash.c **** *   CYRET_LOCKED  - if Flash writing already in use
 261:Generated_Source\PSoC5/CyFlash.c **** *   CYRET_UNKNOWN - if there was an SPC error
 262:Generated_Source\PSoC5/CyFlash.c **** *
 263:Generated_Source\PSoC5/CyFlash.c **** *******************************************************************************/
 264:Generated_Source\PSoC5/CyFlash.c **** cystatus CyFlashGetSpcAlgorithm(void) 
 265:Generated_Source\PSoC5/CyFlash.c **** {
 268              		.loc 1 265 0
 269              		.cfi_startproc
 270              		@ args = 0, pretend = 0, frame = 0
 271              		@ frame_needed = 0, uses_anonymous_args = 0
 272 0000 38B5     		push	{r3, r4, r5, lr}
 273              		.cfi_def_cfa_offset 16
 274              		.cfi_offset 3, -16
 275              		.cfi_offset 4, -12
 276              		.cfi_offset 5, -8
 277              		.cfi_offset 14, -4
 266:Generated_Source\PSoC5/CyFlash.c ****     cystatus status;
 267:Generated_Source\PSoC5/CyFlash.c **** 
 268:Generated_Source\PSoC5/CyFlash.c ****     /* Make sure SPC is powered */
 269:Generated_Source\PSoC5/CyFlash.c ****     CySpcStart();
 278              		.loc 1 269 0
 279 0002 FFF7FEFF 		bl	CySpcStart
 280              	.LVL17:
 270:Generated_Source\PSoC5/CyFlash.c **** 
ARM GAS  C:\Users\MattiaCP\AppData\Local\Temp\cc9exna0.s 			page 11


 271:Generated_Source\PSoC5/CyFlash.c ****     if(CySpcLock() == CYRET_SUCCESS)
 281              		.loc 1 271 0
 282 0006 FFF7FEFF 		bl	CySpcLock
 283              	.LVL18:
 284 000a 10B1     		cbz	r0, .L44
 272:Generated_Source\PSoC5/CyFlash.c ****     {
 273:Generated_Source\PSoC5/CyFlash.c ****         status = CySpcGetAlgorithm();
 274:Generated_Source\PSoC5/CyFlash.c **** 
 275:Generated_Source\PSoC5/CyFlash.c ****         if(CYRET_STARTED == status)
 276:Generated_Source\PSoC5/CyFlash.c ****         {
 277:Generated_Source\PSoC5/CyFlash.c ****             while(CY_SPC_BUSY)
 278:Generated_Source\PSoC5/CyFlash.c ****             {
 279:Generated_Source\PSoC5/CyFlash.c ****                 /* Spin until idle. */
 280:Generated_Source\PSoC5/CyFlash.c ****                 CyDelayUs(1u);
 281:Generated_Source\PSoC5/CyFlash.c ****             }
 282:Generated_Source\PSoC5/CyFlash.c **** 
 283:Generated_Source\PSoC5/CyFlash.c ****             if(CY_SPC_STATUS_SUCCESS == CY_SPC_READ_STATUS)
 284:Generated_Source\PSoC5/CyFlash.c ****             {
 285:Generated_Source\PSoC5/CyFlash.c ****                 status = CYRET_SUCCESS;
 286:Generated_Source\PSoC5/CyFlash.c ****             }
 287:Generated_Source\PSoC5/CyFlash.c ****         }
 288:Generated_Source\PSoC5/CyFlash.c ****         CySpcUnlock();
 289:Generated_Source\PSoC5/CyFlash.c ****     }
 290:Generated_Source\PSoC5/CyFlash.c ****     else
 291:Generated_Source\PSoC5/CyFlash.c ****     {
 292:Generated_Source\PSoC5/CyFlash.c ****         status = CYRET_LOCKED;
 285              		.loc 1 292 0
 286 000c 0424     		movs	r4, #4
 287              	.LVL19:
 293:Generated_Source\PSoC5/CyFlash.c ****     }
 294:Generated_Source\PSoC5/CyFlash.c **** 
 295:Generated_Source\PSoC5/CyFlash.c ****     return (status);
 296:Generated_Source\PSoC5/CyFlash.c **** }
 288              		.loc 1 296 0
 289 000e 2046     		mov	r0, r4
 290 0010 38BD     		pop	{r3, r4, r5, pc}
 291              	.LVL20:
 292              	.L44:
 293              	.LBB4:
 294              	.LBB5:
 273:Generated_Source\PSoC5/CyFlash.c **** 
 295              		.loc 1 273 0
 296 0012 FFF7FEFF 		bl	CySpcGetAlgorithm
 297              	.LVL21:
 275:Generated_Source\PSoC5/CyFlash.c ****         {
 298              		.loc 1 275 0
 299 0016 0728     		cmp	r0, #7
 273:Generated_Source\PSoC5/CyFlash.c **** 
 300              		.loc 1 273 0
 301 0018 0446     		mov	r4, r0
 302              	.LVL22:
 275:Generated_Source\PSoC5/CyFlash.c ****         {
 303              		.loc 1 275 0
 304 001a 03D0     		beq	.L45
 305              	.LVL23:
 306              	.L35:
 288:Generated_Source\PSoC5/CyFlash.c ****     }
ARM GAS  C:\Users\MattiaCP\AppData\Local\Temp\cc9exna0.s 			page 12


 307              		.loc 1 288 0
 308 001c FFF7FEFF 		bl	CySpcUnlock
 309              	.LVL24:
 310              	.LBE5:
 311              	.LBE4:
 312              		.loc 1 296 0
 313 0020 2046     		mov	r0, r4
 314 0022 38BD     		pop	{r3, r4, r5, pc}
 315              	.LVL25:
 316              	.L45:
 317              	.LBB7:
 318              	.LBB6:
 277:Generated_Source\PSoC5/CyFlash.c ****             {
 319              		.loc 1 277 0
 320 0024 094D     		ldr	r5, .L46
 321 0026 2B78     		ldrb	r3, [r5]	@ zero_extendqisi2
 322 0028 9907     		lsls	r1, r3, #30
 323 002a 05D4     		bmi	.L38
 324              	.LVL26:
 325              	.L36:
 280:Generated_Source\PSoC5/CyFlash.c ****             }
 326              		.loc 1 280 0
 327 002c 0120     		movs	r0, #1
 328 002e FFF7FEFF 		bl	CyDelayUs
 329              	.LVL27:
 277:Generated_Source\PSoC5/CyFlash.c ****             {
 330              		.loc 1 277 0
 331 0032 2B78     		ldrb	r3, [r5]	@ zero_extendqisi2
 332 0034 9B07     		lsls	r3, r3, #30
 333 0036 F9D5     		bpl	.L36
 334              	.L38:
 283:Generated_Source\PSoC5/CyFlash.c ****             {
 335              		.loc 1 283 0
 336 0038 044B     		ldr	r3, .L46
 337 003a 1A78     		ldrb	r2, [r3]	@ zero_extendqisi2
 338 003c 9207     		lsls	r2, r2, #30
 339 003e EDD5     		bpl	.L35
 340 0040 1B78     		ldrb	r3, [r3]	@ zero_extendqisi2
 285:Generated_Source\PSoC5/CyFlash.c ****             }
 341              		.loc 1 285 0
 342 0042 9B08     		lsrs	r3, r3, #2
 343 0044 14BF     		ite	ne
 344 0046 0724     		movne	r4, #7
 345              	.LVL28:
 346 0048 0024     		moveq	r4, #0
 347 004a E7E7     		b	.L35
 348              	.L47:
 349              		.align	2
 350              	.L46:
 351 004c 22470040 		.word	1073760034
 352              	.LBE6:
 353              	.LBE7:
 354              		.cfi_endproc
 355              	.LFE4:
 356              		.size	CyFlashGetSpcAlgorithm, .-CyFlashGetSpcAlgorithm
 357              		.section	.text.CySetTemp,"ax",%progbits
 358              		.align	2
ARM GAS  C:\Users\MattiaCP\AppData\Local\Temp\cc9exna0.s 			page 13


 359              		.global	CySetTemp
 360              		.thumb
 361              		.thumb_func
 362              		.type	CySetTemp, %function
 363              	CySetTemp:
 364              	.LFB5:
 297:Generated_Source\PSoC5/CyFlash.c **** 
 298:Generated_Source\PSoC5/CyFlash.c **** 
 299:Generated_Source\PSoC5/CyFlash.c **** /*******************************************************************************
 300:Generated_Source\PSoC5/CyFlash.c **** * Function Name: CySetTemp
 301:Generated_Source\PSoC5/CyFlash.c **** ****************************************************************************//**
 302:Generated_Source\PSoC5/CyFlash.c **** *
 303:Generated_Source\PSoC5/CyFlash.c **** *  This is a wraparound for CySetTempInt(). It is used to return the second
 304:Generated_Source\PSoC5/CyFlash.c **** *  successful read of the temperature value.
 305:Generated_Source\PSoC5/CyFlash.c **** *
 306:Generated_Source\PSoC5/CyFlash.c **** * \return
 307:Generated_Source\PSoC5/CyFlash.c **** *  status:
 308:Generated_Source\PSoC5/CyFlash.c **** *   CYRET_SUCCESS if successful.
 309:Generated_Source\PSoC5/CyFlash.c **** *   CYRET_LOCKED  if Flash writing already in use
 310:Generated_Source\PSoC5/CyFlash.c **** *   CYRET_UNKNOWN if there was an SPC error.
 311:Generated_Source\PSoC5/CyFlash.c **** *
 312:Generated_Source\PSoC5/CyFlash.c **** *  uint8 dieTemperature[2]:
 313:Generated_Source\PSoC5/CyFlash.c **** *   Holds the die temperature for the flash writing algorithm. The first byte is
 314:Generated_Source\PSoC5/CyFlash.c **** *   the sign of the temperature (0 = negative, 1 = positive). The second byte is
 315:Generated_Source\PSoC5/CyFlash.c **** *   the magnitude.
 316:Generated_Source\PSoC5/CyFlash.c **** *
 317:Generated_Source\PSoC5/CyFlash.c **** *******************************************************************************/
 318:Generated_Source\PSoC5/CyFlash.c **** cystatus CySetTemp(void) 
 319:Generated_Source\PSoC5/CyFlash.c **** {
 365              		.loc 1 319 0
 366              		.cfi_startproc
 367              		@ args = 0, pretend = 0, frame = 0
 368              		@ frame_needed = 0, uses_anonymous_args = 0
 369 0000 38B5     		push	{r3, r4, r5, lr}
 370              		.cfi_def_cfa_offset 16
 371              		.cfi_offset 3, -16
 372              		.cfi_offset 4, -12
 373              		.cfi_offset 5, -8
 374              		.cfi_offset 14, -4
 375              	.LBB14:
 376              	.LBB15:
 269:Generated_Source\PSoC5/CyFlash.c **** 
 377              		.loc 1 269 0
 378 0002 FFF7FEFF 		bl	CySpcStart
 379              	.LVL29:
 271:Generated_Source\PSoC5/CyFlash.c ****     {
 380              		.loc 1 271 0
 381 0006 FFF7FEFF 		bl	CySpcLock
 382              	.LVL30:
 383 000a 10B1     		cbz	r0, .L49
 384              	.L57:
 292:Generated_Source\PSoC5/CyFlash.c ****     }
 385              		.loc 1 292 0
 386 000c 0424     		movs	r4, #4
 387              	.L71:
 388              	.LBE15:
 389              	.LBE14:
ARM GAS  C:\Users\MattiaCP\AppData\Local\Temp\cc9exna0.s 			page 14


 320:Generated_Source\PSoC5/CyFlash.c ****     cystatus status = CyFlashGetSpcAlgorithm();
 321:Generated_Source\PSoC5/CyFlash.c **** 
 322:Generated_Source\PSoC5/CyFlash.c ****     if(status == CYRET_SUCCESS)
 323:Generated_Source\PSoC5/CyFlash.c ****     {
 324:Generated_Source\PSoC5/CyFlash.c ****         status = CySetTempInt();
 325:Generated_Source\PSoC5/CyFlash.c ****     }
 326:Generated_Source\PSoC5/CyFlash.c **** 
 327:Generated_Source\PSoC5/CyFlash.c ****     return (status);
 328:Generated_Source\PSoC5/CyFlash.c **** }
 390              		.loc 1 328 0
 391 000e 2046     		mov	r0, r4
 392 0010 38BD     		pop	{r3, r4, r5, pc}
 393              	.L49:
 394              	.LBB25:
 395              	.LBB22:
 396              	.LBB16:
 397              	.LBB17:
 273:Generated_Source\PSoC5/CyFlash.c **** 
 398              		.loc 1 273 0
 399 0012 FFF7FEFF 		bl	CySpcGetAlgorithm
 400              	.LVL31:
 275:Generated_Source\PSoC5/CyFlash.c ****         {
 401              		.loc 1 275 0
 402 0016 0728     		cmp	r0, #7
 273:Generated_Source\PSoC5/CyFlash.c **** 
 403              		.loc 1 273 0
 404 0018 0446     		mov	r4, r0
 405              	.LVL32:
 275:Generated_Source\PSoC5/CyFlash.c ****         {
 406              		.loc 1 275 0
 407 001a 2BD0     		beq	.L76
 288:Generated_Source\PSoC5/CyFlash.c ****     }
 408              		.loc 1 288 0
 409 001c FFF7FEFF 		bl	CySpcUnlock
 410              	.LVL33:
 411              	.LBE17:
 412              	.LBE16:
 413              	.LBE22:
 414              	.LBE25:
 322:Generated_Source\PSoC5/CyFlash.c ****     {
 415              		.loc 1 322 0
 416 0020 002C     		cmp	r4, #0
 417 0022 F4D1     		bne	.L71
 418              	.L64:
 419              	.LBB26:
 420              	.LBB27:
 213:Generated_Source\PSoC5/CyFlash.c **** 
 421              		.loc 1 213 0
 422 0024 FFF7FEFF 		bl	CySpcStart
 423              	.LVL34:
 218:Generated_Source\PSoC5/CyFlash.c ****     {
 424              		.loc 1 218 0
 425 0028 FFF7FEFF 		bl	CySpcLock
 426              	.LVL35:
 427 002c 0028     		cmp	r0, #0
 428 002e EDD1     		bne	.L57
 221:Generated_Source\PSoC5/CyFlash.c ****         {
ARM GAS  C:\Users\MattiaCP\AppData\Local\Temp\cc9exna0.s 			page 15


 429              		.loc 1 221 0
 430 0030 0120     		movs	r0, #1
 431 0032 FFF7FEFF 		bl	CySpcGetTemp
 432              	.LVL36:
 433 0036 0728     		cmp	r0, #7
 434 0038 05D0     		beq	.L77
 435              	.L63:
 216:Generated_Source\PSoC5/CyFlash.c **** 
 436              		.loc 1 216 0
 437 003a 4FF0FF34 		mov	r4, #-1
 438              	.LVL37:
 439              	.L54:
 440              	.LBE27:
 441              	.LBE26:
 442              	.LBB29:
 443              	.LBB23:
 444              	.LBB20:
 445              	.LBB18:
 288:Generated_Source\PSoC5/CyFlash.c ****     }
 446              		.loc 1 288 0
 447 003e FFF7FEFF 		bl	CySpcUnlock
 448              	.LVL38:
 449              	.LBE18:
 450              	.LBE20:
 451              	.LBE23:
 452              	.LBE29:
 453              		.loc 1 328 0
 454 0042 2046     		mov	r0, r4
 455 0044 38BD     		pop	{r3, r4, r5, pc}
 456              	.LVL39:
 457              	.L77:
 458              	.LBB30:
 459              	.LBB28:
 237:Generated_Source\PSoC5/CyFlash.c ****         }
 460              		.loc 1 237 0
 461 0046 154C     		ldr	r4, .L78
 462 0048 02E0     		b	.L58
 463              	.L60:
 464 004a 2378     		ldrb	r3, [r4]	@ zero_extendqisi2
 465 004c 9B07     		lsls	r3, r3, #30
 466 004e F4D4     		bmi	.L63
 467              	.L58:
 225:Generated_Source\PSoC5/CyFlash.c ****                 {
 468              		.loc 1 225 0
 469 0050 0221     		movs	r1, #2
 470 0052 1348     		ldr	r0, .L78+4
 471 0054 FFF7FEFF 		bl	CySpcReadData
 472              	.LVL40:
 473 0058 0228     		cmp	r0, #2
 474 005a F6D1     		bne	.L60
 229:Generated_Source\PSoC5/CyFlash.c ****                     {
 475              		.loc 1 229 0
 476 005c 0F4C     		ldr	r4, .L78
 477 005e 2378     		ldrb	r3, [r4]	@ zero_extendqisi2
 478 0060 9907     		lsls	r1, r3, #30
 479 0062 05D4     		bmi	.L62
 480              	.L61:
ARM GAS  C:\Users\MattiaCP\AppData\Local\Temp\cc9exna0.s 			page 16


 232:Generated_Source\PSoC5/CyFlash.c ****                     }
 481              		.loc 1 232 0
 482 0064 0120     		movs	r0, #1
 483 0066 FFF7FEFF 		bl	CyDelayUs
 484              	.LVL41:
 229:Generated_Source\PSoC5/CyFlash.c ****                     {
 485              		.loc 1 229 0
 486 006a 2378     		ldrb	r3, [r4]	@ zero_extendqisi2
 487 006c 9A07     		lsls	r2, r3, #30
 488 006e F9D5     		bpl	.L61
 489              	.L62:
 227:Generated_Source\PSoC5/CyFlash.c **** 
 490              		.loc 1 227 0
 491 0070 0024     		movs	r4, #0
 492 0072 E4E7     		b	.L54
 493              	.LVL42:
 494              	.L76:
 495              	.LBE28:
 496              	.LBE30:
 497              	.LBB31:
 498              	.LBB24:
 499              	.LBB21:
 500              	.LBB19:
 277:Generated_Source\PSoC5/CyFlash.c ****             {
 501              		.loc 1 277 0
 502 0074 094D     		ldr	r5, .L78
 503 0076 2B78     		ldrb	r3, [r5]	@ zero_extendqisi2
 504 0078 9B07     		lsls	r3, r3, #30
 505 007a 05D4     		bmi	.L55
 506              	.LVL43:
 507              	.L52:
 280:Generated_Source\PSoC5/CyFlash.c ****             }
 508              		.loc 1 280 0
 509 007c 0120     		movs	r0, #1
 510 007e FFF7FEFF 		bl	CyDelayUs
 511              	.LVL44:
 277:Generated_Source\PSoC5/CyFlash.c ****             {
 512              		.loc 1 277 0
 513 0082 2B78     		ldrb	r3, [r5]	@ zero_extendqisi2
 514 0084 9807     		lsls	r0, r3, #30
 515 0086 F9D5     		bpl	.L52
 516              	.L55:
 283:Generated_Source\PSoC5/CyFlash.c ****             {
 517              		.loc 1 283 0
 518 0088 044B     		ldr	r3, .L78
 519 008a 1A78     		ldrb	r2, [r3]	@ zero_extendqisi2
 520 008c 9507     		lsls	r5, r2, #30
 521 008e D6D5     		bpl	.L54
 522 0090 1B78     		ldrb	r3, [r3]	@ zero_extendqisi2
 523 0092 9B08     		lsrs	r3, r3, #2
 524 0094 D3D1     		bne	.L54
 525              	.LVL45:
 288:Generated_Source\PSoC5/CyFlash.c ****     }
 526              		.loc 1 288 0
 527 0096 FFF7FEFF 		bl	CySpcUnlock
 528              	.LVL46:
 529 009a C3E7     		b	.L64
ARM GAS  C:\Users\MattiaCP\AppData\Local\Temp\cc9exna0.s 			page 17


 530              	.L79:
 531              		.align	2
 532              	.L78:
 533 009c 22470040 		.word	1073760034
 534 00a0 00000000 		.word	dieTemperature
 535              	.LBE19:
 536              	.LBE21:
 537              	.LBE24:
 538              	.LBE31:
 539              		.cfi_endproc
 540              	.LFE5:
 541              		.size	CySetTemp, .-CySetTemp
 542              		.section	.text.CySetFlashEEBuffer,"ax",%progbits
 543              		.align	2
 544              		.global	CySetFlashEEBuffer
 545              		.thumb
 546              		.thumb_func
 547              		.type	CySetFlashEEBuffer, %function
 548              	CySetFlashEEBuffer:
 549              	.LFB6:
 329:Generated_Source\PSoC5/CyFlash.c **** 
 330:Generated_Source\PSoC5/CyFlash.c **** 
 331:Generated_Source\PSoC5/CyFlash.c **** /*******************************************************************************
 332:Generated_Source\PSoC5/CyFlash.c **** * Function Name: CySetFlashEEBuffer
 333:Generated_Source\PSoC5/CyFlash.c **** ****************************************************************************//**
 334:Generated_Source\PSoC5/CyFlash.c **** *
 335:Generated_Source\PSoC5/CyFlash.c **** *  Sets the user supplied temporary buffer to store SPC data while performing
 336:Generated_Source\PSoC5/CyFlash.c **** *  Flash and EEPROM commands. This buffer is only necessary when the Flash ECC
 337:Generated_Source\PSoC5/CyFlash.c **** *  is disabled.
 338:Generated_Source\PSoC5/CyFlash.c **** *
 339:Generated_Source\PSoC5/CyFlash.c **** *  \param buffer:
 340:Generated_Source\PSoC5/CyFlash.c **** *   The address of a block of memory to store temporary memory. The size of the
 341:Generated_Source\PSoC5/CyFlash.c **** *   block of memory is CYDEV_FLS_ROW_SIZE + CYDEV_ECC_ROW_SIZE.
 342:Generated_Source\PSoC5/CyFlash.c **** *
 343:Generated_Source\PSoC5/CyFlash.c **** * \return
 344:Generated_Source\PSoC5/CyFlash.c **** *  status:
 345:Generated_Source\PSoC5/CyFlash.c **** *   CYRET_SUCCESS if successful.
 346:Generated_Source\PSoC5/CyFlash.c **** *   CYRET_BAD_PARAM if the buffer is NULL
 347:Generated_Source\PSoC5/CyFlash.c **** *
 348:Generated_Source\PSoC5/CyFlash.c **** *******************************************************************************/
 349:Generated_Source\PSoC5/CyFlash.c **** cystatus CySetFlashEEBuffer(uint8 * buffer) 
 350:Generated_Source\PSoC5/CyFlash.c **** {
 550              		.loc 1 350 0
 551              		.cfi_startproc
 552              		@ args = 0, pretend = 0, frame = 8
 553              		@ frame_needed = 0, uses_anonymous_args = 0
 554              	.LVL47:
 555 0000 10B5     		push	{r4, lr}
 556              		.cfi_def_cfa_offset 8
 557              		.cfi_offset 4, -8
 558              		.cfi_offset 14, -4
 559 0002 0446     		mov	r4, r0
 560 0004 82B0     		sub	sp, sp, #8
 561              		.cfi_def_cfa_offset 16
 351:Generated_Source\PSoC5/CyFlash.c ****     cystatus status = CYRET_SUCCESS;
 352:Generated_Source\PSoC5/CyFlash.c **** 
 353:Generated_Source\PSoC5/CyFlash.c ****     CySpcStart();
ARM GAS  C:\Users\MattiaCP\AppData\Local\Temp\cc9exna0.s 			page 18


 562              		.loc 1 353 0
 563 0006 FFF7FEFF 		bl	CySpcStart
 564              	.LVL48:
 354:Generated_Source\PSoC5/CyFlash.c **** 
 355:Generated_Source\PSoC5/CyFlash.c ****     #if(CYDEV_ECC_ENABLE == 0)
 356:Generated_Source\PSoC5/CyFlash.c **** 
 357:Generated_Source\PSoC5/CyFlash.c ****         if(NULL == buffer)
 565              		.loc 1 357 0
 566 000a 2CB1     		cbz	r4, .L82
 358:Generated_Source\PSoC5/CyFlash.c ****         {
 359:Generated_Source\PSoC5/CyFlash.c ****             rowBuffer = rowBuffer;
 360:Generated_Source\PSoC5/CyFlash.c ****             status = CYRET_BAD_PARAM;
 361:Generated_Source\PSoC5/CyFlash.c ****         }
 362:Generated_Source\PSoC5/CyFlash.c ****         else if(CySpcLock() != CYRET_SUCCESS)
 567              		.loc 1 362 0
 568 000c FFF7FEFF 		bl	CySpcLock
 569              	.LVL49:
 570 0010 28B1     		cbz	r0, .L85
 363:Generated_Source\PSoC5/CyFlash.c ****         {
 364:Generated_Source\PSoC5/CyFlash.c ****             rowBuffer = rowBuffer;
 365:Generated_Source\PSoC5/CyFlash.c ****             status = CYRET_LOCKED;
 571              		.loc 1 365 0
 572 0012 0420     		movs	r0, #4
 573              	.LVL50:
 366:Generated_Source\PSoC5/CyFlash.c ****         }
 367:Generated_Source\PSoC5/CyFlash.c ****         else
 368:Generated_Source\PSoC5/CyFlash.c ****         {
 369:Generated_Source\PSoC5/CyFlash.c ****             rowBuffer = buffer;
 370:Generated_Source\PSoC5/CyFlash.c ****             CySpcUnlock();
 371:Generated_Source\PSoC5/CyFlash.c ****         }
 372:Generated_Source\PSoC5/CyFlash.c **** 
 373:Generated_Source\PSoC5/CyFlash.c ****     #else
 374:Generated_Source\PSoC5/CyFlash.c **** 
 375:Generated_Source\PSoC5/CyFlash.c ****         /* To suppress warning */
 376:Generated_Source\PSoC5/CyFlash.c ****         buffer = buffer;
 377:Generated_Source\PSoC5/CyFlash.c **** 
 378:Generated_Source\PSoC5/CyFlash.c ****     #endif  /* (CYDEV_ECC_ENABLE == 0u) */
 379:Generated_Source\PSoC5/CyFlash.c **** 
 380:Generated_Source\PSoC5/CyFlash.c ****     return(status);
 381:Generated_Source\PSoC5/CyFlash.c **** }
 574              		.loc 1 381 0
 575 0014 02B0     		add	sp, sp, #8
 576              		.cfi_remember_state
 577              		.cfi_def_cfa_offset 8
 578              		@ sp needed
 579 0016 10BD     		pop	{r4, pc}
 580              	.LVL51:
 581              	.L82:
 582              		.cfi_restore_state
 360:Generated_Source\PSoC5/CyFlash.c ****         }
 583              		.loc 1 360 0
 584 0018 0120     		movs	r0, #1
 585              	.LVL52:
 586              		.loc 1 381 0
 587 001a 02B0     		add	sp, sp, #8
 588              		.cfi_remember_state
 589              		.cfi_def_cfa_offset 8
ARM GAS  C:\Users\MattiaCP\AppData\Local\Temp\cc9exna0.s 			page 19


 590              		@ sp needed
 591 001c 10BD     		pop	{r4, pc}
 592              	.LVL53:
 593              	.L85:
 594              		.cfi_restore_state
 595 001e 0190     		str	r0, [sp, #4]
 370:Generated_Source\PSoC5/CyFlash.c ****         }
 596              		.loc 1 370 0
 597 0020 FFF7FEFF 		bl	CySpcUnlock
 598              	.LVL54:
 351:Generated_Source\PSoC5/CyFlash.c **** 
 599              		.loc 1 351 0
 600 0024 0198     		ldr	r0, [sp, #4]
 601              	.LVL55:
 602              		.loc 1 381 0
 603 0026 02B0     		add	sp, sp, #8
 604              		.cfi_def_cfa_offset 8
 605              		@ sp needed
 606 0028 10BD     		pop	{r4, pc}
 607              		.cfi_endproc
 608              	.LFE6:
 609              		.size	CySetFlashEEBuffer, .-CySetFlashEEBuffer
 610 002a 00BF     		.section	.text.CyWriteRowData,"ax",%progbits
 611              		.align	2
 612              		.global	CyWriteRowData
 613              		.thumb
 614              		.thumb_func
 615              		.type	CyWriteRowData, %function
 616              	CyWriteRowData:
 617              	.LFB7:
 382:Generated_Source\PSoC5/CyFlash.c **** 
 383:Generated_Source\PSoC5/CyFlash.c **** 
 384:Generated_Source\PSoC5/CyFlash.c **** /*******************************************************************************
 385:Generated_Source\PSoC5/CyFlash.c **** * Function Name: CyWriteRowData
 386:Generated_Source\PSoC5/CyFlash.c **** ****************************************************************************//**
 387:Generated_Source\PSoC5/CyFlash.c **** *
 388:Generated_Source\PSoC5/CyFlash.c **** *  Sends a command to the SPC to load and program a row of data in
 389:Generated_Source\PSoC5/CyFlash.c **** *  Flash or EEPROM.
 390:Generated_Source\PSoC5/CyFlash.c **** *
 391:Generated_Source\PSoC5/CyFlash.c **** *  \param arrayID:    ID of the array to write.
 392:Generated_Source\PSoC5/CyFlash.c **** *   The type of write, Flash or EEPROM, is determined from the array ID.
 393:Generated_Source\PSoC5/CyFlash.c **** *   The arrays in the part are sequential starting at the first ID for the
 394:Generated_Source\PSoC5/CyFlash.c **** *   specific memory type. The array ID for the Flash memory lasts from 0x00 to
 395:Generated_Source\PSoC5/CyFlash.c **** *   0x3F and for the EEPROM memory it lasts from 0x40 to 0x7F.
 396:Generated_Source\PSoC5/CyFlash.c **** *  \param rowAddress: rowAddress of flash row to program.
 397:Generated_Source\PSoC5/CyFlash.c **** *  \param rowData:    Array of bytes to write.
 398:Generated_Source\PSoC5/CyFlash.c **** *
 399:Generated_Source\PSoC5/CyFlash.c **** * \return
 400:Generated_Source\PSoC5/CyFlash.c **** *  status:
 401:Generated_Source\PSoC5/CyFlash.c **** *   CYRET_SUCCESS if successful.
 402:Generated_Source\PSoC5/CyFlash.c **** *   CYRET_LOCKED if the SPC is already in use.
 403:Generated_Source\PSoC5/CyFlash.c **** *   CYRET_CANCELED if command not accepted
 404:Generated_Source\PSoC5/CyFlash.c **** *   CYRET_UNKNOWN if there was an SPC error.
 405:Generated_Source\PSoC5/CyFlash.c **** *
 406:Generated_Source\PSoC5/CyFlash.c **** *******************************************************************************/
 407:Generated_Source\PSoC5/CyFlash.c **** cystatus CyWriteRowData(uint8 arrayId, uint16 rowAddress, const uint8 * rowData) 
 408:Generated_Source\PSoC5/CyFlash.c **** {
ARM GAS  C:\Users\MattiaCP\AppData\Local\Temp\cc9exna0.s 			page 20


 618              		.loc 1 408 0
 619              		.cfi_startproc
 620              		@ args = 0, pretend = 0, frame = 8
 621              		@ frame_needed = 0, uses_anonymous_args = 0
 622              	.LVL56:
 623 0000 F0B5     		push	{r4, r5, r6, r7, lr}
 624              		.cfi_def_cfa_offset 20
 625              		.cfi_offset 4, -20
 626              		.cfi_offset 5, -16
 627              		.cfi_offset 6, -12
 628              		.cfi_offset 7, -8
 629              		.cfi_offset 14, -4
 409:Generated_Source\PSoC5/CyFlash.c ****     uint16 rowSize;
 410:Generated_Source\PSoC5/CyFlash.c ****     cystatus status;
 411:Generated_Source\PSoC5/CyFlash.c **** 
 412:Generated_Source\PSoC5/CyFlash.c ****     rowSize = (arrayId > CY_SPC_LAST_FLASH_ARRAYID) ? CYDEV_EEPROM_ROW_SIZE : CYDEV_FLS_ROW_SIZE;
 630              		.loc 1 412 0
 631 0002 3F28     		cmp	r0, #63
 408:Generated_Source\PSoC5/CyFlash.c ****     uint16 rowSize;
 632              		.loc 1 408 0
 633 0004 83B0     		sub	sp, sp, #12
 634              		.cfi_def_cfa_offset 32
 635              		.loc 1 412 0
 636 0006 0AD8     		bhi	.L116
 637              	.LVL57:
 638              	.LBB36:
 639              	.LBB37:
 413:Generated_Source\PSoC5/CyFlash.c ****     status = CyWriteRowFull(arrayId, rowAddress, rowData, rowSize);
 414:Generated_Source\PSoC5/CyFlash.c **** 
 415:Generated_Source\PSoC5/CyFlash.c ****     return(status);
 416:Generated_Source\PSoC5/CyFlash.c **** }
 417:Generated_Source\PSoC5/CyFlash.c **** 
 418:Generated_Source\PSoC5/CyFlash.c **** 
 419:Generated_Source\PSoC5/CyFlash.c **** /*******************************************************************
 420:Generated_Source\PSoC5/CyFlash.c **** * If "Enable Error Correcting Code (ECC)" and "Store Configuration
 421:Generated_Source\PSoC5/CyFlash.c **** * Data in ECC" DWR options are disabled, ECC section is available
 422:Generated_Source\PSoC5/CyFlash.c **** * for user data.
 423:Generated_Source\PSoC5/CyFlash.c **** *******************************************************************/
 424:Generated_Source\PSoC5/CyFlash.c **** #if ((CYDEV_ECC_ENABLE == 0u) && (CYDEV_CONFIGURATION_ECC == 0u))
 425:Generated_Source\PSoC5/CyFlash.c **** 
 426:Generated_Source\PSoC5/CyFlash.c ****     /*******************************************************************************
 427:Generated_Source\PSoC5/CyFlash.c ****     * Function Name: CyWriteRowConfig
 428:Generated_Source\PSoC5/CyFlash.c ****     ****************************************************************************//**
 429:Generated_Source\PSoC5/CyFlash.c ****     *
 430:Generated_Source\PSoC5/CyFlash.c ****     *  Sends a command to the SPC to load and program a row of config data in the
 431:Generated_Source\PSoC5/CyFlash.c ****     *  Flash. This function is only valid for Flash array IDs (not for EEPROM).
 432:Generated_Source\PSoC5/CyFlash.c ****     *
 433:Generated_Source\PSoC5/CyFlash.c ****     *  \param arrayId:      ID of the array to write
 434:Generated_Source\PSoC5/CyFlash.c ****     *   The arrays in the part are sequential starting at the first ID for the
 435:Generated_Source\PSoC5/CyFlash.c ****     *   specific memory type. The array ID for the Flash memory lasts
 436:Generated_Source\PSoC5/CyFlash.c ****     *   from 0x00 to 0x3F.
 437:Generated_Source\PSoC5/CyFlash.c ****     *  \param rowAddress:   The address of the sector to erase.
 438:Generated_Source\PSoC5/CyFlash.c ****     *  \param rowECC:       The array of bytes to write.
 439:Generated_Source\PSoC5/CyFlash.c ****     *
 440:Generated_Source\PSoC5/CyFlash.c ****     * \return
 441:Generated_Source\PSoC5/CyFlash.c ****     *  status:
 442:Generated_Source\PSoC5/CyFlash.c ****     *   CYRET_SUCCESS if successful.
ARM GAS  C:\Users\MattiaCP\AppData\Local\Temp\cc9exna0.s 			page 21


 443:Generated_Source\PSoC5/CyFlash.c ****     *   CYRET_LOCKED if the SPC is already in use.
 444:Generated_Source\PSoC5/CyFlash.c ****     *   CYRET_CANCELED if command not accepted
 445:Generated_Source\PSoC5/CyFlash.c ****     *   CYRET_UNKNOWN if there was an SPC error.
 446:Generated_Source\PSoC5/CyFlash.c ****     *
 447:Generated_Source\PSoC5/CyFlash.c ****     *******************************************************************************/
 448:Generated_Source\PSoC5/CyFlash.c ****     cystatus CyWriteRowConfig(uint8 arrayId, uint16 rowAddress, const uint8 * rowECC)\
 449:Generated_Source\PSoC5/CyFlash.c ****     
 450:Generated_Source\PSoC5/CyFlash.c ****     {
 451:Generated_Source\PSoC5/CyFlash.c ****         cystatus status;
 452:Generated_Source\PSoC5/CyFlash.c **** 
 453:Generated_Source\PSoC5/CyFlash.c ****         status = CyWriteRowFull(arrayId, rowAddress, rowECC, CYDEV_ECC_ROW_SIZE);
 454:Generated_Source\PSoC5/CyFlash.c **** 
 455:Generated_Source\PSoC5/CyFlash.c ****         return (status);
 456:Generated_Source\PSoC5/CyFlash.c ****     }
 457:Generated_Source\PSoC5/CyFlash.c **** 
 458:Generated_Source\PSoC5/CyFlash.c **** #endif  /* ((CYDEV_ECC_ENABLE == 0u) && (CYDEV_CONFIGURATION_ECC == 0u)) */
 459:Generated_Source\PSoC5/CyFlash.c **** 
 460:Generated_Source\PSoC5/CyFlash.c **** 
 461:Generated_Source\PSoC5/CyFlash.c **** 
 462:Generated_Source\PSoC5/CyFlash.c **** /*******************************************************************************
 463:Generated_Source\PSoC5/CyFlash.c **** * Function Name: CyWriteRowFull
 464:Generated_Source\PSoC5/CyFlash.c **** ****************************************************************************//**
 465:Generated_Source\PSoC5/CyFlash.c **** *  Sends a command to the SPC to load and program a row of data in the Flash.
 466:Generated_Source\PSoC5/CyFlash.c **** *  rowData array is expected to contain Flash and ECC data if needed.
 467:Generated_Source\PSoC5/CyFlash.c **** *
 468:Generated_Source\PSoC5/CyFlash.c **** *  \param arrayId:    FLASH or EEPROM array id.
 469:Generated_Source\PSoC5/CyFlash.c **** *  \param rowData:    Pointer to a row of data to write.
 470:Generated_Source\PSoC5/CyFlash.c **** *  \param rowNumber:  Zero based number of the row.
 471:Generated_Source\PSoC5/CyFlash.c **** *  \param rowSize:    Size of the row.
 472:Generated_Source\PSoC5/CyFlash.c **** *
 473:Generated_Source\PSoC5/CyFlash.c **** * \return
 474:Generated_Source\PSoC5/CyFlash.c **** *  CYRET_SUCCESS if successful.
 475:Generated_Source\PSoC5/CyFlash.c **** *  CYRET_LOCKED if the SPC is already in use.
 476:Generated_Source\PSoC5/CyFlash.c **** *  CYRET_CANCELED if command not accepted
 477:Generated_Source\PSoC5/CyFlash.c **** *  CYRET_UNKNOWN if there was an SPC error.
 478:Generated_Source\PSoC5/CyFlash.c **** *
 479:Generated_Source\PSoC5/CyFlash.c **** *******************************************************************************/
 480:Generated_Source\PSoC5/CyFlash.c **** cystatus CyWriteRowFull(uint8 arrayId, uint16 rowNumber, const uint8* rowData, uint16 rowSize) \
 481:Generated_Source\PSoC5/CyFlash.c ****         
 482:Generated_Source\PSoC5/CyFlash.c **** {
 483:Generated_Source\PSoC5/CyFlash.c ****     cystatus status = CYRET_SUCCESS;
 640              		.loc 1 483 0
 641 0008 441F     		subs	r4, r0, #5
 642 000a 3A2C     		cmp	r4, #58
 643 000c 8CBF     		ite	hi
 644 000e 0024     		movhi	r4, #0
 645 0010 0124     		movls	r4, #1
 484:Generated_Source\PSoC5/CyFlash.c **** 
 485:Generated_Source\PSoC5/CyFlash.c ****     if((arrayId <=  CY_SPC_LAST_FLASH_ARRAYID) && (arrayId > (CY_FLASH_NUMBER_ARRAYS  + CY_SPC_FIRS
 486:Generated_Source\PSoC5/CyFlash.c ****     {
 487:Generated_Source\PSoC5/CyFlash.c ****         status = CYRET_BAD_PARAM;
 488:Generated_Source\PSoC5/CyFlash.c ****     }
 489:Generated_Source\PSoC5/CyFlash.c **** 
 490:Generated_Source\PSoC5/CyFlash.c ****     if(arrayId > CY_SPC_LAST_EE_ARRAYID)
 491:Generated_Source\PSoC5/CyFlash.c ****     {
 492:Generated_Source\PSoC5/CyFlash.c ****         status = CYRET_BAD_PARAM;
 493:Generated_Source\PSoC5/CyFlash.c ****     }
ARM GAS  C:\Users\MattiaCP\AppData\Local\Temp\cc9exna0.s 			page 22


 494:Generated_Source\PSoC5/CyFlash.c **** 
 495:Generated_Source\PSoC5/CyFlash.c ****     if((arrayId >= CY_SPC_FIRST_EE_ARRAYID) && (arrayId > (CY_FLASH_EEPROM_NUMBER_ARRAYS + CY_SPC_F
 496:Generated_Source\PSoC5/CyFlash.c ****     {
 497:Generated_Source\PSoC5/CyFlash.c ****         status = CYRET_BAD_PARAM;
 498:Generated_Source\PSoC5/CyFlash.c ****     }
 499:Generated_Source\PSoC5/CyFlash.c **** 
 500:Generated_Source\PSoC5/CyFlash.c ****     if(arrayId <=  CY_SPC_LAST_FLASH_ARRAYID)
 501:Generated_Source\PSoC5/CyFlash.c ****     {
 502:Generated_Source\PSoC5/CyFlash.c ****         /* Flash */
 503:Generated_Source\PSoC5/CyFlash.c ****         if(rowNumber > (CY_FLASH_NUMBER_ROWS/CY_FLASH_NUMBER_ARRAYS))
 646              		.loc 1 503 0
 647 0012 B1F5807F 		cmp	r1, #256
 648 0016 17D9     		bls	.L117
 649              	.LVL58:
 650              	.L103:
 651 0018 0120     		movs	r0, #1
 652              	.LVL59:
 653              	.LBE37:
 654              	.LBE36:
 416:Generated_Source\PSoC5/CyFlash.c **** 
 655              		.loc 1 416 0
 656 001a 03B0     		add	sp, sp, #12
 657              		.cfi_remember_state
 658              		.cfi_def_cfa_offset 20
 659              		@ sp needed
 660 001c F0BD     		pop	{r4, r5, r6, r7, pc}
 661              	.LVL60:
 662              	.L116:
 663              		.cfi_restore_state
 664              	.LBB42:
 665              	.LBB40:
 483:Generated_Source\PSoC5/CyFlash.c **** 
 666              		.loc 1 483 0 discriminator 4
 667 001e 4128     		cmp	r0, #65
 668 0020 94BF     		ite	ls
 669 0022 0024     		movls	r4, #0
 670 0024 0124     		movhi	r4, #1
 671              	.LVL61:
 504:Generated_Source\PSoC5/CyFlash.c ****         {
 505:Generated_Source\PSoC5/CyFlash.c ****             status = CYRET_BAD_PARAM;
 506:Generated_Source\PSoC5/CyFlash.c ****         }
 507:Generated_Source\PSoC5/CyFlash.c ****     }
 508:Generated_Source\PSoC5/CyFlash.c ****     else
 509:Generated_Source\PSoC5/CyFlash.c ****     {
 510:Generated_Source\PSoC5/CyFlash.c ****         /* EEPROM */
 511:Generated_Source\PSoC5/CyFlash.c ****         if(rowNumber > (CY_EEPROM_NUMBER_ROWS/CY_FLASH_EEPROM_NUMBER_ARRAYS))
 512:Generated_Source\PSoC5/CyFlash.c ****         {
 513:Generated_Source\PSoC5/CyFlash.c ****             status = CYRET_BAD_PARAM;
 672              		.loc 1 513 0 discriminator 4
 673 0026 8129     		cmp	r1, #129
 674 0028 28BF     		it	cs
 675 002a 0124     		movcs	r4, #1
 676              	.LVL62:
 503:Generated_Source\PSoC5/CyFlash.c ****         {
 677              		.loc 1 503 0 discriminator 4
 678 002c 1027     		movs	r7, #16
 679              	.LVL63:
ARM GAS  C:\Users\MattiaCP\AppData\Local\Temp\cc9exna0.s 			page 23


 680              	.L98:
 514:Generated_Source\PSoC5/CyFlash.c ****         }
 515:Generated_Source\PSoC5/CyFlash.c **** 
 516:Generated_Source\PSoC5/CyFlash.c ****         if(CY_EEPROM_SIZEOF_ROW != rowSize)
 517:Generated_Source\PSoC5/CyFlash.c ****         {
 518:Generated_Source\PSoC5/CyFlash.c ****             status = CYRET_BAD_PARAM;
 519:Generated_Source\PSoC5/CyFlash.c ****         }
 520:Generated_Source\PSoC5/CyFlash.c ****     }
 521:Generated_Source\PSoC5/CyFlash.c **** 
 522:Generated_Source\PSoC5/CyFlash.c ****     if(rowData == NULL)
 681              		.loc 1 522 0
 682 002e 002A     		cmp	r2, #0
 683 0030 F2D0     		beq	.L103
 523:Generated_Source\PSoC5/CyFlash.c ****     {
 524:Generated_Source\PSoC5/CyFlash.c ****         status = CYRET_BAD_PARAM;
 525:Generated_Source\PSoC5/CyFlash.c ****     }
 526:Generated_Source\PSoC5/CyFlash.c **** 
 527:Generated_Source\PSoC5/CyFlash.c **** 
 528:Generated_Source\PSoC5/CyFlash.c ****     if(status == CYRET_SUCCESS)
 684              		.loc 1 528 0
 685 0032 002C     		cmp	r4, #0
 686 0034 F0D1     		bne	.L103
 687 0036 1646     		mov	r6, r2
 688 0038 0D46     		mov	r5, r1
 689 003a 0446     		mov	r4, r0
 690              	.LVL64:
 529:Generated_Source\PSoC5/CyFlash.c ****     {
 530:Generated_Source\PSoC5/CyFlash.c ****         if(CySpcLock() == CYRET_SUCCESS)
 691              		.loc 1 530 0
 692 003c FFF7FEFF 		bl	CySpcLock
 693              	.LVL65:
 694 0040 28B1     		cbz	r0, .L118
 531:Generated_Source\PSoC5/CyFlash.c ****         {
 532:Generated_Source\PSoC5/CyFlash.c ****             /* Load row data into SPC internal latch */
 533:Generated_Source\PSoC5/CyFlash.c ****             status = CySpcLoadRowFull(arrayId, rowNumber, rowData, rowSize);
 534:Generated_Source\PSoC5/CyFlash.c **** 
 535:Generated_Source\PSoC5/CyFlash.c ****             if(CYRET_STARTED == status)
 536:Generated_Source\PSoC5/CyFlash.c ****             {
 537:Generated_Source\PSoC5/CyFlash.c ****                 while(CY_SPC_BUSY)
 538:Generated_Source\PSoC5/CyFlash.c ****                 {
 539:Generated_Source\PSoC5/CyFlash.c ****                     /* Wait for SPC to finish and get SPC status */
 540:Generated_Source\PSoC5/CyFlash.c ****                     CyDelayUs(1u);
 541:Generated_Source\PSoC5/CyFlash.c ****                 }
 542:Generated_Source\PSoC5/CyFlash.c **** 
 543:Generated_Source\PSoC5/CyFlash.c ****                 /* Hide SPC status */
 544:Generated_Source\PSoC5/CyFlash.c ****                 if(CY_SPC_STATUS_SUCCESS == CY_SPC_READ_STATUS)
 545:Generated_Source\PSoC5/CyFlash.c ****                 {
 546:Generated_Source\PSoC5/CyFlash.c ****                     status = CYRET_SUCCESS;
 547:Generated_Source\PSoC5/CyFlash.c ****                 }
 548:Generated_Source\PSoC5/CyFlash.c ****                 else
 549:Generated_Source\PSoC5/CyFlash.c ****                 {
 550:Generated_Source\PSoC5/CyFlash.c ****                     status = CYRET_UNKNOWN;
 551:Generated_Source\PSoC5/CyFlash.c ****                 }
 552:Generated_Source\PSoC5/CyFlash.c **** 
 553:Generated_Source\PSoC5/CyFlash.c ****                 if(CYRET_SUCCESS == status)
 554:Generated_Source\PSoC5/CyFlash.c ****                 {
 555:Generated_Source\PSoC5/CyFlash.c ****                     /* Erase and program flash with data from SPC interval latch */
ARM GAS  C:\Users\MattiaCP\AppData\Local\Temp\cc9exna0.s 			page 24


 556:Generated_Source\PSoC5/CyFlash.c ****                     status = CySpcWriteRow(arrayId, rowNumber, dieTemperature[0u], dieTemperature[1
 557:Generated_Source\PSoC5/CyFlash.c **** 
 558:Generated_Source\PSoC5/CyFlash.c ****                     if(CYRET_STARTED == status)
 559:Generated_Source\PSoC5/CyFlash.c ****                     {
 560:Generated_Source\PSoC5/CyFlash.c ****                         while(CY_SPC_BUSY)
 561:Generated_Source\PSoC5/CyFlash.c ****                         {
 562:Generated_Source\PSoC5/CyFlash.c ****                             /* Wait for SPC to finish and get SPC status */
 563:Generated_Source\PSoC5/CyFlash.c ****                             CyDelayUs(1u);
 564:Generated_Source\PSoC5/CyFlash.c ****                         }
 565:Generated_Source\PSoC5/CyFlash.c **** 
 566:Generated_Source\PSoC5/CyFlash.c ****                         /* Hide SPC status */
 567:Generated_Source\PSoC5/CyFlash.c ****                         if(CY_SPC_STATUS_SUCCESS == CY_SPC_READ_STATUS)
 568:Generated_Source\PSoC5/CyFlash.c ****                         {
 569:Generated_Source\PSoC5/CyFlash.c ****                             status = CYRET_SUCCESS;
 570:Generated_Source\PSoC5/CyFlash.c ****                         }
 571:Generated_Source\PSoC5/CyFlash.c ****                         else
 572:Generated_Source\PSoC5/CyFlash.c ****                         {
 573:Generated_Source\PSoC5/CyFlash.c ****                             status = CYRET_UNKNOWN;
 574:Generated_Source\PSoC5/CyFlash.c ****                         }
 575:Generated_Source\PSoC5/CyFlash.c ****                     }
 576:Generated_Source\PSoC5/CyFlash.c ****                 }
 577:Generated_Source\PSoC5/CyFlash.c ****             }
 578:Generated_Source\PSoC5/CyFlash.c ****             CySpcUnlock();
 579:Generated_Source\PSoC5/CyFlash.c ****         }   /* if(CySpcLock() == CYRET_SUCCESS) */
 580:Generated_Source\PSoC5/CyFlash.c ****         else
 581:Generated_Source\PSoC5/CyFlash.c ****         {
 582:Generated_Source\PSoC5/CyFlash.c ****             status = CYRET_LOCKED;
 695              		.loc 1 582 0
 696 0042 0420     		movs	r0, #4
 697              	.LVL66:
 698              	.L113:
 699              	.LBE40:
 700              	.LBE42:
 416:Generated_Source\PSoC5/CyFlash.c **** 
 701              		.loc 1 416 0
 702 0044 03B0     		add	sp, sp, #12
 703              		.cfi_remember_state
 704              		.cfi_def_cfa_offset 20
 705              		@ sp needed
 706 0046 F0BD     		pop	{r4, r5, r6, r7, pc}
 707              	.LVL67:
 708              	.L117:
 709              		.cfi_restore_state
 710              	.LBB43:
 711              	.LBB41:
 503:Generated_Source\PSoC5/CyFlash.c ****         {
 712              		.loc 1 503 0
 713 0048 4FF48077 		mov	r7, #256
 714 004c EFE7     		b	.L98
 715              	.LVL68:
 716              	.L118:
 717              	.LBB38:
 718              	.LBB39:
 533:Generated_Source\PSoC5/CyFlash.c **** 
 719              		.loc 1 533 0
 720 004e 3B46     		mov	r3, r7
 721 0050 3246     		mov	r2, r6
ARM GAS  C:\Users\MattiaCP\AppData\Local\Temp\cc9exna0.s 			page 25


 722 0052 2946     		mov	r1, r5
 723 0054 2046     		mov	r0, r4
 724 0056 FFF7FEFF 		bl	CySpcLoadRowFull
 725              	.LVL69:
 535:Generated_Source\PSoC5/CyFlash.c ****             {
 726              		.loc 1 535 0
 727 005a 0728     		cmp	r0, #7
 728 005c 04D0     		beq	.L119
 729              	.LVL70:
 730              	.L90:
 731 005e 0190     		str	r0, [sp, #4]
 732              	.LVL71:
 578:Generated_Source\PSoC5/CyFlash.c ****         }   /* if(CySpcLock() == CYRET_SUCCESS) */
 733              		.loc 1 578 0
 734 0060 FFF7FEFF 		bl	CySpcUnlock
 735              	.LVL72:
 736 0064 0198     		ldr	r0, [sp, #4]
 737 0066 EDE7     		b	.L113
 738              	.LVL73:
 739              	.L119:
 537:Generated_Source\PSoC5/CyFlash.c ****                 {
 740              		.loc 1 537 0
 741 0068 164E     		ldr	r6, .L120
 742              	.LVL74:
 743 006a 3378     		ldrb	r3, [r6]	@ zero_extendqisi2
 744 006c 9B07     		lsls	r3, r3, #30
 745 006e 05D4     		bmi	.L94
 746              	.LVL75:
 747              	.L91:
 540:Generated_Source\PSoC5/CyFlash.c ****                 }
 748              		.loc 1 540 0
 749 0070 0120     		movs	r0, #1
 750 0072 FFF7FEFF 		bl	CyDelayUs
 751              	.LVL76:
 537:Generated_Source\PSoC5/CyFlash.c ****                 {
 752              		.loc 1 537 0
 753 0076 3378     		ldrb	r3, [r6]	@ zero_extendqisi2
 754 0078 9807     		lsls	r0, r3, #30
 755 007a F9D5     		bpl	.L91
 756              	.L94:
 544:Generated_Source\PSoC5/CyFlash.c ****                 {
 757              		.loc 1 544 0
 758 007c 114E     		ldr	r6, .L120
 759 007e 3378     		ldrb	r3, [r6]	@ zero_extendqisi2
 760 0080 9F07     		lsls	r7, r3, #30
 761              	.LVL77:
 762 0082 1BD5     		bpl	.L93
 763 0084 3378     		ldrb	r3, [r6]	@ zero_extendqisi2
 764 0086 9B08     		lsrs	r3, r3, #2
 765 0088 18D1     		bne	.L93
 766              	.LVL78:
 556:Generated_Source\PSoC5/CyFlash.c **** 
 767              		.loc 1 556 0
 768 008a 0F4A     		ldr	r2, .L120+4
 769 008c 2946     		mov	r1, r5
 770 008e 5378     		ldrb	r3, [r2, #1]	@ zero_extendqisi2
 771 0090 2046     		mov	r0, r4
ARM GAS  C:\Users\MattiaCP\AppData\Local\Temp\cc9exna0.s 			page 26


 772 0092 1278     		ldrb	r2, [r2]	@ zero_extendqisi2
 773 0094 FFF7FEFF 		bl	CySpcWriteRow
 774              	.LVL79:
 558:Generated_Source\PSoC5/CyFlash.c ****                     {
 775              		.loc 1 558 0
 776 0098 0728     		cmp	r0, #7
 777 009a E0D1     		bne	.L90
 778 009c 02E0     		b	.L115
 779              	.LVL80:
 780              	.L96:
 563:Generated_Source\PSoC5/CyFlash.c ****                         }
 781              		.loc 1 563 0
 782 009e 0120     		movs	r0, #1
 783 00a0 FFF7FEFF 		bl	CyDelayUs
 784              	.LVL81:
 785              	.L115:
 560:Generated_Source\PSoC5/CyFlash.c ****                         {
 786              		.loc 1 560 0
 787 00a4 3378     		ldrb	r3, [r6]	@ zero_extendqisi2
 788 00a6 9907     		lsls	r1, r3, #30
 789 00a8 F9D5     		bpl	.L96
 567:Generated_Source\PSoC5/CyFlash.c ****                         {
 790              		.loc 1 567 0
 791 00aa 064B     		ldr	r3, .L120
 792 00ac 1A78     		ldrb	r2, [r3]	@ zero_extendqisi2
 793 00ae 9207     		lsls	r2, r2, #30
 794 00b0 04D5     		bpl	.L93
 795 00b2 1B78     		ldrb	r3, [r3]	@ zero_extendqisi2
 796 00b4 9B08     		lsrs	r3, r3, #2
 797 00b6 01D1     		bne	.L93
 569:Generated_Source\PSoC5/CyFlash.c ****                         }
 798              		.loc 1 569 0
 799 00b8 1846     		mov	r0, r3
 800 00ba D0E7     		b	.L90
 801              	.L93:
 802              	.LVL82:
 573:Generated_Source\PSoC5/CyFlash.c ****                         }
 803              		.loc 1 573 0
 804 00bc 4FF0FF30 		mov	r0, #-1
 805 00c0 CDE7     		b	.L90
 806              	.L121:
 807 00c2 00BF     		.align	2
 808              	.L120:
 809 00c4 22470040 		.word	1073760034
 810 00c8 00000000 		.word	dieTemperature
 811              	.LBE39:
 812              	.LBE38:
 813              	.LBE41:
 814              	.LBE43:
 815              		.cfi_endproc
 816              	.LFE7:
 817              		.size	CyWriteRowData, .-CyWriteRowData
 818              		.section	.text.CyWriteRowFull,"ax",%progbits
 819              		.align	2
 820              		.global	CyWriteRowFull
 821              		.thumb
 822              		.thumb_func
ARM GAS  C:\Users\MattiaCP\AppData\Local\Temp\cc9exna0.s 			page 27


 823              		.type	CyWriteRowFull, %function
 824              	CyWriteRowFull:
 825              	.LFB8:
 482:Generated_Source\PSoC5/CyFlash.c ****     cystatus status = CYRET_SUCCESS;
 826              		.loc 1 482 0
 827              		.cfi_startproc
 828              		@ args = 0, pretend = 0, frame = 8
 829              		@ frame_needed = 0, uses_anonymous_args = 0
 830              	.LVL83:
 831 0000 F0B5     		push	{r4, r5, r6, r7, lr}
 832              		.cfi_def_cfa_offset 20
 833              		.cfi_offset 4, -20
 834              		.cfi_offset 5, -16
 835              		.cfi_offset 6, -12
 836              		.cfi_offset 7, -8
 837              		.cfi_offset 14, -4
 495:Generated_Source\PSoC5/CyFlash.c ****     {
 838              		.loc 1 495 0
 839 0002 4128     		cmp	r0, #65
 482:Generated_Source\PSoC5/CyFlash.c ****     cystatus status = CYRET_SUCCESS;
 840              		.loc 1 482 0
 841 0004 83B0     		sub	sp, sp, #12
 842              		.cfi_def_cfa_offset 32
 495:Generated_Source\PSoC5/CyFlash.c ****     {
 843              		.loc 1 495 0
 844 0006 15D8     		bhi	.L135
 483:Generated_Source\PSoC5/CyFlash.c **** 
 845              		.loc 1 483 0
 846 0008 441F     		subs	r4, r0, #5
 847 000a 3A2C     		cmp	r4, #58
 848 000c 8CBF     		ite	hi
 849 000e 0024     		movhi	r4, #0
 850 0010 0124     		movls	r4, #1
 500:Generated_Source\PSoC5/CyFlash.c ****     {
 851              		.loc 1 500 0
 852 0012 3F28     		cmp	r0, #63
 853 0014 0FD8     		bhi	.L123
 503:Generated_Source\PSoC5/CyFlash.c ****         {
 854              		.loc 1 503 0
 855 0016 B1F5807F 		cmp	r1, #256
 856 001a 11D8     		bhi	.L139
 857              	.LVL84:
 858              	.L125:
 522:Generated_Source\PSoC5/CyFlash.c ****     {
 859              		.loc 1 522 0
 860 001c 82B1     		cbz	r2, .L139
 528:Generated_Source\PSoC5/CyFlash.c ****     {
 861              		.loc 1 528 0
 862 001e 7CB9     		cbnz	r4, .L139
 863 0020 1E46     		mov	r6, r3
 864 0022 1746     		mov	r7, r2
 865 0024 0D46     		mov	r5, r1
 866 0026 0446     		mov	r4, r0
 867              	.LVL85:
 530:Generated_Source\PSoC5/CyFlash.c ****         {
 868              		.loc 1 530 0
 869 0028 FFF7FEFF 		bl	CySpcLock
ARM GAS  C:\Users\MattiaCP\AppData\Local\Temp\cc9exna0.s 			page 28


 870              	.LVL86:
 871 002c 58B1     		cbz	r0, .L154
 872              		.loc 1 582 0
 873 002e 0420     		movs	r0, #4
 874              	.LVL87:
 583:Generated_Source\PSoC5/CyFlash.c ****         }
 584:Generated_Source\PSoC5/CyFlash.c ****     }
 585:Generated_Source\PSoC5/CyFlash.c **** 
 586:Generated_Source\PSoC5/CyFlash.c ****     return(status);
 587:Generated_Source\PSoC5/CyFlash.c **** }
 875              		.loc 1 587 0
 876 0030 03B0     		add	sp, sp, #12
 877              		.cfi_remember_state
 878              		.cfi_def_cfa_offset 20
 879              		@ sp needed
 880 0032 F0BD     		pop	{r4, r5, r6, r7, pc}
 881              	.LVL88:
 882              	.L135:
 883              		.cfi_restore_state
 884 0034 0124     		movs	r4, #1
 885              	.L123:
 886              	.LVL89:
 513:Generated_Source\PSoC5/CyFlash.c ****         }
 887              		.loc 1 513 0
 888 0036 8129     		cmp	r1, #129
 889 0038 28BF     		it	cs
 890 003a 0124     		movcs	r4, #1
 891              	.LVL90:
 516:Generated_Source\PSoC5/CyFlash.c ****         {
 892              		.loc 1 516 0
 893 003c 102B     		cmp	r3, #16
 894 003e EDD0     		beq	.L125
 895              	.LVL91:
 896              	.L139:
 897 0040 0120     		movs	r0, #1
 898              	.LVL92:
 899              	.L151:
 900              		.loc 1 587 0
 901 0042 03B0     		add	sp, sp, #12
 902              		.cfi_remember_state
 903              		.cfi_def_cfa_offset 20
 904              		@ sp needed
 905 0044 F0BD     		pop	{r4, r5, r6, r7, pc}
 906              	.LVL93:
 907              	.L154:
 908              		.cfi_restore_state
 909              	.LBB46:
 910              	.LBB47:
 533:Generated_Source\PSoC5/CyFlash.c **** 
 911              		.loc 1 533 0
 912 0046 3346     		mov	r3, r6
 913 0048 3A46     		mov	r2, r7
 914 004a 2946     		mov	r1, r5
 915 004c 2046     		mov	r0, r4
 916 004e FFF7FEFF 		bl	CySpcLoadRowFull
 917              	.LVL94:
 535:Generated_Source\PSoC5/CyFlash.c ****             {
ARM GAS  C:\Users\MattiaCP\AppData\Local\Temp\cc9exna0.s 			page 29


 918              		.loc 1 535 0
 919 0052 0728     		cmp	r0, #7
 920 0054 04D0     		beq	.L155
 921              	.LVL95:
 922              	.L127:
 923 0056 0190     		str	r0, [sp, #4]
 924              	.LVL96:
 578:Generated_Source\PSoC5/CyFlash.c ****         }   /* if(CySpcLock() == CYRET_SUCCESS) */
 925              		.loc 1 578 0
 926 0058 FFF7FEFF 		bl	CySpcUnlock
 927              	.LVL97:
 928 005c 0198     		ldr	r0, [sp, #4]
 929 005e F0E7     		b	.L151
 930              	.LVL98:
 931              	.L155:
 537:Generated_Source\PSoC5/CyFlash.c ****                 {
 932              		.loc 1 537 0
 933 0060 164E     		ldr	r6, .L156
 934              	.LVL99:
 935 0062 3378     		ldrb	r3, [r6]	@ zero_extendqisi2
 936 0064 9B07     		lsls	r3, r3, #30
 937 0066 05D4     		bmi	.L131
 938              	.LVL100:
 939              	.L128:
 540:Generated_Source\PSoC5/CyFlash.c ****                 }
 940              		.loc 1 540 0
 941 0068 0120     		movs	r0, #1
 942 006a FFF7FEFF 		bl	CyDelayUs
 943              	.LVL101:
 537:Generated_Source\PSoC5/CyFlash.c ****                 {
 944              		.loc 1 537 0
 945 006e 3378     		ldrb	r3, [r6]	@ zero_extendqisi2
 946 0070 9807     		lsls	r0, r3, #30
 947 0072 F9D5     		bpl	.L128
 948              	.L131:
 544:Generated_Source\PSoC5/CyFlash.c ****                 {
 949              		.loc 1 544 0
 950 0074 114E     		ldr	r6, .L156
 951 0076 3378     		ldrb	r3, [r6]	@ zero_extendqisi2
 952 0078 9F07     		lsls	r7, r3, #30
 953              	.LVL102:
 954 007a 1BD5     		bpl	.L130
 955 007c 3378     		ldrb	r3, [r6]	@ zero_extendqisi2
 956 007e 9B08     		lsrs	r3, r3, #2
 957 0080 18D1     		bne	.L130
 958              	.LVL103:
 556:Generated_Source\PSoC5/CyFlash.c **** 
 959              		.loc 1 556 0
 960 0082 0F4A     		ldr	r2, .L156+4
 961 0084 2946     		mov	r1, r5
 962 0086 5378     		ldrb	r3, [r2, #1]	@ zero_extendqisi2
 963 0088 2046     		mov	r0, r4
 964 008a 1278     		ldrb	r2, [r2]	@ zero_extendqisi2
 965 008c FFF7FEFF 		bl	CySpcWriteRow
 966              	.LVL104:
 558:Generated_Source\PSoC5/CyFlash.c ****                     {
 967              		.loc 1 558 0
ARM GAS  C:\Users\MattiaCP\AppData\Local\Temp\cc9exna0.s 			page 30


 968 0090 0728     		cmp	r0, #7
 969 0092 E0D1     		bne	.L127
 970 0094 02E0     		b	.L153
 971              	.LVL105:
 972              	.L133:
 563:Generated_Source\PSoC5/CyFlash.c ****                         }
 973              		.loc 1 563 0
 974 0096 0120     		movs	r0, #1
 975 0098 FFF7FEFF 		bl	CyDelayUs
 976              	.LVL106:
 977              	.L153:
 560:Generated_Source\PSoC5/CyFlash.c ****                         {
 978              		.loc 1 560 0
 979 009c 3378     		ldrb	r3, [r6]	@ zero_extendqisi2
 980 009e 9907     		lsls	r1, r3, #30
 981 00a0 F9D5     		bpl	.L133
 567:Generated_Source\PSoC5/CyFlash.c ****                         {
 982              		.loc 1 567 0
 983 00a2 064B     		ldr	r3, .L156
 984 00a4 1A78     		ldrb	r2, [r3]	@ zero_extendqisi2
 985 00a6 9207     		lsls	r2, r2, #30
 986 00a8 04D5     		bpl	.L130
 987 00aa 1B78     		ldrb	r3, [r3]	@ zero_extendqisi2
 988 00ac 9B08     		lsrs	r3, r3, #2
 989 00ae 01D1     		bne	.L130
 569:Generated_Source\PSoC5/CyFlash.c ****                         }
 990              		.loc 1 569 0
 991 00b0 1846     		mov	r0, r3
 992 00b2 D0E7     		b	.L127
 993              	.L130:
 994              	.LVL107:
 573:Generated_Source\PSoC5/CyFlash.c ****                         }
 995              		.loc 1 573 0
 996 00b4 4FF0FF30 		mov	r0, #-1
 997 00b8 CDE7     		b	.L127
 998              	.L157:
 999 00ba 00BF     		.align	2
 1000              	.L156:
 1001 00bc 22470040 		.word	1073760034
 1002 00c0 00000000 		.word	dieTemperature
 1003              	.LBE47:
 1004              	.LBE46:
 1005              		.cfi_endproc
 1006              	.LFE8:
 1007              		.size	CyWriteRowFull, .-CyWriteRowFull
 1008              		.section	.text.CyFlash_SetWaitCycles,"ax",%progbits
 1009              		.align	2
 1010              		.global	CyFlash_SetWaitCycles
 1011              		.thumb
 1012              		.thumb_func
 1013              		.type	CyFlash_SetWaitCycles, %function
 1014              	CyFlash_SetWaitCycles:
 1015              	.LFB9:
 588:Generated_Source\PSoC5/CyFlash.c **** 
 589:Generated_Source\PSoC5/CyFlash.c **** 
 590:Generated_Source\PSoC5/CyFlash.c **** /*******************************************************************************
 591:Generated_Source\PSoC5/CyFlash.c **** * Function Name: CyFlash_SetWaitCycles
ARM GAS  C:\Users\MattiaCP\AppData\Local\Temp\cc9exna0.s 			page 31


 592:Generated_Source\PSoC5/CyFlash.c **** ****************************************************************************//**
 593:Generated_Source\PSoC5/CyFlash.c **** *
 594:Generated_Source\PSoC5/CyFlash.c **** *  Sets the number of clock cycles the cache will wait before it samples data
 595:Generated_Source\PSoC5/CyFlash.c **** *  coming back from the Flash. This function must be called before increasing
 596:Generated_Source\PSoC5/CyFlash.c **** *  the CPU clock frequency. It can optionally be called after lowering the CPU
 597:Generated_Source\PSoC5/CyFlash.c **** *  clock frequency in order to improve the CPU performance.
 598:Generated_Source\PSoC5/CyFlash.c **** *
 599:Generated_Source\PSoC5/CyFlash.c **** *  \param uint8 freq:
 600:Generated_Source\PSoC5/CyFlash.c **** *   Frequency of operation in Megahertz.
 601:Generated_Source\PSoC5/CyFlash.c **** *
 602:Generated_Source\PSoC5/CyFlash.c **** *******************************************************************************/
 603:Generated_Source\PSoC5/CyFlash.c **** void CyFlash_SetWaitCycles(uint8 freq) 
 604:Generated_Source\PSoC5/CyFlash.c **** {
 1016              		.loc 1 604 0
 1017              		.cfi_startproc
 1018              		@ args = 0, pretend = 0, frame = 0
 1019              		@ frame_needed = 0, uses_anonymous_args = 0
 1020              	.LVL108:
 1021 0000 10B5     		push	{r4, lr}
 1022              		.cfi_def_cfa_offset 8
 1023              		.cfi_offset 4, -8
 1024              		.cfi_offset 14, -4
 1025              		.loc 1 604 0
 1026 0002 0446     		mov	r4, r0
 605:Generated_Source\PSoC5/CyFlash.c ****     uint8 interruptState;
 606:Generated_Source\PSoC5/CyFlash.c **** 
 607:Generated_Source\PSoC5/CyFlash.c ****     /* Save current global interrupt enable and disable it */
 608:Generated_Source\PSoC5/CyFlash.c ****     interruptState = CyEnterCriticalSection();
 1027              		.loc 1 608 0
 1028 0004 FFF7FEFF 		bl	CyEnterCriticalSection
 1029              	.LVL109:
 609:Generated_Source\PSoC5/CyFlash.c **** 
 610:Generated_Source\PSoC5/CyFlash.c ****     /***************************************************************************
 611:Generated_Source\PSoC5/CyFlash.c ****     * The number of clock cycles the cache will wait before it samples data
 612:Generated_Source\PSoC5/CyFlash.c ****     * coming back from the Flash must be equal or greater to to the CPU frequency
 613:Generated_Source\PSoC5/CyFlash.c ****     * outlined in clock cycles.
 614:Generated_Source\PSoC5/CyFlash.c ****     ***************************************************************************/
 615:Generated_Source\PSoC5/CyFlash.c **** 
 616:Generated_Source\PSoC5/CyFlash.c ****     if (freq < CY_FLASH_CACHE_WS_1_FREQ_MAX)
 1030              		.loc 1 616 0
 1031 0008 0F2C     		cmp	r4, #15
 1032 000a 1AD9     		bls	.L165
 617:Generated_Source\PSoC5/CyFlash.c ****     {
 618:Generated_Source\PSoC5/CyFlash.c ****         CY_FLASH_CONTROL_REG = (CY_FLASH_CONTROL_REG & (uint8)(~CY_FLASH_CACHE_WS_VALUE_MASK)) |
 619:Generated_Source\PSoC5/CyFlash.c ****                                     CY_FLASH_CACHE_WS_1_VALUE_MASK;
 620:Generated_Source\PSoC5/CyFlash.c ****     }
 621:Generated_Source\PSoC5/CyFlash.c ****     else if (freq < CY_FLASH_CACHE_WS_2_FREQ_MAX)
 1033              		.loc 1 621 0
 1034 000c 202C     		cmp	r4, #32
 1035 000e 0DD9     		bls	.L166
 622:Generated_Source\PSoC5/CyFlash.c ****     {
 623:Generated_Source\PSoC5/CyFlash.c ****         CY_FLASH_CONTROL_REG = (CY_FLASH_CONTROL_REG & (uint8)(~CY_FLASH_CACHE_WS_VALUE_MASK)) |
 624:Generated_Source\PSoC5/CyFlash.c ****                                     CY_FLASH_CACHE_WS_2_VALUE_MASK;
 625:Generated_Source\PSoC5/CyFlash.c ****     }
 626:Generated_Source\PSoC5/CyFlash.c ****     else if (freq < CY_FLASH_CACHE_WS_3_FREQ_MAX)
 1036              		.loc 1 626 0
 1037 0010 312C     		cmp	r4, #49
ARM GAS  C:\Users\MattiaCP\AppData\Local\Temp\cc9exna0.s 			page 32


 1038 0012 27D9     		bls	.L167
 627:Generated_Source\PSoC5/CyFlash.c ****     {
 628:Generated_Source\PSoC5/CyFlash.c ****         CY_FLASH_CONTROL_REG = (CY_FLASH_CONTROL_REG & (uint8)(~CY_FLASH_CACHE_WS_VALUE_MASK)) |
 629:Generated_Source\PSoC5/CyFlash.c ****                                     CY_FLASH_CACHE_WS_3_VALUE_MASK;
 630:Generated_Source\PSoC5/CyFlash.c ****     }
 631:Generated_Source\PSoC5/CyFlash.c **** #if (CY_PSOC5)
 632:Generated_Source\PSoC5/CyFlash.c ****     else if (freq < CY_FLASH_CACHE_WS_4_FREQ_MAX)
 1039              		.loc 1 632 0
 1040 0014 422C     		cmp	r4, #66
 1041 0016 1FD9     		bls	.L168
 633:Generated_Source\PSoC5/CyFlash.c ****     {
 634:Generated_Source\PSoC5/CyFlash.c ****         CY_FLASH_CONTROL_REG = (CY_FLASH_CONTROL_REG & (uint8)(~CY_FLASH_CACHE_WS_VALUE_MASK)) |
 635:Generated_Source\PSoC5/CyFlash.c ****                                     CY_FLASH_CACHE_WS_4_VALUE_MASK;
 636:Generated_Source\PSoC5/CyFlash.c ****     }
 637:Generated_Source\PSoC5/CyFlash.c ****     else if (freq <= CY_FLASH_CACHE_WS_5_FREQ_MAX)
 1042              		.loc 1 637 0
 1043 0018 532C     		cmp	r4, #83
 1044 001a 0ED8     		bhi	.L160
 638:Generated_Source\PSoC5/CyFlash.c ****     {
 639:Generated_Source\PSoC5/CyFlash.c ****         CY_FLASH_CONTROL_REG = (CY_FLASH_CONTROL_REG & (uint8)(~CY_FLASH_CACHE_WS_VALUE_MASK)) |
 1045              		.loc 1 639 0
 1046 001c 174A     		ldr	r2, .L169
 1047 001e 1378     		ldrb	r3, [r2]	@ zero_extendqisi2
 1048 0020 03F01F03 		and	r3, r3, #31
 1049 0024 43F02003 		orr	r3, r3, #32
 1050 0028 1370     		strb	r3, [r2]
 1051 002a 06E0     		b	.L160
 1052              	.L166:
 623:Generated_Source\PSoC5/CyFlash.c ****                                     CY_FLASH_CACHE_WS_2_VALUE_MASK;
 1053              		.loc 1 623 0
 1054 002c 134A     		ldr	r2, .L169
 1055 002e 1378     		ldrb	r3, [r2]	@ zero_extendqisi2
 1056 0030 03F01F03 		and	r3, r3, #31
 1057 0034 43F08003 		orr	r3, r3, #128
 1058 0038 1370     		strb	r3, [r2]
 1059              	.L160:
 640:Generated_Source\PSoC5/CyFlash.c ****                                     CY_FLASH_CACHE_WS_5_VALUE_MASK;
 641:Generated_Source\PSoC5/CyFlash.c ****     }
 642:Generated_Source\PSoC5/CyFlash.c **** #endif  /* (CY_PSOC5) */
 643:Generated_Source\PSoC5/CyFlash.c ****     else
 644:Generated_Source\PSoC5/CyFlash.c ****     {
 645:Generated_Source\PSoC5/CyFlash.c ****         /* Halt CPU in debug mode if frequency is invalid */
 646:Generated_Source\PSoC5/CyFlash.c ****         CYASSERT(0u != 0u);
 647:Generated_Source\PSoC5/CyFlash.c ****     }
 648:Generated_Source\PSoC5/CyFlash.c **** 
 649:Generated_Source\PSoC5/CyFlash.c ****     /* Restore global interrupt enable state */
 650:Generated_Source\PSoC5/CyFlash.c ****     CyExitCriticalSection(interruptState);
 651:Generated_Source\PSoC5/CyFlash.c **** }
 1060              		.loc 1 651 0
 1061 003a BDE81040 		pop	{r4, lr}
 1062              		.cfi_remember_state
 1063              		.cfi_restore 14
 1064              		.cfi_restore 4
 1065              		.cfi_def_cfa_offset 0
 650:Generated_Source\PSoC5/CyFlash.c **** }
 1066              		.loc 1 650 0
 1067 003e FFF7FEBF 		b	CyExitCriticalSection
ARM GAS  C:\Users\MattiaCP\AppData\Local\Temp\cc9exna0.s 			page 33


 1068              	.LVL110:
 1069              	.L165:
 1070              		.cfi_restore_state
 618:Generated_Source\PSoC5/CyFlash.c ****                                     CY_FLASH_CACHE_WS_1_VALUE_MASK;
 1071              		.loc 1 618 0
 1072 0042 0E4A     		ldr	r2, .L169
 1073 0044 1378     		ldrb	r3, [r2]	@ zero_extendqisi2
 1074 0046 03F01F03 		and	r3, r3, #31
 1075 004a 43F04003 		orr	r3, r3, #64
 1076 004e 1370     		strb	r3, [r2]
 1077              		.loc 1 651 0
 1078 0050 BDE81040 		pop	{r4, lr}
 1079              		.cfi_remember_state
 1080              		.cfi_restore 4
 1081              		.cfi_restore 14
 1082              		.cfi_def_cfa_offset 0
 650:Generated_Source\PSoC5/CyFlash.c **** }
 1083              		.loc 1 650 0
 1084 0054 FFF7FEBF 		b	CyExitCriticalSection
 1085              	.LVL111:
 1086              	.L168:
 1087              		.cfi_restore_state
 634:Generated_Source\PSoC5/CyFlash.c ****                                     CY_FLASH_CACHE_WS_4_VALUE_MASK;
 1088              		.loc 1 634 0
 1089 0058 084A     		ldr	r2, .L169
 1090 005a 1378     		ldrb	r3, [r2]	@ zero_extendqisi2
 1091 005c 03F01F03 		and	r3, r3, #31
 1092 0060 1370     		strb	r3, [r2]
 1093 0062 EAE7     		b	.L160
 1094              	.L167:
 628:Generated_Source\PSoC5/CyFlash.c ****                                     CY_FLASH_CACHE_WS_3_VALUE_MASK;
 1095              		.loc 1 628 0
 1096 0064 054A     		ldr	r2, .L169
 1097 0066 1378     		ldrb	r3, [r2]	@ zero_extendqisi2
 1098 0068 03F01F03 		and	r3, r3, #31
 1099 006c 43F0C003 		orr	r3, r3, #192
 1100 0070 1370     		strb	r3, [r2]
 1101              		.loc 1 651 0
 1102 0072 BDE81040 		pop	{r4, lr}
 1103              		.cfi_restore 4
 1104              		.cfi_restore 14
 1105              		.cfi_def_cfa_offset 0
 650:Generated_Source\PSoC5/CyFlash.c **** }
 1106              		.loc 1 650 0
 1107 0076 FFF7FEBF 		b	CyExitCriticalSection
 1108              	.LVL112:
 1109              	.L170:
 1110 007a 00BF     		.align	2
 1111              	.L169:
 1112 007c 00480040 		.word	1073760256
 1113              		.cfi_endproc
 1114              	.LFE9:
 1115              		.size	CyFlash_SetWaitCycles, .-CyFlash_SetWaitCycles
 1116              		.section	.text.CyEEPROM_Start,"ax",%progbits
 1117              		.align	2
 1118              		.global	CyEEPROM_Start
 1119              		.thumb
ARM GAS  C:\Users\MattiaCP\AppData\Local\Temp\cc9exna0.s 			page 34


 1120              		.thumb_func
 1121              		.type	CyEEPROM_Start, %function
 1122              	CyEEPROM_Start:
 1123              	.LFB10:
 652:Generated_Source\PSoC5/CyFlash.c **** 
 653:Generated_Source\PSoC5/CyFlash.c **** 
 654:Generated_Source\PSoC5/CyFlash.c **** /*******************************************************************************
 655:Generated_Source\PSoC5/CyFlash.c **** * Function Name: CyEEPROM_Start
 656:Generated_Source\PSoC5/CyFlash.c **** ****************************************************************************//**
 657:Generated_Source\PSoC5/CyFlash.c **** *
 658:Generated_Source\PSoC5/CyFlash.c **** *  Enable the EEPROM.
 659:Generated_Source\PSoC5/CyFlash.c **** *
 660:Generated_Source\PSoC5/CyFlash.c **** *******************************************************************************/
 661:Generated_Source\PSoC5/CyFlash.c **** void CyEEPROM_Start(void) 
 662:Generated_Source\PSoC5/CyFlash.c **** {
 1124              		.loc 1 662 0
 1125              		.cfi_startproc
 1126              		@ args = 0, pretend = 0, frame = 0
 1127              		@ frame_needed = 0, uses_anonymous_args = 0
 1128 0000 38B5     		push	{r3, r4, r5, lr}
 1129              		.cfi_def_cfa_offset 16
 1130              		.cfi_offset 3, -16
 1131              		.cfi_offset 4, -12
 1132              		.cfi_offset 5, -8
 1133              		.cfi_offset 14, -4
 663:Generated_Source\PSoC5/CyFlash.c ****     uint8 interruptState;
 664:Generated_Source\PSoC5/CyFlash.c **** 
 665:Generated_Source\PSoC5/CyFlash.c ****     interruptState = CyEnterCriticalSection();
 1134              		.loc 1 665 0
 1135 0002 FFF7FEFF 		bl	CyEnterCriticalSection
 1136              	.LVL113:
 666:Generated_Source\PSoC5/CyFlash.c **** 
 667:Generated_Source\PSoC5/CyFlash.c **** 
 668:Generated_Source\PSoC5/CyFlash.c ****     /***************************************************************************
 669:Generated_Source\PSoC5/CyFlash.c ****     * Enable SPC clock. This also internally enables the 36MHz IMO, since this
 670:Generated_Source\PSoC5/CyFlash.c ****     * is required for the SPC to function.
 671:Generated_Source\PSoC5/CyFlash.c ****     ***************************************************************************/
 672:Generated_Source\PSoC5/CyFlash.c ****     CY_FLASH_PM_ACT_CFG0_REG    |= CY_FLASH_PM_ACT_CFG0_EN_CLK_SPC;
 1137              		.loc 1 672 0
 1138 0006 0F4A     		ldr	r2, .L176
 673:Generated_Source\PSoC5/CyFlash.c ****     CY_FLASH_PM_ALTACT_CFG0_REG |= CY_FLASH_PM_ALTACT_CFG0_EN_CLK_SPC;
 1139              		.loc 1 673 0
 1140 0008 0F49     		ldr	r1, .L176+4
 672:Generated_Source\PSoC5/CyFlash.c ****     CY_FLASH_PM_ALTACT_CFG0_REG |= CY_FLASH_PM_ALTACT_CFG0_EN_CLK_SPC;
 1141              		.loc 1 672 0
 1142 000a 1378     		ldrb	r3, [r2]	@ zero_extendqisi2
 674:Generated_Source\PSoC5/CyFlash.c **** 
 675:Generated_Source\PSoC5/CyFlash.c **** 
 676:Generated_Source\PSoC5/CyFlash.c ****     /***************************************************************************
 677:Generated_Source\PSoC5/CyFlash.c ****     * The wake count defines the number of Bus Clock cycles it takes for the
 678:Generated_Source\PSoC5/CyFlash.c ****     * flash or EEPROM to wake up from a low power mode independent of the chip
 679:Generated_Source\PSoC5/CyFlash.c ****     * power mode. Wake up time for these blocks is 5 us.
 680:Generated_Source\PSoC5/CyFlash.c ****     * The granularity of this register is 2 Bus Clock cycles, so a value of 0x1E
 681:Generated_Source\PSoC5/CyFlash.c ****     * (30d) defines the wake up time as 60 cycles of the Bus Clock.
 682:Generated_Source\PSoC5/CyFlash.c ****     * This register needs to be written with a value dependent on the Bus Clock
 683:Generated_Source\PSoC5/CyFlash.c ****     * frequency so that the duration of the cycles is equal to or greater than
 684:Generated_Source\PSoC5/CyFlash.c ****     * the 5 us delay required.
ARM GAS  C:\Users\MattiaCP\AppData\Local\Temp\cc9exna0.s 			page 35


 685:Generated_Source\PSoC5/CyFlash.c ****     ***************************************************************************/
 686:Generated_Source\PSoC5/CyFlash.c ****     CY_FLASH_SPC_FM_EE_WAKE_CNT_REG = CY_FLASH_SPC_FM_EE_WAKE_CNT_80MHZ;
 1143              		.loc 1 686 0
 1144 000c 0F4C     		ldr	r4, .L176+8
 672:Generated_Source\PSoC5/CyFlash.c ****     CY_FLASH_PM_ALTACT_CFG0_REG |= CY_FLASH_PM_ALTACT_CFG0_EN_CLK_SPC;
 1145              		.loc 1 672 0
 1146 000e 43F00803 		orr	r3, r3, #8
 1147 0012 1370     		strb	r3, [r2]
 673:Generated_Source\PSoC5/CyFlash.c **** 
 1148              		.loc 1 673 0
 1149 0014 0B78     		ldrb	r3, [r1]	@ zero_extendqisi2
 1150              		.loc 1 686 0
 1151 0016 C825     		movs	r5, #200
 673:Generated_Source\PSoC5/CyFlash.c **** 
 1152              		.loc 1 673 0
 1153 0018 43F00803 		orr	r3, r3, #8
 1154 001c 0B70     		strb	r3, [r1]
 1155              		.loc 1 686 0
 1156 001e 2570     		strb	r5, [r4]
 687:Generated_Source\PSoC5/CyFlash.c **** 
 688:Generated_Source\PSoC5/CyFlash.c **** 
 689:Generated_Source\PSoC5/CyFlash.c ****     /***************************************************************************
 690:Generated_Source\PSoC5/CyFlash.c ****     * Enable EEPROM. Re-enabling an EEPROM macro takes 5us. During this time,
 691:Generated_Source\PSoC5/CyFlash.c ****     * the EE will not acknowledge a PHUB request.
 692:Generated_Source\PSoC5/CyFlash.c ****     ***************************************************************************/
 693:Generated_Source\PSoC5/CyFlash.c ****     CY_FLASH_PM_ACT_CFG12_REG    |= CY_FLASH_PM_ACT_CFG12_EN_EE;
 1157              		.loc 1 693 0
 1158 0020 137B     		ldrb	r3, [r2, #12]	@ zero_extendqisi2
 1159 0022 43F01003 		orr	r3, r3, #16
 1160 0026 1373     		strb	r3, [r2, #12]
 694:Generated_Source\PSoC5/CyFlash.c ****     CY_FLASH_PM_ALTACT_CFG12_REG |= CY_FLASH_PM_ALTACT_CFG12_EN_EE;
 1161              		.loc 1 694 0
 1162 0028 0B7B     		ldrb	r3, [r1, #12]	@ zero_extendqisi2
 695:Generated_Source\PSoC5/CyFlash.c **** 
 696:Generated_Source\PSoC5/CyFlash.c ****     while(0u == (CY_FLASH_SPC_FM_EE_CR_REG & CY_FLASH_EE_EE_AWAKE))
 1163              		.loc 1 696 0
 1164 002a 02F55872 		add	r2, r2, #864
 694:Generated_Source\PSoC5/CyFlash.c ****     CY_FLASH_PM_ALTACT_CFG12_REG |= CY_FLASH_PM_ALTACT_CFG12_EN_EE;
 1165              		.loc 1 694 0
 1166 002e 43F01003 		orr	r3, r3, #16
 1167 0032 0B73     		strb	r3, [r1, #12]
 1168              	.L172:
 1169              		.loc 1 696 0 discriminator 1
 1170 0034 1378     		ldrb	r3, [r2]	@ zero_extendqisi2
 1171 0036 9B06     		lsls	r3, r3, #26
 1172 0038 FCD5     		bpl	.L172
 697:Generated_Source\PSoC5/CyFlash.c ****     {
 698:Generated_Source\PSoC5/CyFlash.c ****         /* Non-zero status denotes that the EEPROM/Flash is awake & powered. */
 699:Generated_Source\PSoC5/CyFlash.c ****     }
 700:Generated_Source\PSoC5/CyFlash.c **** 
 701:Generated_Source\PSoC5/CyFlash.c ****     CyExitCriticalSection(interruptState);
 702:Generated_Source\PSoC5/CyFlash.c **** }
 1173              		.loc 1 702 0
 1174 003a BDE83840 		pop	{r3, r4, r5, lr}
 1175              		.cfi_restore 14
 1176              		.cfi_restore 5
 1177              		.cfi_restore 4
ARM GAS  C:\Users\MattiaCP\AppData\Local\Temp\cc9exna0.s 			page 36


 1178              		.cfi_restore 3
 1179              		.cfi_def_cfa_offset 0
 701:Generated_Source\PSoC5/CyFlash.c **** }
 1180              		.loc 1 701 0
 1181 003e FFF7FEBF 		b	CyExitCriticalSection
 1182              	.LVL114:
 1183              	.L177:
 1184 0042 00BF     		.align	2
 1185              	.L176:
 1186 0044 A0430040 		.word	1073759136
 1187 0048 B0430040 		.word	1073759152
 1188 004c 01470040 		.word	1073760001
 1189              		.cfi_endproc
 1190              	.LFE10:
 1191              		.size	CyEEPROM_Start, .-CyEEPROM_Start
 1192              		.section	.text.CyEEPROM_Stop,"ax",%progbits
 1193              		.align	2
 1194              		.global	CyEEPROM_Stop
 1195              		.thumb
 1196              		.thumb_func
 1197              		.type	CyEEPROM_Stop, %function
 1198              	CyEEPROM_Stop:
 1199              	.LFB11:
 703:Generated_Source\PSoC5/CyFlash.c **** 
 704:Generated_Source\PSoC5/CyFlash.c **** 
 705:Generated_Source\PSoC5/CyFlash.c **** /*******************************************************************************
 706:Generated_Source\PSoC5/CyFlash.c **** * Function Name: CyEEPROM_Stop
 707:Generated_Source\PSoC5/CyFlash.c **** ****************************************************************************//**
 708:Generated_Source\PSoC5/CyFlash.c **** *
 709:Generated_Source\PSoC5/CyFlash.c **** *  Disable the EEPROM.
 710:Generated_Source\PSoC5/CyFlash.c **** *
 711:Generated_Source\PSoC5/CyFlash.c **** *******************************************************************************/
 712:Generated_Source\PSoC5/CyFlash.c **** void CyEEPROM_Stop (void) 
 713:Generated_Source\PSoC5/CyFlash.c **** {
 1200              		.loc 1 713 0
 1201              		.cfi_startproc
 1202              		@ args = 0, pretend = 0, frame = 0
 1203              		@ frame_needed = 0, uses_anonymous_args = 0
 1204 0000 08B5     		push	{r3, lr}
 1205              		.cfi_def_cfa_offset 8
 1206              		.cfi_offset 3, -8
 1207              		.cfi_offset 14, -4
 714:Generated_Source\PSoC5/CyFlash.c ****     uint8 interruptState;
 715:Generated_Source\PSoC5/CyFlash.c **** 
 716:Generated_Source\PSoC5/CyFlash.c ****     interruptState = CyEnterCriticalSection();
 1208              		.loc 1 716 0
 1209 0002 FFF7FEFF 		bl	CyEnterCriticalSection
 1210              	.LVL115:
 717:Generated_Source\PSoC5/CyFlash.c **** 
 718:Generated_Source\PSoC5/CyFlash.c ****     CY_FLASH_PM_ACT_CFG12_REG    &= ((uint8)(~CY_FLASH_PM_ACT_CFG12_EN_EE));
 1211              		.loc 1 718 0
 1212 0006 0749     		ldr	r1, .L180
 719:Generated_Source\PSoC5/CyFlash.c ****     CY_FLASH_PM_ALTACT_CFG12_REG &= ((uint8)(~CY_FLASH_PM_ALTACT_CFG12_EN_EE));
 1213              		.loc 1 719 0
 1214 0008 074A     		ldr	r2, .L180+4
 718:Generated_Source\PSoC5/CyFlash.c ****     CY_FLASH_PM_ALTACT_CFG12_REG &= ((uint8)(~CY_FLASH_PM_ALTACT_CFG12_EN_EE));
 1215              		.loc 1 718 0
ARM GAS  C:\Users\MattiaCP\AppData\Local\Temp\cc9exna0.s 			page 37


 1216 000a 0B78     		ldrb	r3, [r1]	@ zero_extendqisi2
 1217 000c 03F0EF03 		and	r3, r3, #239
 1218 0010 0B70     		strb	r3, [r1]
 1219              		.loc 1 719 0
 1220 0012 1378     		ldrb	r3, [r2]	@ zero_extendqisi2
 1221 0014 03F0EF03 		and	r3, r3, #239
 1222 0018 1370     		strb	r3, [r2]
 720:Generated_Source\PSoC5/CyFlash.c **** 
 721:Generated_Source\PSoC5/CyFlash.c ****     CyExitCriticalSection(interruptState);
 722:Generated_Source\PSoC5/CyFlash.c **** }
 1223              		.loc 1 722 0
 1224 001a BDE80840 		pop	{r3, lr}
 1225              		.cfi_restore 14
 1226              		.cfi_restore 3
 1227              		.cfi_def_cfa_offset 0
 721:Generated_Source\PSoC5/CyFlash.c **** }
 1228              		.loc 1 721 0
 1229 001e FFF7FEBF 		b	CyExitCriticalSection
 1230              	.LVL116:
 1231              	.L181:
 1232 0022 00BF     		.align	2
 1233              	.L180:
 1234 0024 AC430040 		.word	1073759148
 1235 0028 BC430040 		.word	1073759164
 1236              		.cfi_endproc
 1237              	.LFE11:
 1238              		.size	CyEEPROM_Stop, .-CyEEPROM_Stop
 1239              		.section	.text.CyEEPROM_ReadReserve,"ax",%progbits
 1240              		.align	2
 1241              		.global	CyEEPROM_ReadReserve
 1242              		.thumb
 1243              		.thumb_func
 1244              		.type	CyEEPROM_ReadReserve, %function
 1245              	CyEEPROM_ReadReserve:
 1246              	.LFB12:
 723:Generated_Source\PSoC5/CyFlash.c **** 
 724:Generated_Source\PSoC5/CyFlash.c **** 
 725:Generated_Source\PSoC5/CyFlash.c **** /*******************************************************************************
 726:Generated_Source\PSoC5/CyFlash.c **** * Function Name: CyEEPROM_ReadReserve
 727:Generated_Source\PSoC5/CyFlash.c **** ****************************************************************************//**
 728:Generated_Source\PSoC5/CyFlash.c **** *
 729:Generated_Source\PSoC5/CyFlash.c **** *  Request access to the EEPROM for reading and wait until access is available.
 730:Generated_Source\PSoC5/CyFlash.c **** *
 731:Generated_Source\PSoC5/CyFlash.c **** *******************************************************************************/
 732:Generated_Source\PSoC5/CyFlash.c **** void CyEEPROM_ReadReserve(void) 
 733:Generated_Source\PSoC5/CyFlash.c **** {
 1247              		.loc 1 733 0
 1248              		.cfi_startproc
 1249              		@ args = 0, pretend = 0, frame = 0
 1250              		@ frame_needed = 0, uses_anonymous_args = 0
 1251              		@ link register save eliminated.
 734:Generated_Source\PSoC5/CyFlash.c ****     /* Make request for PHUB to have access */
 735:Generated_Source\PSoC5/CyFlash.c ****     CY_FLASH_EE_SCR_REG |= CY_FLASH_EE_SCR_AHB_EE_REQ;
 1252              		.loc 1 735 0
 1253 0000 044B     		ldr	r3, .L186
 736:Generated_Source\PSoC5/CyFlash.c **** 
 737:Generated_Source\PSoC5/CyFlash.c ****     while (0u == (CY_FLASH_EE_SCR_REG & CY_FLASH_EE_SCR_AHB_EE_ACK))
ARM GAS  C:\Users\MattiaCP\AppData\Local\Temp\cc9exna0.s 			page 38


 1254              		.loc 1 737 0
 1255 0002 1A46     		mov	r2, r3
 735:Generated_Source\PSoC5/CyFlash.c **** 
 1256              		.loc 1 735 0
 1257 0004 1978     		ldrb	r1, [r3]	@ zero_extendqisi2
 1258 0006 41F00101 		orr	r1, r1, #1
 1259 000a 1970     		strb	r1, [r3]
 1260              	.L183:
 1261              		.loc 1 737 0 discriminator 1
 1262 000c 1378     		ldrb	r3, [r2]	@ zero_extendqisi2
 1263 000e 9B07     		lsls	r3, r3, #30
 1264 0010 FCD5     		bpl	.L183
 738:Generated_Source\PSoC5/CyFlash.c ****     {
 739:Generated_Source\PSoC5/CyFlash.c ****         /* Wait for acknowledgment from PHUB */
 740:Generated_Source\PSoC5/CyFlash.c ****     }
 741:Generated_Source\PSoC5/CyFlash.c **** }
 1265              		.loc 1 741 0
 1266 0012 7047     		bx	lr
 1267              	.L187:
 1268              		.align	2
 1269              	.L186:
 1270 0014 02470040 		.word	1073760002
 1271              		.cfi_endproc
 1272              	.LFE12:
 1273              		.size	CyEEPROM_ReadReserve, .-CyEEPROM_ReadReserve
 1274              		.section	.text.CyEEPROM_ReadRelease,"ax",%progbits
 1275              		.align	2
 1276              		.global	CyEEPROM_ReadRelease
 1277              		.thumb
 1278              		.thumb_func
 1279              		.type	CyEEPROM_ReadRelease, %function
 1280              	CyEEPROM_ReadRelease:
 1281              	.LFB13:
 742:Generated_Source\PSoC5/CyFlash.c **** 
 743:Generated_Source\PSoC5/CyFlash.c **** 
 744:Generated_Source\PSoC5/CyFlash.c **** /*******************************************************************************
 745:Generated_Source\PSoC5/CyFlash.c **** * Function Name: CyEEPROM_ReadRelease
 746:Generated_Source\PSoC5/CyFlash.c **** ****************************************************************************//**
 747:Generated_Source\PSoC5/CyFlash.c **** *
 748:Generated_Source\PSoC5/CyFlash.c **** *  Release the read reservation of the EEPROM.
 749:Generated_Source\PSoC5/CyFlash.c **** *
 750:Generated_Source\PSoC5/CyFlash.c **** *******************************************************************************/
 751:Generated_Source\PSoC5/CyFlash.c **** void CyEEPROM_ReadRelease(void) 
 752:Generated_Source\PSoC5/CyFlash.c **** {
 1282              		.loc 1 752 0
 1283              		.cfi_startproc
 1284              		@ args = 0, pretend = 0, frame = 0
 1285              		@ frame_needed = 0, uses_anonymous_args = 0
 1286              		@ link register save eliminated.
 753:Generated_Source\PSoC5/CyFlash.c ****     CY_FLASH_EE_SCR_REG &= (uint8)(~CY_FLASH_EE_SCR_AHB_EE_REQ);
 1287              		.loc 1 753 0
 1288 0000 024A     		ldr	r2, .L189
 1289 0002 1378     		ldrb	r3, [r2]	@ zero_extendqisi2
 1290 0004 03F0FE03 		and	r3, r3, #254
 1291 0008 1370     		strb	r3, [r2]
 1292 000a 7047     		bx	lr
 1293              	.L190:
ARM GAS  C:\Users\MattiaCP\AppData\Local\Temp\cc9exna0.s 			page 39


 1294              		.align	2
 1295              	.L189:
 1296 000c 02470040 		.word	1073760002
 1297              		.cfi_endproc
 1298              	.LFE13:
 1299              		.size	CyEEPROM_ReadRelease, .-CyEEPROM_ReadRelease
 1300              		.comm	dieTemperature,2,4
 1301              		.text
 1302              	.Letext0:
 1303              		.file 2 "Generated_Source\\PSoC5\\cytypes.h"
 1304              		.file 3 "Generated_Source\\PSoC5\\CyLib.h"
 1305              		.file 4 "Generated_Source\\PSoC5\\CySpc.h"