ARM GAS  C:\Users\MattiaCP\AppData\Local\Temp\cch0KQvc.s 			page 1


   1              		.syntax unified
   2              		.cpu cortex-m3
   3              		.fpu softvfp
   4              		.eabi_attribute 20, 1
   5              		.eabi_attribute 21, 1
   6              		.eabi_attribute 23, 3
   7              		.eabi_attribute 24, 1
   8              		.eabi_attribute 25, 1
   9              		.eabi_attribute 26, 1
  10              		.eabi_attribute 30, 2
  11              		.eabi_attribute 34, 1
  12              		.eabi_attribute 18, 4
  13              		.thumb
  14              		.syntax unified
  15              		.file	"RS_485_EN.c"
  16              		.text
  17              	.Ltext0:
  18              		.cfi_sections	.debug_frame
  19              		.section	.text.RS_485_EN_Write,"ax",%progbits
  20              		.align	2
  21              		.global	RS_485_EN_Write
  22              		.thumb
  23              		.thumb_func
  24              		.type	RS_485_EN_Write, %function
  25              	RS_485_EN_Write:
  26              	.LFB0:
  27              		.file 1 "Generated_Source\\PSoC5\\RS_485_EN.c"
   1:Generated_Source\PSoC5/RS_485_EN.c **** /*******************************************************************************
   2:Generated_Source\PSoC5/RS_485_EN.c **** * File Name: RS_485_EN.c  
   3:Generated_Source\PSoC5/RS_485_EN.c **** * Version 1.90
   4:Generated_Source\PSoC5/RS_485_EN.c **** *
   5:Generated_Source\PSoC5/RS_485_EN.c **** * Description:
   6:Generated_Source\PSoC5/RS_485_EN.c **** *  This file contains API to enable firmware control of a Pins component.
   7:Generated_Source\PSoC5/RS_485_EN.c **** *
   8:Generated_Source\PSoC5/RS_485_EN.c **** * Note:
   9:Generated_Source\PSoC5/RS_485_EN.c **** *
  10:Generated_Source\PSoC5/RS_485_EN.c **** ********************************************************************************
  11:Generated_Source\PSoC5/RS_485_EN.c **** * Copyright 2008-2012, Cypress Semiconductor Corporation.  All rights reserved.
  12:Generated_Source\PSoC5/RS_485_EN.c **** * You may use this file only in accordance with the license, terms, conditions, 
  13:Generated_Source\PSoC5/RS_485_EN.c **** * disclaimers, and limitations in the end user license agreement accompanying 
  14:Generated_Source\PSoC5/RS_485_EN.c **** * the software package with which this file was provided.
  15:Generated_Source\PSoC5/RS_485_EN.c **** *******************************************************************************/
  16:Generated_Source\PSoC5/RS_485_EN.c **** 
  17:Generated_Source\PSoC5/RS_485_EN.c **** #include "cytypes.h"
  18:Generated_Source\PSoC5/RS_485_EN.c **** #include "RS_485_EN.h"
  19:Generated_Source\PSoC5/RS_485_EN.c **** 
  20:Generated_Source\PSoC5/RS_485_EN.c **** /* APIs are not generated for P15[7:6] on PSoC 5 */
  21:Generated_Source\PSoC5/RS_485_EN.c **** #if !(CY_PSOC5A &&\
  22:Generated_Source\PSoC5/RS_485_EN.c **** 	 RS_485_EN__PORT == 15 && ((RS_485_EN__MASK & 0xC0) != 0))
  23:Generated_Source\PSoC5/RS_485_EN.c **** 
  24:Generated_Source\PSoC5/RS_485_EN.c **** 
  25:Generated_Source\PSoC5/RS_485_EN.c **** /*******************************************************************************
  26:Generated_Source\PSoC5/RS_485_EN.c **** * Function Name: RS_485_EN_Write
  27:Generated_Source\PSoC5/RS_485_EN.c **** ********************************************************************************
  28:Generated_Source\PSoC5/RS_485_EN.c **** *
  29:Generated_Source\PSoC5/RS_485_EN.c **** * Summary:
  30:Generated_Source\PSoC5/RS_485_EN.c **** *  Assign a new value to the digital port's data output register.  
ARM GAS  C:\Users\MattiaCP\AppData\Local\Temp\cch0KQvc.s 			page 2


  31:Generated_Source\PSoC5/RS_485_EN.c **** *
  32:Generated_Source\PSoC5/RS_485_EN.c **** * Parameters:  
  33:Generated_Source\PSoC5/RS_485_EN.c **** *  prtValue:  The value to be assigned to the Digital Port. 
  34:Generated_Source\PSoC5/RS_485_EN.c **** *
  35:Generated_Source\PSoC5/RS_485_EN.c **** * Return: 
  36:Generated_Source\PSoC5/RS_485_EN.c **** *  None
  37:Generated_Source\PSoC5/RS_485_EN.c **** *  
  38:Generated_Source\PSoC5/RS_485_EN.c **** *******************************************************************************/
  39:Generated_Source\PSoC5/RS_485_EN.c **** void RS_485_EN_Write(uint8 value) 
  40:Generated_Source\PSoC5/RS_485_EN.c **** {
  28              		.loc 1 40 0
  29              		.cfi_startproc
  30              		@ args = 0, pretend = 0, frame = 0
  31              		@ frame_needed = 0, uses_anonymous_args = 0
  32              		@ link register save eliminated.
  33              	.LVL0:
  41:Generated_Source\PSoC5/RS_485_EN.c ****     uint8 staticBits = (RS_485_EN_DR & (uint8)(~RS_485_EN_MASK));
  34              		.loc 1 41 0
  35 0000 044A     		ldr	r2, .L2
  42:Generated_Source\PSoC5/RS_485_EN.c ****     RS_485_EN_DR = staticBits | ((uint8)(value << RS_485_EN_SHIFT) & RS_485_EN_MASK);
  36              		.loc 1 42 0
  37 0002 0001     		lsls	r0, r0, #4
  38              	.LVL1:
  41:Generated_Source\PSoC5/RS_485_EN.c ****     uint8 staticBits = (RS_485_EN_DR & (uint8)(~RS_485_EN_MASK));
  39              		.loc 1 41 0
  40 0004 1378     		ldrb	r3, [r2]	@ zero_extendqisi2
  41              	.LVL2:
  42              		.loc 1 42 0
  43 0006 00F01000 		and	r0, r0, #16
  44 000a 03F0EF03 		and	r3, r3, #239
  45              	.LVL3:
  46 000e 1843     		orrs	r0, r0, r3
  47 0010 1070     		strb	r0, [r2]
  48 0012 7047     		bx	lr
  49              	.L3:
  50              		.align	2
  51              	.L2:
  52 0014 C0510040 		.word	1073762752
  53              		.cfi_endproc
  54              	.LFE0:
  55              		.size	RS_485_EN_Write, .-RS_485_EN_Write
  56              		.section	.text.RS_485_EN_SetDriveMode,"ax",%progbits
  57              		.align	2
  58              		.global	RS_485_EN_SetDriveMode
  59              		.thumb
  60              		.thumb_func
  61              		.type	RS_485_EN_SetDriveMode, %function
  62              	RS_485_EN_SetDriveMode:
  63              	.LFB1:
  43:Generated_Source\PSoC5/RS_485_EN.c **** }
  44:Generated_Source\PSoC5/RS_485_EN.c **** 
  45:Generated_Source\PSoC5/RS_485_EN.c **** 
  46:Generated_Source\PSoC5/RS_485_EN.c **** /*******************************************************************************
  47:Generated_Source\PSoC5/RS_485_EN.c **** * Function Name: RS_485_EN_SetDriveMode
  48:Generated_Source\PSoC5/RS_485_EN.c **** ********************************************************************************
  49:Generated_Source\PSoC5/RS_485_EN.c **** *
  50:Generated_Source\PSoC5/RS_485_EN.c **** * Summary:
ARM GAS  C:\Users\MattiaCP\AppData\Local\Temp\cch0KQvc.s 			page 3


  51:Generated_Source\PSoC5/RS_485_EN.c **** *  Change the drive mode on the pins of the port.
  52:Generated_Source\PSoC5/RS_485_EN.c **** * 
  53:Generated_Source\PSoC5/RS_485_EN.c **** * Parameters:  
  54:Generated_Source\PSoC5/RS_485_EN.c **** *  mode:  Change the pins to this drive mode.
  55:Generated_Source\PSoC5/RS_485_EN.c **** *
  56:Generated_Source\PSoC5/RS_485_EN.c **** * Return: 
  57:Generated_Source\PSoC5/RS_485_EN.c **** *  None
  58:Generated_Source\PSoC5/RS_485_EN.c **** *
  59:Generated_Source\PSoC5/RS_485_EN.c **** *******************************************************************************/
  60:Generated_Source\PSoC5/RS_485_EN.c **** void RS_485_EN_SetDriveMode(uint8 mode) 
  61:Generated_Source\PSoC5/RS_485_EN.c **** {
  64              		.loc 1 61 0
  65              		.cfi_startproc
  66              		@ args = 0, pretend = 0, frame = 0
  67              		@ frame_needed = 0, uses_anonymous_args = 0
  68              		@ link register save eliminated.
  69              	.LVL4:
  62:Generated_Source\PSoC5/RS_485_EN.c **** 	CyPins_SetPinDriveMode(RS_485_EN_0, mode);
  70              		.loc 1 62 0
  71 0000 044A     		ldr	r2, .L5
  72 0002 00F00E00 		and	r0, r0, #14
  73              	.LVL5:
  74 0006 1378     		ldrb	r3, [r2]	@ zero_extendqisi2
  75 0008 03F0F103 		and	r3, r3, #241
  76 000c 1843     		orrs	r0, r0, r3
  77 000e 1070     		strb	r0, [r2]
  78 0010 7047     		bx	lr
  79              	.L6:
  80 0012 00BF     		.align	2
  81              	.L5:
  82 0014 64500040 		.word	1073762404
  83              		.cfi_endproc
  84              	.LFE1:
  85              		.size	RS_485_EN_SetDriveMode, .-RS_485_EN_SetDriveMode
  86              		.section	.text.RS_485_EN_Read,"ax",%progbits
  87              		.align	2
  88              		.global	RS_485_EN_Read
  89              		.thumb
  90              		.thumb_func
  91              		.type	RS_485_EN_Read, %function
  92              	RS_485_EN_Read:
  93              	.LFB2:
  63:Generated_Source\PSoC5/RS_485_EN.c **** }
  64:Generated_Source\PSoC5/RS_485_EN.c **** 
  65:Generated_Source\PSoC5/RS_485_EN.c **** 
  66:Generated_Source\PSoC5/RS_485_EN.c **** /*******************************************************************************
  67:Generated_Source\PSoC5/RS_485_EN.c **** * Function Name: RS_485_EN_Read
  68:Generated_Source\PSoC5/RS_485_EN.c **** ********************************************************************************
  69:Generated_Source\PSoC5/RS_485_EN.c **** *
  70:Generated_Source\PSoC5/RS_485_EN.c **** * Summary:
  71:Generated_Source\PSoC5/RS_485_EN.c **** *  Read the current value on the pins of the Digital Port in right justified 
  72:Generated_Source\PSoC5/RS_485_EN.c **** *  form.
  73:Generated_Source\PSoC5/RS_485_EN.c **** *
  74:Generated_Source\PSoC5/RS_485_EN.c **** * Parameters:  
  75:Generated_Source\PSoC5/RS_485_EN.c **** *  None
  76:Generated_Source\PSoC5/RS_485_EN.c **** *
  77:Generated_Source\PSoC5/RS_485_EN.c **** * Return: 
ARM GAS  C:\Users\MattiaCP\AppData\Local\Temp\cch0KQvc.s 			page 4


  78:Generated_Source\PSoC5/RS_485_EN.c **** *  Returns the current value of the Digital Port as a right justified number
  79:Generated_Source\PSoC5/RS_485_EN.c **** *  
  80:Generated_Source\PSoC5/RS_485_EN.c **** * Note:
  81:Generated_Source\PSoC5/RS_485_EN.c **** *  Macro RS_485_EN_ReadPS calls this function. 
  82:Generated_Source\PSoC5/RS_485_EN.c **** *  
  83:Generated_Source\PSoC5/RS_485_EN.c **** *******************************************************************************/
  84:Generated_Source\PSoC5/RS_485_EN.c **** uint8 RS_485_EN_Read(void) 
  85:Generated_Source\PSoC5/RS_485_EN.c **** {
  94              		.loc 1 85 0
  95              		.cfi_startproc
  96              		@ args = 0, pretend = 0, frame = 0
  97              		@ frame_needed = 0, uses_anonymous_args = 0
  98              		@ link register save eliminated.
  86:Generated_Source\PSoC5/RS_485_EN.c ****     return (RS_485_EN_PS & RS_485_EN_MASK) >> RS_485_EN_SHIFT;
  99              		.loc 1 86 0
 100 0000 024B     		ldr	r3, .L8
 101 0002 1878     		ldrb	r0, [r3]	@ zero_extendqisi2
  87:Generated_Source\PSoC5/RS_485_EN.c **** }
 102              		.loc 1 87 0
 103 0004 C0F30010 		ubfx	r0, r0, #4, #1
 104 0008 7047     		bx	lr
 105              	.L9:
 106 000a 00BF     		.align	2
 107              	.L8:
 108 000c C1510040 		.word	1073762753
 109              		.cfi_endproc
 110              	.LFE2:
 111              		.size	RS_485_EN_Read, .-RS_485_EN_Read
 112              		.section	.text.RS_485_EN_ReadDataReg,"ax",%progbits
 113              		.align	2
 114              		.global	RS_485_EN_ReadDataReg
 115              		.thumb
 116              		.thumb_func
 117              		.type	RS_485_EN_ReadDataReg, %function
 118              	RS_485_EN_ReadDataReg:
 119              	.LFB3:
  88:Generated_Source\PSoC5/RS_485_EN.c **** 
  89:Generated_Source\PSoC5/RS_485_EN.c **** 
  90:Generated_Source\PSoC5/RS_485_EN.c **** /*******************************************************************************
  91:Generated_Source\PSoC5/RS_485_EN.c **** * Function Name: RS_485_EN_ReadDataReg
  92:Generated_Source\PSoC5/RS_485_EN.c **** ********************************************************************************
  93:Generated_Source\PSoC5/RS_485_EN.c **** *
  94:Generated_Source\PSoC5/RS_485_EN.c **** * Summary:
  95:Generated_Source\PSoC5/RS_485_EN.c **** *  Read the current value assigned to a Digital Port's data output register
  96:Generated_Source\PSoC5/RS_485_EN.c **** *
  97:Generated_Source\PSoC5/RS_485_EN.c **** * Parameters:  
  98:Generated_Source\PSoC5/RS_485_EN.c **** *  None 
  99:Generated_Source\PSoC5/RS_485_EN.c **** *
 100:Generated_Source\PSoC5/RS_485_EN.c **** * Return: 
 101:Generated_Source\PSoC5/RS_485_EN.c **** *  Returns the current value assigned to the Digital Port's data output register
 102:Generated_Source\PSoC5/RS_485_EN.c **** *  
 103:Generated_Source\PSoC5/RS_485_EN.c **** *******************************************************************************/
 104:Generated_Source\PSoC5/RS_485_EN.c **** uint8 RS_485_EN_ReadDataReg(void) 
 105:Generated_Source\PSoC5/RS_485_EN.c **** {
 120              		.loc 1 105 0
 121              		.cfi_startproc
 122              		@ args = 0, pretend = 0, frame = 0
ARM GAS  C:\Users\MattiaCP\AppData\Local\Temp\cch0KQvc.s 			page 5


 123              		@ frame_needed = 0, uses_anonymous_args = 0
 124              		@ link register save eliminated.
 106:Generated_Source\PSoC5/RS_485_EN.c ****     return (RS_485_EN_DR & RS_485_EN_MASK) >> RS_485_EN_SHIFT;
 125              		.loc 1 106 0
 126 0000 024B     		ldr	r3, .L11
 127 0002 1878     		ldrb	r0, [r3]	@ zero_extendqisi2
 107:Generated_Source\PSoC5/RS_485_EN.c **** }
 128              		.loc 1 107 0
 129 0004 C0F30010 		ubfx	r0, r0, #4, #1
 130 0008 7047     		bx	lr
 131              	.L12:
 132 000a 00BF     		.align	2
 133              	.L11:
 134 000c C0510040 		.word	1073762752
 135              		.cfi_endproc
 136              	.LFE3:
 137              		.size	RS_485_EN_ReadDataReg, .-RS_485_EN_ReadDataReg
 138              		.text
 139              	.Letext0:
 140              		.file 2 "Generated_Source\\PSoC5\\cytypes.h"