ARM GAS  C:\Users\MattiaCP\AppData\Local\Temp\ccTV2FhT.s 			page 1


   1              		.syntax unified
   2              		.cpu cortex-m3
   3              		.fpu softvfp
   4              		.eabi_attribute 20, 1
   5              		.eabi_attribute 21, 1
   6              		.eabi_attribute 23, 3
   7              		.eabi_attribute 24, 1
   8              		.eabi_attribute 25, 1
   9              		.eabi_attribute 26, 1
  10              		.eabi_attribute 30, 2
  11              		.eabi_attribute 34, 1
  12              		.eabi_attribute 18, 4
  13              		.thumb
  14              		.syntax unified
  15              		.file	"UART_RS485_INT.c"
  16              		.text
  17              	.Ltext0:
  18              		.cfi_sections	.debug_frame
  19              		.section	.text.UART_RS485_RXISR,"ax",%progbits
  20              		.align	2
  21              		.global	UART_RS485_RXISR
  22              		.thumb
  23              		.thumb_func
  24              		.type	UART_RS485_RXISR, %function
  25              	UART_RS485_RXISR:
  26              	.LFB0:
  27              		.file 1 "Generated_Source\\PSoC5\\UART_RS485_INT.c"
   1:Generated_Source\PSoC5/UART_RS485_INT.c **** /*******************************************************************************
   2:Generated_Source\PSoC5/UART_RS485_INT.c **** * File Name: UART_RS485INT.c
   3:Generated_Source\PSoC5/UART_RS485_INT.c **** * Version 2.50
   4:Generated_Source\PSoC5/UART_RS485_INT.c **** *
   5:Generated_Source\PSoC5/UART_RS485_INT.c **** * Description:
   6:Generated_Source\PSoC5/UART_RS485_INT.c **** *  This file provides all Interrupt Service functionality of the UART component
   7:Generated_Source\PSoC5/UART_RS485_INT.c **** *
   8:Generated_Source\PSoC5/UART_RS485_INT.c **** ********************************************************************************
   9:Generated_Source\PSoC5/UART_RS485_INT.c **** * Copyright 2008-2015, Cypress Semiconductor Corporation.  All rights reserved.
  10:Generated_Source\PSoC5/UART_RS485_INT.c **** * You may use this file only in accordance with the license, terms, conditions,
  11:Generated_Source\PSoC5/UART_RS485_INT.c **** * disclaimers, and limitations in the end user license agreement accompanying
  12:Generated_Source\PSoC5/UART_RS485_INT.c **** * the software package with which this file was provided.
  13:Generated_Source\PSoC5/UART_RS485_INT.c **** *******************************************************************************/
  14:Generated_Source\PSoC5/UART_RS485_INT.c **** 
  15:Generated_Source\PSoC5/UART_RS485_INT.c **** #include "UART_RS485.h"
  16:Generated_Source\PSoC5/UART_RS485_INT.c **** #include "cyapicallbacks.h"
  17:Generated_Source\PSoC5/UART_RS485_INT.c **** 
  18:Generated_Source\PSoC5/UART_RS485_INT.c **** 
  19:Generated_Source\PSoC5/UART_RS485_INT.c **** /***************************************
  20:Generated_Source\PSoC5/UART_RS485_INT.c **** * Custom Declarations
  21:Generated_Source\PSoC5/UART_RS485_INT.c **** ***************************************/
  22:Generated_Source\PSoC5/UART_RS485_INT.c **** /* `#START CUSTOM_DECLARATIONS` Place your declaration here */
  23:Generated_Source\PSoC5/UART_RS485_INT.c **** 
  24:Generated_Source\PSoC5/UART_RS485_INT.c **** /* `#END` */
  25:Generated_Source\PSoC5/UART_RS485_INT.c **** 
  26:Generated_Source\PSoC5/UART_RS485_INT.c **** #if (UART_RS485_RX_INTERRUPT_ENABLED && (UART_RS485_RX_ENABLED || UART_RS485_HD_ENABLED))
  27:Generated_Source\PSoC5/UART_RS485_INT.c ****     /*******************************************************************************
  28:Generated_Source\PSoC5/UART_RS485_INT.c ****     * Function Name: UART_RS485_RXISR
  29:Generated_Source\PSoC5/UART_RS485_INT.c ****     ********************************************************************************
  30:Generated_Source\PSoC5/UART_RS485_INT.c ****     *
ARM GAS  C:\Users\MattiaCP\AppData\Local\Temp\ccTV2FhT.s 			page 2


  31:Generated_Source\PSoC5/UART_RS485_INT.c ****     * Summary:
  32:Generated_Source\PSoC5/UART_RS485_INT.c ****     *  Interrupt Service Routine for RX portion of the UART
  33:Generated_Source\PSoC5/UART_RS485_INT.c ****     *
  34:Generated_Source\PSoC5/UART_RS485_INT.c ****     * Parameters:
  35:Generated_Source\PSoC5/UART_RS485_INT.c ****     *  None.
  36:Generated_Source\PSoC5/UART_RS485_INT.c ****     *
  37:Generated_Source\PSoC5/UART_RS485_INT.c ****     * Return:
  38:Generated_Source\PSoC5/UART_RS485_INT.c ****     *  None.
  39:Generated_Source\PSoC5/UART_RS485_INT.c ****     *
  40:Generated_Source\PSoC5/UART_RS485_INT.c ****     * Global Variables:
  41:Generated_Source\PSoC5/UART_RS485_INT.c ****     *  UART_RS485_rxBuffer - RAM buffer pointer for save received data.
  42:Generated_Source\PSoC5/UART_RS485_INT.c ****     *  UART_RS485_rxBufferWrite - cyclic index for write to rxBuffer,
  43:Generated_Source\PSoC5/UART_RS485_INT.c ****     *     increments after each byte saved to buffer.
  44:Generated_Source\PSoC5/UART_RS485_INT.c ****     *  UART_RS485_rxBufferRead - cyclic index for read from rxBuffer,
  45:Generated_Source\PSoC5/UART_RS485_INT.c ****     *     checked to detect overflow condition.
  46:Generated_Source\PSoC5/UART_RS485_INT.c ****     *  UART_RS485_rxBufferOverflow - software overflow flag. Set to one
  47:Generated_Source\PSoC5/UART_RS485_INT.c ****     *     when UART_RS485_rxBufferWrite index overtakes
  48:Generated_Source\PSoC5/UART_RS485_INT.c ****     *     UART_RS485_rxBufferRead index.
  49:Generated_Source\PSoC5/UART_RS485_INT.c ****     *  UART_RS485_rxBufferLoopDetect - additional variable to detect overflow.
  50:Generated_Source\PSoC5/UART_RS485_INT.c ****     *     Set to one when UART_RS485_rxBufferWrite is equal to
  51:Generated_Source\PSoC5/UART_RS485_INT.c ****     *    UART_RS485_rxBufferRead
  52:Generated_Source\PSoC5/UART_RS485_INT.c ****     *  UART_RS485_rxAddressMode - this variable contains the Address mode,
  53:Generated_Source\PSoC5/UART_RS485_INT.c ****     *     selected in customizer or set by UART_SetRxAddressMode() API.
  54:Generated_Source\PSoC5/UART_RS485_INT.c ****     *  UART_RS485_rxAddressDetected - set to 1 when correct address received,
  55:Generated_Source\PSoC5/UART_RS485_INT.c ****     *     and analysed to store following addressed data bytes to the buffer.
  56:Generated_Source\PSoC5/UART_RS485_INT.c ****     *     When not correct address received, set to 0 to skip following data bytes.
  57:Generated_Source\PSoC5/UART_RS485_INT.c ****     *
  58:Generated_Source\PSoC5/UART_RS485_INT.c ****     *******************************************************************************/
  59:Generated_Source\PSoC5/UART_RS485_INT.c ****     CY_ISR(UART_RS485_RXISR)
  60:Generated_Source\PSoC5/UART_RS485_INT.c ****     {
  28              		.loc 1 60 0
  29              		.cfi_startproc
  30              		@ args = 0, pretend = 0, frame = 0
  31              		@ frame_needed = 0, uses_anonymous_args = 0
  32              	.LVL0:
  33 0000 2DE9F043 		push	{r4, r5, r6, r7, r8, r9, lr}
  34              		.cfi_def_cfa_offset 28
  35              		.cfi_offset 4, -28
  36              		.cfi_offset 5, -24
  37              		.cfi_offset 6, -20
  38              		.cfi_offset 7, -16
  39              		.cfi_offset 8, -12
  40              		.cfi_offset 9, -8
  41              		.cfi_offset 14, -4
  61:Generated_Source\PSoC5/UART_RS485_INT.c ****         uint8 readData;
  62:Generated_Source\PSoC5/UART_RS485_INT.c ****         uint8 readStatus;
  63:Generated_Source\PSoC5/UART_RS485_INT.c ****         uint8 increment_pointer = 0u;
  64:Generated_Source\PSoC5/UART_RS485_INT.c **** 
  65:Generated_Source\PSoC5/UART_RS485_INT.c ****     #if(CY_PSOC3)
  66:Generated_Source\PSoC5/UART_RS485_INT.c ****         uint8 int_en;
  67:Generated_Source\PSoC5/UART_RS485_INT.c ****     #endif /* (CY_PSOC3) */
  68:Generated_Source\PSoC5/UART_RS485_INT.c **** 
  69:Generated_Source\PSoC5/UART_RS485_INT.c ****     #ifdef UART_RS485_RXISR_ENTRY_CALLBACK
  70:Generated_Source\PSoC5/UART_RS485_INT.c ****         UART_RS485_RXISR_EntryCallback();
  71:Generated_Source\PSoC5/UART_RS485_INT.c ****     #endif /* UART_RS485_RXISR_ENTRY_CALLBACK */
  72:Generated_Source\PSoC5/UART_RS485_INT.c **** 
  73:Generated_Source\PSoC5/UART_RS485_INT.c ****         /* User code required at start of ISR */
ARM GAS  C:\Users\MattiaCP\AppData\Local\Temp\ccTV2FhT.s 			page 3


  74:Generated_Source\PSoC5/UART_RS485_INT.c ****         /* `#START UART_RS485_RXISR_START` */
  75:Generated_Source\PSoC5/UART_RS485_INT.c **** 
  76:Generated_Source\PSoC5/UART_RS485_INT.c ****         /* `#END` */
  77:Generated_Source\PSoC5/UART_RS485_INT.c **** 
  78:Generated_Source\PSoC5/UART_RS485_INT.c ****     #if(CY_PSOC3)   /* Make sure nested interrupt is enabled */
  79:Generated_Source\PSoC5/UART_RS485_INT.c ****         int_en = EA;
  80:Generated_Source\PSoC5/UART_RS485_INT.c ****         CyGlobalIntEnable;
  81:Generated_Source\PSoC5/UART_RS485_INT.c ****     #endif /* (CY_PSOC3) */
  82:Generated_Source\PSoC5/UART_RS485_INT.c **** 
  83:Generated_Source\PSoC5/UART_RS485_INT.c ****         do
  84:Generated_Source\PSoC5/UART_RS485_INT.c ****         {
  85:Generated_Source\PSoC5/UART_RS485_INT.c ****             /* Read receiver status register */
  86:Generated_Source\PSoC5/UART_RS485_INT.c ****             readStatus = UART_RS485_RXSTATUS_REG;
  42              		.loc 1 86 0
  43 0004 1C48     		ldr	r0, .L17
  87:Generated_Source\PSoC5/UART_RS485_INT.c ****             /* Copy the same status to readData variable for backward compatibility support 
  88:Generated_Source\PSoC5/UART_RS485_INT.c ****             *  of the user code in UART_RS485_RXISR_ERROR` section. 
  89:Generated_Source\PSoC5/UART_RS485_INT.c ****             */
  90:Generated_Source\PSoC5/UART_RS485_INT.c ****             readData = readStatus;
  91:Generated_Source\PSoC5/UART_RS485_INT.c **** 
  92:Generated_Source\PSoC5/UART_RS485_INT.c ****             if((readStatus & (UART_RS485_RX_STS_BREAK | 
  93:Generated_Source\PSoC5/UART_RS485_INT.c ****                             UART_RS485_RX_STS_PAR_ERROR |
  94:Generated_Source\PSoC5/UART_RS485_INT.c ****                             UART_RS485_RX_STS_STOP_ERROR | 
  95:Generated_Source\PSoC5/UART_RS485_INT.c ****                             UART_RS485_RX_STS_OVERRUN)) != 0u)
  96:Generated_Source\PSoC5/UART_RS485_INT.c ****             {
  97:Generated_Source\PSoC5/UART_RS485_INT.c ****                 /* ERROR handling. */
  98:Generated_Source\PSoC5/UART_RS485_INT.c ****                 UART_RS485_errorStatus |= readStatus & ( UART_RS485_RX_STS_BREAK | 
  44              		.loc 1 98 0
  45 0006 1D49     		ldr	r1, .L17+4
  99:Generated_Source\PSoC5/UART_RS485_INT.c ****                                                             UART_RS485_RX_STS_PAR_ERROR | 
 100:Generated_Source\PSoC5/UART_RS485_INT.c ****                                                             UART_RS485_RX_STS_STOP_ERROR | 
 101:Generated_Source\PSoC5/UART_RS485_INT.c ****                                                             UART_RS485_RX_STS_OVERRUN);
 102:Generated_Source\PSoC5/UART_RS485_INT.c ****                 /* `#START UART_RS485_RXISR_ERROR` */
 103:Generated_Source\PSoC5/UART_RS485_INT.c **** 
 104:Generated_Source\PSoC5/UART_RS485_INT.c ****                 /* `#END` */
 105:Generated_Source\PSoC5/UART_RS485_INT.c ****                 
 106:Generated_Source\PSoC5/UART_RS485_INT.c ****             #ifdef UART_RS485_RXISR_ERROR_CALLBACK
 107:Generated_Source\PSoC5/UART_RS485_INT.c ****                 UART_RS485_RXISR_ERROR_Callback();
 108:Generated_Source\PSoC5/UART_RS485_INT.c ****             #endif /* UART_RS485_RXISR_ERROR_CALLBACK */
 109:Generated_Source\PSoC5/UART_RS485_INT.c ****             }
 110:Generated_Source\PSoC5/UART_RS485_INT.c ****             
 111:Generated_Source\PSoC5/UART_RS485_INT.c ****             if((readStatus & UART_RS485_RX_STS_FIFO_NOTEMPTY) != 0u)
 112:Generated_Source\PSoC5/UART_RS485_INT.c ****             {
 113:Generated_Source\PSoC5/UART_RS485_INT.c ****                 /* Read data from the RX data register */
 114:Generated_Source\PSoC5/UART_RS485_INT.c ****                 readData = UART_RS485_RXDATA_REG;
  46              		.loc 1 114 0
  47 0008 1D4F     		ldr	r7, .L17+8
 115:Generated_Source\PSoC5/UART_RS485_INT.c ****             #if (UART_RS485_RXHW_ADDRESS_ENABLED)
 116:Generated_Source\PSoC5/UART_RS485_INT.c ****                 if(UART_RS485_rxAddressMode == (uint8)UART_RS485__B_UART__AM_SW_DETECT_TO_BUFFER)
 117:Generated_Source\PSoC5/UART_RS485_INT.c ****                 {
 118:Generated_Source\PSoC5/UART_RS485_INT.c ****                     if((readStatus & UART_RS485_RX_STS_MRKSPC) != 0u)
 119:Generated_Source\PSoC5/UART_RS485_INT.c ****                     {
 120:Generated_Source\PSoC5/UART_RS485_INT.c ****                         if ((readStatus & UART_RS485_RX_STS_ADDR_MATCH) != 0u)
 121:Generated_Source\PSoC5/UART_RS485_INT.c ****                         {
 122:Generated_Source\PSoC5/UART_RS485_INT.c ****                             UART_RS485_rxAddressDetected = 1u;
 123:Generated_Source\PSoC5/UART_RS485_INT.c ****                         }
 124:Generated_Source\PSoC5/UART_RS485_INT.c ****                         else
ARM GAS  C:\Users\MattiaCP\AppData\Local\Temp\ccTV2FhT.s 			page 4


 125:Generated_Source\PSoC5/UART_RS485_INT.c ****                         {
 126:Generated_Source\PSoC5/UART_RS485_INT.c ****                             UART_RS485_rxAddressDetected = 0u;
 127:Generated_Source\PSoC5/UART_RS485_INT.c ****                         }
 128:Generated_Source\PSoC5/UART_RS485_INT.c ****                     }
 129:Generated_Source\PSoC5/UART_RS485_INT.c ****                     if(UART_RS485_rxAddressDetected != 0u)
 130:Generated_Source\PSoC5/UART_RS485_INT.c ****                     {   /* Store only addressed data */
 131:Generated_Source\PSoC5/UART_RS485_INT.c ****                         UART_RS485_rxBuffer[UART_RS485_rxBufferWrite] = readData;
 132:Generated_Source\PSoC5/UART_RS485_INT.c ****                         increment_pointer = 1u;
 133:Generated_Source\PSoC5/UART_RS485_INT.c ****                     }
 134:Generated_Source\PSoC5/UART_RS485_INT.c ****                 }
 135:Generated_Source\PSoC5/UART_RS485_INT.c ****                 else /* Without software addressing */
 136:Generated_Source\PSoC5/UART_RS485_INT.c ****                 {
 137:Generated_Source\PSoC5/UART_RS485_INT.c ****                     UART_RS485_rxBuffer[UART_RS485_rxBufferWrite] = readData;
 138:Generated_Source\PSoC5/UART_RS485_INT.c ****                     increment_pointer = 1u;
 139:Generated_Source\PSoC5/UART_RS485_INT.c ****                 }
 140:Generated_Source\PSoC5/UART_RS485_INT.c ****             #else  /* Without addressing */
 141:Generated_Source\PSoC5/UART_RS485_INT.c ****                 UART_RS485_rxBuffer[UART_RS485_rxBufferWrite] = readData;
  48              		.loc 1 141 0
  49 000a 1E4A     		ldr	r2, .L17+12
  50 000c 1E4E     		ldr	r6, .L17+16
 142:Generated_Source\PSoC5/UART_RS485_INT.c ****                 increment_pointer = 1u;
 143:Generated_Source\PSoC5/UART_RS485_INT.c ****             #endif /* (UART_RS485_RXHW_ADDRESS_ENABLED) */
 144:Generated_Source\PSoC5/UART_RS485_INT.c **** 
 145:Generated_Source\PSoC5/UART_RS485_INT.c ****                 /* Do not increment buffer pointer when skip not addressed data */
 146:Generated_Source\PSoC5/UART_RS485_INT.c ****                 if(increment_pointer != 0u)
 147:Generated_Source\PSoC5/UART_RS485_INT.c ****                 {
 148:Generated_Source\PSoC5/UART_RS485_INT.c ****                     if(UART_RS485_rxBufferLoopDetect != 0u)
  51              		.loc 1 148 0
  52 000e 1F4C     		ldr	r4, .L17+20
 149:Generated_Source\PSoC5/UART_RS485_INT.c ****                     {   /* Set Software Buffer status Overflow */
 150:Generated_Source\PSoC5/UART_RS485_INT.c ****                         UART_RS485_rxBufferOverflow = 1u;
  53              		.loc 1 150 0
  54 0010 DFF880C0 		ldr	ip, .L17+28
 151:Generated_Source\PSoC5/UART_RS485_INT.c ****                     }
 152:Generated_Source\PSoC5/UART_RS485_INT.c ****                     /* Set next pointer. */
 153:Generated_Source\PSoC5/UART_RS485_INT.c ****                     UART_RS485_rxBufferWrite++;
 154:Generated_Source\PSoC5/UART_RS485_INT.c **** 
 155:Generated_Source\PSoC5/UART_RS485_INT.c ****                     /* Check pointer for a loop condition */
 156:Generated_Source\PSoC5/UART_RS485_INT.c ****                     if(UART_RS485_rxBufferWrite >= UART_RS485_RX_BUFFER_SIZE)
 157:Generated_Source\PSoC5/UART_RS485_INT.c ****                     {
 158:Generated_Source\PSoC5/UART_RS485_INT.c ****                         UART_RS485_rxBufferWrite = 0u;
 159:Generated_Source\PSoC5/UART_RS485_INT.c ****                     }
 160:Generated_Source\PSoC5/UART_RS485_INT.c **** 
 161:Generated_Source\PSoC5/UART_RS485_INT.c ****                     /* Detect pre-overload condition and set flag */
 162:Generated_Source\PSoC5/UART_RS485_INT.c ****                     if(UART_RS485_rxBufferWrite == UART_RS485_rxBufferRead)
  55              		.loc 1 162 0
  56 0014 1E4D     		ldr	r5, .L17+24
 150:Generated_Source\PSoC5/UART_RS485_INT.c ****                     }
  57              		.loc 1 150 0
  58 0016 4FF0010E 		mov	lr, #1
  59              	.LVL1:
  60              	.L7:
  86:Generated_Source\PSoC5/UART_RS485_INT.c ****             /* Copy the same status to readData variable for backward compatibility support 
  61              		.loc 1 86 0
  62 001a 0378     		ldrb	r3, [r0]	@ zero_extendqisi2
  63 001c DBB2     		uxtb	r3, r3
  64              	.LVL2:
ARM GAS  C:\Users\MattiaCP\AppData\Local\Temp\ccTV2FhT.s 			page 5


  92:Generated_Source\PSoC5/UART_RS485_INT.c ****                             UART_RS485_RX_STS_PAR_ERROR |
  65              		.loc 1 92 0
  66 001e 13F01E09 		ands	r9, r3, #30
  67 0022 05D0     		beq	.L2
  98:Generated_Source\PSoC5/UART_RS485_INT.c ****                                                             UART_RS485_RX_STS_PAR_ERROR | 
  68              		.loc 1 98 0
  69 0024 91F80080 		ldrb	r8, [r1]	@ zero_extendqisi2
  70 0028 49EA0808 		orr	r8, r9, r8
  71 002c 81F80080 		strb	r8, [r1]
  72              	.L2:
 111:Generated_Source\PSoC5/UART_RS485_INT.c ****             {
  73              		.loc 1 111 0
  74 0030 9B06     		lsls	r3, r3, #26
  75              	.LVL3:
  76 0032 01D4     		bmi	.L16
  77 0034 BDE8F083 		pop	{r4, r5, r6, r7, r8, r9, pc}
  78              	.L16:
 114:Generated_Source\PSoC5/UART_RS485_INT.c ****             #if (UART_RS485_RXHW_ADDRESS_ENABLED)
  79              		.loc 1 114 0
  80 0038 97F80080 		ldrb	r8, [r7]	@ zero_extendqisi2
 141:Generated_Source\PSoC5/UART_RS485_INT.c ****                 increment_pointer = 1u;
  81              		.loc 1 141 0
  82 003c 1378     		ldrb	r3, [r2]	@ zero_extendqisi2
 114:Generated_Source\PSoC5/UART_RS485_INT.c ****             #if (UART_RS485_RXHW_ADDRESS_ENABLED)
  83              		.loc 1 114 0
  84 003e 5FFA88F8 		uxtb	r8, r8
  85              	.LVL4:
 141:Generated_Source\PSoC5/UART_RS485_INT.c ****                 increment_pointer = 1u;
  86              		.loc 1 141 0
  87 0042 DBB2     		uxtb	r3, r3
  88 0044 06F80380 		strb	r8, [r6, r3]
  89              	.LVL5:
 148:Generated_Source\PSoC5/UART_RS485_INT.c ****                     {   /* Set Software Buffer status Overflow */
  90              		.loc 1 148 0
  91 0048 2378     		ldrb	r3, [r4]	@ zero_extendqisi2
 158:Generated_Source\PSoC5/UART_RS485_INT.c ****                     }
  92              		.loc 1 158 0
  93 004a 4FF00008 		mov	r8, #0
  94              	.LVL6:
 148:Generated_Source\PSoC5/UART_RS485_INT.c ****                     {   /* Set Software Buffer status Overflow */
  95              		.loc 1 148 0
  96 004e 0BB1     		cbz	r3, .L4
 150:Generated_Source\PSoC5/UART_RS485_INT.c ****                     }
  97              		.loc 1 150 0
  98 0050 8CF800E0 		strb	lr, [ip]
  99              	.L4:
 153:Generated_Source\PSoC5/UART_RS485_INT.c **** 
 100              		.loc 1 153 0
 101 0054 1378     		ldrb	r3, [r2]	@ zero_extendqisi2
 102 0056 0133     		adds	r3, r3, #1
 103 0058 DBB2     		uxtb	r3, r3
 104 005a 1370     		strb	r3, [r2]
 156:Generated_Source\PSoC5/UART_RS485_INT.c ****                     {
 105              		.loc 1 156 0
 106 005c 1378     		ldrb	r3, [r2]	@ zero_extendqisi2
 107 005e 3F2B     		cmp	r3, #63
 158:Generated_Source\PSoC5/UART_RS485_INT.c ****                     }
ARM GAS  C:\Users\MattiaCP\AppData\Local\Temp\ccTV2FhT.s 			page 6


 108              		.loc 1 158 0
 109 0060 88BF     		it	hi
 110 0062 82F80080 		strbhi	r8, [r2]
 111              		.loc 1 162 0
 112 0066 92F80080 		ldrb	r8, [r2]	@ zero_extendqisi2
 113 006a 2B78     		ldrb	r3, [r5]	@ zero_extendqisi2
 114 006c 9845     		cmp	r8, r3
 115 006e D4D1     		bne	.L7
 163:Generated_Source\PSoC5/UART_RS485_INT.c ****                     {
 164:Generated_Source\PSoC5/UART_RS485_INT.c ****                         UART_RS485_rxBufferLoopDetect = 1u;
 116              		.loc 1 164 0
 117 0070 84F800E0 		strb	lr, [r4]
 118 0074 D1E7     		b	.L7
 119              	.L18:
 120 0076 00BF     		.align	2
 121              	.L17:
 122 0078 69640040 		.word	1073767529
 123 007c 00000000 		.word	UART_RS485_errorStatus
 124 0080 4A650040 		.word	1073767754
 125 0084 00000000 		.word	UART_RS485_rxBufferWrite
 126 0088 00000000 		.word	UART_RS485_rxBuffer
 127 008c 00000000 		.word	UART_RS485_rxBufferLoopDetect
 128 0090 00000000 		.word	UART_RS485_rxBufferRead
 129 0094 00000000 		.word	UART_RS485_rxBufferOverflow
 130              		.cfi_endproc
 131              	.LFE0:
 132              		.size	UART_RS485_RXISR, .-UART_RS485_RXISR
 133              		.section	.text.UART_RS485_TXISR,"ax",%progbits
 134              		.align	2
 135              		.global	UART_RS485_TXISR
 136              		.thumb
 137              		.thumb_func
 138              		.type	UART_RS485_TXISR, %function
 139              	UART_RS485_TXISR:
 140              	.LFB1:
 165:Generated_Source\PSoC5/UART_RS485_INT.c ****                         /* When Hardware Flow Control selected */
 166:Generated_Source\PSoC5/UART_RS485_INT.c ****                         #if (UART_RS485_FLOW_CONTROL != 0u)
 167:Generated_Source\PSoC5/UART_RS485_INT.c ****                             /* Disable RX interrupt mask, it is enabled when user read data from th
 168:Generated_Source\PSoC5/UART_RS485_INT.c ****                             UART_RS485_RXSTATUS_MASK_REG  &= (uint8)~UART_RS485_RX_STS_FIFO_NOTEMPT
 169:Generated_Source\PSoC5/UART_RS485_INT.c ****                             CyIntClearPending(UART_RS485_RX_VECT_NUM);
 170:Generated_Source\PSoC5/UART_RS485_INT.c ****                             break; /* Break the reading of the FIFO loop, leave the data there for 
 171:Generated_Source\PSoC5/UART_RS485_INT.c ****                         #endif /* (UART_RS485_FLOW_CONTROL != 0u) */
 172:Generated_Source\PSoC5/UART_RS485_INT.c ****                     }
 173:Generated_Source\PSoC5/UART_RS485_INT.c ****                 }
 174:Generated_Source\PSoC5/UART_RS485_INT.c ****             }
 175:Generated_Source\PSoC5/UART_RS485_INT.c ****         }while((readStatus & UART_RS485_RX_STS_FIFO_NOTEMPTY) != 0u);
 176:Generated_Source\PSoC5/UART_RS485_INT.c **** 
 177:Generated_Source\PSoC5/UART_RS485_INT.c ****         /* User code required at end of ISR (Optional) */
 178:Generated_Source\PSoC5/UART_RS485_INT.c ****         /* `#START UART_RS485_RXISR_END` */
 179:Generated_Source\PSoC5/UART_RS485_INT.c **** 
 180:Generated_Source\PSoC5/UART_RS485_INT.c ****         /* `#END` */
 181:Generated_Source\PSoC5/UART_RS485_INT.c **** 
 182:Generated_Source\PSoC5/UART_RS485_INT.c ****     #ifdef UART_RS485_RXISR_EXIT_CALLBACK
 183:Generated_Source\PSoC5/UART_RS485_INT.c ****         UART_RS485_RXISR_ExitCallback();
 184:Generated_Source\PSoC5/UART_RS485_INT.c ****     #endif /* UART_RS485_RXISR_EXIT_CALLBACK */
 185:Generated_Source\PSoC5/UART_RS485_INT.c **** 
 186:Generated_Source\PSoC5/UART_RS485_INT.c ****     #if(CY_PSOC3)
ARM GAS  C:\Users\MattiaCP\AppData\Local\Temp\ccTV2FhT.s 			page 7


 187:Generated_Source\PSoC5/UART_RS485_INT.c ****         EA = int_en;
 188:Generated_Source\PSoC5/UART_RS485_INT.c ****     #endif /* (CY_PSOC3) */
 189:Generated_Source\PSoC5/UART_RS485_INT.c ****     }
 190:Generated_Source\PSoC5/UART_RS485_INT.c ****     
 191:Generated_Source\PSoC5/UART_RS485_INT.c **** #endif /* (UART_RS485_RX_INTERRUPT_ENABLED && (UART_RS485_RX_ENABLED || UART_RS485_HD_ENABLED)) */
 192:Generated_Source\PSoC5/UART_RS485_INT.c **** 
 193:Generated_Source\PSoC5/UART_RS485_INT.c **** 
 194:Generated_Source\PSoC5/UART_RS485_INT.c **** #if (UART_RS485_TX_INTERRUPT_ENABLED && UART_RS485_TX_ENABLED)
 195:Generated_Source\PSoC5/UART_RS485_INT.c ****     /*******************************************************************************
 196:Generated_Source\PSoC5/UART_RS485_INT.c ****     * Function Name: UART_RS485_TXISR
 197:Generated_Source\PSoC5/UART_RS485_INT.c ****     ********************************************************************************
 198:Generated_Source\PSoC5/UART_RS485_INT.c ****     *
 199:Generated_Source\PSoC5/UART_RS485_INT.c ****     * Summary:
 200:Generated_Source\PSoC5/UART_RS485_INT.c ****     * Interrupt Service Routine for the TX portion of the UART
 201:Generated_Source\PSoC5/UART_RS485_INT.c ****     *
 202:Generated_Source\PSoC5/UART_RS485_INT.c ****     * Parameters:
 203:Generated_Source\PSoC5/UART_RS485_INT.c ****     *  None.
 204:Generated_Source\PSoC5/UART_RS485_INT.c ****     *
 205:Generated_Source\PSoC5/UART_RS485_INT.c ****     * Return:
 206:Generated_Source\PSoC5/UART_RS485_INT.c ****     *  None.
 207:Generated_Source\PSoC5/UART_RS485_INT.c ****     *
 208:Generated_Source\PSoC5/UART_RS485_INT.c ****     * Global Variables:
 209:Generated_Source\PSoC5/UART_RS485_INT.c ****     *  UART_RS485_txBuffer - RAM buffer pointer for transmit data from.
 210:Generated_Source\PSoC5/UART_RS485_INT.c ****     *  UART_RS485_txBufferRead - cyclic index for read and transmit data
 211:Generated_Source\PSoC5/UART_RS485_INT.c ****     *     from txBuffer, increments after each transmitted byte.
 212:Generated_Source\PSoC5/UART_RS485_INT.c ****     *  UART_RS485_rxBufferWrite - cyclic index for write to txBuffer,
 213:Generated_Source\PSoC5/UART_RS485_INT.c ****     *     checked to detect available for transmission bytes.
 214:Generated_Source\PSoC5/UART_RS485_INT.c ****     *
 215:Generated_Source\PSoC5/UART_RS485_INT.c ****     *******************************************************************************/
 216:Generated_Source\PSoC5/UART_RS485_INT.c ****     CY_ISR(UART_RS485_TXISR)
 217:Generated_Source\PSoC5/UART_RS485_INT.c ****     {
 141              		.loc 1 217 0
 142              		.cfi_startproc
 143              		@ args = 0, pretend = 0, frame = 0
 144              		@ frame_needed = 0, uses_anonymous_args = 0
 218:Generated_Source\PSoC5/UART_RS485_INT.c ****     #if(CY_PSOC3)
 219:Generated_Source\PSoC5/UART_RS485_INT.c ****         uint8 int_en;
 220:Generated_Source\PSoC5/UART_RS485_INT.c ****     #endif /* (CY_PSOC3) */
 221:Generated_Source\PSoC5/UART_RS485_INT.c **** 
 222:Generated_Source\PSoC5/UART_RS485_INT.c ****     #ifdef UART_RS485_TXISR_ENTRY_CALLBACK
 223:Generated_Source\PSoC5/UART_RS485_INT.c ****         UART_RS485_TXISR_EntryCallback();
 224:Generated_Source\PSoC5/UART_RS485_INT.c ****     #endif /* UART_RS485_TXISR_ENTRY_CALLBACK */
 225:Generated_Source\PSoC5/UART_RS485_INT.c **** 
 226:Generated_Source\PSoC5/UART_RS485_INT.c ****         /* User code required at start of ISR */
 227:Generated_Source\PSoC5/UART_RS485_INT.c ****         /* `#START UART_RS485_TXISR_START` */
 228:Generated_Source\PSoC5/UART_RS485_INT.c **** 
 229:Generated_Source\PSoC5/UART_RS485_INT.c ****         /* `#END` */
 230:Generated_Source\PSoC5/UART_RS485_INT.c **** 
 231:Generated_Source\PSoC5/UART_RS485_INT.c ****     #if(CY_PSOC3)   /* Make sure nested interrupt is enabled */
 232:Generated_Source\PSoC5/UART_RS485_INT.c ****         int_en = EA;
 233:Generated_Source\PSoC5/UART_RS485_INT.c ****         CyGlobalIntEnable;
 234:Generated_Source\PSoC5/UART_RS485_INT.c ****     #endif /* (CY_PSOC3) */
 235:Generated_Source\PSoC5/UART_RS485_INT.c **** 
 236:Generated_Source\PSoC5/UART_RS485_INT.c ****         while((UART_RS485_txBufferRead != UART_RS485_txBufferWrite) &&
 145              		.loc 1 236 0
 146 0000 144A     		ldr	r2, .L29
 147 0002 1548     		ldr	r0, .L29+4
ARM GAS  C:\Users\MattiaCP\AppData\Local\Temp\ccTV2FhT.s 			page 8


 148 0004 1378     		ldrb	r3, [r2]	@ zero_extendqisi2
 149 0006 0178     		ldrb	r1, [r0]	@ zero_extendqisi2
 150 0008 9942     		cmp	r1, r3
 151 000a 21D0     		beq	.L27
 217:Generated_Source\PSoC5/UART_RS485_INT.c ****     #if(CY_PSOC3)
 152              		.loc 1 217 0
 153 000c F0B5     		push	{r4, r5, r6, r7, lr}
 154              		.cfi_def_cfa_offset 20
 155              		.cfi_offset 4, -20
 156              		.cfi_offset 5, -16
 157              		.cfi_offset 6, -12
 158              		.cfi_offset 7, -8
 159              		.cfi_offset 14, -4
 237:Generated_Source\PSoC5/UART_RS485_INT.c ****              ((UART_RS485_TXSTATUS_REG & UART_RS485_TX_STS_FIFO_FULL) == 0u))
 160              		.loc 1 237 0
 161 000e 1349     		ldr	r1, .L29+8
 162 0010 0B78     		ldrb	r3, [r1]	@ zero_extendqisi2
 236:Generated_Source\PSoC5/UART_RS485_INT.c ****              ((UART_RS485_TXSTATUS_REG & UART_RS485_TX_STS_FIFO_FULL) == 0u))
 163              		.loc 1 236 0
 164 0012 03F00403 		and	r3, r3, #4
 165 0016 03F0FF06 		and	r6, r3, #255
 166 001a C3B9     		cbnz	r3, .L19
 238:Generated_Source\PSoC5/UART_RS485_INT.c ****         {
 239:Generated_Source\PSoC5/UART_RS485_INT.c ****             /* Check pointer wrap around */
 240:Generated_Source\PSoC5/UART_RS485_INT.c ****             if(UART_RS485_txBufferRead >= UART_RS485_TX_BUFFER_SIZE)
 167              		.loc 1 240 0
 168 001c 1746     		mov	r7, r2
 169 001e 104D     		ldr	r5, .L29+12
 241:Generated_Source\PSoC5/UART_RS485_INT.c ****             {
 242:Generated_Source\PSoC5/UART_RS485_INT.c ****                 UART_RS485_txBufferRead = 0u;
 243:Generated_Source\PSoC5/UART_RS485_INT.c ****             }
 244:Generated_Source\PSoC5/UART_RS485_INT.c **** 
 245:Generated_Source\PSoC5/UART_RS485_INT.c ****             UART_RS485_TXDATA_REG = UART_RS485_txBuffer[UART_RS485_txBufferRead];
 170              		.loc 1 245 0
 171 0020 104C     		ldr	r4, .L29+16
 172 0022 02E0     		b	.L23
 173              	.L28:
 237:Generated_Source\PSoC5/UART_RS485_INT.c ****         {
 174              		.loc 1 237 0 discriminator 1
 175 0024 0B78     		ldrb	r3, [r1]	@ zero_extendqisi2
 236:Generated_Source\PSoC5/UART_RS485_INT.c ****              ((UART_RS485_TXSTATUS_REG & UART_RS485_TX_STS_FIFO_FULL) == 0u))
 176              		.loc 1 236 0 discriminator 1
 177 0026 5B07     		lsls	r3, r3, #29
 178 0028 11D4     		bmi	.L19
 179              	.L23:
 240:Generated_Source\PSoC5/UART_RS485_INT.c ****             {
 180              		.loc 1 240 0
 181 002a 1378     		ldrb	r3, [r2]	@ zero_extendqisi2
 182 002c 3F2B     		cmp	r3, #63
 242:Generated_Source\PSoC5/UART_RS485_INT.c ****             }
 183              		.loc 1 242 0
 184 002e 88BF     		it	hi
 185 0030 3E70     		strbhi	r6, [r7]
 186              		.loc 1 245 0
 187 0032 1378     		ldrb	r3, [r2]	@ zero_extendqisi2
 188 0034 DBB2     		uxtb	r3, r3
 189 0036 EB5C     		ldrb	r3, [r5, r3]	@ zero_extendqisi2
ARM GAS  C:\Users\MattiaCP\AppData\Local\Temp\ccTV2FhT.s 			page 9


 190 0038 DBB2     		uxtb	r3, r3
 191 003a 2370     		strb	r3, [r4]
 246:Generated_Source\PSoC5/UART_RS485_INT.c **** 
 247:Generated_Source\PSoC5/UART_RS485_INT.c ****             /* Set next pointer */
 248:Generated_Source\PSoC5/UART_RS485_INT.c ****             UART_RS485_txBufferRead++;
 192              		.loc 1 248 0
 193 003c 1378     		ldrb	r3, [r2]	@ zero_extendqisi2
 236:Generated_Source\PSoC5/UART_RS485_INT.c ****              ((UART_RS485_TXSTATUS_REG & UART_RS485_TX_STS_FIFO_FULL) == 0u))
 194              		.loc 1 236 0
 195 003e 90F800E0 		ldrb	lr, [r0]	@ zero_extendqisi2
 196              		.loc 1 248 0
 197 0042 0133     		adds	r3, r3, #1
 198 0044 DBB2     		uxtb	r3, r3
 199 0046 1370     		strb	r3, [r2]
 236:Generated_Source\PSoC5/UART_RS485_INT.c ****              ((UART_RS485_TXSTATUS_REG & UART_RS485_TX_STS_FIFO_FULL) == 0u))
 200              		.loc 1 236 0
 201 0048 1378     		ldrb	r3, [r2]	@ zero_extendqisi2
 202 004a 9E45     		cmp	lr, r3
 203 004c EAD1     		bne	.L28
 204              	.L19:
 205 004e F0BD     		pop	{r4, r5, r6, r7, pc}
 206              	.L27:
 207              		.cfi_def_cfa_offset 0
 208              		.cfi_restore 4
 209              		.cfi_restore 5
 210              		.cfi_restore 6
 211              		.cfi_restore 7
 212              		.cfi_restore 14
 213 0050 7047     		bx	lr
 214              	.L30:
 215 0052 00BF     		.align	2
 216              	.L29:
 217 0054 00000000 		.word	UART_RS485_txBufferRead
 218 0058 00000000 		.word	UART_RS485_txBufferWrite
 219 005c 6B650040 		.word	1073767787
 220 0060 00000000 		.word	UART_RS485_txBuffer
 221 0064 48650040 		.word	1073767752
 222              		.cfi_endproc
 223              	.LFE1:
 224              		.size	UART_RS485_TXISR, .-UART_RS485_TXISR
 225              		.text
 226              	.Letext0:
 227              		.file 2 "Generated_Source\\PSoC5\\cytypes.h"
 228              		.file 3 "Generated_Source\\PSoC5\\UART_RS485.h"